                                                                      Page 1
                                                              C:\Users\Fengyuan\AppData\Local\Temp\gh_0000p9o1.s
Command Line: C:\ghs\comp_201714\asarm.exe -elf -b0 -I../../../bsw/../thirdparty/mcal_s32k/supply/s32k14x_mcal4_2_rtm_hf3_1_0_1/eclipse/plugins/base_ts_t40d2m10i1r0/include -I../../../bsw/../thirdparty/mcal_s32k/supply/s32k14x_mcal4_2_rtm_hf3_1_0_1/eclipse/plugins/dio_ts_t40d2m10i1r0/include -I../../../bsw/../thirdparty/mcal_s32k/supply/s32k14x_mcal4_2_rtm_hf3_1_0_1/eclipse/plugins/mcu_ts_t40d2m10i1r0/include -I../../../bsw/../thirdparty/mcal_s32k/supply/s32k14x_mcal4_2_rtm_hf3_1_0_1/eclipse/plugins/port_ts_t40d2m10i1r0/include -I../../../bsw/../thirdparty/mcal_s32k/supply/s32k14x_mcal4_2_rtm_hf3_1_0_1/eclipse/plugins/spi_ts_t40d2m10i1r0/include -I../../../bsw/_common -I../../../bsw/bswm -I../../../bsw/can -I../../../bsw/canif -I../../../bsw/cansm -I../../../bsw/cantp -I../../../bsw/com -I../../../bsw/comm -I../../../bsw/dcm -I../../../bsw/dem -I../../../bsw/det -I../../../bsw/ecum -I../../../bsw/gendata -I../../../bsw/iohwab -I../../../bsw/mcal_s32k -I../../../bsw/os -I../../../bsw/pdur -I../../../bsw/vstdlib -I./shared/zbrs_armcommon -I./shared/zbrs_asrembeddedruntimesystemcfg5 -I./shared/zbrs_s32arm -Ic:/ghs/comp_201714/ansi -Ic:/ghs/comp_201714/include/arm -Igendata -Igendata/components -Igendata/include -Iinclude -IC:\ghs\comp_201714\lib\thumb2 -cpu=cortexm4 -fpu=soft -patch_dbo=C:\Vector\CBD1800257_D01_S32K1xx\Applications\S32K144_Start_new\Appl\obj\BswM_Lcfg.dbo -source=BswM_Lcfg.c -o obj\gh_0000p9o1.o -list=lst/BswM_Lcfg.lst C:\Users\Fengyuan\AppData\Local\Temp\gh_0000p9o1.s 
Original File: C:\Users\Fengyuan\AppData\Local\Temp\gh_0000p9o1.s
Source File: BswM_Lcfg.c
Directory: C:\Vector\CBD1800257_D01_S32K1xx\Applications\S32K144_Start_new\Appl
Host OS: Windows
EASE: Copyright (C) 1983-2016 Green Hills Software.  All Rights Reserved.
Release: Compiler v2017.1.4
Build Directory: [Directory] COMP-VAL-WIN47:l:/compiler/release-branch-2017-1-comp/build/v2017.1-2017-04-09/win32-comp-ecom
Revision: [VCInfo] http://toolsvc/branches/release-branch-2017-1-comp/src@589570 (built by auto-compiler)
Revision Date: Mon Apr 10 10:52:57 2017

Release Date: Mon Apr 10 08:00:05 2017

                       1 ;Driver Command: ccarm -DBRS_DERIVATIVE_S32K144 -DBRS_OSC_CLK=8
                       2 ;		-DBRS_TIMEBASE_CLOCK=96 -DBRS_OS_USECASE_OSGEN7 -DBRS_EVA_BOARD_
                       3 ;		-DBRS_PROGRAM_CODE_LOCATION_FLASH
                       4 ;		-DBRS_VECTOR_TABLE_LOCATION_FLASH -DBRS_CPU_CORE_CORTEX_M4
                       5 ;		-DBRS_STACK_SIZE=0xC800 -DBRS_PLATFORM_ARM -DBRS_COMP_GHS
                       6 ;		-DBRS_INSTRUCTION_SET_ARM -DBRS_OPTIONBYTES_ADR=1
                       7 ;		-DBRS_RAM_ETH_SIZE=0 -DBRS_RAM_ETH_MAPPING=0
                       8 ;		-DBRS_RAM_SIZE=0x0000F000 -DBRS_RAM_MAPPING=0x1FFF8000 -c
                       9 ;		-object_dir=obj -list=lst/BswM_Lcfg.lst --diag_suppress=1
                      10 ;		-cpu=cortexm4 -noobj --long_long -g -dual_debug -farcalls -dwarf2
                      11 ;		-no_misalign_pack -nostartfiles -act_like=2015.1
                      12 ;		-pragma_asm_inline -thumb -thumb_lib -Osize -object_dir= -e
                      13 ;		Startup_Handler
                      14 ;		-I../../../bsw/../thirdparty/mcal_s32k/supply/s32k14x_mcal4_2_rtm_hf3_1_0_1/eclipse/plugins/base_ts_t40d2m10i1r0/include
                      15 ;		-I../../../bsw/../thirdparty/mcal_s32k/supply/s32k14x_mcal4_2_rtm_hf3_1_0_1/eclipse/plugins/dio_ts_t40d2m10i1r0/include
                      16 ;		-I../../../bsw/../thirdparty/mcal_s32k/supply/s32k14x_mcal4_2_rtm_hf3_1_0_1/eclipse/plugins/mcu_ts_t40d2m10i1r0/include
                      17 ;		-I../../../bsw/../thirdparty/mcal_s32k/supply/s32k14x_mcal4_2_rtm_hf3_1_0_1/eclipse/plugins/port_ts_t40d2m10i1r0/include
                      18 ;		-I../../../bsw/../thirdparty/mcal_s32k/supply/s32k14x_mcal4_2_rtm_hf3_1_0_1/eclipse/plugins/spi_ts_t40d2m10i1r0/include
                      19 ;		-I../../../bsw/_common -I../../../bsw/bswm -I../../../bsw/can
                      20 ;		-I../../../bsw/canif -I../../../bsw/cansm -I../../../bsw/cantp
                      21 ;		-I../../../bsw/com -I../../../bsw/comm -I../../../bsw/dcm
                      22 ;		-I../../../bsw/dem -I../../../bsw/det -I../../../bsw/ecum
                      23 ;		-I../../../bsw/gendata -I../../../bsw/iohwab
                      24 ;		-I../../../bsw/mcal_s32k -I../../../bsw/os -I../../../bsw/pdur
                      25 ;		-I../../../bsw/vstdlib -I./shared/zbrs_armcommon
                      26 ;		-I./shared/zbrs_asrembeddedruntimesystemcfg5
                      27 ;		-I./shared/zbrs_s32arm -Ic:/ghs/comp_201714/ansi
                      28 ;		-Ic:/ghs/comp_201714/include/arm -Igendata -Igendata/components
                      29 ;		-Igendata/include -Iinclude GenData/BswM_Lcfg.c
                      30 ;Source File:   GenData/BswM_Lcfg.c
                      31 ;Directory:     
                      32 ;		C:\Vector\CBD1800257_D01_S32K1xx\Applications\S32K144_Start_new\Appl
                      33 ;Compile Date:  Fri Jun 18 09:56:53 2021
                      34 ;Host OS:       Win32
                      35 ;Version:       C-ARM 2017.1.4 RELEASE VERSION
                      36 ;Release:       Compiler v2017.1.4
                      37 ;Revision Date: Tue Apr 11 01:37:22 2017
                      38 ;Release Date:  Mon Apr 10 08:00:05 2017
                      39 ; ecom  -g -w -OMS
                      40 	.assert 0x0 + (BswM_PduGroupControlInvocation - BswM_PduGroupControlInvocation) +0 == 0
                      41 	.assert 0x0 + (BswM_ComRxIPduGroupDMState - BswM_PduGroupControlInvocation) +0 == 2
                      42 	.assert 0x0 + (BswM_ComIPduGroupState - BswM_PduGroupControlInvocation) +0 == 1
                      43 	.text
                      44 ..bof.C.3A.5CVector.5CCBD1800257_D01_S32K1xx.5CApplications.5CS32K144_Start_new.5CAppl.5Cobj.5CBswM_Lcfg...43.3A.5CVector.5CCBD1800257_D01_S32K1xx.5CApplications.5CS32K144_Start_new.5CAppl..60CBFD66..0::
                      45 	.align	2
                      46 ..gh.f.a.1.e.0:
                      47 	.endo	..gh.f.a.1.e.0
                      48 	.thumb2
                      49 BswM_ExecuteIpduGroupControl::
00000000 b530         50 	push	{r4-r5,lr}

                                                                      Page 2
                                                              C:\Users\Fengyuan\AppData\Local\Temp\gh_0000p9o1.s
00000002 b081         51 	sub	sp,4
00000004 4cc2*        52 	ldr	r4,.L273
                      53 .LDW01:
00000006 48c3*        54 	ldr	r0,.L274
00000008 2500         55 	movs	r5,0
0000000a 4780         56 	blx	r0
0000000c 7820         57 	ldrb	r0,[r4]
0000000e b160*        58 	cbz	r0,.L40
00000010 07c1         59 	lsls	r1,r0,31
00000012 d502*        60 	bpl	.L42
                      61 ;line767
                      62 ..lin.b01278b3..7b4451b0.0_1::
                      63 .LDWlin1:
00000014 7861         64 	ldrb	r1,[r4,1]
00000016 466a         65 	mov	r2,sp
00000018 7091         66 	strb	r1,[r2,2]
                      67 .L42:
0000001a 0742         68 	lsls	r2,r0,29
0000001c d502*        69 	bpl	.L47
                      70 ;line775
                      71 ..lin.b01278b3..7b4451b0.0_2::
                      72 .LDWlin2:
0000001e 78a1         73 	ldrb	r1,[r4,2]
00000020 466a         74 	mov	r2,sp
00000022 70d1         75 	strb	r1,[r2,3]
                      76 .L47:
00000024 4605         77 	cpy	r5,r0
00000026 2000         78 	movs	r0,0
00000028 7020         79 	strb	r0,[r4]
                      80 .L40:
0000002a 48bb*        81 	ldr	r0,.L275
0000002c 4780         82 	blx	r0
0000002e b165*        83 	cbz	r5,.L38
00000030 07e8         84 	lsls	r0,r5,31
00000032 d504*        85 	bpl	.L54
                      86 ;line787
                      87 ..lin.b01278b3..7b4451b0.0_3::
                      88 .LDWlin3:
00000034 4668         89 	mov	r0,sp
00000036 4ab9*        90 	ldr	r2,.L276
00000038 3002         91 	adds	r0,2
0000003a 2100         92 	movs	r1,0
0000003c 4790         93 	blx	r2
                      94 .L54:
0000003e 0769         95 	lsls	r1,r5,29
00000040 d503*        96 	bpl	.L38
                      97 ;line791
                      98 ..lin.b01278b3..7b4451b0.0_4::
                      99 .LDWlin4:
00000042 49b7*       100 	ldr	r1,.L277
00000044 4668        101 	mov	r0,sp
00000046 3003        102 	adds	r0,3
00000048 4788        103 	blx	r1
                     104 .L38:
                     105 .LDW11:
0000004a b001        106 	add	sp,4
0000004c bd30        107 	pop	{r4-r5,pc}
                     108 __ghs_eofn_BswM_ExecuteIpduGroupControl::
                     109 	.endf	BswM_ExecuteIpduGroupControl
                     110 ;ipduGroupState	[sp,2]	local
                     111 ;dmState	[sp,3]	local

                                                                      Page 3
                                                              C:\Users\Fengyuan\AppData\Local\Temp\gh_0000p9o1.s
                     112 ;controlInvocation	r5	local
                     113 
                     114 	.section ".bss","awb"
                     115 BswM_PduGroupControlInvocation..C.3A.5CVector.5CCBD1800257_D01_S32K1xx.5CApplications.5CS32K144_Start_new.5CAppl.5Cobj.5CBswM_Lcfg.::
00000000 00          116 BswM_PduGroupControlInvocation:	.space	1
                     117 	.endo	BswM_PduGroupControlInvocation..C.3A.5CVector.5CCBD1800257_D01_S32K1xx.5CApplications.5CS32K144_Start_new.5CAppl.5Cobj.5CBswM_Lcfg.
                     118 	.endo	BswM_PduGroupControlInvocation
                     119 BswM_ComIPduGroupState..C.3A.5CVector.5CCBD1800257_D01_S32K1xx.5CApplications.5CS32K144_Start_new.5CAppl.5Cobj.5CBswM_Lcfg.::
00000001 00          120 BswM_ComIPduGroupState:	.space	1
                     121 	.endo	BswM_ComIPduGroupState..C.3A.5CVector.5CCBD1800257_D01_S32K1xx.5CApplications.5CS32K144_Start_new.5CAppl.5Cobj.5CBswM_Lcfg.
                     122 	.endo	BswM_ComIPduGroupState
                     123 BswM_ComRxIPduGroupDMState..C.3A.5CVector.5CCBD1800257_D01_S32K1xx.5CApplications.5CS32K144_Start_new.5CAppl.5Cobj.5CBswM_Lcfg.::
00000002 00          124 BswM_ComRxIPduGroupDMState:	.space	1
                     125 	.endo	BswM_ComRxIPduGroupDMState..C.3A.5CVector.5CCBD1800257_D01_S32K1xx.5CApplications.5CS32K144_Start_new.5CAppl.5Cobj.5CBswM_Lcfg.
                     126 	.endo	BswM_ComRxIPduGroupDMState
                     127 	.text
                     128 ..gh.f.a.1.e.1:
                     129 	.endo	..gh.f.a.1.e.1
                     130 	.global	BswM_Action_RuleHandler..C.3A.5CVector.5CCBD1800257_D01_S32K1xx.5CApplications.5CS32K144_Start_new.5CAppl.5Cobj.5CBswM_Lcfg.
                     131 BswM_Action_RuleHandler..C.3A.5CVector.5CCBD1800257_D01_S32K1xx.5CApplications.5CS32K144_Start_new.5CAppl.5Cobj.5CBswM_Lcfg.:
                     132 BswM_Action_RuleHandler:
0000004e b510        133 	push	{r4,lr}
00000050 4604        134 	cpy	r4,r0
                     135 .LDW21:
00000052 280f        136 	cmp	r0,15
00000054 2001        137 	movs	r0,1
00000056 d210*       138 	bhs	.L278
                     139 ;line806
                     140 ..lin.b01278b3..384a4870.0_5::
                     141 .LDWlin5:
00000058 48ae*       142 	ldr	r0,.L274
0000005a 4780        143 	blx	r0
0000005c 49b1*       144 	ldr	r1,.L383
0000005e eb1100c4    145 	adds	r0,r1,r4 lsl 3
00000062 6840        146 	ldr	r0,[r0,4]
00000064 4780        147 	blx	r0
00000066 4604        148 	cpy	r4,r0
00000068 48ab*       149 	ldr	r0,.L275
0000006a 4780        150 	blx	r0
0000006c 2000        151 	movs	r0,0
0000006e 2c14        152 	cmp	r4,20
00000070 d203*       153 	bhs	.L278
                     154 ;line811
                     155 ..lin.b01278b3..384a4870.0_6::
                     156 .LDWlin6:
00000072 48ad*       157 	ldr	r0,.L384
00000074 f8500024    158 	ldr.w	r0,[r0,r4 lsl 2]
00000078 4780        159 	blx	r0
                     160 .L278:
                     161 .LDW31:
0000007a bd10        162 	pop	{r4,pc}
                     163 __ghs_eofn_BswM_Action_RuleHandler:
                     164 	.endf	BswM_Action_RuleHandler
                     165 	.endf	BswM_Action_RuleHandler..C.3A.5CVector.5CCBD1800257_D01_S32K1xx.5CApplications.5CS32K144_Start_new.5CAppl.5Cobj.5CBswM_Lcfg.
                     166 ;actionListIndex	r4	local
                     167 ;retVal	r0	local
                     168 
                     169 ;handleId	r4	param
                     170 
                     171 	.section ".bss","awb"
                     172 .L334:

                                                                      Page 4
                                                              C:\Users\Fengyuan\AppData\Local\Temp\gh_0000p9o1.s
                     173 	.endo	.L334
                     174 	.section ".rodata","a"
                     175 	.align	4
00000000 00          176 BswM_Rules::	.space	1
00000001 000000      177 	.space	3
00000004 00000000*   178 	.data.w	BswM_Rule_CC_CN_CAN00_5e566ad9_RX
00000008 02          179 	.data.b	2
00000009 000000      180 	.space	3
0000000c 00000000*   181 	.data.w	BswM_Rule_CC_CN_CAN00_5e566ad9_TX
00000010 01          182 	.data.b	1
00000011 000000      183 	.space	3
00000014 00000000*   184 	.data.w	BswM_Rule_CC_CN_CAN00_5e566ad9_RX_DM
00000018 09          185 	.data.b	9
00000019 000000      186 	.space	3
0000001c 00000000*   187 	.data.w	BswM_Rule_ESH_RunToPostRun
00000020 0a          188 	.data.b	10
00000021 000000      189 	.space	3
00000024 00000000*   190 	.data.w	BswM_Rule_ESH_RunToPostRunNested
00000028 0b          191 	.data.b	11
00000029 000000      192 	.space	3
0000002c 00000000*   193 	.data.w	BswM_Rule_ESH_WaitToShutdown
00000030 0d          194 	.data.b	13
00000031 000000      195 	.space	3
00000034 00000000*   196 	.data.w	BswM_Rule_ESH_WakeupToPrep
00000038 0c          197 	.data.b	12
00000039 000000      198 	.space	3
0000003c 00000000*   199 	.data.w	BswM_Rule_ESH_WaitToWakeup
00000040 0e          200 	.data.b	14
00000041 000000      201 	.space	3
00000044 00000000*   202 	.data.w	BswM_Rule_ESH_WakeupToRun
00000048 03          203 	.data.b	3
00000049 000000      204 	.space	3
0000004c 00000000*   205 	.data.w	BswM_Rule_ESH_DemInit
00000050 04          206 	.data.b	4
00000051 000000      207 	.space	3
00000054 00000000*   208 	.data.w	BswM_Rule_ESH_InitToWakeup
00000058 07          209 	.data.b	7
00000059 000000      210 	.space	3
0000005c 00000000*   211 	.data.w	BswM_Rule_ESH_PostRunToPrepNested
00000060 06          212 	.data.b	6
00000061 000000      213 	.space	3
00000064 00000000*   214 	.data.w	BswM_Rule_ESH_PostRunNested
00000068 05          215 	.data.b	5
00000069 000000      216 	.space	3
0000006c 00000000*   217 	.data.w	BswM_Rule_ESH_PostRun
00000070 08          218 	.data.b	8
00000071 000000      219 	.space	3
00000074 00000000*   220 	.data.w	BswM_Rule_ESH_PrepToWait
                     221 	.endo	BswM_Rules
00000078 00000000*   222 BswM_ActionLists::	.data.w	BswM_ActionList_CC_AL_CN_CAN00_5e566ad9_RX_Disable
0000007c 00000000*   223 	.data.w	BswM_ActionList_CC_AL_CN_CAN00_5e566ad9_RX_EnableNoinit
00000080 00000000*   224 	.data.w	BswM_ActionList_CC_AL_CN_CAN00_5e566ad9_TX_Disable
00000084 00000000*   225 	.data.w	BswM_ActionList_CC_AL_CN_CAN00_5e566ad9_TX_EnableNoinit
00000088 00000000*   226 	.data.w	BswM_ActionList_CC_AL_CN_CAN00_5e566ad9_Disable_DM
0000008c 00000000*   227 	.data.w	BswM_ActionList_CC_AL_CN_CAN00_5e566ad9_Enable_DM
00000090 00000000*   228 	.data.w	BswM_ActionList_INIT_AL_Initialize
00000094 00000000*   229 	.data.w	BswM_ActionList_ESH_AL_ExitRun
00000098 00000000*   230 	.data.w	BswM_ActionList_ESH_AL_RunToPostRun
0000009c 00000000*   231 	.data.w	BswM_ActionList_ESH_AL_WaitForNvMToShutdown
000000a0 00000000*   232 	.data.w	BswM_ActionList_ESH_AL_WakeupToPrep
000000a4 00000000*   233 	.data.w	BswM_ActionList_ESH_AL_WaitForNvMWakeup

                                                                      Page 5
                                                              C:\Users\Fengyuan\AppData\Local\Temp\gh_0000p9o1.s
000000a8 00000000*   234 	.data.w	BswM_ActionList_ESH_AL_WakeupToRun
000000ac 00000000*   235 	.data.w	BswM_ActionList_ESH_AL_DemInit
000000b0 00000000*   236 	.data.w	BswM_ActionList_ESH_AL_WaitForNvMWakeup
000000b4 00000000*   237 	.data.w	BswM_ActionList_ESH_AL_PostRunToPrepShutdown
000000b8 00000000*   238 	.data.w	BswM_ActionList_ESH_AL_ESH_PostRunToPrepCheck
000000bc 00000000*   239 	.data.w	BswM_ActionList_ESH_AL_PostRunToRun
000000c0 00000000*   240 	.data.w	BswM_ActionList_ESH_AL_ExitPostRun
000000c4 00000000*   241 	.data.w	BswM_ActionList_ESH_AL_PrepShutdownToWaitForNvM
                     242 	.endo	BswM_ActionLists
                     243 	.text
                     244 	.assert 0x0 + (BswM_Switch_ESH_ModeSwitch_BswM_MDGP_ESH_Mode - BswM_PduGroupControlInvocation) +0 == 8
                     245 	.assert 0x0 + (Request_ESH_RunRequest_0_requestedMode - BswM_PduGroupControlInvocation) +0 == 7
                     246 	.assert 0x0 + (Request_ESH_RunRequest_1_requestedMode - BswM_PduGroupControlInvocation) +0 == 6
                     247 	.assert 0x0 + (Request_ESH_PostRunRequest_0_requestedMode - BswM_PduGroupControlInvocation) +0 == 5
                     248 	.assert 0x0 + (Request_ESH_PostRunRequest_1_requestedMode - BswM_PduGroupControlInvocation) +0 == 4
                     249 	.assert 0x0 + (BswM_Mode_Notification_ESH_ModeNotification_BswM_MDGP_ESH_Mode - BswM_PduGroupControlInvocation) +0 == 3
                     250 	.assert 0x0 + (BswM_PduGroupControlInvocation - BswM_PduGroupControlInvocation) +0 == 0
                     251 	.assert 0x0 + (BswM_ComIPduGroupState - BswM_PduGroupControlInvocation) +0 == 1
                     252 	.assert 0x0 + (BswM_ComRxIPduGroupDMState - BswM_PduGroupControlInvocation) +0 == 2
                     253 ..gh.f.a.1.e.2:
                     254 	.endo	..gh.f.a.1.e.2
                     255 BswM_Init_Gen_NoPartitions::
0000007c b530        256 	push	{r4-r5,lr}
0000007e 4da4*       257 	ldr	r5,.L273
                     258 .LDW41:
00000080 20ff        259 	movs	r0,255
00000082 4caa*       260 	ldr	r4,.L437
00000084 7228        261 	strb	r0,[r5,8]
00000086 2000        262 	movs	r0,0
00000088 71e8        263 	strb	r0,[r5,7]
0000008a 71a8        264 	strb	r0,[r5,6]
0000008c 7168        265 	strb	r0,[r5,5]
0000008e 7128        266 	strb	r0,[r5,4]
00000090 2003        267 	movs	r0,3
00000092 70e8        268 	strb	r0,[r5,3]
00000094 2000        269 	movs	r0,0
00000096 7028        270 	strb	r0,[r5]
00000098 1c68        271 	adds	r0,r5,1
0000009a 47a0        272 	blx	r4
0000009c 1ca8        273 	adds	r0,r5,2
0000009e 47a0        274 	blx	r4
000000a0 48a3*       275 	ldr	r0,.L438
000000a2 4780        276 	blx	r0
                     277 .LDW51:
000000a4 bd30        278 	pop	{r4-r5,pc}
                     279 __ghs_eofn_BswM_Init_Gen_NoPartitions::
                     280 	.endf	BswM_Init_Gen_NoPartitions
                     281 
                     282 	.section ".bss","awb"
                     283 BswM_Mode_Notification_ESH_ModeNotification_BswM_MDGP_ESH_Mode..C.3A.5CVector.5CCBD1800257_D01_S32K1xx.5CApplications.5CS32K144_Start_new.5CAppl.5Cobj.5CBswM_Lcfg.::
00000003 00          284 BswM_Mode_Notification_ESH_ModeNotification_BswM_MDGP_ESH_Mode:	.space	1
                     285 	.endo	BswM_Mode_Notification_ESH_ModeNotification_BswM_MDGP_ESH_Mode..C.3A.5CVector.5CCBD1800257_D01_S32K1xx.5CApplications.5CS32K144_Start_new.5CAppl.5Cobj.5CBswM_Lcfg.
                     286 	.endo	BswM_Mode_Notification_ESH_ModeNotification_BswM_MDGP_ESH_Mode
                     287 Request_ESH_PostRunRequest_1_requestedMode..C.3A.5CVector.5CCBD1800257_D01_S32K1xx.5CApplications.5CS32K144_Start_new.5CAppl.5Cobj.5CBswM_Lcfg.::
00000004 00          288 Request_ESH_PostRunRequest_1_requestedMode:	.space	1
                     289 	.endo	Request_ESH_PostRunRequest_1_requestedMode..C.3A.5CVector.5CCBD1800257_D01_S32K1xx.5CApplications.5CS32K144_Start_new.5CAppl.5Cobj.5CBswM_Lcfg.
                     290 	.endo	Request_ESH_PostRunRequest_1_requestedMode
                     291 Request_ESH_PostRunRequest_0_requestedMode..C.3A.5CVector.5CCBD1800257_D01_S32K1xx.5CApplications.5CS32K144_Start_new.5CAppl.5Cobj.5CBswM_Lcfg.::
00000005 00          292 Request_ESH_PostRunRequest_0_requestedMode:	.space	1
                     293 	.endo	Request_ESH_PostRunRequest_0_requestedMode..C.3A.5CVector.5CCBD1800257_D01_S32K1xx.5CApplications.5CS32K144_Start_new.5CAppl.5Cobj.5CBswM_Lcfg.
                     294 	.endo	Request_ESH_PostRunRequest_0_requestedMode

                                                                      Page 6
                                                              C:\Users\Fengyuan\AppData\Local\Temp\gh_0000p9o1.s
                     295 Request_ESH_RunRequest_1_requestedMode..C.3A.5CVector.5CCBD1800257_D01_S32K1xx.5CApplications.5CS32K144_Start_new.5CAppl.5Cobj.5CBswM_Lcfg.::
00000006 00          296 Request_ESH_RunRequest_1_requestedMode:	.space	1
                     297 	.endo	Request_ESH_RunRequest_1_requestedMode..C.3A.5CVector.5CCBD1800257_D01_S32K1xx.5CApplications.5CS32K144_Start_new.5CAppl.5Cobj.5CBswM_Lcfg.
                     298 	.endo	Request_ESH_RunRequest_1_requestedMode
                     299 Request_ESH_RunRequest_0_requestedMode..C.3A.5CVector.5CCBD1800257_D01_S32K1xx.5CApplications.5CS32K144_Start_new.5CAppl.5Cobj.5CBswM_Lcfg.::
00000007 00          300 Request_ESH_RunRequest_0_requestedMode:	.space	1
                     301 	.endo	Request_ESH_RunRequest_0_requestedMode..C.3A.5CVector.5CCBD1800257_D01_S32K1xx.5CApplications.5CS32K144_Start_new.5CAppl.5Cobj.5CBswM_Lcfg.
                     302 	.endo	Request_ESH_RunRequest_0_requestedMode
                     303 BswM_Switch_ESH_ModeSwitch_BswM_MDGP_ESH_Mode..C.3A.5CVector.5CCBD1800257_D01_S32K1xx.5CApplications.5CS32K144_Start_new.5CAppl.5Cobj.5CBswM_Lcfg.::
00000008 00          304 BswM_Switch_ESH_ModeSwitch_BswM_MDGP_ESH_Mode:	.space	1
                     305 	.endo	BswM_Switch_ESH_ModeSwitch_BswM_MDGP_ESH_Mode..C.3A.5CVector.5CCBD1800257_D01_S32K1xx.5CApplications.5CS32K144_Start_new.5CAppl.5Cobj.5CBswM_Lcfg.
                     306 	.endo	BswM_Switch_ESH_ModeSwitch_BswM_MDGP_ESH_Mode
                     307 	.text
                     308 	.assert 0x0 + (BswM_Switch_ESH_ModeSwitch_BswM_MDGP_ESH_Mode - BswM_Switch_ESH_ModeSwitch_BswM_MDGP_ESH_Mode) +0 == 0
                     309 ..gh.f.a.1.e.3:
                     310 	.endo	..gh.f.a.1.e.3
                     311 BswM_ModeNotificationFct::
000000a6 b510        312 	push	{r4,lr}
000000a8 4ca2*       313 	ldr	r4,.L511
                     314 .LDW61:
000000aa 7820        315 	ldrb	r0,[r4]
000000ac 28ff        316 	cmp	r0,255
000000ae d004*       317 	beq	.L439
                     318 ;line875
                     319 ..lin.b01278b3..66b23066.0_7::
                     320 .LDWlin7:
000000b0 49a1*       321 	ldr	r1,.L512
000000b2 4788        322 	blx	r1
000000b4 b908*       323 	cbnz	r0,.L439
000000b6 20ff        324 	movs	r0,255
000000b8 7020        325 	strb	r0,[r4]
                     326 .L439:
                     327 .LDW71:
000000ba bd10        328 	pop	{r4,pc}
                     329 __ghs_eofn_BswM_ModeNotificationFct::
                     330 	.endf	BswM_ModeNotificationFct
                     331 
                     332 	.assert 0x0 + (Request_ESH_RunRequest_0_requestedMode - BswM_Mode_Notification_ESH_ModeNotification_BswM_MDGP_ESH_Mode) +3 == 7
                     333 	.assert 0x0 + (Request_ESH_RunRequest_1_requestedMode - BswM_Mode_Notification_ESH_ModeNotification_BswM_MDGP_ESH_Mode) +3 == 6
                     334 	.assert 0x0 + (Request_ESH_PostRunRequest_0_requestedMode - BswM_Mode_Notification_ESH_ModeNotification_BswM_MDGP_ESH_Mode) +3 == 5
                     335 	.assert 0x0 + (Request_ESH_PostRunRequest_1_requestedMode - BswM_Mode_Notification_ESH_ModeNotification_BswM_MDGP_ESH_Mode) +3 == 4
                     336 	.assert 0x0 + (BswM_Mode_Notification_ESH_ModeNotification_BswM_MDGP_ESH_Mode - BswM_Mode_Notification_ESH_ModeNotification_BswM_MDGP_ESH_Mode) +3 == 3
                     337 ..gh.f.a.1.e.4:
                     338 	.endo	..gh.f.a.1.e.4
                     339 BswM_SwcModeRequestUpdateFct::
000000bc b510        340 	push	{r4,lr}
000000be 4c9f*       341 	ldr	r4,.L591
                     342 .LDW81:
000000c0 489f*       343 	ldr	r0,.L592
000000c2 4780        344 	blx	r0
000000c4 2805        345 	cmp	r0,5
000000c6 d000*       346 	beq	.L515
                     347 ;line891
                     348 ..lin.b01278b3..c6235c58.0_8::
                     349 .LDWlin8:
000000c8 70e0        350 	strb	r0,[r4,3]
                     351 .L515:
000000ca 499e*       352 	ldr	r1,.L593
000000cc 1de0        353 	adds	r0,r4,7
000000ce 4788        354 	blx	r1
000000d0 499d*       355 	ldr	r1,.L594

                                                                      Page 7
                                                              C:\Users\Fengyuan\AppData\Local\Temp\gh_0000p9o1.s
000000d2 1da0        356 	adds	r0,r4,6
000000d4 4788        357 	blx	r1
000000d6 499d*       358 	ldr	r1,.L595
000000d8 1d60        359 	adds	r0,r4,5
000000da 4788        360 	blx	r1
000000dc 499c*       361 	ldr	r1,.L596
000000de 1d20        362 	adds	r0,r4,4
000000e0 4788        363 	blx	r1
                     364 .LDW91:
000000e2 bd10        365 	pop	{r4,pc}
                     366 __ghs_eofn_BswM_SwcModeRequestUpdateFct::
                     367 	.endf	BswM_SwcModeRequestUpdateFct
                     368 ;mode	r0	local
                     369 
                     370 	.assert 0x0 + (BswM_ComIPduGroupState - BswM_PduGroupControlInvocation) +0 == 1
                     371 	.assert 0x0 + (BswM_ComRxIPduGroupDMState - BswM_PduGroupControlInvocation) +0 == 2
                     372 	.assert 0x0 + (BswM_PduGroupControlInvocation - BswM_PduGroupControlInvocation) +0 == 0
                     373 ..gh.f.a.1.e.5:
                     374 	.endo	..gh.f.a.1.e.5
                     375 	.global	BswM_ActionList_CC_AL_CN_CAN00_5e566ad9_RX_Disable..C.3A.5CVector.5CCBD1800257_D01_S32K1xx.5CApplications.5CS32K144_Start_new.5CAppl.5Cobj.5CBswM_Lcfg.
                     376 BswM_ActionList_CC_AL_CN_CAN00_5e566ad9_RX_Disable..C.3A.5CVector.5CCBD1800257_D01_S32K1xx.5CApplications.5CS32K144_Start_new.5CAppl.5Cobj.5CBswM_Lcfg.:
                     377 BswM_ActionList_CC_AL_CN_CAN00_5e566ad9_RX_Disable:
000000e4 b530        378 	push	{r4-r5,lr}
000000e6 4d8a*       379 	ldr	r5,.L273
                     380 .LDW02:
000000e8 4c9a*       381 	ldr	r4,.L645
000000ea 1c68        382 	adds	r0,r5,1
000000ec 2200        383 	movs	r2,0
000000ee 4611        384 	cpy	r1,r2
000000f0 47a0        385 	blx	r4
000000f2 1ca8        386 	adds	r0,r5,2
000000f4 2200        387 	movs	r2,0
000000f6 4611        388 	cpy	r1,r2
000000f8 47a0        389 	blx	r4
000000fa 7828        390 	ldrb	r0,[r5]
000000fc f0500001    391 	orrs	r0,r0,1
00000100 7028        392 	strb	r0,[r5]
00000102 2000        393 	movs	r0,0
                     394 .LDW12:
00000104 bd30        395 	pop	{r4-r5,pc}
                     396 __ghs_eofn_BswM_ActionList_CC_AL_CN_CAN00_5e566ad9_RX_Disable:
                     397 	.endf	BswM_ActionList_CC_AL_CN_CAN00_5e566ad9_RX_Disable
                     398 	.endf	BswM_ActionList_CC_AL_CN_CAN00_5e566ad9_RX_Disable..C.3A.5CVector.5CCBD1800257_D01_S32K1xx.5CApplications.5CS32K144_Start_new.5CAppl.5Cobj.5CBswM_Lcfg.
                     399 
                     400 	.assert 0x0 + (BswM_ComIPduGroupState - BswM_PduGroupControlInvocation) +0 == 1
                     401 	.assert 0x0 + (BswM_ComRxIPduGroupDMState - BswM_PduGroupControlInvocation) +0 == 2
                     402 	.assert 0x0 + (BswM_PduGroupControlInvocation - BswM_PduGroupControlInvocation) +0 == 0
                     403 ..gh.f.a.1.e.6:
                     404 	.endo	..gh.f.a.1.e.6
                     405 	.global	BswM_ActionList_CC_AL_CN_CAN00_5e566ad9_RX_EnableNoinit..C.3A.5CVector.5CCBD1800257_D01_S32K1xx.5CApplications.5CS32K144_Start_new.5CAppl.5Cobj.5CBswM_Lcfg.
                     406 BswM_ActionList_CC_AL_CN_CAN00_5e566ad9_RX_EnableNoinit..C.3A.5CVector.5CCBD1800257_D01_S32K1xx.5CApplications.5CS32K144_Start_new.5CAppl.5Cobj.5CBswM_Lcfg.:
                     407 BswM_ActionList_CC_AL_CN_CAN00_5e566ad9_RX_EnableNoinit:
00000106 b530        408 	push	{r4-r5,lr}
00000108 4d81*       409 	ldr	r5,.L273
                     410 .LDW22:
0000010a 4c92*       411 	ldr	r4,.L645
0000010c 1c68        412 	adds	r0,r5,1
0000010e 2201        413 	movs	r2,1
00000110 2100        414 	movs	r1,0
00000112 47a0        415 	blx	r4
00000114 1ca8        416 	adds	r0,r5,2

                                                                      Page 8
                                                              C:\Users\Fengyuan\AppData\Local\Temp\gh_0000p9o1.s
00000116 2201        417 	movs	r2,1
00000118 2100        418 	movs	r1,0
0000011a 47a0        419 	blx	r4
0000011c 7828        420 	ldrb	r0,[r5]
0000011e f0500001    421 	orrs	r0,r0,1
00000122 7028        422 	strb	r0,[r5]
00000124 2000        423 	movs	r0,0
                     424 .LDW32:
00000126 bd30        425 	pop	{r4-r5,pc}
                     426 __ghs_eofn_BswM_ActionList_CC_AL_CN_CAN00_5e566ad9_RX_EnableNoinit:
                     427 	.endf	BswM_ActionList_CC_AL_CN_CAN00_5e566ad9_RX_EnableNoinit
                     428 	.endf	BswM_ActionList_CC_AL_CN_CAN00_5e566ad9_RX_EnableNoinit..C.3A.5CVector.5CCBD1800257_D01_S32K1xx.5CApplications.5CS32K144_Start_new.5CAppl.5Cobj.5CBswM_Lcfg.
                     429 
                     430 	.assert 0x0 + (BswM_ComIPduGroupState - BswM_PduGroupControlInvocation) +0 == 1
                     431 	.assert 0x0 + (BswM_ComRxIPduGroupDMState - BswM_PduGroupControlInvocation) +0 == 2
                     432 	.assert 0x0 + (BswM_PduGroupControlInvocation - BswM_PduGroupControlInvocation) +0 == 0
                     433 ..gh.f.a.1.e.7:
                     434 	.endo	..gh.f.a.1.e.7
                     435 	.global	BswM_ActionList_CC_AL_CN_CAN00_5e566ad9_TX_Disable..C.3A.5CVector.5CCBD1800257_D01_S32K1xx.5CApplications.5CS32K144_Start_new.5CAppl.5Cobj.5CBswM_Lcfg.
                     436 BswM_ActionList_CC_AL_CN_CAN00_5e566ad9_TX_Disable..C.3A.5CVector.5CCBD1800257_D01_S32K1xx.5CApplications.5CS32K144_Start_new.5CAppl.5Cobj.5CBswM_Lcfg.:
                     437 BswM_ActionList_CC_AL_CN_CAN00_5e566ad9_TX_Disable:
00000128 b530        438 	push	{r4-r5,lr}
0000012a 4d79*       439 	ldr	r5,.L273
                     440 .LDW42:
0000012c 4c89*       441 	ldr	r4,.L645
0000012e 1c68        442 	adds	r0,r5,1
00000130 2200        443 	movs	r2,0
00000132 2101        444 	movs	r1,1
00000134 47a0        445 	blx	r4
00000136 1ca8        446 	adds	r0,r5,2
00000138 2200        447 	movs	r2,0
0000013a 2101        448 	movs	r1,1
0000013c 47a0        449 	blx	r4
0000013e 7828        450 	ldrb	r0,[r5]
00000140 f0500001    451 	orrs	r0,r0,1
00000144 7028        452 	strb	r0,[r5]
00000146 2000        453 	movs	r0,0
                     454 .LDW52:
00000148 bd30        455 	pop	{r4-r5,pc}
                     456 __ghs_eofn_BswM_ActionList_CC_AL_CN_CAN00_5e566ad9_TX_Disable:
                     457 	.endf	BswM_ActionList_CC_AL_CN_CAN00_5e566ad9_TX_Disable
                     458 	.endf	BswM_ActionList_CC_AL_CN_CAN00_5e566ad9_TX_Disable..C.3A.5CVector.5CCBD1800257_D01_S32K1xx.5CApplications.5CS32K144_Start_new.5CAppl.5Cobj.5CBswM_Lcfg.
                     459 
                     460 	.assert 0x0 + (BswM_ComIPduGroupState - BswM_PduGroupControlInvocation) +0 == 1
                     461 	.assert 0x0 + (BswM_ComRxIPduGroupDMState - BswM_PduGroupControlInvocation) +0 == 2
                     462 	.assert 0x0 + (BswM_PduGroupControlInvocation - BswM_PduGroupControlInvocation) +0 == 0
                     463 ..gh.f.a.1.e.8:
                     464 	.endo	..gh.f.a.1.e.8
                     465 	.global	BswM_ActionList_CC_AL_CN_CAN00_5e566ad9_TX_EnableNoinit..C.3A.5CVector.5CCBD1800257_D01_S32K1xx.5CApplications.5CS32K144_Start_new.5CAppl.5Cobj.5CBswM_Lcfg.
                     466 BswM_ActionList_CC_AL_CN_CAN00_5e566ad9_TX_EnableNoinit..C.3A.5CVector.5CCBD1800257_D01_S32K1xx.5CApplications.5CS32K144_Start_new.5CAppl.5Cobj.5CBswM_Lcfg.:
                     467 BswM_ActionList_CC_AL_CN_CAN00_5e566ad9_TX_EnableNoinit:
0000014a b530        468 	push	{r4-r5,lr}
0000014c 4d70*       469 	ldr	r5,.L273
                     470 .LDW62:
0000014e 4c81*       471 	ldr	r4,.L645
00000150 1c68        472 	adds	r0,r5,1
00000152 2201        473 	movs	r2,1
00000154 4611        474 	cpy	r1,r2
00000156 47a0        475 	blx	r4
00000158 1ca8        476 	adds	r0,r5,2
0000015a 2201        477 	movs	r2,1

                                                                      Page 9
                                                              C:\Users\Fengyuan\AppData\Local\Temp\gh_0000p9o1.s
0000015c 4611        478 	cpy	r1,r2
0000015e 47a0        479 	blx	r4
00000160 7828        480 	ldrb	r0,[r5]
00000162 f0500001    481 	orrs	r0,r0,1
00000166 7028        482 	strb	r0,[r5]
00000168 2000        483 	movs	r0,0
                     484 .LDW72:
0000016a bd30        485 	pop	{r4-r5,pc}
                     486 __ghs_eofn_BswM_ActionList_CC_AL_CN_CAN00_5e566ad9_TX_EnableNoinit:
                     487 	.endf	BswM_ActionList_CC_AL_CN_CAN00_5e566ad9_TX_EnableNoinit
                     488 	.endf	BswM_ActionList_CC_AL_CN_CAN00_5e566ad9_TX_EnableNoinit..C.3A.5CVector.5CCBD1800257_D01_S32K1xx.5CApplications.5CS32K144_Start_new.5CAppl.5Cobj.5CBswM_Lcfg.
                     489 
                     490 	.assert 0x0 + (BswM_ComRxIPduGroupDMState - BswM_PduGroupControlInvocation) +0 == 2
                     491 	.assert 0x0 + (BswM_PduGroupControlInvocation - BswM_PduGroupControlInvocation) +0 == 0
                     492 ..gh.f.a.1.e.9:
                     493 	.endo	..gh.f.a.1.e.9
                     494 	.global	BswM_ActionList_CC_AL_CN_CAN00_5e566ad9_Disable_DM..C.3A.5CVector.5CCBD1800257_D01_S32K1xx.5CApplications.5CS32K144_Start_new.5CAppl.5Cobj.5CBswM_Lcfg.
                     495 BswM_ActionList_CC_AL_CN_CAN00_5e566ad9_Disable_DM..C.3A.5CVector.5CCBD1800257_D01_S32K1xx.5CApplications.5CS32K144_Start_new.5CAppl.5Cobj.5CBswM_Lcfg.:
                     496 BswM_ActionList_CC_AL_CN_CAN00_5e566ad9_Disable_DM:
0000016c b510        497 	push	{r4,lr}
0000016e 4c68*       498 	ldr	r4,.L273
                     499 .LDW82:
00000170 4b78*       500 	ldr	r3,.L645
00000172 1ca0        501 	adds	r0,r4,2
00000174 2200        502 	movs	r2,0
00000176 4611        503 	cpy	r1,r2
00000178 4798        504 	blx	r3
0000017a 7820        505 	ldrb	r0,[r4]
0000017c f0500004    506 	orrs	r0,r0,4
00000180 7020        507 	strb	r0,[r4]
00000182 2000        508 	movs	r0,0
                     509 .LDW92:
00000184 bd10        510 	pop	{r4,pc}
                     511 __ghs_eofn_BswM_ActionList_CC_AL_CN_CAN00_5e566ad9_Disable_DM:
                     512 	.endf	BswM_ActionList_CC_AL_CN_CAN00_5e566ad9_Disable_DM
                     513 	.endf	BswM_ActionList_CC_AL_CN_CAN00_5e566ad9_Disable_DM..C.3A.5CVector.5CCBD1800257_D01_S32K1xx.5CApplications.5CS32K144_Start_new.5CAppl.5Cobj.5CBswM_Lcfg.
                     514 
                     515 	.assert 0x0 + (BswM_ComRxIPduGroupDMState - BswM_PduGroupControlInvocation) +0 == 2
                     516 	.assert 0x0 + (BswM_PduGroupControlInvocation - BswM_PduGroupControlInvocation) +0 == 0
                     517 ..gh.f.a.1.e.10:
                     518 	.endo	..gh.f.a.1.e.10
                     519 	.global	BswM_ActionList_CC_AL_CN_CAN00_5e566ad9_Enable_DM..C.3A.5CVector.5CCBD1800257_D01_S32K1xx.5CApplications.5CS32K144_Start_new.5CAppl.5Cobj.5CBswM_Lcfg.
                     520 BswM_ActionList_CC_AL_CN_CAN00_5e566ad9_Enable_DM..C.3A.5CVector.5CCBD1800257_D01_S32K1xx.5CApplications.5CS32K144_Start_new.5CAppl.5Cobj.5CBswM_Lcfg.:
                     521 BswM_ActionList_CC_AL_CN_CAN00_5e566ad9_Enable_DM:
00000186 b510        522 	push	{r4,lr}
00000188 4c61*       523 	ldr	r4,.L273
                     524 .LDW03:
0000018a 4b72*       525 	ldr	r3,.L645
0000018c 1ca0        526 	adds	r0,r4,2
0000018e 2201        527 	movs	r2,1
00000190 2100        528 	movs	r1,0
00000192 4798        529 	blx	r3
00000194 7820        530 	ldrb	r0,[r4]
00000196 f0500004    531 	orrs	r0,r0,4
0000019a 7020        532 	strb	r0,[r4]
0000019c 2000        533 	movs	r0,0
                     534 .LDW13:
0000019e bd10        535 	pop	{r4,pc}
                     536 __ghs_eofn_BswM_ActionList_CC_AL_CN_CAN00_5e566ad9_Enable_DM:
                     537 	.endf	BswM_ActionList_CC_AL_CN_CAN00_5e566ad9_Enable_DM
                     538 	.endf	BswM_ActionList_CC_AL_CN_CAN00_5e566ad9_Enable_DM..C.3A.5CVector.5CCBD1800257_D01_S32K1xx.5CApplications.5CS32K144_Start_new.5CAppl.5Cobj.5CBswM_Lcfg.

                                                                      Page 10
                                                              C:\Users\Fengyuan\AppData\Local\Temp\gh_0000p9o1.s
                     539 
                     540 ..gh.f.a.1.e.11:
                     541 	.endo	..gh.f.a.1.e.11
                     542 	.global	BswM_ActionList_INIT_AL_Initialize..C.3A.5CVector.5CCBD1800257_D01_S32K1xx.5CApplications.5CS32K144_Start_new.5CAppl.5Cobj.5CBswM_Lcfg.
                     543 BswM_ActionList_INIT_AL_Initialize..C.3A.5CVector.5CCBD1800257_D01_S32K1xx.5CApplications.5CS32K144_Start_new.5CAppl.5Cobj.5CBswM_Lcfg.:
                     544 BswM_ActionList_INIT_AL_Initialize:
000001a0 b500        545 	push	{lr}
                     546 .LDW23:
000001a2 496d*       547 	ldr	r1,.L934
000001a4 2000        548 	movs	r0,0
000001a6 4788        549 	blx	r1
000001a8 496c*       550 	ldr	r1,.L935
000001aa 2000        551 	movs	r0,0
000001ac 4788        552 	blx	r1
000001ae 496c*       553 	ldr	r1,.L936
000001b0 2000        554 	movs	r0,0
000001b2 4788        555 	blx	r1
000001b4 496b*       556 	ldr	r1,.L937
000001b6 2000        557 	movs	r0,0
000001b8 4788        558 	blx	r1
000001ba 496b*       559 	ldr	r1,.L938
000001bc 2000        560 	movs	r0,0
000001be 4788        561 	blx	r1
000001c0 496a*       562 	ldr	r1,.L939
000001c2 2000        563 	movs	r0,0
000001c4 4788        564 	blx	r1
000001c6 486a*       565 	ldr	r0,.L940
000001c8 4780        566 	blx	r0
000001ca 486a*       567 	ldr	r0,.L941
000001cc 4780        568 	blx	r0
000001ce 496a*       569 	ldr	r1,.L942
000001d0 2000        570 	movs	r0,0
000001d2 4788        571 	blx	r1
000001d4 4969*       572 	ldr	r1,.L943
000001d6 2000        573 	movs	r0,0
000001d8 4788        574 	blx	r1
000001da 4869*       575 	ldr	r0,.L944
000001dc 4780        576 	blx	r0
000001de 2000        577 	movs	r0,0
                     578 .LDW33:
000001e0 bd00        579 	pop	{pc}
                     580 __ghs_eofn_BswM_ActionList_INIT_AL_Initialize:
                     581 	.endf	BswM_ActionList_INIT_AL_Initialize
                     582 	.endf	BswM_ActionList_INIT_AL_Initialize..C.3A.5CVector.5CCBD1800257_D01_S32K1xx.5CApplications.5CS32K144_Start_new.5CAppl.5Cobj.5CBswM_Lcfg.
                     583 
                     584 	.section ".bss","awb"
                     585 .L910:
                     586 	.endo	.L910
                     587 	.text
                     588 ..gh.f.a.1.e.12:
                     589 	.endo	..gh.f.a.1.e.12
                     590 	.global	BswM_ActionList_ESH_AL_ExitRun..C.3A.5CVector.5CCBD1800257_D01_S32K1xx.5CApplications.5CS32K144_Start_new.5CAppl.5Cobj.5CBswM_Lcfg.
                     591 BswM_ActionList_ESH_AL_ExitRun..C.3A.5CVector.5CCBD1800257_D01_S32K1xx.5CApplications.5CS32K144_Start_new.5CAppl.5Cobj.5CBswM_Lcfg.:
                     592 BswM_ActionList_ESH_AL_ExitRun:
000001e2 b500        593 	push	{lr}
                     594 .LDW43:
000001e4 484b*       595 	ldr	r0,.L274
000001e6 4780        596 	blx	r0
000001e8 4866*       597 	ldr	r0,.L998
000001ea 4780        598 	blx	r0
000001ec 4966*       599 	ldr	r1,.L999

                                                                      Page 11
                                                              C:\Users\Fengyuan\AppData\Local\Temp\gh_0000p9o1.s
000001ee 2004        600 	movs	r0,4
000001f0 4788        601 	blx	r1
000001f2 4849*       602 	ldr	r0,.L275
000001f4 4780        603 	blx	r0
000001f6 2000        604 	movs	r0,0
                     605 .LDW53:
000001f8 bd00        606 	pop	{pc}
                     607 __ghs_eofn_BswM_ActionList_ESH_AL_ExitRun:
                     608 	.endf	BswM_ActionList_ESH_AL_ExitRun
                     609 	.endf	BswM_ActionList_ESH_AL_ExitRun..C.3A.5CVector.5CCBD1800257_D01_S32K1xx.5CApplications.5CS32K144_Start_new.5CAppl.5Cobj.5CBswM_Lcfg.
                     610 
                     611 	.section ".bss","awb"
                     612 .L974:
                     613 	.endo	.L974
                     614 	.text
                     615 ..gh.f.a.1.e.13:
                     616 	.endo	..gh.f.a.1.e.13
                     617 	.global	BswM_ActionList_ESH_AL_RunToPostRun..C.3A.5CVector.5CCBD1800257_D01_S32K1xx.5CApplications.5CS32K144_Start_new.5CAppl.5Cobj.5CBswM_Lcfg.
                     618 BswM_ActionList_ESH_AL_RunToPostRun..C.3A.5CVector.5CCBD1800257_D01_S32K1xx.5CApplications.5CS32K144_Start_new.5CAppl.5Cobj.5CBswM_Lcfg.:
                     619 BswM_ActionList_ESH_AL_RunToPostRun:
000001fa b500        620 	push	{lr}
                     621 .LDW63:
000001fc 4a63*       622 	ldr	r2,.L1045
000001fe 2100        623 	movs	r1,0
00000200 4608        624 	cpy	r0,r1
00000202 4790        625 	blx	r2
00000204 4962*       626 	ldr	r1,.L1046
00000206 f07f0000    627 	mvns	r0,0
0000020a 4788        628 	blx	r1
0000020c 4861*       629 	ldr	r0,.L1047
0000020e 4780        630 	blx	r0
00000210 4b48*       631 	ldr	r3,.L511
00000212 2000        632 	movs	r0,0
00000214 4a60*       633 	ldr	r2,.L1048
00000216 7018        634 	strb	r0,[r3]
00000218 20e6        635 	movs	r0,230
0000021a 2102        636 	movs	r1,2
0000021c 4790        637 	blx	r2
0000021e 2000        638 	movs	r0,0
                     639 .LDW73:
00000220 bd00        640 	pop	{pc}
                     641 __ghs_eofn_BswM_ActionList_ESH_AL_RunToPostRun:
                     642 	.endf	BswM_ActionList_ESH_AL_RunToPostRun
                     643 	.endf	BswM_ActionList_ESH_AL_RunToPostRun..C.3A.5CVector.5CCBD1800257_D01_S32K1xx.5CApplications.5CS32K144_Start_new.5CAppl.5Cobj.5CBswM_Lcfg.
                     644 
                     645 ..gh.f.a.1.e.14:
                     646 	.endo	..gh.f.a.1.e.14
                     647 	.global	BswM_ActionList_ESH_AL_WaitForNvMToShutdown..C.3A.5CVector.5CCBD1800257_D01_S32K1xx.5CApplications.5CS32K144_Start_new.5CAppl.5Cobj.5CBswM_Lcfg.
                     648 BswM_ActionList_ESH_AL_WaitForNvMToShutdown..C.3A.5CVector.5CCBD1800257_D01_S32K1xx.5CApplications.5CS32K144_Start_new.5CAppl.5Cobj.5CBswM_Lcfg.:
                     649 BswM_ActionList_ESH_AL_WaitForNvMToShutdown:
00000222 b500        650 	push	{lr}
                     651 .LDW83:
00000224 485d*       652 	ldr	r0,.L1094
00000226 4780        653 	blx	r0
00000228 485d*       654 	ldr	r0,.L1095
0000022a 4780        655 	blx	r0
0000022c 2000        656 	movs	r0,0
                     657 .LDW93:
0000022e bd00        658 	pop	{pc}
                     659 __ghs_eofn_BswM_ActionList_ESH_AL_WaitForNvMToShutdown:
                     660 	.endf	BswM_ActionList_ESH_AL_WaitForNvMToShutdown

                                                                      Page 12
                                                              C:\Users\Fengyuan\AppData\Local\Temp\gh_0000p9o1.s
                     661 	.endf	BswM_ActionList_ESH_AL_WaitForNvMToShutdown..C.3A.5CVector.5CCBD1800257_D01_S32K1xx.5CApplications.5CS32K144_Start_new.5CAppl.5Cobj.5CBswM_Lcfg.
                     662 
                     663 	.section ".bss","awb"
                     664 .L1070:
                     665 	.endo	.L1070
                     666 	.text
                     667 ..gh.f.a.1.e.15:
                     668 	.endo	..gh.f.a.1.e.15
                     669 	.global	BswM_ActionList_ESH_AL_WakeupToPrep..C.3A.5CVector.5CCBD1800257_D01_S32K1xx.5CApplications.5CS32K144_Start_new.5CAppl.5Cobj.5CBswM_Lcfg.
                     670 BswM_ActionList_ESH_AL_WakeupToPrep..C.3A.5CVector.5CCBD1800257_D01_S32K1xx.5CApplications.5CS32K144_Start_new.5CAppl.5Cobj.5CBswM_Lcfg.:
                     671 BswM_ActionList_ESH_AL_WakeupToPrep:
00000230 b500        672 	push	{lr}
                     673 .LDW04:
00000232 485c*       674 	ldr	r0,.L1141
00000234 4780        675 	blx	r0
00000236 4b3f*       676 	ldr	r3,.L511
00000238 2002        677 	movs	r0,2
0000023a 4a57*       678 	ldr	r2,.L1048
0000023c 7018        679 	strb	r0,[r3]
0000023e 20e6        680 	movs	r0,230
00000240 2103        681 	movs	r1,3
00000242 4790        682 	blx	r2
00000244 2000        683 	movs	r0,0
                     684 .LDW14:
00000246 bd00        685 	pop	{pc}
                     686 __ghs_eofn_BswM_ActionList_ESH_AL_WakeupToPrep:
                     687 	.endf	BswM_ActionList_ESH_AL_WakeupToPrep
                     688 	.endf	BswM_ActionList_ESH_AL_WakeupToPrep..C.3A.5CVector.5CCBD1800257_D01_S32K1xx.5CApplications.5CS32K144_Start_new.5CAppl.5Cobj.5CBswM_Lcfg.
                     689 
                     690 ..gh.f.a.1.e.16:
                     691 	.endo	..gh.f.a.1.e.16
                     692 	.global	BswM_ActionList_ESH_AL_WaitForNvMWakeup..C.3A.5CVector.5CCBD1800257_D01_S32K1xx.5CApplications.5CS32K144_Start_new.5CAppl.5Cobj.5CBswM_Lcfg.
                     693 BswM_ActionList_ESH_AL_WaitForNvMWakeup..C.3A.5CVector.5CCBD1800257_D01_S32K1xx.5CApplications.5CS32K144_Start_new.5CAppl.5Cobj.5CBswM_Lcfg.:
                     694 BswM_ActionList_ESH_AL_WaitForNvMWakeup:
00000248 b500        695 	push	{lr}
                     696 .LDW24:
0000024a 4857*       697 	ldr	r0,.L1189
0000024c 4780        698 	blx	r0
0000024e 4b39*       699 	ldr	r3,.L511
00000250 2004        700 	movs	r0,4
00000252 4a51*       701 	ldr	r2,.L1048
00000254 7018        702 	strb	r0,[r3]
00000256 20e6        703 	movs	r0,230
00000258 2106        704 	movs	r1,6
0000025a 4790        705 	blx	r2
0000025c 2000        706 	movs	r0,0
                     707 .LDW34:
0000025e bd00        708 	pop	{pc}
                     709 __ghs_eofn_BswM_ActionList_ESH_AL_WaitForNvMWakeup:
                     710 	.endf	BswM_ActionList_ESH_AL_WaitForNvMWakeup
                     711 	.endf	BswM_ActionList_ESH_AL_WaitForNvMWakeup..C.3A.5CVector.5CCBD1800257_D01_S32K1xx.5CApplications.5CS32K144_Start_new.5CAppl.5Cobj.5CBswM_Lcfg.
                     712 
                     713 ..gh.f.a.1.e.17:
                     714 	.endo	..gh.f.a.1.e.17
                     715 	.global	BswM_ActionList_ESH_AL_WakeupToRun..C.3A.5CVector.5CCBD1800257_D01_S32K1xx.5CApplications.5CS32K144_Start_new.5CAppl.5Cobj.5CBswM_Lcfg.
                     716 BswM_ActionList_ESH_AL_WakeupToRun..C.3A.5CVector.5CCBD1800257_D01_S32K1xx.5CApplications.5CS32K144_Start_new.5CAppl.5Cobj.5CBswM_Lcfg.:
                     717 BswM_ActionList_ESH_AL_WakeupToRun:
00000260 b500        718 	push	{lr}
                     719 .LDW44:
00000262 4949*       720 	ldr	r1,.L999
00000264 2009        721 	movs	r0,9

                                                                      Page 13
                                                              C:\Users\Fengyuan\AppData\Local\Temp\gh_0000p9o1.s
00000266 4788        722 	blx	r1
00000268 4a48*       723 	ldr	r2,.L1045
0000026a 2101        724 	movs	r1,1
0000026c 2000        725 	movs	r0,0
0000026e 4790        726 	blx	r2
00000270 4828*       727 	ldr	r0,.L274
00000272 4780        728 	blx	r0
00000274 4b4d*       729 	ldr	r3,.L1257
00000276 200a        730 	movs	r0,10
00000278 6018        731 	str	r0,[r3]
0000027a 4b4d*       732 	ldr	r3,.L1258
0000027c 2001        733 	movs	r0,1
0000027e 7018        734 	strb	r0,[r3]
00000280 4825*       735 	ldr	r0,.L275
00000282 4780        736 	blx	r0
00000284 484b*       737 	ldr	r0,.L1259
00000286 4780        738 	blx	r0
00000288 4b2a*       739 	ldr	r3,.L511
0000028a 2001        740 	movs	r0,1
0000028c 4a42*       741 	ldr	r2,.L1048
0000028e 7018        742 	strb	r0,[r3]
00000290 20e6        743 	movs	r0,230
00000292 2101        744 	movs	r1,1
00000294 4790        745 	blx	r2
00000296 2000        746 	movs	r0,0
                     747 .LDW54:
00000298 bd00        748 	pop	{pc}
                     749 __ghs_eofn_BswM_ActionList_ESH_AL_WakeupToRun:
                     750 	.endf	BswM_ActionList_ESH_AL_WakeupToRun
                     751 	.endf	BswM_ActionList_ESH_AL_WakeupToRun..C.3A.5CVector.5CCBD1800257_D01_S32K1xx.5CApplications.5CS32K144_Start_new.5CAppl.5Cobj.5CBswM_Lcfg.
                     752 
                     753 ..gh.f.a.1.e.18:
                     754 	.endo	..gh.f.a.1.e.18
                     755 	.global	BswM_ActionList_ESH_AL_DemInit..C.3A.5CVector.5CCBD1800257_D01_S32K1xx.5CApplications.5CS32K144_Start_new.5CAppl.5Cobj.5CBswM_Lcfg.
                     756 BswM_ActionList_ESH_AL_DemInit..C.3A.5CVector.5CCBD1800257_D01_S32K1xx.5CApplications.5CS32K144_Start_new.5CAppl.5Cobj.5CBswM_Lcfg.:
                     757 BswM_ActionList_ESH_AL_DemInit:
0000029a b500        758 	push	{lr}
                     759 .LDW64:
0000029c 4937*       760 	ldr	r1,.L943
0000029e 2000        761 	movs	r0,0
000002a0 4788        762 	blx	r1
000002a2 4a3d*       763 	ldr	r2,.L1048
000002a4 20e7        764 	movs	r0,231
000002a6 2100        765 	movs	r1,0
000002a8 4790        766 	blx	r2
000002aa 2000        767 	movs	r0,0
                     768 .LDW74:
000002ac bd00        769 	pop	{pc}
                     770 __ghs_eofn_BswM_ActionList_ESH_AL_DemInit:
                     771 	.endf	BswM_ActionList_ESH_AL_DemInit
                     772 	.endf	BswM_ActionList_ESH_AL_DemInit..C.3A.5CVector.5CCBD1800257_D01_S32K1xx.5CApplications.5CS32K144_Start_new.5CAppl.5Cobj.5CBswM_Lcfg.
                     773 
                     774 	.section ".bss","awb"
                     775 .L1278:
                     776 	.endo	.L1278
                     777 	.text
                     778 ..gh.f.a.1.e.19:
                     779 	.endo	..gh.f.a.1.e.19
                     780 	.global	BswM_ActionList_ESH_AL_PostRunToPrepShutdown..C.3A.5CVector.5CCBD1800257_D01_S32K1xx.5CApplications.5CS32K144_Start_new.5CAppl.5Cobj.5CBswM_Lcfg.
                     781 BswM_ActionList_ESH_AL_PostRunToPrepShutdown..C.3A.5CVector.5CCBD1800257_D01_S32K1xx.5CApplications.5CS32K144_Start_new.5CAppl.5Cobj.5CBswM_Lcfg.:
                     782 BswM_ActionList_ESH_AL_PostRunToPrepShutdown:

                                                                      Page 14
                                                              C:\Users\Fengyuan\AppData\Local\Temp\gh_0000p9o1.s
000002ae b510        783 	push	{r4,lr}
                     784 .LDW84:
000002b0 4841*       785 	ldr	r0,.L1349
000002b2 4780        786 	blx	r0
000002b4 4c38*       787 	ldr	r4,.L1048
000002b6 20e7        788 	movs	r0,231
000002b8 2101        789 	movs	r1,1
000002ba 47a0        790 	blx	r4
000002bc 4839*       791 	ldr	r0,.L1141
000002be 4780        792 	blx	r0
000002c0 4a1c*       793 	ldr	r2,.L511
000002c2 2002        794 	movs	r0,2
000002c4 7010        795 	strb	r0,[r2]
000002c6 20e6        796 	movs	r0,230
000002c8 2103        797 	movs	r1,3
000002ca 47a0        798 	blx	r4
000002cc 2000        799 	movs	r0,0
                     800 .LDW94:
000002ce bd10        801 	pop	{r4,pc}
                     802 __ghs_eofn_BswM_ActionList_ESH_AL_PostRunToPrepShutdown:
                     803 	.endf	BswM_ActionList_ESH_AL_PostRunToPrepShutdown
                     804 	.endf	BswM_ActionList_ESH_AL_PostRunToPrepShutdown..C.3A.5CVector.5CCBD1800257_D01_S32K1xx.5CApplications.5CS32K144_Start_new.5CAppl.5Cobj.5CBswM_Lcfg.
                     805 
                     806 ..gh.f.a.1.e.20:
                     807 	.endo	..gh.f.a.1.e.20
                     808 	.global	BswM_ActionList_ESH_AL_ESH_PostRunToPrepCheck..C.3A.5CVector.5CCBD1800257_D01_S32K1xx.5CApplications.5CS32K144_Start_new.5CAppl.5Cobj.5CBswM_Lcfg.
                     809 BswM_ActionList_ESH_AL_ESH_PostRunToPrepCheck..C.3A.5CVector.5CCBD1800257_D01_S32K1xx.5CApplications.5CS32K144_Start_new.5CAppl.5Cobj.5CBswM_Lcfg.:
                     810 BswM_ActionList_ESH_AL_ESH_PostRunToPrepCheck:
000002d0 b500        811 	push	{lr}
                     812 .LDW05:
000002d2 492d*       813 	ldr	r1,.L999
000002d4 200b        814 	movs	r0,11
000002d6 4788        815 	blx	r1
000002d8 2000        816 	movs	r0,0
                     817 .LDW15:
000002da bd00        818 	pop	{pc}
                     819 __ghs_eofn_BswM_ActionList_ESH_AL_ESH_PostRunToPrepCheck:
                     820 	.endf	BswM_ActionList_ESH_AL_ESH_PostRunToPrepCheck
                     821 	.endf	BswM_ActionList_ESH_AL_ESH_PostRunToPrepCheck..C.3A.5CVector.5CCBD1800257_D01_S32K1xx.5CApplications.5CS32K144_Start_new.5CAppl.5Cobj.5CBswM_Lcfg.
                     822 
                     823 	.section ".bss","awb"
                     824 .L1374:
                     825 	.endo	.L1374
                     826 	.text
                     827 ..gh.f.a.1.e.21:
                     828 	.endo	..gh.f.a.1.e.21
                     829 	.global	BswM_ActionList_ESH_AL_PostRunToRun..C.3A.5CVector.5CCBD1800257_D01_S32K1xx.5CApplications.5CS32K144_Start_new.5CAppl.5Cobj.5CBswM_Lcfg.
                     830 BswM_ActionList_ESH_AL_PostRunToRun..C.3A.5CVector.5CCBD1800257_D01_S32K1xx.5CApplications.5CS32K144_Start_new.5CAppl.5Cobj.5CBswM_Lcfg.:
                     831 BswM_ActionList_ESH_AL_PostRunToRun:
000002dc b500        832 	push	{lr}
                     833 .LDW25:
000002de 4a2b*       834 	ldr	r2,.L1045
000002e0 2101        835 	movs	r1,1
000002e2 2000        836 	movs	r0,0
000002e4 4790        837 	blx	r2
000002e6 480b*       838 	ldr	r0,.L274
000002e8 4780        839 	blx	r0
000002ea 4b30*       840 	ldr	r3,.L1257
000002ec 200a        841 	movs	r0,10
000002ee 6018        842 	str	r0,[r3]
000002f0 4b2f*       843 	ldr	r3,.L1258

                                                                      Page 15
                                                              C:\Users\Fengyuan\AppData\Local\Temp\gh_0000p9o1.s
000002f2 2001        844 	movs	r0,1
000002f4 7018        845 	strb	r0,[r3]
000002f6 4808*       846 	ldr	r0,.L275
000002f8 4780        847 	blx	r0
000002fa 482e*       848 	ldr	r0,.L1259
000002fc 4780        849 	blx	r0
000002fe 4b0d*       850 	ldr	r3,.L511
00000300 2001        851 	movs	r0,1
00000302 4a25*       852 	ldr	r2,.L1048
00000304 7018        853 	strb	r0,[r3]
00000306 20e6        854 	movs	r0,230
00000308 2101        855 	movs	r1,1
0000030a 4790        856 	blx	r2
0000030c 2000        857 	movs	r0,0
                     858 .LDW35:
0000030e bd00        859 	pop	{pc}
                     860 __ghs_eofn_BswM_ActionList_ESH_AL_PostRunToRun:
                     861 	.endf	BswM_ActionList_ESH_AL_PostRunToRun
                     862 	.endf	BswM_ActionList_ESH_AL_PostRunToRun..C.3A.5CVector.5CCBD1800257_D01_S32K1xx.5CApplications.5CS32K144_Start_new.5CAppl.5Cobj.5CBswM_Lcfg.
                     863 	.align	4
00000310 00000000*   864 .L273:	.data.w	BswM_PduGroupControlInvocation
                     865 	.endo	.L273
                     866 
00000314 00000000*   867 .L274:	.data.w	SuspendAllInterrupts
                     868 	.endo	.L274
                     869 
00000318 00000000*   870 .L275:	.data.w	ResumeAllInterrupts
                     871 	.endo	.L275
                     872 
0000031c 00000000*   873 .L276:	.data.w	Com_IpduGroupControl
                     874 	.endo	.L276
                     875 
00000320 00000000*   876 .L277:	.data.w	Com_ReceptionDMControl
                     877 	.endo	.L277
                     878 
00000324 00000000*   879 .L383:	.data.w	BswM_Rules
                     880 	.endo	.L383
                     881 
00000328 00000000*   882 .L384:	.data.w	BswM_ActionLists
                     883 	.endo	.L384
                     884 
0000032c 00000000*   885 .L437:	.data.w	Com_ClearIpduGroupVector
                     886 	.endo	.L437
                     887 
00000330 00000000*   888 .L438:	.data.w	BswM_ActionList_INIT_AL_Initialize
                     889 	.endo	.L438
                     890 
00000334 00000000*   891 .L511:	.data.w	BswM_Switch_ESH_ModeSwitch_BswM_MDGP_ESH_Mode
                     892 	.endo	.L511
                     893 
00000338 00000000*   894 .L512:	.data.w	Rte_Switch_BswM_Switch_ESH_ModeSwitch_BswM_MDGP_ESH_Mode
                     895 	.endo	.L512
                     896 
0000033c 00000000*   897 .L591:	.data.w	BswM_Mode_Notification_ESH_ModeNotification_BswM_MDGP_ESH_Mode-3
                     898 	.endo	.L591
                     899 
00000340 00000000*   900 .L592:	.data.w	Rte_Mode_BswM_Notification_ESH_ModeNotification_BswM_MDGP_ESH_Mode
                     901 	.endo	.L592
                     902 
00000344 00000000*   903 .L593:	.data.w	Rte_Read_BswM_Request_ESH_RunRequest_0_requestedMode
                     904 	.endo	.L593

                                                                      Page 16
                                                              C:\Users\Fengyuan\AppData\Local\Temp\gh_0000p9o1.s
                     905 
00000348 00000000*   906 .L594:	.data.w	Rte_Read_BswM_Request_ESH_RunRequest_1_requestedMode
                     907 	.endo	.L594
                     908 
0000034c 00000000*   909 .L595:	.data.w	Rte_Read_BswM_Request_ESH_PostRunRequest_0_requestedMode
                     910 	.endo	.L595
                     911 
00000350 00000000*   912 .L596:	.data.w	Rte_Read_BswM_Request_ESH_PostRunRequest_1_requestedMode
                     913 	.endo	.L596
                     914 
00000354 00000000*   915 .L645:	.data.w	Com_SetIpduGroup
                     916 	.endo	.L645
                     917 
00000358 00000000*   918 .L934:	.data.w	Can_Init
                     919 	.endo	.L934
                     920 
0000035c 00000000*   921 .L935:	.data.w	CanIf_Init
                     922 	.endo	.L935
                     923 
00000360 00000000*   924 .L936:	.data.w	Com_Init
                     925 	.endo	.L936
                     926 
00000364 00000000*   927 .L937:	.data.w	PduR_Init
                     928 	.endo	.L937
                     929 
00000368 00000000*   930 .L938:	.data.w	CanSM_Init
                     931 	.endo	.L938
                     932 
0000036c 00000000*   933 .L939:	.data.w	CanTp_Init
                     934 	.endo	.L939
                     935 
00000370 00000000*   936 .L940:	.data.w	BswM_AL_SetProgrammableInterrupts
                     937 	.endo	.L940
                     938 
00000374 00000000*   939 .L941:	.data.w	ComM_Init
                     940 	.endo	.L941
                     941 
00000378 00000000*   942 .L942:	.data.w	Dcm_Init
                     943 	.endo	.L942
                     944 
0000037c 00000000*   945 .L943:	.data.w	Dem_Init
                     946 	.endo	.L943
                     947 
00000380 00000000*   948 .L944:	.data.w	Rte_Start
                     949 	.endo	.L944
                     950 
00000384 00000000*   951 .L998:	.data.w	ESH_ComM_CheckPendingRequests
                     952 	.endo	.L998
                     953 
00000388 00000000*   954 .L999:	.data.w	BswM_Action_RuleHandler
                     955 	.endo	.L999
                     956 
0000038c 00000000*   957 .L1045:	.data.w	ComM_CommunicationAllowed
                     958 	.endo	.L1045
                     959 
00000390 00000000*   960 .L1046:	.data.w	EcuM_ClearValidatedWakeupEvent
                     961 	.endo	.L1046
                     962 
00000394 00000000*   963 .L1047:	.data.w	BswM_ESH_OnEnterPostRun
                     964 	.endo	.L1047
                     965 

                                                                      Page 17
                                                              C:\Users\Fengyuan\AppData\Local\Temp\gh_0000p9o1.s
00000398 00000000*   966 .L1048:	.data.w	BswM_RequestMode
                     967 	.endo	.L1048
                     968 
0000039c 00000000*   969 .L1094:	.data.w	BswM_ESH_OnEnterShutdown
                     970 	.endo	.L1094
                     971 
000003a0 00000000*   972 .L1095:	.data.w	EcuM_GoToSelectedShutdownTarget
                     973 	.endo	.L1095
                     974 
000003a4 00000000*   975 .L1141:	.data.w	BswM_ESH_OnEnterPrepShutdown
                     976 	.endo	.L1141
                     977 
000003a8 00000000*   978 .L1189:	.data.w	BswM_ESH_OnEnterWakeup
                     979 	.endo	.L1189
                     980 
000003ac 00000000*   981 .L1257:	.data.w	BswM_TimerValue
                     982 	.endo	.L1257
                     983 
000003b0 00000000*   984 .L1258:	.data.w	BswM_TimerState
                     985 	.endo	.L1258
                     986 
000003b4 00000000*   987 .L1259:	.data.w	BswM_ESH_OnEnterRun
                     988 	.endo	.L1259
                     989 
000003b8 00000000*   990 .L1349:	.data.w	Dem_Shutdown
                     991 	.endo	.L1349
                     992 
                     993 
                     994 ..gh.f.a.1.e.22:
                     995 	.endo	..gh.f.a.1.e.22
                     996 	.global	BswM_ActionList_ESH_AL_ExitPostRun..C.3A.5CVector.5CCBD1800257_D01_S32K1xx.5CApplications.5CS32K144_Start_new.5CAppl.5Cobj.5CBswM_Lcfg.
                     997 BswM_ActionList_ESH_AL_ExitPostRun..C.3A.5CVector.5CCBD1800257_D01_S32K1xx.5CApplications.5CS32K144_Start_new.5CAppl.5Cobj.5CBswM_Lcfg.:
                     998 BswM_ActionList_ESH_AL_ExitPostRun:
000003bc b500        999 	push	{lr}
                    1000 .LDW45:
000003be 4874*      1001 	ldr	r0,.L1510
000003c0 4780       1002 	blx	r0
000003c2 4874*      1003 	ldr	r0,.L1511
000003c4 4780       1004 	blx	r0
000003c6 4974*      1005 	ldr	r1,.L1512
000003c8 200c       1006 	movs	r0,12
000003ca 4788       1007 	blx	r1
000003cc 4873*      1008 	ldr	r0,.L1513
000003ce 4780       1009 	blx	r0
000003d0 2000       1010 	movs	r0,0
                    1011 .LDW55:
000003d2 bd00       1012 	pop	{pc}
                    1013 __ghs_eofn_BswM_ActionList_ESH_AL_ExitPostRun:
                    1014 	.endf	BswM_ActionList_ESH_AL_ExitPostRun
                    1015 	.endf	BswM_ActionList_ESH_AL_ExitPostRun..C.3A.5CVector.5CCBD1800257_D01_S32K1xx.5CApplications.5CS32K144_Start_new.5CAppl.5Cobj.5CBswM_Lcfg.
                    1016 
                    1017 	.section ".bss","awb"
                    1018 .L1486:
                    1019 	.endo	.L1486
                    1020 	.text
                    1021 ..gh.f.a.1.e.23:
                    1022 	.endo	..gh.f.a.1.e.23
                    1023 	.global	BswM_ActionList_ESH_AL_PrepShutdownToWaitForNvM..C.3A.5CVector.5CCBD1800257_D01_S32K1xx.5CApplications.5CS32K144_Start_new.5CAppl.5Cobj.5CBswM_Lcfg.
                    1024 BswM_ActionList_ESH_AL_PrepShutdownToWaitForNvM..C.3A.5CVector.5CCBD1800257_D01_S32K1xx.5CApplications.5CS32K144_Start_new.5CAppl.5Cobj.5CBswM_Lcfg.:
                    1025 BswM_ActionList_ESH_AL_PrepShutdownToWaitForNvM:
000003d4 b500       1026 	push	{lr}

                                                                      Page 18
                                                              C:\Users\Fengyuan\AppData\Local\Temp\gh_0000p9o1.s
                    1027 .LDW65:
000003d6 486f*      1028 	ldr	r0,.L1511
000003d8 4780       1029 	blx	r0
000003da 4871*      1030 	ldr	r0,.L1558
000003dc 4780       1031 	blx	r0
000003de 4a71*      1032 	ldr	r2,.L1559
000003e0 20e6       1033 	movs	r0,230
000003e2 2104       1034 	movs	r1,4
000003e4 4790       1035 	blx	r2
000003e6 2000       1036 	movs	r0,0
                    1037 .LDW75:
000003e8 bd00       1038 	pop	{pc}
                    1039 __ghs_eofn_BswM_ActionList_ESH_AL_PrepShutdownToWaitForNvM:
                    1040 	.endf	BswM_ActionList_ESH_AL_PrepShutdownToWaitForNvM
                    1041 	.endf	BswM_ActionList_ESH_AL_PrepShutdownToWaitForNvM..C.3A.5CVector.5CCBD1800257_D01_S32K1xx.5CApplications.5CS32K144_Start_new.5CAppl.5Cobj.5CBswM_Lcfg.
                    1042 
                    1043 	.section ".bss","awb"
                    1044 .L1534:
                    1045 	.endo	.L1534
                    1046 	.text
                    1047 ..gh.f.a.1.e.24:
                    1048 	.endo	..gh.f.a.1.e.24
                    1049 	.global	BswM_Rule_CC_CN_CAN00_5e566ad9_RX..C.3A.5CVector.5CCBD1800257_D01_S32K1xx.5CApplications.5CS32K144_Start_new.5CAppl.5Cobj.5CBswM_Lcfg.
                    1050 BswM_Rule_CC_CN_CAN00_5e566ad9_RX..C.3A.5CVector.5CCBD1800257_D01_S32K1xx.5CApplications.5CS32K144_Start_new.5CAppl.5Cobj.5CBswM_Lcfg.:
                    1051 BswM_Rule_CC_CN_CAN00_5e566ad9_RX:
                    1052 .LDW85:
000003ea 4a6f*      1053 	ldr	r2,.L1755
000003ec 496f*      1054 	ldr	r1,.L1756
000003ee 2014       1055 	movs	r0,20
000003f0 7813       1056 	ldrb	r3,[r2]
000003f2 780a       1057 	ldrb	r2,[r1]
000003f4 b123*      1058 	cbz	r3,.L1562
000003f6 2a01       1059 	cmp	r2,1
000003f8 d005*      1060 	beq	.L1560
                    1061 ;line1196
                    1062 ..lin.b01278b3..134feffc.0_9::
                    1063 .LDWlin9:
000003fa 2001       1064 	movs	r0,1
000003fc 7008       1065 	strb	r0,[r1]
000003fe e002*      1066 	b	.L1560
                    1067 .L1562:
00000400 b10a*      1068 	cbz	r2,.L1560
                    1069 ;line1205
                    1070 ..lin.b01278b3..134feffc.0_10::
                    1071 .LDWlin10:
00000402 4618       1072 	cpy	r0,r3
00000404 700b       1073 	strb	r3,[r1]
                    1074 .L1560:
                    1075 .LDW95:
00000406 4770       1076 	ret
                    1077 __ghs_eofn_BswM_Rule_CC_CN_CAN00_5e566ad9_RX:
                    1078 	.endf	BswM_Rule_CC_CN_CAN00_5e566ad9_RX
                    1079 	.endf	BswM_Rule_CC_CN_CAN00_5e566ad9_RX..C.3A.5CVector.5CCBD1800257_D01_S32K1xx.5CApplications.5CS32K144_Start_new.5CAppl.5Cobj.5CBswM_Lcfg.
                    1080 ;retVal	r0	local
                    1081 
                    1082 	.section ".bss","awb"
                    1083 .L1682:
                    1084 	.endo	.L1682
                    1085 	.text
                    1086 ..gh.f.a.1.e.25:
                    1087 	.endo	..gh.f.a.1.e.25

                                                                      Page 19
                                                              C:\Users\Fengyuan\AppData\Local\Temp\gh_0000p9o1.s
                    1088 	.global	BswM_Rule_CC_CN_CAN00_5e566ad9_TX..C.3A.5CVector.5CCBD1800257_D01_S32K1xx.5CApplications.5CS32K144_Start_new.5CAppl.5Cobj.5CBswM_Lcfg.
                    1089 BswM_Rule_CC_CN_CAN00_5e566ad9_TX..C.3A.5CVector.5CCBD1800257_D01_S32K1xx.5CApplications.5CS32K144_Start_new.5CAppl.5Cobj.5CBswM_Lcfg.:
                    1090 BswM_Rule_CC_CN_CAN00_5e566ad9_TX:
                    1091 .LDW06:
00000408 4a67*      1092 	ldr	r2,.L1755
0000040a 4968*      1093 	ldr	r1,.L1756
0000040c 2014       1094 	movs	r0,20
0000040e 7813       1095 	ldrb	r3,[r2]
00000410 784a       1096 	ldrb	r2,[r1,1]
00000412 2b02       1097 	cmp	r3,2
00000414 d105*      1098 	bne	.L1759
00000416 2a01       1099 	cmp	r2,1
00000418 d007*      1100 	beq	.L1757
                    1101 ;line1224
                    1102 ..lin.b01278b3..134ff03e.0_11::
                    1103 .LDWlin11:
0000041a 2001       1104 	movs	r0,1
0000041c 7048       1105 	strb	r0,[r1,1]
0000041e 2003       1106 	movs	r0,3
00000420 e003*      1107 	b	.L1757
                    1108 .L1759:
00000422 b112*      1109 	cbz	r2,.L1757
                    1110 ;line1233
                    1111 ..lin.b01278b3..134ff03e.0_12::
                    1112 .LDWlin12:
00000424 2000       1113 	movs	r0,0
00000426 7048       1114 	strb	r0,[r1,1]
00000428 2002       1115 	movs	r0,2
                    1116 .L1757:
                    1117 .LDW16:
0000042a 4770       1118 	ret
                    1119 __ghs_eofn_BswM_Rule_CC_CN_CAN00_5e566ad9_TX:
                    1120 	.endf	BswM_Rule_CC_CN_CAN00_5e566ad9_TX
                    1121 	.endf	BswM_Rule_CC_CN_CAN00_5e566ad9_TX..C.3A.5CVector.5CCBD1800257_D01_S32K1xx.5CApplications.5CS32K144_Start_new.5CAppl.5Cobj.5CBswM_Lcfg.
                    1122 ;retVal	r0	local
                    1123 
                    1124 	.section ".bss","awb"
                    1125 .L1874:
                    1126 	.endo	.L1874
                    1127 	.text
                    1128 ..gh.f.a.1.e.26:
                    1129 	.endo	..gh.f.a.1.e.26
                    1130 	.global	BswM_Rule_CC_CN_CAN00_5e566ad9_RX_DM..C.3A.5CVector.5CCBD1800257_D01_S32K1xx.5CApplications.5CS32K144_Start_new.5CAppl.5Cobj.5CBswM_Lcfg.
                    1131 BswM_Rule_CC_CN_CAN00_5e566ad9_RX_DM..C.3A.5CVector.5CCBD1800257_D01_S32K1xx.5CApplications.5CS32K144_Start_new.5CAppl.5Cobj.5CBswM_Lcfg.:
                    1132 BswM_Rule_CC_CN_CAN00_5e566ad9_RX_DM:
                    1133 .LDW26:
0000042c 4a5e*      1134 	ldr	r2,.L1755
0000042e 495f*      1135 	ldr	r1,.L1756
00000430 2014       1136 	movs	r0,20
00000432 7813       1137 	ldrb	r3,[r2]
00000434 788a       1138 	ldrb	r2,[r1,2]
00000436 2b02       1139 	cmp	r3,2
00000438 d105*      1140 	bne	.L1949
0000043a 2a01       1141 	cmp	r2,1
0000043c d007*      1142 	beq	.L1947
                    1143 ;line1252
                    1144 ..lin.b01278b3..8895bac.0_13::
                    1145 .LDWlin13:
0000043e 2001       1146 	movs	r0,1
00000440 7088       1147 	strb	r0,[r1,2]
00000442 2005       1148 	movs	r0,5

                                                                      Page 20
                                                              C:\Users\Fengyuan\AppData\Local\Temp\gh_0000p9o1.s
00000444 e003*      1149 	b	.L1947
                    1150 .L1949:
00000446 b112*      1151 	cbz	r2,.L1947
                    1152 ;line1261
                    1153 ..lin.b01278b3..8895bac.0_14::
                    1154 .LDWlin14:
00000448 2000       1155 	movs	r0,0
0000044a 7088       1156 	strb	r0,[r1,2]
0000044c 2004       1157 	movs	r0,4
                    1158 .L1947:
                    1159 .LDW36:
0000044e 4770       1160 	ret
                    1161 __ghs_eofn_BswM_Rule_CC_CN_CAN00_5e566ad9_RX_DM:
                    1162 	.endf	BswM_Rule_CC_CN_CAN00_5e566ad9_RX_DM
                    1163 	.endf	BswM_Rule_CC_CN_CAN00_5e566ad9_RX_DM..C.3A.5CVector.5CCBD1800257_D01_S32K1xx.5CApplications.5CS32K144_Start_new.5CAppl.5Cobj.5CBswM_Lcfg.
                    1164 ;retVal	r0	local
                    1165 
                    1166 	.section ".bss","awb"
                    1167 .L2066:
                    1168 	.endo	.L2066
                    1169 	.text
                    1170 	.assert 0x0 + (Request_ESH_RunRequest_1_requestedMode - BswM_Mode_Notification_ESH_ModeNotification_BswM_MDGP_ESH_Mode) +3 == 6
                    1171 	.assert 0x0 + (Request_ESH_RunRequest_0_requestedMode - BswM_Mode_Notification_ESH_ModeNotification_BswM_MDGP_ESH_Mode) +3 == 7
                    1172 	.assert 0x0 + (BswM_Mode_Notification_ESH_ModeNotification_BswM_MDGP_ESH_Mode - BswM_Mode_Notification_ESH_ModeNotification_BswM_MDGP_ESH_Mode) +3 == 3
                    1173 ..gh.f.a.1.e.27:
                    1174 	.endo	..gh.f.a.1.e.27
                    1175 	.global	BswM_Rule_ESH_RunToPostRun..C.3A.5CVector.5CCBD1800257_D01_S32K1xx.5CApplications.5CS32K144_Start_new.5CAppl.5Cobj.5CBswM_Lcfg.
                    1176 BswM_Rule_ESH_RunToPostRun..C.3A.5CVector.5CCBD1800257_D01_S32K1xx.5CApplications.5CS32K144_Start_new.5CAppl.5Cobj.5CBswM_Lcfg.:
                    1177 BswM_Rule_ESH_RunToPostRun:
                    1178 .LDW46:
00000450 4a57*      1179 	ldr	r2,.L2297
00000452 2014       1180 	movs	r0,20
00000454 8811       1181 	ldrh	r1,[r2]
00000456 2901       1182 	cmp	r1,1
00000458 d10f*      1183 	bne	.L2139
0000045a 4956*      1184 	ldr	r1,.L2298
0000045c 78ca       1185 	ldrb	r2,[r1,3]
0000045e 2a01       1186 	cmp	r2,1
00000460 d10b*      1187 	bne	.L2139
00000462 4b55*      1188 	ldr	r3,.L2299
00000464 781a       1189 	ldrb	r2,[r3]
00000466 b942*      1190 	cbnz	r2,.L2139
00000468 79ca       1191 	ldrb	r2,[r1,7]
0000046a b932*      1192 	cbnz	r2,.L2139
0000046c 7989       1193 	ldrb	r1,[r1,6]
0000046e b921*      1194 	cbnz	r1,.L2139
00000470 4a52*      1195 	ldr	r2,.L2300
00000472 7811       1196 	ldrb	r1,[r2]
00000474 2902       1197 	cmp	r1,2
00000476 d100*      1198 	bne	.L2139
                    1199 ;line1279
                    1200 ..lin.b01278b3..821587a6.0_15::
                    1201 .LDWlin15:
00000478 2007       1202 	movs	r0,7
                    1203 .L2139:
                    1204 .LDW56:
0000047a 4770       1205 	ret
                    1206 __ghs_eofn_BswM_Rule_ESH_RunToPostRun:
                    1207 	.endf	BswM_Rule_ESH_RunToPostRun
                    1208 	.endf	BswM_Rule_ESH_RunToPostRun..C.3A.5CVector.5CCBD1800257_D01_S32K1xx.5CApplications.5CS32K144_Start_new.5CAppl.5Cobj.5CBswM_Lcfg.
                    1209 ;retVal	r0	local

                                                                      Page 21
                                                              C:\Users\Fengyuan\AppData\Local\Temp\gh_0000p9o1.s
                    1210 
                    1211 ..gh.f.a.1.e.28:
                    1212 	.endo	..gh.f.a.1.e.28
                    1213 	.global	BswM_Rule_ESH_RunToPostRunNested..C.3A.5CVector.5CCBD1800257_D01_S32K1xx.5CApplications.5CS32K144_Start_new.5CAppl.5Cobj.5CBswM_Lcfg.
                    1214 BswM_Rule_ESH_RunToPostRunNested..C.3A.5CVector.5CCBD1800257_D01_S32K1xx.5CApplications.5CS32K144_Start_new.5CAppl.5Cobj.5CBswM_Lcfg.:
                    1215 BswM_Rule_ESH_RunToPostRunNested:
                    1216 .LDW66:
0000047c 4a4c*      1217 	ldr	r2,.L2297
0000047e 8891       1218 	ldrh	r1,[r2,4]
00000480 2900       1219 	cmp	r1,0
00000482 bf0c       1220 	ite	eq
00000484 2008       1221 	mov	r0,8
00000486 2014       1222 	mov	r0,20
                    1223 .LDW76:
00000488 4770       1224 	ret
                    1225 __ghs_eofn_BswM_Rule_ESH_RunToPostRunNested:
                    1226 	.endf	BswM_Rule_ESH_RunToPostRunNested
                    1227 	.endf	BswM_Rule_ESH_RunToPostRunNested..C.3A.5CVector.5CCBD1800257_D01_S32K1xx.5CApplications.5CS32K144_Start_new.5CAppl.5Cobj.5CBswM_Lcfg.
                    1228 ;retVal	r0	local
                    1229 
                    1230 	.section ".bss","awb"
                    1231 .L2331:
                    1232 	.endo	.L2331
                    1233 	.text
                    1234 ..gh.f.a.1.e.29:
                    1235 	.endo	..gh.f.a.1.e.29
                    1236 	.global	BswM_Rule_ESH_WaitToShutdown..C.3A.5CVector.5CCBD1800257_D01_S32K1xx.5CApplications.5CS32K144_Start_new.5CAppl.5Cobj.5CBswM_Lcfg.
                    1237 BswM_Rule_ESH_WaitToShutdown..C.3A.5CVector.5CCBD1800257_D01_S32K1xx.5CApplications.5CS32K144_Start_new.5CAppl.5Cobj.5CBswM_Lcfg.:
                    1238 BswM_Rule_ESH_WaitToShutdown:
0000048a b530       1239 	push	{r4-r5,lr}
                    1240 .LDW86:
0000048c 4d48*      1241 	ldr	r5,.L2297
0000048e 2414       1242 	movs	r4,20
00000490 8828       1243 	ldrh	r0,[r5]
00000492 2804       1244 	cmp	r0,4
00000494 d105*      1245 	bne	.L2369
00000496 484a*      1246 	ldr	r0,.L2481
00000498 4780       1247 	blx	r0
0000049a b910*      1248 	cbnz	r0,.L2369
0000049c 88a8       1249 	ldrh	r0,[r5,4]
0000049e b900*      1250 	cbnz	r0,.L2369
                    1251 ;line1311
                    1252 ..lin.b01278b3..95f3e787.0_16::
                    1253 .LDWlin16:
000004a0 2409       1254 	movs	r4,9
                    1255 .L2369:
000004a2 4620       1256 	cpy	r0,r4
                    1257 .LDW96:
000004a4 bd30       1258 	pop	{r4-r5,pc}
                    1259 __ghs_eofn_BswM_Rule_ESH_WaitToShutdown:
                    1260 	.endf	BswM_Rule_ESH_WaitToShutdown
                    1261 	.endf	BswM_Rule_ESH_WaitToShutdown..C.3A.5CVector.5CCBD1800257_D01_S32K1xx.5CApplications.5CS32K144_Start_new.5CAppl.5Cobj.5CBswM_Lcfg.
                    1262 ;retVal	r4	local
                    1263 
                    1264 	.section ".bss","awb"
                    1265 .L2421:
                    1266 	.endo	.L2421
                    1267 	.text
                    1268 ..gh.f.a.1.e.30:
                    1269 	.endo	..gh.f.a.1.e.30
                    1270 	.global	BswM_Rule_ESH_WakeupToPrep..C.3A.5CVector.5CCBD1800257_D01_S32K1xx.5CApplications.5CS32K144_Start_new.5CAppl.5Cobj.5CBswM_Lcfg.

                                                                      Page 22
                                                              C:\Users\Fengyuan\AppData\Local\Temp\gh_0000p9o1.s
                    1271 BswM_Rule_ESH_WakeupToPrep..C.3A.5CVector.5CCBD1800257_D01_S32K1xx.5CApplications.5CS32K144_Start_new.5CAppl.5Cobj.5CBswM_Lcfg.:
                    1272 BswM_Rule_ESH_WakeupToPrep:
000004a6 b530       1273 	push	{r4-r5,lr}
                    1274 .LDW07:
000004a8 4d41*      1275 	ldr	r5,.L2297
000004aa 2414       1276 	movs	r4,20
000004ac 8828       1277 	ldrh	r0,[r5]
000004ae 2806       1278 	cmp	r0,6
000004b0 d10c*      1279 	bne	.L2484
000004b2 4844*      1280 	ldr	r0,.L2621
000004b4 4780       1281 	blx	r0
000004b6 b948*      1282 	cbnz	r0,.L2484
000004b8 4841*      1283 	ldr	r0,.L2481
000004ba 4780       1284 	blx	r0
000004bc b930*      1285 	cbnz	r0,.L2484
000004be 88a8       1286 	ldrh	r0,[r5,4]
000004c0 b920*      1287 	cbnz	r0,.L2484
000004c2 4941*      1288 	ldr	r1,.L2622
000004c4 7808       1289 	ldrb	r0,[r1]
000004c6 2804       1290 	cmp	r0,4
000004c8 d100*      1291 	bne	.L2484
                    1292 ;line1327
                    1293 ..lin.b01278b3..a537b1fa.0_17::
                    1294 .LDWlin17:
000004ca 240a       1295 	movs	r4,10
                    1296 .L2484:
000004cc 4620       1297 	cpy	r0,r4
                    1298 .LDW17:
000004ce bd30       1299 	pop	{r4-r5,pc}
                    1300 __ghs_eofn_BswM_Rule_ESH_WakeupToPrep:
                    1301 	.endf	BswM_Rule_ESH_WakeupToPrep
                    1302 	.endf	BswM_Rule_ESH_WakeupToPrep..C.3A.5CVector.5CCBD1800257_D01_S32K1xx.5CApplications.5CS32K144_Start_new.5CAppl.5Cobj.5CBswM_Lcfg.
                    1303 ;retVal	r4	local
                    1304 
                    1305 ..gh.f.a.1.e.31:
                    1306 	.endo	..gh.f.a.1.e.31
                    1307 	.global	BswM_Rule_ESH_WaitToWakeup..C.3A.5CVector.5CCBD1800257_D01_S32K1xx.5CApplications.5CS32K144_Start_new.5CAppl.5Cobj.5CBswM_Lcfg.
                    1308 BswM_Rule_ESH_WaitToWakeup..C.3A.5CVector.5CCBD1800257_D01_S32K1xx.5CApplications.5CS32K144_Start_new.5CAppl.5Cobj.5CBswM_Lcfg.:
                    1309 BswM_Rule_ESH_WaitToWakeup:
000004d0 b530       1310 	push	{r4-r5,lr}
                    1311 .LDW27:
000004d2 4d37*      1312 	ldr	r5,.L2297
000004d4 2414       1313 	movs	r4,20
000004d6 8828       1314 	ldrh	r0,[r5]
000004d8 2804       1315 	cmp	r0,4
000004da d106*      1316 	bne	.L2625
000004dc 4838*      1317 	ldr	r0,.L2481
000004de 4780       1318 	blx	r0
000004e0 b910*      1319 	cbnz	r0,.L2626
000004e2 88a8       1320 	ldrh	r0,[r5,4]
000004e4 2801       1321 	cmp	r0,1
000004e6 d100*      1322 	bne	.L2625
                    1323 .L2626:
                    1324 ;line1343
                    1325 ..lin.b01278b3..b5073cd8.0_18::
                    1326 .LDWlin18:
000004e8 240b       1327 	movs	r4,11
                    1328 .L2625:
000004ea 4620       1329 	cpy	r0,r4
                    1330 .LDW37:
000004ec bd30       1331 	pop	{r4-r5,pc}

                                                                      Page 23
                                                              C:\Users\Fengyuan\AppData\Local\Temp\gh_0000p9o1.s
                    1332 __ghs_eofn_BswM_Rule_ESH_WaitToWakeup:
                    1333 	.endf	BswM_Rule_ESH_WaitToWakeup
                    1334 	.endf	BswM_Rule_ESH_WaitToWakeup..C.3A.5CVector.5CCBD1800257_D01_S32K1xx.5CApplications.5CS32K144_Start_new.5CAppl.5Cobj.5CBswM_Lcfg.
                    1335 ;retVal	r4	local
                    1336 
                    1337 	.section ".bss","awb"
                    1338 .L2677:
                    1339 	.endo	.L2677
                    1340 	.text
                    1341 ..gh.f.a.1.e.32:
                    1342 	.endo	..gh.f.a.1.e.32
                    1343 	.global	BswM_Rule_ESH_WakeupToRun..C.3A.5CVector.5CCBD1800257_D01_S32K1xx.5CApplications.5CS32K144_Start_new.5CAppl.5Cobj.5CBswM_Lcfg.
                    1344 BswM_Rule_ESH_WakeupToRun..C.3A.5CVector.5CCBD1800257_D01_S32K1xx.5CApplications.5CS32K144_Start_new.5CAppl.5Cobj.5CBswM_Lcfg.:
                    1345 BswM_Rule_ESH_WakeupToRun:
000004ee b530       1346 	push	{r4-r5,lr}
                    1347 .LDW47:
000004f0 4d2f*      1348 	ldr	r5,.L2297
000004f2 2414       1349 	movs	r4,20
000004f4 8828       1350 	ldrh	r0,[r5]
000004f6 2806       1351 	cmp	r0,6
000004f8 d10a*      1352 	bne	.L2739
000004fa 4831*      1353 	ldr	r0,.L2481
000004fc 4780       1354 	blx	r0
000004fe b910*      1355 	cbnz	r0,.L2741
00000500 88a8       1356 	ldrh	r0,[r5,4]
00000502 2801       1357 	cmp	r0,1
00000504 d104*      1358 	bne	.L2739
                    1359 .L2741:
00000506 4930*      1360 	ldr	r1,.L2622
00000508 7808       1361 	ldrb	r0,[r1]
0000050a 2804       1362 	cmp	r0,4
0000050c d100*      1363 	bne	.L2739
                    1364 ;line1359
                    1365 ..lin.b01278b3..88e2b138.0_19::
                    1366 .LDWlin19:
0000050e 240c       1367 	movs	r4,12
                    1368 .L2739:
00000510 4620       1369 	cpy	r0,r4
                    1370 .LDW57:
00000512 bd30       1371 	pop	{r4-r5,pc}
                    1372 __ghs_eofn_BswM_Rule_ESH_WakeupToRun:
                    1373 	.endf	BswM_Rule_ESH_WakeupToRun
                    1374 	.endf	BswM_Rule_ESH_WakeupToRun..C.3A.5CVector.5CCBD1800257_D01_S32K1xx.5CApplications.5CS32K144_Start_new.5CAppl.5Cobj.5CBswM_Lcfg.
                    1375 ;retVal	r4	local
                    1376 
                    1377 ..gh.f.a.1.e.33:
                    1378 	.endo	..gh.f.a.1.e.33
                    1379 	.global	BswM_Rule_ESH_DemInit..C.3A.5CVector.5CCBD1800257_D01_S32K1xx.5CApplications.5CS32K144_Start_new.5CAppl.5Cobj.5CBswM_Lcfg.
                    1380 BswM_Rule_ESH_DemInit..C.3A.5CVector.5CCBD1800257_D01_S32K1xx.5CApplications.5CS32K144_Start_new.5CAppl.5Cobj.5CBswM_Lcfg.:
                    1381 BswM_Rule_ESH_DemInit:
                    1382 .LDW67:
00000514 4a26*      1383 	ldr	r2,.L2297
00000516 8851       1384 	ldrh	r1,[r2,2]
00000518 2901       1385 	cmp	r1,1
0000051a bf0c       1386 	ite	eq
0000051c 200d       1387 	mov	r0,13
0000051e 2014       1388 	mov	r0,20
                    1389 .LDW77:
00000520 4770       1390 	ret
                    1391 __ghs_eofn_BswM_Rule_ESH_DemInit:
                    1392 	.endf	BswM_Rule_ESH_DemInit

                                                                      Page 24
                                                              C:\Users\Fengyuan\AppData\Local\Temp\gh_0000p9o1.s
                    1393 	.endf	BswM_Rule_ESH_DemInit..C.3A.5CVector.5CCBD1800257_D01_S32K1xx.5CApplications.5CS32K144_Start_new.5CAppl.5Cobj.5CBswM_Lcfg.
                    1394 ;retVal	r0	local
                    1395 
                    1396 	.section ".bss","awb"
                    1397 .L2907:
                    1398 	.endo	.L2907
                    1399 	.text
                    1400 ..gh.f.a.1.e.34:
                    1401 	.endo	..gh.f.a.1.e.34
                    1402 	.global	BswM_Rule_ESH_InitToWakeup..C.3A.5CVector.5CCBD1800257_D01_S32K1xx.5CApplications.5CS32K144_Start_new.5CAppl.5Cobj.5CBswM_Lcfg.
                    1403 BswM_Rule_ESH_InitToWakeup..C.3A.5CVector.5CCBD1800257_D01_S32K1xx.5CApplications.5CS32K144_Start_new.5CAppl.5Cobj.5CBswM_Lcfg.:
                    1404 BswM_Rule_ESH_InitToWakeup:
                    1405 .LDW87:
00000522 4a23*      1406 	ldr	r2,.L2297
00000524 8811       1407 	ldrh	r1,[r2]
00000526 2900       1408 	cmp	r1,0
00000528 bf0c       1409 	ite	eq
0000052a 200e       1410 	mov	r0,14
0000052c 2014       1411 	mov	r0,20
                    1412 .LDW97:
0000052e 4770       1413 	ret
                    1414 __ghs_eofn_BswM_Rule_ESH_InitToWakeup:
                    1415 	.endf	BswM_Rule_ESH_InitToWakeup
                    1416 	.endf	BswM_Rule_ESH_InitToWakeup..C.3A.5CVector.5CCBD1800257_D01_S32K1xx.5CApplications.5CS32K144_Start_new.5CAppl.5Cobj.5CBswM_Lcfg.
                    1417 ;retVal	r0	local
                    1418 
                    1419 	.section ".bss","awb"
                    1420 .L2987:
                    1421 	.endo	.L2987
                    1422 	.text
                    1423 	.assert 0x0 + (Request_ESH_PostRunRequest_1_requestedMode - Request_ESH_PostRunRequest_1_requestedMode) +0 == 0
                    1424 	.assert 0x0 + (Request_ESH_PostRunRequest_0_requestedMode - Request_ESH_PostRunRequest_1_requestedMode) +0 == 1
                    1425 ..gh.f.a.1.e.35:
                    1426 	.endo	..gh.f.a.1.e.35
                    1427 	.global	BswM_Rule_ESH_PostRunToPrepNested..C.3A.5CVector.5CCBD1800257_D01_S32K1xx.5CApplications.5CS32K144_Start_new.5CAppl.5Cobj.5CBswM_Lcfg.
                    1428 BswM_Rule_ESH_PostRunToPrepNested..C.3A.5CVector.5CCBD1800257_D01_S32K1xx.5CApplications.5CS32K144_Start_new.5CAppl.5Cobj.5CBswM_Lcfg.:
                    1429 BswM_Rule_ESH_PostRunToPrepNested:
00000530 4926*      1430 	ldr	r1,.L3120
                    1431 .LDW08:
00000532 2014       1432 	movs	r0,20
00000534 784a       1433 	ldrb	r2,[r1,1]
00000536 b912*      1434 	cbnz	r2,.L3023
00000538 7809       1435 	ldrb	r1,[r1]
0000053a b901*      1436 	cbnz	r1,.L3023
0000053c 200f       1437 	movs	r0,15
                    1438 .L3023:
                    1439 .LDW18:
0000053e 4770       1440 	ret
                    1441 __ghs_eofn_BswM_Rule_ESH_PostRunToPrepNested:
                    1442 	.endf	BswM_Rule_ESH_PostRunToPrepNested
                    1443 	.endf	BswM_Rule_ESH_PostRunToPrepNested..C.3A.5CVector.5CCBD1800257_D01_S32K1xx.5CApplications.5CS32K144_Start_new.5CAppl.5Cobj.5CBswM_Lcfg.
                    1444 ;retVal	r0	local
                    1445 
                    1446 	.assert 0x0 + (Request_ESH_RunRequest_1_requestedMode - Request_ESH_RunRequest_1_requestedMode) +2 == 2
                    1447 	.assert 0x0 + (Request_ESH_RunRequest_0_requestedMode - Request_ESH_RunRequest_1_requestedMode) +2 == 3
                    1448 ..gh.f.a.1.e.36:
                    1449 	.endo	..gh.f.a.1.e.36
                    1450 	.global	BswM_Rule_ESH_PostRunNested..C.3A.5CVector.5CCBD1800257_D01_S32K1xx.5CApplications.5CS32K144_Start_new.5CAppl.5Cobj.5CBswM_Lcfg.
                    1451 BswM_Rule_ESH_PostRunNested..C.3A.5CVector.5CCBD1800257_D01_S32K1xx.5CApplications.5CS32K144_Start_new.5CAppl.5Cobj.5CBswM_Lcfg.:
                    1452 BswM_Rule_ESH_PostRunNested:
00000540 b500       1453 	push	{lr}

                                                                      Page 25
                                                              C:\Users\Fengyuan\AppData\Local\Temp\gh_0000p9o1.s
00000542 4823*      1454 	ldr	r0,.L3254
                    1455 .LDW28:
00000544 78c1       1456 	ldrb	r1,[r0,3]
00000546 2901       1457 	cmp	r1,1
00000548 d009*      1458 	beq	.L3124
0000054a 7880       1459 	ldrb	r0,[r0,2]
0000054c 2801       1460 	cmp	r0,1
0000054e d006*      1461 	beq	.L3124
00000550 481b*      1462 	ldr	r0,.L2481
00000552 4780       1463 	blx	r0
00000554 b918*      1464 	cbnz	r0,.L3124
00000556 4916*      1465 	ldr	r1,.L2297
00000558 8888       1466 	ldrh	r0,[r1,4]
0000055a 2801       1467 	cmp	r0,1
0000055c d101*      1468 	bne	.L3123
                    1469 .L3124:
                    1470 ;line1423
                    1471 ..lin.b01278b3..6b9a66d1.0_20::
                    1472 .LDWlin20:
0000055e 2011       1473 	movs	r0,17
00000560 e000*      1474 	b	.L3121
                    1475 .L3123:
                    1476 ;line1428
                    1477 ..lin.b01278b3..6b9a66d1.0_21::
                    1478 .LDWlin21:
00000562 2010       1479 	movs	r0,16
                    1480 .L3121:
                    1481 .LDW38:
00000564 bd00       1482 	pop	{pc}
                    1483 __ghs_eofn_BswM_Rule_ESH_PostRunNested:
                    1484 	.endf	BswM_Rule_ESH_PostRunNested
                    1485 	.endf	BswM_Rule_ESH_PostRunNested..C.3A.5CVector.5CCBD1800257_D01_S32K1xx.5CApplications.5CS32K144_Start_new.5CAppl.5Cobj.5CBswM_Lcfg.
                    1486 
                    1487 ..gh.f.a.1.e.37:
                    1488 	.endo	..gh.f.a.1.e.37
                    1489 	.global	BswM_Rule_ESH_PostRun..C.3A.5CVector.5CCBD1800257_D01_S32K1xx.5CApplications.5CS32K144_Start_new.5CAppl.5Cobj.5CBswM_Lcfg.
                    1490 BswM_Rule_ESH_PostRun..C.3A.5CVector.5CCBD1800257_D01_S32K1xx.5CApplications.5CS32K144_Start_new.5CAppl.5Cobj.5CBswM_Lcfg.:
                    1491 BswM_Rule_ESH_PostRun:
                    1492 .LDW48:
00000566 4a12*      1493 	ldr	r2,.L2297
00000568 2014       1494 	movs	r0,20
0000056a 8811       1495 	ldrh	r1,[r2]
0000056c 2902       1496 	cmp	r1,2
0000056e d103*      1497 	bne	.L3255
00000570 4a15*      1498 	ldr	r2,.L2622
00000572 7811       1499 	ldrb	r1,[r2]
00000574 b901*      1500 	cbnz	r1,.L3255
                    1501 ;line1443
                    1502 ..lin.b01278b3..186315ee.0_22::
                    1503 .LDWlin22:
00000576 2012       1504 	movs	r0,18
                    1505 .L3255:
                    1506 .LDW58:
00000578 4770       1507 	ret
                    1508 __ghs_eofn_BswM_Rule_ESH_PostRun:
                    1509 	.endf	BswM_Rule_ESH_PostRun
                    1510 	.endf	BswM_Rule_ESH_PostRun..C.3A.5CVector.5CCBD1800257_D01_S32K1xx.5CApplications.5CS32K144_Start_new.5CAppl.5Cobj.5CBswM_Lcfg.
                    1511 ;retVal	r0	local
                    1512 
                    1513 ..gh.f.a.1.e.38:
                    1514 	.endo	..gh.f.a.1.e.38

                                                                      Page 26
                                                              C:\Users\Fengyuan\AppData\Local\Temp\gh_0000p9o1.s
                    1515 	.global	BswM_Rule_ESH_PrepToWait..C.3A.5CVector.5CCBD1800257_D01_S32K1xx.5CApplications.5CS32K144_Start_new.5CAppl.5Cobj.5CBswM_Lcfg.
                    1516 BswM_Rule_ESH_PrepToWait..C.3A.5CVector.5CCBD1800257_D01_S32K1xx.5CApplications.5CS32K144_Start_new.5CAppl.5Cobj.5CBswM_Lcfg.:
                    1517 BswM_Rule_ESH_PrepToWait:
                    1518 .LDW68:
0000057a 4a0d*      1519 	ldr	r2,.L2297
0000057c 2014       1520 	movs	r0,20
0000057e 8811       1521 	ldrh	r1,[r2]
00000580 2903       1522 	cmp	r1,3
00000582 d104*      1523 	bne	.L3345
00000584 4a10*      1524 	ldr	r2,.L2622
00000586 7811       1525 	ldrb	r1,[r2]
00000588 2902       1526 	cmp	r1,2
0000058a d100*      1527 	bne	.L3345
                    1528 ;line1459
                    1529 ..lin.b01278b3..afaeff02.0_23::
                    1530 .LDWlin23:
0000058c 2013       1531 	movs	r0,19
                    1532 .L3345:
                    1533 .LDW78:
0000058e 4770       1534 	ret
                    1535 __ghs_eofn_BswM_Rule_ESH_PrepToWait:
                    1536 	.endf	BswM_Rule_ESH_PrepToWait
                    1537 	.endf	BswM_Rule_ESH_PrepToWait..C.3A.5CVector.5CCBD1800257_D01_S32K1xx.5CApplications.5CS32K144_Start_new.5CAppl.5Cobj.5CBswM_Lcfg.
                    1538 ;retVal	r0	local
                    1539 
                    1540 	.align	4
00000590 00000000*  1541 .L1510:	.data.w	SuspendAllInterrupts
                    1542 	.endo	.L1510
                    1543 
00000594 00000000*  1544 .L1511:	.data.w	ESH_ComM_CheckPendingRequests
                    1545 	.endo	.L1511
                    1546 
00000598 00000000*  1547 .L1512:	.data.w	BswM_Action_RuleHandler
                    1548 	.endo	.L1512
                    1549 
0000059c 00000000*  1550 .L1513:	.data.w	ResumeAllInterrupts
                    1551 	.endo	.L1513
                    1552 
000005a0 00000000*  1553 .L1558:	.data.w	BswM_ESH_OnEnterWaitForNvm
                    1554 	.endo	.L1558
                    1555 
000005a4 00000000*  1556 .L1559:	.data.w	BswM_RequestMode
                    1557 	.endo	.L1559
                    1558 
000005a8 00000000*  1559 .L1755:	.data.w	BswM_CanSMChannelState
                    1560 	.endo	.L1755
                    1561 
000005ac 00000000*  1562 .L1756:	.data.w	BswM_RuleStates
                    1563 	.endo	.L1756
                    1564 
000005b0 00000000*  1565 .L2297:	.data.w	BswM_GenericState
                    1566 	.endo	.L2297
                    1567 
000005b4 00000000*  1568 .L2298:	.data.w	BswM_Mode_Notification_ESH_ModeNotification_BswM_MDGP_ESH_Mode-3
                    1569 	.endo	.L2298
                    1570 
000005b8 00000000*  1571 .L2299:	.data.w	BswM_ComMChannelState
                    1572 	.endo	.L2299
                    1573 
000005bc 00000000*  1574 .L2300:	.data.w	BswM_TimerState
                    1575 	.endo	.L2300

                                                                      Page 27
                                                              C:\Users\Fengyuan\AppData\Local\Temp\gh_0000p9o1.s
                    1576 
000005c0 00000000*  1577 .L2481:	.data.w	EcuM_GetValidatedWakeupEvents
                    1578 	.endo	.L2481
                    1579 
000005c4 00000000*  1580 .L2621:	.data.w	EcuM_GetPendingWakeupEvents
                    1581 	.endo	.L2621
                    1582 
000005c8 00000000*  1583 .L2622:	.data.w	BswM_Mode_Notification_ESH_ModeNotification_BswM_MDGP_ESH_Mode
                    1584 	.endo	.L2622
                    1585 
000005cc 00000000*  1586 .L3120:	.data.w	Request_ESH_PostRunRequest_1_requestedMode
                    1587 	.endo	.L3120
                    1588 
000005d0 00000000*  1589 .L3254:	.data.w	Request_ESH_RunRequest_1_requestedMode-2
                    1590 	.endo	.L3254
                    1591 
                    1592 ;BswM_PduGroupControlInvocation	BswM_PduGroupControlInvocation	static
                    1593 ;BswM_Switch_ESH_ModeSwitch_BswM_MDGP_ESH_Mode	BswM_Switch_ESH_ModeSwitch_BswM_MDGP_ESH_Mode	static
                    1594 ;Request_ESH_RunRequest_0_requestedMode	Request_ESH_RunRequest_0_requestedMode	static
                    1595 ;Request_ESH_RunRequest_1_requestedMode	Request_ESH_RunRequest_1_requestedMode	static
                    1596 ;Request_ESH_PostRunRequest_0_requestedMode	Request_ESH_PostRunRequest_0_requestedMode	static
                    1597 ;Request_ESH_PostRunRequest_1_requestedMode	Request_ESH_PostRunRequest_1_requestedMode	static
                    1598 ;BswM_Mode_Notification_ESH_ModeNotification_BswM_MDGP_ESH_Mode	BswM_Mode_Notification_ESH_ModeNotification_BswM_MDGP_ESH_Mode	static
                    1599 ;BswM_ComIPduGroupState	BswM_ComIPduGroupState	static
                    1600 ;BswM_ComRxIPduGroupDMState	BswM_ComRxIPduGroupDMState	static
                    1601 ;BswM_ActionLists	BswM_ActionLists	export
                    1602 ;BswM_DeferredRules	BswM_DeferredRules	export
                    1603 ;BswM_GenericMapping	BswM_GenericMapping	export
                    1604 ;BswM_ImmediateUser	BswM_ImmediateUser	export
                    1605 ;BswM_Rules	BswM_Rules	export
                    1606 ;BswM_RulesInd	BswM_RulesInd	export
                    1607 ;BswM_RulesOfConfig	BswM_RulesOfConfig	export
                    1608 
                    1609 	.section ".rodata","a"
000000c8 00000000*  1610 BswM_RulesOfConfig::	.data.w	BswM_Init_Gen_NoPartitions
                    1611 	.endo	BswM_RulesOfConfig
000000cc 07060503   1612 BswM_DeferredRules::	.data.b	3,5,6,7
000000d0 0d08       1613 	.data.b	8,13
000000d2 0e         1614 	.data.b	14
                    1615 	.endo	BswM_DeferredRules
000000d3 00         1616 	.space	1
000000d4 000000e6   1617 BswM_GenericMapping::	.data.b	230,0,0,0
000000d8 0102       1618 	.data.b	2,1
000000da 0000       1619 	.space	2
000000dc 000000e7   1620 	.data.b	231,0,0,0
000000e0 0203       1621 	.data.b	3,2
000000e2 0000       1622 	.space	2
000000e4 000000e8   1623 	.data.b	232,0,0,0
000000e8 ffff       1624 	.data.b	255,255
000000ea 0000       1625 	.space	2
                    1626 	.endo	BswM_GenericMapping
000000ec 0301       1627 BswM_ImmediateUser::	.data.b	1,3
000000ee 00         1628 	.space	1
000000ef 0b03       1629 	.data.b	3,11
000000f1 03         1630 	.data.b	3
000000f2 00         1631 	.space	1
000000f3 ffff       1632 	.data.b	255,255
                    1633 	.endo	BswM_ImmediateUser
000000f5 000000     1634 	.space	3
000000f8 00         1635 BswM_RulesInd::	.space	1
000000f9 05030201   1636 	.data.b	1,2,3,5

                                                                      Page 28
                                                              C:\Users\Fengyuan\AppData\Local\Temp\gh_0000p9o1.s
000000fd 0a080706   1637 	.data.b	6,7,8,10
00000101 0e0d       1638 	.data.b	13,14
                    1639 	.endo	BswM_RulesInd
                    1640 	.comm	BswM_ActionListQueue,20,1
                    1641 	.type	BswM_ActionListQueue,$object
                    1642 	.size	BswM_ActionListQueue,20
                    1643 	.comm	BswM_TimerValue,4,4
                    1644 	.type	BswM_TimerValue,$object
                    1645 	.size	BswM_TimerValue,4
                    1646 	.comm	BswM_GenericState,6,2
                    1647 	.type	BswM_GenericState,$object
                    1648 	.size	BswM_GenericState,6
                    1649 	.comm	BswM_CanSMChannelState,1,1
                    1650 	.type	BswM_CanSMChannelState,$object
                    1651 	.size	BswM_CanSMChannelState,1
                    1652 	.comm	BswM_ComMChannelState,1,1
                    1653 	.type	BswM_ComMChannelState,$object
                    1654 	.size	BswM_ComMChannelState,1
                    1655 	.comm	BswM_ForcedActionListPriority,1,1
                    1656 	.type	BswM_ForcedActionListPriority,$object
                    1657 	.size	BswM_ForcedActionListPriority,1
                    1658 	.comm	BswM_Initialized,1,1
                    1659 	.type	BswM_Initialized,$object
                    1660 	.size	BswM_Initialized,1
                    1661 	.comm	BswM_ModeRequestQueue,3,1
                    1662 	.type	BswM_ModeRequestQueue,$object
                    1663 	.size	BswM_ModeRequestQueue,3
                    1664 	.comm	BswM_QueueSemaphore,1,1
                    1665 	.type	BswM_QueueSemaphore,$object
                    1666 	.size	BswM_QueueSemaphore,1
                    1667 	.comm	BswM_QueueWritten,1,1
                    1668 	.type	BswM_QueueWritten,$object
                    1669 	.size	BswM_QueueWritten,1
                    1670 	.comm	BswM_RuleStates,15,1
                    1671 	.type	BswM_RuleStates,$object
                    1672 	.size	BswM_RuleStates,15
                    1673 	.comm	BswM_TimerState,1,1
                    1674 	.type	BswM_TimerState,$object
                    1675 	.size	BswM_TimerState,1
                    1676 	.ghsnote info, 19, 3, 640
                    1677 	.text
                    1678 	.align	2
                    1679 ..eof.C.3A.5CVector.5CCBD1800257_D01_S32K1xx.5CApplications.5CS32K144_Start_new.5CAppl.5Cobj.5CBswM_Lcfg...43.3A.5CVector.5CCBD1800257_D01_S32K1xx.5CApplications.5CS32K144_Start_new.5CAppl..60CBFD66..0::
                    1680 	.section	.debug_info
                    1681 .Ldw_begin:
00000000 00000000*  1682 	.data.w	.Ldw_end-.Ldw_begin-4
00000004 0002       1683 	.data.b	2,0
00000006 00000000*  1684 	.data.w	.Ldw_abbr_begin
0000000a 04         1685 	.data.b	4
                    1686 	.section	.debug_abbrev
                    1687 .Ldw_abbr_begin:
                    1688 	.section	.debug_info
0000000b 01         1689 	.data.b	1
0000000c 00000000*  1690 	.data.w	..bof.C.3A.5CVector.5CCBD1800257_D01_S32K1xx.5CApplications.5CS32K144_Start_new.5CAppl.5Cobj.5CBswM_Lcfg...43.3A.5CVector.5CCBD1800257_D01_S32K1xx.5CApplications.5CS32K144_Start_new.5CAppl..60CBFD66..0
00000010 00000000*  1691 	.data.w	..eof.C.3A.5CVector.5CCBD1800257_D01_S32K1xx.5CApplications.5CS32K144_Start_new.5CAppl.5Cobj.5CBswM_Lcfg...43.3A.5CVector.5CCBD1800257_D01_S32K1xx.5CApplications.5CS32K144_Start_new.5CAppl..60CBFD66..0
00000014 446e6547   1692 	.data.b	71,101,110,68,97,116,97,47,66,115,119,77,95,76,99,102,103,46,99,0
00000018 2f617461 
0000001c 4d777342 
00000020 66634c5f 
00000024 00632e67 
00000028 565c3a43   1693 	.data.b	67,58,92,86,101,99,116,111,114,92,67,66,68,49,56,48,48,50,53,55,95,68,48,49,95,83,51,50,75,49,120,120,92,65,112,112,108,105,99,97,116,105,111,110,115,92,83,51,50,75,49,52,52,95,83,116,97,114,116,95

                                                                      Page 29
                                                              C:\Users\Fengyuan\AppData\Local\Temp\gh_0000p9o1.s
0000002c 6f746365 
00000030 42435c72 
00000034 30383144 
00000038 37353230 
0000003c 3130445f 
00000040 3233535f 
00000044 7878314b 
00000048 7070415c 
0000004c 6163696c 
00000050 6e6f6974 
00000054 33535c73 
00000058 34314b32 
0000005c 74535f34 
00000060 5f747261 
00000064 5c77656e   1694 	.data.b	110,101,119,92,65,112,112,108,0
00000068 6c707041 
0000006c 00 
0000006d 20534847   1695 	.data.b	71,72,83,32,67,32,50,48,49,55,46,49,46,52,32,91,100,117,97,108,93,0
00000071 30322043 
00000075 312e3731 
00000079 5b20342e 
0000007d 6c617564 
00000081 005d 
00000083 0001       1696 	.data.b	1,0
00000085 00000000*  1697 	.data.w	.Ldw_line_begin
00000089 00000000*  1698 	.data.w	.Ldw_macinfo_begin
0000008d 00         1699 	.data.b	0
                    1700 
                    1701 	.section	.debug_abbrev
00000000 01         1702 	.data.b	1
00000001 11         1703 	.data.b	17
00000002 01         1704 	.data.b	1
00000003 0111       1705 	.data.b	17,1
00000005 0112       1706 	.data.b	18,1
00000007 0803       1707 	.data.b	3,8
00000009 081b       1708 	.data.b	27,8
0000000b 0825       1709 	.data.b	37,8
0000000d 0513       1710 	.data.b	19,5
0000000f 0610       1711 	.data.b	16,6
00000011 0643       1712 	.data.b	67,6
00000013 0b42       1713 	.data.b	66,11
00000015 0000       1714 	.data.b	0,0
                    1715 
                    1716 	.section	.debug_line
                    1717 .Ldw_line_begin:
00000000 00000000*  1718 	.data.w	.Ldw_line_end-.Ldw_line_begin-4
00000004 0002       1719 	.data.b	2,0
00000006 00000000*  1720 	.data.w	.Ldw_lpro_end-.Ldw_lpro_begin
                    1721 .Ldw_lpro_begin:
0000000a 01         1722 	.data.b	1
0000000b 00         1723 	.data.b	0
0000000c 00         1724 	.data.b	0
0000000d 04         1725 	.data.b	4
0000000e 0a         1726 	.data.b	10
0000000f 010100     1727 	.data.b	0,1,1
00000012 000101     1728 	.data.b	1,1,0
00000015 010000     1729 	.data.b	0,0,1
00000018 00         1730 	.data.b	0
00000019 446e6547   1731 	.data.b	71,101,110,68,97,116,97,47,66,115,119,77,95,76,99,102,103,46,99,0
0000001d 2f617461 
00000021 4d777342 

                                                                      Page 30
                                                              C:\Users\Fengyuan\AppData\Local\Temp\gh_0000p9o1.s
00000025 66634c5f 
00000029 00632e67 
0000002d 000000     1732 	.data.b	0,0,0
00000030 2e2f2e2e   1733 	.data.b	46,46,47,46,46,47,46,46,47,98,115,119,47,98,115,119,109,47,66,115,119,77,46,104,0
00000034 2e2e2f2e 
00000038 7773622f 
0000003c 7773622f 
00000040 73422f6d 
00000044 682e4d77 
00000048 00 
00000049 000000     1734 	.data.b	0,0,0
0000004c 646e6567   1735 	.data.b	103,101,110,100,97,116,97,92,66,115,119,77,95,67,102,103,46,104,0
00000050 5c617461 
00000054 4d777342 
00000058 6766435f 
0000005c 00682e 
0000005f 000000     1736 	.data.b	0,0,0
00000062 2e2f2e2e   1737 	.data.b	46,46,47,46,46,47,46,46,47,98,115,119,47,95,99,111,109,109,111,110,47,83,116,100,95,84,121,112,101,115,46,104,0
00000066 2e2e2f2e 
0000006a 7773622f 
0000006e 6f635f2f 
00000072 6e6f6d6d 
00000076 6474532f 
0000007a 7079545f 
0000007e 682e7365 
00000082 00 
00000083 000000     1738 	.data.b	0,0,0
00000086 2e2f2e2e   1739 	.data.b	46,46,47,46,46,47,46,46,47,98,115,119,47,95,99,111,109,109,111,110,47,80,108,97,116,102,111,114,109,95,84,121,112,101,115,46,104,0
0000008a 2e2e2f2e 
0000008e 7773622f 
00000092 6f635f2f 
00000096 6e6f6d6d 
0000009a 616c502f 
0000009e 726f6674 
000000a2 79545f6d 
000000a6 2e736570 
000000aa 0068 
000000ac 000000     1740 	.data.b	0,0,0
000000af 2e2f2e2e   1741 	.data.b	46,46,47,46,46,47,46,46,47,98,115,119,47,95,99,111,109,109,111,110,47,67,111,109,112,105,108,101,114,46,104,0
000000b3 2e2e2f2e 
000000b7 7773622f 
000000bb 6f635f2f 
000000bf 6e6f6d6d 
000000c3 6d6f432f 
000000c7 656c6970 
000000cb 00682e72 
000000cf 000000     1742 	.data.b	0,0,0
000000d2 6c636e69   1743 	.data.b	105,110,99,108,117,100,101,92,67,111,109,112,105,108,101,114,95,67,102,103,46,104,0
000000d6 5c656475 
000000da 706d6f43 
000000de 72656c69 
000000e2 6766435f 
000000e6 00682e 
000000e9 000000     1744 	.data.b	0,0,0
000000ec 646e6567   1745 	.data.b	103,101,110,100,97,116,97,92,82,116,101,95,67,111,109,112,105,108,101,114,95,67,102,103,46,104,0
000000f0 5c617461 
000000f4 5f657452 
000000f8 706d6f43 
000000fc 72656c69 
00000100 6766435f 
00000104 00682e 

                                                                      Page 31
                                                              C:\Users\Fengyuan\AppData\Local\Temp\gh_0000p9o1.s
00000107 000000     1746 	.data.b	0,0,0
0000010a 6c636e69   1747 	.data.b	105,110,99,108,117,100,101,92,67,100,100,95,84,112,95,67,111,109,112,105,108,101,114,95,67,102,103,46,104,0
0000010e 5c656475 
00000112 5f646443 
00000116 435f7054 
0000011a 69706d6f 
0000011e 5f72656c 
00000122 2e676643 
00000126 0068 
00000128 000000     1748 	.data.b	0,0,0
0000012b 6c636e69   1749 	.data.b	105,110,99,108,117,100,101,92,67,100,100,95,67,111,109,95,67,111,109,112,105,108,101,114,95,67,102,103,46,104,0
0000012f 5c656475 
00000133 5f646443 
00000137 5f6d6f43 
0000013b 706d6f43 
0000013f 72656c69 
00000143 6766435f 
00000147 00682e 
0000014a 000000     1750 	.data.b	0,0,0
0000014d 646e6567   1751 	.data.b	103,101,110,100,97,116,97,92,79,115,95,67,111,109,112,105,108,101,114,95,67,102,103,46,104,0
00000151 5c617461 
00000155 435f734f 
00000159 69706d6f 
0000015d 5f72656c 
00000161 2e676643 
00000165 0068 
00000167 000000     1752 	.data.b	0,0,0
0000016a 2e2f2e2e   1753 	.data.b	46,46,47,46,46,47,46,46,47,98,115,119,47,95,99,111,109,109,111,110,47,67,111,109,83,116,97,99,107,95,84,121,112,101,115,46,104,0
0000016e 2e2e2f2e 
00000172 7773622f 
00000176 6f635f2f 
0000017a 6e6f6d6d 
0000017e 6d6f432f 
00000182 63617453 
00000186 79545f6b 
0000018a 2e736570 
0000018e 0068 
00000190 000000     1754 	.data.b	0,0,0
00000193 646e6567   1755 	.data.b	103,101,110,100,97,116,97,92,67,111,109,83,116,97,99,107,95,67,102,103,46,104,0
00000197 5c617461 
0000019b 536d6f43 
0000019f 6b636174 
000001a3 6766435f 
000001a7 00682e 
000001aa 000000     1756 	.data.b	0,0,0
000001ad 2e2f2e2e   1757 	.data.b	46,46,47,46,46,47,46,46,47,98,115,119,47,98,115,119,109,47,66,115,119,77,95,67,111,109,77,46,104,0
000001b1 2e2e2f2e 
000001b5 7773622f 
000001b9 7773622f 
000001bd 73422f6d 
000001c1 435f4d77 
000001c5 2e4d6d6f 
000001c9 0068 
000001cb 000000     1758 	.data.b	0,0,0
000001ce 2e2f2e2e   1759 	.data.b	46,46,47,46,46,47,46,46,47,98,115,119,47,99,111,109,109,47,67,111,109,77,46,104,0
000001d2 2e2e2f2e 
000001d6 7773622f 
000001da 6d6f632f 
000001de 6f432f6d 
000001e2 682e4d6d 
000001e6 00 

                                                                      Page 32
                                                              C:\Users\Fengyuan\AppData\Local\Temp\gh_0000p9o1.s
000001e7 000000     1760 	.data.b	0,0,0
000001ea 646e6567   1761 	.data.b	103,101,110,100,97,116,97,92,67,111,109,77,95,76,99,102,103,46,104,0
000001ee 5c617461 
000001f2 4d6d6f43 
000001f6 66634c5f 
000001fa 00682e67 
000001fe 000000     1762 	.data.b	0,0,0
00000201 646e6567   1763 	.data.b	103,101,110,100,97,116,97,92,67,111,109,77,95,67,102,103,46,104,0
00000205 5c617461 
00000209 4d6d6f43 
0000020d 6766435f 
00000211 00682e 
00000214 000000     1764 	.data.b	0,0,0
00000217 2e2f2e2e   1765 	.data.b	46,46,47,46,46,47,46,46,47,98,115,119,47,99,111,109,109,47,67,111,109,77,95,84,121,112,101,115,46,104,0
0000021b 2e2e2f2e 
0000021f 7773622f 
00000223 6d6f632f 
00000227 6f432f6d 
0000022b 545f4d6d 
0000022f 73657079 
00000233 00682e 
00000236 000000     1766 	.data.b	0,0,0
00000239 646e6567   1767 	.data.b	103,101,110,100,97,116,97,92,67,111,109,77,95,71,101,110,84,121,112,101,115,46,104,0
0000023d 5c617461 
00000241 4d6d6f43 
00000245 6e65475f 
00000249 65707954 
0000024d 00682e73 
00000251 000000     1768 	.data.b	0,0,0
00000254 646e6567   1769 	.data.b	103,101,110,100,97,116,97,47,99,111,109,112,111,110,101,110,116,115,47,82,116,101,95,67,111,109,77,95,84,121,112,101,46,104,0
00000258 2f617461 
0000025c 706d6f63 
00000260 6e656e6f 
00000264 522f7374 
00000268 435f6574 
0000026c 5f4d6d6f 
00000270 65707954 
00000274 00682e 
00000277 000000     1770 	.data.b	0,0,0
0000027a 646e6567   1771 	.data.b	103,101,110,100,97,116,97,92,82,116,101,95,84,121,112,101,46,104,0
0000027e 5c617461 
00000282 5f657452 
00000286 65707954 
0000028a 00682e 
0000028d 000000     1772 	.data.b	0,0,0
00000290 646e6567   1773 	.data.b	103,101,110,100,97,116,97,92,82,116,101,46,104,0
00000294 5c617461 
00000298 2e657452 
0000029c 0068 
0000029e 000000     1774 	.data.b	0,0,0
000002a1 646e6567   1775 	.data.b	103,101,110,100,97,116,97,92,82,116,101,95,85,115,101,114,84,121,112,101,115,46,104,0
000002a5 5c617461 
000002a9 5f657452 
000002ad 72657355 
000002b1 65707954 
000002b5 00682e73 
000002b9 000000     1776 	.data.b	0,0,0
000002bc 646e6567   1777 	.data.b	103,101,110,100,97,116,97,92,82,116,101,95,68,97,116,97,72,97,110,100,108,101,84,121,112,101,46,104,0
000002c0 5c617461 
000002c4 5f657452 
000002c8 61746144 

                                                                      Page 33
                                                              C:\Users\Fengyuan\AppData\Local\Temp\gh_0000p9o1.s
000002cc 646e6148 
000002d0 7954656c 
000002d4 682e6570 
000002d8 00 
000002d9 000000     1778 	.data.b	0,0,0
000002dc 6c636e69   1779 	.data.b	105,110,99,108,117,100,101,92,77,101,109,77,97,112,46,104,0
000002e0 5c656475 
000002e4 4d6d654d 
000002e8 682e7061 
000002ec 00 
000002ed 000000     1780 	.data.b	0,0,0
000002f0 646e6567   1781 	.data.b	103,101,110,100,97,116,97,92,67,111,109,77,95,80,66,99,102,103,46,104,0
000002f4 5c617461 
000002f8 4d6d6f43 
000002fc 6342505f 
00000300 682e6766 
00000304 00 
00000305 000000     1782 	.data.b	0,0,0
00000308 2e2f2e2e   1783 	.data.b	46,46,47,46,46,47,46,46,47,98,115,119,47,99,111,109,109,47,67,111,109,77,95,69,99,117,77,66,115,119,77,46,104,0
0000030c 2e2e2f2e 
00000310 7773622f 
00000314 6d6f632f 
00000318 6f432f6d 
0000031c 455f4d6d 
00000320 424d7563 
00000324 2e4d7773 
00000328 0068 
0000032a 000000     1784 	.data.b	0,0,0
0000032d 2e2f2e2e   1785 	.data.b	46,46,47,46,46,47,46,46,47,98,115,119,47,98,115,119,109,47,66,115,119,77,95,67,97,110,83,77,46,104,0
00000331 2e2e2f2e 
00000335 7773622f 
00000339 7773622f 
0000033d 73422f6d 
00000341 435f4d77 
00000345 4d536e61 
00000349 00682e 
0000034c 000000     1786 	.data.b	0,0,0
0000034f 2e2f2e2e   1787 	.data.b	46,46,47,46,46,47,46,46,47,98,115,119,47,99,97,110,115,109,47,67,97,110,83,77,95,66,115,119,77,46,104,0
00000353 2e2e2f2e 
00000357 7773622f 
0000035b 6e61632f 
0000035f 432f6d73 
00000363 4d536e61 
00000367 7773425f 
0000036b 00682e4d 
0000036f 000000     1788 	.data.b	0,0,0
00000372 2e2f2e2e   1789 	.data.b	46,46,47,46,46,47,46,46,47,98,115,119,47,98,115,119,109,47,66,115,119,77,95,68,99,109,46,104,0
00000376 2e2e2f2e 
0000037a 7773622f 
0000037e 7773622f 
00000382 73422f6d 
00000386 445f4d77 
0000038a 682e6d63 
0000038e 00 
0000038f 000000     1790 	.data.b	0,0,0
00000392 2e2f2e2e   1791 	.data.b	46,46,47,46,46,47,46,46,47,98,115,119,47,100,99,109,47,68,99,109,46,104,0
00000396 2e2e2f2e 
0000039a 7773622f 
0000039e 6d63642f 
000003a2 6d63442f 
000003a6 00682e 

                                                                      Page 34
                                                              C:\Users\Fengyuan\AppData\Local\Temp\gh_0000p9o1.s
000003a9 000000     1792 	.data.b	0,0,0
000003ac 2e2f2e2e   1793 	.data.b	46,46,47,46,46,47,46,46,47,98,115,119,47,100,99,109,47,68,99,109,95,67,98,107,46,104,0
000003b0 2e2e2f2e 
000003b4 7773622f 
000003b8 6d63642f 
000003bc 6d63442f 
000003c0 6b62435f 
000003c4 00682e 
000003c7 000000     1794 	.data.b	0,0,0
000003ca 2e2f2e2e   1795 	.data.b	46,46,47,46,46,47,46,46,47,98,115,119,47,100,99,109,47,68,99,109,95,84,121,112,101,115,46,104,0
000003ce 2e2e2f2e 
000003d2 7773622f 
000003d6 6d63642f 
000003da 6d63442f 
000003de 7079545f 
000003e2 682e7365 
000003e6 00 
000003e7 000000     1796 	.data.b	0,0,0
000003ea 646e6567   1797 	.data.b	103,101,110,100,97,116,97,47,99,111,109,112,111,110,101,110,116,115,47,82,116,101,95,68,99,109,95,84,121,112,101,46,104,0
000003ee 2f617461 
000003f2 706d6f63 
000003f6 6e656e6f 
000003fa 522f7374 
000003fe 445f6574 
00000402 545f6d63 
00000406 2e657079 
0000040a 0068 
0000040c 000000     1798 	.data.b	0,0,0
0000040f 646e6567   1799 	.data.b	103,101,110,100,97,116,97,92,68,99,109,95,67,102,103,46,104,0
00000413 5c617461 
00000417 5f6d6344 
0000041b 2e676643 
0000041f 0068 
00000421 000000     1800 	.data.b	0,0,0
00000424 2e2f2e2e   1801 	.data.b	46,46,47,46,46,47,46,46,47,98,115,119,47,100,99,109,47,68,99,109,95,66,97,115,101,84,121,112,101,115,46,104,0
00000428 2e2e2f2e 
0000042c 7773622f 
00000430 6d63642f 
00000434 6d63442f 
00000438 7361425f 
0000043c 70795465 
00000440 682e7365 
00000444 00 
00000445 000000     1802 	.data.b	0,0,0
00000448 2e2f2e2e   1803 	.data.b	46,46,47,46,46,47,46,46,47,98,115,119,47,100,99,109,47,68,99,109,95,69,120,116,84,121,112,101,115,46,104,0
0000044c 2e2e2f2e 
00000450 7773622f 
00000454 6d63642f 
00000458 6d63442f 
0000045c 7478455f 
00000460 65707954 
00000464 00682e73 
00000468 000000     1804 	.data.b	0,0,0
0000046b 2e2f2e2e   1805 	.data.b	46,46,47,46,46,47,46,46,47,98,115,119,47,100,99,109,47,68,99,109,95,67,111,114,101,84,121,112,101,115,46,104,0
0000046f 2e2e2f2e 
00000473 7773622f 
00000477 6d63642f 
0000047b 6d63442f 
0000047f 726f435f 
00000483 70795465 
00000487 682e7365 

                                                                      Page 35
                                                              C:\Users\Fengyuan\AppData\Local\Temp\gh_0000p9o1.s
0000048b 00 
0000048c 000000     1806 	.data.b	0,0,0
0000048f 2e2f2e2e   1807 	.data.b	46,46,47,46,46,47,46,46,47,98,115,119,47,100,99,109,47,68,99,109,95,66,97,115,101,67,98,107,46,104,0
00000493 2e2e2f2e 
00000497 7773622f 
0000049b 6d63642f 
0000049f 6d63442f 
000004a3 7361425f 
000004a7 6b624365 
000004ab 00682e 
000004ae 000000     1808 	.data.b	0,0,0
000004b1 2e2f2e2e   1809 	.data.b	46,46,47,46,46,47,46,46,47,98,115,119,47,100,99,109,47,68,99,109,95,69,120,116,67,98,107,46,104,0
000004b5 2e2e2f2e 
000004b9 7773622f 
000004bd 6d63642f 
000004c1 6d63442f 
000004c5 7478455f 
000004c9 2e6b6243 
000004cd 0068 
000004cf 000000     1810 	.data.b	0,0,0
000004d2 2e2f2e2e   1811 	.data.b	46,46,47,46,46,47,46,46,47,98,115,119,47,100,99,109,47,68,99,109,95,67,111,114,101,67,98,107,46,104,0
000004d6 2e2e2f2e 
000004da 7773622f 
000004de 6d63642f 
000004e2 6d63442f 
000004e6 726f435f 
000004ea 6b624365 
000004ee 00682e 
000004f1 000000     1812 	.data.b	0,0,0
000004f4 646e6567   1813 	.data.b	103,101,110,100,97,116,97,92,68,99,109,95,76,99,102,103,46,104,0
000004f8 5c617461 
000004fc 5f6d6344 
00000500 6766634c 
00000504 00682e 
00000507 000000     1814 	.data.b	0,0,0
0000050a 2e2f2e2e   1815 	.data.b	46,46,47,46,46,47,46,46,47,98,115,119,47,100,101,109,47,68,101,109,46,104,0
0000050e 2e2e2f2e 
00000512 7773622f 
00000516 6d65642f 
0000051a 6d65442f 
0000051e 00682e 
00000521 000000     1816 	.data.b	0,0,0
00000524 2e2f2e2e   1817 	.data.b	46,46,47,46,46,47,46,46,47,98,115,119,47,100,101,109,47,68,101,109,95,84,121,112,101,115,46,104,0
00000528 2e2e2f2e 
0000052c 7773622f 
00000530 6d65642f 
00000534 6d65442f 
00000538 7079545f 
0000053c 682e7365 
00000540 00 
00000541 000000     1818 	.data.b	0,0,0
00000544 646e6567   1819 	.data.b	103,101,110,100,97,116,97,92,68,101,109,95,67,102,103,46,104,0
00000548 5c617461 
0000054c 5f6d6544 
00000550 2e676643 
00000554 0068 
00000556 000000     1820 	.data.b	0,0,0
00000559 646e6567   1821 	.data.b	103,101,110,100,97,116,97,92,68,101,109,95,83,119,99,95,84,121,112,101,115,46,104,0
0000055d 5c617461 
00000561 5f6d6544 
00000565 5f637753 

                                                                      Page 36
                                                              C:\Users\Fengyuan\AppData\Local\Temp\gh_0000p9o1.s
00000569 65707954 
0000056d 00682e73 
00000571 000000     1822 	.data.b	0,0,0
00000574 646e6567   1823 	.data.b	103,101,110,100,97,116,97,47,99,111,109,112,111,110,101,110,116,115,47,82,116,101,95,68,101,109,77,97,115,116,101,114,95,48,95,84,121,112,101,46,104,0
00000578 2f617461 
0000057c 706d6f63 
00000580 6e656e6f 
00000584 522f7374 
00000588 445f6574 
0000058c 614d6d65 
00000590 72657473 
00000594 545f305f 
00000598 2e657079 
0000059c 0068 
0000059e 000000     1824 	.data.b	0,0,0
000005a1 646e6567   1825 	.data.b	103,101,110,100,97,116,97,92,68,101,109,95,76,99,102,103,46,104,0
000005a5 5c617461 
000005a9 5f6d6544 
000005ad 6766634c 
000005b1 00682e 
000005b4 000000     1826 	.data.b	0,0,0
000005b7 2e2f2e2e   1827 	.data.b	46,46,47,46,46,47,46,46,47,98,115,119,47,100,101,109,47,68,101,109,95,83,97,116,101,108,108,105,116,101,68,97,116,97,95,84,121,112,101,115,46,104,0
000005bb 2e2e2f2e 
000005bf 7773622f 
000005c3 6d65642f 
000005c7 6d65442f 
000005cb 7461535f 
000005cf 696c6c65 
000005d3 61446574 
000005d7 545f6174 
000005db 73657079 
000005df 00682e 
000005e2 000000     1828 	.data.b	0,0,0
000005e5 2e2f2e2e   1829 	.data.b	46,46,47,46,46,47,46,46,47,98,115,119,47,100,101,109,47,68,101,109,95,73,110,116,46,104,0
000005e9 2e2e2f2e 
000005ed 7773622f 
000005f1 6d65642f 
000005f5 6d65442f 
000005f9 746e495f 
000005fd 00682e 
00000600 000000     1830 	.data.b	0,0,0
00000603 646e6567   1831 	.data.b	103,101,110,100,97,116,97,92,83,99,104,77,95,68,101,109,46,104,0
00000607 5c617461 
0000060b 4d686353 
0000060f 6d65445f 
00000613 00682e 
00000616 000000     1832 	.data.b	0,0,0
00000619 646e6567   1833 	.data.b	103,101,110,100,97,116,97,92,83,99,104,77,95,68,101,109,95,84,121,112,101,46,104,0
0000061d 5c617461 
00000621 4d686353 
00000625 6d65445f 
00000629 7079545f 
0000062d 00682e65 
00000631 000000     1834 	.data.b	0,0,0
00000634 2e2f2e2e   1835 	.data.b	46,46,47,46,46,47,46,46,47,98,115,119,47,111,115,47,79,115,46,104,0
00000638 2e2e2f2e 
0000063c 7773622f 
00000640 2f736f2f 
00000644 682e734f 
00000648 00 
00000649 000000     1836 	.data.b	0,0,0

                                                                      Page 37
                                                              C:\Users\Fengyuan\AppData\Local\Temp\gh_0000p9o1.s
0000064c 2e2f2e2e   1837 	.data.b	46,46,47,46,46,47,46,46,47,98,115,119,47,111,115,47,79,115,73,110,116,46,104,0
00000650 2e2e2f2e 
00000654 7773622f 
00000658 2f736f2f 
0000065c 6e49734f 
00000660 00682e74 
00000664 000000     1838 	.data.b	0,0,0
00000667 646e6567   1839 	.data.b	103,101,110,100,97,116,97,92,79,115,95,76,99,102,103,46,104,0
0000066b 5c617461 
0000066f 4c5f734f 
00000673 2e676663 
00000677 0068 
00000679 000000     1840 	.data.b	0,0,0
0000067c 646e6567   1841 	.data.b	103,101,110,100,97,116,97,92,79,115,95,67,102,103,46,104,0
00000680 5c617461 
00000684 435f734f 
00000688 682e6766 
0000068c 00 
0000068d 000000     1842 	.data.b	0,0,0
00000690 646e6567   1843 	.data.b	103,101,110,100,97,116,97,92,79,115,95,72,97,108,95,67,102,103,46,104,0
00000694 5c617461 
00000698 485f734f 
0000069c 435f6c61 
000006a0 682e6766 
000006a4 00 
000006a5 000000     1844 	.data.b	0,0,0
000006a8 2e2f2e2e   1845 	.data.b	46,46,47,46,46,47,46,46,47,98,115,119,47,111,115,47,79,115,95,84,121,112,101,115,46,104,0
000006ac 2e2e2f2e 
000006b0 7773622f 
000006b4 2f736f2f 
000006b8 545f734f 
000006bc 73657079 
000006c0 00682e 
000006c3 000000     1846 	.data.b	0,0,0
000006c6 646e6567   1847 	.data.b	103,101,110,100,97,116,97,92,79,115,95,84,121,112,101,115,95,76,99,102,103,46,104,0
000006ca 5c617461 
000006ce 545f734f 
000006d2 73657079 
000006d6 66634c5f 
000006da 00682e67 
000006de 000000     1848 	.data.b	0,0,0
000006e1 2e2f2e2e   1849 	.data.b	46,46,47,46,46,47,46,46,47,98,115,119,47,111,115,47,79,115,95,72,97,108,95,79,115,95,84,121,112,101,115,46,104,0
000006e5 2e2e2f2e 
000006e9 7773622f 
000006ed 2f736f2f 
000006f1 485f734f 
000006f5 4f5f6c61 
000006f9 79545f73 
000006fd 2e736570 
00000701 0068 
00000703 000000     1850 	.data.b	0,0,0
00000706 646e6567   1851 	.data.b	103,101,110,100,97,116,97,92,79,115,95,72,97,108,95,76,99,102,103,46,104,0
0000070a 5c617461 
0000070e 485f734f 
00000712 4c5f6c61 
00000716 2e676663 
0000071a 0068 
0000071c 000000     1852 	.data.b	0,0,0
0000071f 2e2f2e2e   1853 	.data.b	46,46,47,46,46,47,46,46,47,98,115,119,47,111,115,47,79,115,95,72,97,108,95,79,115,73,110,116,46,104,0
00000723 2e2e2f2e 
00000727 7773622f 

                                                                      Page 38
                                                              C:\Users\Fengyuan\AppData\Local\Temp\gh_0000p9o1.s
0000072b 2f736f2f 
0000072f 485f734f 
00000733 4f5f6c61 
00000737 746e4973 
0000073b 00682e 
0000073e 000000     1854 	.data.b	0,0,0
00000741 2e2f2e2e   1855 	.data.b	46,46,47,46,46,47,46,46,47,98,115,119,47,111,115,47,79,115,95,72,97,108,95,79,115,46,104,0
00000745 2e2e2f2e 
00000749 7773622f 
0000074d 2f736f2f 
00000751 485f734f 
00000755 4f5f6c61 
00000759 00682e73 
0000075d 000000     1856 	.data.b	0,0,0
00000760 2e2f2e2e   1857 	.data.b	46,46,47,46,46,47,46,46,47,98,115,119,47,111,115,47,79,115,95,77,101,109,77,97,112,95,79,115,67,111,100,101,46,104,0
00000764 2e2e2f2e 
00000768 7773622f 
0000076c 2f736f2f 
00000770 4d5f734f 
00000774 614d6d65 
00000778 734f5f70 
0000077c 65646f43 
00000780 00682e 
00000783 000000     1858 	.data.b	0,0,0
00000786 646e6567   1859 	.data.b	103,101,110,100,97,116,97,92,79,115,95,77,101,109,77,97,112,95,79,115,67,111,100,101,73,110,116,46,104,0
0000078a 5c617461 
0000078e 4d5f734f 
00000792 614d6d65 
00000796 734f5f70 
0000079a 65646f43 
0000079e 2e746e49 
000007a2 0068 
000007a4 000000     1860 	.data.b	0,0,0
000007a7 2e2f2e2e   1861 	.data.b	46,46,47,46,46,47,46,46,47,98,115,119,47,100,101,109,47,68,101,109,95,67,111,109,95,84,121,112,101,115,46,104,0
000007ab 2e2e2f2e 
000007af 7773622f 
000007b3 6d65642f 
000007b7 6d65442f 
000007bb 6d6f435f 
000007bf 7079545f 
000007c3 682e7365 
000007c7 00 
000007c8 000000     1862 	.data.b	0,0,0
000007cb 2e2f2e2e   1863 	.data.b	46,46,47,46,46,47,46,46,47,98,115,119,47,100,101,109,47,68,101,109,95,69,118,101,110,116,81,117,101,117,101,95,84,121,112,101,115,46,104,0
000007cf 2e2e2f2e 
000007d3 7773622f 
000007d7 6d65642f 
000007db 6d65442f 
000007df 6576455f 
000007e3 7551746e 
000007e7 5f657565 
000007eb 65707954 
000007ef 00682e73 
000007f3 000000     1864 	.data.b	0,0,0
000007f6 2e2f2e2e   1865 	.data.b	46,46,47,46,46,47,46,46,47,98,115,119,47,100,101,109,47,68,101,109,95,68,101,98,111,117,110,99,101,66,97,115,101,95,70,119,100,46,104,0
000007fa 2e2e2f2e 
000007fe 7773622f 
00000802 6d65642f 
00000806 6d65442f 
0000080a 6265445f 
0000080e 636e756f 

                                                                      Page 39
                                                              C:\Users\Fengyuan\AppData\Local\Temp\gh_0000p9o1.s
00000812 73614265 
00000816 77465f65 
0000081a 00682e64 
0000081e 000000     1866 	.data.b	0,0,0
00000821 2e2f2e2e   1867 	.data.b	46,46,47,46,46,47,46,46,47,98,115,119,47,100,101,109,47,68,101,109,95,68,84,67,83,101,108,101,99,116,111,114,95,84,121,112,101,115,46,104,0
00000825 2e2e2f2e 
00000829 7773622f 
0000082d 6d65642f 
00000831 6d65442f 
00000835 4354445f 
00000839 656c6553 
0000083d 726f7463 
00000841 7079545f 
00000845 682e7365 
00000849 00 
0000084a 000000     1868 	.data.b	0,0,0
0000084d 2e2f2e2e   1869 	.data.b	46,46,47,46,46,47,46,46,47,98,115,119,47,100,101,109,47,68,101,109,95,70,105,108,116,101,114,68,97,116,97,95,84,121,112,101,115,46,104,0
00000851 2e2e2f2e 
00000855 7773622f 
00000859 6d65642f 
0000085d 6d65442f 
00000861 6c69465f 
00000865 44726574 
00000869 5f617461 
0000086d 65707954 
00000871 00682e73 
00000875 000000     1870 	.data.b	0,0,0
00000878 2e2f2e2e   1871 	.data.b	46,46,47,46,46,47,46,46,47,98,115,119,47,100,101,109,47,68,101,109,95,67,102,103,95,84,121,112,101,115,46,104,0
0000087c 2e2e2f2e 
00000880 7773622f 
00000884 6d65642f 
00000888 6d65442f 
0000088c 6766435f 
00000890 7079545f 
00000894 682e7365 
00000898 00 
00000899 000000     1872 	.data.b	0,0,0
0000089c 2e2f2e2e   1873 	.data.b	46,46,47,46,46,47,46,46,47,98,115,119,47,100,101,109,47,68,101,109,95,80,114,101,115,116,111,114,101,95,84,121,112,101,115,46,104,0
000008a0 2e2e2f2e 
000008a4 7773622f 
000008a8 6d65642f 
000008ac 6d65442f 
000008b0 6572505f 
000008b4 726f7473 
000008b8 79545f65 
000008bc 2e736570 
000008c0 0068 
000008c2 000000     1874 	.data.b	0,0,0
000008c5 2e2f2e2e   1875 	.data.b	46,46,47,46,46,47,46,46,47,98,115,119,47,100,101,109,47,68,101,109,95,77,101,109,83,116,97,116,101,95,84,121,112,101,115,46,104,0
000008c9 2e2e2f2e 
000008cd 7773622f 
000008d1 6d65642f 
000008d5 6d65442f 
000008d9 6d654d5f 
000008dd 74617453 
000008e1 79545f65 
000008e5 2e736570 
000008e9 0068 
000008eb 000000     1876 	.data.b	0,0,0
000008ee 2e2f2e2e   1877 	.data.b	46,46,47,46,46,47,46,46,47,98,115,119,47,100,101,109,47,68,101,109,95,77,101,109,111,114,121,95,84,121,112,101,115,46,104,0
000008f2 2e2e2f2e 

                                                                      Page 40
                                                              C:\Users\Fengyuan\AppData\Local\Temp\gh_0000p9o1.s
000008f6 7773622f 
000008fa 6d65642f 
000008fe 6d65442f 
00000902 6d654d5f 
00000906 5f79726f 
0000090a 65707954 
0000090e 00682e73 
00000912 000000     1878 	.data.b	0,0,0
00000915 2e2f2e2e   1879 	.data.b	46,46,47,46,46,47,46,46,47,98,115,119,47,100,101,109,47,68,101,109,95,74,49,57,51,57,68,99,109,65,80,73,95,84,121,112,101,115,46,104,0
00000919 2e2e2f2e 
0000091d 7773622f 
00000921 6d65642f 
00000925 6d65442f 
00000929 39314a5f 
0000092d 63443933 
00000931 4950416d 
00000935 7079545f 
00000939 682e7365 
0000093d 00 
0000093e 000000     1880 	.data.b	0,0,0
00000941 2e2f2e2e   1881 	.data.b	46,46,47,46,46,47,46,46,47,98,115,119,47,100,101,109,47,68,101,109,95,70,114,101,101,122,101,70,114,97,109,101,73,116,101,114,97,116,111,114,95,84,121,112,101,115,46,104,0
00000945 2e2e2f2e 
00000949 7773622f 
0000094d 6d65642f 
00000951 6d65442f 
00000955 6572465f 
00000959 46657a65 
0000095d 656d6172 
00000961 72657449 
00000965 726f7461 
00000969 7079545f 
0000096d 682e7365 
00000971 00 
00000972 000000     1882 	.data.b	0,0,0
00000975 2e2f2e2e   1883 	.data.b	46,46,47,46,46,47,46,46,47,98,115,119,47,100,101,109,47,68,101,109,95,83,110,97,112,115,104,111,116,69,110,116,114,121,95,84,121,112,101,115,46,104,0
00000979 2e2e2f2e 
0000097d 7773622f 
00000981 6d65642f 
00000985 6d65442f 
00000989 616e535f 
0000098d 6f687370 
00000991 746e4574 
00000995 545f7972 
00000999 73657079 
0000099d 00682e 
000009a0 000000     1884 	.data.b	0,0,0
000009a3 2e2f2e2e   1885 	.data.b	46,46,47,46,46,47,46,46,47,98,115,119,47,100,101,109,47,68,101,109,95,77,101,109,111,114,121,69,110,116,114,121,95,70,119,100,46,104,0
000009a7 2e2e2f2e 
000009ab 7773622f 
000009af 6d65642f 
000009b3 6d65442f 
000009b7 6d654d5f 
000009bb 4579726f 
000009bf 7972746e 
000009c3 6477465f 
000009c7 00682e 
000009ca 000000     1886 	.data.b	0,0,0
000009cd 2e2f2e2e   1887 	.data.b	46,46,47,46,46,47,46,46,47,98,115,119,47,100,101,109,47,68,101,109,95,67,108,101,97,114,68,84,67,95,84,121,112,101,115,46,104,0
000009d1 2e2e2f2e 
000009d5 7773622f 
000009d9 6d65642f 

                                                                      Page 41
                                                              C:\Users\Fengyuan\AppData\Local\Temp\gh_0000p9o1.s
000009dd 6d65442f 
000009e1 656c435f 
000009e5 54447261 
000009e9 79545f43 
000009ed 2e736570 
000009f1 0068 
000009f3 000000     1888 	.data.b	0,0,0
000009f6 2e2f2e2e   1889 	.data.b	46,46,47,46,46,47,46,46,47,98,115,119,47,100,101,109,47,68,101,109,95,69,118,101,110,116,95,84,121,112,101,115,46,104,0
000009fa 2e2e2f2e 
000009fe 7773622f 
00000a02 6d65642f 
00000a06 6d65442f 
00000a0a 6576455f 
00000a0e 545f746e 
00000a12 73657079 
00000a16 00682e 
00000a19 000000     1890 	.data.b	0,0,0
00000a1c 2e2f2e2e   1891 	.data.b	46,46,47,46,46,47,46,46,47,98,115,119,47,100,101,109,47,68,101,109,95,69,118,101,110,116,73,110,116,101,114,110,97,108,83,116,97,116,117,115,95,84,121,112,101,115,46,104,0
00000a20 2e2e2f2e 
00000a24 7773622f 
00000a28 6d65642f 
00000a2c 6d65442f 
00000a30 6576455f 
00000a34 6e49746e 
00000a38 6e726574 
00000a3c 74536c61 
00000a40 73757461 
00000a44 7079545f 
00000a48 682e7365 
00000a4c 00 
00000a4d 000000     1892 	.data.b	0,0,0
00000a50 2e2f2e2e   1893 	.data.b	46,46,47,46,46,47,46,46,47,98,115,119,47,100,101,109,47,68,101,109,95,85,68,83,83,116,97,116,117,115,95,84,121,112,101,115,46,104,0
00000a54 2e2e2f2e 
00000a58 7773622f 
00000a5c 6d65642f 
00000a60 6d65442f 
00000a64 5344555f 
00000a68 74617453 
00000a6c 545f7375 
00000a70 73657079 
00000a74 00682e 
00000a77 000000     1894 	.data.b	0,0,0
00000a7a 2e2f2e2e   1895 	.data.b	46,46,47,46,46,47,46,46,47,98,115,119,47,100,101,109,47,68,101,109,95,68,84,67,82,101,97,100,111,117,116,66,117,102,102,101,114,95,84,121,112,101,115,46,104,0
00000a7e 2e2e2f2e 
00000a82 7773622f 
00000a86 6d65642f 
00000a8a 6d65442f 
00000a8e 4354445f 
00000a92 64616552 
00000a96 4274756f 
00000a9a 65666675 
00000a9e 79545f72 
00000aa2 2e736570 
00000aa6 0068 
00000aa8 000000     1896 	.data.b	0,0,0
00000aab 2e2f2e2e   1897 	.data.b	46,46,47,46,46,47,46,46,47,98,115,119,47,100,101,109,47,68,101,109,95,69,120,116,101,110,100,101,100,69,110,116,114,121,95,84,121,112,101,115,46,104,0
00000aaf 2e2e2f2e 
00000ab3 7773622f 
00000ab7 6d65642f 
00000abb 6d65442f 
00000abf 7478455f 

                                                                      Page 42
                                                              C:\Users\Fengyuan\AppData\Local\Temp\gh_0000p9o1.s
00000ac3 65646e65 
00000ac7 746e4564 
00000acb 545f7972 
00000acf 73657079 
00000ad3 00682e 
00000ad6 000000     1898 	.data.b	0,0,0
00000ad9 2e2f2e2e   1899 	.data.b	46,46,47,46,46,47,46,46,47,98,115,119,47,100,101,109,47,68,101,109,95,77,101,109,111,114,121,69,110,116,114,121,95,84,121,112,101,115,46,104,0
00000add 2e2e2f2e 
00000ae1 7773622f 
00000ae5 6d65642f 
00000ae9 6d65442f 
00000aed 6d654d5f 
00000af1 4579726f 
00000af5 7972746e 
00000af9 7079545f 
00000afd 682e7365 
00000b01 00 
00000b02 000000     1900 	.data.b	0,0,0
00000b05 646e6567   1901 	.data.b	103,101,110,100,97,116,97,92,68,101,109,95,80,66,99,102,103,46,104,0
00000b09 5c617461 
00000b0d 5f6d6544 
00000b11 66634250 
00000b15 00682e67 
00000b19 000000     1902 	.data.b	0,0,0
00000b1c 2e2f2e2e   1903 	.data.b	46,46,47,46,46,47,46,46,47,98,115,119,47,100,101,109,47,68,101,109,95,67,102,103,95,77,97,99,114,111,115,46,104,0
00000b20 2e2e2f2e 
00000b24 7773622f 
00000b28 6d65642f 
00000b2c 6d65442f 
00000b30 6766435f 
00000b34 63614d5f 
00000b38 2e736f72 
00000b3c 0068 
00000b3e 000000     1904 	.data.b	0,0,0
00000b41 2e2f2e2e   1905 	.data.b	46,46,47,46,46,47,46,46,47,98,115,119,47,100,101,109,47,68,101,109,95,86,97,108,105,100,97,116,105,111,110,46,104,0
00000b45 2e2e2f2e 
00000b49 7773622f 
00000b4d 6d65642f 
00000b51 6d65442f 
00000b55 6c61565f 
00000b59 74616469 
00000b5d 2e6e6f69 
00000b61 0068 
00000b63 000000     1906 	.data.b	0,0,0
00000b66 2e2f2e2e   1907 	.data.b	46,46,47,46,46,47,46,46,47,98,115,119,47,100,101,109,47,68,101,109,95,65,80,73,95,73,110,116,101,114,102,97,99,101,46,104,0
00000b6a 2e2e2f2e 
00000b6e 7773622f 
00000b72 6d65642f 
00000b76 6d65442f 
00000b7a 4950415f 
00000b7e 746e495f 
00000b82 61667265 
00000b86 682e6563 
00000b8a 00 
00000b8b 000000     1908 	.data.b	0,0,0
00000b8e 2e2f2e2e   1909 	.data.b	46,46,47,46,46,47,46,46,47,98,115,119,47,100,101,109,47,68,101,109,95,65,80,73,95,84,121,112,101,115,46,104,0
00000b92 2e2e2f2e 
00000b96 7773622f 
00000b9a 6d65642f 
00000b9e 6d65442f 
00000ba2 4950415f 

                                                                      Page 43
                                                              C:\Users\Fengyuan\AppData\Local\Temp\gh_0000p9o1.s
00000ba6 7079545f 
00000baa 682e7365 
00000bae 00 
00000baf 000000     1910 	.data.b	0,0,0
00000bb2 2e2f2e2e   1911 	.data.b	46,46,47,46,46,47,46,46,47,98,115,119,47,100,101,109,47,68,101,109,95,83,97,116,101,108,108,105,116,101,95,84,121,112,101,115,46,104,0
00000bb6 2e2e2f2e 
00000bba 7773622f 
00000bbe 6d65642f 
00000bc2 6d65442f 
00000bc6 7461535f 
00000bca 696c6c65 
00000bce 545f6574 
00000bd2 73657079 
00000bd6 00682e 
00000bd9 000000     1912 	.data.b	0,0,0
00000bdc 2e2f2e2e   1913 	.data.b	46,46,47,46,46,47,46,46,47,98,115,119,47,100,101,109,47,68,101,109,95,68,99,109,46,104,0
00000be0 2e2e2f2e 
00000be4 7773622f 
00000be8 6d65642f 
00000bec 6d65442f 
00000bf0 6d63445f 
00000bf4 00682e 
00000bf7 000000     1914 	.data.b	0,0,0
00000bfa 2e2f2e2e   1915 	.data.b	46,46,47,46,46,47,46,46,47,98,115,119,47,100,101,109,47,68,101,109,95,68,99,109,65,80,73,95,73,110,116,101,114,102,97,99,101,46,104,0
00000bfe 2e2e2f2e 
00000c02 7773622f 
00000c06 6d65642f 
00000c0a 6d65442f 
00000c0e 6d63445f 
00000c12 5f495041 
00000c16 65746e49 
00000c1a 63616672 
00000c1e 00682e65 
00000c22 000000     1916 	.data.b	0,0,0
00000c25 2e2f2e2e   1917 	.data.b	46,46,47,46,46,47,46,46,47,98,115,119,47,100,101,109,47,68,101,109,95,68,99,109,65,80,73,95,84,121,112,101,115,46,104,0
00000c29 2e2e2f2e 
00000c2d 7773622f 
00000c31 6d65642f 
00000c35 6d65442f 
00000c39 6d63445f 
00000c3d 5f495041 
00000c41 65707954 
00000c45 00682e73 
00000c49 000000     1918 	.data.b	0,0,0
00000c4c 646e6567   1919 	.data.b	103,101,110,100,97,116,97,92,68,99,109,95,80,66,99,102,103,46,104,0
00000c50 5c617461 
00000c54 5f6d6344 
00000c58 66634250 
00000c5c 00682e67 
00000c60 000000     1920 	.data.b	0,0,0
00000c63 2e2f2e2e   1921 	.data.b	46,46,47,46,46,47,46,46,47,98,115,119,47,100,99,109,47,68,99,109,95,66,97,115,101,46,104,0
00000c67 2e2e2f2e 
00000c6b 7773622f 
00000c6f 6d63642f 
00000c73 6d63442f 
00000c77 7361425f 
00000c7b 00682e65 
00000c7f 000000     1922 	.data.b	0,0,0
00000c82 2e2f2e2e   1923 	.data.b	46,46,47,46,46,47,46,46,47,98,115,119,47,100,99,109,47,68,99,109,95,69,120,116,46,104,0
00000c86 2e2e2f2e 
00000c8a 7773622f 

                                                                      Page 44
                                                              C:\Users\Fengyuan\AppData\Local\Temp\gh_0000p9o1.s
00000c8e 6d63642f 
00000c92 6d63442f 
00000c96 7478455f 
00000c9a 00682e 
00000c9d 000000     1924 	.data.b	0,0,0
00000ca0 2e2f2e2e   1925 	.data.b	46,46,47,46,46,47,46,46,47,98,115,119,47,100,99,109,47,68,99,109,95,67,111,114,101,46,104,0
00000ca4 2e2e2f2e 
00000ca8 7773622f 
00000cac 6d63642f 
00000cb0 6d63442f 
00000cb4 726f435f 
00000cb8 00682e65 
00000cbc 000000     1926 	.data.b	0,0,0
00000cbf 2e2f2e2e   1927 	.data.b	46,46,47,46,46,47,46,46,47,98,115,119,47,98,115,119,109,47,66,115,119,77,95,69,99,117,77,46,104,0
00000cc3 2e2e2f2e 
00000cc7 7773622f 
00000ccb 7773622f 
00000ccf 73422f6d 
00000cd3 455f4d77 
00000cd7 2e4d7563 
00000cdb 0068 
00000cdd 000000     1928 	.data.b	0,0,0
00000ce0 2e2f2e2e   1929 	.data.b	46,46,47,46,46,47,46,46,47,98,115,119,47,101,99,117,109,47,69,99,117,77,46,104,0
00000ce4 2e2e2f2e 
00000ce8 7773622f 
00000cec 7563652f 
00000cf0 63452f6d 
00000cf4 682e4d75 
00000cf8 00 
00000cf9 000000     1930 	.data.b	0,0,0
00000cfc 2e2f2e2e   1931 	.data.b	46,46,47,46,46,47,46,46,47,98,115,119,47,101,99,117,109,47,69,99,117,77,95,67,98,107,46,104,0
00000d00 2e2e2f2e 
00000d04 7773622f 
00000d08 7563652f 
00000d0c 63452f6d 
00000d10 435f4d75 
00000d14 682e6b62 
00000d18 00 
00000d19 000000     1932 	.data.b	0,0,0
00000d1c 646e6567   1933 	.data.b	103,101,110,100,97,116,97,92,69,99,117,77,95,71,101,110,101,114,97,116,101,100,95,84,121,112,101,115,46,104,0
00000d20 5c617461 
00000d24 4d756345 
00000d28 6e65475f 
00000d2c 74617265 
00000d30 545f6465 
00000d34 73657079 
00000d38 00682e 
00000d3b 000000     1934 	.data.b	0,0,0
00000d3e 646e6567   1935 	.data.b	103,101,110,100,97,116,97,47,99,111,109,112,111,110,101,110,116,115,47,82,116,101,95,69,99,117,77,95,84,121,112,101,46,104,0
00000d42 2f617461 
00000d46 706d6f63 
00000d4a 6e656e6f 
00000d4e 522f7374 
00000d52 455f6574 
00000d56 5f4d7563 
00000d5a 65707954 
00000d5e 00682e 
00000d61 000000     1936 	.data.b	0,0,0
00000d64 646e6567   1937 	.data.b	103,101,110,100,97,116,97,92,69,99,117,77,95,67,102,103,46,104,0
00000d68 5c617461 
00000d6c 4d756345 

                                                                      Page 45
                                                              C:\Users\Fengyuan\AppData\Local\Temp\gh_0000p9o1.s
00000d70 6766435f 
00000d74 00682e 
00000d77 000000     1938 	.data.b	0,0,0
00000d7a 446e6547   1939 	.data.b	71,101,110,68,97,116,97,47,66,115,119,77,95,80,114,105,118,97,116,101,95,67,102,103,46,104,0
00000d7e 2f617461 
00000d82 4d777342 
00000d86 6972505f 
00000d8a 65746176 
00000d8e 6766435f 
00000d92 00682e 
00000d95 000000     1940 	.data.b	0,0,0
00000d98 2e2f2e2e   1941 	.data.b	46,46,47,46,46,47,46,46,47,98,115,119,47,99,111,109,47,67,111,109,46,104,0
00000d9c 2e2e2f2e 
00000da0 7773622f 
00000da4 6d6f632f 
00000da8 6d6f432f 
00000dac 00682e 
00000daf 000000     1942 	.data.b	0,0,0
00000db2 646e6567   1943 	.data.b	103,101,110,100,97,116,97,92,67,111,109,95,67,102,103,46,104,0
00000db6 5c617461 
00000dba 5f6d6f43 
00000dbe 2e676643 
00000dc2 0068 
00000dc4 000000     1944 	.data.b	0,0,0
00000dc7 646e6567   1945 	.data.b	103,101,110,100,97,116,97,92,67,111,109,95,84,121,112,101,115,46,104,0
00000dcb 5c617461 
00000dcf 5f6d6f43 
00000dd3 65707954 
00000dd7 00682e73 
00000ddb 000000     1946 	.data.b	0,0,0
00000dde 646e6567   1947 	.data.b	103,101,110,100,97,116,97,92,67,111,109,95,80,66,99,102,103,46,104,0
00000de2 5c617461 
00000de6 5f6d6f43 
00000dea 66634250 
00000dee 00682e67 
00000df2 000000     1948 	.data.b	0,0,0
00000df5 646e6567   1949 	.data.b	103,101,110,100,97,116,97,92,67,111,109,95,67,98,107,46,104,0
00000df9 5c617461 
00000dfd 5f6d6f43 
00000e01 2e6b6243 
00000e05 0068 
00000e07 000000     1950 	.data.b	0,0,0
00000e0a 646e6567   1951 	.data.b	103,101,110,100,97,116,97,92,67,111,109,95,67,111,116,46,104,0
00000e0e 5c617461 
00000e12 5f6d6f43 
00000e16 2e746f43 
00000e1a 0068 
00000e1c 000000     1952 	.data.b	0,0,0
00000e1f 646e6567   1953 	.data.b	103,101,110,100,97,116,97,92,80,100,117,82,95,67,102,103,46,104,0
00000e23 5c617461 
00000e27 52756450 
00000e2b 6766435f 
00000e2f 00682e 
00000e32 000000     1954 	.data.b	0,0,0
00000e35 646e6567   1955 	.data.b	103,101,110,100,97,116,97,92,80,100,117,82,95,84,121,112,101,115,46,104,0
00000e39 5c617461 
00000e3d 52756450 
00000e41 7079545f 
00000e45 682e7365 
00000e49 00 
00000e4a 000000     1956 	.data.b	0,0,0

                                                                      Page 46
                                                              C:\Users\Fengyuan\AppData\Local\Temp\gh_0000p9o1.s
00000e4d 2e2f2e2e   1957 	.data.b	46,46,47,46,46,47,46,46,47,98,115,119,47,100,101,116,47,68,101,116,46,104,0
00000e51 2e2e2f2e 
00000e55 7773622f 
00000e59 7465642f 
00000e5d 7465442f 
00000e61 00682e 
00000e64 000000     1958 	.data.b	0,0,0
00000e67 646e6567   1959 	.data.b	103,101,110,100,97,116,97,92,68,101,116,95,67,102,103,46,104,0
00000e6b 5c617461 
00000e6f 5f746544 
00000e73 2e676643 
00000e77 0068 
00000e79 000000     1960 	.data.b	0,0,0
00000e7c 2e2f2e2e   1961 	.data.b	46,46,47,46,46,47,46,46,47,98,115,119,47,118,115,116,100,108,105,98,47,118,115,116,100,108,105,98,46,104,0
00000e80 2e2e2f2e 
00000e84 7773622f 
00000e88 7473762f 
00000e8c 62696c64 
00000e90 7473762f 
00000e94 62696c64 
00000e98 00682e 
00000e9b 000000     1962 	.data.b	0,0,0
00000e9e 6c636e69   1963 	.data.b	105,110,99,108,117,100,101,92,86,83,116,100,76,105,98,95,67,102,103,46,104,0
00000ea2 5c656475 
00000ea6 64745356 
00000eaa 5f62694c 
00000eae 2e676643 
00000eb2 0068 
00000eb4 000000     1964 	.data.b	0,0,0
00000eb7 646e6567   1965 	.data.b	103,101,110,100,97,116,97,92,80,100,117,82,95,67,111,109,46,104,0
00000ebb 5c617461 
00000ebf 52756450 
00000ec3 6d6f435f 
00000ec7 00682e 
00000eca 000000     1966 	.data.b	0,0,0
00000ecd 646e6567   1967 	.data.b	103,101,110,100,97,116,97,47,99,111,109,112,111,110,101,110,116,115,47,82,116,101,95,66,115,119,77,46,104,0
00000ed1 2f617461 
00000ed5 706d6f63 
00000ed9 6e656e6f 
00000edd 522f7374 
00000ee1 425f6574 
00000ee5 2e4d7773 
00000ee9 0068 
00000eeb 000000     1968 	.data.b	0,0,0
00000eee 646e6567   1969 	.data.b	103,101,110,100,97,116,97,47,99,111,109,112,111,110,101,110,116,115,47,82,116,101,95,66,115,119,77,95,84,121,112,101,46,104,0
00000ef2 2f617461 
00000ef6 706d6f63 
00000efa 6e656e6f 
00000efe 522f7374 
00000f02 425f6574 
00000f06 5f4d7773 
00000f0a 65707954 
00000f0e 00682e 
00000f11 000000     1970 	.data.b	0,0,0
00000f14 646e6567   1971 	.data.b	103,101,110,100,97,116,97,47,99,111,109,112,111,110,101,110,116,115,47,66,115,119,77,95,77,101,109,77,97,112,46,104,0
00000f18 2f617461 
00000f1c 706d6f63 
00000f20 6e656e6f 
00000f24 422f7374 
00000f28 5f4d7773 
00000f2c 4d6d654d 

                                                                      Page 47
                                                              C:\Users\Fengyuan\AppData\Local\Temp\gh_0000p9o1.s
00000f30 682e7061 
00000f34 00 
00000f35 000000     1972 	.data.b	0,0,0
00000f38 2e2f2e2e   1973 	.data.b	46,46,47,46,46,47,46,46,47,98,115,119,47,99,97,110,47,67,97,110,46,104,0
00000f3c 2e2e2f2e 
00000f40 7773622f 
00000f44 6e61632f 
00000f48 6e61432f 
00000f4c 00682e 
00000f4f 000000     1974 	.data.b	0,0,0
00000f52 646e6567   1975 	.data.b	103,101,110,100,97,116,97,92,67,97,110,95,67,102,103,46,104,0
00000f56 5c617461 
00000f5a 5f6e6143 
00000f5e 2e676643 
00000f62 0068 
00000f64 000000     1976 	.data.b	0,0,0
00000f67 2e2f2e2e   1977 	.data.b	46,46,47,46,46,47,46,46,47,98,115,119,47,95,99,111,109,109,111,110,47,67,97,110,95,71,101,110,101,114,97,108,84,121,112,101,115,46,104,0
00000f6b 2e2e2f2e 
00000f6f 7773622f 
00000f73 6f635f2f 
00000f77 6e6f6d6d 
00000f7b 6e61432f 
00000f7f 6e65475f 
00000f83 6c617265 
00000f87 65707954 
00000f8b 00682e73 
00000f8f 000000     1978 	.data.b	0,0,0
00000f92 646e6567   1979 	.data.b	103,101,110,100,97,116,97,92,67,97,110,95,68,114,118,71,101,110,101,114,97,108,84,121,112,101,115,46,104,0
00000f96 5c617461 
00000f9a 5f6e6143 
00000f9e 47767244 
00000fa2 72656e65 
00000fa6 79546c61 
00000faa 2e736570 
00000fae 0068 
00000fb0 000000     1980 	.data.b	0,0,0
00000fb3 2e2f2e2e   1981 	.data.b	46,46,47,46,46,47,46,46,47,98,115,119,47,99,97,110,105,102,47,67,97,110,73,102,95,71,101,110,101,114,97,108,84,121,112,101,115,46,104,0
00000fb7 2e2e2f2e 
00000fbb 7773622f 
00000fbf 6e61632f 
00000fc3 432f6669 
00000fc7 66496e61 
00000fcb 6e65475f 
00000fcf 6c617265 
00000fd3 65707954 
00000fd7 00682e73 
00000fdb 000000     1982 	.data.b	0,0,0
00000fde 2e2f2e2e   1983 	.data.b	46,46,47,46,46,47,46,46,47,98,115,119,47,99,97,110,105,102,47,67,97,110,73,102,46,104,0
00000fe2 2e2e2f2e 
00000fe6 7773622f 
00000fea 6e61632f 
00000fee 432f6669 
00000ff2 66496e61 
00000ff6 00682e 
00000ff9 000000     1984 	.data.b	0,0,0
00000ffc 646e6567   1985 	.data.b	103,101,110,100,97,116,97,92,67,97,110,73,102,95,67,102,103,46,104,0
00001000 5c617461 
00001004 496e6143 
00001008 66435f66 
0000100c 00682e67 
00001010 000000     1986 	.data.b	0,0,0

                                                                      Page 48
                                                              C:\Users\Fengyuan\AppData\Local\Temp\gh_0000p9o1.s
00001013 2e2f2e2e   1987 	.data.b	46,46,47,46,46,47,46,46,47,98,115,119,47,99,97,110,105,102,47,67,97,110,73,102,95,84,121,112,101,115,46,104,0
00001017 2e2e2f2e 
0000101b 7773622f 
0000101f 6e61632f 
00001023 432f6669 
00001027 66496e61 
0000102b 7079545f 
0000102f 682e7365 
00001033 00 
00001034 000000     1988 	.data.b	0,0,0
00001037 2e2f2e2e   1989 	.data.b	46,46,47,46,46,47,46,46,47,98,115,119,47,112,100,117,114,47,80,100,117,82,46,104,0
0000103b 2e2e2f2e 
0000103f 7773622f 
00001043 7564702f 
00001047 64502f72 
0000104b 682e5275 
0000104f 00 
00001050 000000     1990 	.data.b	0,0,0
00001053 646e6567   1991 	.data.b	103,101,110,100,97,116,97,92,80,100,117,82,95,76,99,102,103,46,104,0
00001057 5c617461 
0000105b 52756450 
0000105f 66634c5f 
00001063 00682e67 
00001067 000000     1992 	.data.b	0,0,0
0000106a 646e6567   1993 	.data.b	103,101,110,100,97,116,97,92,80,100,117,82,95,80,66,99,102,103,46,104,0
0000106e 5c617461 
00001072 52756450 
00001076 6342505f 
0000107a 682e6766 
0000107e 00 
0000107f 000000     1994 	.data.b	0,0,0
00001082 2e2f2e2e   1995 	.data.b	46,46,47,46,46,47,46,46,47,98,115,119,47,99,97,110,116,112,47,67,97,110,84,112,46,104,0
00001086 2e2e2f2e 
0000108a 7773622f 
0000108e 6e61632f 
00001092 432f7074 
00001096 70546e61 
0000109a 00682e 
0000109d 000000     1996 	.data.b	0,0,0
000010a0 2e2f2e2e   1997 	.data.b	46,46,47,46,46,47,46,46,47,98,115,119,47,99,97,110,116,112,47,67,97,110,84,112,95,84,121,112,101,115,46,104,0
000010a4 2e2e2f2e 
000010a8 7773622f 
000010ac 6e61632f 
000010b0 432f7074 
000010b4 70546e61 
000010b8 7079545f 
000010bc 682e7365 
000010c0 00 
000010c1 000000     1998 	.data.b	0,0,0
000010c4 646e6567   1999 	.data.b	103,101,110,100,97,116,97,92,67,97,110,84,112,95,67,102,103,46,104,0
000010c8 5c617461 
000010cc 546e6143 
000010d0 66435f70 
000010d4 00682e67 
000010d8 000000     2000 	.data.b	0,0,0
000010db 646e6567   2001 	.data.b	103,101,110,100,97,116,97,92,67,97,110,84,112,95,76,99,102,103,46,104,0
000010df 5c617461 
000010e3 546e6143 
000010e7 634c5f70 
000010eb 682e6766 
000010ef 00 

                                                                      Page 49
                                                              C:\Users\Fengyuan\AppData\Local\Temp\gh_0000p9o1.s
000010f0 000000     2002 	.data.b	0,0,0
000010f3 646e6567   2003 	.data.b	103,101,110,100,97,116,97,92,67,97,110,84,112,95,80,66,99,102,103,46,104,0
000010f7 5c617461 
000010fb 546e6143 
000010ff 42505f70 
00001103 2e676663 
00001107 0068 
00001109 000000     2004 	.data.b	0,0,0
0000110c 2e2f2e2e   2005 	.data.b	46,46,47,46,46,47,46,46,47,98,115,119,47,99,97,110,115,109,47,67,97,110,83,77,95,69,99,117,77,46,104,0
00001110 2e2e2f2e 
00001114 7773622f 
00001118 6e61632f 
0000111c 432f6d73 
00001120 4d536e61 
00001124 7563455f 
00001128 00682e4d 
0000112c 000000     2006 	.data.b	0,0,0
0000112f 2e2f2e2e   2007 	.data.b	46,46,47,46,46,47,46,46,47,98,115,119,47,99,97,110,115,109,47,67,97,110,83,77,46,104,0
00001133 2e2e2f2e 
00001137 7773622f 
0000113b 6e61632f 
0000113f 432f6d73 
00001143 4d536e61 
00001147 00682e 
0000114a 000000     2008 	.data.b	0,0,0
0000114d 646e6567   2009 	.data.b	103,101,110,100,97,116,97,92,67,97,110,83,77,95,67,102,103,46,104,0
00001151 5c617461 
00001155 536e6143 
00001159 66435f4d 
0000115d 00682e67 
00001161 000000     2010 	.data.b	0,0,0
00001164 2e2f2e2e   2011 	.data.b	46,46,47,46,46,47,46,46,47,98,115,119,47,99,97,110,115,109,47,67,97,110,83,77,95,73,110,116,46,104,0
00001168 2e2e2f2e 
0000116c 7773622f 
00001170 6e61632f 
00001174 432f6d73 
00001178 4d536e61 
0000117c 746e495f 
00001180 00682e 
00001183 000000     2012 	.data.b	0,0,0
00001186 446e6547   2013 	.data.b	71,101,110,68,97,116,97,47,82,116,101,95,77,97,105,110,46,104,0
0000118a 2f617461 
0000118e 5f657452 
00001192 6e69614d 
00001196 00682e 
00001199 000000     2014 	.data.b	0,0,0
0000119c 446e6547   2015 	.data.b	71,101,110,68,97,116,97,47,83,99,104,77,95,66,115,119,77,46,104,0
000011a0 2f617461 
000011a4 4d686353 
000011a8 7773425f 
000011ac 00682e4d 
000011b0 000000     2016 	.data.b	0,0,0
000011b3 446e6547   2017 	.data.b	71,101,110,68,97,116,97,47,83,99,104,77,95,66,115,119,77,95,84,121,112,101,46,104,0
000011b7 2f617461 
000011bb 4d686353 
000011bf 7773425f 
000011c3 79545f4d 
000011c7 682e6570 
000011cb 00 
000011cc 000000     2018 	.data.b	0,0,0
000011cf 00         2019 	.data.b	0

                                                                      Page 50
                                                              C:\Users\Fengyuan\AppData\Local\Temp\gh_0000p9o1.s
                    2020 .Ldw_lpro_end:
                    2021 	.section	.debug_macinfo
                    2022 .Ldw_macinfo_begin:
                    2023 	.section	.debug_frame
                    2024 .LDW_65bf828:
00000000 00000000*  2025 	.data.w	.LDW_unq_2-.LDW_unq_1
                    2026 .LDW_unq_1:
00000004 ffffffff   2027 	.data.b	255,255,255,255
00000008 01         2028 	.data.b	1
00000009 00         2029 	.data.b	0
0000000a 01         2030 	.data.b	1
0000000b 01         2031 	.data.b	1
0000000c 00         2032 	.data.b	0
0000000d 0c         2033 	.data.b	12
0000000e 0d         2034 	.data.b	13
0000000f 00         2035 	.data.b	0
00000010 07         2036 	.data.b	7
00000011 00         2037 	.data.b	0
00000012 07         2038 	.data.b	7
00000013 01         2039 	.data.b	1
00000014 07         2040 	.data.b	7
00000015 02         2041 	.data.b	2
00000016 07         2042 	.data.b	7
00000017 03         2043 	.data.b	3
00000018 07         2044 	.data.b	7
00000019 04         2045 	.data.b	4
0000001a 07         2046 	.data.b	7
0000001b 05         2047 	.data.b	5
0000001c 07         2048 	.data.b	7
0000001d 06         2049 	.data.b	6
0000001e 07         2050 	.data.b	7
0000001f 07         2051 	.data.b	7
00000020 07         2052 	.data.b	7
00000021 08         2053 	.data.b	8
00000022 07         2054 	.data.b	7
00000023 09         2055 	.data.b	9
00000024 07         2056 	.data.b	7
00000025 0a         2057 	.data.b	10
00000026 07         2058 	.data.b	7
00000027 0b         2059 	.data.b	11
00000028 07         2060 	.data.b	7
00000029 0c         2061 	.data.b	12
0000002a 07         2062 	.data.b	7
0000002b 0d         2063 	.data.b	13
0000002c 07         2064 	.data.b	7
0000002d 0e         2065 	.data.b	14
0000002e 07         2066 	.data.b	7
0000002f 0f         2067 	.data.b	15
00000030 07         2068 	.data.b	7
00000031 10         2069 	.data.b	16
00000032 07         2070 	.data.b	7
00000033 11         2071 	.data.b	17
00000034 07         2072 	.data.b	7
00000035 12         2073 	.data.b	18
00000036 07         2074 	.data.b	7
00000037 13         2075 	.data.b	19
00000038 07         2076 	.data.b	7
00000039 14         2077 	.data.b	20
0000003a 07         2078 	.data.b	7
0000003b 15         2079 	.data.b	21
0000003c 07         2080 	.data.b	7

                                                                      Page 51
                                                              C:\Users\Fengyuan\AppData\Local\Temp\gh_0000p9o1.s
0000003d 16         2081 	.data.b	22
0000003e 07         2082 	.data.b	7
0000003f 17         2083 	.data.b	23
00000040 07         2084 	.data.b	7
00000041 18         2085 	.data.b	24
00000042 07         2086 	.data.b	7
00000043 19         2087 	.data.b	25
00000044 07         2088 	.data.b	7
00000045 1a         2089 	.data.b	26
00000046 07         2090 	.data.b	7
00000047 1b         2091 	.data.b	27
00000048 07         2092 	.data.b	7
00000049 1c         2093 	.data.b	28
0000004a 07         2094 	.data.b	7
0000004b 1d         2095 	.data.b	29
0000004c 07         2096 	.data.b	7
0000004d 1e         2097 	.data.b	30
0000004e 07         2098 	.data.b	7
0000004f 1f         2099 	.data.b	31
00000050 07         2100 	.data.b	7
00000051 20         2101 	.data.b	32
00000052 07         2102 	.data.b	7
00000053 21         2103 	.data.b	33
00000054 07         2104 	.data.b	7
00000055 22         2105 	.data.b	34
00000056 07         2106 	.data.b	7
00000057 23         2107 	.data.b	35
00000058 07         2108 	.data.b	7
00000059 24         2109 	.data.b	36
0000005a 07         2110 	.data.b	7
0000005b 25         2111 	.data.b	37
0000005c 07         2112 	.data.b	7
0000005d 26         2113 	.data.b	38
0000005e 07         2114 	.data.b	7
0000005f 27         2115 	.data.b	39
00000060 07         2116 	.data.b	7
00000061 28         2117 	.data.b	40
00000062 07         2118 	.data.b	7
00000063 29         2119 	.data.b	41
00000064 07         2120 	.data.b	7
00000065 2a         2121 	.data.b	42
00000066 07         2122 	.data.b	7
00000067 2b         2123 	.data.b	43
00000068 07         2124 	.data.b	7
00000069 2c         2125 	.data.b	44
0000006a 07         2126 	.data.b	7
0000006b 2d         2127 	.data.b	45
0000006c 07         2128 	.data.b	7
0000006d 2e         2129 	.data.b	46
0000006e 07         2130 	.data.b	7
0000006f 2f         2131 	.data.b	47
00000070 07         2132 	.data.b	7
00000071 30         2133 	.data.b	48
00000072 07         2134 	.data.b	7
00000073 31         2135 	.data.b	49
00000074 07         2136 	.data.b	7
00000075 32         2137 	.data.b	50
00000076 07         2138 	.data.b	7
00000077 33         2139 	.data.b	51
00000078 07         2140 	.data.b	7
00000079 34         2141 	.data.b	52

                                                                      Page 52
                                                              C:\Users\Fengyuan\AppData\Local\Temp\gh_0000p9o1.s
0000007a 07         2142 	.data.b	7
0000007b 35         2143 	.data.b	53
0000007c 07         2144 	.data.b	7
0000007d 36         2145 	.data.b	54
0000007e 07         2146 	.data.b	7
0000007f 37         2147 	.data.b	55
00000080 07         2148 	.data.b	7
00000081 38         2149 	.data.b	56
00000082 07         2150 	.data.b	7
00000083 39         2151 	.data.b	57
00000084 07         2152 	.data.b	7
00000085 3a         2153 	.data.b	58
00000086 07         2154 	.data.b	7
00000087 3b         2155 	.data.b	59
00000088 07         2156 	.data.b	7
00000089 3c         2157 	.data.b	60
0000008a 07         2158 	.data.b	7
0000008b 3d         2159 	.data.b	61
0000008c 07         2160 	.data.b	7
0000008d 3e         2161 	.data.b	62
0000008e 07         2162 	.data.b	7
0000008f 3f         2163 	.data.b	63
                    2164 .LDW_unq_2:
                    2165 	.section	.debug_info
                    2166 .LDW_4a6d258:
0000008e 47         2167 	.data.b	71
0000008f 01         2168 	.data.b	1
                    2169 
                    2170 	.section	.debug_abbrev
00000017 47         2171 	.data.b	71
00000018 15         2172 	.data.b	21
00000019 01         2173 	.data.b	1
0000001a 0c27       2174 	.data.b	39,12
0000001c 0000       2175 	.data.b	0,0
                    2176 
                    2177 	.section	.debug_info
00000090 00         2178 	.data.b	0
                    2179 
                    2180 .LDW_4a6d300:
00000091 27         2181 	.data.b	39
00000092 00746e69   2182 	.data.b	105,110,116,0
00000096 05         2183 	.data.b	5
00000097 04         2184 	.data.b	4
                    2185 
                    2186 	.section	.debug_abbrev
0000001e 27         2187 	.data.b	39
0000001f 24         2188 	.data.b	36
00000020 00         2189 	.data.b	0
00000021 0803       2190 	.data.b	3,8
00000023 0b3e       2191 	.data.b	62,11
00000025 0b0b       2192 	.data.b	11,11
00000027 0000       2193 	.data.b	0,0
                    2194 
                    2195 	.section	.debug_info
                    2196 .LDW_4a6d5d8:
00000098 27         2197 	.data.b	39
00000099 69736e75   2198 	.data.b	117,110,115,105,103,110,101,100,32,99,104,97,114,0
0000009d 64656e67 
000000a1 61686320 
000000a5 0072 
000000a7 08         2199 	.data.b	8

                                                                      Page 53
                                                              C:\Users\Fengyuan\AppData\Local\Temp\gh_0000p9o1.s
000000a8 01         2200 	.data.b	1
                    2201 
                    2202 .LDW_5d40290:
000000a9 3c         2203 	.data.b	60
000000aa 00         2204 	.data.b	0
000000ab 01         2205 	.data.b	1
000000ac 00000000*  2206 	.data.w	.LDW_4a9a4c8
                    2207 
                    2208 	.section	.debug_abbrev
00000029 3c         2209 	.data.b	60
0000002a 01         2210 	.data.b	1
0000002b 01         2211 	.data.b	1
0000002c 0b09       2212 	.data.b	9,11
0000002e 0f0b       2213 	.data.b	11,15
00000030 1049       2214 	.data.b	73,16
00000032 0000       2215 	.data.b	0,0
                    2216 
                    2217 	.section	.debug_info
000000b0 34         2218 	.data.b	52
000000b1 00000000*  2219 	.data.w	.LDW_4a6d300
000000b5 04         2220 	.data.b	4
000000b6 00         2221 	.data.b	0
000000b7 00         2222 	.data.b	0
                    2223 
                    2224 	.section	.debug_abbrev
00000034 34         2225 	.data.b	52
00000035 21         2226 	.data.b	33
00000036 00         2227 	.data.b	0
00000037 1049       2228 	.data.b	73,16
00000039 0f0b       2229 	.data.b	11,15
0000003b 0d22       2230 	.data.b	34,13
0000003d 0d2f       2231 	.data.b	47,13
0000003f 0000       2232 	.data.b	0,0
                    2233 
                    2234 	.section	.debug_info
000000b8 00         2235 	.data.b	0
                    2236 
                    2237 .LDW_4a6d648:
000000b9 27         2238 	.data.b	39
000000ba 69736e75   2239 	.data.b	117,110,115,105,103,110,101,100,32,115,104,111,114,116,0
000000be 64656e67 
000000c2 6f687320 
000000c6 007472 
000000c9 07         2240 	.data.b	7
000000ca 02         2241 	.data.b	2
                    2242 
                    2243 .LDW_4a6d290:
000000cb 46         2244 	.data.b	70
000000cc 00000000*  2245 	.data.w	.LDW_5d40528
000000d0 01         2246 	.data.b	1
                    2247 
                    2248 	.section	.debug_abbrev
00000041 46         2249 	.data.b	70
00000042 15         2250 	.data.b	21
00000043 01         2251 	.data.b	1
00000044 1049       2252 	.data.b	73,16
00000046 0c27       2253 	.data.b	39,12
00000048 0000       2254 	.data.b	0,0
                    2255 
                    2256 	.section	.debug_info
                    2257 .LDW_5d3faf8:

                                                                      Page 54
                                                              C:\Users\Fengyuan\AppData\Local\Temp\gh_0000p9o1.s
000000d1 14         2258 	.data.b	20
000000d2 00000000*  2259 	.data.w	.LDW_5d40580
000000d6 00         2260 	.data.b	0
                    2261 
                    2262 	.section	.debug_abbrev
0000004a 14         2263 	.data.b	20
0000004b 05         2264 	.data.b	5
0000004c 00         2265 	.data.b	0
0000004d 1049       2266 	.data.b	73,16
0000004f 0c4b       2267 	.data.b	75,12
00000051 0000       2268 	.data.b	0,0
                    2269 
                    2270 	.section	.debug_info
000000d7 00         2271 	.data.b	0
                    2272 
                    2273 .LDW_4a6d2c8:
000000d8 47         2274 	.data.b	71
000000d9 01         2275 	.data.b	1
                    2276 
                    2277 .LDW_5d3f948:
000000da 14         2278 	.data.b	20
000000db 00000000*  2279 	.data.w	.LDW_5c641f0
000000df 00         2280 	.data.b	0
                    2281 
                    2282 .LDW_5d3fa68:
000000e0 14         2283 	.data.b	20
000000e1 00000000*  2284 	.data.w	.LDW_5c63f30
000000e5 00         2285 	.data.b	0
                    2286 
000000e6 00         2287 	.data.b	0
                    2288 
                    2289 .LDW_4a6d728:
000000e7 27         2290 	.data.b	39
000000e8 69736e75   2291 	.data.b	117,110,115,105,103,110,101,100,32,108,111,110,103,0
000000ec 64656e67 
000000f0 6e6f6c20 
000000f4 0067 
000000f6 07         2292 	.data.b	7
000000f7 04         2293 	.data.b	4
                    2294 
                    2295 .LDW_4a6d680:
000000f8 47         2296 	.data.b	71
000000f9 01         2297 	.data.b	1
                    2298 
                    2299 .LDW_5d3f768:
000000fa 14         2300 	.data.b	20
000000fb 00000000*  2301 	.data.w	.LDW_5c63f88
000000ff 00         2302 	.data.b	0
                    2303 
                    2304 .LDW_5d3fac8:
00000100 14         2305 	.data.b	20
00000101 00000000*  2306 	.data.w	.LDW_5c63bc0
00000105 00         2307 	.data.b	0
                    2308 
00000106 00         2309 	.data.b	0
                    2310 
                    2311 .LDW_4a6d488:
00000107 47         2312 	.data.b	71
00000108 01         2313 	.data.b	1
                    2314 
00000109 00         2315 	.data.b	0

                                                                      Page 55
                                                              C:\Users\Fengyuan\AppData\Local\Temp\gh_0000p9o1.s
                    2316 
                    2317 .LDW_4a6d450:
0000010a 47         2318 	.data.b	71
0000010b 01         2319 	.data.b	1
                    2320 
0000010c 00         2321 	.data.b	0
                    2322 
                    2323 .LDW_4a6d4c0:
0000010d 47         2324 	.data.b	71
0000010e 01         2325 	.data.b	1
                    2326 
0000010f 00         2327 	.data.b	0
                    2328 
                    2329 .LDW_4a6d808:
00000110 46         2330 	.data.b	70
00000111 00000000*  2331 	.data.w	.LDW_5d40528
00000115 01         2332 	.data.b	1
                    2333 
00000116 00         2334 	.data.b	0
                    2335 
                    2336 .LDW_4a6d840:
00000117 46         2337 	.data.b	70
00000118 00000000*  2338 	.data.w	.LDW_5d40528
0000011c 01         2339 	.data.b	1
                    2340 
0000011d 00         2341 	.data.b	0
                    2342 
                    2343 .LDW_4a6d878:
0000011e 46         2344 	.data.b	70
0000011f 00000000*  2345 	.data.w	.LDW_5d40528
00000123 01         2346 	.data.b	1
                    2347 
00000124 00         2348 	.data.b	0
                    2349 
                    2350 .LDW_4a8b008:
00000125 46         2351 	.data.b	70
00000126 00000000*  2352 	.data.w	.LDW_5d40528
0000012a 01         2353 	.data.b	1
                    2354 
0000012b 00         2355 	.data.b	0
                    2356 
                    2357 .LDW_4a8b120:
0000012c 46         2358 	.data.b	70
0000012d 00000000*  2359 	.data.w	.LDW_5d40528
00000131 01         2360 	.data.b	1
                    2361 
00000132 00         2362 	.data.b	0
                    2363 
                    2364 .LDW_4a8b3f8:
00000133 46         2365 	.data.b	70
00000134 00000000*  2366 	.data.w	.LDW_5d40528
00000138 01         2367 	.data.b	1
                    2368 
00000139 00         2369 	.data.b	0
                    2370 
                    2371 .LDW_4a8b0e8:
0000013a 46         2372 	.data.b	70
0000013b 00000000*  2373 	.data.w	.LDW_5d40528
0000013f 01         2374 	.data.b	1
                    2375 
00000140 00         2376 	.data.b	0

                                                                      Page 56
                                                              C:\Users\Fengyuan\AppData\Local\Temp\gh_0000p9o1.s
                    2377 
                    2378 .LDW_4a8b158:
00000141 46         2379 	.data.b	70
00000142 00000000*  2380 	.data.w	.LDW_5d40528
00000146 01         2381 	.data.b	1
                    2382 
00000147 00         2383 	.data.b	0
                    2384 
                    2385 .LDW_4a8b628:
00000148 46         2386 	.data.b	70
00000149 00000000*  2387 	.data.w	.LDW_5d40528
0000014d 01         2388 	.data.b	1
                    2389 
0000014e 00         2390 	.data.b	0
                    2391 
                    2392 .LDW_4a8b698:
0000014f 46         2393 	.data.b	70
00000150 00000000*  2394 	.data.w	.LDW_5d40528
00000154 01         2395 	.data.b	1
                    2396 
00000155 00         2397 	.data.b	0
                    2398 
                    2399 .LDW_4a8b430:
00000156 46         2400 	.data.b	70
00000157 00000000*  2401 	.data.w	.LDW_5d40528
0000015b 01         2402 	.data.b	1
                    2403 
0000015c 00         2404 	.data.b	0
                    2405 
                    2406 .LDW_4a8b040:
0000015d 46         2407 	.data.b	70
0000015e 00000000*  2408 	.data.w	.LDW_5d40528
00000162 01         2409 	.data.b	1
                    2410 
00000163 00         2411 	.data.b	0
                    2412 
                    2413 .LDW_4a8b468:
00000164 46         2414 	.data.b	70
00000165 00000000*  2415 	.data.w	.LDW_5d40528
00000169 01         2416 	.data.b	1
                    2417 
0000016a 00         2418 	.data.b	0
                    2419 
                    2420 .LDW_4a8b660:
0000016b 46         2421 	.data.b	70
0000016c 00000000*  2422 	.data.w	.LDW_5d40528
00000170 01         2423 	.data.b	1
                    2424 
00000171 00         2425 	.data.b	0
                    2426 
                    2427 .LDW_4a8b078:
00000172 46         2428 	.data.b	70
00000173 00000000*  2429 	.data.w	.LDW_5d40528
00000177 01         2430 	.data.b	1
                    2431 
00000178 00         2432 	.data.b	0
                    2433 
                    2434 .LDW_4a8b4a0:
00000179 46         2435 	.data.b	70
0000017a 00000000*  2436 	.data.w	.LDW_5d40528
0000017e 01         2437 	.data.b	1

                                                                      Page 57
                                                              C:\Users\Fengyuan\AppData\Local\Temp\gh_0000p9o1.s
                    2438 
0000017f 00         2439 	.data.b	0
                    2440 
                    2441 .LDW_4a8b6d0:
00000180 46         2442 	.data.b	70
00000181 00000000*  2443 	.data.w	.LDW_5d40528
00000185 01         2444 	.data.b	1
                    2445 
00000186 00         2446 	.data.b	0
                    2447 
                    2448 .LDW_4a8b5b8:
00000187 46         2449 	.data.b	70
00000188 00000000*  2450 	.data.w	.LDW_5d40528
0000018c 01         2451 	.data.b	1
                    2452 
0000018d 00         2453 	.data.b	0
                    2454 
                    2455 .LDW_4a8b350:
0000018e 46         2456 	.data.b	70
0000018f 00000000*  2457 	.data.w	.LDW_5d40528
00000193 01         2458 	.data.b	1
                    2459 
00000194 00         2460 	.data.b	0
                    2461 
                    2462 .LDW_4a8b2e0:
00000195 46         2463 	.data.b	70
00000196 00000000*  2464 	.data.w	.LDW_5d40580
0000019a 01         2465 	.data.b	1
                    2466 
0000019b 00         2467 	.data.b	0
                    2468 
                    2469 .LDW_4a8b4d8:
0000019c 46         2470 	.data.b	70
0000019d 00000000*  2471 	.data.w	.LDW_5d40580
000001a1 01         2472 	.data.b	1
                    2473 
000001a2 00         2474 	.data.b	0
                    2475 
                    2476 .LDW_4a8b1c8:
000001a3 46         2477 	.data.b	70
000001a4 00000000*  2478 	.data.w	.LDW_5d40580
000001a8 01         2479 	.data.b	1
                    2480 
000001a9 00         2481 	.data.b	0
                    2482 
                    2483 .LDW_4a8b510:
000001aa 46         2484 	.data.b	70
000001ab 00000000*  2485 	.data.w	.LDW_5d40580
000001af 01         2486 	.data.b	1
                    2487 
000001b0 00         2488 	.data.b	0
                    2489 
                    2490 .LDW_4a8b0b0:
000001b1 46         2491 	.data.b	70
000001b2 00000000*  2492 	.data.w	.LDW_5d40580
000001b6 01         2493 	.data.b	1
                    2494 
000001b7 00         2495 	.data.b	0
                    2496 
                    2497 .LDW_4a8b190:
000001b8 46         2498 	.data.b	70

                                                                      Page 58
                                                              C:\Users\Fengyuan\AppData\Local\Temp\gh_0000p9o1.s
000001b9 00000000*  2499 	.data.w	.LDW_5d40580
000001bd 01         2500 	.data.b	1
                    2501 
000001be 00         2502 	.data.b	0
                    2503 
                    2504 .LDW_4a8b318:
000001bf 46         2505 	.data.b	70
000001c0 00000000*  2506 	.data.w	.LDW_5d40580
000001c4 01         2507 	.data.b	1
                    2508 
000001c5 00         2509 	.data.b	0
                    2510 
                    2511 .LDW_4a8b200:
000001c6 46         2512 	.data.b	70
000001c7 00000000*  2513 	.data.w	.LDW_5d40580
000001cb 01         2514 	.data.b	1
                    2515 
000001cc 00         2516 	.data.b	0
                    2517 
                    2518 .LDW_4a8b548:
000001cd 46         2519 	.data.b	70
000001ce 00000000*  2520 	.data.w	.LDW_5d40580
000001d2 01         2521 	.data.b	1
                    2522 
000001d3 00         2523 	.data.b	0
                    2524 
                    2525 .LDW_4a8b388:
000001d4 46         2526 	.data.b	70
000001d5 00000000*  2527 	.data.w	.LDW_5d40580
000001d9 01         2528 	.data.b	1
                    2529 
000001da 00         2530 	.data.b	0
                    2531 
                    2532 .LDW_4a8b3c0:
000001db 46         2533 	.data.b	70
000001dc 00000000*  2534 	.data.w	.LDW_5d40580
000001e0 01         2535 	.data.b	1
                    2536 
000001e1 00         2537 	.data.b	0
                    2538 
                    2539 .LDW_4a8b238:
000001e2 46         2540 	.data.b	70
000001e3 00000000*  2541 	.data.w	.LDW_5d40580
000001e7 01         2542 	.data.b	1
                    2543 
000001e8 00         2544 	.data.b	0
                    2545 
                    2546 .LDW_4a8b580:
000001e9 46         2547 	.data.b	70
000001ea 00000000*  2548 	.data.w	.LDW_5d40580
000001ee 01         2549 	.data.b	1
                    2550 
000001ef 00         2551 	.data.b	0
                    2552 
                    2553 .LDW_4a8b2a8:
000001f0 46         2554 	.data.b	70
000001f1 00000000*  2555 	.data.w	.LDW_5d40580
000001f5 01         2556 	.data.b	1
                    2557 
000001f6 00         2558 	.data.b	0
                    2559 

                                                                      Page 59
                                                              C:\Users\Fengyuan\AppData\Local\Temp\gh_0000p9o1.s
                    2560 .LDW_4a8b5f0:
000001f7 46         2561 	.data.b	70
000001f8 00000000*  2562 	.data.w	.LDW_5d40580
000001fc 01         2563 	.data.b	1
                    2564 
000001fd 00         2565 	.data.b	0
                    2566 
                    2567 .LDW_5e1eaa8:
000001fe 31         2568 	.data.b	49
000001ff 00000000*  2569 	.data.w	.LDW_4a9a4c8
                    2570 
                    2571 	.section	.debug_abbrev
00000053 31         2572 	.data.b	49
00000054 0f         2573 	.data.b	15
00000055 00         2574 	.data.b	0
00000056 1049       2575 	.data.b	73,16
00000058 0000       2576 	.data.b	0,0
                    2577 
                    2578 	.section	.debug_info
                    2579 .LDW_5e1ea00:
00000203 27         2580 	.data.b	39
00000204 69736e75   2581 	.data.b	117,110,115,105,103,110,101,100,32,105,110,116,0
00000208 64656e67 
0000020c 746e6920 
00000210 00 
00000211 07         2582 	.data.b	7
00000212 04         2583 	.data.b	4
                    2584 
                    2585 .LDW_670cb38:
00000213 2b         2586 	.data.b	43
00000214 00000000*  2587 	.data.w	.LDW_670c2a0
                    2588 
                    2589 	.section	.debug_abbrev
0000005a 2b         2590 	.data.b	43
0000005b 26         2591 	.data.b	38
0000005c 00         2592 	.data.b	0
0000005d 1049       2593 	.data.b	73,16
0000005f 0000       2594 	.data.b	0,0
                    2595 
                    2596 	.section	.debug_info
                    2597 .LDW_670dc00:
00000218 31         2598 	.data.b	49
00000219 00000000*  2599 	.data.w	.LDW_670cb38
                    2600 
                    2601 .LDW_670d880:
0000021d 47         2602 	.data.b	71
0000021e 01         2603 	.data.b	1
                    2604 
0000021f 00         2605 	.data.b	0
                    2606 
                    2607 .LDW_670d538:
00000220 31         2608 	.data.b	49
00000221 00000000*  2609 	.data.w	.LDW_670d880
                    2610 
                    2611 .LDW_670d8b8:
00000225 46         2612 	.data.b	70
00000226 00000000*  2613 	.data.w	.LDW_5d40580
0000022a 01         2614 	.data.b	1
                    2615 
0000022b 00         2616 	.data.b	0
                    2617 

                                                                      Page 60
                                                              C:\Users\Fengyuan\AppData\Local\Temp\gh_0000p9o1.s
                    2618 .LDW_670d618:
0000022c 31         2619 	.data.b	49
0000022d 00000000*  2620 	.data.w	.LDW_670d8b8
                    2621 
                    2622 .LDW_670d5e0:
00000231 46         2623 	.data.b	70
00000232 00000000*  2624 	.data.w	.LDW_5d40528
00000236 01         2625 	.data.b	1
                    2626 
00000237 00         2627 	.data.b	0
                    2628 
                    2629 .LDW_670d688:
00000238 31         2630 	.data.b	49
00000239 00000000*  2631 	.data.w	.LDW_670d5e0
                    2632 
                    2633 .LDW_6704d08:
0000023d 3c         2634 	.data.b	60
0000023e 00         2635 	.data.b	0
0000023f 01         2636 	.data.b	1
00000240 00000000*  2637 	.data.w	.LDW_670a300
                    2638 
00000244 34         2639 	.data.b	52
00000245 00000000*  2640 	.data.w	.LDW_4a6d300
00000249 04         2641 	.data.b	4
0000024a 00         2642 	.data.b	0
0000024b 00         2643 	.data.b	0
                    2644 
0000024c 00         2645 	.data.b	0
                    2646 
                    2647 .LDW_67048c8:
0000024d 3c         2648 	.data.b	60
0000024e 00         2649 	.data.b	0
0000024f 01         2650 	.data.b	1
00000250 00000000*  2651 	.data.w	.LDW_670a300
                    2652 
00000254 34         2653 	.data.b	52
00000255 00000000*  2654 	.data.w	.LDW_4a6d300
00000259 04         2655 	.data.b	4
0000025a 00         2656 	.data.b	0
0000025b 00         2657 	.data.b	0
                    2658 
0000025c 00         2659 	.data.b	0
                    2660 
                    2661 .LDW_6704b70:
0000025d 3c         2662 	.data.b	60
0000025e 00         2663 	.data.b	0
0000025f 01         2664 	.data.b	1
00000260 00000000*  2665 	.data.w	.LDW_670a300
                    2666 
00000264 34         2667 	.data.b	52
00000265 00000000*  2668 	.data.w	.LDW_4a6d300
00000269 04         2669 	.data.b	4
0000026a 00         2670 	.data.b	0
0000026b 00         2671 	.data.b	0
                    2672 
0000026c 00         2673 	.data.b	0
                    2674 
                    2675 .LDW_6704d90:
0000026d 3c         2676 	.data.b	60
0000026e 00         2677 	.data.b	0
0000026f 01         2678 	.data.b	1

                                                                      Page 61
                                                              C:\Users\Fengyuan\AppData\Local\Temp\gh_0000p9o1.s
00000270 00000000*  2679 	.data.w	.LDW_670a300
                    2680 
00000274 34         2681 	.data.b	52
00000275 00000000*  2682 	.data.w	.LDW_4a6d300
00000279 04         2683 	.data.b	4
0000027a 00         2684 	.data.b	0
0000027b 00         2685 	.data.b	0
                    2686 
0000027c 00         2687 	.data.b	0
                    2688 
                    2689 .LDW_6704620:
0000027d 3c         2690 	.data.b	60
0000027e 00         2691 	.data.b	0
0000027f 01         2692 	.data.b	1
00000280 00000000*  2693 	.data.w	.LDW_670a300
                    2694 
00000284 34         2695 	.data.b	52
00000285 00000000*  2696 	.data.w	.LDW_4a6d300
00000289 04         2697 	.data.b	4
0000028a 00         2698 	.data.b	0
0000028b 00         2699 	.data.b	0
                    2700 
0000028c 00         2701 	.data.b	0
                    2702 
                    2703 .LDW_6704e18:
0000028d 3c         2704 	.data.b	60
0000028e 00         2705 	.data.b	0
0000028f 01         2706 	.data.b	1
00000290 00000000*  2707 	.data.w	.LDW_670a300
                    2708 
00000294 34         2709 	.data.b	52
00000295 00000000*  2710 	.data.w	.LDW_4a6d300
00000299 04         2711 	.data.b	4
0000029a 00         2712 	.data.b	0
0000029b 00         2713 	.data.b	0
                    2714 
0000029c 00         2715 	.data.b	0
                    2716 
                    2717 .LDW_6704c80:
0000029d 3c         2718 	.data.b	60
0000029e 00         2719 	.data.b	0
0000029f 01         2720 	.data.b	1
000002a0 00000000*  2721 	.data.w	.LDW_670a300
                    2722 
000002a4 34         2723 	.data.b	52
000002a5 00000000*  2724 	.data.w	.LDW_4a6d300
000002a9 04         2725 	.data.b	4
000002aa 00         2726 	.data.b	0
000002ab 00         2727 	.data.b	0
                    2728 
000002ac 00         2729 	.data.b	0
                    2730 
                    2731 .LDW_6705038:
000002ad 3c         2732 	.data.b	60
000002ae 00         2733 	.data.b	0
000002af 01         2734 	.data.b	1
000002b0 00000000*  2735 	.data.w	.LDW_670a300
                    2736 
000002b4 34         2737 	.data.b	52
000002b5 00000000*  2738 	.data.w	.LDW_4a6d300
000002b9 04         2739 	.data.b	4

                                                                      Page 62
                                                              C:\Users\Fengyuan\AppData\Local\Temp\gh_0000p9o1.s
000002ba 00         2740 	.data.b	0
000002bb 00         2741 	.data.b	0
                    2742 
000002bc 00         2743 	.data.b	0
                    2744 
                    2745 .LDW_6704730:
000002bd 3c         2746 	.data.b	60
000002be 00         2747 	.data.b	0
000002bf 01         2748 	.data.b	1
000002c0 00000000*  2749 	.data.w	.LDW_670a300
                    2750 
000002c4 34         2751 	.data.b	52
000002c5 00000000*  2752 	.data.w	.LDW_4a6d300
000002c9 04         2753 	.data.b	4
000002ca 00         2754 	.data.b	0
000002cb 00         2755 	.data.b	0
                    2756 
000002cc 00         2757 	.data.b	0
                    2758 
                    2759 .LDW_6704ea0:
000002cd 3c         2760 	.data.b	60
000002ce 00         2761 	.data.b	0
000002cf 01         2762 	.data.b	1
000002d0 00000000*  2763 	.data.w	.LDW_670a300
                    2764 
000002d4 34         2765 	.data.b	52
000002d5 00000000*  2766 	.data.w	.LDW_4a6d300
000002d9 04         2767 	.data.b	4
000002da 00         2768 	.data.b	0
000002db 00         2769 	.data.b	0
                    2770 
000002dc 00         2771 	.data.b	0
                    2772 
                    2773 .LDW_6704598:
000002dd 3c         2774 	.data.b	60
000002de 00         2775 	.data.b	0
000002df 01         2776 	.data.b	1
000002e0 00000000*  2777 	.data.w	.LDW_670a300
                    2778 
000002e4 34         2779 	.data.b	52
000002e5 00000000*  2780 	.data.w	.LDW_4a6d300
000002e9 04         2781 	.data.b	4
000002ea 00         2782 	.data.b	0
000002eb 00         2783 	.data.b	0
                    2784 
000002ec 00         2785 	.data.b	0
                    2786 
                    2787 .LDW_67050c0:
000002ed 3c         2788 	.data.b	60
000002ee 00         2789 	.data.b	0
000002ef 01         2790 	.data.b	1
000002f0 00000000*  2791 	.data.w	.LDW_670a300
                    2792 
000002f4 34         2793 	.data.b	52
000002f5 00000000*  2794 	.data.w	.LDW_4a6d300
000002f9 04         2795 	.data.b	4
000002fa 00         2796 	.data.b	0
000002fb 00         2797 	.data.b	0
                    2798 
000002fc 00         2799 	.data.b	0
                    2800 

                                                                      Page 63
                                                              C:\Users\Fengyuan\AppData\Local\Temp\gh_0000p9o1.s
                    2801 .LDW_6704f28:
000002fd 3c         2802 	.data.b	60
000002fe 00         2803 	.data.b	0
000002ff 01         2804 	.data.b	1
00000300 00000000*  2805 	.data.w	.LDW_670a300
                    2806 
00000304 34         2807 	.data.b	52
00000305 00000000*  2808 	.data.w	.LDW_4a6d300
00000309 04         2809 	.data.b	4
0000030a 00         2810 	.data.b	0
0000030b 00         2811 	.data.b	0
                    2812 
0000030c 00         2813 	.data.b	0
                    2814 
                    2815 .LDW_6704950:
0000030d 3c         2816 	.data.b	60
0000030e 00         2817 	.data.b	0
0000030f 01         2818 	.data.b	1
00000310 00000000*  2819 	.data.w	.LDW_670a300
                    2820 
00000314 34         2821 	.data.b	52
00000315 00000000*  2822 	.data.w	.LDW_4a6d300
00000319 04         2823 	.data.b	4
0000031a 00         2824 	.data.b	0
0000031b 00         2825 	.data.b	0
                    2826 
0000031c 00         2827 	.data.b	0
                    2828 
                    2829 .LDW_6705148:
0000031d 3c         2830 	.data.b	60
0000031e 00         2831 	.data.b	0
0000031f 01         2832 	.data.b	1
00000320 00000000*  2833 	.data.w	.LDW_670a300
                    2834 
00000324 34         2835 	.data.b	52
00000325 00000000*  2836 	.data.w	.LDW_4a6d300
00000329 04         2837 	.data.b	4
0000032a 00         2838 	.data.b	0
0000032b 00         2839 	.data.b	0
                    2840 
0000032c 00         2841 	.data.b	0
                    2842 
                    2843 .LDW_67052e0:
0000032d 3c         2844 	.data.b	60
0000032e 00         2845 	.data.b	0
0000032f 01         2846 	.data.b	1
00000330 00000000*  2847 	.data.w	.LDW_670a300
                    2848 
00000334 34         2849 	.data.b	52
00000335 00000000*  2850 	.data.w	.LDW_4a6d300
00000339 04         2851 	.data.b	4
0000033a 00         2852 	.data.b	0
0000033b 00         2853 	.data.b	0
                    2854 
0000033c 00         2855 	.data.b	0
                    2856 
                    2857 .LDW_6705368:
0000033d 3c         2858 	.data.b	60
0000033e 00         2859 	.data.b	0
0000033f 01         2860 	.data.b	1
00000340 00000000*  2861 	.data.w	.LDW_670a300

                                                                      Page 64
                                                              C:\Users\Fengyuan\AppData\Local\Temp\gh_0000p9o1.s
                    2862 
00000344 34         2863 	.data.b	52
00000345 00000000*  2864 	.data.w	.LDW_4a6d300
00000349 04         2865 	.data.b	4
0000034a 00         2866 	.data.b	0
0000034b 00         2867 	.data.b	0
                    2868 
0000034c 00         2869 	.data.b	0
                    2870 
                    2871 .LDW_6712870:
0000034d 3c         2872 	.data.b	60
0000034e 00         2873 	.data.b	0
0000034f 01         2874 	.data.b	1
00000350 00000000*  2875 	.data.w	.LDW_670a300
                    2876 
00000354 34         2877 	.data.b	52
00000355 00000000*  2878 	.data.w	.LDW_4a6d300
00000359 04         2879 	.data.b	4
0000035a 00         2880 	.data.b	0
0000035b 00         2881 	.data.b	0
                    2882 
0000035c 00         2883 	.data.b	0
                    2884 
                    2885 .LDW_6712760:
0000035d 3c         2886 	.data.b	60
0000035e 00         2887 	.data.b	0
0000035f 01         2888 	.data.b	1
00000360 00000000*  2889 	.data.w	.LDW_670a300
                    2890 
00000364 34         2891 	.data.b	52
00000365 00000000*  2892 	.data.w	.LDW_4a6d300
00000369 04         2893 	.data.b	4
0000036a 00         2894 	.data.b	0
0000036b 00         2895 	.data.b	0
                    2896 
0000036c 00         2897 	.data.b	0
                    2898 
                    2899 .LDW_6712210:
0000036d 3c         2900 	.data.b	60
0000036e 00         2901 	.data.b	0
0000036f 01         2902 	.data.b	1
00000370 00000000*  2903 	.data.w	.LDW_670a300
                    2904 
00000374 34         2905 	.data.b	52
00000375 00000000*  2906 	.data.w	.LDW_4a6d300
00000379 04         2907 	.data.b	4
0000037a 00         2908 	.data.b	0
0000037b 00         2909 	.data.b	0
                    2910 
0000037c 00         2911 	.data.b	0
                    2912 
                    2913 .LDW_6712430:
0000037d 3c         2914 	.data.b	60
0000037e 00         2915 	.data.b	0
0000037f 01         2916 	.data.b	1
00000380 00000000*  2917 	.data.w	.LDW_670eb68
                    2918 
00000384 34         2919 	.data.b	52
00000385 00000000*  2920 	.data.w	.LDW_4a6d300
00000389 04         2921 	.data.b	4
0000038a 00         2922 	.data.b	0

                                                                      Page 65
                                                              C:\Users\Fengyuan\AppData\Local\Temp\gh_0000p9o1.s
0000038b 00         2923 	.data.b	0
                    2924 
0000038c 00         2925 	.data.b	0
                    2926 
                    2927 .LDW_67127e8:
0000038d 3c         2928 	.data.b	60
0000038e 00         2929 	.data.b	0
0000038f 04         2930 	.data.b	4
00000390 00000000*  2931 	.data.w	.LDW_5c63bc0
                    2932 
00000394 34         2933 	.data.b	52
00000395 00000000*  2934 	.data.w	.LDW_4a6d300
00000399 04         2935 	.data.b	4
0000039a 00         2936 	.data.b	0
0000039b 00         2937 	.data.b	0
                    2938 
0000039c 00         2939 	.data.b	0
                    2940 
                    2941 .LDW_6712100:
0000039d 3c         2942 	.data.b	60
0000039e 00         2943 	.data.b	0
0000039f 14         2944 	.data.b	20
000003a0 00000000*  2945 	.data.w	.LDW_670a300
                    2946 
000003a4 34         2947 	.data.b	52
000003a5 00000000*  2948 	.data.w	.LDW_4a6d300
000003a9 04         2949 	.data.b	4
000003aa 00         2950 	.data.b	0
000003ab 13         2951 	.data.b	19
                    2952 
000003ac 00         2953 	.data.b	0
                    2954 
                    2955 .LDW_6712980:
000003ad 3c         2956 	.data.b	60
000003ae 00         2957 	.data.b	0
000003af 01         2958 	.data.b	1
000003b0 00000000*  2959 	.data.w	.LDW_670eb68
                    2960 
000003b4 34         2961 	.data.b	52
000003b5 00000000*  2962 	.data.w	.LDW_4a6d300
000003b9 04         2963 	.data.b	4
000003ba 00         2964 	.data.b	0
000003bb 00         2965 	.data.b	0
                    2966 
000003bc 00         2967 	.data.b	0
                    2968 
                    2969 .LDW_6712188:
000003bd 3c         2970 	.data.b	60
000003be 00         2971 	.data.b	0
000003bf 04         2972 	.data.b	4
000003c0 00000000*  2973 	.data.w	.LDW_5c63bc0
                    2974 
000003c4 34         2975 	.data.b	52
000003c5 00000000*  2976 	.data.w	.LDW_4a6d300
000003c9 04         2977 	.data.b	4
000003ca 00         2978 	.data.b	0
000003cb 00         2979 	.data.b	0
                    2980 
000003cc 00         2981 	.data.b	0
                    2982 
                    2983 .LDW_6721fd8:

                                                                      Page 66
                                                              C:\Users\Fengyuan\AppData\Local\Temp\gh_0000p9o1.s
000003cd 2b         2984 	.data.b	43
000003ce 00000000*  2985 	.data.w	.LDW_6721848
                    2986 
                    2987 .LDW_671d5e0:
000003d2 31         2988 	.data.b	49
000003d3 00000000*  2989 	.data.w	.LDW_6721fd8
                    2990 
                    2991 .LDW_6735b60:
000003d7 2b         2992 	.data.b	43
000003d8 00000000*  2993 	.data.w	.LDW_670ec70
                    2994 
                    2995 .LDW_673b808:
000003dc 3c         2996 	.data.b	60
000003dd 00         2997 	.data.b	0
000003de 50         2998 	.data.b	80
000003df 00000000*  2999 	.data.w	.LDW_6735b60
                    3000 
000003e3 34         3001 	.data.b	52
000003e4 00000000*  3002 	.data.w	.LDW_4a6d300
000003e8 04         3003 	.data.b	4
000003e9 00         3004 	.data.b	0
000003ea 13         3005 	.data.b	19
                    3006 
000003eb 00         3007 	.data.b	0
                    3008 
                    3009 .LDW_6735690:
000003ec 2b         3010 	.data.b	43
000003ed 00000000*  3011 	.data.w	.LDW_670f770
                    3012 
                    3013 .LDW_673b450:
000003f1 3c         3014 	.data.b	60
000003f2 00         3015 	.data.b	0
000003f3 07         3016 	.data.b	7
000003f4 00000000*  3017 	.data.w	.LDW_6735690
                    3018 
000003f8 34         3019 	.data.b	52
000003f9 00000000*  3020 	.data.w	.LDW_4a6d300
000003fd 04         3021 	.data.b	4
000003fe 00         3022 	.data.b	0
000003ff 06         3023 	.data.b	6
                    3024 
00000400 00         3025 	.data.b	0
                    3026 
                    3027 .LDW_67356e8:
00000401 2b         3028 	.data.b	43
00000402 00000000*  3029 	.data.w	.LDW_670f928
                    3030 
                    3031 .LDW_673b9a0:
00000406 3c         3032 	.data.b	60
00000407 00         3033 	.data.b	0
00000408 18         3034 	.data.b	24
00000409 00000000*  3035 	.data.w	.LDW_67356e8
                    3036 
0000040d 34         3037 	.data.b	52
0000040e 00000000*  3038 	.data.w	.LDW_4a6d300
00000412 04         3039 	.data.b	4
00000413 00         3040 	.data.b	0
00000414 02         3041 	.data.b	2
                    3042 
00000415 00         3043 	.data.b	0
                    3044 

                                                                      Page 67
                                                              C:\Users\Fengyuan\AppData\Local\Temp\gh_0000p9o1.s
                    3045 .LDW_6735848:
00000416 2b         3046 	.data.b	43
00000417 00000000*  3047 	.data.w	.LDW_670f820
                    3048 
                    3049 .LDW_673b890:
0000041b 3c         3050 	.data.b	60
0000041c 00         3051 	.data.b	0
0000041d 09         3052 	.data.b	9
0000041e 00000000*  3053 	.data.w	.LDW_6735848
                    3054 
00000422 34         3055 	.data.b	52
00000423 00000000*  3056 	.data.w	.LDW_4a6d300
00000427 04         3057 	.data.b	4
00000428 00         3058 	.data.b	0
00000429 02         3059 	.data.b	2
                    3060 
0000042a 00         3061 	.data.b	0
                    3062 
                    3063 .LDW_6735b08:
0000042b 2b         3064 	.data.b	43
0000042c 00000000*  3065 	.data.w	.LDW_670fa30
                    3066 
                    3067 .LDW_673af88:
00000430 3c         3068 	.data.b	60
00000431 00         3069 	.data.b	0
00000432 78         3070 	.data.b	120
00000433 00000000*  3071 	.data.w	.LDW_6735b08
                    3072 
00000437 34         3073 	.data.b	52
00000438 00000000*  3074 	.data.w	.LDW_4a6d300
0000043c 04         3075 	.data.b	4
0000043d 00         3076 	.data.b	0
0000043e 0e         3077 	.data.b	14
                    3078 
0000043f 00         3079 	.data.b	0
                    3080 
                    3081 .LDW_6736558:
00000440 2b         3082 	.data.b	43
00000441 00000000*  3083 	.data.w	.LDW_670a8d8
                    3084 
                    3085 .LDW_673ab48:
00000445 3c         3086 	.data.b	60
00000446 00         3087 	.data.b	0
00000447 0b         3088 	.data.b	11
00000448 00000000*  3089 	.data.w	.LDW_6736558
                    3090 
0000044c 34         3091 	.data.b	52
0000044d 00000000*  3092 	.data.w	.LDW_4a6d300
00000451 04         3093 	.data.b	4
00000452 00         3094 	.data.b	0
00000453 0a         3095 	.data.b	10
                    3096 
00000454 00         3097 	.data.b	0
                    3098 
                    3099 .LDW_6736710:
00000455 2b         3100 	.data.b	43
00000456 00000000*  3101 	.data.w	.LDW_670f7c8
                    3102 
                    3103 .LDW_673aac0:
0000045a 3c         3104 	.data.b	60
0000045b 00         3105 	.data.b	0

                                                                      Page 68
                                                              C:\Users\Fengyuan\AppData\Local\Temp\gh_0000p9o1.s
0000045c 04         3106 	.data.b	4
0000045d 00000000*  3107 	.data.w	.LDW_6736710
                    3108 
00000461 34         3109 	.data.b	52
00000462 00000000*  3110 	.data.w	.LDW_4a6d300
00000466 04         3111 	.data.b	4
00000467 00         3112 	.data.b	0
00000468 00         3113 	.data.b	0
                    3114 
00000469 00         3115 	.data.b	0
                    3116 
                    3117 .LDW_673b918:
0000046a 3c         3118 	.data.b	60
0000046b 00         3119 	.data.b	0
0000046c 01         3120 	.data.b	1
0000046d 00000000*  3121 	.data.w	.LDW_66f0d48
                    3122 
00000471 34         3123 	.data.b	52
00000472 00000000*  3124 	.data.w	.LDW_4a6d300
00000476 04         3125 	.data.b	4
00000477 00         3126 	.data.b	0
00000478 00         3127 	.data.b	0
                    3128 
00000479 00         3129 	.data.b	0
                    3130 
                    3131 .LDW_673b010:
0000047a 3c         3132 	.data.b	60
0000047b 00         3133 	.data.b	0
0000047c 01         3134 	.data.b	1
0000047d 00000000*  3135 	.data.w	.LDW_66edc80
                    3136 
00000481 34         3137 	.data.b	52
00000482 00000000*  3138 	.data.w	.LDW_4a6d300
00000486 04         3139 	.data.b	4
00000487 00         3140 	.data.b	0
00000488 00         3141 	.data.b	0
                    3142 
00000489 00         3143 	.data.b	0
                    3144 
                    3145 .LDW_673ba28:
0000048a 3c         3146 	.data.b	60
0000048b 00         3147 	.data.b	0
0000048c 01         3148 	.data.b	1
0000048d 00000000*  3149 	.data.w	.LDW_670a568
                    3150 
00000491 34         3151 	.data.b	52
00000492 00000000*  3152 	.data.w	.LDW_4a6d300
00000496 04         3153 	.data.b	4
00000497 00         3154 	.data.b	0
00000498 00         3155 	.data.b	0
                    3156 
00000499 00         3157 	.data.b	0
                    3158 
                    3159 .LDW_673a9b0:
0000049a 3c         3160 	.data.b	60
0000049b 00         3161 	.data.b	0
0000049c 06         3162 	.data.b	6
0000049d 00000000*  3163 	.data.w	.LDW_6709d80
                    3164 
000004a1 34         3165 	.data.b	52
000004a2 00000000*  3166 	.data.w	.LDW_4a6d300

                                                                      Page 69
                                                              C:\Users\Fengyuan\AppData\Local\Temp\gh_0000p9o1.s
000004a6 04         3167 	.data.b	4
000004a7 00         3168 	.data.b	0
000004a8 02         3169 	.data.b	2
                    3170 
000004a9 00         3171 	.data.b	0
                    3172 
                    3173 .LDW_673b098:
000004aa 3c         3174 	.data.b	60
000004ab 00         3175 	.data.b	0
000004ac 01         3176 	.data.b	1
000004ad 00000000*  3177 	.data.w	.LDW_670a0f0
                    3178 
000004b1 34         3179 	.data.b	52
000004b2 00000000*  3180 	.data.w	.LDW_4a6d300
000004b6 04         3181 	.data.b	4
000004b7 00         3182 	.data.b	0
000004b8 00         3183 	.data.b	0
                    3184 
000004b9 00         3185 	.data.b	0
                    3186 
                    3187 .LDW_673b1a8:
000004ba 3c         3188 	.data.b	60
000004bb 00         3189 	.data.b	0
000004bc 03         3190 	.data.b	3
000004bd 00000000*  3191 	.data.w	.LDW_670a7d0
                    3192 
000004c1 34         3193 	.data.b	52
000004c2 00000000*  3194 	.data.w	.LDW_4a6d300
000004c6 04         3195 	.data.b	4
000004c7 00         3196 	.data.b	0
000004c8 02         3197 	.data.b	2
                    3198 
000004c9 00         3199 	.data.b	0
                    3200 
                    3201 .LDW_673cd70:
000004ca 3c         3202 	.data.b	60
000004cb 00         3203 	.data.b	0
000004cc 01         3204 	.data.b	1
000004cd 00000000*  3205 	.data.w	.LDW_670a148
                    3206 
000004d1 34         3207 	.data.b	52
000004d2 00000000*  3208 	.data.w	.LDW_4a6d300
000004d6 04         3209 	.data.b	4
000004d7 00         3210 	.data.b	0
000004d8 00         3211 	.data.b	0
                    3212 
000004d9 00         3213 	.data.b	0
                    3214 
                    3215 .LDW_673cbd8:
000004da 3c         3216 	.data.b	60
000004db 00         3217 	.data.b	0
000004dc 01         3218 	.data.b	1
000004dd 00000000*  3219 	.data.w	.LDW_670aa38
                    3220 
000004e1 34         3221 	.data.b	52
000004e2 00000000*  3222 	.data.w	.LDW_4a6d300
000004e6 04         3223 	.data.b	4
000004e7 00         3224 	.data.b	0
000004e8 00         3225 	.data.b	0
                    3226 
000004e9 00         3227 	.data.b	0

                                                                      Page 70
                                                              C:\Users\Fengyuan\AppData\Local\Temp\gh_0000p9o1.s
                    3228 
                    3229 .LDW_673d700:
000004ea 3c         3230 	.data.b	60
000004eb 00         3231 	.data.b	0
000004ec 0f         3232 	.data.b	15
000004ed 00000000*  3233 	.data.w	.LDW_5c63f30
                    3234 
000004f1 34         3235 	.data.b	52
000004f2 00000000*  3236 	.data.w	.LDW_4a6d300
000004f6 04         3237 	.data.b	4
000004f7 00         3238 	.data.b	0
000004f8 0e         3239 	.data.b	14
                    3240 
000004f9 00         3241 	.data.b	0
                    3242 
                    3243 .LDW_672fe58:
000004fa 31         3244 	.data.b	49
000004fb 00000000*  3245 	.data.w	.LDW_66edc80
                    3246 
                    3247 .LDW_672fe90:
000004ff 47         3248 	.data.b	71
00000500 01         3249 	.data.b	1
                    3250 
00000501 00         3251 	.data.b	0
                    3252 
                    3253 .LDW_6730248:
00000502 47         3254 	.data.b	71
00000503 01         3255 	.data.b	1
                    3256 
                    3257 .LDW_6714dc8:
00000504 14         3258 	.data.b	20
00000505 00000000*  3259 	.data.w	.LDW_66eda70
00000509 00         3260 	.data.b	0
                    3261 
                    3262 .LDW_6715068:
0000050a 14         3263 	.data.b	20
0000050b 00000000*  3264 	.data.w	.LDW_66ed7b0
0000050f 00         3265 	.data.b	0
                    3266 
00000510 00         3267 	.data.b	0
                    3268 
                    3269 .LDW_6742958:
00000511 47         3270 	.data.b	71
00000512 01         3271 	.data.b	1
                    3272 
00000513 00         3273 	.data.b	0
                    3274 
                    3275 .LDW_6742920:
00000514 47         3276 	.data.b	71
00000515 01         3277 	.data.b	1
                    3278 
00000516 00         3279 	.data.b	0
                    3280 
                    3281 .LDW_67366b8:
00000517 2b         3282 	.data.b	43
00000518 00000000*  3283 	.data.w	.LDW_6708080
                    3284 
                    3285 .LDW_674d108:
0000051c 31         3286 	.data.b	49
0000051d 00000000*  3287 	.data.w	.LDW_67366b8
                    3288 

                                                                      Page 71
                                                              C:\Users\Fengyuan\AppData\Local\Temp\gh_0000p9o1.s
                    3289 .LDW_674d178:
00000521 47         3290 	.data.b	71
00000522 01         3291 	.data.b	1
                    3292 
                    3293 .LDW_67493b8:
00000523 14         3294 	.data.b	20
00000524 00000000*  3295 	.data.w	.LDW_674d108
00000528 00         3296 	.data.b	0
                    3297 
00000529 00         3298 	.data.b	0
                    3299 
                    3300 .LDW_674d1b0:
0000052a 47         3301 	.data.b	71
0000052b 01         3302 	.data.b	1
                    3303 
0000052c 00         3304 	.data.b	0
                    3305 
                    3306 .LDW_6755358:
0000052d 47         3307 	.data.b	71
0000052e 01         3308 	.data.b	1
                    3309 
                    3310 .LDW_6753530:
0000052f 14         3311 	.data.b	20
00000530 00000000*  3312 	.data.w	.LDW_670c140
00000534 00         3313 	.data.b	0
                    3314 
00000535 00         3315 	.data.b	0
                    3316 
                    3317 .LDW_6755668:
00000536 47         3318 	.data.b	71
00000537 01         3319 	.data.b	1
                    3320 
                    3321 .LDW_6751a60:
00000538 14         3322 	.data.b	20
00000539 00000000*  3323 	.data.w	.LDW_670cdf8
0000053d 00         3324 	.data.b	0
                    3325 
0000053e 00         3326 	.data.b	0
                    3327 
                    3328 .LDW_67557f0:
0000053f 46         3329 	.data.b	70
00000540 00000000*  3330 	.data.w	.LDW_670cdf8
00000544 01         3331 	.data.b	1
                    3332 
00000545 00         3333 	.data.b	0
                    3334 
                    3335 .LDW_6755748:
00000546 46         3336 	.data.b	70
00000547 00000000*  3337 	.data.w	.LDW_670cdf8
0000054b 01         3338 	.data.b	1
                    3339 
0000054c 00         3340 	.data.b	0
                    3341 
                    3342 .LDW_67557b8:
0000054d 46         3343 	.data.b	70
0000054e 00000000*  3344 	.data.w	.LDW_5d40528
00000552 01         3345 	.data.b	1
                    3346 
00000553 00         3347 	.data.b	0
                    3348 
                    3349 .LDW_6753b80:

                                                                      Page 72
                                                              C:\Users\Fengyuan\AppData\Local\Temp\gh_0000p9o1.s
00000554 47         3350 	.data.b	71
00000555 01         3351 	.data.b	1
                    3352 
00000556 00         3353 	.data.b	0
                    3354 
                    3355 .LDW_6753de8:
00000557 47         3356 	.data.b	71
00000558 01         3357 	.data.b	1
                    3358 
00000559 00         3359 	.data.b	0
                    3360 
                    3361 .LDW_6753f00:
0000055a 47         3362 	.data.b	71
0000055b 01         3363 	.data.b	1
                    3364 
0000055c 00         3365 	.data.b	0
                    3366 
                    3367 .LDW_6753c28:
0000055d 47         3368 	.data.b	71
0000055e 01         3369 	.data.b	1
                    3370 
0000055f 00         3371 	.data.b	0
                    3372 
                    3373 .LDW_67540c0:
00000560 47         3374 	.data.b	71
00000561 01         3375 	.data.b	1
                    3376 
00000562 00         3377 	.data.b	0
                    3378 
                    3379 .LDW_6753f38:
00000563 47         3380 	.data.b	71
00000564 01         3381 	.data.b	1
                    3382 
00000565 00         3383 	.data.b	0
                    3384 
                    3385 .LDW_6753fe0:
00000566 47         3386 	.data.b	71
00000567 01         3387 	.data.b	1
                    3388 
00000568 00         3389 	.data.b	0
                    3390 
                    3391 .LDW_6753a30:
00000569 47         3392 	.data.b	71
0000056a 01         3393 	.data.b	1
                    3394 
0000056b 00         3395 	.data.b	0
                    3396 
                    3397 .LDW_6753c60:
0000056c 47         3398 	.data.b	71
0000056d 01         3399 	.data.b	1
                    3400 
                    3401 .LDW_6751c70:
0000056e 14         3402 	.data.b	20
0000056f 00000000*  3403 	.data.w	.LDW_6709ee0
00000573 00         3404 	.data.b	0
                    3405 
                    3406 .LDW_6751f70:
00000574 14         3407 	.data.b	20
00000575 00000000*  3408 	.data.w	.LDW_6709d80
00000579 00         3409 	.data.b	0
                    3410 

                                                                      Page 73
                                                              C:\Users\Fengyuan\AppData\Local\Temp\gh_0000p9o1.s
0000057a 00         3411 	.data.b	0
                    3412 
                    3413 .LDW_6735fd8:
0000057b 2b         3414 	.data.b	43
0000057c 00000000*  3415 	.data.w	.LDW_67185e8
                    3416 
                    3417 .LDW_6753d40:
00000580 31         3418 	.data.b	49
00000581 00000000*  3419 	.data.w	.LDW_6735fd8
                    3420 
                    3421 .LDW_6753c98:
00000585 47         3422 	.data.b	71
00000586 01         3423 	.data.b	1
                    3424 
                    3425 .LDW_675af80:
00000587 14         3426 	.data.b	20
00000588 00000000*  3427 	.data.w	.LDW_6753d40
0000058c 00         3428 	.data.b	0
                    3429 
0000058d 00         3430 	.data.b	0
                    3431 
                    3432 .LDW_6754440:
0000058e 47         3433 	.data.b	71
0000058f 01         3434 	.data.b	1
                    3435 
                    3436 .LDW_675b100:
00000590 14         3437 	.data.b	20
00000591 00000000*  3438 	.data.w	.LDW_5e1eaa8
00000595 00         3439 	.data.b	0
                    3440 
                    3441 .LDW_675ae60:
00000596 14         3442 	.data.b	20
00000597 00000000*  3443 	.data.w	.LDW_66ed7b0
0000059b 00         3444 	.data.b	0
                    3445 
0000059c 00         3446 	.data.b	0
                    3447 
                    3448 .LDW_67541d8:
0000059d 47         3449 	.data.b	71
0000059e 01         3450 	.data.b	1
                    3451 
                    3452 .LDW_675aef0:
0000059f 14         3453 	.data.b	20
000005a0 00000000*  3454 	.data.w	.LDW_5e1eaa8
000005a4 00         3455 	.data.b	0
                    3456 
000005a5 00         3457 	.data.b	0
                    3458 
                    3459 .LDW_6754248:
000005a6 47         3460 	.data.b	71
000005a7 01         3461 	.data.b	1
                    3462 
                    3463 .LDW_675b1c0:
000005a8 14         3464 	.data.b	20
000005a9 00000000*  3465 	.data.w	.LDW_5e1eaa8
000005ad 00         3466 	.data.b	0
                    3467 
000005ae 00         3468 	.data.b	0
                    3469 
                    3470 .LDW_6754360:
000005af 47         3471 	.data.b	71

                                                                      Page 74
                                                              C:\Users\Fengyuan\AppData\Local\Temp\gh_0000p9o1.s
000005b0 01         3472 	.data.b	1
                    3473 
                    3474 .LDW_675ac50:
000005b1 14         3475 	.data.b	20
000005b2 00000000*  3476 	.data.w	.LDW_5e1eaa8
000005b6 00         3477 	.data.b	0
                    3478 
                    3479 .LDW_675b610:
000005b7 14         3480 	.data.b	20
000005b8 00000000*  3481 	.data.w	.LDW_6710008
000005bc 00         3482 	.data.b	0
                    3483 
                    3484 .LDW_675b7c0:
000005bd 14         3485 	.data.b	20
000005be 00000000*  3486 	.data.w	.LDW_66ed7b0
000005c2 00         3487 	.data.b	0
                    3488 
000005c3 00         3489 	.data.b	0
                    3490 
                    3491 .LDW_6754130:
000005c4 31         3492 	.data.b	49
000005c5 00000000*  3493 	.data.w	.LDW_66edd88
                    3494 
                    3495 .LDW_6754638:
000005c9 46         3496 	.data.b	70
000005ca 00000000*  3497 	.data.w	.LDW_5d40528
000005ce 01         3498 	.data.b	1
                    3499 
                    3500 .LDW_675b820:
000005cf 14         3501 	.data.b	20
000005d0 00000000*  3502 	.data.w	.LDW_6754130
000005d4 00         3503 	.data.b	0
                    3504 
000005d5 00         3505 	.data.b	0
                    3506 
                    3507 .LDW_67546a8:
000005d6 46         3508 	.data.b	70
000005d7 00000000*  3509 	.data.w	.LDW_5d40528
000005db 01         3510 	.data.b	1
                    3511 
                    3512 .LDW_675b580:
000005dc 14         3513 	.data.b	20
000005dd 00000000*  3514 	.data.w	.LDW_6754130
000005e1 00         3515 	.data.b	0
                    3516 
000005e2 00         3517 	.data.b	0
                    3518 
                    3519 .LDW_6754168:
000005e3 46         3520 	.data.b	70
000005e4 00000000*  3521 	.data.w	.LDW_5d40528
000005e8 01         3522 	.data.b	1
                    3523 
                    3524 .LDW_675b3d0:
000005e9 14         3525 	.data.b	20
000005ea 00000000*  3526 	.data.w	.LDW_6754130
000005ee 00         3527 	.data.b	0
                    3528 
000005ef 00         3529 	.data.b	0
                    3530 
                    3531 .LDW_67546e0:
000005f0 46         3532 	.data.b	70

                                                                      Page 75
                                                              C:\Users\Fengyuan\AppData\Local\Temp\gh_0000p9o1.s
000005f1 00000000*  3533 	.data.w	.LDW_5d40528
000005f5 01         3534 	.data.b	1
                    3535 
                    3536 .LDW_675b250:
000005f6 14         3537 	.data.b	20
000005f7 00000000*  3538 	.data.w	.LDW_6754130
000005fb 00         3539 	.data.b	0
                    3540 
000005fc 00         3541 	.data.b	0
                    3542 
                    3543 .LDW_6754718:
000005fd 46         3544 	.data.b	70
000005fe 00000000*  3545 	.data.w	.LDW_66edf40
00000602 01         3546 	.data.b	1
                    3547 
00000603 00         3548 	.data.b	0
                    3549 
                    3550 .LDW_6754750:
00000604 46         3551 	.data.b	70
00000605 00000000*  3552 	.data.w	.LDW_5d40528
00000609 01         3553 	.data.b	1
                    3554 
                    3555 .LDW_675b700:
0000060a 14         3556 	.data.b	20
0000060b 00000000*  3557 	.data.w	.LDW_66edf40
0000060f 00         3558 	.data.b	0
                    3559 
00000610 00         3560 	.data.b	0
                    3561 
                    3562 .LDW_6754408:
00000611 47         3563 	.data.b	71
00000612 01         3564 	.data.b	1
                    3565 
                    3566 .LDW_675b280:
00000613 14         3567 	.data.b	20
00000614 00000000*  3568 	.data.w	.LDW_6721cc0
00000618 00         3569 	.data.b	0
                    3570 
00000619 00         3571 	.data.b	0
                    3572 
                    3573 .LDW_6735e78:
0000061a 2b         3574 	.data.b	43
0000061b 00000000*  3575 	.data.w	.LDW_6727498
                    3576 
                    3577 .LDW_6754c58:
0000061f 31         3578 	.data.b	49
00000620 00000000*  3579 	.data.w	.LDW_6735e78
                    3580 
                    3581 .LDW_6754a98:
00000624 47         3582 	.data.b	71
00000625 01         3583 	.data.b	1
                    3584 
                    3585 .LDW_675b9d0:
00000626 14         3586 	.data.b	20
00000627 00000000*  3587 	.data.w	.LDW_6754c58
0000062b 00         3588 	.data.b	0
                    3589 
0000062c 00         3590 	.data.b	0
                    3591 
                    3592 .LDW_6736818:
0000062d 2b         3593 	.data.b	43

                                                                      Page 76
                                                              C:\Users\Fengyuan\AppData\Local\Temp\gh_0000p9o1.s
0000062e 00000000*  3594 	.data.w	.LDW_6729178
                    3595 
                    3596 .LDW_6754de0:
00000632 31         3597 	.data.b	49
00000633 00000000*  3598 	.data.w	.LDW_6736818
                    3599 
                    3600 .LDW_6754b40:
00000637 47         3601 	.data.b	71
00000638 01         3602 	.data.b	1
                    3603 
                    3604 .LDW_6759b70:
00000639 14         3605 	.data.b	20
0000063a 00000000*  3606 	.data.w	.LDW_6754de0
0000063e 00         3607 	.data.b	0
                    3608 
0000063f 00         3609 	.data.b	0
                    3610 
                    3611 .LDW_6736138:
00000640 2b         3612 	.data.b	43
00000641 00000000*  3613 	.data.w	.LDW_6724210
                    3614 
                    3615 .LDW_6754c90:
00000645 31         3616 	.data.b	49
00000646 00000000*  3617 	.data.w	.LDW_6736138
                    3618 
                    3619 .LDW_6754e18:
0000064a 47         3620 	.data.b	71
0000064b 01         3621 	.data.b	1
                    3622 
                    3623 .LDW_6759e40:
0000064c 14         3624 	.data.b	20
0000064d 00000000*  3625 	.data.w	.LDW_6754c90
00000651 00         3626 	.data.b	0
                    3627 
00000652 00         3628 	.data.b	0
                    3629 
                    3630 .LDW_6736190:
00000653 2b         3631 	.data.b	43
00000654 00000000*  3632 	.data.w	.LDW_6730d58
                    3633 
                    3634 .LDW_67610a8:
00000658 31         3635 	.data.b	49
00000659 00000000*  3636 	.data.w	.LDW_6736190
                    3637 
                    3638 .LDW_67361e8:
0000065d 2b         3639 	.data.b	43
0000065e 00000000*  3640 	.data.w	.LDW_67610a8
                    3641 
                    3642 .LDW_6761540:
00000662 47         3643 	.data.b	71
00000663 01         3644 	.data.b	1
                    3645 
                    3646 .LDW_6759c60:
00000664 14         3647 	.data.b	20
00000665 00000000*  3648 	.data.w	.LDW_67361e8
00000669 00         3649 	.data.b	0
                    3650 
0000066a 00         3651 	.data.b	0
                    3652 
                    3653 .LDW_6761118:
0000066b 46         3654 	.data.b	70

                                                                      Page 77
                                                              C:\Users\Fengyuan\AppData\Local\Temp\gh_0000p9o1.s
0000066c 00000000*  3655 	.data.w	.LDW_5d40528
00000670 01         3656 	.data.b	1
                    3657 
00000671 00         3658 	.data.b	0
                    3659 
                    3660 .LDW_66ed7b0:
00000672 2a         3661 	.data.b	42
00000673 6c6f6f62   3662 	.data.b	98,111,111,108,101,97,110,0
00000677 006e6165 
0000067b 7a         3663 	.data.b	122
0000067c 1d         3664 	.data.b	29
0000067d 05         3665 	.data.b	5
0000067e 00000000*  3666 	.data.w	.LDW_4a6d5d8
                    3667 
                    3668 	.section	.debug_abbrev
00000061 2a         3669 	.data.b	42
00000062 16         3670 	.data.b	22
00000063 00         3671 	.data.b	0
00000064 0803       3672 	.data.b	3,8
00000066 0f3b       3673 	.data.b	59,15
00000068 0f39       3674 	.data.b	57,15
0000006a 0f3a       3675 	.data.b	58,15
0000006c 1049       3676 	.data.b	73,16
0000006e 0000       3677 	.data.b	0,0
                    3678 
                    3679 	.section	.debug_info
                    3680 .LDW_4a9a4c8:
00000682 2a         3681 	.data.b	42
00000683 746e6975   3682 	.data.b	117,105,110,116,56,0
00000687 0038 
00000689 7d         3683 	.data.b	125
0000068a 1d         3684 	.data.b	29
0000068b 05         3685 	.data.b	5
0000068c 00000000*  3686 	.data.w	.LDW_4a6d5d8
                    3687 
                    3688 .LDW_5d40420:
00000690 2a         3689 	.data.b	42
00000691 746e6975   3690 	.data.b	117,105,110,116,49,54,0
00000695 003631 
00000698 7f         3691 	.data.b	127
00000699 1d         3692 	.data.b	29
0000069a 05         3693 	.data.b	5
0000069b 00000000*  3694 	.data.w	.LDW_4a6d648
                    3695 
                    3696 .LDW_5c63ed8:
0000069f 2a         3697 	.data.b	42
000006a0 746e6975   3698 	.data.b	117,105,110,116,51,50,0
000006a4 003233 
000006a7 0181       3699 	.data.b	129,1
000006a9 1d         3700 	.data.b	29
000006aa 05         3701 	.data.b	5
000006ab 00000000*  3702 	.data.w	.LDW_4a6d728
                    3703 
                    3704 .LDW_5d40528:
000006af 2a         3705 	.data.b	42
000006b0 5f647453   3706 	.data.b	83,116,100,95,82,101,116,117,114,110,84,121,112,101,0
000006b4 75746552 
000006b8 79546e72 
000006bc 006570 
000006bf 0184       3707 	.data.b	132,1
000006c1 0f         3708 	.data.b	15

                                                                      Page 78
                                                              C:\Users\Fengyuan\AppData\Local\Temp\gh_0000p9o1.s
000006c2 04         3709 	.data.b	4
000006c3 00000000*  3710 	.data.w	.LDW_4a9a4c8
                    3711 
                    3712 .LDW_66eda70:
000006c7 2a         3713 	.data.b	42
000006c8 7774654e   3714 	.data.b	78,101,116,119,111,114,107,72,97,110,100,108,101,84,121,112,101,0
000006cc 486b726f 
000006d0 6c646e61 
000006d4 70795465 
000006d8 0065 
000006da 01d5       3715 	.data.b	213,1
000006dc 16         3716 	.data.b	22
000006dd 0c         3717 	.data.b	12
000006de 00000000*  3718 	.data.w	.LDW_4a9a4c8
                    3719 
                    3720 .LDW_66edf40:
000006e2 2a         3721 	.data.b	42
000006e3 4d777342   3722 	.data.b	66,115,119,77,95,69,83,72,95,77,111,100,101,0
000006e7 4853455f 
000006eb 646f4d5f 
000006ef 0065 
000006f1 2e         3723 	.data.b	46
000006f2 0f         3724 	.data.b	15
000006f3 15         3725 	.data.b	21
000006f4 00000000*  3726 	.data.w	.LDW_4a9a4c8
                    3727 
                    3728 .LDW_66edd88:
000006f8 2a         3729 	.data.b	42
000006f9 4d777342   3730 	.data.b	66,115,119,77,95,69,83,72,95,82,117,110,82,101,113,117,101,115,116,0
000006fd 4853455f 
00000701 6e75525f 
00000705 75716552 
00000709 00747365 
0000070d 31         3731 	.data.b	49
0000070e 0f         3732 	.data.b	15
0000070f 15         3733 	.data.b	21
00000710 00000000*  3734 	.data.w	.LDW_4a9a4c8
                    3735 
                    3736 .LDW_66edc80:
00000714 2a         3737 	.data.b	42
00000715 4d6d6f43   3738 	.data.b	67,111,109,77,95,77,111,100,101,84,121,112,101,0
00000719 646f4d5f 
0000071d 70795465 
00000721 0065 
00000723 37         3739 	.data.b	55
00000724 0f         3740 	.data.b	15
00000725 15         3741 	.data.b	21
00000726 00000000*  3742 	.data.w	.LDW_4a9a4c8
                    3743 
                    3744 .LDW_66f0d48:
0000072a 2a         3745 	.data.b	42
0000072b 536e6143   3746 	.data.b	67,97,110,83,77,95,66,115,119,77,67,117,114,114,101,110,116,83,116,97,116,101,84,121,112,101,0
0000072f 73425f4d 
00000733 75434d77 
00000737 6e657272 
0000073b 61745374 
0000073f 79546574 
00000743 006570 
00000746 41         3747 	.data.b	65
00000747 0f         3748 	.data.b	15
00000748 1d         3749 	.data.b	29

                                                                      Page 79
                                                              C:\Users\Fengyuan\AppData\Local\Temp\gh_0000p9o1.s
00000749 00000000*  3750 	.data.w	.LDW_4a9a4c8
                    3751 
                    3752 .LDW_66f2bf8:
0000074d 30         3753 	.data.b	48
0000074e 00         3754 	.data.b	0
0000074f 6c         3755 	.data.b	108
00000750 01         3756 	.data.b	1
00000751 3b         3757 	.data.b	59
00000752 04         3758 	.data.b	4
00000753 01         3759 	.data.b	1
                    3760 
                    3761 	.section	.debug_abbrev
00000070 30         3762 	.data.b	48
00000071 04         3763 	.data.b	4
00000072 01         3764 	.data.b	1
00000073 0803       3765 	.data.b	3,8
00000075 0f3b       3766 	.data.b	59,15
00000077 0f39       3767 	.data.b	57,15
00000079 0f3a       3768 	.data.b	58,15
0000007b 0f0b       3769 	.data.b	11,15
0000007d 0b32       3770 	.data.b	50,11
0000007f 0000       3771 	.data.b	0,0
                    3772 
                    3773 	.section	.debug_info
                    3774 .LDW_4a8c3e0:
00000754 2f         3775 	.data.b	47
00000755 74737953   3776 	.data.b	83,121,115,116,101,109,65,112,112,108,105,99,97,116,105,111,110,95,79,115,67,111,114,101,48,0
00000759 70416d65 
0000075d 63696c70 
00000761 6f697461 
00000765 734f5f6e 
00000769 65726f43 
0000076d 0030 
0000076f 6d         3777 	.data.b	109
00000770 03         3778 	.data.b	3
00000771 3b         3779 	.data.b	59
00000772 00         3780 	.data.b	0
                    3781 
                    3782 	.section	.debug_abbrev
00000081 2f         3783 	.data.b	47
00000082 28         3784 	.data.b	40
00000083 00         3785 	.data.b	0
00000084 0803       3786 	.data.b	3,8
00000086 0f3b       3787 	.data.b	59,15
00000088 0f39       3788 	.data.b	57,15
0000008a 0f3a       3789 	.data.b	58,15
0000008c 0d1c       3790 	.data.b	28,13
0000008e 0000       3791 	.data.b	0,0
                    3792 
                    3793 	.section	.debug_info
                    3794 .LDW_66f42b0:
00000773 2f         3795 	.data.b	47
00000774 415f534f   3796 	.data.b	79,83,95,65,80,80,73,68,95,67,79,85,78,84,0
00000778 44495050 
0000077c 554f435f 
00000780 00544e 
00000783 6e         3797 	.data.b	110
00000784 03         3798 	.data.b	3
00000785 3b         3799 	.data.b	59
00000786 01         3800 	.data.b	1
                    3801 

                                                                      Page 80
                                                              C:\Users\Fengyuan\AppData\Local\Temp\gh_0000p9o1.s
                    3802 .LDW_66f4330:
00000787 2f         3803 	.data.b	47
00000788 41564e49   3804 	.data.b	73,78,86,65,76,73,68,95,79,83,65,80,80,76,73,67,65,84,73,79,78,0
0000078c 5f44494c 
00000790 5041534f 
00000794 43494c50 
00000798 4f495441 
0000079c 004e 
0000079e 6f         3805 	.data.b	111
0000079f 03         3806 	.data.b	3
000007a0 3b         3807 	.data.b	59
000007a1 01         3808 	.data.b	1
                    3809 
000007a2 00         3810 	.data.b	0
                    3811 
                    3812 .LDW_66f2ba0:
000007a3 2a         3813 	.data.b	42
000007a4 6c707041   3814 	.data.b	65,112,112,108,105,99,97,116,105,111,110,84,121,112,101,0
000007a8 74616369 
000007ac 546e6f69 
000007b0 00657079 
000007b4 70         3815 	.data.b	112
000007b5 03         3816 	.data.b	3
000007b6 3b         3817 	.data.b	59
000007b7 00000000*  3818 	.data.w	.LDW_66f2bf8
                    3819 
                    3820 .LDW_66f3018:
000007bb 30         3821 	.data.b	48
000007bc 00         3822 	.data.b	0
000007bd 0186       3823 	.data.b	134,1
000007bf 01         3824 	.data.b	1
000007c0 3b         3825 	.data.b	59
000007c1 04         3826 	.data.b	4
000007c2 01         3827 	.data.b	1
                    3828 
                    3829 .LDW_66f41f0:
000007c3 2f         3830 	.data.b	47
000007c4 61666544   3831 	.data.b	68,101,102,97,117,108,116,95,73,110,105,116,95,84,97,115,107,0
000007c8 5f746c75 
000007cc 74696e49 
000007d0 7361545f 
000007d4 006b 
000007d6 0187       3832 	.data.b	135,1
000007d8 03         3833 	.data.b	3
000007d9 3b         3834 	.data.b	59
000007da 00         3835 	.data.b	0
                    3836 
                    3837 .LDW_66f46f0:
000007db 2f         3838 	.data.b	47
000007dc 656c6449   3839 	.data.b	73,100,108,101,84,97,115,107,95,79,115,67,111,114,101,48,0
000007e0 6b736154 
000007e4 43734f5f 
000007e8 3065726f 
000007ec 00 
000007ed 0188       3840 	.data.b	136,1
000007ef 03         3841 	.data.b	3
000007f0 3b         3842 	.data.b	59
000007f1 01         3843 	.data.b	1
                    3844 
                    3845 .LDW_66f4530:
000007f2 2f         3846 	.data.b	47

                                                                      Page 81
                                                              C:\Users\Fengyuan\AppData\Local\Temp\gh_0000p9o1.s
000007f3 6154734f   3847 	.data.b	79,115,84,97,115,107,95,65,80,80,0
000007f7 415f6b73 
000007fb 005050 
000007fe 0189       3848 	.data.b	137,1
00000800 03         3849 	.data.b	3
00000801 3b         3850 	.data.b	59
00000802 02         3851 	.data.b	2
                    3852 
                    3853 .LDW_66f4830:
00000803 2f         3854 	.data.b	47
00000804 6154734f   3855 	.data.b	79,115,84,97,115,107,95,66,83,87,95,83,67,72,77,0
00000808 425f6b73 
0000080c 535f5753 
00000810 004d4843 
00000814 018a       3856 	.data.b	138,1
00000816 03         3857 	.data.b	3
00000817 3b         3858 	.data.b	59
00000818 03         3859 	.data.b	3
                    3860 
                    3861 .LDW_66f41b0:
00000819 2f         3862 	.data.b	47
0000081a 545f534f   3863 	.data.b	79,83,95,84,65,83,75,73,68,95,67,79,85,78,84,0
0000081e 494b5341 
00000822 4f435f44 
00000826 00544e55 
0000082a 018b       3864 	.data.b	139,1
0000082c 03         3865 	.data.b	3
0000082d 3b         3866 	.data.b	59
0000082e 04         3867 	.data.b	4
                    3868 
                    3869 .LDW_66f4170:
0000082f 2f         3870 	.data.b	47
00000830 41564e49   3871 	.data.b	73,78,86,65,76,73,68,95,84,65,83,75,0
00000834 5f44494c 
00000838 4b534154 
0000083c 00 
0000083d 018c       3872 	.data.b	140,1
0000083f 03         3873 	.data.b	3
00000840 3b         3874 	.data.b	59
00000841 04         3875 	.data.b	4
                    3876 
00000842 00         3877 	.data.b	0
                    3878 
                    3879 .LDW_66f2d00:
00000843 2a         3880 	.data.b	42
00000844 6b736154   3881 	.data.b	84,97,115,107,84,121,112,101,0
00000848 65707954 
0000084c 00 
0000084d 018d       3882 	.data.b	141,1
0000084f 03         3883 	.data.b	3
00000850 3b         3884 	.data.b	59
00000851 00000000*  3885 	.data.w	.LDW_66f3018
                    3886 
                    3887 .LDW_66f2d58:
00000855 30         3888 	.data.b	48
00000856 00         3889 	.data.b	0
00000857 0191       3890 	.data.b	145,1
00000859 01         3891 	.data.b	1
0000085a 3b         3892 	.data.b	59
0000085b 04         3893 	.data.b	4
0000085c 01         3894 	.data.b	1

                                                                      Page 82
                                                              C:\Users\Fengyuan\AppData\Local\Temp\gh_0000p9o1.s
                    3895 
                    3896 .LDW_66f4670:
0000085d 2f         3897 	.data.b	47
0000085e 496e6143   3898 	.data.b	67,97,110,73,115,114,95,48,95,66,117,115,79,102,102,0
00000862 305f7273 
00000866 7375425f 
0000086a 0066664f 
0000086e 0192       3899 	.data.b	146,1
00000870 03         3900 	.data.b	3
00000871 3b         3901 	.data.b	59
00000872 00         3902 	.data.b	0
                    3903 
                    3904 .LDW_66f43b0:
00000873 2f         3905 	.data.b	47
00000874 496e6143   3906 	.data.b	67,97,110,73,115,114,95,48,95,77,66,48,48,84,111,49,53,0
00000878 305f7273 
0000087c 30424d5f 
00000880 316f5430 
00000884 0035 
00000886 0193       3907 	.data.b	147,1
00000888 03         3908 	.data.b	3
00000889 3b         3909 	.data.b	59
0000088a 01         3910 	.data.b	1
                    3911 
                    3912 .LDW_66f4430:
0000088b 2f         3913 	.data.b	47
0000088c 496e6143   3914 	.data.b	67,97,110,73,115,114,95,48,95,77,66,49,54,84,111,51,49,0
00000890 305f7273 
00000894 31424d5f 
00000898 336f5436 
0000089c 0031 
0000089e 0194       3915 	.data.b	148,1
000008a0 03         3916 	.data.b	3
000008a1 3b         3917 	.data.b	59
000008a2 02         3918 	.data.b	2
                    3919 
                    3920 .LDW_66f4570:
000008a3 2f         3921 	.data.b	47
000008a4 6e756f43   3922 	.data.b	67,111,117,110,116,101,114,73,115,114,95,83,121,115,116,101,109,84,105,109,101,114,0
000008a8 49726574 
000008ac 535f7273 
000008b0 65747379 
000008b4 6d69546d 
000008b8 007265 
000008bb 0195       3923 	.data.b	149,1
000008bd 03         3924 	.data.b	3
000008be 3b         3925 	.data.b	59
000008bf 03         3926 	.data.b	3
                    3927 
                    3928 .LDW_66f4630:
000008c0 2f         3929 	.data.b	47
000008c1 495f534f   3930 	.data.b	79,83,95,73,83,82,73,68,95,67,79,85,78,84,0
000008c5 44495253 
000008c9 554f435f 
000008cd 00544e 
000008d0 0196       3931 	.data.b	150,1
000008d2 03         3932 	.data.b	3
000008d3 3b         3933 	.data.b	59
000008d4 04         3934 	.data.b	4
                    3935 
                    3936 .LDW_66f4730:

                                                                      Page 83
                                                              C:\Users\Fengyuan\AppData\Local\Temp\gh_0000p9o1.s
000008d5 2f         3937 	.data.b	47
000008d6 41564e49   3938 	.data.b	73,78,86,65,76,73,68,95,73,83,82,0
000008da 5f44494c 
000008de 00525349 
000008e2 0197       3939 	.data.b	151,1
000008e4 03         3940 	.data.b	3
000008e5 3b         3941 	.data.b	59
000008e6 04         3942 	.data.b	4
                    3943 
000008e7 00         3944 	.data.b	0
                    3945 
                    3946 .LDW_66f2f68:
000008e8 2a         3947 	.data.b	42
000008e9 54525349   3948 	.data.b	73,83,82,84,121,112,101,0
000008ed 00657079 
000008f1 0198       3949 	.data.b	152,1
000008f3 03         3950 	.data.b	3
000008f4 3b         3951 	.data.b	59
000008f5 00000000*  3952 	.data.w	.LDW_66f2d58
                    3953 
                    3954 .LDW_66f51b0:
000008f9 30         3955 	.data.b	48
000008fa 00         3956 	.data.b	0
000008fb 01bb       3957 	.data.b	187,1
000008fd 01         3958 	.data.b	1
000008fe 3b         3959 	.data.b	59
000008ff 04         3960 	.data.b	4
00000900 01         3961 	.data.b	1
                    3962 
                    3963 .LDW_66f4770:
00000901 2f         3964 	.data.b	47
00000902 535f534f   3965 	.data.b	79,83,95,83,80,73,78,76,79,67,75,73,68,95,67,79,85,78,84,0
00000906 4c4e4950 
0000090a 494b434f 
0000090e 4f435f44 
00000912 00544e55 
00000916 01bc       3966 	.data.b	188,1
00000918 03         3967 	.data.b	3
00000919 3b         3968 	.data.b	59
0000091a 00         3969 	.data.b	0
                    3970 
                    3971 .LDW_66f47b0:
0000091b 2f         3972 	.data.b	47
0000091c 41564e49   3973 	.data.b	73,78,86,65,76,73,68,95,83,80,73,78,76,79,67,75,0
00000920 5f44494c 
00000924 4e495053 
00000928 4b434f4c 
0000092c 00 
0000092d 01bd       3974 	.data.b	189,1
0000092f 03         3975 	.data.b	3
00000930 3b         3976 	.data.b	59
00000931 00         3977 	.data.b	0
                    3978 
00000932 00         3979 	.data.b	0
                    3980 
                    3981 .LDW_66f4ef0:
00000933 2a         3982 	.data.b	42
00000934 6e697053   3983 	.data.b	83,112,105,110,108,111,99,107,73,100,84,121,112,101,0
00000938 6b636f6c 
0000093c 79546449 
00000940 006570 

                                                                      Page 84
                                                              C:\Users\Fengyuan\AppData\Local\Temp\gh_0000p9o1.s
00000943 01be       3984 	.data.b	190,1
00000945 03         3985 	.data.b	3
00000946 3b         3986 	.data.b	59
00000947 00000000*  3987 	.data.w	.LDW_66f51b0
                    3988 
                    3989 .LDW_66f5100:
0000094b 30         3990 	.data.b	48
0000094c 00         3991 	.data.b	0
0000094d 01ce       3992 	.data.b	206,1
0000094f 01         3993 	.data.b	1
00000950 3b         3994 	.data.b	59
00000951 04         3995 	.data.b	4
00000952 01         3996 	.data.b	1
                    3997 
                    3998 .LDW_66f5c48:
00000953 2f         3999 	.data.b	47
00000954 545f534f   4000 	.data.b	79,83,95,84,82,65,67,69,95,84,72,82,69,65,68,73,68,95,67,79,85,78,84,0
00000958 45434152 
0000095c 5248545f 
00000960 49444145 
00000964 4f435f44 
00000968 00544e55 
0000096c 01cf       4001 	.data.b	207,1
0000096e 03         4002 	.data.b	3
0000096f 3b         4003 	.data.b	59
00000970 00         4004 	.data.b	0
                    4005 
                    4006 .LDW_66f5b88:
00000971 2f         4007 	.data.b	47
00000972 545f534f   4008 	.data.b	79,83,95,84,82,65,67,69,95,73,78,86,65,76,73,68,95,84,72,82,69,65,68,0
00000976 45434152 
0000097a 564e495f 
0000097e 44494c41 
00000982 5248545f 
00000986 00444145 
0000098a 01d0       4009 	.data.b	208,1
0000098c 03         4010 	.data.b	3
0000098d 3b         4011 	.data.b	59
0000098e 01         4012 	.data.b	1
                    4013 
0000098f 00         4014 	.data.b	0
                    4015 
                    4016 .LDW_66f52b8:
00000990 2a         4017 	.data.b	42
00000991 545f734f   4018 	.data.b	79,115,95,84,114,97,99,101,84,104,114,101,97,100,73,100,84,121,112,101,0
00000995 65636172 
00000999 65726854 
0000099d 64496461 
000009a1 65707954 
000009a5 00 
000009a6 01d1       4019 	.data.b	209,1
000009a8 03         4020 	.data.b	3
000009a9 3b         4021 	.data.b	59
000009aa 00000000*  4022 	.data.w	.LDW_66f5100
                    4023 
                    4024 .LDW_66f49c8:
000009ae 30         4025 	.data.b	48
000009af 00         4026 	.data.b	0
000009b0 01d5       4027 	.data.b	213,1
000009b2 01         4028 	.data.b	1
000009b3 3b         4029 	.data.b	59

                                                                      Page 85
                                                              C:\Users\Fengyuan\AppData\Local\Temp\gh_0000p9o1.s
000009b4 04         4030 	.data.b	4
000009b5 01         4031 	.data.b	1
                    4032 
                    4033 .LDW_66f5a48:
000009b6 2f         4034 	.data.b	47
000009b7 545f534f   4035 	.data.b	79,83,95,84,82,65,67,69,95,78,85,77,66,69,82,95,79,70,95,67,79,78,70,73,71,85,82,69,68,95,83,80,73,78,76,79,67,75,83,0
000009bb 45434152 
000009bf 4d554e5f 
000009c3 5f524542 
000009c7 435f464f 
000009cb 49464e4f 
000009cf 45525547 
000009d3 50535f44 
000009d7 4f4c4e49 
000009db 00534b43 
000009df 01d6       4036 	.data.b	214,1
000009e1 03         4037 	.data.b	3
000009e2 3b         4038 	.data.b	59
000009e3 00         4039 	.data.b	0
                    4040 
                    4041 .LDW_66f5c08:
000009e4 2f         4042 	.data.b	47
000009e5 545f534f   4043 	.data.b	79,83,95,84,82,65,67,69,95,78,85,77,66,69,82,95,79,70,95,65,76,76,95,83,80,73,78,76,79,67,75,83,0
000009e9 45434152 
000009ed 4d554e5f 
000009f1 5f524542 
000009f5 415f464f 
000009f9 535f4c4c 
000009fd 4c4e4950 
00000a01 534b434f 
00000a05 00 
00000a06 01d7       4044 	.data.b	215,1
00000a08 03         4045 	.data.b	3
00000a09 3b         4046 	.data.b	59
00000a0a 00         4047 	.data.b	0
                    4048 
                    4049 .LDW_66f5e08:
00000a0b 2f         4050 	.data.b	47
00000a0c 545f534f   4051 	.data.b	79,83,95,84,82,65,67,69,95,73,78,86,65,76,73,68,95,83,80,73,78,76,79,67,75,0
00000a10 45434152 
00000a14 564e495f 
00000a18 44494c41 
00000a1c 4950535f 
00000a20 434f4c4e 
00000a24 004b 
00000a26 01d8       4052 	.data.b	216,1
00000a28 03         4053 	.data.b	3
00000a29 3b         4054 	.data.b	59
00000a2a 01         4055 	.data.b	1
                    4056 
00000a2b 00         4057 	.data.b	0
                    4058 
                    4059 .LDW_66f5208:
00000a2c 2a         4060 	.data.b	42
00000a2d 545f734f   4061 	.data.b	79,115,95,84,114,97,99,101,83,112,105,110,108,111,99,107,73,100,84,121,112,101,0
00000a31 65636172 
00000a35 6e697053 
00000a39 6b636f6c 
00000a3d 79546449 
00000a41 006570 
00000a44 01d9       4062 	.data.b	217,1

                                                                      Page 86
                                                              C:\Users\Fengyuan\AppData\Local\Temp\gh_0000p9o1.s
00000a46 03         4063 	.data.b	3
00000a47 3b         4064 	.data.b	59
00000a48 00000000*  4065 	.data.w	.LDW_66f49c8
                    4066 
                    4067 .LDW_6708a78:
00000a4c 42         4068 	.data.b	66
00000a4d 6d654473   4069 	.data.b	115,68,101,109,95,80,67,67,111,110,102,105,103,84,121,112,101,0
00000a51 4343505f 
00000a55 69666e6f 
00000a59 70795467 
00000a5d 0065 
00000a5f 12fe       4070 	.data.b	254,18
00000a61 10         4071 	.data.b	16
00000a62 30         4072 	.data.b	48
00000a63 01         4073 	.data.b	1
00000a64 01         4074 	.data.b	1
                    4075 
                    4076 	.section	.debug_abbrev
00000090 42         4077 	.data.b	66
00000091 13         4078 	.data.b	19
00000092 01         4079 	.data.b	1
00000093 0803       4080 	.data.b	3,8
00000095 0f3b       4081 	.data.b	59,15
00000097 0f39       4082 	.data.b	57,15
00000099 0f3a       4083 	.data.b	58,15
0000009b 0f0b       4084 	.data.b	11,15
0000009d 0b32       4085 	.data.b	50,11
0000009f 0000       4086 	.data.b	0,0
                    4087 
                    4088 	.section	.debug_info
                    4089 .LDW_67023d8:
00000a65 25         4090 	.data.b	37
00000a66 5f6d6544   4091 	.data.b	68,101,109,95,80,67,67,111,110,102,105,103,78,101,118,101,114,85,115,101,100,0
00000a6a 6f434350 
00000a6e 6769666e 
00000a72 6576654e 
00000a76 65735572 
00000a7a 0064 
00000a7c 1380       4092 	.data.b	128,19
00000a7e 09         4093 	.data.b	9
00000a7f 30         4094 	.data.b	48
00000a80 00000000*  4095 	.data.w	.LDW_4a9a4c8
00000a84 2302       4096 	.data.b	2,35
00000a86 00         4097 	.data.b	0
00000a87 01         4098 	.data.b	1
                    4099 
                    4100 	.section	.debug_abbrev
000000a1 25         4101 	.data.b	37
000000a2 0d         4102 	.data.b	13
000000a3 00         4103 	.data.b	0
000000a4 0803       4104 	.data.b	3,8
000000a6 0f3b       4105 	.data.b	59,15
000000a8 0f39       4106 	.data.b	57,15
000000aa 0f3a       4107 	.data.b	58,15
000000ac 1049       4108 	.data.b	73,16
000000ae 0a38       4109 	.data.b	56,10
000000b0 0b32       4110 	.data.b	50,11
000000b2 0000       4111 	.data.b	0,0
                    4112 
                    4113 	.section	.debug_info
00000a88 00         4114 	.data.b	0

                                                                      Page 87
                                                              C:\Users\Fengyuan\AppData\Local\Temp\gh_0000p9o1.s
                    4115 
                    4116 .LDW_67087b8:
00000a89 2a         4117 	.data.b	42
00000a8a 5f6d6544   4118 	.data.b	68,101,109,95,80,67,67,111,110,102,105,103,84,121,112,101,0
00000a8e 6f434350 
00000a92 6769666e 
00000a96 65707954 
00000a9a 00 
00000a9b 1381       4119 	.data.b	129,19
00000a9d 03         4120 	.data.b	3
00000a9e 30         4121 	.data.b	48
00000a9f 00000000*  4122 	.data.w	.LDW_6708a78
                    4123 
                    4124 .LDW_6708080:
00000aa3 2a         4125 	.data.b	42
00000aa4 5f6d6544   4126 	.data.b	68,101,109,95,67,111,110,102,105,103,84,121,112,101,0
00000aa8 666e6f43 
00000aac 79546769 
00000ab0 006570 
00000ab3 1383       4127 	.data.b	131,19
00000ab5 1a         4128 	.data.b	26
00000ab6 30         4129 	.data.b	48
00000ab7 00000000*  4130 	.data.w	.LDW_67087b8
                    4131 
                    4132 .LDW_670cae0:
00000abb 42         4133 	.data.b	66
00000abc 5f4d4344   4134 	.data.b	68,67,77,95,67,79,78,70,73,71,84,89,80,69,95,84,65,71,0
00000ac0 464e4f43 
00000ac4 59544749 
00000ac8 545f4550 
00000acc 004741 
00000acf 0681       4135 	.data.b	129,6
00000ad1 08         4136 	.data.b	8
00000ad2 2a         4137 	.data.b	42
00000ad3 01         4138 	.data.b	1
00000ad4 01         4139 	.data.b	1
                    4140 
                    4141 .LDW_66ff330:
00000ad5 25         4142 	.data.b	37
00000ad6 6f436f4e   4143 	.data.b	78,111,67,111,110,102,105,103,0
00000ada 6769666e 
00000ade 00 
00000adf 0697       4144 	.data.b	151,6
00000ae1 09         4145 	.data.b	9
00000ae2 2a         4146 	.data.b	42
00000ae3 00000000*  4147 	.data.w	.LDW_4a9a4c8
00000ae7 2302       4148 	.data.b	2,35
00000ae9 00         4149 	.data.b	0
00000aea 01         4150 	.data.b	1
                    4151 
00000aeb 00         4152 	.data.b	0
                    4153 
                    4154 .LDW_670c2a0:
00000aec 2a         4155 	.data.b	42
00000aed 5f6d6344   4156 	.data.b	68,99,109,95,67,111,110,102,105,103,84,121,112,101,0
00000af1 666e6f43 
00000af5 79546769 
00000af9 006570 
00000afc 069a       4157 	.data.b	154,6
00000afe 23         4158 	.data.b	35
00000aff 2a         4159 	.data.b	42

                                                                      Page 88
                                                              C:\Users\Fengyuan\AppData\Local\Temp\gh_0000p9o1.s
00000b00 00000000*  4160 	.data.w	.LDW_670cae0
                    4161 
                    4162 .LDW_670c140:
00000b04 2a         4163 	.data.b	42
00000b05 5f6d6344   4164 	.data.b	68,99,109,95,67,111,110,102,105,103,80,116,114,84,121,112,101,0
00000b09 666e6f43 
00000b0d 74506769 
00000b11 70795472 
00000b15 0065 
00000b17 069c       4165 	.data.b	156,6
00000b19 3b         4166 	.data.b	59
00000b1a 2a         4167 	.data.b	42
00000b1b 00000000*  4168 	.data.w	.LDW_670dc00
                    4169 
                    4170 .LDW_670cdf8:
00000b1f 2a         4171 	.data.b	42
00000b20 4d756345   4172 	.data.b	69,99,117,77,95,87,97,107,101,117,112,83,111,117,114,99,101,84,121,112,101,0
00000b24 6b61575f 
00000b28 53707565 
00000b2c 6372756f 
00000b30 70795465 
00000b34 0065 
00000b36 2e         4173 	.data.b	46
00000b37 11         4174 	.data.b	17
00000b38 66         4175 	.data.b	102
00000b39 00000000*  4176 	.data.w	.LDW_5c63ed8
                    4177 
                    4178 .LDW_6709ee0:
00000b3d 2a         4179 	.data.b	42
00000b3e 4d777342   4180 	.data.b	66,115,119,77,95,85,115,101,114,84,121,112,101,0
00000b42 6573555f 
00000b46 70795472 
00000b4a 0065 
00000b4c 01c2       4181 	.data.b	194,1
00000b4e 10         4182 	.data.b	16
00000b4f 03         4183 	.data.b	3
00000b50 00000000*  4184 	.data.w	.LDW_5d40420
                    4185 
                    4186 .LDW_6709d80:
00000b54 2a         4187 	.data.b	42
00000b55 4d777342   4188 	.data.b	66,115,119,77,95,77,111,100,101,84,121,112,101,0
00000b59 646f4d5f 
00000b5d 70795465 
00000b61 0065 
00000b63 01c3       4189 	.data.b	195,1
00000b65 10         4190 	.data.b	16
00000b66 03         4191 	.data.b	3
00000b67 00000000*  4192 	.data.w	.LDW_5d40420
                    4193 
                    4194 .LDW_5d40580:
00000b6b 2a         4195 	.data.b	42
00000b6c 4d777342   4196 	.data.b	66,115,119,77,95,72,97,110,100,108,101,84,121,112,101,0
00000b70 6e61485f 
00000b74 54656c64 
00000b78 00657079 
00000b7c 01c4       4197 	.data.b	196,1
00000b7e 0f         4198 	.data.b	15
00000b7f 03         4199 	.data.b	3
00000b80 00000000*  4200 	.data.w	.LDW_4a9a4c8
                    4201 
                    4202 .LDW_6709540:

                                                                      Page 89
                                                              C:\Users\Fengyuan\AppData\Local\Temp\gh_0000p9o1.s
00000b84 2a         4203 	.data.b	42
00000b85 4d777342   4204 	.data.b	66,115,119,77,95,73,110,105,116,65,99,116,105,111,110,70,117,110,99,84,121,112,101,0
00000b89 696e495f 
00000b8d 74634174 
00000b91 466e6f69 
00000b95 54636e75 
00000b99 00657079 
00000b9d 01c5       4205 	.data.b	197,1
00000b9f 09         4206 	.data.b	9
00000ba0 03         4207 	.data.b	3
00000ba1 00000000*  4208 	.data.w	.LDW_670d538
                    4209 
                    4210 .LDW_6709f38:
00000ba5 2a         4211 	.data.b	42
00000ba6 4d777342   4212 	.data.b	66,115,119,77,95,82,117,108,101,84,97,98,108,101,70,99,116,80,116,114,84,121,112,101,0
00000baa 6c75525f 
00000bae 62615465 
00000bb2 6346656c 
00000bb6 72745074 
00000bba 65707954 
00000bbe 00 
00000bbf 01c6       4213 	.data.b	198,1
00000bc1 09         4214 	.data.b	9
00000bc2 03         4215 	.data.b	3
00000bc3 00000000*  4216 	.data.w	.LDW_670d618
                    4217 
                    4218 .LDW_6709c78:
00000bc7 2a         4219 	.data.b	42
00000bc8 4d777342   4220 	.data.b	66,115,119,77,95,65,99,116,105,111,110,76,105,115,116,70,117,110,99,84,121,112,101,0
00000bcc 7463415f 
00000bd0 4c6e6f69 
00000bd4 46747369 
00000bd8 54636e75 
00000bdc 00657079 
00000be0 01c7       4221 	.data.b	199,1
00000be2 09         4222 	.data.b	9
00000be3 03         4223 	.data.b	3
00000be4 00000000*  4224 	.data.w	.LDW_670d688
                    4225 
                    4226 .LDW_670a300:
00000be8 2a         4227 	.data.b	42
00000be9 4d777342   4228 	.data.b	66,115,119,77,95,65,99,116,105,111,110,76,105,115,116,81,117,101,117,101,84,121,112,101,0
00000bed 7463415f 
00000bf1 4c6e6f69 
00000bf5 51747369 
00000bf9 65756575 
00000bfd 65707954 
00000c01 00 
00000c02 07a2       4229 	.data.b	162,7
00000c04 0f         4230 	.data.b	15
00000c05 03         4231 	.data.b	3
00000c06 00000000*  4232 	.data.w	.LDW_4a9a4c8
                    4233 
                    4234 .LDW_670a098:
00000c0a 2a         4235 	.data.b	42
00000c0b 4d777342   4236 	.data.b	66,115,119,77,95,82,117,108,101,115,73,100,120,79,102,68,101,102,101,114,114,101,100,82,117,108,101,115,84,121,112,101,0
00000c0f 6c75525f 
00000c13 64497365 
00000c17 44664f78 
00000c1b 72656665 
00000c1f 52646572 

                                                                      Page 90
                                                              C:\Users\Fengyuan\AppData\Local\Temp\gh_0000p9o1.s
00000c23 73656c75 
00000c27 65707954 
00000c2b 00 
00000c2c 07b4       4237 	.data.b	180,7
00000c2e 0f         4238 	.data.b	15
00000c2f 03         4239 	.data.b	3
00000c30 00000000*  4240 	.data.w	.LDW_4a9a4c8
                    4241 
                    4242 .LDW_670a568:
00000c34 2a         4243 	.data.b	42
00000c35 4d777342   4244 	.data.b	66,115,119,77,95,70,111,114,99,101,100,65,99,116,105,111,110,76,105,115,116,80,114,105,111,114,105,116,121,84,121,112,101,0
00000c39 726f465f 
00000c3d 41646563 
00000c41 6f697463 
00000c45 73694c6e 
00000c49 69725074 
00000c4d 7469726f 
00000c51 70795479 
00000c55 0065 
00000c57 07b7       4245 	.data.b	183,7
00000c59 0f         4246 	.data.b	15
00000c5a 03         4247 	.data.b	3
00000c5b 00000000*  4248 	.data.w	.LDW_4a9a4c8
                    4249 
                    4250 .LDW_670a9e0:
00000c5f 2a         4251 	.data.b	42
00000c60 4d777342   4252 	.data.b	66,115,119,77,95,69,120,116,101,114,110,97,108,73,100,79,102,71,101,110,101,114,105,99,77,97,112,112,105,110,103,84,121,112,101,0
00000c64 7478455f 
00000c68 616e7265 
00000c6c 4f64496c 
00000c70 6e654766 
00000c74 63697265 
00000c78 7070614d 
00000c7c 54676e69 
00000c80 00657079 
00000c84 07ba       4253 	.data.b	186,7
00000c86 10         4254 	.data.b	16
00000c87 03         4255 	.data.b	3
00000c88 00000000*  4256 	.data.w	.LDW_5c63ed8
                    4257 
                    4258 .LDW_670a510:
00000c8c 2a         4259 	.data.b	42
00000c8d 4d777342   4260 	.data.b	66,115,119,77,95,73,109,109,101,100,105,97,116,101,85,115,101,114,69,110,100,73,100,120,79,102,71,101,110,101,114,105,99,77,97,112,112,105,110,103,84,121,112,101,0
00000c91 6d6d495f 
00000c95 61696465 
00000c99 73556574 
00000c9d 6e457265 
00000ca1 78644964 
00000ca5 6547664f 
00000ca9 6972656e 
00000cad 70614d63 
00000cb1 676e6970 
00000cb5 65707954 
00000cb9 00 
00000cba 07bd       4261 	.data.b	189,7
00000cbc 0f         4262 	.data.b	15
00000cbd 03         4263 	.data.b	3
00000cbe 00000000*  4264 	.data.w	.LDW_4a9a4c8
                    4265 
                    4266 .LDW_670a358:
00000cc2 2a         4267 	.data.b	42

                                                                      Page 91
                                                              C:\Users\Fengyuan\AppData\Local\Temp\gh_0000p9o1.s
00000cc3 4d777342   4268 	.data.b	66,115,119,77,95,73,109,109,101,100,105,97,116,101,85,115,101,114,83,116,97,114,116,73,100,120,79,102,71,101,110,101,114,105,99,77,97,112,112,105,110,103,84,121,112,101,0
00000cc7 6d6d495f 
00000ccb 61696465 
00000ccf 73556574 
00000cd3 74537265 
00000cd7 49747261 
00000cdb 664f7864 
00000cdf 656e6547 
00000ce3 4d636972 
00000ce7 69707061 
00000ceb 7954676e 
00000cef 006570 
00000cf2 07c0       4269 	.data.b	192,7
00000cf4 0f         4270 	.data.b	15
00000cf5 03         4271 	.data.b	3
00000cf6 00000000*  4272 	.data.w	.LDW_4a9a4c8
                    4273 
                    4274 .LDW_670a6c8:
00000cfa 2a         4275 	.data.b	42
00000cfb 4d777342   4276 	.data.b	66,115,119,77,95,77,97,115,107,101,100,66,105,116,115,79,102,73,109,109,101,100,105,97,116,101,85,115,101,114,84,121,112,101,0
00000cff 73614d5f 
00000d03 4264656b 
00000d07 4f737469 
00000d0b 6d6d4966 
00000d0f 61696465 
00000d13 73556574 
00000d17 79547265 
00000d1b 006570 
00000d1e 07c6       4277 	.data.b	198,7
00000d20 0f         4278 	.data.b	15
00000d21 03         4279 	.data.b	3
00000d22 00000000*  4280 	.data.w	.LDW_4a9a4c8
                    4281 
                    4282 .LDW_670aae8:
00000d26 2a         4283 	.data.b	42
00000d27 4d777342   4284 	.data.b	66,115,119,77,95,82,117,108,101,115,73,110,100,69,110,100,73,100,120,79,102,73,109,109,101,100,105,97,116,101,85,115,101,114,84,121,112,101,0
00000d2b 6c75525f 
00000d2f 6e497365 
00000d33 646e4564 
00000d37 4f786449 
00000d3b 6d6d4966 
00000d3f 61696465 
00000d43 73556574 
00000d47 79547265 
00000d4b 006570 
00000d4e 07cc       4285 	.data.b	204,7
00000d50 0f         4286 	.data.b	15
00000d51 03         4287 	.data.b	3
00000d52 00000000*  4288 	.data.w	.LDW_4a9a4c8
                    4289 
                    4290 .LDW_670a3b0:
00000d56 2a         4291 	.data.b	42
00000d57 4d777342   4292 	.data.b	66,115,119,77,95,82,117,108,101,115,73,110,100,83,116,97,114,116,73,100,120,79,102,73,109,109,101,100,105,97,116,101,85,115,101,114,84,121,112,101,0
00000d5b 6c75525f 
00000d5f 6e497365 
00000d63 61745364 
00000d67 64497472 
00000d6b 49664f78 
00000d6f 64656d6d 
00000d73 65746169 
00000d77 72657355 

                                                                      Page 92
                                                              C:\Users\Fengyuan\AppData\Local\Temp\gh_0000p9o1.s
00000d7b 65707954 
00000d7f 00 
00000d80 07cf       4293 	.data.b	207,7
00000d82 0f         4294 	.data.b	15
00000d83 03         4295 	.data.b	3
00000d84 00000000*  4296 	.data.w	.LDW_4a9a4c8
                    4297 
                    4298 .LDW_670a0f0:
00000d88 2a         4299 	.data.b	42
00000d89 4d777342   4300 	.data.b	66,115,119,77,95,73,110,105,116,105,97,108,105,122,101,100,84,121,112,101,0
00000d8d 696e495f 
00000d91 6c616974 
00000d95 64657a69 
00000d99 65707954 
00000d9d 00 
00000d9e 07d5       4301 	.data.b	213,7
00000da0 11         4302 	.data.b	17
00000da1 03         4303 	.data.b	3
00000da2 00000000*  4304 	.data.w	.LDW_66ed7b0
                    4305 
                    4306 .LDW_670a7d0:
00000da6 2a         4307 	.data.b	42
00000da7 4d777342   4308 	.data.b	66,115,119,77,95,77,111,100,101,82,101,113,117,101,115,116,81,117,101,117,101,84,121,112,101,0
00000dab 646f4d5f 
00000daf 71655265 
00000db3 74736575 
00000db7 75657551 
00000dbb 70795465 
00000dbf 0065 
00000dc1 07d8       4309 	.data.b	216,7
00000dc3 0f         4310 	.data.b	15
00000dc4 03         4311 	.data.b	3
00000dc5 00000000*  4312 	.data.w	.LDW_4a9a4c8
                    4313 
                    4314 .LDW_670a148:
00000dc9 2a         4315 	.data.b	42
00000dca 4d777342   4316 	.data.b	66,115,119,77,95,81,117,101,117,101,83,101,109,97,112,104,111,114,101,84,121,112,101,0
00000dce 6575515f 
00000dd2 65536575 
00000dd6 6870616d 
00000dda 5465726f 
00000dde 00657079 
00000de2 07db       4317 	.data.b	219,7
00000de4 0f         4318 	.data.b	15
00000de5 03         4319 	.data.b	3
00000de6 00000000*  4320 	.data.w	.LDW_4a9a4c8
                    4321 
                    4322 .LDW_670aa38:
00000dea 2a         4323 	.data.b	42
00000deb 4d777342   4324 	.data.b	66,115,119,77,95,81,117,101,117,101,87,114,105,116,116,101,110,84,121,112,101,0
00000def 6575515f 
00000df3 72576575 
00000df7 65747469 
00000dfb 7079546e 
00000dff 0065 
00000e01 07de       4325 	.data.b	222,7
00000e03 11         4326 	.data.b	17
00000e04 03         4327 	.data.b	3
00000e05 00000000*  4328 	.data.w	.LDW_66ed7b0
                    4329 
                    4330 .LDW_5c63f30:

                                                                      Page 93
                                                              C:\Users\Fengyuan\AppData\Local\Temp\gh_0000p9o1.s
00000e09 2a         4331 	.data.b	42
00000e0a 4d777342   4332 	.data.b	66,115,119,77,95,82,117,108,101,83,116,97,116,101,115,84,121,112,101,0
00000e0e 6c75525f 
00000e12 61745365 
00000e16 54736574 
00000e1a 00657079 
00000e1e 07e1       4333 	.data.b	225,7
00000e20 0f         4334 	.data.b	15
00000e21 03         4335 	.data.b	3
00000e22 00000000*  4336 	.data.w	.LDW_4a9a4c8
                    4337 
                    4338 .LDW_670a880:
00000e26 2a         4339 	.data.b	42
00000e27 4d777342   4340 	.data.b	66,115,119,77,95,73,100,79,102,82,117,108,101,115,84,121,112,101,0
00000e2b 4f64495f 
00000e2f 6c755266 
00000e33 79547365 
00000e37 006570 
00000e3a 07e4       4341 	.data.b	228,7
00000e3c 0f         4342 	.data.b	15
00000e3d 03         4343 	.data.b	3
00000e3e 00000000*  4344 	.data.w	.LDW_4a9a4c8
                    4345 
                    4346 .LDW_670a8d8:
00000e42 2a         4347 	.data.b	42
00000e43 4d777342   4348 	.data.b	66,115,119,77,95,82,117,108,101,115,73,110,100,84,121,112,101,0
00000e47 6c75525f 
00000e4b 6e497365 
00000e4f 70795464 
00000e53 0065 
00000e55 07ea       4349 	.data.b	234,7
00000e57 0f         4350 	.data.b	15
00000e58 03         4351 	.data.b	3
00000e59 00000000*  4352 	.data.w	.LDW_4a9a4c8
                    4353 
                    4354 .LDW_5c641f0:
00000e5d 2a         4355 	.data.b	42
00000e5e 4d777342   4356 	.data.b	66,115,119,77,95,83,105,122,101,79,102,82,117,108,101,83,116,97,116,101,115,84,121,112,101,0
00000e62 7a69535f 
00000e66 52664f65 
00000e6a 53656c75 
00000e6e 65746174 
00000e72 70795473 
00000e76 0065 
00000e78 08af       4357 	.data.b	175,8
00000e7a 0f         4358 	.data.b	15
00000e7b 03         4359 	.data.b	3
00000e7c 00000000*  4360 	.data.w	.LDW_4a9a4c8
                    4361 
                    4362 .LDW_5c63f88:
00000e80 2a         4363 	.data.b	42
00000e81 4d777342   4364 	.data.b	66,115,119,77,95,83,105,122,101,79,102,84,105,109,101,114,86,97,108,117,101,84,121,112,101,0
00000e85 7a69535f 
00000e89 54664f65 
00000e8d 72656d69 
00000e91 756c6156 
00000e95 70795465 
00000e99 0065 
00000e9b 08be       4365 	.data.b	190,8
00000e9d 0f         4366 	.data.b	15
00000e9e 03         4367 	.data.b	3

                                                                      Page 94
                                                              C:\Users\Fengyuan\AppData\Local\Temp\gh_0000p9o1.s
00000e9f 00000000*  4368 	.data.w	.LDW_4a9a4c8
                    4369 
                    4370 .LDW_670eb68:
00000ea3 2a         4371 	.data.b	42
00000ea4 4d777342   4372 	.data.b	66,115,119,77,95,84,105,109,101,114,83,116,97,116,101,84,121,112,101,0
00000ea8 6d69545f 
00000eac 74537265 
00000eb0 54657461 
00000eb4 00657079 
00000eb8 08c1       4373 	.data.b	193,8
00000eba 0f         4374 	.data.b	15
00000ebb 03         4375 	.data.b	3
00000ebc 00000000*  4376 	.data.w	.LDW_4a9a4c8
                    4377 
                    4378 .LDW_5c63bc0:
00000ec0 2a         4379 	.data.b	42
00000ec1 4d777342   4380 	.data.b	66,115,119,77,95,84,105,109,101,114,86,97,108,117,101,84,121,112,101,0
00000ec5 6d69545f 
00000ec9 61567265 
00000ecd 5465756c 
00000ed1 00657079 
00000ed5 08c4       4381 	.data.b	196,8
00000ed7 10         4382 	.data.b	16
00000ed8 03         4383 	.data.b	3
00000ed9 00000000*  4384 	.data.w	.LDW_5c63ed8
                    4385 
                    4386 .LDW_670f198:
00000edd 42         4387 	.data.b	66
00000ede 77734273   4388 	.data.b	115,66,115,119,77,95,65,99,116,105,111,110,76,105,115,116,115,84,121,112,101,0
00000ee2 63415f4d 
00000ee6 6e6f6974 
00000eea 7473694c 
00000eee 70795473 
00000ef2 0065 
00000ef4 08d0       4389 	.data.b	208,8
00000ef6 10         4390 	.data.b	16
00000ef7 03         4391 	.data.b	3
00000ef8 04         4392 	.data.b	4
00000ef9 01         4393 	.data.b	1
                    4394 
                    4395 .LDW_66ff6d8:
00000efa 25         4396 	.data.b	37
00000efb 50746346   4397 	.data.b	70,99,116,80,116,114,79,102,65,99,116,105,111,110,76,105,115,116,115,0
00000eff 664f7274 
00000f03 69746341 
00000f07 694c6e6f 
00000f0b 00737473 
00000f0f 08d2       4398 	.data.b	210,8
00000f11 1b         4399 	.data.b	27
00000f12 03         4400 	.data.b	3
00000f13 00000000*  4401 	.data.w	.LDW_6709c78
00000f17 2302       4402 	.data.b	2,35
00000f19 00         4403 	.data.b	0
00000f1a 01         4404 	.data.b	1
                    4405 
00000f1b 00         4406 	.data.b	0
                    4407 
                    4408 .LDW_670ec70:
00000f1c 2a         4409 	.data.b	42
00000f1d 4d777342   4410 	.data.b	66,115,119,77,95,65,99,116,105,111,110,76,105,115,116,115,84,121,112,101,0
00000f21 7463415f 

                                                                      Page 95
                                                              C:\Users\Fengyuan\AppData\Local\Temp\gh_0000p9o1.s
00000f25 4c6e6f69 
00000f29 73747369 
00000f2d 65707954 
00000f31 00 
00000f32 08d3       4411 	.data.b	211,8
00000f34 03         4412 	.data.b	3
00000f35 03         4413 	.data.b	3
00000f36 00000000*  4414 	.data.w	.LDW_670f198
                    4415 
                    4416 .LDW_670f2a0:
00000f3a 42         4417 	.data.b	66
00000f3b 77734273   4418 	.data.b	115,66,115,119,77,95,68,101,102,101,114,114,101,100,82,117,108,101,115,84,121,112,101,0
00000f3f 65445f4d 
00000f43 72726566 
00000f47 75526465 
00000f4b 5473656c 
00000f4f 00657079 
00000f53 08e2       4419 	.data.b	226,8
00000f55 10         4420 	.data.b	16
00000f56 03         4421 	.data.b	3
00000f57 01         4422 	.data.b	1
00000f58 01         4423 	.data.b	1
                    4424 
                    4425 .LDW_66fef88:
00000f59 25         4426 	.data.b	37
00000f5a 656c7552   4427 	.data.b	82,117,108,101,115,73,100,120,79,102,68,101,102,101,114,114,101,100,82,117,108,101,115,0
00000f5e 78644973 
00000f62 6544664f 
00000f66 72726566 
00000f6a 75526465 
00000f6e 0073656c 
00000f72 08e4       4428 	.data.b	228,8
00000f74 24         4429 	.data.b	36
00000f75 03         4430 	.data.b	3
00000f76 00000000*  4431 	.data.w	.LDW_670a098
00000f7a 2302       4432 	.data.b	2,35
00000f7c 00         4433 	.data.b	0
00000f7d 01         4434 	.data.b	1
                    4435 
00000f7e 00         4436 	.data.b	0
                    4437 
                    4438 .LDW_670f770:
00000f7f 2a         4439 	.data.b	42
00000f80 4d777342   4440 	.data.b	66,115,119,77,95,68,101,102,101,114,114,101,100,82,117,108,101,115,84,121,112,101,0
00000f84 6665445f 
00000f88 65727265 
00000f8c 6c755264 
00000f90 79547365 
00000f94 006570 
00000f97 08e5       4441 	.data.b	229,8
00000f99 03         4442 	.data.b	3
00000f9a 03         4443 	.data.b	3
00000f9b 00000000*  4444 	.data.w	.LDW_670f2a0
                    4445 
                    4446 .LDW_670fdf8:
00000f9f 42         4447 	.data.b	66
00000fa0 77734273   4448 	.data.b	115,66,115,119,77,95,71,101,110,101,114,105,99,77,97,112,112,105,110,103,84,121,112,101,0
00000fa4 65475f4d 
00000fa8 6972656e 
00000fac 70614d63 
00000fb0 676e6970 

                                                                      Page 96
                                                              C:\Users\Fengyuan\AppData\Local\Temp\gh_0000p9o1.s
00000fb4 65707954 
00000fb8 00 
00000fb9 08e8       4449 	.data.b	232,8
00000fbb 10         4450 	.data.b	16
00000fbc 03         4451 	.data.b	3
00000fbd 08         4452 	.data.b	8
00000fbe 01         4453 	.data.b	1
                    4454 
                    4455 .LDW_66ff258:
00000fbf 25         4456 	.data.b	37
00000fc0 65747845   4457 	.data.b	69,120,116,101,114,110,97,108,73,100,79,102,71,101,110,101,114,105,99,77,97,112,112,105,110,103,0
00000fc4 6c616e72 
00000fc8 664f6449 
00000fcc 656e6547 
00000fd0 4d636972 
00000fd4 69707061 
00000fd8 00676e 
00000fdb 08ea       4458 	.data.b	234,8
00000fdd 27         4459 	.data.b	39
00000fde 03         4460 	.data.b	3
00000fdf 00000000*  4461 	.data.w	.LDW_670a9e0
00000fe3 2302       4462 	.data.b	2,35
00000fe5 00         4463 	.data.b	0
00000fe6 01         4464 	.data.b	1
                    4465 
                    4466 .LDW_66feef8:
00000fe7 25         4467 	.data.b	37
00000fe8 656d6d49   4468 	.data.b	73,109,109,101,100,105,97,116,101,85,115,101,114,69,110,100,73,100,120,79,102,71,101,110,101,114,105,99,77,97,112,112,105,110,103,0
00000fec 74616964 
00000ff0 65735565 
00000ff4 646e4572 
00000ff8 4f786449 
00000ffc 6e654766 
00001000 63697265 
00001004 7070614d 
00001008 00676e69 
0000100c 08eb       4469 	.data.b	235,8
0000100e 30         4470 	.data.b	48
0000100f 03         4471 	.data.b	3
00001010 00000000*  4472 	.data.w	.LDW_670a510
00001014 2302       4473 	.data.b	2,35
00001016 04         4474 	.data.b	4
00001017 01         4475 	.data.b	1
                    4476 
                    4477 .LDW_66ff2a0:
00001018 25         4478 	.data.b	37
00001019 656d6d49   4479 	.data.b	73,109,109,101,100,105,97,116,101,85,115,101,114,83,116,97,114,116,73,100,120,79,102,71,101,110,101,114,105,99,77,97,112,112,105,110,103,0
0000101d 74616964 
00001021 65735565 
00001025 61745372 
00001029 64497472 
0000102d 47664f78 
00001031 72656e65 
00001035 614d6369 
00001039 6e697070 
0000103d 0067 
0000103f 08ec       4480 	.data.b	236,8
00001041 32         4481 	.data.b	50
00001042 03         4482 	.data.b	3
00001043 00000000*  4483 	.data.w	.LDW_670a358
00001047 2302       4484 	.data.b	2,35

                                                                      Page 97
                                                              C:\Users\Fengyuan\AppData\Local\Temp\gh_0000p9o1.s
00001049 05         4485 	.data.b	5
0000104a 01         4486 	.data.b	1
                    4487 
                    4488 .LDW_66feeb0:
0000104b 25         4489 	.data.b	37
0000104c 74696e49   4490 	.data.b	73,110,105,116,86,97,108,117,101,79,102,71,101,110,101,114,105,99,77,97,112,112,105,110,103,0
00001050 756c6156 
00001054 47664f65 
00001058 72656e65 
0000105c 614d6369 
00001060 6e697070 
00001064 0067 
00001066 08ed       4491 	.data.b	237,8
00001068 11         4492 	.data.b	17
00001069 03         4493 	.data.b	3
0000106a 00000000*  4494 	.data.w	.LDW_6709d80
0000106e 2302       4495 	.data.b	2,35
00001070 06         4496 	.data.b	6
00001071 01         4497 	.data.b	1
                    4498 
00001072 00         4499 	.data.b	0
                    4500 
                    4501 .LDW_670f928:
00001073 2a         4502 	.data.b	42
00001074 4d777342   4503 	.data.b	66,115,119,77,95,71,101,110,101,114,105,99,77,97,112,112,105,110,103,84,121,112,101,0
00001078 6e65475f 
0000107c 63697265 
00001080 7070614d 
00001084 54676e69 
00001088 00657079 
0000108c 08ee       4504 	.data.b	238,8
0000108e 03         4505 	.data.b	3
0000108f 03         4506 	.data.b	3
00001090 00000000*  4507 	.data.w	.LDW_670fdf8
                    4508 
                    4509 .LDW_670fd48:
00001094 42         4510 	.data.b	66
00001095 77734273   4511 	.data.b	115,66,115,119,77,95,73,109,109,101,100,105,97,116,101,85,115,101,114,84,121,112,101,0
00001099 6d495f4d 
0000109d 6964656d 
000010a1 55657461 
000010a5 54726573 
000010a9 00657079 
000010ad 08f1       4512 	.data.b	241,8
000010af 10         4513 	.data.b	16
000010b0 03         4514 	.data.b	3
000010b1 03         4515 	.data.b	3
000010b2 01         4516 	.data.b	1
                    4517 
                    4518 .LDW_66fefd0:
000010b3 25         4519 	.data.b	37
000010b4 6b73614d   4520 	.data.b	77,97,115,107,101,100,66,105,116,115,79,102,73,109,109,101,100,105,97,116,101,85,115,101,114,0
000010b8 69426465 
000010bc 664f7374 
000010c0 656d6d49 
000010c4 74616964 
000010c8 65735565 
000010cc 0072 
000010ce 08f3       4521 	.data.b	243,8
000010d0 26         4522 	.data.b	38
000010d1 03         4523 	.data.b	3

                                                                      Page 98
                                                              C:\Users\Fengyuan\AppData\Local\Temp\gh_0000p9o1.s
000010d2 00000000*  4524 	.data.w	.LDW_670a6c8
000010d6 2302       4525 	.data.b	2,35
000010d8 00         4526 	.data.b	0
000010d9 01         4527 	.data.b	1
                    4528 
                    4529 .LDW_66ff180:
000010da 25         4530 	.data.b	37
000010db 656c7552   4531 	.data.b	82,117,108,101,115,73,110,100,69,110,100,73,100,120,79,102,73,109,109,101,100,105,97,116,101,85,115,101,114,0
000010df 646e4973 
000010e3 49646e45 
000010e7 664f7864 
000010eb 656d6d49 
000010ef 74616964 
000010f3 65735565 
000010f7 0072 
000010f9 08f4       4532 	.data.b	244,8
000010fb 2a         4533 	.data.b	42
000010fc 03         4534 	.data.b	3
000010fd 00000000*  4535 	.data.w	.LDW_670aae8
00001101 2302       4536 	.data.b	2,35
00001103 01         4537 	.data.b	1
00001104 01         4538 	.data.b	1
                    4539 
                    4540 .LDW_66ff2e8:
00001105 25         4541 	.data.b	37
00001106 656c7552   4542 	.data.b	82,117,108,101,115,73,110,100,83,116,97,114,116,73,100,120,79,102,73,109,109,101,100,105,97,116,101,85,115,101,114,0
0000110a 646e4973 
0000110e 72617453 
00001112 78644974 
00001116 6d49664f 
0000111a 6964656d 
0000111e 55657461 
00001122 00726573 
00001126 08f5       4543 	.data.b	245,8
00001128 2c         4544 	.data.b	44
00001129 03         4545 	.data.b	3
0000112a 00000000*  4546 	.data.w	.LDW_670a3b0
0000112e 2302       4547 	.data.b	2,35
00001130 02         4548 	.data.b	2
00001131 01         4549 	.data.b	1
                    4550 
00001132 00         4551 	.data.b	0
                    4552 
                    4553 .LDW_670f820:
00001133 2a         4554 	.data.b	42
00001134 4d777342   4555 	.data.b	66,115,119,77,95,73,109,109,101,100,105,97,116,101,85,115,101,114,84,121,112,101,0
00001138 6d6d495f 
0000113c 61696465 
00001140 73556574 
00001144 79547265 
00001148 006570 
0000114b 08f6       4556 	.data.b	246,8
0000114d 03         4557 	.data.b	3
0000114e 03         4558 	.data.b	3
0000114f 00000000*  4559 	.data.w	.LDW_670fd48
                    4560 
                    4561 .LDW_670fb90:
00001153 42         4562 	.data.b	66
00001154 77734273   4563 	.data.b	115,66,115,119,77,95,82,117,108,101,115,84,121,112,101,0
00001158 75525f4d 
0000115c 5473656c 

                                                                      Page 99
                                                              C:\Users\Fengyuan\AppData\Local\Temp\gh_0000p9o1.s
00001160 00657079 
00001164 08f9       4564 	.data.b	249,8
00001166 10         4565 	.data.b	16
00001167 03         4566 	.data.b	3
00001168 08         4567 	.data.b	8
00001169 01         4568 	.data.b	1
                    4569 
                    4570 .LDW_66ff840:
0000116a 25         4571 	.data.b	37
0000116b 664f6449   4572 	.data.b	73,100,79,102,82,117,108,101,115,0
0000116f 656c7552 
00001173 0073 
00001175 08fb       4573 	.data.b	251,8
00001177 16         4574 	.data.b	22
00001178 03         4575 	.data.b	3
00001179 00000000*  4576 	.data.w	.LDW_670a880
0000117d 2302       4577 	.data.b	2,35
0000117f 00         4578 	.data.b	0
00001180 01         4579 	.data.b	1
                    4580 
                    4581 .LDW_66ff8d0:
00001181 25         4582 	.data.b	37
00001182 50746346   4583 	.data.b	70,99,116,80,116,114,79,102,82,117,108,101,115,0
00001186 664f7274 
0000118a 656c7552 
0000118e 0073 
00001190 08fc       4584 	.data.b	252,8
00001192 1c         4585 	.data.b	28
00001193 03         4586 	.data.b	3
00001194 00000000*  4587 	.data.w	.LDW_6709f38
00001198 2302       4588 	.data.b	2,35
0000119a 04         4589 	.data.b	4
0000119b 01         4590 	.data.b	1
                    4591 
0000119c 00         4592 	.data.b	0
                    4593 
                    4594 .LDW_670fa30:
0000119d 2a         4595 	.data.b	42
0000119e 4d777342   4596 	.data.b	66,115,119,77,95,82,117,108,101,115,84,121,112,101,0
000011a2 6c75525f 
000011a6 79547365 
000011aa 006570 
000011ad 08fd       4597 	.data.b	253,8
000011af 03         4598 	.data.b	3
000011b0 03         4599 	.data.b	3
000011b1 00000000*  4600 	.data.w	.LDW_670fb90
                    4601 
                    4602 .LDW_670f980:
000011b5 42         4603 	.data.b	66
000011b6 77734273   4604 	.data.b	115,66,115,119,77,95,82,117,108,101,115,79,102,67,111,110,102,105,103,84,121,112,101,0
000011ba 75525f4d 
000011be 4f73656c 
000011c2 6e6f4366 
000011c6 54676966 
000011ca 00657079 
000011ce 0980       4605 	.data.b	128,9
000011d0 10         4606 	.data.b	16
000011d1 03         4607 	.data.b	3
000011d2 04         4608 	.data.b	4
000011d3 01         4609 	.data.b	1
                    4610 

                                                                      Page 100
                                                              C:\Users\Fengyuan\AppData\Local\Temp\gh_0000p9o1.s
                    4611 .LDW_66ff888:
000011d4 25         4612 	.data.b	37
000011d5 74696e49   4613 	.data.b	73,110,105,116,65,99,116,105,111,110,115,79,102,82,117,108,101,115,79,102,67,111,110,102,105,103,0
000011d9 69746341 
000011dd 4f736e6f 
000011e1 6c755266 
000011e5 664f7365 
000011e9 666e6f43 
000011ed 006769 
000011f0 0982       4614 	.data.b	130,9
000011f2 1b         4615 	.data.b	27
000011f3 03         4616 	.data.b	3
000011f4 00000000*  4617 	.data.w	.LDW_6709540
000011f8 2302       4618 	.data.b	2,35
000011fa 00         4619 	.data.b	0
000011fb 01         4620 	.data.b	1
                    4621 
000011fc 00         4622 	.data.b	0
                    4623 
                    4624 .LDW_670f7c8:
000011fd 2a         4625 	.data.b	42
000011fe 4d777342   4626 	.data.b	66,115,119,77,95,82,117,108,101,115,79,102,67,111,110,102,105,103,84,121,112,101,0
00001202 6c75525f 
00001206 664f7365 
0000120a 666e6f43 
0000120e 79546769 
00001212 006570 
00001215 0983       4627 	.data.b	131,9
00001217 03         4628 	.data.b	3
00001218 03         4629 	.data.b	3
00001219 00000000*  4630 	.data.w	.LDW_670f980
                    4631 
                    4632 .LDW_670f610:
0000121d 42         4633 	.data.b	66
0000121e 77734273   4634 	.data.b	115,66,115,119,77,95,65,99,116,105,111,110,76,105,115,116,81,117,101,117,101,83,116,114,117,99,116,84,97,103,0
00001222 63415f4d 
00001226 6e6f6974 
0000122a 7473694c 
0000122e 75657551 
00001232 72745365 
00001236 54746375 
0000123a 006761 
0000123d 098f       4635 	.data.b	143,9
0000123f 10         4636 	.data.b	16
00001240 03         4637 	.data.b	3
00001241 14         4638 	.data.b	20
00001242 01         4639 	.data.b	1
                    4640 
                    4641 .LDW_66ffc30:
00001243 25         4642 	.data.b	37
00001244 435f4c41   4643 	.data.b	65,76,95,67,67,95,65,76,95,67,78,95,67,65,78,48,48,95,53,101,53,54,54,97,100,57,95,82,88,95,68,105,115,97,98,108,101,0
00001248 4c415f43 
0000124c 5f4e435f 
00001250 304e4143 
00001254 65355f30 
00001258 61363635 
0000125c 525f3964 
00001260 69445f58 
00001264 6c626173 
00001268 0065 
0000126a 0991       4644 	.data.b	145,9

                                                                      Page 101
                                                              C:\Users\Fengyuan\AppData\Local\Temp\gh_0000p9o1.s
0000126c 1c         4645 	.data.b	28
0000126d 03         4646 	.data.b	3
0000126e 00000000*  4647 	.data.w	.LDW_6704d08
00001272 2302       4648 	.data.b	2,35
00001274 00         4649 	.data.b	0
00001275 01         4650 	.data.b	1
                    4651 
                    4652 .LDW_66fff00:
00001276 25         4653 	.data.b	37
00001277 435f4c41   4654 	.data.b	65,76,95,67,67,95,65,76,95,67,78,95,67,65,78,48,48,95,53,101,53,54,54,97,100,57,95,82,88,95,69,110,97,98,108,101,78,111,105,110,105,116,0
0000127b 4c415f43 
0000127f 5f4e435f 
00001283 304e4143 
00001287 65355f30 
0000128b 61363635 
0000128f 525f3964 
00001293 6e455f58 
00001297 656c6261 
0000129b 6e696f4e 
0000129f 007469 
000012a2 0992       4655 	.data.b	146,9
000012a4 1c         4656 	.data.b	28
000012a5 03         4657 	.data.b	3
000012a6 00000000*  4658 	.data.w	.LDW_67048c8
000012aa 2302       4659 	.data.b	2,35
000012ac 01         4660 	.data.b	1
000012ad 01         4661 	.data.b	1
                    4662 
                    4663 .LDW_66ffb10:
000012ae 25         4664 	.data.b	37
000012af 435f4c41   4665 	.data.b	65,76,95,67,67,95,65,76,95,67,78,95,67,65,78,48,48,95,53,101,53,54,54,97,100,57,95,84,88,95,68,105,115,97,98,108,101,0
000012b3 4c415f43 
000012b7 5f4e435f 
000012bb 304e4143 
000012bf 65355f30 
000012c3 61363635 
000012c7 545f3964 
000012cb 69445f58 
000012cf 6c626173 
000012d3 0065 
000012d5 0993       4666 	.data.b	147,9
000012d7 1c         4667 	.data.b	28
000012d8 03         4668 	.data.b	3
000012d9 00000000*  4669 	.data.w	.LDW_6704b70
000012dd 2302       4670 	.data.b	2,35
000012df 02         4671 	.data.b	2
000012e0 01         4672 	.data.b	1
                    4673 
                    4674 .LDW_66fffd8:
000012e1 25         4675 	.data.b	37
000012e2 435f4c41   4676 	.data.b	65,76,95,67,67,95,65,76,95,67,78,95,67,65,78,48,48,95,53,101,53,54,54,97,100,57,95,84,88,95,69,110,97,98,108,101,78,111,105,110,105,116,0
000012e6 4c415f43 
000012ea 5f4e435f 
000012ee 304e4143 
000012f2 65355f30 
000012f6 61363635 
000012fa 545f3964 
000012fe 6e455f58 
00001302 656c6261 
00001306 6e696f4e 
0000130a 007469 

                                                                      Page 102
                                                              C:\Users\Fengyuan\AppData\Local\Temp\gh_0000p9o1.s
0000130d 0994       4677 	.data.b	148,9
0000130f 1c         4678 	.data.b	28
00001310 03         4679 	.data.b	3
00001311 00000000*  4680 	.data.w	.LDW_6704d90
00001315 2302       4681 	.data.b	2,35
00001317 03         4682 	.data.b	3
00001318 01         4683 	.data.b	1
                    4684 
                    4685 .LDW_66fff48:
00001319 25         4686 	.data.b	37
0000131a 435f4c41   4687 	.data.b	65,76,95,67,67,95,65,76,95,67,78,95,67,65,78,48,48,95,53,101,53,54,54,97,100,57,95,68,105,115,97,98,108,101,95,68,77,0
0000131e 4c415f43 
00001322 5f4e435f 
00001326 304e4143 
0000132a 65355f30 
0000132e 61363635 
00001332 445f3964 
00001336 62617369 
0000133a 445f656c 
0000133e 004d 
00001340 0995       4688 	.data.b	149,9
00001342 1c         4689 	.data.b	28
00001343 03         4690 	.data.b	3
00001344 00000000*  4691 	.data.w	.LDW_6704620
00001348 2302       4692 	.data.b	2,35
0000134a 04         4693 	.data.b	4
0000134b 01         4694 	.data.b	1
                    4695 
                    4696 .LDW_66ffe70:
0000134c 25         4697 	.data.b	37
0000134d 435f4c41   4698 	.data.b	65,76,95,67,67,95,65,76,95,67,78,95,67,65,78,48,48,95,53,101,53,54,54,97,100,57,95,69,110,97,98,108,101,95,68,77,0
00001351 4c415f43 
00001355 5f4e435f 
00001359 304e4143 
0000135d 65355f30 
00001361 61363635 
00001365 455f3964 
00001369 6c62616e 
0000136d 4d445f65 
00001371 00 
00001372 0996       4699 	.data.b	150,9
00001374 1c         4700 	.data.b	28
00001375 03         4701 	.data.b	3
00001376 00000000*  4702 	.data.w	.LDW_6704e18
0000137a 2302       4703 	.data.b	2,35
0000137c 05         4704 	.data.b	5
0000137d 01         4705 	.data.b	1
                    4706 
                    4707 .LDW_66ffeb8:
0000137e 25         4708 	.data.b	37
0000137f 495f4c41   4709 	.data.b	65,76,95,73,78,73,84,95,65,76,95,73,110,105,116,105,97,108,105,122,101,0
00001383 5f54494e 
00001387 495f4c41 
0000138b 6974696e 
0000138f 7a696c61 
00001393 0065 
00001395 0997       4710 	.data.b	151,9
00001397 1c         4711 	.data.b	28
00001398 03         4712 	.data.b	3
00001399 00000000*  4713 	.data.w	.LDW_6704c80
0000139d 2302       4714 	.data.b	2,35

                                                                      Page 103
                                                              C:\Users\Fengyuan\AppData\Local\Temp\gh_0000p9o1.s
0000139f 06         4715 	.data.b	6
000013a0 01         4716 	.data.b	1
                    4717 
                    4718 .LDW_66ff918:
000013a1 25         4719 	.data.b	37
000013a2 455f4c41   4720 	.data.b	65,76,95,69,83,72,95,65,76,95,69,120,105,116,82,117,110,0
000013a6 415f4853 
000013aa 78455f4c 
000013ae 75527469 
000013b2 006e 
000013b4 0998       4721 	.data.b	152,9
000013b6 1c         4722 	.data.b	28
000013b7 03         4723 	.data.b	3
000013b8 00000000*  4724 	.data.w	.LDW_6705038
000013bc 2302       4725 	.data.b	2,35
000013be 07         4726 	.data.b	7
000013bf 01         4727 	.data.b	1
                    4728 
                    4729 .LDW_66ff7b0:
000013c0 25         4730 	.data.b	37
000013c1 455f4c41   4731 	.data.b	65,76,95,69,83,72,95,65,76,95,82,117,110,84,111,80,111,115,116,82,117,110,0
000013c5 415f4853 
000013c9 75525f4c 
000013cd 506f546e 
000013d1 5274736f 
000013d5 006e75 
000013d8 0999       4732 	.data.b	153,9
000013da 1c         4733 	.data.b	28
000013db 03         4734 	.data.b	3
000013dc 00000000*  4735 	.data.w	.LDW_6704730
000013e0 2302       4736 	.data.b	2,35
000013e2 08         4737 	.data.b	8
000013e3 01         4738 	.data.b	1
                    4739 
                    4740 .LDW_66ffb58:
000013e4 25         4741 	.data.b	37
000013e5 455f4c41   4742 	.data.b	65,76,95,69,83,72,95,65,76,95,87,97,105,116,70,111,114,78,118,77,84,111,83,104,117,116,100,111,119,110,0
000013e9 415f4853 
000013ed 61575f4c 
000013f1 6f467469 
000013f5 4d764e72 
000013f9 68536f54 
000013fd 6f647475 
00001401 006e77 
00001404 099a       4743 	.data.b	154,9
00001406 1c         4744 	.data.b	28
00001407 03         4745 	.data.b	3
00001408 00000000*  4746 	.data.w	.LDW_6704ea0
0000140c 2302       4747 	.data.b	2,35
0000140e 09         4748 	.data.b	9
0000140f 01         4749 	.data.b	1
                    4750 
                    4751 .LDW_66ff9f0:
00001410 25         4752 	.data.b	37
00001411 455f4c41   4753 	.data.b	65,76,95,69,83,72,95,65,76,95,87,97,107,101,117,112,84,111,80,114,101,112,0
00001415 415f4853 
00001419 61575f4c 
0000141d 7075656b 
00001421 72506f54 
00001425 007065 
00001428 099b       4754 	.data.b	155,9

                                                                      Page 104
                                                              C:\Users\Fengyuan\AppData\Local\Temp\gh_0000p9o1.s
0000142a 1c         4755 	.data.b	28
0000142b 03         4756 	.data.b	3
0000142c 00000000*  4757 	.data.w	.LDW_6704598
00001430 2302       4758 	.data.b	2,35
00001432 0a         4759 	.data.b	10
00001433 01         4760 	.data.b	1
                    4761 
                    4762 .LDW_66ffd50:
00001434 25         4763 	.data.b	37
00001435 455f4c41   4764 	.data.b	65,76,95,69,83,72,95,65,76,95,87,97,105,116,70,111,114,78,118,77,87,97,107,101,117,112,0
00001439 415f4853 
0000143d 61575f4c 
00001441 6f467469 
00001445 4d764e72 
00001449 656b6157 
0000144d 007075 
00001450 099c       4765 	.data.b	156,9
00001452 1c         4766 	.data.b	28
00001453 03         4767 	.data.b	3
00001454 00000000*  4768 	.data.w	.LDW_67050c0
00001458 2302       4769 	.data.b	2,35
0000145a 0b         4770 	.data.b	11
0000145b 01         4771 	.data.b	1
                    4772 
                    4773 .LDW_66ffe28:
0000145c 25         4774 	.data.b	37
0000145d 455f4c41   4775 	.data.b	65,76,95,69,83,72,95,65,76,95,87,97,107,101,117,112,84,111,82,117,110,0
00001461 415f4853 
00001465 61575f4c 
00001469 7075656b 
0000146d 75526f54 
00001471 006e 
00001473 099d       4776 	.data.b	157,9
00001475 1c         4777 	.data.b	28
00001476 03         4778 	.data.b	3
00001477 00000000*  4779 	.data.w	.LDW_6704f28
0000147b 2302       4780 	.data.b	2,35
0000147d 0c         4781 	.data.b	12
0000147e 01         4782 	.data.b	1
                    4783 
                    4784 .LDW_66ff960:
0000147f 25         4785 	.data.b	37
00001480 455f4c41   4786 	.data.b	65,76,95,69,83,72,95,65,76,95,68,101,109,73,110,105,116,0
00001484 415f4853 
00001488 65445f4c 
0000148c 696e496d 
00001490 0074 
00001492 099e       4787 	.data.b	158,9
00001494 1c         4788 	.data.b	28
00001495 03         4789 	.data.b	3
00001496 00000000*  4790 	.data.w	.LDW_6704950
0000149a 2302       4791 	.data.b	2,35
0000149c 0d         4792 	.data.b	13
0000149d 01         4793 	.data.b	1
                    4794 
                    4795 .LDW_66ffac8:
0000149e 25         4796 	.data.b	37
0000149f 455f4c41   4797 	.data.b	65,76,95,69,83,72,95,65,76,95,73,110,105,116,84,111,87,97,107,101,117,112,0
000014a3 415f4853 
000014a7 6e495f4c 
000014ab 6f547469 

                                                                      Page 105
                                                              C:\Users\Fengyuan\AppData\Local\Temp\gh_0000p9o1.s
000014af 656b6157 
000014b3 007075 
000014b6 099f       4798 	.data.b	159,9
000014b8 1c         4799 	.data.b	28
000014b9 03         4800 	.data.b	3
000014ba 00000000*  4801 	.data.w	.LDW_6705148
000014be 2302       4802 	.data.b	2,35
000014c0 0e         4803 	.data.b	14
000014c1 01         4804 	.data.b	1
                    4805 
                    4806 .LDW_66ff720:
000014c2 25         4807 	.data.b	37
000014c3 455f4c41   4808 	.data.b	65,76,95,69,83,72,95,65,76,95,80,111,115,116,82,117,110,84,111,80,114,101,112,83,104,117,116,100,111,119,110,0
000014c7 415f4853 
000014cb 6f505f4c 
000014cf 75527473 
000014d3 506f546e 
000014d7 53706572 
000014db 64747568 
000014df 006e776f 
000014e3 09a0       4809 	.data.b	160,9
000014e5 1c         4810 	.data.b	28
000014e6 03         4811 	.data.b	3
000014e7 00000000*  4812 	.data.w	.LDW_67052e0
000014eb 2302       4813 	.data.b	2,35
000014ed 0f         4814 	.data.b	15
000014ee 01         4815 	.data.b	1
                    4816 
                    4817 .LDW_66ffc78:
000014ef 25         4818 	.data.b	37
000014f0 455f4c41   4819 	.data.b	65,76,95,69,83,72,95,65,76,95,69,83,72,95,80,111,115,116,82,117,110,84,111,80,114,101,112,67,104,101,99,107,0
000014f4 415f4853 
000014f8 53455f4c 
000014fc 6f505f48 
00001500 75527473 
00001504 506f546e 
00001508 43706572 
0000150c 6b636568 
00001510 00 
00001511 09a1       4820 	.data.b	161,9
00001513 1c         4821 	.data.b	28
00001514 03         4822 	.data.b	3
00001515 00000000*  4823 	.data.w	.LDW_6705368
00001519 2302       4824 	.data.b	2,35
0000151b 10         4825 	.data.b	16
0000151c 01         4826 	.data.b	1
                    4827 
                    4828 .LDW_66ffba0:
0000151d 25         4829 	.data.b	37
0000151e 455f4c41   4830 	.data.b	65,76,95,69,83,72,95,65,76,95,80,111,115,116,82,117,110,84,111,82,117,110,0
00001522 415f4853 
00001526 6f505f4c 
0000152a 75527473 
0000152e 526f546e 
00001532 006e75 
00001535 09a2       4831 	.data.b	162,9
00001537 1c         4832 	.data.b	28
00001538 03         4833 	.data.b	3
00001539 00000000*  4834 	.data.w	.LDW_6712870
0000153d 2302       4835 	.data.b	2,35
0000153f 11         4836 	.data.b	17

                                                                      Page 106
                                                              C:\Users\Fengyuan\AppData\Local\Temp\gh_0000p9o1.s
00001540 01         4837 	.data.b	1
                    4838 
                    4839 .LDW_66fff90:
00001541 25         4840 	.data.b	37
00001542 455f4c41   4841 	.data.b	65,76,95,69,83,72,95,65,76,95,69,120,105,116,80,111,115,116,82,117,110,0
00001546 415f4853 
0000154a 78455f4c 
0000154e 6f507469 
00001552 75527473 
00001556 006e 
00001558 09a3       4842 	.data.b	163,9
0000155a 1c         4843 	.data.b	28
0000155b 03         4844 	.data.b	3
0000155c 00000000*  4845 	.data.w	.LDW_6712760
00001560 2302       4846 	.data.b	2,35
00001562 12         4847 	.data.b	18
00001563 01         4848 	.data.b	1
                    4849 
                    4850 .LDW_66ff9a8:
00001564 25         4851 	.data.b	37
00001565 455f4c41   4852 	.data.b	65,76,95,69,83,72,95,65,76,95,80,114,101,112,83,104,117,116,100,111,119,110,84,111,87,97,105,116,70,111,114,78,118,77,0
00001569 415f4853 
0000156d 72505f4c 
00001571 68537065 
00001575 6f647475 
00001579 6f546e77 
0000157d 74696157 
00001581 4e726f46 
00001585 004d76 
00001588 09a4       4853 	.data.b	164,9
0000158a 1c         4854 	.data.b	28
0000158b 03         4855 	.data.b	3
0000158c 00000000*  4856 	.data.w	.LDW_6712210
00001590 2302       4857 	.data.b	2,35
00001592 13         4858 	.data.b	19
00001593 01         4859 	.data.b	1
                    4860 
00001594 00         4861 	.data.b	0
                    4862 
                    4863 .LDW_670f9d8:
00001595 2a         4864 	.data.b	42
00001596 77734273   4865 	.data.b	115,66,115,119,77,95,65,99,116,105,111,110,76,105,115,116,81,117,101,117,101,83,116,114,117,99,116,84,121,112,101,0
0000159a 63415f4d 
0000159e 6e6f6974 
000015a2 7473694c 
000015a6 75657551 
000015aa 72745365 
000015ae 54746375 
000015b2 00657079 
000015b6 09a5       4866 	.data.b	165,9
000015b8 03         4867 	.data.b	3
000015b9 03         4868 	.data.b	3
000015ba 00000000*  4869 	.data.w	.LDW_670f610
                    4870 
                    4871 .LDW_670fb38:
000015be 42         4872 	.data.b	66
000015bf 77734273   4873 	.data.b	115,66,115,119,77,95,84,105,109,101,114,83,116,97,116,101,83,116,114,117,99,116,84,97,103,0
000015c3 69545f4d 
000015c7 5372656d 
000015cb 65746174 
000015cf 75727453 

                                                                      Page 107
                                                              C:\Users\Fengyuan\AppData\Local\Temp\gh_0000p9o1.s
000015d3 61547463 
000015d7 0067 
000015d9 09a8       4874 	.data.b	168,9
000015db 10         4875 	.data.b	16
000015dc 03         4876 	.data.b	3
000015dd 01         4877 	.data.b	1
000015de 01         4878 	.data.b	1
                    4879 
                    4880 .LDW_66ffbe8:
000015df 25         4881 	.data.b	37
000015e0 5f50524d   4882 	.data.b	77,82,80,95,69,83,72,95,83,101,108,102,82,117,110,82,101,113,117,101,115,116,84,105,109,101,114,0
000015e4 5f485345 
000015e8 666c6553 
000015ec 526e7552 
000015f0 65757165 
000015f4 69547473 
000015f8 0072656d 
000015fc 09aa       4883 	.data.b	170,9
000015fe 17         4884 	.data.b	23
000015ff 03         4885 	.data.b	3
00001600 00000000*  4886 	.data.w	.LDW_6712430
00001604 2302       4887 	.data.b	2,35
00001606 00         4888 	.data.b	0
00001607 01         4889 	.data.b	1
                    4890 
00001608 00         4891 	.data.b	0
                    4892 
                    4893 .LDW_670f878:
00001609 2a         4894 	.data.b	42
0000160a 77734273   4895 	.data.b	115,66,115,119,77,95,84,105,109,101,114,83,116,97,116,101,83,116,114,117,99,116,84,121,112,101,0
0000160e 69545f4d 
00001612 5372656d 
00001616 65746174 
0000161a 75727453 
0000161e 79547463 
00001622 006570 
00001625 09ab       4896 	.data.b	171,9
00001627 03         4897 	.data.b	3
00001628 03         4898 	.data.b	3
00001629 00000000*  4899 	.data.w	.LDW_670fb38
                    4900 
                    4901 .LDW_670f4b0:
0000162d 42         4902 	.data.b	66
0000162e 77734273   4903 	.data.b	115,66,115,119,77,95,84,105,109,101,114,86,97,108,117,101,83,116,114,117,99,116,84,97,103,0
00001632 69545f4d 
00001636 5672656d 
0000163a 65756c61 
0000163e 75727453 
00001642 61547463 
00001646 0067 
00001648 09ae       4904 	.data.b	174,9
0000164a 10         4905 	.data.b	16
0000164b 03         4906 	.data.b	3
0000164c 04         4907 	.data.b	4
0000164d 01         4908 	.data.b	1
                    4909 
                    4910 .LDW_66ffa38:
0000164e 25         4911 	.data.b	37
0000164f 5f50524d   4912 	.data.b	77,82,80,95,69,83,72,95,83,101,108,102,82,117,110,82,101,113,117,101,115,116,84,105,109,101,114,0
00001653 5f485345 
00001657 666c6553 

                                                                      Page 108
                                                              C:\Users\Fengyuan\AppData\Local\Temp\gh_0000p9o1.s
0000165b 526e7552 
0000165f 65757165 
00001663 69547473 
00001667 0072656d 
0000166b 09b0       4913 	.data.b	176,9
0000166d 17         4914 	.data.b	23
0000166e 03         4915 	.data.b	3
0000166f 00000000*  4916 	.data.w	.LDW_67127e8
00001673 2302       4917 	.data.b	2,35
00001675 00         4918 	.data.b	0
00001676 01         4919 	.data.b	1
                    4920 
00001677 00         4921 	.data.b	0
                    4922 
                    4923 .LDW_670f668:
00001678 2a         4924 	.data.b	42
00001679 77734273   4925 	.data.b	115,66,115,119,77,95,84,105,109,101,114,86,97,108,117,101,83,116,114,117,99,116,84,121,112,101,0
0000167d 69545f4d 
00001681 5672656d 
00001685 65756c61 
00001689 75727453 
0000168d 79547463 
00001691 006570 
00001694 09b1       4926 	.data.b	177,9
00001696 03         4927 	.data.b	3
00001697 03         4928 	.data.b	3
00001698 00000000*  4929 	.data.w	.LDW_670f4b0
                    4930 
                    4931 .LDW_670f5b8:
0000169c 44         4932 	.data.b	68
0000169d 77734275   4933 	.data.b	117,66,115,119,77,95,65,99,116,105,111,110,76,105,115,116,81,117,101,117,101,84,97,103,0
000016a1 63415f4d 
000016a5 6e6f6974 
000016a9 7473694c 
000016ad 75657551 
000016b1 67615465 
000016b5 00 
000016b6 09bd       4934 	.data.b	189,9
000016b8 0f         4935 	.data.b	15
000016b9 03         4936 	.data.b	3
000016ba 14         4937 	.data.b	20
000016bb 01         4938 	.data.b	1
                    4939 
                    4940 	.section	.debug_abbrev
000000b4 44         4941 	.data.b	68
000000b5 17         4942 	.data.b	23
000000b6 01         4943 	.data.b	1
000000b7 0803       4944 	.data.b	3,8
000000b9 0f3b       4945 	.data.b	59,15
000000bb 0f39       4946 	.data.b	57,15
000000bd 0f3a       4947 	.data.b	58,15
000000bf 0f0b       4948 	.data.b	11,15
000000c1 0b32       4949 	.data.b	50,11
000000c3 0000       4950 	.data.b	0,0
                    4951 
                    4952 	.section	.debug_info
                    4953 .LDW_66ffa80:
000016bc 25         4954 	.data.b	37
000016bd 00776172   4955 	.data.b	114,97,119,0
000016c1 09bf       4956 	.data.b	191,9
000016c3 1c         4957 	.data.b	28

                                                                      Page 109
                                                              C:\Users\Fengyuan\AppData\Local\Temp\gh_0000p9o1.s
000016c4 03         4958 	.data.b	3
000016c5 00000000*  4959 	.data.w	.LDW_6712100
000016c9 2302       4960 	.data.b	2,35
000016cb 00         4961 	.data.b	0
000016cc 01         4962 	.data.b	1
                    4963 
                    4964 .LDW_66ff768:
000016cd 25         4965 	.data.b	37
000016ce 00727473   4966 	.data.b	115,116,114,0
000016d2 09c0       4967 	.data.b	192,9
000016d4 23         4968 	.data.b	35
000016d5 03         4969 	.data.b	3
000016d6 00000000*  4970 	.data.w	.LDW_670f9d8
000016da 2302       4971 	.data.b	2,35
000016dc 00         4972 	.data.b	0
000016dd 01         4973 	.data.b	1
                    4974 
000016de 00         4975 	.data.b	0
                    4976 
                    4977 .LDW_670fa88:
000016df 2a         4978 	.data.b	42
000016e0 77734275   4979 	.data.b	117,66,115,119,77,95,65,99,116,105,111,110,76,105,115,116,81,117,101,117,101,84,121,112,101,0
000016e4 63415f4d 
000016e8 6e6f6974 
000016ec 7473694c 
000016f0 75657551 
000016f4 70795465 
000016f8 0065 
000016fa 09c1       4980 	.data.b	193,9
000016fc 03         4981 	.data.b	3
000016fd 03         4982 	.data.b	3
000016fe 00000000*  4983 	.data.w	.LDW_670f5b8
                    4984 
                    4985 .LDW_670fae0:
00001702 44         4986 	.data.b	68
00001703 77734275   4987 	.data.b	117,66,115,119,77,95,84,105,109,101,114,83,116,97,116,101,84,97,103,0
00001707 69545f4d 
0000170b 5372656d 
0000170f 65746174 
00001713 00676154 
00001717 09c4       4988 	.data.b	196,9
00001719 0f         4989 	.data.b	15
0000171a 03         4990 	.data.b	3
0000171b 01         4991 	.data.b	1
0000171c 01         4992 	.data.b	1
                    4993 
                    4994 .LDW_66ffcc0:
0000171d 25         4995 	.data.b	37
0000171e 00776172   4996 	.data.b	114,97,119,0
00001722 09c6       4997 	.data.b	198,9
00001724 17         4998 	.data.b	23
00001725 03         4999 	.data.b	3
00001726 00000000*  5000 	.data.w	.LDW_6712980
0000172a 2302       5001 	.data.b	2,35
0000172c 00         5002 	.data.b	0
0000172d 01         5003 	.data.b	1
                    5004 
                    5005 .LDW_66ffd08:
0000172e 25         5006 	.data.b	37
0000172f 00727473   5007 	.data.b	115,116,114,0
00001733 09c7       5008 	.data.b	199,9

                                                                      Page 110
                                                              C:\Users\Fengyuan\AppData\Local\Temp\gh_0000p9o1.s
00001735 1e         5009 	.data.b	30
00001736 03         5010 	.data.b	3
00001737 00000000*  5011 	.data.w	.LDW_670f878
0000173b 2302       5012 	.data.b	2,35
0000173d 00         5013 	.data.b	0
0000173e 01         5014 	.data.b	1
                    5015 
0000173f 00         5016 	.data.b	0
                    5017 
                    5018 .LDW_670fbe8:
00001740 2a         5019 	.data.b	42
00001741 77734275   5020 	.data.b	117,66,115,119,77,95,84,105,109,101,114,83,116,97,116,101,84,121,112,101,0
00001745 69545f4d 
00001749 5372656d 
0000174d 65746174 
00001751 65707954 
00001755 00 
00001756 09c8       5021 	.data.b	200,9
00001758 03         5022 	.data.b	3
00001759 03         5023 	.data.b	3
0000175a 00000000*  5024 	.data.w	.LDW_670fae0
                    5025 
                    5026 .LDW_670fc40:
0000175e 44         5027 	.data.b	68
0000175f 77734275   5028 	.data.b	117,66,115,119,77,95,84,105,109,101,114,86,97,108,117,101,84,97,103,0
00001763 69545f4d 
00001767 5672656d 
0000176b 65756c61 
0000176f 00676154 
00001773 09cb       5029 	.data.b	203,9
00001775 0f         5030 	.data.b	15
00001776 03         5031 	.data.b	3
00001777 04         5032 	.data.b	4
00001778 01         5033 	.data.b	1
                    5034 
                    5035 .LDW_66ff7f8:
00001779 25         5036 	.data.b	37
0000177a 00776172   5037 	.data.b	114,97,119,0
0000177e 09cd       5038 	.data.b	205,9
00001780 17         5039 	.data.b	23
00001781 03         5040 	.data.b	3
00001782 00000000*  5041 	.data.w	.LDW_6712188
00001786 2302       5042 	.data.b	2,35
00001788 00         5043 	.data.b	0
00001789 01         5044 	.data.b	1
                    5045 
                    5046 .LDW_66ffd98:
0000178a 25         5047 	.data.b	37
0000178b 00727473   5048 	.data.b	115,116,114,0
0000178f 09ce       5049 	.data.b	206,9
00001791 1e         5050 	.data.b	30
00001792 03         5051 	.data.b	3
00001793 00000000*  5052 	.data.w	.LDW_670f668
00001797 2302       5053 	.data.b	2,35
00001799 00         5054 	.data.b	0
0000179a 01         5055 	.data.b	1
                    5056 
0000179b 00         5057 	.data.b	0
                    5058 
                    5059 .LDW_670f6c0:
0000179c 2a         5060 	.data.b	42

                                                                      Page 111
                                                              C:\Users\Fengyuan\AppData\Local\Temp\gh_0000p9o1.s
0000179d 77734275   5061 	.data.b	117,66,115,119,77,95,84,105,109,101,114,86,97,108,117,101,84,121,112,101,0
000017a1 69545f4d 
000017a5 5672656d 
000017a9 65756c61 
000017ad 65707954 
000017b1 00 
000017b2 09cf       5062 	.data.b	207,9
000017b4 03         5063 	.data.b	3
000017b5 03         5064 	.data.b	3
000017b6 00000000*  5065 	.data.w	.LDW_670fc40
                    5066 
                    5067 .LDW_6710008:
000017ba 2a         5068 	.data.b	42
000017bb 5f6d6f43   5069 	.data.b	67,111,109,95,73,112,100,117,71,114,111,117,112,73,100,84,121,112,101,0
000017bf 75647049 
000017c3 756f7247 
000017c7 54644970 
000017cb 00657079 
000017cf 49         5070 	.data.b	73
000017d0 10         5071 	.data.b	16
000017d1 6c         5072 	.data.b	108
000017d2 00000000*  5073 	.data.w	.LDW_5d40420
                    5074 
                    5075 .LDW_5d40318:
000017d6 2a         5076 	.data.b	42
000017d7 5f6d6f43   5077 	.data.b	67,111,109,95,73,112,100,117,71,114,111,117,112,86,101,99,116,111,114,0
000017db 75647049 
000017df 756f7247 
000017e3 63655670 
000017e7 00726f74 
000017eb 4b         5078 	.data.b	75
000017ec 0f         5079 	.data.b	15
000017ed 6c         5080 	.data.b	108
000017ee 00000000*  5081 	.data.w	.LDW_5d40290
                    5082 
                    5083 .LDW_67187a0:
000017f2 42         5084 	.data.b	66
000017f3 6d6f4373   5085 	.data.b	115,67,111,109,95,80,67,67,111,110,102,105,103,84,121,112,101,0
000017f7 4343505f 
000017fb 69666e6f 
000017ff 70795467 
00001803 0065 
00001805 16d7       5086 	.data.b	215,22
00001807 10         5087 	.data.b	16
00001808 6b         5088 	.data.b	107
00001809 01         5089 	.data.b	1
0000180a 01         5090 	.data.b	1
                    5091 
                    5092 .LDW_6719c40:
0000180b 25         5093 	.data.b	37
0000180c 5f6d6f43   5094 	.data.b	67,111,109,95,80,67,67,111,110,102,105,103,78,101,118,101,114,85,115,101,100,0
00001810 6f434350 
00001814 6769666e 
00001818 6576654e 
0000181c 65735572 
00001820 0064 
00001822 16d9       5095 	.data.b	217,22
00001824 09         5096 	.data.b	9
00001825 6b         5097 	.data.b	107
00001826 00000000*  5098 	.data.w	.LDW_4a9a4c8
0000182a 2302       5099 	.data.b	2,35

                                                                      Page 112
                                                              C:\Users\Fengyuan\AppData\Local\Temp\gh_0000p9o1.s
0000182c 00         5100 	.data.b	0
0000182d 01         5101 	.data.b	1
                    5102 
0000182e 00         5103 	.data.b	0
                    5104 
                    5105 .LDW_67182d0:
0000182f 2a         5106 	.data.b	42
00001830 5f6d6f43   5107 	.data.b	67,111,109,95,80,67,67,111,110,102,105,103,84,121,112,101,0
00001834 6f434350 
00001838 6769666e 
0000183c 65707954 
00001840 00 
00001841 16da       5108 	.data.b	218,22
00001843 03         5109 	.data.b	3
00001844 6b         5110 	.data.b	107
00001845 00000000*  5111 	.data.w	.LDW_67187a0
                    5112 
                    5113 .LDW_67185e8:
00001849 2a         5114 	.data.b	42
0000184a 5f6d6f43   5115 	.data.b	67,111,109,95,67,111,110,102,105,103,84,121,112,101,0
0000184e 666e6f43 
00001852 79546769 
00001856 006570 
00001859 16dc       5116 	.data.b	220,22
0000185b 1a         5117 	.data.b	26
0000185c 6b         5118 	.data.b	107
0000185d 00000000*  5119 	.data.w	.LDW_67182d0
                    5120 
                    5121 .LDW_67183d8:
00001861 2a         5122 	.data.b	42
00001862 5f657452   5123 	.data.b	82,116,101,95,77,111,100,101,84,121,112,101,95,69,83,72,95,77,111,100,101,0
00001866 65646f4d 
0000186a 65707954 
0000186e 4853455f 
00001872 646f4d5f 
00001876 0065 
00001878 4b         5124 	.data.b	75
00001879 17         5125 	.data.b	23
0000187a 78         5126 	.data.b	120
0000187b 00000000*  5127 	.data.w	.LDW_66edf40
                    5128 
                    5129 .LDW_6722088:
0000187f 42         5130 	.data.b	66
00001880 6e614373   5131 	.data.b	115,67,97,110,95,80,67,67,111,110,102,105,103,84,121,112,101,0
00001884 4343505f 
00001888 69666e6f 
0000188c 70795467 
00001890 0065 
00001892 0cc1       5132 	.data.b	193,12
00001894 10         5133 	.data.b	16
00001895 7b         5134 	.data.b	123
00001896 01         5135 	.data.b	1
00001897 01         5136 	.data.b	1
                    5137 
                    5138 .LDW_671adf8:
00001898 25         5139 	.data.b	37
00001899 5f6e6143   5140 	.data.b	67,97,110,95,80,67,67,111,110,102,105,103,78,101,118,101,114,85,115,101,100,0
0000189d 6f434350 
000018a1 6769666e 
000018a5 6576654e 
000018a9 65735572 

                                                                      Page 113
                                                              C:\Users\Fengyuan\AppData\Local\Temp\gh_0000p9o1.s
000018ad 0064 
000018af 0cc3       5141 	.data.b	195,12
000018b1 09         5142 	.data.b	9
000018b2 7b         5143 	.data.b	123
000018b3 00000000*  5144 	.data.w	.LDW_4a9a4c8
000018b7 2302       5145 	.data.b	2,35
000018b9 00         5146 	.data.b	0
000018ba 01         5147 	.data.b	1
                    5148 
000018bb 00         5149 	.data.b	0
                    5150 
                    5151 .LDW_6721798:
000018bc 2a         5152 	.data.b	42
000018bd 5f6e6143   5153 	.data.b	67,97,110,95,80,67,67,111,110,102,105,103,84,121,112,101,0
000018c1 6f434350 
000018c5 6769666e 
000018c9 65707954 
000018cd 00 
000018ce 0cc4       5154 	.data.b	196,12
000018d0 03         5155 	.data.b	3
000018d1 7b         5156 	.data.b	123
000018d2 00000000*  5157 	.data.w	.LDW_6722088
                    5158 
                    5159 .LDW_6721848:
000018d6 2a         5160 	.data.b	42
000018d7 5f6e6143   5161 	.data.b	67,97,110,95,67,111,110,102,105,103,84,121,112,101,0
000018db 666e6f43 
000018df 79546769 
000018e3 006570 
000018e6 0cc6       5162 	.data.b	198,12
000018e8 1a         5163 	.data.b	26
000018e9 7b         5164 	.data.b	123
000018ea 00000000*  5165 	.data.w	.LDW_6721798
                    5166 
                    5167 .LDW_6721cc0:
000018ee 2a         5168 	.data.b	42
000018ef 5f6e6143   5169 	.data.b	67,97,110,95,67,111,110,102,105,103,80,116,114,84,121,112,101,0
000018f3 666e6f43 
000018f7 74506769 
000018fb 70795472 
000018ff 0065 
00001901 08a0       5170 	.data.b	160,8
00001903 39         5171 	.data.b	57
00001904 7a         5172 	.data.b	122
00001905 00000000*  5173 	.data.w	.LDW_671d5e0
                    5174 
                    5175 .LDW_67267e0:
00001909 42         5176 	.data.b	66
0000190a 6e614373   5177 	.data.b	115,67,97,110,73,102,95,80,67,67,111,110,102,105,103,84,121,112,101,0
0000190e 505f6649 
00001912 6e6f4343 
00001916 54676966 
0000191a 00657079 
0000191e 0aa5       5178 	.data.b	165,10
00001920 10         5179 	.data.b	16
00001921 0180       5180 	.data.b	128,1
00001923 01         5181 	.data.b	1
00001924 01         5182 	.data.b	1
                    5183 
                    5184 .LDW_671d240:
00001925 25         5185 	.data.b	37

                                                                      Page 114
                                                              C:\Users\Fengyuan\AppData\Local\Temp\gh_0000p9o1.s
00001926 496e6143   5186 	.data.b	67,97,110,73,102,95,80,67,67,111,110,102,105,103,78,101,118,101,114,85,115,101,100,0
0000192a 43505f66 
0000192e 666e6f43 
00001932 654e6769 
00001936 55726576 
0000193a 00646573 
0000193e 0aa7       5187 	.data.b	167,10
00001940 09         5188 	.data.b	9
00001941 0180       5189 	.data.b	128,1
00001943 00000000*  5190 	.data.w	.LDW_4a9a4c8
00001947 2302       5191 	.data.b	2,35
00001949 00         5192 	.data.b	0
0000194a 01         5193 	.data.b	1
                    5194 
0000194b 00         5195 	.data.b	0
                    5196 
                    5197 .LDW_6727288:
0000194c 2a         5198 	.data.b	42
0000194d 496e6143   5199 	.data.b	67,97,110,73,102,95,80,67,67,111,110,102,105,103,84,121,112,101,0
00001951 43505f66 
00001955 666e6f43 
00001959 79546769 
0000195d 006570 
00001960 0aa8       5200 	.data.b	168,10
00001962 03         5201 	.data.b	3
00001963 0180       5202 	.data.b	128,1
00001965 00000000*  5203 	.data.w	.LDW_67267e0
                    5204 
                    5205 .LDW_6727498:
00001969 2a         5206 	.data.b	42
0000196a 496e6143   5207 	.data.b	67,97,110,73,102,95,67,111,110,102,105,103,84,121,112,101,0
0000196e 6f435f66 
00001972 6769666e 
00001976 65707954 
0000197a 00 
0000197b 0aaa       5208 	.data.b	170,10
0000197d 1c         5209 	.data.b	28
0000197e 0180       5210 	.data.b	128,1
00001980 00000000*  5211 	.data.w	.LDW_6727288
                    5212 
                    5213 .LDW_67290c8:
00001984 42         5214 	.data.b	66
00001985 6e614373   5215 	.data.b	115,67,97,110,84,112,95,80,67,67,111,110,102,105,103,84,121,112,101,0
00001989 505f7054 
0000198d 6e6f4343 
00001991 54676966 
00001995 00657079 
00001999 02eb       5216 	.data.b	235,2
0000199b 10         5217 	.data.b	16
0000199c 0188       5218 	.data.b	136,1
0000199e 01         5219 	.data.b	1
0000199f 01         5220 	.data.b	1
                    5221 
                    5222 .LDW_672c4d8:
000019a0 25         5223 	.data.b	37
000019a1 546e6143   5224 	.data.b	67,97,110,84,112,95,80,67,67,111,110,102,105,103,78,101,118,101,114,85,115,101,100,0
000019a5 43505f70 
000019a9 666e6f43 
000019ad 654e6769 
000019b1 55726576 
000019b5 00646573 

                                                                      Page 115
                                                              C:\Users\Fengyuan\AppData\Local\Temp\gh_0000p9o1.s
000019b9 02ed       5225 	.data.b	237,2
000019bb 09         5226 	.data.b	9
000019bc 0188       5227 	.data.b	136,1
000019be 00000000*  5228 	.data.w	.LDW_4a9a4c8
000019c2 2302       5229 	.data.b	2,35
000019c4 00         5230 	.data.b	0
000019c5 01         5231 	.data.b	1
                    5232 
000019c6 00         5233 	.data.b	0
                    5234 
                    5235 .LDW_6729120:
000019c7 2a         5236 	.data.b	42
000019c8 546e6143   5237 	.data.b	67,97,110,84,112,95,80,67,67,111,110,102,105,103,84,121,112,101,0
000019cc 43505f70 
000019d0 666e6f43 
000019d4 79546769 
000019d8 006570 
000019db 02ee       5238 	.data.b	238,2
000019dd 03         5239 	.data.b	3
000019de 0188       5240 	.data.b	136,1
000019e0 00000000*  5241 	.data.w	.LDW_67290c8
                    5242 
                    5243 .LDW_6729178:
000019e4 2a         5244 	.data.b	42
000019e5 546e6143   5245 	.data.b	67,97,110,84,112,95,67,111,110,102,105,103,84,121,112,101,0
000019e9 6f435f70 
000019ed 6769666e 
000019f1 65707954 
000019f5 00 
000019f6 02f0       5246 	.data.b	240,2
000019f8 1c         5247 	.data.b	28
000019f9 0188       5248 	.data.b	136,1
000019fb 00000000*  5249 	.data.w	.LDW_6729120
                    5250 
                    5251 .LDW_6724898:
000019ff 42         5252 	.data.b	66
00001a00 75645073   5253 	.data.b	115,80,100,117,82,95,80,67,67,111,110,102,105,103,84,121,112,101,0
00001a04 43505f52 
00001a08 666e6f43 
00001a0c 79546769 
00001a10 006570 
00001a13 0c93       5254 	.data.b	147,12
00001a15 10         5255 	.data.b	16
00001a16 0183       5256 	.data.b	131,1
00001a18 01         5257 	.data.b	1
00001a19 01         5258 	.data.b	1
                    5259 
                    5260 .LDW_672cd00:
00001a1a 25         5261 	.data.b	37
00001a1b 52756450   5262 	.data.b	80,100,117,82,95,80,67,67,111,110,102,105,103,78,101,118,101,114,85,115,101,100,0
00001a1f 4343505f 
00001a23 69666e6f 
00001a27 76654e67 
00001a2b 73557265 
00001a2f 006465 
00001a32 0c95       5263 	.data.b	149,12
00001a34 09         5264 	.data.b	9
00001a35 0183       5265 	.data.b	131,1
00001a37 00000000*  5266 	.data.w	.LDW_4a9a4c8
00001a3b 2302       5267 	.data.b	2,35
00001a3d 00         5268 	.data.b	0

                                                                      Page 116
                                                              C:\Users\Fengyuan\AppData\Local\Temp\gh_0000p9o1.s
00001a3e 01         5269 	.data.b	1
                    5270 
00001a3f 00         5271 	.data.b	0
                    5272 
                    5273 .LDW_67240b0:
00001a40 2a         5274 	.data.b	42
00001a41 52756450   5275 	.data.b	80,100,117,82,95,80,67,67,111,110,102,105,103,84,121,112,101,0
00001a45 4343505f 
00001a49 69666e6f 
00001a4d 70795467 
00001a51 0065 
00001a53 0c96       5276 	.data.b	150,12
00001a55 03         5277 	.data.b	3
00001a56 0183       5278 	.data.b	131,1
00001a58 00000000*  5279 	.data.w	.LDW_6724898
                    5280 
                    5281 .LDW_6724210:
00001a5c 2a         5282 	.data.b	42
00001a5d 52756450   5283 	.data.b	80,100,117,82,95,80,66,67,111,110,102,105,103,84,121,112,101,0
00001a61 4342505f 
00001a65 69666e6f 
00001a69 70795467 
00001a6d 0065 
00001a6f 0c98       5284 	.data.b	152,12
00001a71 1b         5285 	.data.b	27
00001a72 0183       5286 	.data.b	131,1
00001a74 00000000*  5287 	.data.w	.LDW_67240b0
                    5288 
                    5289 .LDW_6731070:
00001a78 42         5290 	.data.b	66
00001a79 6e614373   5291 	.data.b	115,67,97,110,83,77,95,80,67,67,111,110,102,105,103,84,121,112,101,0
00001a7d 505f4d53 
00001a81 6e6f4343 
00001a85 54676966 
00001a89 00657079 
00001a8d 04c9       5292 	.data.b	201,4
00001a8f 10         5293 	.data.b	16
00001a90 018c       5294 	.data.b	140,1
00001a92 01         5295 	.data.b	1
00001a93 01         5296 	.data.b	1
                    5297 
                    5298 .LDW_672d180:
00001a94 25         5299 	.data.b	37
00001a95 536e6143   5300 	.data.b	67,97,110,83,77,95,80,67,67,111,110,102,105,103,78,101,118,101,114,85,115,101,100,0
00001a99 43505f4d 
00001a9d 666e6f43 
00001aa1 654e6769 
00001aa5 55726576 
00001aa9 00646573 
00001aad 04cb       5301 	.data.b	203,4
00001aaf 09         5302 	.data.b	9
00001ab0 018c       5303 	.data.b	140,1
00001ab2 00000000*  5304 	.data.w	.LDW_4a9a4c8
00001ab6 2302       5305 	.data.b	2,35
00001ab8 00         5306 	.data.b	0
00001ab9 01         5307 	.data.b	1
                    5308 
00001aba 00         5309 	.data.b	0
                    5310 
                    5311 .LDW_6730e08:
00001abb 2a         5312 	.data.b	42

                                                                      Page 117
                                                              C:\Users\Fengyuan\AppData\Local\Temp\gh_0000p9o1.s
00001abc 536e6143   5313 	.data.b	67,97,110,83,77,95,80,67,67,111,110,102,105,103,84,121,112,101,0
00001ac0 43505f4d 
00001ac4 666e6f43 
00001ac8 79546769 
00001acc 006570 
00001acf 04cc       5314 	.data.b	204,4
00001ad1 03         5315 	.data.b	3
00001ad2 018c       5316 	.data.b	140,1
00001ad4 00000000*  5317 	.data.w	.LDW_6731070
                    5318 
                    5319 .LDW_6730d58:
00001ad8 2a         5320 	.data.b	42
00001ad9 536e6143   5321 	.data.b	67,97,110,83,77,95,67,111,110,102,105,103,84,121,112,101,0
00001add 6f435f4d 
00001ae1 6769666e 
00001ae5 65707954 
00001ae9 00 
00001aea 04ce       5322 	.data.b	206,4
00001aec 1c         5323 	.data.b	28
00001aed 018c       5324 	.data.b	140,1
00001aef 00000000*  5325 	.data.w	.LDW_6730e08
                    5326 
                    5327 .LDW_6735320:
00001af3 06         5328 	.data.b	6
00001af4 4d777342   5329 	.data.b	66,115,119,77,95,80,100,117,71,114,111,117,112,67,111,110,116,114,111,108,73,110,118,111,99,97,116,105,111,110,0
00001af8 7564505f 
00001afc 756f7247 
00001b00 6e6f4370 
00001b04 6c6f7274 
00001b08 6f766e49 
00001b0c 69746163 
00001b10 006e6f 
00001b13 01da       5330 	.data.b	218,1
00001b15 28         5331 	.data.b	40
00001b16 01         5332 	.data.b	1
00001b17 00000000*  5333 	.data.w	.LDW_4a9a4c8
00001b1b 00         5334 	.data.b	0
00001b1c 00         5335 	.data.b	0
00001b1d 0305       5336 	.data.b	5,3
00001b1f 00000000*  5337 	.data.w	BswM_PduGroupControlInvocation..C.3A.5CVector.5CCBD1800257_D01_S32K1xx.5CApplications.5CS32K144_Start_new.5CAppl.5Cobj.5CBswM_Lcfg.
                    5338 
                    5339 	.section	.debug_abbrev
000000c5 06         5340 	.data.b	6
000000c6 34         5341 	.data.b	52
000000c7 00         5342 	.data.b	0
000000c8 0803       5343 	.data.b	3,8
000000ca 0f3b       5344 	.data.b	59,15
000000cc 0f39       5345 	.data.b	57,15
000000ce 0f3a       5346 	.data.b	58,15
000000d0 1049       5347 	.data.b	73,16
000000d2 0c3f       5348 	.data.b	63,12
000000d4 0c3c       5349 	.data.b	60,12
000000d6 0a02       5350 	.data.b	2,10
000000d8 0000       5351 	.data.b	0,0
                    5352 
                    5353 	.section	.debug_info
                    5354 .LDW_6735480:
00001b23 06         5355 	.data.b	6
00001b24 4d777342   5356 	.data.b	66,115,119,77,95,83,119,105,116,99,104,95,69,83,72,95,77,111,100,101,83,119,105,116,99,104,95,66,115,119,77,95,77,68,71,80,95,69,83,72,95,77,111,100,101,0
00001b28 6977535f 
00001b2c 5f686374 

                                                                      Page 118
                                                              C:\Users\Fengyuan\AppData\Local\Temp\gh_0000p9o1.s
00001b30 5f485345 
00001b34 65646f4d 
00001b38 74697753 
00001b3c 425f6863 
00001b40 5f4d7773 
00001b44 5047444d 
00001b48 4853455f 
00001b4c 646f4d5f 
00001b50 0065 
00001b52 01e5       5357 	.data.b	229,1
00001b54 38         5358 	.data.b	56
00001b55 01         5359 	.data.b	1
00001b56 00000000*  5360 	.data.w	.LDW_67183d8
00001b5a 00         5361 	.data.b	0
00001b5b 00         5362 	.data.b	0
00001b5c 0305       5363 	.data.b	5,3
00001b5e 00000000*  5364 	.data.w	BswM_Switch_ESH_ModeSwitch_BswM_MDGP_ESH_Mode..C.3A.5CVector.5CCBD1800257_D01_S32K1xx.5CApplications.5CS32K144_Start_new.5CAppl.5Cobj.5CBswM_Lcfg.
                    5365 
                    5366 .LDW_6735378:
00001b62 06         5367 	.data.b	6
00001b63 75716552   5368 	.data.b	82,101,113,117,101,115,116,95,69,83,72,95,82,117,110,82,101,113,117,101,115,116,95,48,95,114,101,113,117,101,115,116,101,100,77,111,100,101,0
00001b67 5f747365 
00001b6b 5f485345 
00001b6f 526e7552 
00001b73 65757165 
00001b77 305f7473 
00001b7b 7165725f 
00001b7f 74736575 
00001b83 6f4d6465 
00001b87 006564 
00001b8a 01e7       5369 	.data.b	231,1
00001b8c 36         5370 	.data.b	54
00001b8d 01         5371 	.data.b	1
00001b8e 00000000*  5372 	.data.w	.LDW_66edd88
00001b92 00         5373 	.data.b	0
00001b93 00         5374 	.data.b	0
00001b94 0305       5375 	.data.b	5,3
00001b96 00000000*  5376 	.data.w	Request_ESH_RunRequest_0_requestedMode..C.3A.5CVector.5CCBD1800257_D01_S32K1xx.5CApplications.5CS32K144_Start_new.5CAppl.5Cobj.5CBswM_Lcfg.
                    5377 
                    5378 .LDW_67354d8:
00001b9a 06         5379 	.data.b	6
00001b9b 75716552   5380 	.data.b	82,101,113,117,101,115,116,95,69,83,72,95,82,117,110,82,101,113,117,101,115,116,95,49,95,114,101,113,117,101,115,116,101,100,77,111,100,101,0
00001b9f 5f747365 
00001ba3 5f485345 
00001ba7 526e7552 
00001bab 65757165 
00001baf 315f7473 
00001bb3 7165725f 
00001bb7 74736575 
00001bbb 6f4d6465 
00001bbf 006564 
00001bc2 01e8       5381 	.data.b	232,1
00001bc4 36         5382 	.data.b	54
00001bc5 01         5383 	.data.b	1
00001bc6 00000000*  5384 	.data.w	.LDW_66edd88
00001bca 00         5385 	.data.b	0
00001bcb 00         5386 	.data.b	0
00001bcc 0305       5387 	.data.b	5,3
00001bce 00000000*  5388 	.data.w	Request_ESH_RunRequest_1_requestedMode..C.3A.5CVector.5CCBD1800257_D01_S32K1xx.5CApplications.5CS32K144_Start_new.5CAppl.5Cobj.5CBswM_Lcfg.
                    5389 
                    5390 .LDW_6735a00:

                                                                      Page 119
                                                              C:\Users\Fengyuan\AppData\Local\Temp\gh_0000p9o1.s
00001bd2 06         5391 	.data.b	6
00001bd3 75716552   5392 	.data.b	82,101,113,117,101,115,116,95,69,83,72,95,80,111,115,116,82,117,110,82,101,113,117,101,115,116,95,48,95,114,101,113,117,101,115,116,101,100,77,111,100,101,0
00001bd7 5f747365 
00001bdb 5f485345 
00001bdf 74736f50 
00001be3 526e7552 
00001be7 65757165 
00001beb 305f7473 
00001bef 7165725f 
00001bf3 74736575 
00001bf7 6f4d6465 
00001bfb 006564 
00001bfe 01e9       5393 	.data.b	233,1
00001c00 36         5394 	.data.b	54
00001c01 01         5395 	.data.b	1
00001c02 00000000*  5396 	.data.w	.LDW_66edd88
00001c06 00         5397 	.data.b	0
00001c07 00         5398 	.data.b	0
00001c08 0305       5399 	.data.b	5,3
00001c0a 00000000*  5400 	.data.w	Request_ESH_PostRunRequest_0_requestedMode..C.3A.5CVector.5CCBD1800257_D01_S32K1xx.5CApplications.5CS32K144_Start_new.5CAppl.5Cobj.5CBswM_Lcfg.
                    5401 
                    5402 .LDW_6735530:
00001c0e 06         5403 	.data.b	6
00001c0f 75716552   5404 	.data.b	82,101,113,117,101,115,116,95,69,83,72,95,80,111,115,116,82,117,110,82,101,113,117,101,115,116,95,49,95,114,101,113,117,101,115,116,101,100,77,111,100,101,0
00001c13 5f747365 
00001c17 5f485345 
00001c1b 74736f50 
00001c1f 526e7552 
00001c23 65757165 
00001c27 315f7473 
00001c2b 7165725f 
00001c2f 74736575 
00001c33 6f4d6465 
00001c37 006564 
00001c3a 01ea       5405 	.data.b	234,1
00001c3c 36         5406 	.data.b	54
00001c3d 01         5407 	.data.b	1
00001c3e 00000000*  5408 	.data.w	.LDW_66edd88
00001c42 00         5409 	.data.b	0
00001c43 00         5410 	.data.b	0
00001c44 0305       5411 	.data.b	5,3
00001c46 00000000*  5412 	.data.w	Request_ESH_PostRunRequest_1_requestedMode..C.3A.5CVector.5CCBD1800257_D01_S32K1xx.5CApplications.5CS32K144_Start_new.5CAppl.5Cobj.5CBswM_Lcfg.
                    5413 
                    5414 .LDW_6735d18:
00001c4a 06         5415 	.data.b	6
00001c4b 4d777342   5416 	.data.b	66,115,119,77,95,77,111,100,101,95,78,111,116,105,102,105,99,97,116,105,111,110,95,69,83,72,95,77,111,100,101,78,111,116,105,102,105,99,97,116,105,111,110,95,66,115,119,77,95,77,68,71,80,95,69,83,72,95,77,111
00001c4f 646f4d5f 
00001c53 6f4e5f65 
00001c57 69666974 
00001c5b 69746163 
00001c5f 455f6e6f 
00001c63 4d5f4853 
00001c67 4e65646f 
00001c6b 6669746f 
00001c6f 74616369 
00001c73 5f6e6f69 
00001c77 4d777342 
00001c7b 47444d5f 
00001c7f 53455f50 
00001c83 6f4d5f48 
00001c87 006564     5417 	.data.b	100,101,0

                                                                      Page 120
                                                              C:\Users\Fengyuan\AppData\Local\Temp\gh_0000p9o1.s
00001c8a 01eb       5418 	.data.b	235,1
00001c8c 38         5419 	.data.b	56
00001c8d 01         5420 	.data.b	1
00001c8e 00000000*  5421 	.data.w	.LDW_67183d8
00001c92 00         5422 	.data.b	0
00001c93 00         5423 	.data.b	0
00001c94 0305       5424 	.data.b	5,3
00001c96 00000000*  5425 	.data.w	BswM_Mode_Notification_ESH_ModeNotification_BswM_MDGP_ESH_Mode..C.3A.5CVector.5CCBD1800257_D01_S32K1xx.5CApplications.5CS32K144_Start_new.5CAppl.5Cobj.5CBswM_Lcfg.
                    5426 
                    5427 .LDW_6735950:
00001c9a 06         5428 	.data.b	6
00001c9b 4d777342   5429 	.data.b	66,115,119,77,95,67,111,109,73,80,100,117,71,114,111,117,112,83,116,97,116,101,0
00001c9f 6d6f435f 
00001ca3 75645049 
00001ca7 756f7247 
00001cab 61745370 
00001caf 006574 
00001cb2 01ef       5430 	.data.b	239,1
00001cb4 36         5431 	.data.b	54
00001cb5 01         5432 	.data.b	1
00001cb6 00000000*  5433 	.data.w	.LDW_5d40318
00001cba 00         5434 	.data.b	0
00001cbb 00         5435 	.data.b	0
00001cbc 0305       5436 	.data.b	5,3
00001cbe 00000000*  5437 	.data.w	BswM_ComIPduGroupState..C.3A.5CVector.5CCBD1800257_D01_S32K1xx.5CApplications.5CS32K144_Start_new.5CAppl.5Cobj.5CBswM_Lcfg.
                    5438 
                    5439 .LDW_67355e0:
00001cc2 06         5440 	.data.b	6
00001cc3 4d777342   5441 	.data.b	66,115,119,77,95,67,111,109,82,120,73,80,100,117,71,114,111,117,112,68,77,83,116,97,116,101,0
00001cc7 6d6f435f 
00001ccb 50497852 
00001ccf 72477564 
00001cd3 4470756f 
00001cd7 6174534d 
00001cdb 006574 
00001cde 01f0       5442 	.data.b	240,1
00001ce0 36         5443 	.data.b	54
00001ce1 01         5444 	.data.b	1
00001ce2 00000000*  5445 	.data.w	.LDW_5d40318
00001ce6 00         5446 	.data.b	0
00001ce7 00         5447 	.data.b	0
00001ce8 0305       5448 	.data.b	5,3
00001cea 00000000*  5449 	.data.w	BswM_ComRxIPduGroupDMState..C.3A.5CVector.5CCBD1800257_D01_S32K1xx.5CApplications.5CS32K144_Start_new.5CAppl.5Cobj.5CBswM_Lcfg.
                    5450 
                    5451 .LDW_6735638:
00001cee 06         5452 	.data.b	6
00001cef 4d777342   5453 	.data.b	66,115,119,77,95,65,99,116,105,111,110,76,105,115,116,115,0
00001cf3 7463415f 
00001cf7 4c6e6f69 
00001cfb 73747369 
00001cff 00 
00001d00 02a0       5454 	.data.b	160,2
00001d02 29         5455 	.data.b	41
00001d03 01         5456 	.data.b	1
00001d04 00000000*  5457 	.data.w	.LDW_673b808
00001d08 01         5458 	.data.b	1
00001d09 00         5459 	.data.b	0
00001d0a 0305       5460 	.data.b	5,3
00001d0c 00000000*  5461 	.data.w	BswM_ActionLists
                    5462 
                    5463 .LDW_6735a58:

                                                                      Page 121
                                                              C:\Users\Fengyuan\AppData\Local\Temp\gh_0000p9o1.s
00001d10 06         5464 	.data.b	6
00001d11 4d777342   5465 	.data.b	66,115,119,77,95,68,101,102,101,114,114,101,100,82,117,108,101,115,0
00001d15 6665445f 
00001d19 65727265 
00001d1d 6c755264 
00001d21 007365 
00001d24 02c9       5466 	.data.b	201,2
00001d26 2b         5467 	.data.b	43
00001d27 01         5468 	.data.b	1
00001d28 00000000*  5469 	.data.w	.LDW_673b450
00001d2c 01         5470 	.data.b	1
00001d2d 00         5471 	.data.b	0
00001d2e 0305       5472 	.data.b	5,3
00001d30 00000000*  5473 	.data.w	BswM_DeferredRules
                    5474 
                    5475 .LDW_6735798:
00001d34 06         5476 	.data.b	6
00001d35 4d777342   5477 	.data.b	66,115,119,77,95,71,101,110,101,114,105,99,77,97,112,112,105,110,103,0
00001d39 6e65475f 
00001d3d 63697265 
00001d41 7070614d 
00001d45 00676e69 
00001d49 02e9       5478 	.data.b	233,2
00001d4b 2c         5479 	.data.b	44
00001d4c 01         5480 	.data.b	1
00001d4d 00000000*  5481 	.data.w	.LDW_673b9a0
00001d51 01         5482 	.data.b	1
00001d52 00         5483 	.data.b	0
00001d53 0305       5484 	.data.b	5,3
00001d55 00000000*  5485 	.data.w	BswM_GenericMapping
                    5486 
                    5487 .LDW_6735ab0:
00001d59 06         5488 	.data.b	6
00001d5a 4d777342   5489 	.data.b	66,115,119,77,95,73,109,109,101,100,105,97,116,101,85,115,101,114,0
00001d5e 6d6d495f 
00001d62 61696465 
00001d66 73556574 
00001d6a 007265 
00001d6d 0384       5490 	.data.b	132,3
00001d6f 2b         5491 	.data.b	43
00001d70 01         5492 	.data.b	1
00001d71 00000000*  5493 	.data.w	.LDW_673b890
00001d75 01         5494 	.data.b	1
00001d76 00         5495 	.data.b	0
00001d77 0305       5496 	.data.b	5,3
00001d79 00000000*  5497 	.data.w	BswM_ImmediateUser
                    5498 
                    5499 .LDW_6735bb8:
00001d7d 06         5500 	.data.b	6
00001d7e 4d777342   5501 	.data.b	66,115,119,77,95,82,117,108,101,115,0
00001d82 6c75525f 
00001d86 007365 
00001d89 039d       5502 	.data.b	157,3
00001d8b 23         5503 	.data.b	35
00001d8c 01         5504 	.data.b	1
00001d8d 00000000*  5505 	.data.w	.LDW_673af88
00001d91 01         5506 	.data.b	1
00001d92 00         5507 	.data.b	0
00001d93 0305       5508 	.data.b	5,3
00001d95 00000000*  5509 	.data.w	BswM_Rules
                    5510 

                                                                      Page 122
                                                              C:\Users\Fengyuan\AppData\Local\Temp\gh_0000p9o1.s
                    5511 .LDW_6736660:
00001d99 06         5512 	.data.b	6
00001d9a 4d777342   5513 	.data.b	66,115,119,77,95,82,117,108,101,115,73,110,100,0
00001d9e 6c75525f 
00001da2 6e497365 
00001da6 0064 
00001da8 03bf       5514 	.data.b	191,3
00001daa 26         5515 	.data.b	38
00001dab 01         5516 	.data.b	1
00001dac 00000000*  5517 	.data.w	.LDW_673ab48
00001db0 01         5518 	.data.b	1
00001db1 00         5519 	.data.b	0
00001db2 0305       5520 	.data.b	5,3
00001db4 00000000*  5521 	.data.w	BswM_RulesInd
                    5522 
                    5523 .LDW_6736450:
00001db8 06         5524 	.data.b	6
00001db9 4d777342   5525 	.data.b	66,115,119,77,95,82,117,108,101,115,79,102,67,111,110,102,105,103,0
00001dbd 6c75525f 
00001dc1 664f7365 
00001dc5 666e6f43 
00001dc9 006769 
00001dcc 03df       5526 	.data.b	223,3
00001dce 2b         5527 	.data.b	43
00001dcf 01         5528 	.data.b	1
00001dd0 00000000*  5529 	.data.w	.LDW_673aac0
00001dd4 01         5530 	.data.b	1
00001dd5 00         5531 	.data.b	0
00001dd6 0305       5532 	.data.b	5,3
00001dd8 00000000*  5533 	.data.w	BswM_RulesOfConfig
                    5534 
                    5535 .LDW_6735dc8:
00001ddc 06         5536 	.data.b	6
00001ddd 4d777342   5537 	.data.b	66,115,119,77,95,65,99,116,105,111,110,76,105,115,116,81,117,101,117,101,0
00001de1 7463415f 
00001de5 4c6e6f69 
00001de9 51747369 
00001ded 65756575 
00001df1 00 
00001df2 03f3       5538 	.data.b	243,3
00001df4 31         5539 	.data.b	49
00001df5 01         5540 	.data.b	1
00001df6 00000000*  5541 	.data.w	.LDW_670fa88
00001dfa 01         5542 	.data.b	1
00001dfb 00         5543 	.data.b	0
00001dfc 0305       5544 	.data.b	5,3
00001dfe 00000000*  5545 	.data.w	BswM_ActionListQueue
                    5546 
                    5547 .LDW_6735f80:
00001e02 06         5548 	.data.b	6
00001e03 4d777342   5549 	.data.b	66,115,119,77,95,67,97,110,83,77,67,104,97,110,110,101,108,83,116,97,116,101,0
00001e07 6e61435f 
00001e0b 68434d53 
00001e0f 656e6e61 
00001e13 6174536c 
00001e17 006574 
00001e1a 049a       5550 	.data.b	154,4
00001e1c 32         5551 	.data.b	50
00001e1d 01         5552 	.data.b	1
00001e1e 00000000*  5553 	.data.w	.LDW_673b918
00001e22 01         5554 	.data.b	1

                                                                      Page 123
                                                              C:\Users\Fengyuan\AppData\Local\Temp\gh_0000p9o1.s
00001e23 00         5555 	.data.b	0
00001e24 0305       5556 	.data.b	5,3
00001e26 00000000*  5557 	.data.w	BswM_CanSMChannelState
                    5558 
                    5559 .LDW_6735ed0:
00001e2a 06         5560 	.data.b	6
00001e2b 4d777342   5561 	.data.b	66,115,119,77,95,67,111,109,77,67,104,97,110,110,101,108,83,116,97,116,101,0
00001e2f 6d6f435f 
00001e33 6168434d 
00001e37 6c656e6e 
00001e3b 74617453 
00001e3f 0065 
00001e41 04ae       5562 	.data.b	174,4
00001e43 25         5563 	.data.b	37
00001e44 01         5564 	.data.b	1
00001e45 00000000*  5565 	.data.w	.LDW_673b010
00001e49 01         5566 	.data.b	1
00001e4a 00         5567 	.data.b	0
00001e4b 0305       5568 	.data.b	5,3
00001e4d 00000000*  5569 	.data.w	BswM_ComMChannelState
                    5570 
                    5571 .LDW_6736500:
00001e51 06         5572 	.data.b	6
00001e52 4d777342   5573 	.data.b	66,115,119,77,95,70,111,114,99,101,100,65,99,116,105,111,110,76,105,115,116,80,114,105,111,114,105,116,121,0
00001e56 726f465f 
00001e5a 41646563 
00001e5e 6f697463 
00001e62 73694c6e 
00001e66 69725074 
00001e6a 7469726f 
00001e6e 0079 
00001e70 04be       5574 	.data.b	190,4
00001e72 39         5575 	.data.b	57
00001e73 01         5576 	.data.b	1
00001e74 00000000*  5577 	.data.w	.LDW_673ba28
00001e78 01         5578 	.data.b	1
00001e79 00         5579 	.data.b	0
00001e7a 0305       5580 	.data.b	5,3
00001e7c 00000000*  5581 	.data.w	BswM_ForcedActionListPriority
                    5582 
                    5583 .LDW_67364a8:
00001e80 06         5584 	.data.b	6
00001e81 4d777342   5585 	.data.b	66,115,119,77,95,71,101,110,101,114,105,99,83,116,97,116,101,0
00001e85 6e65475f 
00001e89 63697265 
00001e8d 74617453 
00001e91 0065 
00001e93 04cf       5586 	.data.b	207,4
00001e95 25         5587 	.data.b	37
00001e96 01         5588 	.data.b	1
00001e97 00000000*  5589 	.data.w	.LDW_673a9b0
00001e9b 01         5590 	.data.b	1
00001e9c 00         5591 	.data.b	0
00001e9d 0305       5592 	.data.b	5,3
00001e9f 00000000*  5593 	.data.w	BswM_GenericState
                    5594 
                    5595 .LDW_67367c0:
00001ea3 06         5596 	.data.b	6
00001ea4 4d777342   5597 	.data.b	66,115,119,77,95,73,110,105,116,105,97,108,105,122,101,100,0
00001ea8 696e495f 
00001eac 6c616974 

                                                                      Page 124
                                                              C:\Users\Fengyuan\AppData\Local\Temp\gh_0000p9o1.s
00001eb0 64657a69 
00001eb4 00 
00001eb5 04e1       5598 	.data.b	225,4
00001eb7 2c         5599 	.data.b	44
00001eb8 01         5600 	.data.b	1
00001eb9 00000000*  5601 	.data.w	.LDW_673b098
00001ebd 01         5602 	.data.b	1
00001ebe 00         5603 	.data.b	0
00001ebf 0305       5604 	.data.b	5,3
00001ec1 00000000*  5605 	.data.w	BswM_Initialized
                    5606 
                    5607 .LDW_6735f28:
00001ec5 06         5608 	.data.b	6
00001ec6 4d777342   5609 	.data.b	66,115,119,77,95,77,111,100,101,82,101,113,117,101,115,116,81,117,101,117,101,0
00001eca 646f4d5f 
00001ece 71655265 
00001ed2 74736575 
00001ed6 75657551 
00001eda 0065 
00001edc 04f2       5610 	.data.b	242,4
00001ede 31         5611 	.data.b	49
00001edf 01         5612 	.data.b	1
00001ee0 00000000*  5613 	.data.w	.LDW_673b1a8
00001ee4 01         5614 	.data.b	1
00001ee5 00         5615 	.data.b	0
00001ee6 0305       5616 	.data.b	5,3
00001ee8 00000000*  5617 	.data.w	BswM_ModeRequestQueue
                    5618 
                    5619 .LDW_6736870:
00001eec 06         5620 	.data.b	6
00001eed 4d777342   5621 	.data.b	66,115,119,77,95,81,117,101,117,101,83,101,109,97,112,104,111,114,101,0
00001ef1 6575515f 
00001ef5 65536575 
00001ef9 6870616d 
00001efd 0065726f 
00001f01 0584       5622 	.data.b	132,5
00001f03 2f         5623 	.data.b	47
00001f04 01         5624 	.data.b	1
00001f05 00000000*  5625 	.data.w	.LDW_673cd70
00001f09 01         5626 	.data.b	1
00001f0a 00         5627 	.data.b	0
00001f0b 0305       5628 	.data.b	5,3
00001f0d 00000000*  5629 	.data.w	BswM_QueueSemaphore
                    5630 
                    5631 .LDW_67365b0:
00001f11 06         5632 	.data.b	6
00001f12 4d777342   5633 	.data.b	66,115,119,77,95,81,117,101,117,101,87,114,105,116,116,101,110,0
00001f16 6575515f 
00001f1a 72576575 
00001f1e 65747469 
00001f22 006e 
00001f24 0591       5634 	.data.b	145,5
00001f26 2d         5635 	.data.b	45
00001f27 01         5636 	.data.b	1
00001f28 00000000*  5637 	.data.w	.LDW_673cbd8
00001f2c 01         5638 	.data.b	1
00001f2d 00         5639 	.data.b	0
00001f2e 0305       5640 	.data.b	5,3
00001f30 00000000*  5641 	.data.w	BswM_QueueWritten
                    5642 
                    5643 .LDW_6736030:

                                                                      Page 125
                                                              C:\Users\Fengyuan\AppData\Local\Temp\gh_0000p9o1.s
00001f34 06         5644 	.data.b	6
00001f35 4d777342   5645 	.data.b	66,115,119,77,95,82,117,108,101,83,116,97,116,101,115,0
00001f39 6c75525f 
00001f3d 61745365 
00001f41 00736574 
00001f45 05a2       5646 	.data.b	162,5
00001f47 2b         5647 	.data.b	43
00001f48 01         5648 	.data.b	1
00001f49 00000000*  5649 	.data.w	.LDW_673d700
00001f4d 01         5650 	.data.b	1
00001f4e 00         5651 	.data.b	0
00001f4f 0305       5652 	.data.b	5,3
00001f51 00000000*  5653 	.data.w	BswM_RuleStates
                    5654 
                    5655 .LDW_6736088:
00001f55 06         5656 	.data.b	6
00001f56 4d777342   5657 	.data.b	66,115,119,77,95,84,105,109,101,114,83,116,97,116,101,0
00001f5a 6d69545f 
00001f5e 74537265 
00001f62 00657461 
00001f66 05c4       5658 	.data.b	196,5
00001f68 2c         5659 	.data.b	44
00001f69 01         5660 	.data.b	1
00001f6a 00000000*  5661 	.data.w	.LDW_670fbe8
00001f6e 01         5662 	.data.b	1
00001f6f 00         5663 	.data.b	0
00001f70 0305       5664 	.data.b	5,3
00001f72 00000000*  5665 	.data.w	BswM_TimerState
                    5666 
                    5667 .LDW_6736608:
00001f76 06         5668 	.data.b	6
00001f77 4d777342   5669 	.data.b	66,115,119,77,95,84,105,109,101,114,86,97,108,117,101,0
00001f7b 6d69545f 
00001f7f 61567265 
00001f83 0065756c 
00001f87 05d8       5670 	.data.b	216,5
00001f89 2c         5671 	.data.b	44
00001f8a 01         5672 	.data.b	1
00001f8b 00000000*  5673 	.data.w	.LDW_670f6c0
00001f8f 01         5674 	.data.b	1
00001f90 00         5675 	.data.b	0
00001f91 0305       5676 	.data.b	5,3
00001f93 00000000*  5677 	.data.w	BswM_TimerValue
                    5678 
                    5679 .LDW_6740808:
00001f97 17         5680 	.data.b	23
00001f98 4d6d6f43   5681 	.data.b	67,111,109,77,95,73,110,105,116,0
00001f9c 696e495f 
00001fa0 0074 
00001fa2 028a       5682 	.data.b	138,2
00001fa4 1e         5683 	.data.b	30
00001fa5 0f         5684 	.data.b	15
00001fa6 01         5685 	.data.b	1
00001fa7 00         5686 	.data.b	0
00001fa8 01         5687 	.data.b	1
00001fa9 01         5688 	.data.b	1
00001faa 00         5689 	.data.b	0
00001fab 01         5690 	.data.b	1
                    5691 
                    5692 	.section	.debug_abbrev
000000da 17         5693 	.data.b	23

                                                                      Page 126
                                                              C:\Users\Fengyuan\AppData\Local\Temp\gh_0000p9o1.s
000000db 2e         5694 	.data.b	46
000000dc 01         5695 	.data.b	1
000000dd 0803       5696 	.data.b	3,8
000000df 0f3b       5697 	.data.b	59,15
000000e1 0f39       5698 	.data.b	57,15
000000e3 0f3a       5699 	.data.b	58,15
000000e5 0c3c       5700 	.data.b	60,12
000000e7 0b20       5701 	.data.b	32,11
000000e9 0c3f       5702 	.data.b	63,12
000000eb 0b32       5703 	.data.b	50,11
000000ed 0b4c       5704 	.data.b	76,11
000000ef 0c27       5705 	.data.b	39,12
000000f1 0000       5706 	.data.b	0,0
                    5707 
                    5708 	.section	.debug_info
00001fac 00         5709 	.data.b	0
                    5710 
                    5711 .LDW_6740218:
00001fad 17         5712 	.data.b	23
00001fae 4d6d6f43   5713 	.data.b	67,111,109,77,95,67,111,109,109,117,110,105,99,97,116,105,111,110,65,108,108,111,119,101,100,0
00001fb2 6d6f435f 
00001fb6 696e756d 
00001fba 69746163 
00001fbe 6c416e6f 
00001fc2 65776f6c 
00001fc6 0064 
00001fc8 53         5714 	.data.b	83
00001fc9 1e         5715 	.data.b	30
00001fca 1b         5716 	.data.b	27
00001fcb 01         5717 	.data.b	1
00001fcc 00         5718 	.data.b	0
00001fcd 01         5719 	.data.b	1
00001fce 01         5720 	.data.b	1
00001fcf 00         5721 	.data.b	0
00001fd0 01         5722 	.data.b	1
                    5723 
00001fd1 00         5724 	.data.b	0
                    5725 
                    5726 .LDW_6744360:
00001fd2 17         5727 	.data.b	23
00001fd3 70737553   5728 	.data.b	83,117,115,112,101,110,100,65,108,108,73,110,116,101,114,114,117,112,116,115,0
00001fd7 41646e65 
00001fdb 6e496c6c 
00001fdf 72726574 
00001fe3 73747075 
00001fe7 00 
00001fe8 0a97       5729 	.data.b	151,10
00001fea 15         5730 	.data.b	21
00001feb 35         5731 	.data.b	53
00001fec 01         5732 	.data.b	1
00001fed 00         5733 	.data.b	0
00001fee 01         5734 	.data.b	1
00001fef 01         5735 	.data.b	1
00001ff0 00         5736 	.data.b	0
00001ff1 01         5737 	.data.b	1
                    5738 
00001ff2 00         5739 	.data.b	0
                    5740 
                    5741 .LDW_6744068:
00001ff3 17         5742 	.data.b	23
00001ff4 75736552   5743 	.data.b	82,101,115,117,109,101,65,108,108,73,110,116,101,114,114,117,112,116,115,0

                                                                      Page 127
                                                              C:\Users\Fengyuan\AppData\Local\Temp\gh_0000p9o1.s
00001ff8 6c41656d 
00001ffc 746e496c 
00002000 75727265 
00002004 00737470 
00002008 0aaa       5744 	.data.b	170,10
0000200a 15         5745 	.data.b	21
0000200b 35         5746 	.data.b	53
0000200c 01         5747 	.data.b	1
0000200d 00         5748 	.data.b	0
0000200e 01         5749 	.data.b	1
0000200f 01         5750 	.data.b	1
00002010 00         5751 	.data.b	0
00002011 01         5752 	.data.b	1
                    5753 
00002012 00         5754 	.data.b	0
                    5755 
                    5756 .LDW_674e688:
00002013 17         5757 	.data.b	23
00002014 5f6d6544   5758 	.data.b	68,101,109,95,73,110,105,116,0
00002018 74696e49 
0000201c 00 
0000201d 02cc       5759 	.data.b	204,2
0000201f 01         5760 	.data.b	1
00002020 59         5761 	.data.b	89
00002021 01         5762 	.data.b	1
00002022 00         5763 	.data.b	0
00002023 01         5764 	.data.b	1
00002024 01         5765 	.data.b	1
00002025 00         5766 	.data.b	0
00002026 01         5767 	.data.b	1
                    5768 
00002027 00         5769 	.data.b	0
                    5770 
                    5771 .LDW_674dda0:
00002028 17         5772 	.data.b	23
00002029 5f6d6544   5773 	.data.b	68,101,109,95,83,104,117,116,100,111,119,110,0
0000202d 74756853 
00002031 6e776f64 
00002035 00 
00002036 02e7       5774 	.data.b	231,2
00002038 01         5775 	.data.b	1
00002039 59         5776 	.data.b	89
0000203a 01         5777 	.data.b	1
0000203b 00         5778 	.data.b	0
0000203c 01         5779 	.data.b	1
0000203d 01         5780 	.data.b	1
0000203e 00         5781 	.data.b	0
0000203f 01         5782 	.data.b	1
                    5783 
00002040 00         5784 	.data.b	0
                    5785 
                    5786 .LDW_6757580:
00002041 17         5787 	.data.b	23
00002042 5f6d6344   5788 	.data.b	68,99,109,95,73,110,105,116,0
00002046 74696e49 
0000204a 00 
0000204b 06f0       5789 	.data.b	240,6
0000204d 16         5790 	.data.b	22
0000204e 62         5791 	.data.b	98
0000204f 01         5792 	.data.b	1
00002050 00         5793 	.data.b	0

                                                                      Page 128
                                                              C:\Users\Fengyuan\AppData\Local\Temp\gh_0000p9o1.s
00002051 01         5794 	.data.b	1
00002052 01         5795 	.data.b	1
00002053 00         5796 	.data.b	0
00002054 01         5797 	.data.b	1
                    5798 
00002055 00         5799 	.data.b	0
                    5800 
                    5801 .LDW_6756870:
00002056 17         5802 	.data.b	23
00002057 4d756345   5803 	.data.b	69,99,117,77,95,67,108,101,97,114,86,97,108,105,100,97,116,101,100,87,97,107,101,117,112,69,118,101,110,116,0
0000205b 656c435f 
0000205f 61567261 
00002063 6164696c 
00002067 57646574 
0000206b 75656b61 
0000206f 65764570 
00002073 00746e 
00002076 03d0       5804 	.data.b	208,3
00002078 17         5805 	.data.b	23
00002079 64         5806 	.data.b	100
0000207a 01         5807 	.data.b	1
0000207b 00         5808 	.data.b	0
0000207c 01         5809 	.data.b	1
0000207d 01         5810 	.data.b	1
0000207e 00         5811 	.data.b	0
0000207f 01         5812 	.data.b	1
                    5813 
00002080 00         5814 	.data.b	0
                    5815 
                    5816 .LDW_6755e58:
00002081 18         5817 	.data.b	24
00002082 4d756345   5818 	.data.b	69,99,117,77,95,71,101,116,80,101,110,100,105,110,103,87,97,107,101,117,112,69,118,101,110,116,115,0
00002086 7465475f 
0000208a 646e6550 
0000208e 57676e69 
00002092 75656b61 
00002096 65764570 
0000209a 0073746e 
0000209e 03de       5819 	.data.b	222,3
000020a0 28         5820 	.data.b	40
000020a1 64         5821 	.data.b	100
000020a2 00000000*  5822 	.data.w	.LDW_670cdf8
000020a6 01         5823 	.data.b	1
000020a7 00         5824 	.data.b	0
000020a8 01         5825 	.data.b	1
000020a9 01         5826 	.data.b	1
000020aa 00         5827 	.data.b	0
000020ab 01         5828 	.data.b	1
                    5829 
                    5830 	.section	.debug_abbrev
000000f3 18         5831 	.data.b	24
000000f4 2e         5832 	.data.b	46
000000f5 01         5833 	.data.b	1
000000f6 0803       5834 	.data.b	3,8
000000f8 0f3b       5835 	.data.b	59,15
000000fa 0f39       5836 	.data.b	57,15
000000fc 0f3a       5837 	.data.b	58,15
000000fe 1049       5838 	.data.b	73,16
00000100 0c3c       5839 	.data.b	60,12
00000102 0b20       5840 	.data.b	32,11
00000104 0c3f       5841 	.data.b	63,12

                                                                      Page 129
                                                              C:\Users\Fengyuan\AppData\Local\Temp\gh_0000p9o1.s
00000106 0b32       5842 	.data.b	50,11
00000108 0b4c       5843 	.data.b	76,11
0000010a 0c27       5844 	.data.b	39,12
0000010c 0000       5845 	.data.b	0,0
                    5846 
                    5847 	.section	.debug_info
000020ac 00         5848 	.data.b	0
                    5849 
                    5850 .LDW_67566a8:
000020ad 18         5851 	.data.b	24
000020ae 4d756345   5852 	.data.b	69,99,117,77,95,71,101,116,86,97,108,105,100,97,116,101,100,87,97,107,101,117,112,69,118,101,110,116,115,0
000020b2 7465475f 
000020b6 696c6156 
000020ba 65746164 
000020be 6b615764 
000020c2 45707565 
000020c6 746e6576 
000020ca 0073 
000020cc 03ec       5853 	.data.b	236,3
000020ce 28         5854 	.data.b	40
000020cf 64         5855 	.data.b	100
000020d0 00000000*  5856 	.data.w	.LDW_670cdf8
000020d4 01         5857 	.data.b	1
000020d5 00         5858 	.data.b	0
000020d6 01         5859 	.data.b	1
000020d7 01         5860 	.data.b	1
000020d8 00         5861 	.data.b	0
000020d9 01         5862 	.data.b	1
                    5863 
000020da 00         5864 	.data.b	0
                    5865 
                    5866 .LDW_6755ef0:
000020db 18         5867 	.data.b	24
000020dc 4d756345   5868 	.data.b	69,99,117,77,95,71,111,84,111,83,101,108,101,99,116,101,100,83,104,117,116,100,111,119,110,84,97,114,103,101,116,0
000020e0 546f475f 
000020e4 6c65536f 
000020e8 65746365 
000020ec 75685364 
000020f0 776f6474 
000020f4 7261546e 
000020f8 00746567 
000020fc 04fc       5869 	.data.b	252,4
000020fe 21         5870 	.data.b	33
000020ff 64         5871 	.data.b	100
00002100 00000000*  5872 	.data.w	.LDW_5d40528
00002104 01         5873 	.data.b	1
00002105 00         5874 	.data.b	0
00002106 01         5875 	.data.b	1
00002107 01         5876 	.data.b	1
00002108 00         5877 	.data.b	0
00002109 01         5878 	.data.b	1
                    5879 
0000210a 00         5880 	.data.b	0
                    5881 
                    5882 .LDW_6756ad0:
0000210b 17         5883 	.data.b	23
0000210c 4d777342   5884 	.data.b	66,115,119,77,95,65,76,95,83,101,116,80,114,111,103,114,97,109,109,97,98,108,101,73,110,116,101,114,114,117,112,116,115,0
00002110 5f4c415f 
00002114 50746553 
00002118 72676f72 
0000211c 616d6d61 

                                                                      Page 130
                                                              C:\Users\Fengyuan\AppData\Local\Temp\gh_0000p9o1.s
00002120 49656c62 
00002124 7265746e 
00002128 74707572 
0000212c 0073 
0000212e 0a99       5885 	.data.b	153,10
00002130 1e         5886 	.data.b	30
00002131 03         5887 	.data.b	3
00002132 01         5888 	.data.b	1
00002133 00         5889 	.data.b	0
00002134 01         5890 	.data.b	1
00002135 01         5891 	.data.b	1
00002136 00         5892 	.data.b	0
00002137 01         5893 	.data.b	1
                    5894 
00002138 00         5895 	.data.b	0
                    5896 
                    5897 .LDW_6756280:
00002139 17         5898 	.data.b	23
0000213a 5f485345   5899 	.data.b	69,83,72,95,67,111,109,77,95,67,104,101,99,107,80,101,110,100,105,110,103,82,101,113,117,101,115,116,115,0
0000213e 4d6d6f43 
00002142 6568435f 
00002146 65506b63 
0000214a 6e69646e 
0000214e 71655267 
00002152 74736575 
00002156 0073 
00002158 0a9a       5900 	.data.b	154,10
0000215a 1e         5901 	.data.b	30
0000215b 03         5902 	.data.b	3
0000215c 01         5903 	.data.b	1
0000215d 00         5904 	.data.b	0
0000215e 01         5905 	.data.b	1
0000215f 01         5906 	.data.b	1
00002160 00         5907 	.data.b	0
00002161 01         5908 	.data.b	1
                    5909 
00002162 00         5910 	.data.b	0
                    5911 
                    5912 .LDW_6755f88:
00002163 17         5913 	.data.b	23
00002164 4d777342   5914 	.data.b	66,115,119,77,95,69,83,72,95,79,110,69,110,116,101,114,80,111,115,116,82,117,110,0
00002168 4853455f 
0000216c 456e4f5f 
00002170 7265746e 
00002174 74736f50 
00002178 006e7552 
0000217c 0a9b       5915 	.data.b	155,10
0000217e 1e         5916 	.data.b	30
0000217f 03         5917 	.data.b	3
00002180 01         5918 	.data.b	1
00002181 00         5919 	.data.b	0
00002182 01         5920 	.data.b	1
00002183 01         5921 	.data.b	1
00002184 00         5922 	.data.b	0
00002185 01         5923 	.data.b	1
                    5924 
00002186 00         5925 	.data.b	0
                    5926 
                    5927 .LDW_6756610:
00002187 17         5928 	.data.b	23
00002188 4d777342   5929 	.data.b	66,115,119,77,95,69,83,72,95,79,110,69,110,116,101,114,83,104,117,116,100,111,119,110,0

                                                                      Page 131
                                                              C:\Users\Fengyuan\AppData\Local\Temp\gh_0000p9o1.s
0000218c 4853455f 
00002190 456e4f5f 
00002194 7265746e 
00002198 74756853 
0000219c 6e776f64 
000021a0 00 
000021a1 0a9c       5930 	.data.b	156,10
000021a3 1e         5931 	.data.b	30
000021a4 03         5932 	.data.b	3
000021a5 01         5933 	.data.b	1
000021a6 00         5934 	.data.b	0
000021a7 01         5935 	.data.b	1
000021a8 01         5936 	.data.b	1
000021a9 00         5937 	.data.b	0
000021aa 01         5938 	.data.b	1
                    5939 
000021ab 00         5940 	.data.b	0
                    5941 
                    5942 .LDW_6756b68:
000021ac 17         5943 	.data.b	23
000021ad 4d777342   5944 	.data.b	66,115,119,77,95,69,83,72,95,79,110,69,110,116,101,114,80,114,101,112,83,104,117,116,100,111,119,110,0
000021b1 4853455f 
000021b5 456e4f5f 
000021b9 7265746e 
000021bd 70657250 
000021c1 74756853 
000021c5 6e776f64 
000021c9 00 
000021ca 0a9d       5945 	.data.b	157,10
000021cc 1e         5946 	.data.b	30
000021cd 03         5947 	.data.b	3
000021ce 01         5948 	.data.b	1
000021cf 00         5949 	.data.b	0
000021d0 01         5950 	.data.b	1
000021d1 01         5951 	.data.b	1
000021d2 00         5952 	.data.b	0
000021d3 01         5953 	.data.b	1
                    5954 
000021d4 00         5955 	.data.b	0
                    5956 
                    5957 .LDW_6756020:
000021d5 17         5958 	.data.b	23
000021d6 4d777342   5959 	.data.b	66,115,119,77,95,69,83,72,95,79,110,69,110,116,101,114,87,97,107,101,117,112,0
000021da 4853455f 
000021de 456e4f5f 
000021e2 7265746e 
000021e6 656b6157 
000021ea 007075 
000021ed 0a9e       5960 	.data.b	158,10
000021ef 1e         5961 	.data.b	30
000021f0 03         5962 	.data.b	3
000021f1 01         5963 	.data.b	1
000021f2 00         5964 	.data.b	0
000021f3 01         5965 	.data.b	1
000021f4 01         5966 	.data.b	1
000021f5 00         5967 	.data.b	0
000021f6 01         5968 	.data.b	1
                    5969 
000021f7 00         5970 	.data.b	0
                    5971 
                    5972 .LDW_67560b8:

                                                                      Page 132
                                                              C:\Users\Fengyuan\AppData\Local\Temp\gh_0000p9o1.s
000021f8 17         5973 	.data.b	23
000021f9 4d777342   5974 	.data.b	66,115,119,77,95,69,83,72,95,79,110,69,110,116,101,114,82,117,110,0
000021fd 4853455f 
00002201 456e4f5f 
00002205 7265746e 
00002209 006e7552 
0000220d 0a9f       5975 	.data.b	159,10
0000220f 1e         5976 	.data.b	30
00002210 03         5977 	.data.b	3
00002211 01         5978 	.data.b	1
00002212 00         5979 	.data.b	0
00002213 01         5980 	.data.b	1
00002214 01         5981 	.data.b	1
00002215 00         5982 	.data.b	0
00002216 01         5983 	.data.b	1
                    5984 
00002217 00         5985 	.data.b	0
                    5986 
                    5987 .LDW_6756c00:
00002218 17         5988 	.data.b	23
00002219 4d777342   5989 	.data.b	66,115,119,77,95,69,83,72,95,79,110,69,110,116,101,114,87,97,105,116,70,111,114,78,118,109,0
0000221d 4853455f 
00002221 456e4f5f 
00002225 7265746e 
00002229 74696157 
0000222d 4e726f46 
00002231 006d76 
00002234 0aa0       5990 	.data.b	160,10
00002236 1e         5991 	.data.b	30
00002237 03         5992 	.data.b	3
00002238 01         5993 	.data.b	1
00002239 00         5994 	.data.b	0
0000223a 01         5995 	.data.b	1
0000223b 01         5996 	.data.b	1
0000223c 00         5997 	.data.b	0
0000223d 01         5998 	.data.b	1
                    5999 
0000223e 00         6000 	.data.b	0
                    6001 
                    6002 .LDW_67564e0:
0000223f 17         6003 	.data.b	23
00002240 4d777342   6004 	.data.b	66,115,119,77,95,82,101,113,117,101,115,116,77,111,100,101,0
00002244 7165525f 
00002248 74736575 
0000224c 65646f4d 
00002250 00 
00002251 02b4       6005 	.data.b	180,2
00002253 1e         6006 	.data.b	30
00002254 02         6007 	.data.b	2
00002255 01         6008 	.data.b	1
00002256 00         6009 	.data.b	0
00002257 01         6010 	.data.b	1
00002258 01         6011 	.data.b	1
00002259 00         6012 	.data.b	0
0000225a 01         6013 	.data.b	1
                    6014 
0000225b 00         6015 	.data.b	0
                    6016 
                    6017 .LDW_6759620:
0000225c 17         6018 	.data.b	23
0000225d 5f6d6f43   6019 	.data.b	67,111,109,95,73,110,105,116,0

                                                                      Page 133
                                                              C:\Users\Fengyuan\AppData\Local\Temp\gh_0000p9o1.s
00002261 74696e49 
00002265 00 
00002266 03ea       6020 	.data.b	234,3
00002268 16         6021 	.data.b	22
00002269 6a         6022 	.data.b	106
0000226a 01         6023 	.data.b	1
0000226b 00         6024 	.data.b	0
0000226c 01         6025 	.data.b	1
0000226d 01         6026 	.data.b	1
0000226e 00         6027 	.data.b	0
0000226f 01         6028 	.data.b	1
                    6029 
00002270 00         6030 	.data.b	0
                    6031 
                    6032 .LDW_67597e8:
00002271 17         6033 	.data.b	23
00002272 5f6d6f43   6034 	.data.b	67,111,109,95,73,112,100,117,71,114,111,117,112,67,111,110,116,114,111,108,0
00002276 75647049 
0000227a 756f7247 
0000227e 6e6f4370 
00002282 6c6f7274 
00002286 00 
00002287 0498       6035 	.data.b	152,4
00002289 16         6036 	.data.b	22
0000228a 6a         6037 	.data.b	106
0000228b 01         6038 	.data.b	1
0000228c 00         6039 	.data.b	0
0000228d 01         6040 	.data.b	1
0000228e 01         6041 	.data.b	1
0000228f 00         6042 	.data.b	0
00002290 01         6043 	.data.b	1
                    6044 
00002291 00         6045 	.data.b	0
                    6046 
                    6047 .LDW_6758e68:
00002292 17         6048 	.data.b	23
00002293 5f6d6f43   6049 	.data.b	67,111,109,95,82,101,99,101,112,116,105,111,110,68,77,67,111,110,116,114,111,108,0
00002297 65636552 
0000229b 6f697470 
0000229f 434d446e 
000022a3 72746e6f 
000022a7 006c6f 
000022aa 04a7       6050 	.data.b	167,4
000022ac 16         6051 	.data.b	22
000022ad 6a         6052 	.data.b	106
000022ae 01         6053 	.data.b	1
000022af 00         6054 	.data.b	0
000022b0 01         6055 	.data.b	1
000022b1 01         6056 	.data.b	1
000022b2 00         6057 	.data.b	0
000022b3 01         6058 	.data.b	1
                    6059 
000022b4 00         6060 	.data.b	0
                    6061 
                    6062 .LDW_6757c00:
000022b5 17         6063 	.data.b	23
000022b6 5f6d6f43   6064 	.data.b	67,111,109,95,67,108,101,97,114,73,112,100,117,71,114,111,117,112,86,101,99,116,111,114,0
000022ba 61656c43 
000022be 64704972 
000022c2 6f724775 
000022c6 65567075 

                                                                      Page 134
                                                              C:\Users\Fengyuan\AppData\Local\Temp\gh_0000p9o1.s
000022ca 726f7463 
000022ce 00 
000022cf 05e9       6065 	.data.b	233,5
000022d1 16         6066 	.data.b	22
000022d2 6a         6067 	.data.b	106
000022d3 01         6068 	.data.b	1
000022d4 00         6069 	.data.b	0
000022d5 01         6070 	.data.b	1
000022d6 01         6071 	.data.b	1
000022d7 00         6072 	.data.b	0
000022d8 01         6073 	.data.b	1
                    6074 
000022d9 00         6075 	.data.b	0
                    6076 
                    6077 .LDW_67587e0:
000022da 17         6078 	.data.b	23
000022db 5f6d6f43   6079 	.data.b	67,111,109,95,83,101,116,73,112,100,117,71,114,111,117,112,0
000022df 49746553 
000022e3 47756470 
000022e7 70756f72 
000022eb 00 
000022ec 05fb       6080 	.data.b	251,5
000022ee 16         6081 	.data.b	22
000022ef 6a         6082 	.data.b	106
000022f0 01         6083 	.data.b	1
000022f1 00         6084 	.data.b	0
000022f2 01         6085 	.data.b	1
000022f3 01         6086 	.data.b	1
000022f4 00         6087 	.data.b	0
000022f5 01         6088 	.data.b	1
                    6089 
000022f6 00         6090 	.data.b	0
                    6091 
                    6092 .LDW_6758580:
000022f7 18         6093 	.data.b	24
000022f8 5f657452   6094 	.data.b	82,116,101,95,82,101,97,100,95,66,115,119,77,95,82,101,113,117,101,115,116,95,69,83,72,95,80,111,115,116,82,117,110,82,101,113,117,101,115,116,95,48,95,114,101,113,117,101,115,116,101,100,77,111,100,101,0
000022fc 64616552 
00002300 7773425f 
00002304 65525f4d 
00002308 73657571 
0000230c 53455f74 
00002310 6f505f48 
00002314 75527473 
00002318 7165526e 
0000231c 74736575 
00002320 725f305f 
00002324 65757165 
00002328 64657473 
0000232c 65646f4d 
00002330 00 
00002331 41         6095 	.data.b	65
00002332 20         6096 	.data.b	32
00002333 77         6097 	.data.b	119
00002334 00000000*  6098 	.data.w	.LDW_5d40528
00002338 01         6099 	.data.b	1
00002339 00         6100 	.data.b	0
0000233a 01         6101 	.data.b	1
0000233b 01         6102 	.data.b	1
0000233c 00         6103 	.data.b	0
0000233d 01         6104 	.data.b	1
                    6105 

                                                                      Page 135
                                                              C:\Users\Fengyuan\AppData\Local\Temp\gh_0000p9o1.s
0000233e 00         6106 	.data.b	0
                    6107 
                    6108 .LDW_6757c98:
0000233f 18         6109 	.data.b	24
00002340 5f657452   6110 	.data.b	82,116,101,95,82,101,97,100,95,66,115,119,77,95,82,101,113,117,101,115,116,95,69,83,72,95,80,111,115,116,82,117,110,82,101,113,117,101,115,116,95,49,95,114,101,113,117,101,115,116,101,100,77,111,100,101,0
00002344 64616552 
00002348 7773425f 
0000234c 65525f4d 
00002350 73657571 
00002354 53455f74 
00002358 6f505f48 
0000235c 75527473 
00002360 7165526e 
00002364 74736575 
00002368 725f315f 
0000236c 65757165 
00002370 64657473 
00002374 65646f4d 
00002378 00 
00002379 42         6111 	.data.b	66
0000237a 20         6112 	.data.b	32
0000237b 77         6113 	.data.b	119
0000237c 00000000*  6114 	.data.w	.LDW_5d40528
00002380 01         6115 	.data.b	1
00002381 00         6116 	.data.b	0
00002382 01         6117 	.data.b	1
00002383 01         6118 	.data.b	1
00002384 00         6119 	.data.b	0
00002385 01         6120 	.data.b	1
                    6121 
00002386 00         6122 	.data.b	0
                    6123 
                    6124 .LDW_67584e8:
00002387 18         6125 	.data.b	24
00002388 5f657452   6126 	.data.b	82,116,101,95,82,101,97,100,95,66,115,119,77,95,82,101,113,117,101,115,116,95,69,83,72,95,82,117,110,82,101,113,117,101,115,116,95,48,95,114,101,113,117,101,115,116,101,100,77,111,100,101,0
0000238c 64616552 
00002390 7773425f 
00002394 65525f4d 
00002398 73657571 
0000239c 53455f74 
000023a0 75525f48 
000023a4 7165526e 
000023a8 74736575 
000023ac 725f305f 
000023b0 65757165 
000023b4 64657473 
000023b8 65646f4d 
000023bc 00 
000023bd 43         6127 	.data.b	67
000023be 20         6128 	.data.b	32
000023bf 77         6129 	.data.b	119
000023c0 00000000*  6130 	.data.w	.LDW_5d40528
000023c4 01         6131 	.data.b	1
000023c5 00         6132 	.data.b	0
000023c6 01         6133 	.data.b	1
000023c7 01         6134 	.data.b	1
000023c8 00         6135 	.data.b	0
000023c9 01         6136 	.data.b	1
                    6137 
000023ca 00         6138 	.data.b	0
                    6139 

                                                                      Page 136
                                                              C:\Users\Fengyuan\AppData\Local\Temp\gh_0000p9o1.s
                    6140 .LDW_6757e60:
000023cb 18         6141 	.data.b	24
000023cc 5f657452   6142 	.data.b	82,116,101,95,82,101,97,100,95,66,115,119,77,95,82,101,113,117,101,115,116,95,69,83,72,95,82,117,110,82,101,113,117,101,115,116,95,49,95,114,101,113,117,101,115,116,101,100,77,111,100,101,0
000023d0 64616552 
000023d4 7773425f 
000023d8 65525f4d 
000023dc 73657571 
000023e0 53455f74 
000023e4 75525f48 
000023e8 7165526e 
000023ec 74736575 
000023f0 725f315f 
000023f4 65757165 
000023f8 64657473 
000023fc 65646f4d 
00002400 00 
00002401 44         6143 	.data.b	68
00002402 20         6144 	.data.b	32
00002403 77         6145 	.data.b	119
00002404 00000000*  6146 	.data.w	.LDW_5d40528
00002408 01         6147 	.data.b	1
00002409 00         6148 	.data.b	0
0000240a 01         6149 	.data.b	1
0000240b 01         6150 	.data.b	1
0000240c 00         6151 	.data.b	0
0000240d 01         6152 	.data.b	1
                    6153 
0000240e 00         6154 	.data.b	0
                    6155 
                    6156 .LDW_6757ef8:
0000240f 18         6157 	.data.b	24
00002410 5f657452   6158 	.data.b	82,116,101,95,77,111,100,101,95,66,115,119,77,95,78,111,116,105,102,105,99,97,116,105,111,110,95,69,83,72,95,77,111,100,101,78,111,116,105,102,105,99,97,116,105,111,110,95,66,115,119,77,95,77,68,71,80,95,69,83
00002414 65646f4d 
00002418 7773425f 
0000241c 6f4e5f4d 
00002420 69666974 
00002424 69746163 
00002428 455f6e6f 
0000242c 4d5f4853 
00002430 4e65646f 
00002434 6669746f 
00002438 74616369 
0000243c 5f6e6f69 
00002440 4d777342 
00002444 47444d5f 
00002448 53455f50 
0000244c 6f4d5f48   6159 	.data.b	72,95,77,111,100,101,0
00002450 006564 
00002453 45         6160 	.data.b	69
00002454 1f         6161 	.data.b	31
00002455 77         6162 	.data.b	119
00002456 00000000*  6163 	.data.w	.LDW_66edf40
0000245a 01         6164 	.data.b	1
0000245b 00         6165 	.data.b	0
0000245c 01         6166 	.data.b	1
0000245d 01         6167 	.data.b	1
0000245e 00         6168 	.data.b	0
0000245f 01         6169 	.data.b	1
                    6170 
00002460 00         6171 	.data.b	0
                    6172 

                                                                      Page 137
                                                              C:\Users\Fengyuan\AppData\Local\Temp\gh_0000p9o1.s
                    6173 .LDW_6758028:
00002461 18         6174 	.data.b	24
00002462 5f657452   6175 	.data.b	82,116,101,95,83,119,105,116,99,104,95,66,115,119,77,95,83,119,105,116,99,104,95,69,83,72,95,77,111,100,101,83,119,105,116,99,104,95,66,115,119,77,95,77,68,71,80,95,69,83,72,95,77,111,100,101,0
00002466 74697753 
0000246a 425f6863 
0000246e 5f4d7773 
00002472 74697753 
00002476 455f6863 
0000247a 4d5f4853 
0000247e 5365646f 
00002482 63746977 
00002486 73425f68 
0000248a 4d5f4d77 
0000248e 5f504744 
00002492 5f485345 
00002496 65646f4d 
0000249a 00 
0000249b 46         6176 	.data.b	70
0000249c 20         6177 	.data.b	32
0000249d 77         6178 	.data.b	119
0000249e 00000000*  6179 	.data.w	.LDW_5d40528
000024a2 01         6180 	.data.b	1
000024a3 00         6181 	.data.b	0
000024a4 01         6182 	.data.b	1
000024a5 01         6183 	.data.b	1
000024a6 00         6184 	.data.b	0
000024a7 01         6185 	.data.b	1
                    6186 
000024a8 00         6187 	.data.b	0
                    6188 
                    6189 .LDW_67589a8:
000024a9 17         6190 	.data.b	23
000024aa 5f6e6143   6191 	.data.b	67,97,110,95,73,110,105,116,0
000024ae 74696e49 
000024b2 00 
000024b3 0be9       6192 	.data.b	233,11
000024b5 20         6193 	.data.b	32
000024b6 7a         6194 	.data.b	122
000024b7 01         6195 	.data.b	1
000024b8 00         6196 	.data.b	0
000024b9 01         6197 	.data.b	1
000024ba 01         6198 	.data.b	1
000024bb 00         6199 	.data.b	0
000024bc 01         6200 	.data.b	1
                    6201 
000024bd 00         6202 	.data.b	0
                    6203 
                    6204 .LDW_675c890:
000024be 17         6205 	.data.b	23
000024bf 496e6143   6206 	.data.b	67,97,110,73,102,95,73,110,105,116,0
000024c3 6e495f66 
000024c7 007469 
000024ca 0285       6207 	.data.b	133,2
000024cc 18         6208 	.data.b	24
000024cd 7f         6209 	.data.b	127
000024ce 01         6210 	.data.b	1
000024cf 00         6211 	.data.b	0
000024d0 01         6212 	.data.b	1
000024d1 01         6213 	.data.b	1
000024d2 00         6214 	.data.b	0
000024d3 01         6215 	.data.b	1

                                                                      Page 138
                                                              C:\Users\Fengyuan\AppData\Local\Temp\gh_0000p9o1.s
                    6216 
000024d4 00         6217 	.data.b	0
                    6218 
                    6219 .LDW_675cb88:
000024d5 17         6220 	.data.b	23
000024d6 546e6143   6221 	.data.b	67,97,110,84,112,95,73,110,105,116,0
000024da 6e495f70 
000024de 007469 
000024e1 029f       6222 	.data.b	159,2
000024e3 18         6223 	.data.b	24
000024e4 0185       6224 	.data.b	133,1
000024e6 01         6225 	.data.b	1
000024e7 00         6226 	.data.b	0
000024e8 01         6227 	.data.b	1
000024e9 01         6228 	.data.b	1
000024ea 00         6229 	.data.b	0
000024eb 01         6230 	.data.b	1
                    6231 
000024ec 00         6232 	.data.b	0
                    6233 
                    6234 .LDW_675c170:
000024ed 17         6235 	.data.b	23
000024ee 52756450   6236 	.data.b	80,100,117,82,95,73,110,105,116,0
000024f2 696e495f 
000024f6 0074 
000024f8 04a8       6237 	.data.b	168,4
000024fa 17         6238 	.data.b	23
000024fb 0182       6239 	.data.b	130,1
000024fd 01         6240 	.data.b	1
000024fe 00         6241 	.data.b	0
000024ff 01         6242 	.data.b	1
00002500 01         6243 	.data.b	1
00002501 00         6244 	.data.b	0
00002502 01         6245 	.data.b	1
                    6246 
00002503 00         6247 	.data.b	0
                    6248 
                    6249 .LDW_675bae8:
00002504 17         6250 	.data.b	23
00002505 536e6143   6251 	.data.b	67,97,110,83,77,95,73,110,105,116,0
00002509 6e495f4d 
0000250d 007469 
00002510 62         6252 	.data.b	98
00002511 1a         6253 	.data.b	26
00002512 018a       6254 	.data.b	138,1
00002514 01         6255 	.data.b	1
00002515 00         6256 	.data.b	0
00002516 01         6257 	.data.b	1
00002517 01         6258 	.data.b	1
00002518 00         6259 	.data.b	0
00002519 01         6260 	.data.b	1
                    6261 
0000251a 00         6262 	.data.b	0
                    6263 
                    6264 .LDW_675d6d0:
0000251b 18         6265 	.data.b	24
0000251c 5f657452   6266 	.data.b	82,116,101,95,83,116,97,114,116,0
00002520 72617453 
00002524 0074 
00002526 24         6267 	.data.b	36
00002527 20         6268 	.data.b	32

                                                                      Page 139
                                                              C:\Users\Fengyuan\AppData\Local\Temp\gh_0000p9o1.s
00002528 018e       6269 	.data.b	142,1
0000252a 00000000*  6270 	.data.w	.LDW_5d40528
0000252e 01         6271 	.data.b	1
0000252f 00         6272 	.data.b	0
00002530 01         6273 	.data.b	1
00002531 01         6274 	.data.b	1
00002532 00         6275 	.data.b	0
00002533 01         6276 	.data.b	1
                    6277 
00002534 00         6278 	.data.b	0
                    6279 
                    6280 .LDW_5d401f8:
00002535 15         6281 	.data.b	21
00002536 4d777342   6282 	.data.b	66,115,119,77,95,69,120,101,99,117,116,101,73,112,100,117,71,114,111,117,112,67,111,110,116,114,111,108,0
0000253a 6578455f 
0000253e 65747563 
00002542 75647049 
00002546 756f7247 
0000254a 6e6f4370 
0000254e 6c6f7274 
00002552 00 
00002553 05f0       6283 	.data.b	240,5
00002555 17         6284 	.data.b	23
00002556 01         6285 	.data.b	1
00002557 00000000*  6286 	.data.w	BswM_ExecuteIpduGroupControl
0000255b 00000000*  6287 	.data.w	__ghs_eofn_BswM_ExecuteIpduGroupControl
0000255f 5d01       6288 	.data.b	1,93
00002561 0180b0     6289 	.data.b	176,128,1
00002564 78         6290 	.data.b	120
00002565 00         6291 	.data.b	0
00002566 0c         6292 	.data.b	12
00002567 01         6293 	.data.b	1
00002568 00         6294 	.data.b	0
00002569 00         6295 	.data.b	0
0000256a 01         6296 	.data.b	1
0000256b 01         6297 	.data.b	1
0000256c 00         6298 	.data.b	0
0000256d 01         6299 	.data.b	1
                    6300 
                    6301 	.section	.debug_abbrev
0000010e 15         6302 	.data.b	21
0000010f 2e         6303 	.data.b	46
00000110 01         6304 	.data.b	1
00000111 0803       6305 	.data.b	3,8
00000113 0f3b       6306 	.data.b	59,15
00000115 0f39       6307 	.data.b	57,15
00000117 0f3a       6308 	.data.b	58,15
00000119 0111       6309 	.data.b	17,1
0000011b 0112       6310 	.data.b	18,1
0000011d 0a40       6311 	.data.b	64,10
0000011f 4183       6312 	.data.b	131,65
00000121 0f         6313 	.data.b	15
00000122 4187       6314 	.data.b	135,65
00000124 0d         6315 	.data.b	13
00000125 4185       6316 	.data.b	133,65
00000127 0f         6317 	.data.b	15
00000128 4186       6318 	.data.b	134,65
0000012a 0d         6319 	.data.b	13
0000012b 4192       6320 	.data.b	146,65
0000012d 0f         6321 	.data.b	15
0000012e 0c3c       6322 	.data.b	60,12

                                                                      Page 140
                                                              C:\Users\Fengyuan\AppData\Local\Temp\gh_0000p9o1.s
00000130 0b20       6323 	.data.b	32,11
00000132 0c3f       6324 	.data.b	63,12
00000134 0b32       6325 	.data.b	50,11
00000136 0b4c       6326 	.data.b	76,11
00000138 0c27       6327 	.data.b	39,12
0000013a 0000       6328 	.data.b	0,0
                    6329 
                    6330 	.section	.debug_frame
                    6331 .LDW_671ebb8:
00000090 00000000*  6332 	.data.w	.LDW_unq_4-.LDW_unq_3
                    6333 .LDW_unq_3:
00000094 00000000*  6334 	.data.w	.LDW_65bf828
00000098 00000000*  6335 	.data.w	BswM_ExecuteIpduGroupControl
0000009c 0000004e   6336 	.data.w	__ghs_eofn_BswM_ExecuteIpduGroupControl-BswM_ExecuteIpduGroupControl
000000a0 01         6337 	.data.b	1
000000a1 00000000*  6338 	.data.w	.LDW11
000000a5 00         6339 	.data.b	0
000000a6 00         6340 	.data.b	0
000000a7 00         6341 	.data.b	0
                    6342 .LDW_unq_4:
                    6343 	.section	.debug_line
000011d0 020500     6344 	.data.b	0,5,2
000011d3 00000000*  6345 	.data.w	BswM_ExecuteIpduGroupControl
000011d7 06         6346 	.data.b	6
000011d8 03         6347 	.data.b	3
000011d9 05f0       6348 	.data.b	240,5
000011db 02         6349 	.data.b	2
000011dc 00         6350 	.data.b	0
000011dd 01         6351 	.data.b	1
000011de 03         6352 	.data.b	3
000011df 04         6353 	.data.b	4
000011e0 02         6354 	.data.b	2
000011e1 06         6355 	.data.b	6
000011e2 01         6356 	.data.b	1
000011e3 14         6357 	.data.b	20
000011e4 1b         6358 	.data.b	27
000011e5 1b         6359 	.data.b	27
000011e6 0b         6360 	.data.b	11
000011e7 020500     6361 	.data.b	0,5,2
000011ea 00000000*  6362 	.data.w	.LDWlin1
000011ee 0b         6363 	.data.b	11
000011ef 0c         6364 	.data.b	12
000011f0 0c         6365 	.data.b	12
000011f1 23         6366 	.data.b	35
000011f2 0b         6367 	.data.b	11
000011f3 02         6368 	.data.b	2
000011f4 00         6369 	.data.b	0
000011f5 0b         6370 	.data.b	11
000011f6 020500     6371 	.data.b	0,5,2
000011f9 00000000*  6372 	.data.w	.LDWlin2
000011fd 0b         6373 	.data.b	11
000011fe 0c         6374 	.data.b	12
000011ff 0c         6375 	.data.b	12
00001200 23         6376 	.data.b	35
00001201 0b         6377 	.data.b	11
00001202 02         6378 	.data.b	2
00001203 00         6379 	.data.b	0
00001204 0b         6380 	.data.b	11
00001205 13         6381 	.data.b	19
00001206 1b         6382 	.data.b	27
00001207 02         6383 	.data.b	2

                                                                      Page 141
                                                              C:\Users\Fengyuan\AppData\Local\Temp\gh_0000p9o1.s
00001208 00         6384 	.data.b	0
00001209 0b         6385 	.data.b	11
0000120a 1c         6386 	.data.b	28
0000120b 13         6387 	.data.b	19
0000120c 0b         6388 	.data.b	11
0000120d 020500     6389 	.data.b	0,5,2
00001210 00000000*  6390 	.data.w	.LDWlin3
00001214 0b         6391 	.data.b	11
00001215 0b         6392 	.data.b	11
00001216 33         6393 	.data.b	51
00001217 02         6394 	.data.b	2
00001218 00         6395 	.data.b	0
00001219 0b         6396 	.data.b	11
0000121a 020500     6397 	.data.b	0,5,2
0000121d 00000000*  6398 	.data.w	.LDWlin4
00001221 0b         6399 	.data.b	11
00001222 0b         6400 	.data.b	11
00001223 2b         6401 	.data.b	43
00001224 02         6402 	.data.b	2
00001225 00         6403 	.data.b	0
00001226 0b         6404 	.data.b	11
00001227 02         6405 	.data.b	2
00001228 00         6406 	.data.b	0
00001229 0b         6407 	.data.b	11
0000122a 02         6408 	.data.b	2
0000122b 04         6409 	.data.b	4
0000122c 010100     6410 	.data.b	0,1,1
                    6411 	.section	.debug_info
                    6412 .LDW_5d3f708:
0000256e 1f         6413 	.data.b	31
0000256f 00000000*  6414 	.data.w	.LDW01
00002573 00000000*  6415 	.data.w	.LDW11
                    6416 
                    6417 	.section	.debug_abbrev
0000013c 1f         6418 	.data.b	31
0000013d 0b         6419 	.data.b	11
0000013e 01         6420 	.data.b	1
0000013f 0111       6421 	.data.b	17,1
00000141 0112       6422 	.data.b	18,1
00000143 0000       6423 	.data.b	0,0
                    6424 
                    6425 	.section	.debug_info
                    6426 .LDW_5d40370:
00002577 06         6427 	.data.b	6
00002578 75647069   6428 	.data.b	105,112,100,117,71,114,111,117,112,83,116,97,116,101,0
0000257c 756f7247 
00002580 61745370 
00002584 006574 
00002587 05f2       6429 	.data.b	242,5
00002589 17         6430 	.data.b	23
0000258a 01         6431 	.data.b	1
0000258b 00000000*  6432 	.data.w	.LDW_5d40318
0000258f 00         6433 	.data.b	0
00002590 00         6434 	.data.b	0
00002591 7d02       6435 	.data.b	2,125
00002593 02         6436 	.data.b	2
                    6437 
                    6438 .LDW_5d403c8:
00002594 06         6439 	.data.b	6
00002595 74536d64   6440 	.data.b	100,109,83,116,97,116,101,0
00002599 00657461 

                                                                      Page 142
                                                              C:\Users\Fengyuan\AppData\Local\Temp\gh_0000p9o1.s
0000259d 05f3       6441 	.data.b	243,5
0000259f 17         6442 	.data.b	23
000025a0 01         6443 	.data.b	1
000025a1 00000000*  6444 	.data.w	.LDW_5d40318
000025a5 00         6445 	.data.b	0
000025a6 00         6446 	.data.b	0
000025a7 7d02       6447 	.data.b	2,125
000025a9 03         6448 	.data.b	3
                    6449 
                    6450 .LDW_5d40478:
000025aa 07         6451 	.data.b	7
000025ab 746e4369   6452 	.data.b	105,67,110,116,0
000025af 00 
000025b0 05f4       6453 	.data.b	244,5
000025b2 0a         6454 	.data.b	10
000025b3 01         6455 	.data.b	1
000025b4 00000000*  6456 	.data.w	.LDW_5d40420
000025b8 00         6457 	.data.b	0
000025b9 00         6458 	.data.b	0
                    6459 
                    6460 	.section	.debug_abbrev
00000145 07         6461 	.data.b	7
00000146 34         6462 	.data.b	52
00000147 00         6463 	.data.b	0
00000148 0803       6464 	.data.b	3,8
0000014a 0f3b       6465 	.data.b	59,15
0000014c 0f39       6466 	.data.b	57,15
0000014e 0f3a       6467 	.data.b	58,15
00000150 1049       6468 	.data.b	73,16
00000152 0c3f       6469 	.data.b	63,12
00000154 0c3c       6470 	.data.b	60,12
00000156 0000       6471 	.data.b	0,0
                    6472 
                    6473 	.section	.debug_info
                    6474 .LDW_5d404d0:
000025ba 06         6475 	.data.b	6
000025bb 746e6f63   6476 	.data.b	99,111,110,116,114,111,108,73,110,118,111,99,97,116,105,111,110,0
000025bf 496c6f72 
000025c3 636f766e 
000025c7 6f697461 
000025cb 006e 
000025cd 05f5       6477 	.data.b	245,5
000025cf 09         6478 	.data.b	9
000025d0 01         6479 	.data.b	1
000025d1 00000000*  6480 	.data.w	.LDW_4a9a4c8
000025d5 00         6481 	.data.b	0
000025d6 00         6482 	.data.b	0
000025d7 5501       6483 	.data.b	1,85
                    6484 
000025d9 00         6485 	.data.b	0
                    6486 
000025da 00         6487 	.data.b	0
                    6488 
                    6489 .LDW_5c639f8:
000025db 16         6490 	.data.b	22
000025dc 4d777342   6491 	.data.b	66,115,119,77,95,65,99,116,105,111,110,95,82,117,108,101,72,97,110,100,108,101,114,0
000025e0 7463415f 
000025e4 5f6e6f69 
000025e8 656c7552 
000025ec 646e6148 
000025f0 0072656c 

                                                                      Page 143
                                                              C:\Users\Fengyuan\AppData\Local\Temp\gh_0000p9o1.s
000025f4 069f       6492 	.data.b	159,6
000025f6 2c         6493 	.data.b	44
000025f7 01         6494 	.data.b	1
000025f8 00000000*  6495 	.data.w	.LDW_5d40528
000025fc 00000000*  6496 	.data.w	BswM_Action_RuleHandler..C.3A.5CVector.5CCBD1800257_D01_S32K1xx.5CApplications.5CS32K144_Start_new.5CAppl.5Cobj.5CBswM_Lcfg.
00002600 00000000*  6497 	.data.w	__ghs_eofn_BswM_Action_RuleHandler
00002604 5d01       6498 	.data.b	1,93
00002606 018090     6499 	.data.b	144,128,1
00002609 7c         6500 	.data.b	124
0000260a 00         6501 	.data.b	0
0000260b 04         6502 	.data.b	4
0000260c 01         6503 	.data.b	1
0000260d 00         6504 	.data.b	0
0000260e 00         6505 	.data.b	0
0000260f 00         6506 	.data.b	0
00002610 01         6507 	.data.b	1
00002611 00         6508 	.data.b	0
00002612 01         6509 	.data.b	1
                    6510 
                    6511 	.section	.debug_abbrev
00000158 16         6512 	.data.b	22
00000159 2e         6513 	.data.b	46
0000015a 01         6514 	.data.b	1
0000015b 0803       6515 	.data.b	3,8
0000015d 0f3b       6516 	.data.b	59,15
0000015f 0f39       6517 	.data.b	57,15
00000161 0f3a       6518 	.data.b	58,15
00000163 1049       6519 	.data.b	73,16
00000165 0111       6520 	.data.b	17,1
00000167 0112       6521 	.data.b	18,1
00000169 0a40       6522 	.data.b	64,10
0000016b 4183       6523 	.data.b	131,65
0000016d 0f         6524 	.data.b	15
0000016e 4187       6525 	.data.b	135,65
00000170 0d         6526 	.data.b	13
00000171 4185       6527 	.data.b	133,65
00000173 0f         6528 	.data.b	15
00000174 4186       6529 	.data.b	134,65
00000176 0d         6530 	.data.b	13
00000177 4192       6531 	.data.b	146,65
00000179 0f         6532 	.data.b	15
0000017a 0c3c       6533 	.data.b	60,12
0000017c 0b20       6534 	.data.b	32,11
0000017e 0c3f       6535 	.data.b	63,12
00000180 0b32       6536 	.data.b	50,11
00000182 0b4c       6537 	.data.b	76,11
00000184 0c27       6538 	.data.b	39,12
00000186 0000       6539 	.data.b	0,0
                    6540 
                    6541 	.section	.debug_frame
                    6542 .LDW_5fe5818:
000000a8 00000000*  6543 	.data.w	.LDW_unq_6-.LDW_unq_5
                    6544 .LDW_unq_5:
000000ac 00000000*  6545 	.data.w	.LDW_65bf828
000000b0 00000000*  6546 	.data.w	BswM_Action_RuleHandler..C.3A.5CVector.5CCBD1800257_D01_S32K1xx.5CApplications.5CS32K144_Start_new.5CAppl.5Cobj.5CBswM_Lcfg.
000000b4 0000002e   6547 	.data.w	__ghs_eofn_BswM_Action_RuleHandler-BswM_Action_RuleHandler..C.3A.5CVector.5CCBD1800257_D01_S32K1xx.5CApplications.5CS32K144_Start_new.5CAppl.5Cobj.5CBswM_Lcfg.
000000b8 01         6548 	.data.b	1
000000b9 00000000*  6549 	.data.w	.LDW31
000000bd 00         6550 	.data.b	0
000000be 00         6551 	.data.b	0
000000bf 00         6552 	.data.b	0

                                                                      Page 144
                                                              C:\Users\Fengyuan\AppData\Local\Temp\gh_0000p9o1.s
                    6553 .LDW_unq_6:
                    6554 	.section	.debug_line
0000122f 020500     6555 	.data.b	0,5,2
00001232 00000000*  6556 	.data.w	BswM_Action_RuleHandler..C.3A.5CVector.5CCBD1800257_D01_S32K1xx.5CApplications.5CS32K144_Start_new.5CAppl.5Cobj.5CBswM_Lcfg.
00001236 06         6557 	.data.b	6
00001237 03         6558 	.data.b	3
00001238 069f       6559 	.data.b	159,6
0000123a 02         6560 	.data.b	2
0000123b 00         6561 	.data.b	0
0000123c 01         6562 	.data.b	1
0000123d 03         6563 	.data.b	3
0000123e 04         6564 	.data.b	4
0000123f 02         6565 	.data.b	2
00001240 04         6566 	.data.b	4
00001241 01         6567 	.data.b	1
00001242 020500     6568 	.data.b	0,5,2
00001245 00000000*  6569 	.data.w	.LDWlin5
00001249 0b         6570 	.data.b	11
0000124a 0b         6571 	.data.b	11
0000124b 1b         6572 	.data.b	27
0000124c 3b         6573 	.data.b	59
0000124d 1b         6574 	.data.b	27
0000124e 020500     6575 	.data.b	0,5,2
00001251 00000000*  6576 	.data.w	.LDWlin6
00001255 0b         6577 	.data.b	11
00001256 0b         6578 	.data.b	11
00001257 03         6579 	.data.b	3
00001258 05         6580 	.data.b	5
00001259 02         6581 	.data.b	2
0000125a 08         6582 	.data.b	8
0000125b 01         6583 	.data.b	1
0000125c 02         6584 	.data.b	2
0000125d 00         6585 	.data.b	0
0000125e 0b         6586 	.data.b	11
0000125f 02         6587 	.data.b	2
00001260 00         6588 	.data.b	0
00001261 0b         6589 	.data.b	11
00001262 02         6590 	.data.b	2
00001263 02         6591 	.data.b	2
00001264 010100     6592 	.data.b	0,1,1
                    6593 	.section	.debug_info
                    6594 .LDW_5c63a90:
00002613 11         6595 	.data.b	17
00002614 646e6168   6596 	.data.b	104,97,110,100,108,101,73,100,0
00002618 6449656c 
0000261c 00 
0000261d 069f       6597 	.data.b	159,6
0000261f 54         6598 	.data.b	84
00002620 01         6599 	.data.b	1
00002621 00000000*  6600 	.data.w	.LDW_5d40580
00002625 00         6601 	.data.b	0
00002626 5401       6602 	.data.b	1,84
                    6603 
                    6604 	.section	.debug_abbrev
00000188 11         6605 	.data.b	17
00000189 05         6606 	.data.b	5
0000018a 00         6607 	.data.b	0
0000018b 0803       6608 	.data.b	3,8
0000018d 0f3b       6609 	.data.b	59,15
0000018f 0f39       6610 	.data.b	57,15
00000191 0f3a       6611 	.data.b	58,15

                                                                      Page 145
                                                              C:\Users\Fengyuan\AppData\Local\Temp\gh_0000p9o1.s
00000193 1049       6612 	.data.b	73,16
00000195 0c4b       6613 	.data.b	75,12
00000197 0a02       6614 	.data.b	2,10
00000199 0000       6615 	.data.b	0,0
                    6616 
                    6617 	.section	.debug_info
                    6618 .LDW_5d3f738:
00002628 1f         6619 	.data.b	31
00002629 00000000*  6620 	.data.w	.LDW21
0000262d 00000000*  6621 	.data.w	.LDW31
                    6622 
                    6623 .LDW_5c63ae8:
00002631 06         6624 	.data.b	6
00002632 69746361   6625 	.data.b	97,99,116,105,111,110,76,105,115,116,73,110,100,101,120,0
00002636 694c6e6f 
0000263a 6e497473 
0000263e 00786564 
00002642 06a1       6626 	.data.b	161,6
00002644 13         6627 	.data.b	19
00002645 01         6628 	.data.b	1
00002646 00000000*  6629 	.data.w	.LDW_5d40580
0000264a 00         6630 	.data.b	0
0000264b 00         6631 	.data.b	0
0000264c 5401       6632 	.data.b	1,84
                    6633 
                    6634 .LDW_5c63b40:
0000264e 06         6635 	.data.b	6
0000264f 56746572   6636 	.data.b	114,101,116,86,97,108,0
00002653 006c61 
00002656 06a2       6637 	.data.b	162,6
00002658 12         6638 	.data.b	18
00002659 01         6639 	.data.b	1
0000265a 00000000*  6640 	.data.w	.LDW_5d40528
0000265e 00         6641 	.data.b	0
0000265f 00         6642 	.data.b	0
00002660 5001       6643 	.data.b	1,80
                    6644 
00002662 00         6645 	.data.b	0
                    6646 
00002663 00         6647 	.data.b	0
                    6648 
                    6649 .LDW_5c643a0:
00002664 17         6650 	.data.b	23
00002665 4d777342   6651 	.data.b	66,115,119,77,95,85,112,100,97,116,101,82,117,108,101,83,116,97,116,101,115,0
00002669 6470555f 
0000266d 52657461 
00002671 53656c75 
00002675 65746174 
00002679 0073 
0000267b 06b8       6652 	.data.b	184,6
0000267d 29         6653 	.data.b	41
0000267e 01         6654 	.data.b	1
0000267f 00         6655 	.data.b	0
00002680 03         6656 	.data.b	3
00002681 00         6657 	.data.b	0
00002682 01         6658 	.data.b	1
00002683 00         6659 	.data.b	0
00002684 01         6660 	.data.b	1
                    6661 
                    6662 .LDW_5c63c70:
00002685 12         6663 	.data.b	18

                                                                      Page 146
                                                              C:\Users\Fengyuan\AppData\Local\Temp\gh_0000p9o1.s
00002686 656c7572   6664 	.data.b	114,117,108,101,73,100,0
0000268a 006449 
0000268d 06b8       6665 	.data.b	184,6
0000268f 59         6666 	.data.b	89
00002690 01         6667 	.data.b	1
00002691 00000000*  6668 	.data.w	.LDW_5c641f0
00002695 00         6669 	.data.b	0
                    6670 
                    6671 	.section	.debug_abbrev
0000019b 12         6672 	.data.b	18
0000019c 05         6673 	.data.b	5
0000019d 00         6674 	.data.b	0
0000019e 0803       6675 	.data.b	3,8
000001a0 0f3b       6676 	.data.b	59,15
000001a2 0f39       6677 	.data.b	57,15
000001a4 0f3a       6678 	.data.b	58,15
000001a6 1049       6679 	.data.b	73,16
000001a8 0c4b       6680 	.data.b	75,12
000001aa 0000       6681 	.data.b	0,0
                    6682 
                    6683 	.section	.debug_info
                    6684 .LDW_5c64090:
00002696 12         6685 	.data.b	18
00002697 74617473   6686 	.data.b	115,116,97,116,101,0
0000269b 0065 
0000269d 06b8       6687 	.data.b	184,6
0000269f 75         6688 	.data.b	117
000026a0 01         6689 	.data.b	1
000026a1 00000000*  6690 	.data.w	.LDW_5c63f30
000026a5 00         6691 	.data.b	0
                    6692 
                    6693 .LDW_5d3f6d8:
000026a6 22         6694 	.data.b	34
                    6695 
                    6696 	.section	.debug_abbrev
000001ac 22         6697 	.data.b	34
000001ad 0b         6698 	.data.b	11
000001ae 01         6699 	.data.b	1
000001af 0000       6700 	.data.b	0,0
                    6701 
                    6702 	.section	.debug_info
000026a7 00         6703 	.data.b	0
                    6704 
000026a8 00         6705 	.data.b	0
                    6706 
                    6707 .LDW_5c64438:
000026a9 17         6708 	.data.b	23
000026aa 4d777342   6709 	.data.b	66,115,119,77,95,85,112,100,97,116,101,84,105,109,101,114,0
000026ae 6470555f 
000026b2 54657461 
000026b6 72656d69 
000026ba 00 
000026bb 06c3       6710 	.data.b	195,6
000026bd 29         6711 	.data.b	41
000026be 01         6712 	.data.b	1
000026bf 00         6713 	.data.b	0
000026c0 03         6714 	.data.b	3
000026c1 00         6715 	.data.b	0
000026c2 01         6716 	.data.b	1
000026c3 00         6717 	.data.b	0
000026c4 01         6718 	.data.b	1

                                                                      Page 147
                                                              C:\Users\Fengyuan\AppData\Local\Temp\gh_0000p9o1.s
                    6719 
                    6720 .LDW_5c642f8:
000026c5 12         6721 	.data.b	18
000026c6 656d6974   6722 	.data.b	116,105,109,101,114,73,100,0
000026ca 00644972 
000026ce 06c3       6723 	.data.b	195,6
000026d0 54         6724 	.data.b	84
000026d1 01         6725 	.data.b	1
000026d2 00000000*  6726 	.data.w	.LDW_5c63f88
000026d6 00         6727 	.data.b	0
                    6728 
                    6729 .LDW_5c640e8:
000026d7 12         6730 	.data.b	18
000026d8 756c6176   6731 	.data.b	118,97,108,117,101,0
000026dc 0065 
000026de 06c3       6732 	.data.b	195,6
000026e0 71         6733 	.data.b	113
000026e1 01         6734 	.data.b	1
000026e2 00000000*  6735 	.data.w	.LDW_5c63bc0
000026e6 00         6736 	.data.b	0
                    6737 
                    6738 .LDW_5d3fb28:
000026e7 22         6739 	.data.b	34
                    6740 
000026e8 00         6741 	.data.b	0
                    6742 
000026e9 00         6743 	.data.b	0
                    6744 
                    6745 .LDW_5c644d0:
000026ea 15         6746 	.data.b	21
000026eb 4d777342   6747 	.data.b	66,115,119,77,95,73,110,105,116,95,71,101,110,95,78,111,80,97,114,116,105,116,105,111,110,115,0
000026ef 696e495f 
000026f3 65475f74 
000026f7 6f4e5f6e 
000026fb 74726150 
000026ff 6f697469 
00002703 00736e 
00002706 06d1       6748 	.data.b	209,6
00002708 17         6749 	.data.b	23
00002709 01         6750 	.data.b	1
0000270a 00000000*  6751 	.data.w	BswM_Init_Gen_NoPartitions
0000270e 00000000*  6752 	.data.w	__ghs_eofn_BswM_Init_Gen_NoPartitions
00002712 5d01       6753 	.data.b	1,93
00002714 0180b0     6754 	.data.b	176,128,1
00002717 78         6755 	.data.b	120
00002718 00         6756 	.data.b	0
00002719 08         6757 	.data.b	8
0000271a 01         6758 	.data.b	1
0000271b 00         6759 	.data.b	0
0000271c 00         6760 	.data.b	0
0000271d 01         6761 	.data.b	1
0000271e 01         6762 	.data.b	1
0000271f 00         6763 	.data.b	0
00002720 01         6764 	.data.b	1
                    6765 
                    6766 	.section	.debug_frame
                    6767 .LDW_5fe5498:
000000c0 00000000*  6768 	.data.w	.LDW_unq_8-.LDW_unq_7
                    6769 .LDW_unq_7:
000000c4 00000000*  6770 	.data.w	.LDW_65bf828
000000c8 00000000*  6771 	.data.w	BswM_Init_Gen_NoPartitions

                                                                      Page 148
                                                              C:\Users\Fengyuan\AppData\Local\Temp\gh_0000p9o1.s
000000cc 0000002a   6772 	.data.w	__ghs_eofn_BswM_Init_Gen_NoPartitions-BswM_Init_Gen_NoPartitions
000000d0 01         6773 	.data.b	1
000000d1 00000000*  6774 	.data.w	.LDW51
000000d5 00         6775 	.data.b	0
000000d6 00         6776 	.data.b	0
000000d7 00         6777 	.data.b	0
                    6778 .LDW_unq_8:
                    6779 	.section	.debug_line
00001267 020500     6780 	.data.b	0,5,2
0000126a 00000000*  6781 	.data.w	BswM_Init_Gen_NoPartitions
0000126e 06         6782 	.data.b	6
0000126f 03         6783 	.data.b	3
00001270 06d1       6784 	.data.b	209,6
00001272 02         6785 	.data.b	2
00001273 00         6786 	.data.b	0
00001274 01         6787 	.data.b	1
00001275 1c         6788 	.data.b	28
00001276 1b         6789 	.data.b	27
00001277 1b         6790 	.data.b	27
00001278 13         6791 	.data.b	19
00001279 13         6792 	.data.b	19
0000127a 13         6793 	.data.b	19
0000127b 1b         6794 	.data.b	27
0000127c 1d         6795 	.data.b	29
0000127d 23         6796 	.data.b	35
0000127e 1d         6797 	.data.b	29
0000127f 1b         6798 	.data.b	27
00001280 02         6799 	.data.b	2
00001281 02         6800 	.data.b	2
00001282 010100     6801 	.data.b	0,1,1
                    6802 	.section	.debug_info
                    6803 .LDW_5d3f798:
00002721 1f         6804 	.data.b	31
00002722 00000000*  6805 	.data.w	.LDW41
00002726 00000000*  6806 	.data.w	.LDW51
                    6807 
0000272a 00         6808 	.data.b	0
                    6809 
0000272b 00         6810 	.data.b	0
                    6811 
                    6812 .LDW_5c64568:
0000272c 15         6813 	.data.b	21
0000272d 4d777342   6814 	.data.b	66,115,119,77,95,77,111,100,101,78,111,116,105,102,105,99,97,116,105,111,110,70,99,116,0
00002731 646f4d5f 
00002735 746f4e65 
00002739 63696669 
0000273d 6f697461 
00002741 7463466e 
00002745 00 
00002746 06e7       6815 	.data.b	231,6
00002748 17         6816 	.data.b	23
00002749 01         6817 	.data.b	1
0000274a 00000000*  6818 	.data.w	BswM_ModeNotificationFct
0000274e 00000000*  6819 	.data.w	__ghs_eofn_BswM_ModeNotificationFct
00002752 5d01       6820 	.data.b	1,93
00002754 018090     6821 	.data.b	144,128,1
00002757 7c         6822 	.data.b	124
00002758 00         6823 	.data.b	0
00002759 04         6824 	.data.b	4
0000275a 01         6825 	.data.b	1
0000275b 00         6826 	.data.b	0

                                                                      Page 149
                                                              C:\Users\Fengyuan\AppData\Local\Temp\gh_0000p9o1.s
0000275c 00         6827 	.data.b	0
0000275d 01         6828 	.data.b	1
0000275e 01         6829 	.data.b	1
0000275f 00         6830 	.data.b	0
00002760 01         6831 	.data.b	1
                    6832 
                    6833 	.section	.debug_frame
                    6834 .LDW_5fe50d8:
000000d8 00000000*  6835 	.data.w	.LDW_unq_a-.LDW_unq_9
                    6836 .LDW_unq_9:
000000dc 00000000*  6837 	.data.w	.LDW_65bf828
000000e0 00000000*  6838 	.data.w	BswM_ModeNotificationFct
000000e4 00000016   6839 	.data.w	__ghs_eofn_BswM_ModeNotificationFct-BswM_ModeNotificationFct
000000e8 01         6840 	.data.b	1
000000e9 00000000*  6841 	.data.w	.LDW71
000000ed 00         6842 	.data.b	0
000000ee 00         6843 	.data.b	0
000000ef 00         6844 	.data.b	0
                    6845 .LDW_unq_a:
                    6846 	.section	.debug_line
00001285 020500     6847 	.data.b	0,5,2
00001288 00000000*  6848 	.data.w	BswM_ModeNotificationFct
0000128c 06         6849 	.data.b	6
0000128d 03         6850 	.data.b	3
0000128e 06e7       6851 	.data.b	231,6
00001290 02         6852 	.data.b	2
00001291 00         6853 	.data.b	0
00001292 01         6854 	.data.b	1
00001293 1b         6855 	.data.b	27
00001294 020500     6856 	.data.b	0,5,2
00001297 00000000*  6857 	.data.w	.LDWlin7
0000129b 0b         6858 	.data.b	11
0000129c 0b         6859 	.data.b	11
0000129d 23         6860 	.data.b	35
0000129e 0b         6861 	.data.b	11
0000129f 1b         6862 	.data.b	27
000012a0 02         6863 	.data.b	2
000012a1 00         6864 	.data.b	0
000012a2 0b         6865 	.data.b	11
000012a3 02         6866 	.data.b	2
000012a4 00         6867 	.data.b	0
000012a5 0b         6868 	.data.b	11
000012a6 02         6869 	.data.b	2
000012a7 02         6870 	.data.b	2
000012a8 010100     6871 	.data.b	0,1,1
                    6872 	.section	.debug_info
                    6873 .LDW_5d3fb88:
00002761 1f         6874 	.data.b	31
00002762 00000000*  6875 	.data.w	.LDW61
00002766 00000000*  6876 	.data.w	.LDW71
                    6877 
0000276a 00         6878 	.data.b	0
                    6879 
0000276b 00         6880 	.data.b	0
                    6881 
                    6882 .LDW_5c64600:
0000276c 15         6883 	.data.b	21
0000276d 4d777342   6884 	.data.b	66,115,119,77,95,83,119,99,77,111,100,101,82,101,113,117,101,115,116,85,112,100,97,116,101,70,99,116,0
00002771 6377535f 
00002775 65646f4d 
00002779 75716552 

                                                                      Page 150
                                                              C:\Users\Fengyuan\AppData\Local\Temp\gh_0000p9o1.s
0000277d 55747365 
00002781 74616470 
00002785 74634665 
00002789 00 
0000278a 06f5       6885 	.data.b	245,6
0000278c 17         6886 	.data.b	23
0000278d 01         6887 	.data.b	1
0000278e 00000000*  6888 	.data.w	BswM_SwcModeRequestUpdateFct
00002792 00000000*  6889 	.data.w	__ghs_eofn_BswM_SwcModeRequestUpdateFct
00002796 5d01       6890 	.data.b	1,93
00002798 018090     6891 	.data.b	144,128,1
0000279b 7c         6892 	.data.b	124
0000279c 00         6893 	.data.b	0
0000279d 04         6894 	.data.b	4
0000279e 01         6895 	.data.b	1
0000279f 00         6896 	.data.b	0
000027a0 00         6897 	.data.b	0
000027a1 01         6898 	.data.b	1
000027a2 01         6899 	.data.b	1
000027a3 00         6900 	.data.b	0
000027a4 01         6901 	.data.b	1
                    6902 
                    6903 	.section	.debug_frame
                    6904 .LDW_5fe4f18:
000000f0 00000000*  6905 	.data.w	.LDW_unq_c-.LDW_unq_b
                    6906 .LDW_unq_b:
000000f4 00000000*  6907 	.data.w	.LDW_65bf828
000000f8 00000000*  6908 	.data.w	BswM_SwcModeRequestUpdateFct
000000fc 00000028   6909 	.data.w	__ghs_eofn_BswM_SwcModeRequestUpdateFct-BswM_SwcModeRequestUpdateFct
00000100 01         6910 	.data.b	1
00000101 00000000*  6911 	.data.w	.LDW91
00000105 00         6912 	.data.b	0
00000106 00         6913 	.data.b	0
00000107 00         6914 	.data.b	0
                    6915 .LDW_unq_c:
                    6916 	.section	.debug_line
000012ab 020500     6917 	.data.b	0,5,2
000012ae 00000000*  6918 	.data.w	BswM_SwcModeRequestUpdateFct
000012b2 06         6919 	.data.b	6
000012b3 03         6920 	.data.b	3
000012b4 06f5       6921 	.data.b	245,6
000012b6 02         6922 	.data.b	2
000012b7 00         6923 	.data.b	0
000012b8 01         6924 	.data.b	1
000012b9 1c         6925 	.data.b	28
000012ba 1b         6926 	.data.b	27
000012bb 020500     6927 	.data.b	0,5,2
000012be 00000000*  6928 	.data.w	.LDWlin8
000012c2 0b         6929 	.data.b	11
000012c3 0b         6930 	.data.b	11
000012c4 13         6931 	.data.b	19
000012c5 02         6932 	.data.b	2
000012c6 00         6933 	.data.b	0
000012c7 0b         6934 	.data.b	11
000012c8 23         6935 	.data.b	35
000012c9 23         6936 	.data.b	35
000012ca 23         6937 	.data.b	35
000012cb 23         6938 	.data.b	35
000012cc 02         6939 	.data.b	2
000012cd 02         6940 	.data.b	2
000012ce 010100     6941 	.data.b	0,1,1

                                                                      Page 151
                                                              C:\Users\Fengyuan\AppData\Local\Temp\gh_0000p9o1.s
                    6942 	.section	.debug_info
                    6943 .LDW_5d3fc78:
000027a5 1f         6944 	.data.b	31
000027a6 00000000*  6945 	.data.w	.LDW81
000027aa 00000000*  6946 	.data.w	.LDW91
                    6947 
                    6948 .LDW_5c63c18:
000027ae 06         6949 	.data.b	6
000027af 65646f6d   6950 	.data.b	109,111,100,101,0
000027b3 00 
000027b4 06f7       6951 	.data.b	247,6
000027b6 0a         6952 	.data.b	10
000027b7 01         6953 	.data.b	1
000027b8 00000000*  6954 	.data.w	.LDW_5c63ed8
000027bc 00         6955 	.data.b	0
000027bd 00         6956 	.data.b	0
000027be 5001       6957 	.data.b	1,80
                    6958 
000027c0 00         6959 	.data.b	0
                    6960 
000027c1 00         6961 	.data.b	0
                    6962 
                    6963 .LDW_5c64698:
000027c2 16         6964 	.data.b	22
000027c3 4d777342   6965 	.data.b	66,115,119,77,95,65,99,116,105,111,110,76,105,115,116,95,67,67,95,65,76,95,67,78,95,67,65,78,48,48,95,53,101,53,54,54,97,100,57,95,82,88,95,68,105,115,97,98,108,101,0
000027c7 7463415f 
000027cb 4c6e6f69 
000027cf 5f747369 
000027d3 415f4343 
000027d7 4e435f4c 
000027db 4e41435f 
000027df 355f3030 
000027e3 36363565 
000027e7 5f396461 
000027eb 445f5852 
000027ef 62617369 
000027f3 00656c 
000027f6 078a       6966 	.data.b	138,7
000027f8 2c         6967 	.data.b	44
000027f9 01         6968 	.data.b	1
000027fa 00000000*  6969 	.data.w	.LDW_5d40528
000027fe 00000000*  6970 	.data.w	BswM_ActionList_CC_AL_CN_CAN00_5e566ad9_RX_Disable..C.3A.5CVector.5CCBD1800257_D01_S32K1xx.5CApplications.5CS32K144_Start_new.5CAppl.5Cobj.5CBswM_Lcfg.
00002802 00000000*  6971 	.data.w	__ghs_eofn_BswM_ActionList_CC_AL_CN_CAN00_5e566ad9_RX_Disable
00002806 5d01       6972 	.data.b	1,93
00002808 0180b0     6973 	.data.b	176,128,1
0000280b 78         6974 	.data.b	120
0000280c 00         6975 	.data.b	0
0000280d 08         6976 	.data.b	8
0000280e 01         6977 	.data.b	1
0000280f 00         6978 	.data.b	0
00002810 00         6979 	.data.b	0
00002811 00         6980 	.data.b	0
00002812 01         6981 	.data.b	1
00002813 00         6982 	.data.b	0
00002814 01         6983 	.data.b	1
                    6984 
                    6985 	.section	.debug_frame
                    6986 .LDW_5fe4b18:
00000108 00000000*  6987 	.data.w	.LDW_unq_e-.LDW_unq_d
                    6988 .LDW_unq_d:
0000010c 00000000*  6989 	.data.w	.LDW_65bf828

                                                                      Page 152
                                                              C:\Users\Fengyuan\AppData\Local\Temp\gh_0000p9o1.s
00000110 00000000*  6990 	.data.w	BswM_ActionList_CC_AL_CN_CAN00_5e566ad9_RX_Disable..C.3A.5CVector.5CCBD1800257_D01_S32K1xx.5CApplications.5CS32K144_Start_new.5CAppl.5Cobj.5CBswM_Lcfg.
00000114 00000022   6991 	.data.w	__ghs_eofn_BswM_ActionList_CC_AL_CN_CAN00_5e566ad9_RX_Disable-BswM_ActionList_CC_AL_CN_CAN00_5e566ad9_RX_Disable..C.3A.5CVector.5CCBD1800257_D01_S32K1xx.5CApplications.5CS32K144_Start_new.5CAppl.5Cobj.5CBswM_Lcfg.
00000118 01         6992 	.data.b	1
00000119 00000000*  6993 	.data.w	.LDW12
0000011d 00         6994 	.data.b	0
0000011e 00         6995 	.data.b	0
0000011f 00         6996 	.data.b	0
                    6997 .LDW_unq_e:
                    6998 	.section	.debug_line
000012d1 020500     6999 	.data.b	0,5,2
000012d4 00000000*  7000 	.data.w	BswM_ActionList_CC_AL_CN_CAN00_5e566ad9_RX_Disable..C.3A.5CVector.5CCBD1800257_D01_S32K1xx.5CApplications.5CS32K144_Start_new.5CAppl.5Cobj.5CBswM_Lcfg.
000012d8 06         7001 	.data.b	6
000012d9 03         7002 	.data.b	3
000012da 078a       7003 	.data.b	138,7
000012dc 02         7004 	.data.b	2
000012dd 00         7005 	.data.b	0
000012de 01         7006 	.data.b	1
000012df 1c         7007 	.data.b	28
000012e0 35         7008 	.data.b	53
000012e1 2c         7009 	.data.b	44
000012e2 2b         7010 	.data.b	43
000012e3 06         7011 	.data.b	6
000012e4 02         7012 	.data.b	2
000012e5 02         7013 	.data.b	2
000012e6 02         7014 	.data.b	2
000012e7 02         7015 	.data.b	2
000012e8 010100     7016 	.data.b	0,1,1
                    7017 	.section	.debug_info
                    7018 .LDW_5d3fd98:
00002815 1f         7019 	.data.b	31
00002816 00000000*  7020 	.data.w	.LDW02
0000281a 00000000*  7021 	.data.w	.LDW12
                    7022 
0000281e 00         7023 	.data.b	0
                    7024 
0000281f 00         7025 	.data.b	0
                    7026 
                    7027 .LDW_5c64730:
00002820 16         7028 	.data.b	22
00002821 4d777342   7029 	.data.b	66,115,119,77,95,65,99,116,105,111,110,76,105,115,116,95,67,67,95,65,76,95,67,78,95,67,65,78,48,48,95,53,101,53,54,54,97,100,57,95,82,88,95,69,110,97,98,108,101,78,111,105,110,105,116,0
00002825 7463415f 
00002829 4c6e6f69 
0000282d 5f747369 
00002831 415f4343 
00002835 4e435f4c 
00002839 4e41435f 
0000283d 355f3030 
00002841 36363565 
00002845 5f396461 
00002849 455f5852 
0000284d 6c62616e 
00002851 696f4e65 
00002855 0074696e 
00002859 0799       7030 	.data.b	153,7
0000285b 2c         7031 	.data.b	44
0000285c 01         7032 	.data.b	1
0000285d 00000000*  7033 	.data.w	.LDW_5d40528
00002861 00000000*  7034 	.data.w	BswM_ActionList_CC_AL_CN_CAN00_5e566ad9_RX_EnableNoinit..C.3A.5CVector.5CCBD1800257_D01_S32K1xx.5CApplications.5CS32K144_Start_new.5CAppl.5Cobj.5CBswM_Lcfg.
00002865 00000000*  7035 	.data.w	__ghs_eofn_BswM_ActionList_CC_AL_CN_CAN00_5e566ad9_RX_EnableNoinit
00002869 5d01       7036 	.data.b	1,93
0000286b 0180b0     7037 	.data.b	176,128,1

                                                                      Page 153
                                                              C:\Users\Fengyuan\AppData\Local\Temp\gh_0000p9o1.s
0000286e 78         7038 	.data.b	120
0000286f 00         7039 	.data.b	0
00002870 08         7040 	.data.b	8
00002871 01         7041 	.data.b	1
00002872 00         7042 	.data.b	0
00002873 00         7043 	.data.b	0
00002874 00         7044 	.data.b	0
00002875 01         7045 	.data.b	1
00002876 00         7046 	.data.b	0
00002877 01         7047 	.data.b	1
                    7048 
                    7049 	.section	.debug_frame
                    7050 .LDW_5fe4958:
00000120 00000000*  7051 	.data.w	.LDW_unq_10-.LDW_unq_f
                    7052 .LDW_unq_f:
00000124 00000000*  7053 	.data.w	.LDW_65bf828
00000128 00000000*  7054 	.data.w	BswM_ActionList_CC_AL_CN_CAN00_5e566ad9_RX_EnableNoinit..C.3A.5CVector.5CCBD1800257_D01_S32K1xx.5CApplications.5CS32K144_Start_new.5CAppl.5Cobj.5CBswM_Lcfg.
0000012c 00000022   7055 	.data.w	__ghs_eofn_BswM_ActionList_CC_AL_CN_CAN00_5e566ad9_RX_EnableNoinit-BswM_ActionList_CC_AL_CN_CAN00_5e566ad9_RX_EnableNoinit..C.3A.5CVector.5CCBD1800257_D01_S32K1xx.5CApplications.5CS32K144_Start_new.5CAppl.5Cobj.5CBswM_Lcfg.
00000130 01         7056 	.data.b	1
00000131 00000000*  7057 	.data.w	.LDW32
00000135 00         7058 	.data.b	0
00000136 00         7059 	.data.b	0
00000137 00         7060 	.data.b	0
                    7061 .LDW_unq_10:
                    7062 	.section	.debug_line
000012eb 020500     7063 	.data.b	0,5,2
000012ee 00000000*  7064 	.data.w	BswM_ActionList_CC_AL_CN_CAN00_5e566ad9_RX_EnableNoinit..C.3A.5CVector.5CCBD1800257_D01_S32K1xx.5CApplications.5CS32K144_Start_new.5CAppl.5Cobj.5CBswM_Lcfg.
000012f2 06         7065 	.data.b	6
000012f3 03         7066 	.data.b	3
000012f4 0799       7067 	.data.b	153,7
000012f6 02         7068 	.data.b	2
000012f7 00         7069 	.data.b	0
000012f8 01         7070 	.data.b	1
000012f9 1c         7071 	.data.b	28
000012fa 35         7072 	.data.b	53
000012fb 2c         7073 	.data.b	44
000012fc 2b         7074 	.data.b	43
000012fd 06         7075 	.data.b	6
000012fe 02         7076 	.data.b	2
000012ff 02         7077 	.data.b	2
00001300 02         7078 	.data.b	2
00001301 02         7079 	.data.b	2
00001302 010100     7080 	.data.b	0,1,1
                    7081 	.section	.debug_info
                    7082 .LDW_5d3fd68:
00002878 1f         7083 	.data.b	31
00002879 00000000*  7084 	.data.w	.LDW22
0000287d 00000000*  7085 	.data.w	.LDW32
                    7086 
00002881 00         7087 	.data.b	0
                    7088 
00002882 00         7089 	.data.b	0
                    7090 
                    7091 .LDW_5c647c8:
00002883 16         7092 	.data.b	22
00002884 4d777342   7093 	.data.b	66,115,119,77,95,65,99,116,105,111,110,76,105,115,116,95,67,67,95,65,76,95,67,78,95,67,65,78,48,48,95,53,101,53,54,54,97,100,57,95,84,88,95,68,105,115,97,98,108,101,0
00002888 7463415f 
0000288c 4c6e6f69 
00002890 5f747369 
00002894 415f4343 
00002898 4e435f4c 

                                                                      Page 154
                                                              C:\Users\Fengyuan\AppData\Local\Temp\gh_0000p9o1.s
0000289c 4e41435f 
000028a0 355f3030 
000028a4 36363565 
000028a8 5f396461 
000028ac 445f5854 
000028b0 62617369 
000028b4 00656c 
000028b7 07a8       7094 	.data.b	168,7
000028b9 2c         7095 	.data.b	44
000028ba 01         7096 	.data.b	1
000028bb 00000000*  7097 	.data.w	.LDW_5d40528
000028bf 00000000*  7098 	.data.w	BswM_ActionList_CC_AL_CN_CAN00_5e566ad9_TX_Disable..C.3A.5CVector.5CCBD1800257_D01_S32K1xx.5CApplications.5CS32K144_Start_new.5CAppl.5Cobj.5CBswM_Lcfg.
000028c3 00000000*  7099 	.data.w	__ghs_eofn_BswM_ActionList_CC_AL_CN_CAN00_5e566ad9_TX_Disable
000028c7 5d01       7100 	.data.b	1,93
000028c9 0180b0     7101 	.data.b	176,128,1
000028cc 78         7102 	.data.b	120
000028cd 00         7103 	.data.b	0
000028ce 08         7104 	.data.b	8
000028cf 01         7105 	.data.b	1
000028d0 00         7106 	.data.b	0
000028d1 00         7107 	.data.b	0
000028d2 00         7108 	.data.b	0
000028d3 01         7109 	.data.b	1
000028d4 00         7110 	.data.b	0
000028d5 01         7111 	.data.b	1
                    7112 
                    7113 	.section	.debug_frame
                    7114 .LDW_5fe4a98:
00000138 00000000*  7115 	.data.w	.LDW_unq_12-.LDW_unq_11
                    7116 .LDW_unq_11:
0000013c 00000000*  7117 	.data.w	.LDW_65bf828
00000140 00000000*  7118 	.data.w	BswM_ActionList_CC_AL_CN_CAN00_5e566ad9_TX_Disable..C.3A.5CVector.5CCBD1800257_D01_S32K1xx.5CApplications.5CS32K144_Start_new.5CAppl.5Cobj.5CBswM_Lcfg.
00000144 00000022   7119 	.data.w	__ghs_eofn_BswM_ActionList_CC_AL_CN_CAN00_5e566ad9_TX_Disable-BswM_ActionList_CC_AL_CN_CAN00_5e566ad9_TX_Disable..C.3A.5CVector.5CCBD1800257_D01_S32K1xx.5CApplications.5CS32K144_Start_new.5CAppl.5Cobj.5CBswM_Lcfg.
00000148 01         7120 	.data.b	1
00000149 00000000*  7121 	.data.w	.LDW52
0000014d 00         7122 	.data.b	0
0000014e 00         7123 	.data.b	0
0000014f 00         7124 	.data.b	0
                    7125 .LDW_unq_12:
                    7126 	.section	.debug_line
00001305 020500     7127 	.data.b	0,5,2
00001308 00000000*  7128 	.data.w	BswM_ActionList_CC_AL_CN_CAN00_5e566ad9_TX_Disable..C.3A.5CVector.5CCBD1800257_D01_S32K1xx.5CApplications.5CS32K144_Start_new.5CAppl.5Cobj.5CBswM_Lcfg.
0000130c 06         7129 	.data.b	6
0000130d 03         7130 	.data.b	3
0000130e 07a8       7131 	.data.b	168,7
00001310 02         7132 	.data.b	2
00001311 00         7133 	.data.b	0
00001312 01         7134 	.data.b	1
00001313 1c         7135 	.data.b	28
00001314 35         7136 	.data.b	53
00001315 2c         7137 	.data.b	44
00001316 2b         7138 	.data.b	43
00001317 06         7139 	.data.b	6
00001318 02         7140 	.data.b	2
00001319 02         7141 	.data.b	2
0000131a 02         7142 	.data.b	2
0000131b 02         7143 	.data.b	2
0000131c 010100     7144 	.data.b	0,1,1
                    7145 	.section	.debug_info
                    7146 .LDW_5d3fca8:
000028d6 1f         7147 	.data.b	31

                                                                      Page 155
                                                              C:\Users\Fengyuan\AppData\Local\Temp\gh_0000p9o1.s
000028d7 00000000*  7148 	.data.w	.LDW42
000028db 00000000*  7149 	.data.w	.LDW52
                    7150 
000028df 00         7151 	.data.b	0
                    7152 
000028e0 00         7153 	.data.b	0
                    7154 
                    7155 .LDW_5c64860:
000028e1 16         7156 	.data.b	22
000028e2 4d777342   7157 	.data.b	66,115,119,77,95,65,99,116,105,111,110,76,105,115,116,95,67,67,95,65,76,95,67,78,95,67,65,78,48,48,95,53,101,53,54,54,97,100,57,95,84,88,95,69,110,97,98,108,101,78,111,105,110,105,116,0
000028e6 7463415f 
000028ea 4c6e6f69 
000028ee 5f747369 
000028f2 415f4343 
000028f6 4e435f4c 
000028fa 4e41435f 
000028fe 355f3030 
00002902 36363565 
00002906 5f396461 
0000290a 455f5854 
0000290e 6c62616e 
00002912 696f4e65 
00002916 0074696e 
0000291a 07b7       7158 	.data.b	183,7
0000291c 2c         7159 	.data.b	44
0000291d 01         7160 	.data.b	1
0000291e 00000000*  7161 	.data.w	.LDW_5d40528
00002922 00000000*  7162 	.data.w	BswM_ActionList_CC_AL_CN_CAN00_5e566ad9_TX_EnableNoinit..C.3A.5CVector.5CCBD1800257_D01_S32K1xx.5CApplications.5CS32K144_Start_new.5CAppl.5Cobj.5CBswM_Lcfg.
00002926 00000000*  7163 	.data.w	__ghs_eofn_BswM_ActionList_CC_AL_CN_CAN00_5e566ad9_TX_EnableNoinit
0000292a 5d01       7164 	.data.b	1,93
0000292c 0180b0     7165 	.data.b	176,128,1
0000292f 78         7166 	.data.b	120
00002930 00         7167 	.data.b	0
00002931 08         7168 	.data.b	8
00002932 01         7169 	.data.b	1
00002933 00         7170 	.data.b	0
00002934 00         7171 	.data.b	0
00002935 00         7172 	.data.b	0
00002936 01         7173 	.data.b	1
00002937 00         7174 	.data.b	0
00002938 01         7175 	.data.b	1
                    7176 
                    7177 	.section	.debug_frame
                    7178 .LDW_5fe4f98:
00000150 00000000*  7179 	.data.w	.LDW_unq_14-.LDW_unq_13
                    7180 .LDW_unq_13:
00000154 00000000*  7181 	.data.w	.LDW_65bf828
00000158 00000000*  7182 	.data.w	BswM_ActionList_CC_AL_CN_CAN00_5e566ad9_TX_EnableNoinit..C.3A.5CVector.5CCBD1800257_D01_S32K1xx.5CApplications.5CS32K144_Start_new.5CAppl.5Cobj.5CBswM_Lcfg.
0000015c 00000022   7183 	.data.w	__ghs_eofn_BswM_ActionList_CC_AL_CN_CAN00_5e566ad9_TX_EnableNoinit-BswM_ActionList_CC_AL_CN_CAN00_5e566ad9_TX_EnableNoinit..C.3A.5CVector.5CCBD1800257_D01_S32K1xx.5CApplications.5CS32K144_Start_new.5CAppl.5Cobj.5CBswM_Lcfg.
00000160 01         7184 	.data.b	1
00000161 00000000*  7185 	.data.w	.LDW72
00000165 00         7186 	.data.b	0
00000166 00         7187 	.data.b	0
00000167 00         7188 	.data.b	0
                    7189 .LDW_unq_14:
                    7190 	.section	.debug_line
0000131f 020500     7191 	.data.b	0,5,2
00001322 00000000*  7192 	.data.w	BswM_ActionList_CC_AL_CN_CAN00_5e566ad9_TX_EnableNoinit..C.3A.5CVector.5CCBD1800257_D01_S32K1xx.5CApplications.5CS32K144_Start_new.5CAppl.5Cobj.5CBswM_Lcfg.
00001326 06         7193 	.data.b	6
00001327 03         7194 	.data.b	3
00001328 07b7       7195 	.data.b	183,7

                                                                      Page 156
                                                              C:\Users\Fengyuan\AppData\Local\Temp\gh_0000p9o1.s
0000132a 02         7196 	.data.b	2
0000132b 00         7197 	.data.b	0
0000132c 01         7198 	.data.b	1
0000132d 1c         7199 	.data.b	28
0000132e 35         7200 	.data.b	53
0000132f 2c         7201 	.data.b	44
00001330 2b         7202 	.data.b	43
00001331 06         7203 	.data.b	6
00001332 02         7204 	.data.b	2
00001333 02         7205 	.data.b	2
00001334 02         7206 	.data.b	2
00001335 02         7207 	.data.b	2
00001336 010100     7208 	.data.b	0,1,1
                    7209 	.section	.debug_info
                    7210 .LDW_5d3fcd8:
00002939 1f         7211 	.data.b	31
0000293a 00000000*  7212 	.data.w	.LDW62
0000293e 00000000*  7213 	.data.w	.LDW72
                    7214 
00002942 00         7215 	.data.b	0
                    7216 
00002943 00         7217 	.data.b	0
                    7218 
                    7219 .LDW_5c648f8:
00002944 16         7220 	.data.b	22
00002945 4d777342   7221 	.data.b	66,115,119,77,95,65,99,116,105,111,110,76,105,115,116,95,67,67,95,65,76,95,67,78,95,67,65,78,48,48,95,53,101,53,54,54,97,100,57,95,68,105,115,97,98,108,101,95,68,77,0
00002949 7463415f 
0000294d 4c6e6f69 
00002951 5f747369 
00002955 415f4343 
00002959 4e435f4c 
0000295d 4e41435f 
00002961 355f3030 
00002965 36363565 
00002969 5f396461 
0000296d 61736944 
00002971 5f656c62 
00002975 004d44 
00002978 07c6       7222 	.data.b	198,7
0000297a 2c         7223 	.data.b	44
0000297b 01         7224 	.data.b	1
0000297c 00000000*  7225 	.data.w	.LDW_5d40528
00002980 00000000*  7226 	.data.w	BswM_ActionList_CC_AL_CN_CAN00_5e566ad9_Disable_DM..C.3A.5CVector.5CCBD1800257_D01_S32K1xx.5CApplications.5CS32K144_Start_new.5CAppl.5Cobj.5CBswM_Lcfg.
00002984 00000000*  7227 	.data.w	__ghs_eofn_BswM_ActionList_CC_AL_CN_CAN00_5e566ad9_Disable_DM
00002988 5d01       7228 	.data.b	1,93
0000298a 018090     7229 	.data.b	144,128,1
0000298d 7c         7230 	.data.b	124
0000298e 00         7231 	.data.b	0
0000298f 04         7232 	.data.b	4
00002990 01         7233 	.data.b	1
00002991 00         7234 	.data.b	0
00002992 00         7235 	.data.b	0
00002993 00         7236 	.data.b	0
00002994 01         7237 	.data.b	1
00002995 00         7238 	.data.b	0
00002996 01         7239 	.data.b	1
                    7240 
                    7241 	.section	.debug_frame
                    7242 .LDW_5fe4b58:
00000168 00000000*  7243 	.data.w	.LDW_unq_16-.LDW_unq_15
                    7244 .LDW_unq_15:

                                                                      Page 157
                                                              C:\Users\Fengyuan\AppData\Local\Temp\gh_0000p9o1.s
0000016c 00000000*  7245 	.data.w	.LDW_65bf828
00000170 00000000*  7246 	.data.w	BswM_ActionList_CC_AL_CN_CAN00_5e566ad9_Disable_DM..C.3A.5CVector.5CCBD1800257_D01_S32K1xx.5CApplications.5CS32K144_Start_new.5CAppl.5Cobj.5CBswM_Lcfg.
00000174 0000001a   7247 	.data.w	__ghs_eofn_BswM_ActionList_CC_AL_CN_CAN00_5e566ad9_Disable_DM-BswM_ActionList_CC_AL_CN_CAN00_5e566ad9_Disable_DM..C.3A.5CVector.5CCBD1800257_D01_S32K1xx.5CApplications.5CS32K144_Start_new.5CAppl.5Cobj.5CBswM_Lcfg.
00000178 01         7248 	.data.b	1
00000179 00000000*  7249 	.data.w	.LDW92
0000017d 00         7250 	.data.b	0
0000017e 00         7251 	.data.b	0
0000017f 00         7252 	.data.b	0
                    7253 .LDW_unq_16:
                    7254 	.section	.debug_line
00001339 020500     7255 	.data.b	0,5,2
0000133c 00000000*  7256 	.data.w	BswM_ActionList_CC_AL_CN_CAN00_5e566ad9_Disable_DM..C.3A.5CVector.5CCBD1800257_D01_S32K1xx.5CApplications.5CS32K144_Start_new.5CAppl.5Cobj.5CBswM_Lcfg.
00001340 06         7257 	.data.b	6
00001341 03         7258 	.data.b	3
00001342 07c6       7259 	.data.b	198,7
00001344 02         7260 	.data.b	2
00001345 00         7261 	.data.b	0
00001346 01         7262 	.data.b	1
00001347 1c         7263 	.data.b	28
00001348 34         7264 	.data.b	52
00001349 2b         7265 	.data.b	43
0000134a 06         7266 	.data.b	6
0000134b 02         7267 	.data.b	2
0000134c 02         7268 	.data.b	2
0000134d 02         7269 	.data.b	2
0000134e 02         7270 	.data.b	2
0000134f 010100     7271 	.data.b	0,1,1
                    7272 	.section	.debug_info
                    7273 .LDW_5d3fd08:
00002997 1f         7274 	.data.b	31
00002998 00000000*  7275 	.data.w	.LDW82
0000299c 00000000*  7276 	.data.w	.LDW92
                    7277 
000029a0 00         7278 	.data.b	0
                    7279 
000029a1 00         7280 	.data.b	0
                    7281 
                    7282 .LDW_5c64990:
000029a2 16         7283 	.data.b	22
000029a3 4d777342   7284 	.data.b	66,115,119,77,95,65,99,116,105,111,110,76,105,115,116,95,67,67,95,65,76,95,67,78,95,67,65,78,48,48,95,53,101,53,54,54,97,100,57,95,69,110,97,98,108,101,95,68,77,0
000029a7 7463415f 
000029ab 4c6e6f69 
000029af 5f747369 
000029b3 415f4343 
000029b7 4e435f4c 
000029bb 4e41435f 
000029bf 355f3030 
000029c3 36363565 
000029c7 5f396461 
000029cb 62616e45 
000029cf 445f656c 
000029d3 004d 
000029d5 07d2       7285 	.data.b	210,7
000029d7 2c         7286 	.data.b	44
000029d8 01         7287 	.data.b	1
000029d9 00000000*  7288 	.data.w	.LDW_5d40528
000029dd 00000000*  7289 	.data.w	BswM_ActionList_CC_AL_CN_CAN00_5e566ad9_Enable_DM..C.3A.5CVector.5CCBD1800257_D01_S32K1xx.5CApplications.5CS32K144_Start_new.5CAppl.5Cobj.5CBswM_Lcfg.
000029e1 00000000*  7290 	.data.w	__ghs_eofn_BswM_ActionList_CC_AL_CN_CAN00_5e566ad9_Enable_DM
000029e5 5d01       7291 	.data.b	1,93
000029e7 018090     7292 	.data.b	144,128,1
000029ea 7c         7293 	.data.b	124

                                                                      Page 158
                                                              C:\Users\Fengyuan\AppData\Local\Temp\gh_0000p9o1.s
000029eb 00         7294 	.data.b	0
000029ec 04         7295 	.data.b	4
000029ed 01         7296 	.data.b	1
000029ee 00         7297 	.data.b	0
000029ef 00         7298 	.data.b	0
000029f0 00         7299 	.data.b	0
000029f1 01         7300 	.data.b	1
000029f2 00         7301 	.data.b	0
000029f3 01         7302 	.data.b	1
                    7303 
                    7304 	.section	.debug_frame
                    7305 .LDW_5fe4898:
00000180 00000000*  7306 	.data.w	.LDW_unq_18-.LDW_unq_17
                    7307 .LDW_unq_17:
00000184 00000000*  7308 	.data.w	.LDW_65bf828
00000188 00000000*  7309 	.data.w	BswM_ActionList_CC_AL_CN_CAN00_5e566ad9_Enable_DM..C.3A.5CVector.5CCBD1800257_D01_S32K1xx.5CApplications.5CS32K144_Start_new.5CAppl.5Cobj.5CBswM_Lcfg.
0000018c 0000001a   7310 	.data.w	__ghs_eofn_BswM_ActionList_CC_AL_CN_CAN00_5e566ad9_Enable_DM-BswM_ActionList_CC_AL_CN_CAN00_5e566ad9_Enable_DM..C.3A.5CVector.5CCBD1800257_D01_S32K1xx.5CApplications.5CS32K144_Start_new.5CAppl.5Cobj.5CBswM_Lcfg.
00000190 01         7311 	.data.b	1
00000191 00000000*  7312 	.data.w	.LDW13
00000195 00         7313 	.data.b	0
00000196 00         7314 	.data.b	0
00000197 00         7315 	.data.b	0
                    7316 .LDW_unq_18:
                    7317 	.section	.debug_line
00001352 020500     7318 	.data.b	0,5,2
00001355 00000000*  7319 	.data.w	BswM_ActionList_CC_AL_CN_CAN00_5e566ad9_Enable_DM..C.3A.5CVector.5CCBD1800257_D01_S32K1xx.5CApplications.5CS32K144_Start_new.5CAppl.5Cobj.5CBswM_Lcfg.
00001359 06         7320 	.data.b	6
0000135a 03         7321 	.data.b	3
0000135b 07d2       7322 	.data.b	210,7
0000135d 02         7323 	.data.b	2
0000135e 00         7324 	.data.b	0
0000135f 01         7325 	.data.b	1
00001360 1c         7326 	.data.b	28
00001361 34         7327 	.data.b	52
00001362 2b         7328 	.data.b	43
00001363 06         7329 	.data.b	6
00001364 02         7330 	.data.b	2
00001365 02         7331 	.data.b	2
00001366 02         7332 	.data.b	2
00001367 02         7333 	.data.b	2
00001368 010100     7334 	.data.b	0,1,1
                    7335 	.section	.debug_info
                    7336 .LDW_5d3fd38:
000029f4 1f         7337 	.data.b	31
000029f5 00000000*  7338 	.data.w	.LDW03
000029f9 00000000*  7339 	.data.w	.LDW13
                    7340 
000029fd 00         7341 	.data.b	0
                    7342 
000029fe 00         7343 	.data.b	0
                    7344 
                    7345 .LDW_5c64a28:
000029ff 16         7346 	.data.b	22
00002a00 4d777342   7347 	.data.b	66,115,119,77,95,65,99,116,105,111,110,76,105,115,116,95,73,78,73,84,95,65,76,95,73,110,105,116,105,97,108,105,122,101,0
00002a04 7463415f 
00002a08 4c6e6f69 
00002a0c 5f747369 
00002a10 54494e49 
00002a14 5f4c415f 
00002a18 74696e49 
00002a1c 696c6169 

                                                                      Page 159
                                                              C:\Users\Fengyuan\AppData\Local\Temp\gh_0000p9o1.s
00002a20 00657a 
00002a23 07de       7348 	.data.b	222,7
00002a25 2c         7349 	.data.b	44
00002a26 01         7350 	.data.b	1
00002a27 00000000*  7351 	.data.w	.LDW_5d40528
00002a2b 00000000*  7352 	.data.w	BswM_ActionList_INIT_AL_Initialize..C.3A.5CVector.5CCBD1800257_D01_S32K1xx.5CApplications.5CS32K144_Start_new.5CAppl.5Cobj.5CBswM_Lcfg.
00002a2f 00000000*  7353 	.data.w	__ghs_eofn_BswM_ActionList_INIT_AL_Initialize
00002a33 5d01       7354 	.data.b	1,93
00002a35 018080     7355 	.data.b	128,128,1
00002a38 00         7356 	.data.b	0
00002a39 00         7357 	.data.b	0
00002a3a 00         7358 	.data.b	0
00002a3b 01         7359 	.data.b	1
00002a3c 00         7360 	.data.b	0
00002a3d 00         7361 	.data.b	0
00002a3e 00         7362 	.data.b	0
00002a3f 01         7363 	.data.b	1
00002a40 00         7364 	.data.b	0
00002a41 01         7365 	.data.b	1
                    7366 
                    7367 	.section	.debug_frame
                    7368 .LDW_5fc4e60:
00000198 00000000*  7369 	.data.w	.LDW_unq_1a-.LDW_unq_19
                    7370 .LDW_unq_19:
0000019c 00000000*  7371 	.data.w	.LDW_65bf828
000001a0 00000000*  7372 	.data.w	BswM_ActionList_INIT_AL_Initialize..C.3A.5CVector.5CCBD1800257_D01_S32K1xx.5CApplications.5CS32K144_Start_new.5CAppl.5Cobj.5CBswM_Lcfg.
000001a4 00000042   7373 	.data.w	__ghs_eofn_BswM_ActionList_INIT_AL_Initialize-BswM_ActionList_INIT_AL_Initialize..C.3A.5CVector.5CCBD1800257_D01_S32K1xx.5CApplications.5CS32K144_Start_new.5CAppl.5Cobj.5CBswM_Lcfg.
000001a8 01         7374 	.data.b	1
000001a9 00000000*  7375 	.data.w	.LDW33
000001ad 00         7376 	.data.b	0
000001ae 00         7377 	.data.b	0
000001af 00         7378 	.data.b	0
                    7379 .LDW_unq_1a:
                    7380 	.section	.debug_line
0000136b 020500     7381 	.data.b	0,5,2
0000136e 00000000*  7382 	.data.w	BswM_ActionList_INIT_AL_Initialize..C.3A.5CVector.5CCBD1800257_D01_S32K1xx.5CApplications.5CS32K144_Start_new.5CAppl.5Cobj.5CBswM_Lcfg.
00001372 06         7383 	.data.b	6
00001373 03         7384 	.data.b	3
00001374 07de       7385 	.data.b	222,7
00001376 02         7386 	.data.b	2
00001377 00         7387 	.data.b	0
00001378 01         7388 	.data.b	1
00001379 14         7389 	.data.b	20
0000137a 25         7390 	.data.b	37
0000137b 25         7391 	.data.b	37
0000137c 25         7392 	.data.b	37
0000137d 25         7393 	.data.b	37
0000137e 25         7394 	.data.b	37
0000137f 24         7395 	.data.b	36
00001380 1c         7396 	.data.b	28
00001381 1d         7397 	.data.b	29
00001382 25         7398 	.data.b	37
00001383 25         7399 	.data.b	37
00001384 1c         7400 	.data.b	28
00001385 06         7401 	.data.b	6
00001386 02         7402 	.data.b	2
00001387 02         7403 	.data.b	2
00001388 02         7404 	.data.b	2
00001389 02         7405 	.data.b	2
0000138a 010100     7406 	.data.b	0,1,1
                    7407 	.section	.debug_info

                                                                      Page 160
                                                              C:\Users\Fengyuan\AppData\Local\Temp\gh_0000p9o1.s
                    7408 .LDW_5d3fc18:
00002a42 1f         7409 	.data.b	31
00002a43 00000000*  7410 	.data.w	.LDW23
00002a47 00000000*  7411 	.data.w	.LDW33
                    7412 
00002a4b 00         7413 	.data.b	0
                    7414 
00002a4c 00         7415 	.data.b	0
                    7416 
                    7417 .LDW_5c64ac0:
00002a4d 16         7418 	.data.b	22
00002a4e 4d777342   7419 	.data.b	66,115,119,77,95,65,99,116,105,111,110,76,105,115,116,95,69,83,72,95,65,76,95,69,120,105,116,82,117,110,0
00002a52 7463415f 
00002a56 4c6e6f69 
00002a5a 5f747369 
00002a5e 5f485345 
00002a62 455f4c41 
00002a66 52746978 
00002a6a 006e75 
00002a6d 0885       7420 	.data.b	133,8
00002a6f 2c         7421 	.data.b	44
00002a70 01         7422 	.data.b	1
00002a71 00000000*  7423 	.data.w	.LDW_5d40528
00002a75 00000000*  7424 	.data.w	BswM_ActionList_ESH_AL_ExitRun..C.3A.5CVector.5CCBD1800257_D01_S32K1xx.5CApplications.5CS32K144_Start_new.5CAppl.5Cobj.5CBswM_Lcfg.
00002a79 00000000*  7425 	.data.w	__ghs_eofn_BswM_ActionList_ESH_AL_ExitRun
00002a7d 5d01       7426 	.data.b	1,93
00002a7f 018080     7427 	.data.b	128,128,1
00002a82 00         7428 	.data.b	0
00002a83 00         7429 	.data.b	0
00002a84 00         7430 	.data.b	0
00002a85 01         7431 	.data.b	1
00002a86 00         7432 	.data.b	0
00002a87 00         7433 	.data.b	0
00002a88 00         7434 	.data.b	0
00002a89 01         7435 	.data.b	1
00002a8a 00         7436 	.data.b	0
00002a8b 01         7437 	.data.b	1
                    7438 
                    7439 	.section	.debug_frame
                    7440 .LDW_5fc4ae0:
000001b0 00000000*  7441 	.data.w	.LDW_unq_1c-.LDW_unq_1b
                    7442 .LDW_unq_1b:
000001b4 00000000*  7443 	.data.w	.LDW_65bf828
000001b8 00000000*  7444 	.data.w	BswM_ActionList_ESH_AL_ExitRun..C.3A.5CVector.5CCBD1800257_D01_S32K1xx.5CApplications.5CS32K144_Start_new.5CAppl.5Cobj.5CBswM_Lcfg.
000001bc 00000018   7445 	.data.w	__ghs_eofn_BswM_ActionList_ESH_AL_ExitRun-BswM_ActionList_ESH_AL_ExitRun..C.3A.5CVector.5CCBD1800257_D01_S32K1xx.5CApplications.5CS32K144_Start_new.5CAppl.5Cobj.5CBswM_Lcfg.
000001c0 01         7446 	.data.b	1
000001c1 00000000*  7447 	.data.w	.LDW53
000001c5 00         7448 	.data.b	0
000001c6 00         7449 	.data.b	0
000001c7 00         7450 	.data.b	0
                    7451 .LDW_unq_1c:
                    7452 	.section	.debug_line
0000138d 020500     7453 	.data.b	0,5,2
00001390 00000000*  7454 	.data.w	BswM_ActionList_ESH_AL_ExitRun..C.3A.5CVector.5CCBD1800257_D01_S32K1xx.5CApplications.5CS32K144_Start_new.5CAppl.5Cobj.5CBswM_Lcfg.
00001394 06         7455 	.data.b	6
00001395 03         7456 	.data.b	3
00001396 0885       7457 	.data.b	133,8
00001398 02         7458 	.data.b	2
00001399 00         7459 	.data.b	0
0000139a 01         7460 	.data.b	1
0000139b 14         7461 	.data.b	20

                                                                      Page 161
                                                              C:\Users\Fengyuan\AppData\Local\Temp\gh_0000p9o1.s
0000139c 1c         7462 	.data.b	28
0000139d 1b         7463 	.data.b	27
0000139e 24         7464 	.data.b	36
0000139f 1c         7465 	.data.b	28
000013a0 06         7466 	.data.b	6
000013a1 02         7467 	.data.b	2
000013a2 02         7468 	.data.b	2
000013a3 02         7469 	.data.b	2
000013a4 02         7470 	.data.b	2
000013a5 010100     7471 	.data.b	0,1,1
                    7472 	.section	.debug_info
                    7473 .LDW_5d3fc48:
00002a8c 1f         7474 	.data.b	31
00002a8d 00000000*  7475 	.data.w	.LDW43
00002a91 00000000*  7476 	.data.w	.LDW53
                    7477 
00002a95 00         7478 	.data.b	0
                    7479 
00002a96 00         7480 	.data.b	0
                    7481 
                    7482 .LDW_5c64b58:
00002a97 16         7483 	.data.b	22
00002a98 4d777342   7484 	.data.b	66,115,119,77,95,65,99,116,105,111,110,76,105,115,116,95,69,83,72,95,65,76,95,82,117,110,84,111,80,111,115,116,82,117,110,0
00002a9c 7463415f 
00002aa0 4c6e6f69 
00002aa4 5f747369 
00002aa8 5f485345 
00002aac 525f4c41 
00002ab0 6f546e75 
00002ab4 74736f50 
00002ab8 006e7552 
00002abc 0895       7485 	.data.b	149,8
00002abe 2c         7486 	.data.b	44
00002abf 01         7487 	.data.b	1
00002ac0 00000000*  7488 	.data.w	.LDW_5d40528
00002ac4 00000000*  7489 	.data.w	BswM_ActionList_ESH_AL_RunToPostRun..C.3A.5CVector.5CCBD1800257_D01_S32K1xx.5CApplications.5CS32K144_Start_new.5CAppl.5Cobj.5CBswM_Lcfg.
00002ac8 00000000*  7490 	.data.w	__ghs_eofn_BswM_ActionList_ESH_AL_RunToPostRun
00002acc 5d01       7491 	.data.b	1,93
00002ace 018080     7492 	.data.b	128,128,1
00002ad1 00         7493 	.data.b	0
00002ad2 00         7494 	.data.b	0
00002ad3 00         7495 	.data.b	0
00002ad4 01         7496 	.data.b	1
00002ad5 00         7497 	.data.b	0
00002ad6 00         7498 	.data.b	0
00002ad7 00         7499 	.data.b	0
00002ad8 01         7500 	.data.b	1
00002ad9 00         7501 	.data.b	0
00002ada 01         7502 	.data.b	1
                    7503 
                    7504 	.section	.debug_frame
                    7505 .LDW_5fc4260:
000001c8 00000000*  7506 	.data.w	.LDW_unq_1e-.LDW_unq_1d
                    7507 .LDW_unq_1d:
000001cc 00000000*  7508 	.data.w	.LDW_65bf828
000001d0 00000000*  7509 	.data.w	BswM_ActionList_ESH_AL_RunToPostRun..C.3A.5CVector.5CCBD1800257_D01_S32K1xx.5CApplications.5CS32K144_Start_new.5CAppl.5Cobj.5CBswM_Lcfg.
000001d4 00000028   7510 	.data.w	__ghs_eofn_BswM_ActionList_ESH_AL_RunToPostRun-BswM_ActionList_ESH_AL_RunToPostRun..C.3A.5CVector.5CCBD1800257_D01_S32K1xx.5CApplications.5CS32K144_Start_new.5CAppl.5Cobj.5CBswM_Lcfg.
000001d8 01         7511 	.data.b	1
000001d9 00000000*  7512 	.data.w	.LDW73
000001dd 00         7513 	.data.b	0
000001de 00         7514 	.data.b	0

                                                                      Page 162
                                                              C:\Users\Fengyuan\AppData\Local\Temp\gh_0000p9o1.s
000001df 00         7515 	.data.b	0
                    7516 .LDW_unq_1e:
                    7517 	.section	.debug_line
000013a8 020500     7518 	.data.b	0,5,2
000013ab 00000000*  7519 	.data.w	BswM_ActionList_ESH_AL_RunToPostRun..C.3A.5CVector.5CCBD1800257_D01_S32K1xx.5CApplications.5CS32K144_Start_new.5CAppl.5Cobj.5CBswM_Lcfg.
000013af 06         7520 	.data.b	6
000013b0 03         7521 	.data.b	3
000013b1 0895       7522 	.data.b	149,8
000013b3 02         7523 	.data.b	2
000013b4 00         7524 	.data.b	0
000013b5 01         7525 	.data.b	1
000013b6 13         7526 	.data.b	19
000013b7 2c         7527 	.data.b	44
000013b8 2c         7528 	.data.b	44
000013b9 1b         7529 	.data.b	27
000013ba 23         7530 	.data.b	35
000013bb 2b         7531 	.data.b	43
000013bc 06         7532 	.data.b	6
000013bd 02         7533 	.data.b	2
000013be 02         7534 	.data.b	2
000013bf 02         7535 	.data.b	2
000013c0 02         7536 	.data.b	2
000013c1 010100     7537 	.data.b	0,1,1
                    7538 	.section	.debug_info
                    7539 .LDW_4a8b900:
00002adb 1f         7540 	.data.b	31
00002adc 00000000*  7541 	.data.w	.LDW63
00002ae0 00000000*  7542 	.data.w	.LDW73
                    7543 
00002ae4 00         7544 	.data.b	0
                    7545 
00002ae5 00         7546 	.data.b	0
                    7547 
                    7548 .LDW_5c64bf0:
00002ae6 16         7549 	.data.b	22
00002ae7 4d777342   7550 	.data.b	66,115,119,77,95,65,99,116,105,111,110,76,105,115,116,95,69,83,72,95,65,76,95,87,97,105,116,70,111,114,78,118,77,84,111,83,104,117,116,100,111,119,110,0
00002aeb 7463415f 
00002aef 4c6e6f69 
00002af3 5f747369 
00002af7 5f485345 
00002afb 575f4c41 
00002aff 46746961 
00002b03 764e726f 
00002b07 536f544d 
00002b0b 64747568 
00002b0f 006e776f 
00002b13 08a4       7551 	.data.b	164,8
00002b15 2c         7552 	.data.b	44
00002b16 01         7553 	.data.b	1
00002b17 00000000*  7554 	.data.w	.LDW_5d40528
00002b1b 00000000*  7555 	.data.w	BswM_ActionList_ESH_AL_WaitForNvMToShutdown..C.3A.5CVector.5CCBD1800257_D01_S32K1xx.5CApplications.5CS32K144_Start_new.5CAppl.5Cobj.5CBswM_Lcfg.
00002b1f 00000000*  7556 	.data.w	__ghs_eofn_BswM_ActionList_ESH_AL_WaitForNvMToShutdown
00002b23 5d01       7557 	.data.b	1,93
00002b25 018080     7558 	.data.b	128,128,1
00002b28 00         7559 	.data.b	0
00002b29 00         7560 	.data.b	0
00002b2a 00         7561 	.data.b	0
00002b2b 01         7562 	.data.b	1
00002b2c 00         7563 	.data.b	0
00002b2d 00         7564 	.data.b	0
00002b2e 00         7565 	.data.b	0

                                                                      Page 163
                                                              C:\Users\Fengyuan\AppData\Local\Temp\gh_0000p9o1.s
00002b2f 01         7566 	.data.b	1
00002b30 00         7567 	.data.b	0
00002b31 01         7568 	.data.b	1
                    7569 
                    7570 	.section	.debug_frame
                    7571 .LDW_5fc41a0:
000001e0 00000000*  7572 	.data.w	.LDW_unq_20-.LDW_unq_1f
                    7573 .LDW_unq_1f:
000001e4 00000000*  7574 	.data.w	.LDW_65bf828
000001e8 00000000*  7575 	.data.w	BswM_ActionList_ESH_AL_WaitForNvMToShutdown..C.3A.5CVector.5CCBD1800257_D01_S32K1xx.5CApplications.5CS32K144_Start_new.5CAppl.5Cobj.5CBswM_Lcfg.
000001ec 0000000e   7576 	.data.w	__ghs_eofn_BswM_ActionList_ESH_AL_WaitForNvMToShutdown-BswM_ActionList_ESH_AL_WaitForNvMToShutdown..C.3A.5CVector.5CCBD1800257_D01_S32K1xx.5CApplications.5CS32K144_Start_new.5CAppl.5Cobj.5CBswM_Lcfg.
000001f0 01         7577 	.data.b	1
000001f1 00000000*  7578 	.data.w	.LDW93
000001f5 00         7579 	.data.b	0
000001f6 00         7580 	.data.b	0
000001f7 00         7581 	.data.b	0
                    7582 .LDW_unq_20:
                    7583 	.section	.debug_line
000013c4 020500     7584 	.data.b	0,5,2
000013c7 00000000*  7585 	.data.w	BswM_ActionList_ESH_AL_WaitForNvMToShutdown..C.3A.5CVector.5CCBD1800257_D01_S32K1xx.5CApplications.5CS32K144_Start_new.5CAppl.5Cobj.5CBswM_Lcfg.
000013cb 06         7586 	.data.b	6
000013cc 03         7587 	.data.b	3
000013cd 08a4       7588 	.data.b	164,8
000013cf 02         7589 	.data.b	2
000013d0 00         7590 	.data.b	0
000013d1 01         7591 	.data.b	1
000013d2 13         7592 	.data.b	19
000013d3 1c         7593 	.data.b	28
000013d4 1c         7594 	.data.b	28
000013d5 06         7595 	.data.b	6
000013d6 02         7596 	.data.b	2
000013d7 02         7597 	.data.b	2
000013d8 02         7598 	.data.b	2
000013d9 02         7599 	.data.b	2
000013da 010100     7600 	.data.b	0,1,1
                    7601 	.section	.debug_info
                    7602 .LDW_4a8b930:
00002b32 1f         7603 	.data.b	31
00002b33 00000000*  7604 	.data.w	.LDW83
00002b37 00000000*  7605 	.data.w	.LDW93
                    7606 
00002b3b 00         7607 	.data.b	0
                    7608 
00002b3c 00         7609 	.data.b	0
                    7610 
                    7611 .LDW_5e1de00:
00002b3d 16         7612 	.data.b	22
00002b3e 4d777342   7613 	.data.b	66,115,119,77,95,65,99,116,105,111,110,76,105,115,116,95,69,83,72,95,65,76,95,87,97,107,101,117,112,84,111,80,114,101,112,0
00002b42 7463415f 
00002b46 4c6e6f69 
00002b4a 5f747369 
00002b4e 5f485345 
00002b52 575f4c41 
00002b56 75656b61 
00002b5a 506f5470 
00002b5e 00706572 
00002b62 08b0       7614 	.data.b	176,8
00002b64 2c         7615 	.data.b	44
00002b65 01         7616 	.data.b	1
00002b66 00000000*  7617 	.data.w	.LDW_5d40528
00002b6a 00000000*  7618 	.data.w	BswM_ActionList_ESH_AL_WakeupToPrep..C.3A.5CVector.5CCBD1800257_D01_S32K1xx.5CApplications.5CS32K144_Start_new.5CAppl.5Cobj.5CBswM_Lcfg.

                                                                      Page 164
                                                              C:\Users\Fengyuan\AppData\Local\Temp\gh_0000p9o1.s
00002b6e 00000000*  7619 	.data.w	__ghs_eofn_BswM_ActionList_ESH_AL_WakeupToPrep
00002b72 5d01       7620 	.data.b	1,93
00002b74 018080     7621 	.data.b	128,128,1
00002b77 00         7622 	.data.b	0
00002b78 00         7623 	.data.b	0
00002b79 00         7624 	.data.b	0
00002b7a 01         7625 	.data.b	1
00002b7b 00         7626 	.data.b	0
00002b7c 00         7627 	.data.b	0
00002b7d 00         7628 	.data.b	0
00002b7e 01         7629 	.data.b	1
00002b7f 00         7630 	.data.b	0
00002b80 01         7631 	.data.b	1
                    7632 
                    7633 	.section	.debug_frame
                    7634 .LDW_5fc46e0:
000001f8 00000000*  7635 	.data.w	.LDW_unq_22-.LDW_unq_21
                    7636 .LDW_unq_21:
000001fc 00000000*  7637 	.data.w	.LDW_65bf828
00000200 00000000*  7638 	.data.w	BswM_ActionList_ESH_AL_WakeupToPrep..C.3A.5CVector.5CCBD1800257_D01_S32K1xx.5CApplications.5CS32K144_Start_new.5CAppl.5Cobj.5CBswM_Lcfg.
00000204 00000018   7639 	.data.w	__ghs_eofn_BswM_ActionList_ESH_AL_WakeupToPrep-BswM_ActionList_ESH_AL_WakeupToPrep..C.3A.5CVector.5CCBD1800257_D01_S32K1xx.5CApplications.5CS32K144_Start_new.5CAppl.5Cobj.5CBswM_Lcfg.
00000208 01         7640 	.data.b	1
00000209 00000000*  7641 	.data.w	.LDW14
0000020d 00         7642 	.data.b	0
0000020e 00         7643 	.data.b	0
0000020f 00         7644 	.data.b	0
                    7645 .LDW_unq_22:
                    7646 	.section	.debug_line
000013dd 020500     7647 	.data.b	0,5,2
000013e0 00000000*  7648 	.data.w	BswM_ActionList_ESH_AL_WakeupToPrep..C.3A.5CVector.5CCBD1800257_D01_S32K1xx.5CApplications.5CS32K144_Start_new.5CAppl.5Cobj.5CBswM_Lcfg.
000013e4 06         7649 	.data.b	6
000013e5 03         7650 	.data.b	3
000013e6 08b0       7651 	.data.b	176,8
000013e8 02         7652 	.data.b	2
000013e9 00         7653 	.data.b	0
000013ea 01         7654 	.data.b	1
000013eb 13         7655 	.data.b	19
000013ec 1b         7656 	.data.b	27
000013ed 23         7657 	.data.b	35
000013ee 2b         7658 	.data.b	43
000013ef 06         7659 	.data.b	6
000013f0 02         7660 	.data.b	2
000013f1 02         7661 	.data.b	2
000013f2 02         7662 	.data.b	2
000013f3 02         7663 	.data.b	2
000013f4 010100     7664 	.data.b	0,1,1
                    7665 	.section	.debug_info
                    7666 .LDW_4a8bbd0:
00002b81 1f         7667 	.data.b	31
00002b82 00000000*  7668 	.data.w	.LDW04
00002b86 00000000*  7669 	.data.w	.LDW14
                    7670 
00002b8a 00         7671 	.data.b	0
                    7672 
00002b8b 00         7673 	.data.b	0
                    7674 
                    7675 .LDW_5e1e358:
00002b8c 16         7676 	.data.b	22
00002b8d 4d777342   7677 	.data.b	66,115,119,77,95,65,99,116,105,111,110,76,105,115,116,95,69,83,72,95,65,76,95,87,97,105,116,70,111,114,78,118,77,87,97,107,101,117,112,0
00002b91 7463415f 
00002b95 4c6e6f69 

                                                                      Page 165
                                                              C:\Users\Fengyuan\AppData\Local\Temp\gh_0000p9o1.s
00002b99 5f747369 
00002b9d 5f485345 
00002ba1 575f4c41 
00002ba5 46746961 
00002ba9 764e726f 
00002bad 6b61574d 
00002bb1 00707565 
00002bb5 08bb       7678 	.data.b	187,8
00002bb7 2c         7679 	.data.b	44
00002bb8 01         7680 	.data.b	1
00002bb9 00000000*  7681 	.data.w	.LDW_5d40528
00002bbd 00000000*  7682 	.data.w	BswM_ActionList_ESH_AL_WaitForNvMWakeup..C.3A.5CVector.5CCBD1800257_D01_S32K1xx.5CApplications.5CS32K144_Start_new.5CAppl.5Cobj.5CBswM_Lcfg.
00002bc1 00000000*  7683 	.data.w	__ghs_eofn_BswM_ActionList_ESH_AL_WaitForNvMWakeup
00002bc5 5d01       7684 	.data.b	1,93
00002bc7 018080     7685 	.data.b	128,128,1
00002bca 00         7686 	.data.b	0
00002bcb 00         7687 	.data.b	0
00002bcc 00         7688 	.data.b	0
00002bcd 01         7689 	.data.b	1
00002bce 00         7690 	.data.b	0
00002bcf 00         7691 	.data.b	0
00002bd0 00         7692 	.data.b	0
00002bd1 01         7693 	.data.b	1
00002bd2 00         7694 	.data.b	0
00002bd3 01         7695 	.data.b	1
                    7696 
                    7697 	.section	.debug_frame
                    7698 .LDW_5fc4760:
00000210 00000000*  7699 	.data.w	.LDW_unq_24-.LDW_unq_23
                    7700 .LDW_unq_23:
00000214 00000000*  7701 	.data.w	.LDW_65bf828
00000218 00000000*  7702 	.data.w	BswM_ActionList_ESH_AL_WaitForNvMWakeup..C.3A.5CVector.5CCBD1800257_D01_S32K1xx.5CApplications.5CS32K144_Start_new.5CAppl.5Cobj.5CBswM_Lcfg.
0000021c 00000018   7703 	.data.w	__ghs_eofn_BswM_ActionList_ESH_AL_WaitForNvMWakeup-BswM_ActionList_ESH_AL_WaitForNvMWakeup..C.3A.5CVector.5CCBD1800257_D01_S32K1xx.5CApplications.5CS32K144_Start_new.5CAppl.5Cobj.5CBswM_Lcfg.
00000220 01         7704 	.data.b	1
00000221 00000000*  7705 	.data.w	.LDW34
00000225 00         7706 	.data.b	0
00000226 00         7707 	.data.b	0
00000227 00         7708 	.data.b	0
                    7709 .LDW_unq_24:
                    7710 	.section	.debug_line
000013f7 020500     7711 	.data.b	0,5,2
000013fa 00000000*  7712 	.data.w	BswM_ActionList_ESH_AL_WaitForNvMWakeup..C.3A.5CVector.5CCBD1800257_D01_S32K1xx.5CApplications.5CS32K144_Start_new.5CAppl.5Cobj.5CBswM_Lcfg.
000013fe 06         7713 	.data.b	6
000013ff 03         7714 	.data.b	3
00001400 08bb       7715 	.data.b	187,8
00001402 02         7716 	.data.b	2
00001403 00         7717 	.data.b	0
00001404 01         7718 	.data.b	1
00001405 13         7719 	.data.b	19
00001406 1b         7720 	.data.b	27
00001407 23         7721 	.data.b	35
00001408 2b         7722 	.data.b	43
00001409 06         7723 	.data.b	6
0000140a 02         7724 	.data.b	2
0000140b 02         7725 	.data.b	2
0000140c 02         7726 	.data.b	2
0000140d 02         7727 	.data.b	2
0000140e 010100     7728 	.data.b	0,1,1
                    7729 	.section	.debug_info
                    7730 .LDW_4a8b8a0:
00002bd4 1f         7731 	.data.b	31

                                                                      Page 166
                                                              C:\Users\Fengyuan\AppData\Local\Temp\gh_0000p9o1.s
00002bd5 00000000*  7732 	.data.w	.LDW24
00002bd9 00000000*  7733 	.data.w	.LDW34
                    7734 
00002bdd 00         7735 	.data.b	0
                    7736 
00002bde 00         7737 	.data.b	0
                    7738 
                    7739 .LDW_5e1e488:
00002bdf 16         7740 	.data.b	22
00002be0 4d777342   7741 	.data.b	66,115,119,77,95,65,99,116,105,111,110,76,105,115,116,95,69,83,72,95,65,76,95,87,97,107,101,117,112,84,111,82,117,110,0
00002be4 7463415f 
00002be8 4c6e6f69 
00002bec 5f747369 
00002bf0 5f485345 
00002bf4 575f4c41 
00002bf8 75656b61 
00002bfc 526f5470 
00002c00 006e75 
00002c03 08c6       7742 	.data.b	198,8
00002c05 2c         7743 	.data.b	44
00002c06 01         7744 	.data.b	1
00002c07 00000000*  7745 	.data.w	.LDW_5d40528
00002c0b 00000000*  7746 	.data.w	BswM_ActionList_ESH_AL_WakeupToRun..C.3A.5CVector.5CCBD1800257_D01_S32K1xx.5CApplications.5CS32K144_Start_new.5CAppl.5Cobj.5CBswM_Lcfg.
00002c0f 00000000*  7747 	.data.w	__ghs_eofn_BswM_ActionList_ESH_AL_WakeupToRun
00002c13 5d01       7748 	.data.b	1,93
00002c15 018080     7749 	.data.b	128,128,1
00002c18 00         7750 	.data.b	0
00002c19 00         7751 	.data.b	0
00002c1a 00         7752 	.data.b	0
00002c1b 01         7753 	.data.b	1
00002c1c 00         7754 	.data.b	0
00002c1d 00         7755 	.data.b	0
00002c1e 00         7756 	.data.b	0
00002c1f 01         7757 	.data.b	1
00002c20 00         7758 	.data.b	0
00002c21 01         7759 	.data.b	1
                    7760 
                    7761 	.section	.debug_frame
                    7762 .LDW_5f6a968:
00000228 00000000*  7763 	.data.w	.LDW_unq_26-.LDW_unq_25
                    7764 .LDW_unq_25:
0000022c 00000000*  7765 	.data.w	.LDW_65bf828
00000230 00000000*  7766 	.data.w	BswM_ActionList_ESH_AL_WakeupToRun..C.3A.5CVector.5CCBD1800257_D01_S32K1xx.5CApplications.5CS32K144_Start_new.5CAppl.5Cobj.5CBswM_Lcfg.
00000234 0000003a   7767 	.data.w	__ghs_eofn_BswM_ActionList_ESH_AL_WakeupToRun-BswM_ActionList_ESH_AL_WakeupToRun..C.3A.5CVector.5CCBD1800257_D01_S32K1xx.5CApplications.5CS32K144_Start_new.5CAppl.5Cobj.5CBswM_Lcfg.
00000238 01         7768 	.data.b	1
00000239 00000000*  7769 	.data.w	.LDW54
0000023d 00         7770 	.data.b	0
0000023e 00         7771 	.data.b	0
0000023f 00         7772 	.data.b	0
                    7773 .LDW_unq_26:
                    7774 	.section	.debug_line
00001411 020500     7775 	.data.b	0,5,2
00001414 00000000*  7776 	.data.w	BswM_ActionList_ESH_AL_WakeupToRun..C.3A.5CVector.5CCBD1800257_D01_S32K1xx.5CApplications.5CS32K144_Start_new.5CAppl.5Cobj.5CBswM_Lcfg.
00001418 06         7777 	.data.b	6
00001419 03         7778 	.data.b	3
0000141a 08c6       7779 	.data.b	198,8
0000141c 02         7780 	.data.b	2
0000141d 00         7781 	.data.b	0
0000141e 01         7782 	.data.b	1
0000141f 13         7783 	.data.b	19
00001420 23         7784 	.data.b	35

                                                                      Page 167
                                                              C:\Users\Fengyuan\AppData\Local\Temp\gh_0000p9o1.s
00001421 2b         7785 	.data.b	43
00001422 5b         7786 	.data.b	91
00001423 1b         7787 	.data.b	27
00001424 23         7788 	.data.b	35
00001425 2b         7789 	.data.b	43
00001426 06         7790 	.data.b	6
00001427 02         7791 	.data.b	2
00001428 02         7792 	.data.b	2
00001429 02         7793 	.data.b	2
0000142a 02         7794 	.data.b	2
0000142b 010100     7795 	.data.b	0,1,1
                    7796 	.section	.debug_info
                    7797 .LDW_4a8bc60:
00002c22 1f         7798 	.data.b	31
00002c23 00000000*  7799 	.data.w	.LDW44
00002c27 00000000*  7800 	.data.w	.LDW54
                    7801 
00002c2b 00         7802 	.data.b	0
                    7803 
00002c2c 00         7804 	.data.b	0
                    7805 
                    7806 .LDW_5e1e060:
00002c2d 16         7807 	.data.b	22
00002c2e 4d777342   7808 	.data.b	66,115,119,77,95,65,99,116,105,111,110,76,105,115,116,95,69,83,72,95,65,76,95,68,101,109,73,110,105,116,0
00002c32 7463415f 
00002c36 4c6e6f69 
00002c3a 5f747369 
00002c3e 5f485345 
00002c42 445f4c41 
00002c46 6e496d65 
00002c4a 007469 
00002c4d 08d4       7809 	.data.b	212,8
00002c4f 2c         7810 	.data.b	44
00002c50 01         7811 	.data.b	1
00002c51 00000000*  7812 	.data.w	.LDW_5d40528
00002c55 00000000*  7813 	.data.w	BswM_ActionList_ESH_AL_DemInit..C.3A.5CVector.5CCBD1800257_D01_S32K1xx.5CApplications.5CS32K144_Start_new.5CAppl.5Cobj.5CBswM_Lcfg.
00002c59 00000000*  7814 	.data.w	__ghs_eofn_BswM_ActionList_ESH_AL_DemInit
00002c5d 5d01       7815 	.data.b	1,93
00002c5f 018080     7816 	.data.b	128,128,1
00002c62 00         7817 	.data.b	0
00002c63 00         7818 	.data.b	0
00002c64 00         7819 	.data.b	0
00002c65 01         7820 	.data.b	1
00002c66 00         7821 	.data.b	0
00002c67 00         7822 	.data.b	0
00002c68 00         7823 	.data.b	0
00002c69 01         7824 	.data.b	1
00002c6a 00         7825 	.data.b	0
00002c6b 01         7826 	.data.b	1
                    7827 
                    7828 	.section	.debug_frame
                    7829 .LDW_5f6aa68:
00000240 00000000*  7830 	.data.w	.LDW_unq_28-.LDW_unq_27
                    7831 .LDW_unq_27:
00000244 00000000*  7832 	.data.w	.LDW_65bf828
00000248 00000000*  7833 	.data.w	BswM_ActionList_ESH_AL_DemInit..C.3A.5CVector.5CCBD1800257_D01_S32K1xx.5CApplications.5CS32K144_Start_new.5CAppl.5Cobj.5CBswM_Lcfg.
0000024c 00000014   7834 	.data.w	__ghs_eofn_BswM_ActionList_ESH_AL_DemInit-BswM_ActionList_ESH_AL_DemInit..C.3A.5CVector.5CCBD1800257_D01_S32K1xx.5CApplications.5CS32K144_Start_new.5CAppl.5Cobj.5CBswM_Lcfg.
00000250 01         7835 	.data.b	1
00000251 00000000*  7836 	.data.w	.LDW74
00000255 00         7837 	.data.b	0
00000256 00         7838 	.data.b	0

                                                                      Page 168
                                                              C:\Users\Fengyuan\AppData\Local\Temp\gh_0000p9o1.s
00000257 00         7839 	.data.b	0
                    7840 .LDW_unq_28:
                    7841 	.section	.debug_line
0000142e 020500     7842 	.data.b	0,5,2
00001431 00000000*  7843 	.data.w	BswM_ActionList_ESH_AL_DemInit..C.3A.5CVector.5CCBD1800257_D01_S32K1xx.5CApplications.5CS32K144_Start_new.5CAppl.5Cobj.5CBswM_Lcfg.
00001435 06         7844 	.data.b	6
00001436 03         7845 	.data.b	3
00001437 08d4       7846 	.data.b	212,8
00001439 02         7847 	.data.b	2
0000143a 00         7848 	.data.b	0
0000143b 01         7849 	.data.b	1
0000143c 14         7850 	.data.b	20
0000143d 24         7851 	.data.b	36
0000143e 2b         7852 	.data.b	43
0000143f 06         7853 	.data.b	6
00001440 02         7854 	.data.b	2
00001441 02         7855 	.data.b	2
00001442 02         7856 	.data.b	2
00001443 02         7857 	.data.b	2
00001444 010100     7858 	.data.b	0,1,1
                    7859 	.section	.debug_info
                    7860 .LDW_4a8b960:
00002c6c 1f         7861 	.data.b	31
00002c6d 00000000*  7862 	.data.w	.LDW64
00002c71 00000000*  7863 	.data.w	.LDW74
                    7864 
00002c75 00         7865 	.data.b	0
                    7866 
00002c76 00         7867 	.data.b	0
                    7868 
                    7869 .LDW_5e1e3f0:
00002c77 16         7870 	.data.b	22
00002c78 4d777342   7871 	.data.b	66,115,119,77,95,65,99,116,105,111,110,76,105,115,116,95,69,83,72,95,65,76,95,80,111,115,116,82,117,110,84,111,80,114,101,112,83,104,117,116,100,111,119,110,0
00002c7c 7463415f 
00002c80 4c6e6f69 
00002c84 5f747369 
00002c88 5f485345 
00002c8c 505f4c41 
00002c90 5274736f 
00002c94 6f546e75 
00002c98 70657250 
00002c9c 74756853 
00002ca0 6e776f64 
00002ca4 00 
00002ca5 08e0       7872 	.data.b	224,8
00002ca7 2c         7873 	.data.b	44
00002ca8 01         7874 	.data.b	1
00002ca9 00000000*  7875 	.data.w	.LDW_5d40528
00002cad 00000000*  7876 	.data.w	BswM_ActionList_ESH_AL_PostRunToPrepShutdown..C.3A.5CVector.5CCBD1800257_D01_S32K1xx.5CApplications.5CS32K144_Start_new.5CAppl.5Cobj.5CBswM_Lcfg.
00002cb1 00000000*  7877 	.data.w	__ghs_eofn_BswM_ActionList_ESH_AL_PostRunToPrepShutdown
00002cb5 5d01       7878 	.data.b	1,93
00002cb7 018090     7879 	.data.b	144,128,1
00002cba 7c         7880 	.data.b	124
00002cbb 00         7881 	.data.b	0
00002cbc 04         7882 	.data.b	4
00002cbd 01         7883 	.data.b	1
00002cbe 00         7884 	.data.b	0
00002cbf 00         7885 	.data.b	0
00002cc0 00         7886 	.data.b	0
00002cc1 01         7887 	.data.b	1
00002cc2 00         7888 	.data.b	0

                                                                      Page 169
                                                              C:\Users\Fengyuan\AppData\Local\Temp\gh_0000p9o1.s
00002cc3 01         7889 	.data.b	1
                    7890 
                    7891 	.section	.debug_frame
                    7892 .LDW_5f6ada8:
00000258 00000000*  7893 	.data.w	.LDW_unq_2a-.LDW_unq_29
                    7894 .LDW_unq_29:
0000025c 00000000*  7895 	.data.w	.LDW_65bf828
00000260 00000000*  7896 	.data.w	BswM_ActionList_ESH_AL_PostRunToPrepShutdown..C.3A.5CVector.5CCBD1800257_D01_S32K1xx.5CApplications.5CS32K144_Start_new.5CAppl.5Cobj.5CBswM_Lcfg.
00000264 00000022   7897 	.data.w	__ghs_eofn_BswM_ActionList_ESH_AL_PostRunToPrepShutdown-BswM_ActionList_ESH_AL_PostRunToPrepShutdown..C.3A.5CVector.5CCBD1800257_D01_S32K1xx.5CApplications.5CS32K144_Start_new.5CAppl.5Cobj.5CBswM_Lcfg.
00000268 01         7898 	.data.b	1
00000269 00000000*  7899 	.data.w	.LDW94
0000026d 00         7900 	.data.b	0
0000026e 00         7901 	.data.b	0
0000026f 00         7902 	.data.b	0
                    7903 .LDW_unq_2a:
                    7904 	.section	.debug_line
00001447 020500     7905 	.data.b	0,5,2
0000144a 00000000*  7906 	.data.w	BswM_ActionList_ESH_AL_PostRunToPrepShutdown..C.3A.5CVector.5CCBD1800257_D01_S32K1xx.5CApplications.5CS32K144_Start_new.5CAppl.5Cobj.5CBswM_Lcfg.
0000144e 06         7907 	.data.b	6
0000144f 03         7908 	.data.b	3
00001450 08e0       7909 	.data.b	224,8
00001452 02         7910 	.data.b	2
00001453 00         7911 	.data.b	0
00001454 01         7912 	.data.b	1
00001455 14         7913 	.data.b	20
00001456 1c         7914 	.data.b	28
00001457 2b         7915 	.data.b	43
00001458 1b         7916 	.data.b	27
00001459 23         7917 	.data.b	35
0000145a 23         7918 	.data.b	35
0000145b 06         7919 	.data.b	6
0000145c 02         7920 	.data.b	2
0000145d 02         7921 	.data.b	2
0000145e 02         7922 	.data.b	2
0000145f 02         7923 	.data.b	2
00001460 010100     7924 	.data.b	0,1,1
                    7925 	.section	.debug_info
                    7926 .LDW_4a8b8d0:
00002cc4 1f         7927 	.data.b	31
00002cc5 00000000*  7928 	.data.w	.LDW84
00002cc9 00000000*  7929 	.data.w	.LDW94
                    7930 
00002ccd 00         7931 	.data.b	0
                    7932 
00002cce 00         7933 	.data.b	0
                    7934 
                    7935 .LDW_5e1e0f8:
00002ccf 16         7936 	.data.b	22
00002cd0 4d777342   7937 	.data.b	66,115,119,77,95,65,99,116,105,111,110,76,105,115,116,95,69,83,72,95,65,76,95,69,83,72,95,80,111,115,116,82,117,110,84,111,80,114,101,112,67,104,101,99,107,0
00002cd4 7463415f 
00002cd8 4c6e6f69 
00002cdc 5f747369 
00002ce0 5f485345 
00002ce4 455f4c41 
00002ce8 505f4853 
00002cec 5274736f 
00002cf0 6f546e75 
00002cf4 70657250 
00002cf8 63656843 
00002cfc 006b 
00002cfe 08ef       7938 	.data.b	239,8

                                                                      Page 170
                                                              C:\Users\Fengyuan\AppData\Local\Temp\gh_0000p9o1.s
00002d00 2c         7939 	.data.b	44
00002d01 01         7940 	.data.b	1
00002d02 00000000*  7941 	.data.w	.LDW_5d40528
00002d06 00000000*  7942 	.data.w	BswM_ActionList_ESH_AL_ESH_PostRunToPrepCheck..C.3A.5CVector.5CCBD1800257_D01_S32K1xx.5CApplications.5CS32K144_Start_new.5CAppl.5Cobj.5CBswM_Lcfg.
00002d0a 00000000*  7943 	.data.w	__ghs_eofn_BswM_ActionList_ESH_AL_ESH_PostRunToPrepCheck
00002d0e 5d01       7944 	.data.b	1,93
00002d10 018080     7945 	.data.b	128,128,1
00002d13 00         7946 	.data.b	0
00002d14 00         7947 	.data.b	0
00002d15 00         7948 	.data.b	0
00002d16 01         7949 	.data.b	1
00002d17 00         7950 	.data.b	0
00002d18 00         7951 	.data.b	0
00002d19 00         7952 	.data.b	0
00002d1a 01         7953 	.data.b	1
00002d1b 00         7954 	.data.b	0
00002d1c 01         7955 	.data.b	1
                    7956 
                    7957 	.section	.debug_frame
                    7958 .LDW_5f6ab68:
00000270 00000000*  7959 	.data.w	.LDW_unq_2c-.LDW_unq_2b
                    7960 .LDW_unq_2b:
00000274 00000000*  7961 	.data.w	.LDW_65bf828
00000278 00000000*  7962 	.data.w	BswM_ActionList_ESH_AL_ESH_PostRunToPrepCheck..C.3A.5CVector.5CCBD1800257_D01_S32K1xx.5CApplications.5CS32K144_Start_new.5CAppl.5Cobj.5CBswM_Lcfg.
0000027c 0000000c   7963 	.data.w	__ghs_eofn_BswM_ActionList_ESH_AL_ESH_PostRunToPrepCheck-BswM_ActionList_ESH_AL_ESH_PostRunToPrepCheck..C.3A.5CVector.5CCBD1800257_D01_S32K1xx.5CApplications.5CS32K144_Start_new.5CAppl.5Cobj.5CBswM_Lcfg.
00000280 01         7964 	.data.b	1
00000281 00000000*  7965 	.data.w	.LDW15
00000285 00         7966 	.data.b	0
00000286 00         7967 	.data.b	0
00000287 00         7968 	.data.b	0
                    7969 .LDW_unq_2c:
                    7970 	.section	.debug_line
00001463 020500     7971 	.data.b	0,5,2
00001466 00000000*  7972 	.data.w	BswM_ActionList_ESH_AL_ESH_PostRunToPrepCheck..C.3A.5CVector.5CCBD1800257_D01_S32K1xx.5CApplications.5CS32K144_Start_new.5CAppl.5Cobj.5CBswM_Lcfg.
0000146a 06         7973 	.data.b	6
0000146b 03         7974 	.data.b	3
0000146c 08ef       7975 	.data.b	239,8
0000146e 02         7976 	.data.b	2
0000146f 00         7977 	.data.b	0
00001470 01         7978 	.data.b	1
00001471 13         7979 	.data.b	19
00001472 23         7980 	.data.b	35
00001473 06         7981 	.data.b	6
00001474 02         7982 	.data.b	2
00001475 02         7983 	.data.b	2
00001476 02         7984 	.data.b	2
00001477 02         7985 	.data.b	2
00001478 010100     7986 	.data.b	0,1,1
                    7987 	.section	.debug_info
                    7988 .LDW_4a8b990:
00002d1d 1f         7989 	.data.b	31
00002d1e 00000000*  7990 	.data.w	.LDW05
00002d22 00000000*  7991 	.data.w	.LDW15
                    7992 
00002d26 00         7993 	.data.b	0
                    7994 
00002d27 00         7995 	.data.b	0
                    7996 
                    7997 .LDW_5e1dcd0:
00002d28 16         7998 	.data.b	22
00002d29 4d777342   7999 	.data.b	66,115,119,77,95,65,99,116,105,111,110,76,105,115,116,95,69,83,72,95,65,76,95,80,111,115,116,82,117,110,84,111,82,117,110,0

                                                                      Page 171
                                                              C:\Users\Fengyuan\AppData\Local\Temp\gh_0000p9o1.s
00002d2d 7463415f 
00002d31 4c6e6f69 
00002d35 5f747369 
00002d39 5f485345 
00002d3d 505f4c41 
00002d41 5274736f 
00002d45 6f546e75 
00002d49 006e7552 
00002d4d 08f8       8000 	.data.b	248,8
00002d4f 2c         8001 	.data.b	44
00002d50 01         8002 	.data.b	1
00002d51 00000000*  8003 	.data.w	.LDW_5d40528
00002d55 00000000*  8004 	.data.w	BswM_ActionList_ESH_AL_PostRunToRun..C.3A.5CVector.5CCBD1800257_D01_S32K1xx.5CApplications.5CS32K144_Start_new.5CAppl.5Cobj.5CBswM_Lcfg.
00002d59 00000000*  8005 	.data.w	__ghs_eofn_BswM_ActionList_ESH_AL_PostRunToRun
00002d5d 5d01       8006 	.data.b	1,93
00002d5f 018080     8007 	.data.b	128,128,1
00002d62 00         8008 	.data.b	0
00002d63 00         8009 	.data.b	0
00002d64 00         8010 	.data.b	0
00002d65 01         8011 	.data.b	1
00002d66 00         8012 	.data.b	0
00002d67 00         8013 	.data.b	0
00002d68 00         8014 	.data.b	0
00002d69 01         8015 	.data.b	1
00002d6a 00         8016 	.data.b	0
00002d6b 01         8017 	.data.b	1
                    8018 
                    8019 	.section	.debug_frame
                    8020 .LDW_5f6aba8:
00000288 00000000*  8021 	.data.w	.LDW_unq_2e-.LDW_unq_2d
                    8022 .LDW_unq_2d:
0000028c 00000000*  8023 	.data.w	.LDW_65bf828
00000290 00000000*  8024 	.data.w	BswM_ActionList_ESH_AL_PostRunToRun..C.3A.5CVector.5CCBD1800257_D01_S32K1xx.5CApplications.5CS32K144_Start_new.5CAppl.5Cobj.5CBswM_Lcfg.
00000294 00000034   8025 	.data.w	__ghs_eofn_BswM_ActionList_ESH_AL_PostRunToRun-BswM_ActionList_ESH_AL_PostRunToRun..C.3A.5CVector.5CCBD1800257_D01_S32K1xx.5CApplications.5CS32K144_Start_new.5CAppl.5Cobj.5CBswM_Lcfg.
00000298 01         8026 	.data.b	1
00000299 00000000*  8027 	.data.w	.LDW35
0000029d 00         8028 	.data.b	0
0000029e 00         8029 	.data.b	0
0000029f 00         8030 	.data.b	0
                    8031 .LDW_unq_2e:
                    8032 	.section	.debug_line
0000147b 020500     8033 	.data.b	0,5,2
0000147e 00000000*  8034 	.data.w	BswM_ActionList_ESH_AL_PostRunToRun..C.3A.5CVector.5CCBD1800257_D01_S32K1xx.5CApplications.5CS32K144_Start_new.5CAppl.5Cobj.5CBswM_Lcfg.
00001482 06         8035 	.data.b	6
00001483 03         8036 	.data.b	3
00001484 08f8       8037 	.data.b	248,8
00001486 02         8038 	.data.b	2
00001487 00         8039 	.data.b	0
00001488 01         8040 	.data.b	1
00001489 13         8041 	.data.b	19
0000148a 2b         8042 	.data.b	43
0000148b 5b         8043 	.data.b	91
0000148c 1b         8044 	.data.b	27
0000148d 23         8045 	.data.b	35
0000148e 2b         8046 	.data.b	43
0000148f 06         8047 	.data.b	6
00001490 02         8048 	.data.b	2
00001491 02         8049 	.data.b	2
00001492 02         8050 	.data.b	2
00001493 01ae       8051 	.data.b	174,1
00001495 010100     8052 	.data.b	0,1,1

                                                                      Page 172
                                                              C:\Users\Fengyuan\AppData\Local\Temp\gh_0000p9o1.s
                    8053 	.section	.debug_info
                    8054 .LDW_4a8bd20:
00002d6c 1f         8055 	.data.b	31
00002d6d 00000000*  8056 	.data.w	.LDW25
00002d71 00000000*  8057 	.data.w	.LDW35
                    8058 
00002d75 00         8059 	.data.b	0
                    8060 
00002d76 00         8061 	.data.b	0
                    8062 
                    8063 .LDW_5e1dc38:
00002d77 16         8064 	.data.b	22
00002d78 4d777342   8065 	.data.b	66,115,119,77,95,65,99,116,105,111,110,76,105,115,116,95,69,83,72,95,65,76,95,69,120,105,116,80,111,115,116,82,117,110,0
00002d7c 7463415f 
00002d80 4c6e6f69 
00002d84 5f747369 
00002d88 5f485345 
00002d8c 455f4c41 
00002d90 50746978 
00002d94 5274736f 
00002d98 006e75 
00002d9b 0985       8066 	.data.b	133,9
00002d9d 2c         8067 	.data.b	44
00002d9e 01         8068 	.data.b	1
00002d9f 00000000*  8069 	.data.w	.LDW_5d40528
00002da3 00000000*  8070 	.data.w	BswM_ActionList_ESH_AL_ExitPostRun..C.3A.5CVector.5CCBD1800257_D01_S32K1xx.5CApplications.5CS32K144_Start_new.5CAppl.5Cobj.5CBswM_Lcfg.
00002da7 00000000*  8071 	.data.w	__ghs_eofn_BswM_ActionList_ESH_AL_ExitPostRun
00002dab 5d01       8072 	.data.b	1,93
00002dad 018080     8073 	.data.b	128,128,1
00002db0 00         8074 	.data.b	0
00002db1 00         8075 	.data.b	0
00002db2 00         8076 	.data.b	0
00002db3 01         8077 	.data.b	1
00002db4 00         8078 	.data.b	0
00002db5 00         8079 	.data.b	0
00002db6 00         8080 	.data.b	0
00002db7 01         8081 	.data.b	1
00002db8 00         8082 	.data.b	0
00002db9 01         8083 	.data.b	1
                    8084 
                    8085 	.section	.debug_frame
                    8086 .LDW_5f6b3a8:
000002a0 00000000*  8087 	.data.w	.LDW_unq_30-.LDW_unq_2f
                    8088 .LDW_unq_2f:
000002a4 00000000*  8089 	.data.w	.LDW_65bf828
000002a8 00000000*  8090 	.data.w	BswM_ActionList_ESH_AL_ExitPostRun..C.3A.5CVector.5CCBD1800257_D01_S32K1xx.5CApplications.5CS32K144_Start_new.5CAppl.5Cobj.5CBswM_Lcfg.
000002ac 00000018   8091 	.data.w	__ghs_eofn_BswM_ActionList_ESH_AL_ExitPostRun-BswM_ActionList_ESH_AL_ExitPostRun..C.3A.5CVector.5CCBD1800257_D01_S32K1xx.5CApplications.5CS32K144_Start_new.5CAppl.5Cobj.5CBswM_Lcfg.
000002b0 01         8092 	.data.b	1
000002b1 00000000*  8093 	.data.w	.LDW55
000002b5 00         8094 	.data.b	0
000002b6 00         8095 	.data.b	0
000002b7 00         8096 	.data.b	0
                    8097 .LDW_unq_30:
                    8098 	.section	.debug_line
00001498 020500     8099 	.data.b	0,5,2
0000149b 00000000*  8100 	.data.w	BswM_ActionList_ESH_AL_ExitPostRun..C.3A.5CVector.5CCBD1800257_D01_S32K1xx.5CApplications.5CS32K144_Start_new.5CAppl.5Cobj.5CBswM_Lcfg.
0000149f 06         8101 	.data.b	6
000014a0 03         8102 	.data.b	3
000014a1 0985       8103 	.data.b	133,9
000014a3 02         8104 	.data.b	2
000014a4 00         8105 	.data.b	0

                                                                      Page 173
                                                              C:\Users\Fengyuan\AppData\Local\Temp\gh_0000p9o1.s
000014a5 01         8106 	.data.b	1
000014a6 14         8107 	.data.b	20
000014a7 1c         8108 	.data.b	28
000014a8 1b         8109 	.data.b	27
000014a9 24         8110 	.data.b	36
000014aa 1c         8111 	.data.b	28
000014ab 06         8112 	.data.b	6
000014ac 02         8113 	.data.b	2
000014ad 02         8114 	.data.b	2
000014ae 02         8115 	.data.b	2
000014af 02         8116 	.data.b	2
000014b0 010100     8117 	.data.b	0,1,1
                    8118 	.section	.debug_info
                    8119 .LDW_4a8b9f0:
00002dba 1f         8120 	.data.b	31
00002dbb 00000000*  8121 	.data.w	.LDW45
00002dbf 00000000*  8122 	.data.w	.LDW55
                    8123 
00002dc3 00         8124 	.data.b	0
                    8125 
00002dc4 00         8126 	.data.b	0
                    8127 
                    8128 .LDW_5e1e190:
00002dc5 16         8129 	.data.b	22
00002dc6 4d777342   8130 	.data.b	66,115,119,77,95,65,99,116,105,111,110,76,105,115,116,95,69,83,72,95,65,76,95,80,114,101,112,83,104,117,116,100,111,119,110,84,111,87,97,105,116,70,111,114,78,118,77,0
00002dca 7463415f 
00002dce 4c6e6f69 
00002dd2 5f747369 
00002dd6 5f485345 
00002dda 505f4c41 
00002dde 53706572 
00002de2 64747568 
00002de6 546e776f 
00002dea 6961576f 
00002dee 726f4674 
00002df2 004d764e 
00002df6 0995       8131 	.data.b	149,9
00002df8 2c         8132 	.data.b	44
00002df9 01         8133 	.data.b	1
00002dfa 00000000*  8134 	.data.w	.LDW_5d40528
00002dfe 00000000*  8135 	.data.w	BswM_ActionList_ESH_AL_PrepShutdownToWaitForNvM..C.3A.5CVector.5CCBD1800257_D01_S32K1xx.5CApplications.5CS32K144_Start_new.5CAppl.5Cobj.5CBswM_Lcfg.
00002e02 00000000*  8136 	.data.w	__ghs_eofn_BswM_ActionList_ESH_AL_PrepShutdownToWaitForNvM
00002e06 5d01       8137 	.data.b	1,93
00002e08 018080     8138 	.data.b	128,128,1
00002e0b 00         8139 	.data.b	0
00002e0c 00         8140 	.data.b	0
00002e0d 00         8141 	.data.b	0
00002e0e 01         8142 	.data.b	1
00002e0f 00         8143 	.data.b	0
00002e10 00         8144 	.data.b	0
00002e11 00         8145 	.data.b	0
00002e12 01         8146 	.data.b	1
00002e13 00         8147 	.data.b	0
00002e14 01         8148 	.data.b	1
                    8149 
                    8150 	.section	.debug_frame
                    8151 .LDW_5f6b7e8:
000002b8 00000000*  8152 	.data.w	.LDW_unq_32-.LDW_unq_31
                    8153 .LDW_unq_31:
000002bc 00000000*  8154 	.data.w	.LDW_65bf828
000002c0 00000000*  8155 	.data.w	BswM_ActionList_ESH_AL_PrepShutdownToWaitForNvM..C.3A.5CVector.5CCBD1800257_D01_S32K1xx.5CApplications.5CS32K144_Start_new.5CAppl.5Cobj.5CBswM_Lcfg.

                                                                      Page 174
                                                              C:\Users\Fengyuan\AppData\Local\Temp\gh_0000p9o1.s
000002c4 00000016   8156 	.data.w	__ghs_eofn_BswM_ActionList_ESH_AL_PrepShutdownToWaitForNvM-BswM_ActionList_ESH_AL_PrepShutdownToWaitForNvM..C.3A.5CVector.5CCBD1800257_D01_S32K1xx.5CApplications.5CS32K144_Start_new.5CAppl.5Cobj.5CBswM_Lcfg.
000002c8 01         8157 	.data.b	1
000002c9 00000000*  8158 	.data.w	.LDW75
000002cd 00         8159 	.data.b	0
000002ce 00         8160 	.data.b	0
000002cf 00         8161 	.data.b	0
                    8162 .LDW_unq_32:
                    8163 	.section	.debug_line
000014b3 020500     8164 	.data.b	0,5,2
000014b6 00000000*  8165 	.data.w	BswM_ActionList_ESH_AL_PrepShutdownToWaitForNvM..C.3A.5CVector.5CCBD1800257_D01_S32K1xx.5CApplications.5CS32K144_Start_new.5CAppl.5Cobj.5CBswM_Lcfg.
000014ba 06         8166 	.data.b	6
000014bb 03         8167 	.data.b	3
000014bc 0995       8168 	.data.b	149,9
000014be 02         8169 	.data.b	2
000014bf 00         8170 	.data.b	0
000014c0 01         8171 	.data.b	1
000014c1 13         8172 	.data.b	19
000014c2 1b         8173 	.data.b	27
000014c3 1b         8174 	.data.b	27
000014c4 2b         8175 	.data.b	43
000014c5 06         8176 	.data.b	6
000014c6 02         8177 	.data.b	2
000014c7 02         8178 	.data.b	2
000014c8 02         8179 	.data.b	2
000014c9 02         8180 	.data.b	2
000014ca 010100     8181 	.data.b	0,1,1
                    8182 	.section	.debug_info
                    8183 .LDW_4a8b870:
00002e15 1f         8184 	.data.b	31
00002e16 00000000*  8185 	.data.w	.LDW65
00002e1a 00000000*  8186 	.data.w	.LDW75
                    8187 
00002e1e 00         8188 	.data.b	0
                    8189 
00002e1f 00         8190 	.data.b	0
                    8191 
                    8192 .LDW_5e1d8a8:
00002e20 16         8193 	.data.b	22
00002e21 4d777342   8194 	.data.b	66,115,119,77,95,82,117,108,101,95,67,67,95,67,78,95,67,65,78,48,48,95,53,101,53,54,54,97,100,57,95,82,88,0
00002e25 6c75525f 
00002e29 43435f65 
00002e2d 5f4e435f 
00002e31 304e4143 
00002e35 65355f30 
00002e39 61363635 
00002e3d 525f3964 
00002e41 0058 
00002e43 09a4       8195 	.data.b	164,9
00002e45 2d         8196 	.data.b	45
00002e46 01         8197 	.data.b	1
00002e47 00000000*  8198 	.data.w	.LDW_5d40580
00002e4b 00000000*  8199 	.data.w	BswM_Rule_CC_CN_CAN00_5e566ad9_RX..C.3A.5CVector.5CCBD1800257_D01_S32K1xx.5CApplications.5CS32K144_Start_new.5CAppl.5Cobj.5CBswM_Lcfg.
00002e4f 00000000*  8200 	.data.w	__ghs_eofn_BswM_Rule_CC_CN_CAN00_5e566ad9_RX
00002e53 5d01       8201 	.data.b	1,93
00002e55 00         8202 	.data.b	0
00002e56 04         8203 	.data.b	4
00002e57 00         8204 	.data.b	0
00002e58 7c         8205 	.data.b	124
00002e59 01         8206 	.data.b	1
00002e5a 00         8207 	.data.b	0
00002e5b 00         8208 	.data.b	0

                                                                      Page 175
                                                              C:\Users\Fengyuan\AppData\Local\Temp\gh_0000p9o1.s
00002e5c 00         8209 	.data.b	0
00002e5d 01         8210 	.data.b	1
00002e5e 00         8211 	.data.b	0
00002e5f 01         8212 	.data.b	1
                    8213 
                    8214 	.section	.debug_frame
                    8215 .LDW_5f6b6a8:
000002d0 00000000*  8216 	.data.w	.LDW_unq_34-.LDW_unq_33
                    8217 .LDW_unq_33:
000002d4 00000000*  8218 	.data.w	.LDW_65bf828
000002d8 00000000*  8219 	.data.w	BswM_Rule_CC_CN_CAN00_5e566ad9_RX..C.3A.5CVector.5CCBD1800257_D01_S32K1xx.5CApplications.5CS32K144_Start_new.5CAppl.5Cobj.5CBswM_Lcfg.
000002dc 0000001e   8220 	.data.w	__ghs_eofn_BswM_Rule_CC_CN_CAN00_5e566ad9_RX-BswM_Rule_CC_CN_CAN00_5e566ad9_RX..C.3A.5CVector.5CCBD1800257_D01_S32K1xx.5CApplications.5CS32K144_Start_new.5CAppl.5Cobj.5CBswM_Lcfg.
000002e0 01         8221 	.data.b	1
000002e1 00000000*  8222 	.data.w	.LDW95
000002e5 00         8223 	.data.b	0
000002e6 00         8224 	.data.b	0
000002e7 00         8225 	.data.b	0
                    8226 .LDW_unq_34:
                    8227 	.section	.debug_line
000014cd 020500     8228 	.data.b	0,5,2
000014d0 00000000*  8229 	.data.w	BswM_Rule_CC_CN_CAN00_5e566ad9_RX..C.3A.5CVector.5CCBD1800257_D01_S32K1xx.5CApplications.5CS32K144_Start_new.5CAppl.5Cobj.5CBswM_Lcfg.
000014d4 06         8230 	.data.b	6
000014d5 03         8231 	.data.b	3
000014d6 09a5       8232 	.data.b	165,9
000014d8 02         8233 	.data.b	2
000014d9 00         8234 	.data.b	0
000014da 01         8235 	.data.b	1
000014db 14         8236 	.data.b	20
000014dc 06         8237 	.data.b	6
000014dd 03         8238 	.data.b	3
000014de 0b         8239 	.data.b	11
000014df 02         8240 	.data.b	2
000014e0 02         8241 	.data.b	2
000014e1 01         8242 	.data.b	1
000014e2 03         8243 	.data.b	3
000014e3 77         8244 	.data.b	119
000014e4 02         8245 	.data.b	2
000014e5 00         8246 	.data.b	0
000014e6 01         8247 	.data.b	1
000014e7 03         8248 	.data.b	3
000014e8 7e         8249 	.data.b	126
000014e9 02         8250 	.data.b	2
000014ea 00         8251 	.data.b	0
000014eb 01         8252 	.data.b	1
000014ec 06         8253 	.data.b	6
000014ed 020500     8254 	.data.b	0,5,2
000014f0 00000000*  8255 	.data.w	.LDWlin9
000014f4 0d         8256 	.data.b	13
000014f5 0b         8257 	.data.b	11
000014f6 1c         8258 	.data.b	28
000014f7 020500     8259 	.data.b	0,5,2
000014fa 00000000*  8260 	.data.w	.LDWlin10
000014fe 03         8261 	.data.b	3
000014ff 06         8262 	.data.b	6
00001500 02         8263 	.data.b	2
00001501 00         8264 	.data.b	0
00001502 01         8265 	.data.b	1
00001503 0b         8266 	.data.b	11
00001504 1d         8267 	.data.b	29
00001505 02         8268 	.data.b	2
00001506 00         8269 	.data.b	0

                                                                      Page 176
                                                              C:\Users\Fengyuan\AppData\Local\Temp\gh_0000p9o1.s
00001507 0b         8270 	.data.b	11
00001508 02         8271 	.data.b	2
00001509 00         8272 	.data.b	0
0000150a 0b         8273 	.data.b	11
0000150b 02         8274 	.data.b	2
0000150c 02         8275 	.data.b	2
0000150d 010100     8276 	.data.b	0,1,1
                    8277 	.section	.debug_info
                    8278 .LDW_4a8bc00:
00002e60 1f         8279 	.data.b	31
00002e61 00000000*  8280 	.data.w	.LDW85
00002e65 00000000*  8281 	.data.w	.LDW95
                    8282 
                    8283 .LDW_5c63dd0:
00002e69 06         8284 	.data.b	6
00002e6a 56746572   8285 	.data.b	114,101,116,86,97,108,0
00002e6e 006c61 
00002e71 09a6       8286 	.data.b	166,9
00002e73 13         8287 	.data.b	19
00002e74 01         8288 	.data.b	1
00002e75 00000000*  8289 	.data.w	.LDW_5d40580
00002e79 00         8290 	.data.b	0
00002e7a 00         8291 	.data.b	0
00002e7b 5001       8292 	.data.b	1,80
                    8293 
00002e7d 00         8294 	.data.b	0
                    8295 
00002e7e 00         8296 	.data.b	0
                    8297 
                    8298 .LDW_5e1de98:
00002e7f 16         8299 	.data.b	22
00002e80 4d777342   8300 	.data.b	66,115,119,77,95,82,117,108,101,95,67,67,95,67,78,95,67,65,78,48,48,95,53,101,53,54,54,97,100,57,95,84,88,0
00002e84 6c75525f 
00002e88 43435f65 
00002e8c 5f4e435f 
00002e90 304e4143 
00002e94 65355f30 
00002e98 61363635 
00002e9c 545f3964 
00002ea0 0058 
00002ea2 09c0       8301 	.data.b	192,9
00002ea4 2d         8302 	.data.b	45
00002ea5 01         8303 	.data.b	1
00002ea6 00000000*  8304 	.data.w	.LDW_5d40580
00002eaa 00000000*  8305 	.data.w	BswM_Rule_CC_CN_CAN00_5e566ad9_TX..C.3A.5CVector.5CCBD1800257_D01_S32K1xx.5CApplications.5CS32K144_Start_new.5CAppl.5Cobj.5CBswM_Lcfg.
00002eae 00000000*  8306 	.data.w	__ghs_eofn_BswM_Rule_CC_CN_CAN00_5e566ad9_TX
00002eb2 5d01       8307 	.data.b	1,93
00002eb4 00         8308 	.data.b	0
00002eb5 04         8309 	.data.b	4
00002eb6 00         8310 	.data.b	0
00002eb7 7c         8311 	.data.b	124
00002eb8 01         8312 	.data.b	1
00002eb9 00         8313 	.data.b	0
00002eba 00         8314 	.data.b	0
00002ebb 00         8315 	.data.b	0
00002ebc 01         8316 	.data.b	1
00002ebd 00         8317 	.data.b	0
00002ebe 01         8318 	.data.b	1
                    8319 
                    8320 	.section	.debug_frame
                    8321 .LDW_5f6b9e8:

                                                                      Page 177
                                                              C:\Users\Fengyuan\AppData\Local\Temp\gh_0000p9o1.s
000002e8 00000000*  8322 	.data.w	.LDW_unq_36-.LDW_unq_35
                    8323 .LDW_unq_35:
000002ec 00000000*  8324 	.data.w	.LDW_65bf828
000002f0 00000000*  8325 	.data.w	BswM_Rule_CC_CN_CAN00_5e566ad9_TX..C.3A.5CVector.5CCBD1800257_D01_S32K1xx.5CApplications.5CS32K144_Start_new.5CAppl.5Cobj.5CBswM_Lcfg.
000002f4 00000024   8326 	.data.w	__ghs_eofn_BswM_Rule_CC_CN_CAN00_5e566ad9_TX-BswM_Rule_CC_CN_CAN00_5e566ad9_TX..C.3A.5CVector.5CCBD1800257_D01_S32K1xx.5CApplications.5CS32K144_Start_new.5CAppl.5Cobj.5CBswM_Lcfg.
000002f8 01         8327 	.data.b	1
000002f9 00000000*  8328 	.data.w	.LDW16
000002fd 00         8329 	.data.b	0
000002fe 00         8330 	.data.b	0
000002ff 00         8331 	.data.b	0
                    8332 .LDW_unq_36:
                    8333 	.section	.debug_line
00001510 020500     8334 	.data.b	0,5,2
00001513 00000000*  8335 	.data.w	BswM_Rule_CC_CN_CAN00_5e566ad9_TX..C.3A.5CVector.5CCBD1800257_D01_S32K1xx.5CApplications.5CS32K144_Start_new.5CAppl.5Cobj.5CBswM_Lcfg.
00001517 06         8336 	.data.b	6
00001518 03         8337 	.data.b	3
00001519 09c1       8338 	.data.b	193,9
0000151b 02         8339 	.data.b	2
0000151c 00         8340 	.data.b	0
0000151d 01         8341 	.data.b	1
0000151e 14         8342 	.data.b	20
0000151f 06         8343 	.data.b	6
00001520 03         8344 	.data.b	3
00001521 0b         8345 	.data.b	11
00001522 02         8346 	.data.b	2
00001523 02         8347 	.data.b	2
00001524 01         8348 	.data.b	1
00001525 03         8349 	.data.b	3
00001526 77         8350 	.data.b	119
00001527 02         8351 	.data.b	2
00001528 00         8352 	.data.b	0
00001529 01         8353 	.data.b	1
0000152a 03         8354 	.data.b	3
0000152b 7e         8355 	.data.b	126
0000152c 02         8356 	.data.b	2
0000152d 00         8357 	.data.b	0
0000152e 01         8358 	.data.b	1
0000152f 06         8359 	.data.b	6
00001530 020500     8360 	.data.b	0,5,2
00001533 00000000*  8361 	.data.w	.LDWlin11
00001537 0d         8362 	.data.b	13
00001538 0b         8363 	.data.b	11
00001539 1c         8364 	.data.b	28
0000153a 020500     8365 	.data.b	0,5,2
0000153d 00000000*  8366 	.data.w	.LDWlin12
00001541 03         8367 	.data.b	3
00001542 06         8368 	.data.b	6
00001543 02         8369 	.data.b	2
00001544 00         8370 	.data.b	0
00001545 01         8371 	.data.b	1
00001546 0b         8372 	.data.b	11
00001547 1c         8373 	.data.b	28
00001548 13         8374 	.data.b	19
00001549 02         8375 	.data.b	2
0000154a 00         8376 	.data.b	0
0000154b 0b         8377 	.data.b	11
0000154c 02         8378 	.data.b	2
0000154d 00         8379 	.data.b	0
0000154e 0b         8380 	.data.b	11
0000154f 02         8381 	.data.b	2
00001550 02         8382 	.data.b	2

                                                                      Page 178
                                                              C:\Users\Fengyuan\AppData\Local\Temp\gh_0000p9o1.s
00001551 010100     8383 	.data.b	0,1,1
                    8384 	.section	.debug_info
                    8385 .LDW_4a8b9c0:
00002ebf 1f         8386 	.data.b	31
00002ec0 00000000*  8387 	.data.w	.LDW06
00002ec4 00000000*  8388 	.data.w	.LDW16
                    8389 
                    8390 .LDW_5c63cc8:
00002ec8 06         8391 	.data.b	6
00002ec9 56746572   8392 	.data.b	114,101,116,86,97,108,0
00002ecd 006c61 
00002ed0 09c2       8393 	.data.b	194,9
00002ed2 13         8394 	.data.b	19
00002ed3 01         8395 	.data.b	1
00002ed4 00000000*  8396 	.data.w	.LDW_5d40580
00002ed8 00         8397 	.data.b	0
00002ed9 00         8398 	.data.b	0
00002eda 5001       8399 	.data.b	1,80
                    8400 
00002edc 00         8401 	.data.b	0
                    8402 
00002edd 00         8403 	.data.b	0
                    8404 
                    8405 .LDW_5e1dd68:
00002ede 16         8406 	.data.b	22
00002edf 4d777342   8407 	.data.b	66,115,119,77,95,82,117,108,101,95,67,67,95,67,78,95,67,65,78,48,48,95,53,101,53,54,54,97,100,57,95,82,88,95,68,77,0
00002ee3 6c75525f 
00002ee7 43435f65 
00002eeb 5f4e435f 
00002eef 304e4143 
00002ef3 65355f30 
00002ef7 61363635 
00002efb 525f3964 
00002eff 4d445f58 
00002f03 00 
00002f04 09dc       8408 	.data.b	220,9
00002f06 2d         8409 	.data.b	45
00002f07 01         8410 	.data.b	1
00002f08 00000000*  8411 	.data.w	.LDW_5d40580
00002f0c 00000000*  8412 	.data.w	BswM_Rule_CC_CN_CAN00_5e566ad9_RX_DM..C.3A.5CVector.5CCBD1800257_D01_S32K1xx.5CApplications.5CS32K144_Start_new.5CAppl.5Cobj.5CBswM_Lcfg.
00002f10 00000000*  8413 	.data.w	__ghs_eofn_BswM_Rule_CC_CN_CAN00_5e566ad9_RX_DM
00002f14 5d01       8414 	.data.b	1,93
00002f16 00         8415 	.data.b	0
00002f17 04         8416 	.data.b	4
00002f18 00         8417 	.data.b	0
00002f19 7c         8418 	.data.b	124
00002f1a 01         8419 	.data.b	1
00002f1b 00         8420 	.data.b	0
00002f1c 00         8421 	.data.b	0
00002f1d 00         8422 	.data.b	0
00002f1e 01         8423 	.data.b	1
00002f1f 00         8424 	.data.b	0
00002f20 01         8425 	.data.b	1
                    8426 
                    8427 	.section	.debug_frame
                    8428 .LDW_5f6b9a8:
00000300 00000000*  8429 	.data.w	.LDW_unq_38-.LDW_unq_37
                    8430 .LDW_unq_37:
00000304 00000000*  8431 	.data.w	.LDW_65bf828
00000308 00000000*  8432 	.data.w	BswM_Rule_CC_CN_CAN00_5e566ad9_RX_DM..C.3A.5CVector.5CCBD1800257_D01_S32K1xx.5CApplications.5CS32K144_Start_new.5CAppl.5Cobj.5CBswM_Lcfg.
0000030c 00000024   8433 	.data.w	__ghs_eofn_BswM_Rule_CC_CN_CAN00_5e566ad9_RX_DM-BswM_Rule_CC_CN_CAN00_5e566ad9_RX_DM..C.3A.5CVector.5CCBD1800257_D01_S32K1xx.5CApplications.5CS32K144_Start_new.5CAppl.5Cobj.5CBswM_Lcfg.

                                                                      Page 179
                                                              C:\Users\Fengyuan\AppData\Local\Temp\gh_0000p9o1.s
00000310 01         8434 	.data.b	1
00000311 00000000*  8435 	.data.w	.LDW36
00000315 00         8436 	.data.b	0
00000316 00         8437 	.data.b	0
00000317 00         8438 	.data.b	0
                    8439 .LDW_unq_38:
                    8440 	.section	.debug_line
00001554 020500     8441 	.data.b	0,5,2
00001557 00000000*  8442 	.data.w	BswM_Rule_CC_CN_CAN00_5e566ad9_RX_DM..C.3A.5CVector.5CCBD1800257_D01_S32K1xx.5CApplications.5CS32K144_Start_new.5CAppl.5Cobj.5CBswM_Lcfg.
0000155b 06         8443 	.data.b	6
0000155c 03         8444 	.data.b	3
0000155d 09dd       8445 	.data.b	221,9
0000155f 02         8446 	.data.b	2
00001560 00         8447 	.data.b	0
00001561 01         8448 	.data.b	1
00001562 14         8449 	.data.b	20
00001563 06         8450 	.data.b	6
00001564 03         8451 	.data.b	3
00001565 0b         8452 	.data.b	11
00001566 02         8453 	.data.b	2
00001567 02         8454 	.data.b	2
00001568 01         8455 	.data.b	1
00001569 03         8456 	.data.b	3
0000156a 77         8457 	.data.b	119
0000156b 02         8458 	.data.b	2
0000156c 00         8459 	.data.b	0
0000156d 01         8460 	.data.b	1
0000156e 03         8461 	.data.b	3
0000156f 7e         8462 	.data.b	126
00001570 02         8463 	.data.b	2
00001571 00         8464 	.data.b	0
00001572 01         8465 	.data.b	1
00001573 06         8466 	.data.b	6
00001574 020500     8467 	.data.b	0,5,2
00001577 00000000*  8468 	.data.w	.LDWlin13
0000157b 0d         8469 	.data.b	13
0000157c 0b         8470 	.data.b	11
0000157d 1c         8471 	.data.b	28
0000157e 020500     8472 	.data.b	0,5,2
00001581 00000000*  8473 	.data.w	.LDWlin14
00001585 03         8474 	.data.b	3
00001586 06         8475 	.data.b	6
00001587 02         8476 	.data.b	2
00001588 00         8477 	.data.b	0
00001589 01         8478 	.data.b	1
0000158a 0b         8479 	.data.b	11
0000158b 1c         8480 	.data.b	28
0000158c 13         8481 	.data.b	19
0000158d 02         8482 	.data.b	2
0000158e 00         8483 	.data.b	0
0000158f 0b         8484 	.data.b	11
00001590 02         8485 	.data.b	2
00001591 00         8486 	.data.b	0
00001592 0b         8487 	.data.b	11
00001593 02         8488 	.data.b	2
00001594 02         8489 	.data.b	2
00001595 010100     8490 	.data.b	0,1,1
                    8491 	.section	.debug_info
                    8492 .LDW_4a8bdb0:
00002f21 1f         8493 	.data.b	31
00002f22 00000000*  8494 	.data.w	.LDW26

                                                                      Page 180
                                                              C:\Users\Fengyuan\AppData\Local\Temp\gh_0000p9o1.s
00002f26 00000000*  8495 	.data.w	.LDW36
                    8496 
                    8497 .LDW_5c63d20:
00002f2a 06         8498 	.data.b	6
00002f2b 56746572   8499 	.data.b	114,101,116,86,97,108,0
00002f2f 006c61 
00002f32 09de       8500 	.data.b	222,9
00002f34 13         8501 	.data.b	19
00002f35 01         8502 	.data.b	1
00002f36 00000000*  8503 	.data.w	.LDW_5d40580
00002f3a 00         8504 	.data.b	0
00002f3b 00         8505 	.data.b	0
00002f3c 5001       8506 	.data.b	1,80
                    8507 
00002f3e 00         8508 	.data.b	0
                    8509 
00002f3f 00         8510 	.data.b	0
                    8511 
                    8512 .LDW_5e1e228:
00002f40 16         8513 	.data.b	22
00002f41 4d777342   8514 	.data.b	66,115,119,77,95,82,117,108,101,95,69,83,72,95,82,117,110,84,111,80,111,115,116,82,117,110,0
00002f45 6c75525f 
00002f49 53455f65 
00002f4d 75525f48 
00002f51 506f546e 
00002f55 5274736f 
00002f59 006e75 
00002f5c 09f8       8515 	.data.b	248,9
00002f5e 2d         8516 	.data.b	45
00002f5f 01         8517 	.data.b	1
00002f60 00000000*  8518 	.data.w	.LDW_5d40580
00002f64 00000000*  8519 	.data.w	BswM_Rule_ESH_RunToPostRun..C.3A.5CVector.5CCBD1800257_D01_S32K1xx.5CApplications.5CS32K144_Start_new.5CAppl.5Cobj.5CBswM_Lcfg.
00002f68 00000000*  8520 	.data.w	__ghs_eofn_BswM_Rule_ESH_RunToPostRun
00002f6c 5d01       8521 	.data.b	1,93
00002f6e 00         8522 	.data.b	0
00002f6f 04         8523 	.data.b	4
00002f70 00         8524 	.data.b	0
00002f71 7c         8525 	.data.b	124
00002f72 01         8526 	.data.b	1
00002f73 00         8527 	.data.b	0
00002f74 00         8528 	.data.b	0
00002f75 00         8529 	.data.b	0
00002f76 01         8530 	.data.b	1
00002f77 00         8531 	.data.b	0
00002f78 01         8532 	.data.b	1
                    8533 
                    8534 	.section	.debug_frame
                    8535 .LDW_5f6bae8:
00000318 00000000*  8536 	.data.w	.LDW_unq_3a-.LDW_unq_39
                    8537 .LDW_unq_39:
0000031c 00000000*  8538 	.data.w	.LDW_65bf828
00000320 00000000*  8539 	.data.w	BswM_Rule_ESH_RunToPostRun..C.3A.5CVector.5CCBD1800257_D01_S32K1xx.5CApplications.5CS32K144_Start_new.5CAppl.5Cobj.5CBswM_Lcfg.
00000324 0000002c   8540 	.data.w	__ghs_eofn_BswM_Rule_ESH_RunToPostRun-BswM_Rule_ESH_RunToPostRun..C.3A.5CVector.5CCBD1800257_D01_S32K1xx.5CApplications.5CS32K144_Start_new.5CAppl.5Cobj.5CBswM_Lcfg.
00000328 01         8541 	.data.b	1
00000329 00000000*  8542 	.data.w	.LDW56
0000032d 00         8543 	.data.b	0
0000032e 00         8544 	.data.b	0
0000032f 00         8545 	.data.b	0
                    8546 .LDW_unq_3a:
                    8547 	.section	.debug_line
00001598 020500     8548 	.data.b	0,5,2

                                                                      Page 181
                                                              C:\Users\Fengyuan\AppData\Local\Temp\gh_0000p9o1.s
0000159b 00000000*  8549 	.data.w	BswM_Rule_ESH_RunToPostRun..C.3A.5CVector.5CCBD1800257_D01_S32K1xx.5CApplications.5CS32K144_Start_new.5CAppl.5Cobj.5CBswM_Lcfg.
0000159f 06         8550 	.data.b	6
000015a0 03         8551 	.data.b	3
000015a1 09f9       8552 	.data.b	249,9
000015a3 02         8553 	.data.b	2
000015a4 00         8554 	.data.b	0
000015a5 01         8555 	.data.b	1
000015a6 14         8556 	.data.b	20
000015a7 020500     8557 	.data.b	0,5,2
000015aa 00000000*  8558 	.data.w	.LDWlin15
000015ae 0b         8559 	.data.b	11
000015af 0c         8560 	.data.b	12
000015b0 13         8561 	.data.b	19
000015b1 02         8562 	.data.b	2
000015b2 00         8563 	.data.b	0
000015b3 0c         8564 	.data.b	12
000015b4 02         8565 	.data.b	2
000015b5 02         8566 	.data.b	2
000015b6 010100     8567 	.data.b	0,1,1
                    8568 	.section	.debug_info
                    8569 .LDW_4a8bb40:
00002f79 1f         8570 	.data.b	31
00002f7a 00000000*  8571 	.data.w	.LDW46
00002f7e 00000000*  8572 	.data.w	.LDW56
                    8573 
                    8574 .LDW_5c63fe0:
00002f82 06         8575 	.data.b	6
00002f83 56746572   8576 	.data.b	114,101,116,86,97,108,0
00002f87 006c61 
00002f8a 09fa       8577 	.data.b	250,9
00002f8c 13         8578 	.data.b	19
00002f8d 01         8579 	.data.b	1
00002f8e 00000000*  8580 	.data.w	.LDW_5d40580
00002f92 00         8581 	.data.b	0
00002f93 00         8582 	.data.b	0
00002f94 5001       8583 	.data.b	1,80
                    8584 
00002f96 00         8585 	.data.b	0
                    8586 
00002f97 00         8587 	.data.b	0
                    8588 
                    8589 .LDW_5e1e2c0:
00002f98 16         8590 	.data.b	22
00002f99 4d777342   8591 	.data.b	66,115,119,77,95,82,117,108,101,95,69,83,72,95,82,117,110,84,111,80,111,115,116,82,117,110,78,101,115,116,101,100,0
00002f9d 6c75525f 
00002fa1 53455f65 
00002fa5 75525f48 
00002fa9 506f546e 
00002fad 5274736f 
00002fb1 654e6e75 
00002fb5 64657473 
00002fb9 00 
00002fba 0a88       8592 	.data.b	136,10
00002fbc 2d         8593 	.data.b	45
00002fbd 01         8594 	.data.b	1
00002fbe 00000000*  8595 	.data.w	.LDW_5d40580
00002fc2 00000000*  8596 	.data.w	BswM_Rule_ESH_RunToPostRunNested..C.3A.5CVector.5CCBD1800257_D01_S32K1xx.5CApplications.5CS32K144_Start_new.5CAppl.5Cobj.5CBswM_Lcfg.
00002fc6 00000000*  8597 	.data.w	__ghs_eofn_BswM_Rule_ESH_RunToPostRunNested
00002fca 5d01       8598 	.data.b	1,93
00002fcc 00         8599 	.data.b	0
00002fcd 04         8600 	.data.b	4

                                                                      Page 182
                                                              C:\Users\Fengyuan\AppData\Local\Temp\gh_0000p9o1.s
00002fce 00         8601 	.data.b	0
00002fcf 7c         8602 	.data.b	124
00002fd0 01         8603 	.data.b	1
00002fd1 00         8604 	.data.b	0
00002fd2 00         8605 	.data.b	0
00002fd3 00         8606 	.data.b	0
00002fd4 01         8607 	.data.b	1
00002fd5 00         8608 	.data.b	0
00002fd6 01         8609 	.data.b	1
                    8610 
                    8611 	.section	.debug_frame
                    8612 .LDW_5f6a4a8:
00000330 00000000*  8613 	.data.w	.LDW_unq_3c-.LDW_unq_3b
                    8614 .LDW_unq_3b:
00000334 00000000*  8615 	.data.w	.LDW_65bf828
00000338 00000000*  8616 	.data.w	BswM_Rule_ESH_RunToPostRunNested..C.3A.5CVector.5CCBD1800257_D01_S32K1xx.5CApplications.5CS32K144_Start_new.5CAppl.5Cobj.5CBswM_Lcfg.
0000033c 0000000e   8617 	.data.w	__ghs_eofn_BswM_Rule_ESH_RunToPostRunNested-BswM_Rule_ESH_RunToPostRunNested..C.3A.5CVector.5CCBD1800257_D01_S32K1xx.5CApplications.5CS32K144_Start_new.5CAppl.5Cobj.5CBswM_Lcfg.
00000340 01         8618 	.data.b	1
00000341 00000000*  8619 	.data.w	.LDW76
00000345 00         8620 	.data.b	0
00000346 00         8621 	.data.b	0
00000347 00         8622 	.data.b	0
                    8623 .LDW_unq_3c:
                    8624 	.section	.debug_line
000015b9 020500     8625 	.data.b	0,5,2
000015bc 00000000*  8626 	.data.w	BswM_Rule_ESH_RunToPostRunNested..C.3A.5CVector.5CCBD1800257_D01_S32K1xx.5CApplications.5CS32K144_Start_new.5CAppl.5Cobj.5CBswM_Lcfg.
000015c0 06         8627 	.data.b	6
000015c1 03         8628 	.data.b	3
000015c2 0a8b       8629 	.data.b	139,10
000015c4 02         8630 	.data.b	2
000015c5 00         8631 	.data.b	0
000015c6 01         8632 	.data.b	1
000015c7 23         8633 	.data.b	35
000015c8 0c         8634 	.data.b	12
000015c9 23         8635 	.data.b	35
000015ca 02         8636 	.data.b	2
000015cb 00         8637 	.data.b	0
000015cc 0c         8638 	.data.b	12
000015cd 02         8639 	.data.b	2
000015ce 02         8640 	.data.b	2
000015cf 010100     8641 	.data.b	0,1,1
                    8642 	.section	.debug_info
                    8643 .LDW_4a8ba20:
00002fd7 1f         8644 	.data.b	31
00002fd8 00000000*  8645 	.data.w	.LDW66
00002fdc 00000000*  8646 	.data.w	.LDW76
                    8647 
                    8648 .LDW_5c63d78:
00002fe0 06         8649 	.data.b	6
00002fe1 56746572   8650 	.data.b	114,101,116,86,97,108,0
00002fe5 006c61 
00002fe8 0a8a       8651 	.data.b	138,10
00002fea 13         8652 	.data.b	19
00002feb 01         8653 	.data.b	1
00002fec 00000000*  8654 	.data.w	.LDW_5d40580
00002ff0 00         8655 	.data.b	0
00002ff1 00         8656 	.data.b	0
00002ff2 5001       8657 	.data.b	1,80
                    8658 
00002ff4 00         8659 	.data.b	0
                    8660 

                                                                      Page 183
                                                              C:\Users\Fengyuan\AppData\Local\Temp\gh_0000p9o1.s
00002ff5 00         8661 	.data.b	0
                    8662 
                    8663 .LDW_5e1e520:
00002ff6 16         8664 	.data.b	22
00002ff7 4d777342   8665 	.data.b	66,115,119,77,95,82,117,108,101,95,69,83,72,95,87,97,105,116,84,111,83,104,117,116,100,111,119,110,0
00002ffb 6c75525f 
00002fff 53455f65 
00003003 61575f48 
00003007 6f547469 
0000300b 74756853 
0000300f 6e776f64 
00003013 00 
00003014 0a98       8666 	.data.b	152,10
00003016 2d         8667 	.data.b	45
00003017 01         8668 	.data.b	1
00003018 00000000*  8669 	.data.w	.LDW_5d40580
0000301c 00000000*  8670 	.data.w	BswM_Rule_ESH_WaitToShutdown..C.3A.5CVector.5CCBD1800257_D01_S32K1xx.5CApplications.5CS32K144_Start_new.5CAppl.5Cobj.5CBswM_Lcfg.
00003020 00000000*  8671 	.data.w	__ghs_eofn_BswM_Rule_ESH_WaitToShutdown
00003024 5d01       8672 	.data.b	1,93
00003026 0180b0     8673 	.data.b	176,128,1
00003029 78         8674 	.data.b	120
0000302a 00         8675 	.data.b	0
0000302b 08         8676 	.data.b	8
0000302c 01         8677 	.data.b	1
0000302d 00         8678 	.data.b	0
0000302e 00         8679 	.data.b	0
0000302f 00         8680 	.data.b	0
00003030 01         8681 	.data.b	1
00003031 00         8682 	.data.b	0
00003032 01         8683 	.data.b	1
                    8684 
                    8685 	.section	.debug_frame
                    8686 .LDW_5f6a3a8:
00000348 00000000*  8687 	.data.w	.LDW_unq_3e-.LDW_unq_3d
                    8688 .LDW_unq_3d:
0000034c 00000000*  8689 	.data.w	.LDW_65bf828
00000350 00000000*  8690 	.data.w	BswM_Rule_ESH_WaitToShutdown..C.3A.5CVector.5CCBD1800257_D01_S32K1xx.5CApplications.5CS32K144_Start_new.5CAppl.5Cobj.5CBswM_Lcfg.
00000354 0000001c   8691 	.data.w	__ghs_eofn_BswM_Rule_ESH_WaitToShutdown-BswM_Rule_ESH_WaitToShutdown..C.3A.5CVector.5CCBD1800257_D01_S32K1xx.5CApplications.5CS32K144_Start_new.5CAppl.5Cobj.5CBswM_Lcfg.
00000358 01         8692 	.data.b	1
00000359 00000000*  8693 	.data.w	.LDW96
0000035d 00         8694 	.data.b	0
0000035e 00         8695 	.data.b	0
0000035f 00         8696 	.data.b	0
                    8697 .LDW_unq_3e:
                    8698 	.section	.debug_line
000015d2 020500     8699 	.data.b	0,5,2
000015d5 00000000*  8700 	.data.w	BswM_Rule_ESH_WaitToShutdown..C.3A.5CVector.5CCBD1800257_D01_S32K1xx.5CApplications.5CS32K144_Start_new.5CAppl.5Cobj.5CBswM_Lcfg.
000015d9 06         8701 	.data.b	6
000015da 03         8702 	.data.b	3
000015db 0a98       8703 	.data.b	152,10
000015dd 02         8704 	.data.b	2
000015de 00         8705 	.data.b	0
000015df 01         8706 	.data.b	1
000015e0 13         8707 	.data.b	19
000015e1 14         8708 	.data.b	20
000015e2 020500     8709 	.data.b	0,5,2
000015e5 00000000*  8710 	.data.w	.LDWlin16
000015e9 0b         8711 	.data.b	11
000015ea 0c         8712 	.data.b	12
000015eb 13         8713 	.data.b	19
000015ec 02         8714 	.data.b	2

                                                                      Page 184
                                                              C:\Users\Fengyuan\AppData\Local\Temp\gh_0000p9o1.s
000015ed 00         8715 	.data.b	0
000015ee 0c         8716 	.data.b	12
000015ef 06         8717 	.data.b	6
000015f0 02         8718 	.data.b	2
000015f1 02         8719 	.data.b	2
000015f2 02         8720 	.data.b	2
000015f3 02         8721 	.data.b	2
000015f4 010100     8722 	.data.b	0,1,1
                    8723 	.section	.debug_info
                    8724 .LDW_4a8bc30:
00003033 1f         8725 	.data.b	31
00003034 00000000*  8726 	.data.w	.LDW86
00003038 00000000*  8727 	.data.w	.LDW96
                    8728 
                    8729 .LDW_5c64038:
0000303c 06         8730 	.data.b	6
0000303d 56746572   8731 	.data.b	114,101,116,86,97,108,0
00003041 006c61 
00003044 0a9a       8732 	.data.b	154,10
00003046 13         8733 	.data.b	19
00003047 01         8734 	.data.b	1
00003048 00000000*  8735 	.data.w	.LDW_5d40580
0000304c 00         8736 	.data.b	0
0000304d 00         8737 	.data.b	0
0000304e 5401       8738 	.data.b	1,84
                    8739 
00003050 00         8740 	.data.b	0
                    8741 
00003051 00         8742 	.data.b	0
                    8743 
                    8744 .LDW_5e1e5b8:
00003052 16         8745 	.data.b	22
00003053 4d777342   8746 	.data.b	66,115,119,77,95,82,117,108,101,95,69,83,72,95,87,97,107,101,117,112,84,111,80,114,101,112,0
00003057 6c75525f 
0000305b 53455f65 
0000305f 61575f48 
00003063 7075656b 
00003067 72506f54 
0000306b 007065 
0000306e 0aa8       8747 	.data.b	168,10
00003070 2d         8748 	.data.b	45
00003071 01         8749 	.data.b	1
00003072 00000000*  8750 	.data.w	.LDW_5d40580
00003076 00000000*  8751 	.data.w	BswM_Rule_ESH_WakeupToPrep..C.3A.5CVector.5CCBD1800257_D01_S32K1xx.5CApplications.5CS32K144_Start_new.5CAppl.5Cobj.5CBswM_Lcfg.
0000307a 00000000*  8752 	.data.w	__ghs_eofn_BswM_Rule_ESH_WakeupToPrep
0000307e 5d01       8753 	.data.b	1,93
00003080 0180b0     8754 	.data.b	176,128,1
00003083 78         8755 	.data.b	120
00003084 00         8756 	.data.b	0
00003085 08         8757 	.data.b	8
00003086 01         8758 	.data.b	1
00003087 00         8759 	.data.b	0
00003088 00         8760 	.data.b	0
00003089 00         8761 	.data.b	0
0000308a 01         8762 	.data.b	1
0000308b 00         8763 	.data.b	0
0000308c 01         8764 	.data.b	1
                    8765 
                    8766 	.section	.debug_frame
                    8767 .LDW_5f6a168:
00000360 00000000*  8768 	.data.w	.LDW_unq_40-.LDW_unq_3f

                                                                      Page 185
                                                              C:\Users\Fengyuan\AppData\Local\Temp\gh_0000p9o1.s
                    8769 .LDW_unq_3f:
00000364 00000000*  8770 	.data.w	.LDW_65bf828
00000368 00000000*  8771 	.data.w	BswM_Rule_ESH_WakeupToPrep..C.3A.5CVector.5CCBD1800257_D01_S32K1xx.5CApplications.5CS32K144_Start_new.5CAppl.5Cobj.5CBswM_Lcfg.
0000036c 0000002a   8772 	.data.w	__ghs_eofn_BswM_Rule_ESH_WakeupToPrep-BswM_Rule_ESH_WakeupToPrep..C.3A.5CVector.5CCBD1800257_D01_S32K1xx.5CApplications.5CS32K144_Start_new.5CAppl.5Cobj.5CBswM_Lcfg.
00000370 01         8773 	.data.b	1
00000371 00000000*  8774 	.data.w	.LDW17
00000375 00         8775 	.data.b	0
00000376 00         8776 	.data.b	0
00000377 00         8777 	.data.b	0
                    8778 .LDW_unq_40:
                    8779 	.section	.debug_line
000015f7 020500     8780 	.data.b	0,5,2
000015fa 00000000*  8781 	.data.w	BswM_Rule_ESH_WakeupToPrep..C.3A.5CVector.5CCBD1800257_D01_S32K1xx.5CApplications.5CS32K144_Start_new.5CAppl.5Cobj.5CBswM_Lcfg.
000015fe 06         8782 	.data.b	6
000015ff 03         8783 	.data.b	3
00001600 0aa8       8784 	.data.b	168,10
00001602 02         8785 	.data.b	2
00001603 00         8786 	.data.b	0
00001604 01         8787 	.data.b	1
00001605 13         8788 	.data.b	19
00001606 14         8789 	.data.b	20
00001607 020500     8790 	.data.b	0,5,2
0000160a 00000000*  8791 	.data.w	.LDWlin17
0000160e 0b         8792 	.data.b	11
0000160f 0c         8793 	.data.b	12
00001610 13         8794 	.data.b	19
00001611 02         8795 	.data.b	2
00001612 00         8796 	.data.b	0
00001613 0c         8797 	.data.b	12
00001614 06         8798 	.data.b	6
00001615 02         8799 	.data.b	2
00001616 02         8800 	.data.b	2
00001617 02         8801 	.data.b	2
00001618 02         8802 	.data.b	2
00001619 010100     8803 	.data.b	0,1,1
                    8804 	.section	.debug_info
                    8805 .LDW_4a8ba80:
0000308d 1f         8806 	.data.b	31
0000308e 00000000*  8807 	.data.w	.LDW07
00003092 00000000*  8808 	.data.w	.LDW17
                    8809 
                    8810 .LDW_5c64198:
00003096 06         8811 	.data.b	6
00003097 56746572   8812 	.data.b	114,101,116,86,97,108,0
0000309b 006c61 
0000309e 0aaa       8813 	.data.b	170,10
000030a0 13         8814 	.data.b	19
000030a1 01         8815 	.data.b	1
000030a2 00000000*  8816 	.data.w	.LDW_5d40580
000030a6 00         8817 	.data.b	0
000030a7 00         8818 	.data.b	0
000030a8 5401       8819 	.data.b	1,84
                    8820 
000030aa 00         8821 	.data.b	0
                    8822 
000030ab 00         8823 	.data.b	0
                    8824 
                    8825 .LDW_5e1d940:
000030ac 16         8826 	.data.b	22
000030ad 4d777342   8827 	.data.b	66,115,119,77,95,82,117,108,101,95,69,83,72,95,87,97,105,116,84,111,87,97,107,101,117,112,0
000030b1 6c75525f 

                                                                      Page 186
                                                              C:\Users\Fengyuan\AppData\Local\Temp\gh_0000p9o1.s
000030b5 53455f65 
000030b9 61575f48 
000030bd 6f547469 
000030c1 656b6157 
000030c5 007075 
000030c8 0ab8       8828 	.data.b	184,10
000030ca 2d         8829 	.data.b	45
000030cb 01         8830 	.data.b	1
000030cc 00000000*  8831 	.data.w	.LDW_5d40580
000030d0 00000000*  8832 	.data.w	BswM_Rule_ESH_WaitToWakeup..C.3A.5CVector.5CCBD1800257_D01_S32K1xx.5CApplications.5CS32K144_Start_new.5CAppl.5Cobj.5CBswM_Lcfg.
000030d4 00000000*  8833 	.data.w	__ghs_eofn_BswM_Rule_ESH_WaitToWakeup
000030d8 5d01       8834 	.data.b	1,93
000030da 0180b0     8835 	.data.b	176,128,1
000030dd 78         8836 	.data.b	120
000030de 00         8837 	.data.b	0
000030df 08         8838 	.data.b	8
000030e0 01         8839 	.data.b	1
000030e1 00         8840 	.data.b	0
000030e2 00         8841 	.data.b	0
000030e3 00         8842 	.data.b	0
000030e4 01         8843 	.data.b	1
000030e5 00         8844 	.data.b	0
000030e6 01         8845 	.data.b	1
                    8846 
                    8847 	.section	.debug_frame
                    8848 .LDW_5f6a1e8:
00000378 00000000*  8849 	.data.w	.LDW_unq_42-.LDW_unq_41
                    8850 .LDW_unq_41:
0000037c 00000000*  8851 	.data.w	.LDW_65bf828
00000380 00000000*  8852 	.data.w	BswM_Rule_ESH_WaitToWakeup..C.3A.5CVector.5CCBD1800257_D01_S32K1xx.5CApplications.5CS32K144_Start_new.5CAppl.5Cobj.5CBswM_Lcfg.
00000384 0000001e   8853 	.data.w	__ghs_eofn_BswM_Rule_ESH_WaitToWakeup-BswM_Rule_ESH_WaitToWakeup..C.3A.5CVector.5CCBD1800257_D01_S32K1xx.5CApplications.5CS32K144_Start_new.5CAppl.5Cobj.5CBswM_Lcfg.
00000388 01         8854 	.data.b	1
00000389 00000000*  8855 	.data.w	.LDW37
0000038d 00         8856 	.data.b	0
0000038e 00         8857 	.data.b	0
0000038f 00         8858 	.data.b	0
                    8859 .LDW_unq_42:
                    8860 	.section	.debug_line
0000161c 020500     8861 	.data.b	0,5,2
0000161f 00000000*  8862 	.data.w	BswM_Rule_ESH_WaitToWakeup..C.3A.5CVector.5CCBD1800257_D01_S32K1xx.5CApplications.5CS32K144_Start_new.5CAppl.5Cobj.5CBswM_Lcfg.
00001623 06         8863 	.data.b	6
00001624 03         8864 	.data.b	3
00001625 0ab8       8865 	.data.b	184,10
00001627 02         8866 	.data.b	2
00001628 00         8867 	.data.b	0
00001629 01         8868 	.data.b	1
0000162a 13         8869 	.data.b	19
0000162b 14         8870 	.data.b	20
0000162c 020500     8871 	.data.b	0,5,2
0000162f 00000000*  8872 	.data.w	.LDWlin18
00001633 0b         8873 	.data.b	11
00001634 0c         8874 	.data.b	12
00001635 13         8875 	.data.b	19
00001636 02         8876 	.data.b	2
00001637 00         8877 	.data.b	0
00001638 0c         8878 	.data.b	12
00001639 06         8879 	.data.b	6
0000163a 02         8880 	.data.b	2
0000163b 02         8881 	.data.b	2
0000163c 02         8882 	.data.b	2
0000163d 02         8883 	.data.b	2

                                                                      Page 187
                                                              C:\Users\Fengyuan\AppData\Local\Temp\gh_0000p9o1.s
0000163e 010100     8884 	.data.b	0,1,1
                    8885 	.section	.debug_info
                    8886 .LDW_4a8bab0:
000030e7 1f         8887 	.data.b	31
000030e8 00000000*  8888 	.data.w	.LDW27
000030ec 00000000*  8889 	.data.w	.LDW37
                    8890 
                    8891 .LDW_5c63e28:
000030f0 06         8892 	.data.b	6
000030f1 56746572   8893 	.data.b	114,101,116,86,97,108,0
000030f5 006c61 
000030f8 0aba       8894 	.data.b	186,10
000030fa 13         8895 	.data.b	19
000030fb 01         8896 	.data.b	1
000030fc 00000000*  8897 	.data.w	.LDW_5d40580
00003100 00         8898 	.data.b	0
00003101 00         8899 	.data.b	0
00003102 5401       8900 	.data.b	1,84
                    8901 
00003104 00         8902 	.data.b	0
                    8903 
00003105 00         8904 	.data.b	0
                    8905 
                    8906 .LDW_5e1df30:
00003106 16         8907 	.data.b	22
00003107 4d777342   8908 	.data.b	66,115,119,77,95,82,117,108,101,95,69,83,72,95,87,97,107,101,117,112,84,111,82,117,110,0
0000310b 6c75525f 
0000310f 53455f65 
00003113 61575f48 
00003117 7075656b 
0000311b 75526f54 
0000311f 006e 
00003121 0ac8       8909 	.data.b	200,10
00003123 2d         8910 	.data.b	45
00003124 01         8911 	.data.b	1
00003125 00000000*  8912 	.data.w	.LDW_5d40580
00003129 00000000*  8913 	.data.w	BswM_Rule_ESH_WakeupToRun..C.3A.5CVector.5CCBD1800257_D01_S32K1xx.5CApplications.5CS32K144_Start_new.5CAppl.5Cobj.5CBswM_Lcfg.
0000312d 00000000*  8914 	.data.w	__ghs_eofn_BswM_Rule_ESH_WakeupToRun
00003131 5d01       8915 	.data.b	1,93
00003133 0180b0     8916 	.data.b	176,128,1
00003136 78         8917 	.data.b	120
00003137 00         8918 	.data.b	0
00003138 08         8919 	.data.b	8
00003139 01         8920 	.data.b	1
0000313a 00         8921 	.data.b	0
0000313b 00         8922 	.data.b	0
0000313c 00         8923 	.data.b	0
0000313d 01         8924 	.data.b	1
0000313e 00         8925 	.data.b	0
0000313f 01         8926 	.data.b	1
                    8927 
                    8928 	.section	.debug_frame
                    8929 .LDW_5f6a328:
00000390 00000000*  8930 	.data.w	.LDW_unq_44-.LDW_unq_43
                    8931 .LDW_unq_43:
00000394 00000000*  8932 	.data.w	.LDW_65bf828
00000398 00000000*  8933 	.data.w	BswM_Rule_ESH_WakeupToRun..C.3A.5CVector.5CCBD1800257_D01_S32K1xx.5CApplications.5CS32K144_Start_new.5CAppl.5Cobj.5CBswM_Lcfg.
0000039c 00000026   8934 	.data.w	__ghs_eofn_BswM_Rule_ESH_WakeupToRun-BswM_Rule_ESH_WakeupToRun..C.3A.5CVector.5CCBD1800257_D01_S32K1xx.5CApplications.5CS32K144_Start_new.5CAppl.5Cobj.5CBswM_Lcfg.
000003a0 01         8935 	.data.b	1
000003a1 00000000*  8936 	.data.w	.LDW57
000003a5 00         8937 	.data.b	0

                                                                      Page 188
                                                              C:\Users\Fengyuan\AppData\Local\Temp\gh_0000p9o1.s
000003a6 00         8938 	.data.b	0
000003a7 00         8939 	.data.b	0
                    8940 .LDW_unq_44:
                    8941 	.section	.debug_line
00001641 020500     8942 	.data.b	0,5,2
00001644 00000000*  8943 	.data.w	BswM_Rule_ESH_WakeupToRun..C.3A.5CVector.5CCBD1800257_D01_S32K1xx.5CApplications.5CS32K144_Start_new.5CAppl.5Cobj.5CBswM_Lcfg.
00001648 06         8944 	.data.b	6
00001649 03         8945 	.data.b	3
0000164a 0ac8       8946 	.data.b	200,10
0000164c 02         8947 	.data.b	2
0000164d 00         8948 	.data.b	0
0000164e 01         8949 	.data.b	1
0000164f 13         8950 	.data.b	19
00001650 14         8951 	.data.b	20
00001651 020500     8952 	.data.b	0,5,2
00001654 00000000*  8953 	.data.w	.LDWlin19
00001658 0b         8954 	.data.b	11
00001659 0c         8955 	.data.b	12
0000165a 13         8956 	.data.b	19
0000165b 02         8957 	.data.b	2
0000165c 00         8958 	.data.b	0
0000165d 0c         8959 	.data.b	12
0000165e 06         8960 	.data.b	6
0000165f 02         8961 	.data.b	2
00001660 02         8962 	.data.b	2
00001661 02         8963 	.data.b	2
00001662 02         8964 	.data.b	2
00001663 010100     8965 	.data.b	0,1,1
                    8966 	.section	.debug_info
                    8967 .LDW_4a8b810:
00003140 1f         8968 	.data.b	31
00003141 00000000*  8969 	.data.w	.LDW47
00003145 00000000*  8970 	.data.w	.LDW57
                    8971 
                    8972 .LDW_5c63e80:
00003149 06         8973 	.data.b	6
0000314a 56746572   8974 	.data.b	114,101,116,86,97,108,0
0000314e 006c61 
00003151 0aca       8975 	.data.b	202,10
00003153 13         8976 	.data.b	19
00003154 01         8977 	.data.b	1
00003155 00000000*  8978 	.data.w	.LDW_5d40580
00003159 00         8979 	.data.b	0
0000315a 00         8980 	.data.b	0
0000315b 5401       8981 	.data.b	1,84
                    8982 
0000315d 00         8983 	.data.b	0
                    8984 
0000315e 00         8985 	.data.b	0
                    8986 
                    8987 .LDW_5e1dfc8:
0000315f 16         8988 	.data.b	22
00003160 4d777342   8989 	.data.b	66,115,119,77,95,82,117,108,101,95,69,83,72,95,68,101,109,73,110,105,116,0
00003164 6c75525f 
00003168 53455f65 
0000316c 65445f48 
00003170 696e496d 
00003174 0074 
00003176 0ad8       8990 	.data.b	216,10
00003178 2d         8991 	.data.b	45
00003179 01         8992 	.data.b	1

                                                                      Page 189
                                                              C:\Users\Fengyuan\AppData\Local\Temp\gh_0000p9o1.s
0000317a 00000000*  8993 	.data.w	.LDW_5d40580
0000317e 00000000*  8994 	.data.w	BswM_Rule_ESH_DemInit..C.3A.5CVector.5CCBD1800257_D01_S32K1xx.5CApplications.5CS32K144_Start_new.5CAppl.5Cobj.5CBswM_Lcfg.
00003182 00000000*  8995 	.data.w	__ghs_eofn_BswM_Rule_ESH_DemInit
00003186 5d01       8996 	.data.b	1,93
00003188 00         8997 	.data.b	0
00003189 04         8998 	.data.b	4
0000318a 00         8999 	.data.b	0
0000318b 7c         9000 	.data.b	124
0000318c 01         9001 	.data.b	1
0000318d 00         9002 	.data.b	0
0000318e 00         9003 	.data.b	0
0000318f 00         9004 	.data.b	0
00003190 01         9005 	.data.b	1
00003191 00         9006 	.data.b	0
00003192 01         9007 	.data.b	1
                    9008 
                    9009 	.section	.debug_frame
                    9010 .LDW_5d5e1e0:
000003a8 00000000*  9011 	.data.w	.LDW_unq_46-.LDW_unq_45
                    9012 .LDW_unq_45:
000003ac 00000000*  9013 	.data.w	.LDW_65bf828
000003b0 00000000*  9014 	.data.w	BswM_Rule_ESH_DemInit..C.3A.5CVector.5CCBD1800257_D01_S32K1xx.5CApplications.5CS32K144_Start_new.5CAppl.5Cobj.5CBswM_Lcfg.
000003b4 0000000e   9015 	.data.w	__ghs_eofn_BswM_Rule_ESH_DemInit-BswM_Rule_ESH_DemInit..C.3A.5CVector.5CCBD1800257_D01_S32K1xx.5CApplications.5CS32K144_Start_new.5CAppl.5Cobj.5CBswM_Lcfg.
000003b8 01         9016 	.data.b	1
000003b9 00000000*  9017 	.data.w	.LDW77
000003bd 00         9018 	.data.b	0
000003be 00         9019 	.data.b	0
000003bf 00         9020 	.data.b	0
                    9021 .LDW_unq_46:
                    9022 	.section	.debug_line
00001666 020500     9023 	.data.b	0,5,2
00001669 00000000*  9024 	.data.w	BswM_Rule_ESH_DemInit..C.3A.5CVector.5CCBD1800257_D01_S32K1xx.5CApplications.5CS32K144_Start_new.5CAppl.5Cobj.5CBswM_Lcfg.
0000166d 06         9025 	.data.b	6
0000166e 03         9026 	.data.b	3
0000166f 0adb       9027 	.data.b	219,10
00001671 02         9028 	.data.b	2
00001672 00         9029 	.data.b	0
00001673 01         9030 	.data.b	1
00001674 23         9031 	.data.b	35
00001675 0c         9032 	.data.b	12
00001676 23         9033 	.data.b	35
00001677 02         9034 	.data.b	2
00001678 00         9035 	.data.b	0
00001679 0c         9036 	.data.b	12
0000167a 02         9037 	.data.b	2
0000167b 02         9038 	.data.b	2
0000167c 010100     9039 	.data.b	0,1,1
                    9040 	.section	.debug_info
                    9041 .LDW_4a8ba50:
00003193 1f         9042 	.data.b	31
00003194 00000000*  9043 	.data.w	.LDW67
00003198 00000000*  9044 	.data.w	.LDW77
                    9045 
                    9046 .LDW_5c64248:
0000319c 06         9047 	.data.b	6
0000319d 56746572   9048 	.data.b	114,101,116,86,97,108,0
000031a1 006c61 
000031a4 0ada       9049 	.data.b	218,10
000031a6 13         9050 	.data.b	19
000031a7 01         9051 	.data.b	1
000031a8 00000000*  9052 	.data.w	.LDW_5d40580

                                                                      Page 190
                                                              C:\Users\Fengyuan\AppData\Local\Temp\gh_0000p9o1.s
000031ac 00         9053 	.data.b	0
000031ad 00         9054 	.data.b	0
000031ae 5001       9055 	.data.b	1,80
                    9056 
000031b0 00         9057 	.data.b	0
                    9058 
000031b1 00         9059 	.data.b	0
                    9060 
                    9061 .LDW_5e1d810:
000031b2 16         9062 	.data.b	22
000031b3 4d777342   9063 	.data.b	66,115,119,77,95,82,117,108,101,95,69,83,72,95,73,110,105,116,84,111,87,97,107,101,117,112,0
000031b7 6c75525f 
000031bb 53455f65 
000031bf 6e495f48 
000031c3 6f547469 
000031c7 656b6157 
000031cb 007075 
000031ce 0ae8       9064 	.data.b	232,10
000031d0 2d         9065 	.data.b	45
000031d1 01         9066 	.data.b	1
000031d2 00000000*  9067 	.data.w	.LDW_5d40580
000031d6 00000000*  9068 	.data.w	BswM_Rule_ESH_InitToWakeup..C.3A.5CVector.5CCBD1800257_D01_S32K1xx.5CApplications.5CS32K144_Start_new.5CAppl.5Cobj.5CBswM_Lcfg.
000031da 00000000*  9069 	.data.w	__ghs_eofn_BswM_Rule_ESH_InitToWakeup
000031de 5d01       9070 	.data.b	1,93
000031e0 00         9071 	.data.b	0
000031e1 04         9072 	.data.b	4
000031e2 00         9073 	.data.b	0
000031e3 7c         9074 	.data.b	124
000031e4 01         9075 	.data.b	1
000031e5 00         9076 	.data.b	0
000031e6 00         9077 	.data.b	0
000031e7 00         9078 	.data.b	0
000031e8 01         9079 	.data.b	1
000031e9 00         9080 	.data.b	0
000031ea 01         9081 	.data.b	1
                    9082 
                    9083 	.section	.debug_frame
                    9084 .LDW_5d5e120:
000003c0 00000000*  9085 	.data.w	.LDW_unq_48-.LDW_unq_47
                    9086 .LDW_unq_47:
000003c4 00000000*  9087 	.data.w	.LDW_65bf828
000003c8 00000000*  9088 	.data.w	BswM_Rule_ESH_InitToWakeup..C.3A.5CVector.5CCBD1800257_D01_S32K1xx.5CApplications.5CS32K144_Start_new.5CAppl.5Cobj.5CBswM_Lcfg.
000003cc 0000000e   9089 	.data.w	__ghs_eofn_BswM_Rule_ESH_InitToWakeup-BswM_Rule_ESH_InitToWakeup..C.3A.5CVector.5CCBD1800257_D01_S32K1xx.5CApplications.5CS32K144_Start_new.5CAppl.5Cobj.5CBswM_Lcfg.
000003d0 01         9090 	.data.b	1
000003d1 00000000*  9091 	.data.w	.LDW97
000003d5 00         9092 	.data.b	0
000003d6 00         9093 	.data.b	0
000003d7 00         9094 	.data.b	0
                    9095 .LDW_unq_48:
                    9096 	.section	.debug_line
0000167f 020500     9097 	.data.b	0,5,2
00001682 00000000*  9098 	.data.w	BswM_Rule_ESH_InitToWakeup..C.3A.5CVector.5CCBD1800257_D01_S32K1xx.5CApplications.5CS32K144_Start_new.5CAppl.5Cobj.5CBswM_Lcfg.
00001686 06         9099 	.data.b	6
00001687 03         9100 	.data.b	3
00001688 0aeb       9101 	.data.b	235,10
0000168a 02         9102 	.data.b	2
0000168b 00         9103 	.data.b	0
0000168c 01         9104 	.data.b	1
0000168d 23         9105 	.data.b	35
0000168e 0c         9106 	.data.b	12
0000168f 23         9107 	.data.b	35

                                                                      Page 191
                                                              C:\Users\Fengyuan\AppData\Local\Temp\gh_0000p9o1.s
00001690 02         9108 	.data.b	2
00001691 00         9109 	.data.b	0
00001692 0c         9110 	.data.b	12
00001693 02         9111 	.data.b	2
00001694 02         9112 	.data.b	2
00001695 010100     9113 	.data.b	0,1,1
                    9114 	.section	.debug_info
                    9115 .LDW_4a8bae0:
000031eb 1f         9116 	.data.b	31
000031ec 00000000*  9117 	.data.w	.LDW87
000031f0 00000000*  9118 	.data.w	.LDW97
                    9119 
                    9120 .LDW_5c64140:
000031f4 06         9121 	.data.b	6
000031f5 56746572   9122 	.data.b	114,101,116,86,97,108,0
000031f9 006c61 
000031fc 0aea       9123 	.data.b	234,10
000031fe 13         9124 	.data.b	19
000031ff 01         9125 	.data.b	1
00003200 00000000*  9126 	.data.w	.LDW_5d40580
00003204 00         9127 	.data.b	0
00003205 00         9128 	.data.b	0
00003206 5001       9129 	.data.b	1,80
                    9130 
00003208 00         9131 	.data.b	0
                    9132 
00003209 00         9133 	.data.b	0
                    9134 
                    9135 .LDW_5e1d6e0:
0000320a 16         9136 	.data.b	22
0000320b 4d777342   9137 	.data.b	66,115,119,77,95,82,117,108,101,95,69,83,72,95,80,111,115,116,82,117,110,84,111,80,114,101,112,78,101,115,116,101,100,0
0000320f 6c75525f 
00003213 53455f65 
00003217 6f505f48 
0000321b 75527473 
0000321f 506f546e 
00003223 4e706572 
00003227 65747365 
0000322b 0064 
0000322d 0af8       9138 	.data.b	248,10
0000322f 2d         9139 	.data.b	45
00003230 01         9140 	.data.b	1
00003231 00000000*  9141 	.data.w	.LDW_5d40580
00003235 00000000*  9142 	.data.w	BswM_Rule_ESH_PostRunToPrepNested..C.3A.5CVector.5CCBD1800257_D01_S32K1xx.5CApplications.5CS32K144_Start_new.5CAppl.5Cobj.5CBswM_Lcfg.
00003239 00000000*  9143 	.data.w	__ghs_eofn_BswM_Rule_ESH_PostRunToPrepNested
0000323d 5d01       9144 	.data.b	1,93
0000323f 00         9145 	.data.b	0
00003240 04         9146 	.data.b	4
00003241 00         9147 	.data.b	0
00003242 7c         9148 	.data.b	124
00003243 01         9149 	.data.b	1
00003244 00         9150 	.data.b	0
00003245 00         9151 	.data.b	0
00003246 00         9152 	.data.b	0
00003247 01         9153 	.data.b	1
00003248 00         9154 	.data.b	0
00003249 01         9155 	.data.b	1
                    9156 
                    9157 	.section	.debug_frame
                    9158 .LDW_5d5dfa0:
000003d8 00000000*  9159 	.data.w	.LDW_unq_4a-.LDW_unq_49

                                                                      Page 192
                                                              C:\Users\Fengyuan\AppData\Local\Temp\gh_0000p9o1.s
                    9160 .LDW_unq_49:
000003dc 00000000*  9161 	.data.w	.LDW_65bf828
000003e0 00000000*  9162 	.data.w	BswM_Rule_ESH_PostRunToPrepNested..C.3A.5CVector.5CCBD1800257_D01_S32K1xx.5CApplications.5CS32K144_Start_new.5CAppl.5Cobj.5CBswM_Lcfg.
000003e4 00000010   9163 	.data.w	__ghs_eofn_BswM_Rule_ESH_PostRunToPrepNested-BswM_Rule_ESH_PostRunToPrepNested..C.3A.5CVector.5CCBD1800257_D01_S32K1xx.5CApplications.5CS32K144_Start_new.5CAppl.5Cobj.5CBswM_Lcfg.
000003e8 01         9164 	.data.b	1
000003e9 00000000*  9165 	.data.w	.LDW18
000003ed 00         9166 	.data.b	0
000003ee 00         9167 	.data.b	0
000003ef 00         9168 	.data.b	0
                    9169 .LDW_unq_4a:
                    9170 	.section	.debug_line
00001698 020500     9171 	.data.b	0,5,2
0000169b 00000000*  9172 	.data.w	BswM_Rule_ESH_PostRunToPrepNested..C.3A.5CVector.5CCBD1800257_D01_S32K1xx.5CApplications.5CS32K144_Start_new.5CAppl.5Cobj.5CBswM_Lcfg.
0000169f 06         9173 	.data.b	6
000016a0 03         9174 	.data.b	3
000016a1 0af8       9175 	.data.b	248,10
000016a3 02         9176 	.data.b	2
000016a4 00         9177 	.data.b	0
000016a5 01         9178 	.data.b	1
000016a6 13         9179 	.data.b	19
000016a7 14         9180 	.data.b	20
000016a8 2b         9181 	.data.b	43
000016a9 0c         9182 	.data.b	12
000016aa 13         9183 	.data.b	19
000016ab 02         9184 	.data.b	2
000016ac 00         9185 	.data.b	0
000016ad 0c         9186 	.data.b	12
000016ae 02         9187 	.data.b	2
000016af 02         9188 	.data.b	2
000016b0 010100     9189 	.data.b	0,1,1
                    9190 	.section	.debug_info
                    9191 .LDW_4a8bde0:
0000324a 1f         9192 	.data.b	31
0000324b 00000000*  9193 	.data.w	.LDW08
0000324f 00000000*  9194 	.data.w	.LDW18
                    9195 
                    9196 .LDW_5c642a0:
00003253 06         9197 	.data.b	6
00003254 56746572   9198 	.data.b	114,101,116,86,97,108,0
00003258 006c61 
0000325b 0afa       9199 	.data.b	250,10
0000325d 13         9200 	.data.b	19
0000325e 01         9201 	.data.b	1
0000325f 00000000*  9202 	.data.w	.LDW_5d40580
00003263 00         9203 	.data.b	0
00003264 00         9204 	.data.b	0
00003265 5001       9205 	.data.b	1,80
                    9206 
00003267 00         9207 	.data.b	0
                    9208 
00003268 00         9209 	.data.b	0
                    9210 
                    9211 .LDW_5e1d778:
00003269 16         9212 	.data.b	22
0000326a 4d777342   9213 	.data.b	66,115,119,77,95,82,117,108,101,95,69,83,72,95,80,111,115,116,82,117,110,78,101,115,116,101,100,0
0000326e 6c75525f 
00003272 53455f65 
00003276 6f505f48 
0000327a 75527473 
0000327e 73654e6e 
00003282 00646574 

                                                                      Page 193
                                                              C:\Users\Fengyuan\AppData\Local\Temp\gh_0000p9o1.s
00003286 0b88       9214 	.data.b	136,11
00003288 2d         9215 	.data.b	45
00003289 01         9216 	.data.b	1
0000328a 00000000*  9217 	.data.w	.LDW_5d40580
0000328e 00000000*  9218 	.data.w	BswM_Rule_ESH_PostRunNested..C.3A.5CVector.5CCBD1800257_D01_S32K1xx.5CApplications.5CS32K144_Start_new.5CAppl.5Cobj.5CBswM_Lcfg.
00003292 00000000*  9219 	.data.w	__ghs_eofn_BswM_Rule_ESH_PostRunNested
00003296 5d01       9220 	.data.b	1,93
00003298 018080     9221 	.data.b	128,128,1
0000329b 00         9222 	.data.b	0
0000329c 00         9223 	.data.b	0
0000329d 00         9224 	.data.b	0
0000329e 01         9225 	.data.b	1
0000329f 00         9226 	.data.b	0
000032a0 00         9227 	.data.b	0
000032a1 00         9228 	.data.b	0
000032a2 01         9229 	.data.b	1
000032a3 00         9230 	.data.b	0
000032a4 01         9231 	.data.b	1
                    9232 
                    9233 	.section	.debug_frame
                    9234 .LDW_5d5e0a0:
000003f0 00000000*  9235 	.data.w	.LDW_unq_4c-.LDW_unq_4b
                    9236 .LDW_unq_4b:
000003f4 00000000*  9237 	.data.w	.LDW_65bf828
000003f8 00000000*  9238 	.data.w	BswM_Rule_ESH_PostRunNested..C.3A.5CVector.5CCBD1800257_D01_S32K1xx.5CApplications.5CS32K144_Start_new.5CAppl.5Cobj.5CBswM_Lcfg.
000003fc 00000026   9239 	.data.w	__ghs_eofn_BswM_Rule_ESH_PostRunNested-BswM_Rule_ESH_PostRunNested..C.3A.5CVector.5CCBD1800257_D01_S32K1xx.5CApplications.5CS32K144_Start_new.5CAppl.5Cobj.5CBswM_Lcfg.
00000400 01         9240 	.data.b	1
00000401 00000000*  9241 	.data.w	.LDW38
00000405 00         9242 	.data.b	0
00000406 00         9243 	.data.b	0
00000407 00         9244 	.data.b	0
                    9245 .LDW_unq_4c:
                    9246 	.section	.debug_line
000016b3 020500     9247 	.data.b	0,5,2
000016b6 00000000*  9248 	.data.w	BswM_Rule_ESH_PostRunNested..C.3A.5CVector.5CCBD1800257_D01_S32K1xx.5CApplications.5CS32K144_Start_new.5CAppl.5Cobj.5CBswM_Lcfg.
000016ba 06         9249 	.data.b	6
000016bb 03         9250 	.data.b	3
000016bc 0b88       9251 	.data.b	136,11
000016be 02         9252 	.data.b	2
000016bf 00         9253 	.data.b	0
000016c0 01         9254 	.data.b	1
000016c1 1d         9255 	.data.b	29
000016c2 020500     9256 	.data.b	0,5,2
000016c5 00000000*  9257 	.data.w	.LDWlin20
000016c9 0b         9258 	.data.b	11
000016ca 0c         9259 	.data.b	12
000016cb 020500     9260 	.data.b	0,5,2
000016ce 00000000*  9261 	.data.w	.LDWlin21
000016d2 0b         9262 	.data.b	11
000016d3 0c         9263 	.data.b	12
000016d4 0c         9264 	.data.b	12
000016d5 13         9265 	.data.b	19
000016d6 02         9266 	.data.b	2
000016d7 00         9267 	.data.b	0
000016d8 0b         9268 	.data.b	11
000016d9 02         9269 	.data.b	2
000016da 02         9270 	.data.b	2
000016db 010100     9271 	.data.b	0,1,1
                    9272 	.section	.debug_info
                    9273 .LDW_4a8bb10:
000032a5 1f         9274 	.data.b	31

                                                                      Page 194
                                                              C:\Users\Fengyuan\AppData\Local\Temp\gh_0000p9o1.s
000032a6 00000000*  9275 	.data.w	.LDW28
000032aa 00000000*  9276 	.data.w	.LDW38
                    9277 
                    9278 .LDW_66ed1d8:
000032ae 07         9279 	.data.b	7
000032af 56746572   9280 	.data.b	114,101,116,86,97,108,0
000032b3 006c61 
000032b6 0b8a       9281 	.data.b	138,11
000032b8 13         9282 	.data.b	19
000032b9 01         9283 	.data.b	1
000032ba 00000000*  9284 	.data.w	.LDW_5d40580
000032be 00         9285 	.data.b	0
000032bf 00         9286 	.data.b	0
                    9287 
000032c0 00         9288 	.data.b	0
                    9289 
000032c1 00         9290 	.data.b	0
                    9291 
                    9292 .LDW_5e1d9d8:
000032c2 16         9293 	.data.b	22
000032c3 4d777342   9294 	.data.b	66,115,119,77,95,82,117,108,101,95,69,83,72,95,80,111,115,116,82,117,110,0
000032c7 6c75525f 
000032cb 53455f65 
000032cf 6f505f48 
000032d3 75527473 
000032d7 006e 
000032d9 0b9c       9295 	.data.b	156,11
000032db 2d         9296 	.data.b	45
000032dc 01         9297 	.data.b	1
000032dd 00000000*  9298 	.data.w	.LDW_5d40580
000032e1 00000000*  9299 	.data.w	BswM_Rule_ESH_PostRun..C.3A.5CVector.5CCBD1800257_D01_S32K1xx.5CApplications.5CS32K144_Start_new.5CAppl.5Cobj.5CBswM_Lcfg.
000032e5 00000000*  9300 	.data.w	__ghs_eofn_BswM_Rule_ESH_PostRun
000032e9 5d01       9301 	.data.b	1,93
000032eb 00         9302 	.data.b	0
000032ec 04         9303 	.data.b	4
000032ed 00         9304 	.data.b	0
000032ee 7c         9305 	.data.b	124
000032ef 01         9306 	.data.b	1
000032f0 00         9307 	.data.b	0
000032f1 00         9308 	.data.b	0
000032f2 00         9309 	.data.b	0
000032f3 01         9310 	.data.b	1
000032f4 00         9311 	.data.b	0
000032f5 01         9312 	.data.b	1
                    9313 
                    9314 	.section	.debug_frame
                    9315 .LDW_5d5e3e0:
00000408 00000000*  9316 	.data.w	.LDW_unq_4e-.LDW_unq_4d
                    9317 .LDW_unq_4d:
0000040c 00000000*  9318 	.data.w	.LDW_65bf828
00000410 00000000*  9319 	.data.w	BswM_Rule_ESH_PostRun..C.3A.5CVector.5CCBD1800257_D01_S32K1xx.5CApplications.5CS32K144_Start_new.5CAppl.5Cobj.5CBswM_Lcfg.
00000414 00000014   9320 	.data.w	__ghs_eofn_BswM_Rule_ESH_PostRun-BswM_Rule_ESH_PostRun..C.3A.5CVector.5CCBD1800257_D01_S32K1xx.5CApplications.5CS32K144_Start_new.5CAppl.5Cobj.5CBswM_Lcfg.
00000418 01         9321 	.data.b	1
00000419 00000000*  9322 	.data.w	.LDW58
0000041d 00         9323 	.data.b	0
0000041e 00         9324 	.data.b	0
0000041f 00         9325 	.data.b	0
                    9326 .LDW_unq_4e:
                    9327 	.section	.debug_line
000016de 020500     9328 	.data.b	0,5,2
000016e1 00000000*  9329 	.data.w	BswM_Rule_ESH_PostRun..C.3A.5CVector.5CCBD1800257_D01_S32K1xx.5CApplications.5CS32K144_Start_new.5CAppl.5Cobj.5CBswM_Lcfg.

                                                                      Page 195
                                                              C:\Users\Fengyuan\AppData\Local\Temp\gh_0000p9o1.s
000016e5 06         9330 	.data.b	6
000016e6 03         9331 	.data.b	3
000016e7 0b9d       9332 	.data.b	157,11
000016e9 02         9333 	.data.b	2
000016ea 00         9334 	.data.b	0
000016eb 01         9335 	.data.b	1
000016ec 14         9336 	.data.b	20
000016ed 020500     9337 	.data.b	0,5,2
000016f0 00000000*  9338 	.data.w	.LDWlin22
000016f4 0b         9339 	.data.b	11
000016f5 0c         9340 	.data.b	12
000016f6 13         9341 	.data.b	19
000016f7 02         9342 	.data.b	2
000016f8 00         9343 	.data.b	0
000016f9 0c         9344 	.data.b	12
000016fa 02         9345 	.data.b	2
000016fb 02         9346 	.data.b	2
000016fc 010100     9347 	.data.b	0,1,1
                    9348 	.section	.debug_info
                    9349 .LDW_4a8bb70:
000032f6 1f         9350 	.data.b	31
000032f7 00000000*  9351 	.data.w	.LDW48
000032fb 00000000*  9352 	.data.w	.LDW58
                    9353 
                    9354 .LDW_66ed5a0:
000032ff 06         9355 	.data.b	6
00003300 56746572   9356 	.data.b	114,101,116,86,97,108,0
00003304 006c61 
00003307 0b9e       9357 	.data.b	158,11
00003309 13         9358 	.data.b	19
0000330a 01         9359 	.data.b	1
0000330b 00000000*  9360 	.data.w	.LDW_5d40580
0000330f 00         9361 	.data.b	0
00003310 00         9362 	.data.b	0
00003311 5001       9363 	.data.b	1,80
                    9364 
00003313 00         9365 	.data.b	0
                    9366 
00003314 00         9367 	.data.b	0
                    9368 
                    9369 .LDW_5e1dba0:
00003315 16         9370 	.data.b	22
00003316 4d777342   9371 	.data.b	66,115,119,77,95,82,117,108,101,95,69,83,72,95,80,114,101,112,84,111,87,97,105,116,0
0000331a 6c75525f 
0000331e 53455f65 
00003322 72505f48 
00003326 6f547065 
0000332a 74696157 
0000332e 00 
0000332f 0bac       9372 	.data.b	172,11
00003331 2d         9373 	.data.b	45
00003332 01         9374 	.data.b	1
00003333 00000000*  9375 	.data.w	.LDW_5d40580
00003337 00000000*  9376 	.data.w	BswM_Rule_ESH_PrepToWait..C.3A.5CVector.5CCBD1800257_D01_S32K1xx.5CApplications.5CS32K144_Start_new.5CAppl.5Cobj.5CBswM_Lcfg.
0000333b 00000000*  9377 	.data.w	__ghs_eofn_BswM_Rule_ESH_PrepToWait
0000333f 5d01       9378 	.data.b	1,93
00003341 00         9379 	.data.b	0
00003342 04         9380 	.data.b	4
00003343 00         9381 	.data.b	0
00003344 7c         9382 	.data.b	124
00003345 01         9383 	.data.b	1

                                                                      Page 196
                                                              C:\Users\Fengyuan\AppData\Local\Temp\gh_0000p9o1.s
00003346 00         9384 	.data.b	0
00003347 00         9385 	.data.b	0
00003348 00         9386 	.data.b	0
00003349 01         9387 	.data.b	1
0000334a 00         9388 	.data.b	0
0000334b 01         9389 	.data.b	1
                    9390 
                    9391 	.section	.debug_frame
                    9392 .LDW_5d5e3a0:
00000420 00000000*  9393 	.data.w	.LDW_unq_50-.LDW_unq_4f
                    9394 .LDW_unq_4f:
00000424 00000000*  9395 	.data.w	.LDW_65bf828
00000428 00000000*  9396 	.data.w	BswM_Rule_ESH_PrepToWait..C.3A.5CVector.5CCBD1800257_D01_S32K1xx.5CApplications.5CS32K144_Start_new.5CAppl.5Cobj.5CBswM_Lcfg.
0000042c 00000016   9397 	.data.w	__ghs_eofn_BswM_Rule_ESH_PrepToWait-BswM_Rule_ESH_PrepToWait..C.3A.5CVector.5CCBD1800257_D01_S32K1xx.5CApplications.5CS32K144_Start_new.5CAppl.5Cobj.5CBswM_Lcfg.
00000430 01         9398 	.data.b	1
00000431 00000000*  9399 	.data.w	.LDW78
00000435 00         9400 	.data.b	0
00000436 00         9401 	.data.b	0
00000437 00         9402 	.data.b	0
                    9403 .LDW_unq_50:
                    9404 	.section	.debug_line
000016ff 020500     9405 	.data.b	0,5,2
00001702 00000000*  9406 	.data.w	BswM_Rule_ESH_PrepToWait..C.3A.5CVector.5CCBD1800257_D01_S32K1xx.5CApplications.5CS32K144_Start_new.5CAppl.5Cobj.5CBswM_Lcfg.
00001706 06         9407 	.data.b	6
00001707 03         9408 	.data.b	3
00001708 0bad       9409 	.data.b	173,11
0000170a 02         9410 	.data.b	2
0000170b 00         9411 	.data.b	0
0000170c 01         9412 	.data.b	1
0000170d 14         9413 	.data.b	20
0000170e 020500     9414 	.data.b	0,5,2
00001711 00000000*  9415 	.data.w	.LDWlin23
00001715 0b         9416 	.data.b	11
00001716 0c         9417 	.data.b	12
00001717 13         9418 	.data.b	19
00001718 02         9419 	.data.b	2
00001719 00         9420 	.data.b	0
0000171a 0c         9421 	.data.b	12
0000171b 02         9422 	.data.b	2
0000171c 02         9423 	.data.b	2
0000171d 010100     9424 	.data.b	0,1,1
                    9425 	.section	.debug_info
                    9426 .LDW_4a8bba0:
0000334c 1f         9427 	.data.b	31
0000334d 00000000*  9428 	.data.w	.LDW68
00003351 00000000*  9429 	.data.w	.LDW78
                    9430 
                    9431 .LDW_66ed758:
00003355 06         9432 	.data.b	6
00003356 56746572   9433 	.data.b	114,101,116,86,97,108,0
0000335a 006c61 
0000335d 0bae       9434 	.data.b	174,11
0000335f 13         9435 	.data.b	19
00003360 01         9436 	.data.b	1
00003361 00000000*  9437 	.data.w	.LDW_5d40580
00003365 00         9438 	.data.b	0
00003366 00         9439 	.data.b	0
00003367 5001       9440 	.data.b	1,80
                    9441 
00003369 00         9442 	.data.b	0
                    9443 

                                                                      Page 197
                                                              C:\Users\Fengyuan\AppData\Local\Temp\gh_0000p9o1.s
0000336a 00         9444 	.data.b	0
                    9445 
0000336b 00         9446 	.data.b	0
                    9447 
                    9448 	.section	.debug_line
                    9449 .Ldw_line_end:
                    9450 	.section	.debug_macinfo
00000000 03         9451 	.data.b	3
00000001 00         9452 	.data.b	0
00000002 01         9453 	.data.b	1
00000003 03         9454 	.data.b	3
00000004 26         9455 	.data.b	38
00000005 02         9456 	.data.b	2
00000006 03         9457 	.data.b	3
00000007 79         9458 	.data.b	121
00000008 03         9459 	.data.b	3
00000009 03         9460 	.data.b	3
0000000a 27         9461 	.data.b	39
0000000b 04         9462 	.data.b	4
0000000c 03         9463 	.data.b	3
0000000d 3f         9464 	.data.b	63
0000000e 05         9465 	.data.b	5
0000000f 01         9466 	.data.b	1
00000010 5a         9467 	.data.b	90
00000011 5f555043   9468 	.data.b	67,80,85,95,84,89,80,69,95,56,32,56,117,0
00000015 45505954 
00000019 3820385f 
0000001d 0075 
0000001f 01         9469 	.data.b	1
00000020 5b         9470 	.data.b	91
00000021 5f555043   9471 	.data.b	67,80,85,95,84,89,80,69,95,49,54,32,49,54,117,0
00000025 45505954 
00000029 2036315f 
0000002d 00753631 
00000031 01         9472 	.data.b	1
00000032 5c         9473 	.data.b	92
00000033 5f555043   9474 	.data.b	67,80,85,95,84,89,80,69,95,51,50,32,51,50,117,0
00000037 45505954 
0000003b 2032335f 
0000003f 00753233 
00000043 01         9475 	.data.b	1
00000044 5e         9476 	.data.b	94
00000045 5f42534d   9477 	.data.b	77,83,66,95,70,73,82,83,84,32,48,117,0
00000049 53524946 
0000004d 75302054 
00000051 00 
00000052 01         9478 	.data.b	1
00000053 5f         9479 	.data.b	95
00000054 5f42534c   9480 	.data.b	76,83,66,95,70,73,82,83,84,32,49,117,0
00000058 53524946 
0000005c 75312054 
00000060 00 
00000061 01         9481 	.data.b	1
00000062 61         9482 	.data.b	97
00000063 48474948   9483 	.data.b	72,73,71,72,95,66,89,84,69,95,70,73,82,83,84,32,48,117,0
00000067 5459425f 
0000006b 49465f45 
0000006f 20545352 
00000073 007530 
00000076 01         9484 	.data.b	1
00000077 62         9485 	.data.b	98

                                                                      Page 198
                                                              C:\Users\Fengyuan\AppData\Local\Temp\gh_0000p9o1.s
00000078 5f574f4c   9486 	.data.b	76,79,87,95,66,89,84,69,95,70,73,82,83,84,32,49,117,0
0000007c 45545942 
00000080 5249465f 
00000084 31205453 
00000088 0075 
0000008a 01         9487 	.data.b	1
0000008b 65         9488 	.data.b	101
0000008c 45555254   9489 	.data.b	84,82,85,69,32,49,117,0
00000090 00753120 
00000094 01         9490 	.data.b	1
00000095 69         9491 	.data.b	105
00000096 534c4146   9492 	.data.b	70,65,76,83,69,32,48,117,0
0000009a 75302045 
0000009e 00 
0000009f 01         9493 	.data.b	1
000000a0 6c         9494 	.data.b	108
000000a1 5f555043   9495 	.data.b	67,80,85,95,84,89,80,69,32,67,80,85,95,84,89,80,69,95,51,50,0
000000a5 45505954 
000000a9 55504320 
000000ad 5059545f 
000000b1 32335f45 
000000b5 00 
000000b6 01         9496 	.data.b	1
000000b7 6d         9497 	.data.b	109
000000b8 5f555043   9498 	.data.b	67,80,85,95,66,73,84,95,79,82,68,69,82,32,76,83,66,95,70,73,82,83,84,0
000000bc 5f544942 
000000c0 4544524f 
000000c4 534c2052 
000000c8 49465f42 
000000cc 00545352 
000000d0 01         9499 	.data.b	1
000000d1 6e         9500 	.data.b	110
000000d2 5f555043   9501 	.data.b	67,80,85,95,66,89,84,69,95,79,82,68,69,82,32,76,79,87,95,66,89,84,69,95,70,73,82,83,84,0
000000d6 45545942 
000000da 44524f5f 
000000de 4c205245 
000000e2 425f574f 
000000e6 5f455459 
000000ea 53524946 
000000ee 0054 
000000f0 04         9502 	.data.b	4
000000f1 03         9503 	.data.b	3
000000f2 40         9504 	.data.b	64
000000f3 06         9505 	.data.b	6
000000f4 03         9506 	.data.b	3
000000f5 3e         9507 	.data.b	62
000000f6 07         9508 	.data.b	7
000000f7 03         9509 	.data.b	3
000000f8 7f         9510 	.data.b	127
000000f9 08         9511 	.data.b	8
000000fa 04         9512 	.data.b	4
000000fb 03         9513 	.data.b	3
000000fc 01d6       9514 	.data.b	214,1
000000fe 09         9515 	.data.b	9
000000ff 04         9516 	.data.b	4
00000100 03         9517 	.data.b	3
00000101 01d7       9518 	.data.b	215,1
00000103 0a         9519 	.data.b	10
00000104 04         9520 	.data.b	4
00000105 03         9521 	.data.b	3
00000106 06c5       9522 	.data.b	197,6

                                                                      Page 199
                                                              C:\Users\Fengyuan\AppData\Local\Temp\gh_0000p9o1.s
00000108 0b         9523 	.data.b	11
00000109 04         9524 	.data.b	4
0000010a 04         9525 	.data.b	4
0000010b 01         9526 	.data.b	1
0000010c 5b         9527 	.data.b	91
0000010d 4f545541   9528 	.data.b	65,85,84,79,77,65,84,73,67,32,0
00000111 4954414d 
00000115 002043 
00000118 01         9529 	.data.b	1
00000119 5e         9530 	.data.b	94
0000011a 45505954   9531 	.data.b	84,89,80,69,68,69,70,32,0
0000011e 20464544 
00000122 00 
00000123 01         9532 	.data.b	1
00000124 63         9533 	.data.b	99
00000125 4c4c554e   9534 	.data.b	78,85,76,76,95,80,84,82,32,40,40,118,111,105,100,32,42,41,48,41,0
00000129 5254505f 
0000012d 76282820 
00000131 2064696f 
00000135 2930292a 
00000139 00 
0000013a 01         9535 	.data.b	1
0000013b 6f         9536 	.data.b	111
0000013c 41434f4c   9537 	.data.b	76,79,67,65,76,95,73,78,76,73,78,69,32,115,116,97,116,105,99,32,105,110,108,105,110,101,0
00000140 4e495f4c 
00000144 454e494c 
00000148 61747320 
0000014c 20636974 
00000150 696c6e69 
00000154 00656e 
00000157 01         9538 	.data.b	1
00000158 75         9539 	.data.b	117
00000159 434e5546   9540 	.data.b	70,85,78,67,40,114,101,116,116,121,112,101,44,109,101,109,99,108,97,115,115,41,32,114,101,116,116,121,112,101,0
0000015d 74657228 
00000161 65707974 
00000165 6d656d2c 
00000169 73616c63 
0000016d 72202973 
00000171 79747465 
00000175 006570 
00000178 01         9541 	.data.b	1
00000179 7c         9542 	.data.b	124
0000017a 434e5546   9543 	.data.b	70,85,78,67,95,80,50,67,79,78,83,84,40,114,101,116,116,121,112,101,44,112,116,114,99,108,97,115,115,44,109,101,109,99,108,97,115,115,41,32,99,111,110,115,116,32,114,101,116,116,121,112,101,42,0
0000017e 4332505f 
00000182 54534e4f 
00000186 74657228 
0000018a 65707974 
0000018e 7274702c 
00000192 73616c63 
00000196 656d2c73 
0000019a 616c636d 
0000019e 20297373 
000001a2 736e6f63 
000001a6 65722074 
000001aa 70797474 
000001ae 002a65 
000001b1 01         9544 	.data.b	1
000001b2 018a       9545 	.data.b	138,1
000001b4 41563250   9546 	.data.b	80,50,86,65,82,40,112,116,114,116,121,112,101,44,109,101,109,99,108,97,115,115,44,112,116,114,99,108,97,115,115,41,32,112,116,114,116,121,112,101,42,0
000001b8 74702852 
000001bc 70797472 

                                                                      Page 200
                                                              C:\Users\Fengyuan\AppData\Local\Temp\gh_0000p9o1.s
000001c0 656d2c65 
000001c4 616c636d 
000001c8 702c7373 
000001cc 6c637274 
000001d0 29737361 
000001d4 72747020 
000001d8 65707974 
000001dc 002a 
000001de 01         9547 	.data.b	1
000001df 0191       9548 	.data.b	145,1
000001e1 4f433250   9549 	.data.b	80,50,67,79,78,83,84,40,112,116,114,116,121,112,101,44,109,101,109,99,108,97,115,115,44,112,116,114,99,108,97,115,115,41,32,99,111,110,115,116,32,112,116,114,116,121,112,101,42,0
000001e5 2854534e 
000001e9 74727470 
000001ed 2c657079 
000001f1 636d656d 
000001f5 7373616c 
000001f9 7274702c 
000001fd 73616c63 
00000201 63202973 
00000205 74736e6f 
00000209 72747020 
0000020d 65707974 
00000211 002a 
00000213 01         9550 	.data.b	1
00000214 0198       9551 	.data.b	152,1
00000216 534e4f43   9552 	.data.b	67,79,78,83,84,80,50,86,65,82,40,112,116,114,116,121,112,101,44,109,101,109,99,108,97,115,115,44,112,116,114,99,108,97,115,115,41,32,112,116,114,116,121,112,101,42,32,99,111,110,115,116,0
0000021a 56325054 
0000021e 70285241 
00000222 79747274 
00000226 6d2c6570 
0000022a 6c636d65 
0000022e 2c737361 
00000232 63727470 
00000236 7373616c 
0000023a 74702029 
0000023e 70797472 
00000242 63202a65 
00000246 74736e6f 
0000024a 00 
0000024b 01         9553 	.data.b	1
0000024c 019f       9554 	.data.b	159,1
0000024e 534e4f43   9555 	.data.b	67,79,78,83,84,80,50,67,79,78,83,84,40,112,116,114,116,121,112,101,44,109,101,109,99,108,97,115,115,44,112,116,114,99,108,97,115,115,41,32,99,111,110,115,116,32,112,116,114,116,121,112,101,42,32,99,111,110,115,116
00000252 43325054 
00000256 54534e4f 
0000025a 72747028 
0000025e 65707974 
00000262 6d656d2c 
00000266 73616c63 
0000026a 74702c73 
0000026e 616c6372 
00000272 20297373 
00000276 736e6f63 
0000027a 74702074 
0000027e 70797472 
00000282 63202a65 
00000286 74736e6f 
0000028a 00         9556 	.data.b	0
0000028b 01         9557 	.data.b	1
0000028c 01a6       9558 	.data.b	166,1
0000028e 55463250   9559 	.data.b	80,50,70,85,78,67,40,114,101,116,116,121,112,101,44,112,116,114,99,108,97,115,115,44,102,99,116,110,97,109,101,41,32,114,101,116,116,121,112,101,32,40,42,32,102,99,116,110,97,109,101,41,0
00000292 7228434e 

                                                                      Page 201
                                                              C:\Users\Fengyuan\AppData\Local\Temp\gh_0000p9o1.s
00000296 79747465 
0000029a 702c6570 
0000029e 6c637274 
000002a2 2c737361 
000002a6 6e746366 
000002aa 29656d61 
000002ae 74657220 
000002b2 65707974 
000002b6 202a2820 
000002ba 6e746366 
000002be 29656d61 
000002c2 00 
000002c3 01         9560 	.data.b	1
000002c4 01b6       9561 	.data.b	182,1
000002c6 534e4f43   9562 	.data.b	67,79,78,83,84,40,116,121,112,101,44,109,101,109,99,108,97,115,115,41,32,99,111,110,115,116,32,116,121,112,101,0
000002ca 79742854 
000002ce 6d2c6570 
000002d2 6c636d65 
000002d6 29737361 
000002da 6e6f6320 
000002de 74207473 
000002e2 00657079 
000002e6 01         9563 	.data.b	1
000002e7 01bc       9564 	.data.b	188,1
000002e9 28524156   9565 	.data.b	86,65,82,40,118,97,114,116,121,112,101,44,109,101,109,99,108,97,115,115,41,32,118,97,114,116,121,112,101,0
000002ed 74726176 
000002f1 2c657079 
000002f5 636d656d 
000002f9 7373616c 
000002fd 61762029 
00000301 70797472 
00000305 0065 
00000307 04         9566 	.data.b	4
00000308 01         9567 	.data.b	1
00000309 6d         9568 	.data.b	109
0000030a 5f445453   9569 	.data.b	83,84,68,95,79,78,32,49,117,0
0000030e 31204e4f 
00000312 0075 
00000314 01         9570 	.data.b	1
00000315 6e         9571 	.data.b	110
00000316 5f445453   9572 	.data.b	83,84,68,95,79,70,70,32,48,117,0
0000031a 2046464f 
0000031e 007530 
00000321 01         9573 	.data.b	1
00000322 7c         9574 	.data.b	124
00000323 4b4f5f45   9575 	.data.b	69,95,79,75,32,48,117,0
00000327 00753020 
0000032b 01         9576 	.data.b	1
0000032c 0180       9577 	.data.b	128,1
0000032e 4f4e5f45   9578 	.data.b	69,95,78,79,84,95,79,75,32,49,117,0
00000332 4b4f5f54 
00000336 00753120 
0000033a 04         9579 	.data.b	4
0000033b 03         9580 	.data.b	3
0000033c 28         9581 	.data.b	40
0000033d 0c         9582 	.data.b	12
0000033e 03         9583 	.data.b	3
0000033f 4c         9584 	.data.b	76
00000340 0d         9585 	.data.b	13
00000341 04         9586 	.data.b	4
00000342 01         9587 	.data.b	1

                                                                      Page 202
                                                              C:\Users\Fengyuan\AppData\Local\Temp\gh_0000p9o1.s
00000343 5a         9588 	.data.b	90
00000344 534d4f43   9589 	.data.b	67,79,77,83,84,65,67,75,84,89,80,69,95,65,82,95,82,69,76,69,65,83,69,95,82,69,86,73,83,73,79,78,95,86,69,82,83,73,79,78,32,40,51,117,41,0
00000348 4b434154 
0000034c 45505954 
00000350 5f52415f 
00000354 454c4552 
00000358 5f455341 
0000035c 49564552 
00000360 4e4f4953 
00000364 5245565f 
00000368 4e4f4953 
0000036c 75332820 
00000370 0029 
00000372 04         9590 	.data.b	4
00000373 03         9591 	.data.b	3
00000374 29         9592 	.data.b	41
00000375 0e         9593 	.data.b	14
00000376 03         9594 	.data.b	3
00000377 24         9595 	.data.b	36
00000378 0f         9596 	.data.b	15
00000379 03         9597 	.data.b	3
0000037a 74         9598 	.data.b	116
0000037b 10         9599 	.data.b	16
0000037c 03         9600 	.data.b	3
0000037d 28         9601 	.data.b	40
0000037e 11         9602 	.data.b	17
0000037f 03         9603 	.data.b	3
00000380 28         9604 	.data.b	40
00000381 12         9605 	.data.b	18
00000382 03         9606 	.data.b	3
00000383 26         9607 	.data.b	38
00000384 13         9608 	.data.b	19
00000385 03         9609 	.data.b	3
00000386 29         9610 	.data.b	41
00000387 14         9611 	.data.b	20
00000388 03         9612 	.data.b	3
00000389 1f         9613 	.data.b	31
0000038a 15         9614 	.data.b	21
0000038b 03         9615 	.data.b	3
0000038c 1a         9616 	.data.b	26
0000038d 16         9617 	.data.b	22
0000038e 03         9618 	.data.b	3
0000038f 28         9619 	.data.b	40
00000390 17         9620 	.data.b	23
00000391 04         9621 	.data.b	4
00000392 01         9622 	.data.b	1
00000393 37         9623 	.data.b	55
00000394 5f455452   9624 	.data.b	82,84,69,95,69,95,79,75,32,40,48,85,41,0
00000398 4b4f5f45 
0000039c 55302820 
000003a0 0029 
000003a2 04         9625 	.data.b	4
000003a3 03         9626 	.data.b	3
000003a4 01c4       9627 	.data.b	196,1
000003a6 18         9628 	.data.b	24
000003a7 04         9629 	.data.b	4
000003a8 04         9630 	.data.b	4
000003a9 01         9631 	.data.b	1
000003aa 28         9632 	.data.b	40
000003ab 4d4d4f43   9633 	.data.b	67,79,77,77,95,78,79,95,67,79,77,77,85,78,73,67,65,84,73,79,78,32,40,48,85,41,0
000003af 5f4f4e5f 

                                                                      Page 203
                                                              C:\Users\Fengyuan\AppData\Local\Temp\gh_0000p9o1.s
000003b3 4d4d4f43 
000003b7 43494e55 
000003bb 4f495441 
000003bf 3028204e 
000003c3 002955 
000003c6 04         9634 	.data.b	4
000003c7 04         9635 	.data.b	4
000003c8 04         9636 	.data.b	4
000003c9 01         9637 	.data.b	1
000003ca 60         9638 	.data.b	96
000003cb 4d4d4f43   9639 	.data.b	67,79,77,77,95,73,78,73,84,95,80,79,73,78,84,69,82,95,69,78,65,66,76,69,68,32,83,84,68,95,79,70,70,0
000003cf 494e495f 
000003d3 4f505f54 
000003d7 45544e49 
000003db 4e455f52 
000003df 454c4241 
000003e3 54532044 
000003e7 464f5f44 
000003eb 0046 
000003ed 01         9640 	.data.b	1
000003ee 61         9641 	.data.b	97
000003ef 4d4d4f43   9642 	.data.b	67,79,77,77,95,86,69,82,83,73,79,78,95,73,78,70,79,95,65,80,73,32,83,84,68,95,79,70,70,0
000003f3 5245565f 
000003f7 4e4f4953 
000003fb 464e495f 
000003ff 50415f4f 
00000403 54532049 
00000407 464f5f44 
0000040b 0046 
0000040d 01         9643 	.data.b	1
0000040e 68         9644 	.data.b	104
0000040f 4d4d4f43   9645 	.data.b	67,79,77,77,95,80,78,67,95,80,83,95,84,73,77,69,82,32,48,117,0
00000413 434e505f 
00000417 5f53505f 
0000041b 454d4954 
0000041f 75302052 
00000423 00 
00000424 01         9646 	.data.b	1
00000425 6b         9647 	.data.b	107
00000426 4d4d4f43   9648 	.data.b	67,79,77,77,95,80,78,67,95,84,79,95,67,72,65,78,78,69,76,95,82,79,85,84,73,78,71,95,76,73,77,73,84,65,84,73,79,78,95,69,78,65,66,76,69,68,32,83,84,68,95,79,70,70,0
0000042a 434e505f 
0000042e 5f4f545f 
00000432 4e414843 
00000436 5f4c454e 
0000043a 54554f52 
0000043e 5f474e49 
00000442 494d494c 
00000446 49544154 
0000044a 455f4e4f 
0000044e 4c42414e 
00000452 53204445 
00000456 4f5f4454 
0000045a 004646 
0000045d 01         9649 	.data.b	1
0000045e 78         9650 	.data.b	120
0000045f 4d4d4f43   9651 	.data.b	67,79,77,77,95,68,67,77,95,73,78,68,73,67,65,84,73,79,78,32,83,84,68,95,79,78,0
00000463 4d43445f 
00000467 444e495f 
0000046b 54414349 
0000046f 204e4f49 
00000473 5f445453 

                                                                      Page 204
                                                              C:\Users\Fengyuan\AppData\Local\Temp\gh_0000p9o1.s
00000477 004e4f 
0000047a 01         9652 	.data.b	1
0000047b 018d       9653 	.data.b	141,1
0000047d 4d6d6f43   9654 	.data.b	67,111,109,77,67,111,110,102,95,67,111,109,77,67,104,97,110,110,101,108,95,67,78,95,67,65,78,48,48,95,53,101,53,54,54,97,100,57,32,48,117,0
00000481 666e6f43 
00000485 6d6f435f 
00000489 6168434d 
0000048d 6c656e6e 
00000491 5f4e435f 
00000495 304e4143 
00000499 65355f30 
0000049d 61363635 
000004a1 30203964 
000004a5 0075 
000004a7 01         9655 	.data.b	1
000004a8 01a7       9656 	.data.b	167,1
000004aa 4d4d4f43   9657 	.data.b	67,79,77,77,95,77,73,78,70,85,76,76,67,79,77,84,73,77,69,79,70,67,72,65,78,78,69,76,32,83,84,68,95,79,70,70,0
000004ae 4e494d5f 
000004b2 4c4c5546 
000004b6 544d4f43 
000004ba 4f454d49 
000004be 41484346 
000004c2 4c454e4e 
000004c6 44545320 
000004ca 46464f5f 
000004ce 00 
000004cf 01         9658 	.data.b	1
000004d0 01c4       9659 	.data.b	196,1
000004d2 4d4d4f43   9660 	.data.b	67,79,77,77,95,87,65,75,69,85,80,69,78,65,66,76,69,68,79,70,80,78,67,32,83,84,68,95,79,70,70,0
000004d6 4b41575f 
000004da 45505545 
000004de 4c42414e 
000004e2 464f4445 
000004e6 20434e50 
000004ea 5f445453 
000004ee 0046464f 
000004f2 04         9661 	.data.b	4
000004f3 03         9662 	.data.b	3
000004f4 30         9663 	.data.b	48
000004f5 19         9664 	.data.b	25
000004f6 04         9665 	.data.b	4
000004f7 03         9666 	.data.b	3
000004f8 36         9667 	.data.b	54
000004f9 19         9668 	.data.b	25
000004fa 04         9669 	.data.b	4
000004fb 03         9670 	.data.b	3
000004fc 3e         9671 	.data.b	62
000004fd 19         9672 	.data.b	25
000004fe 04         9673 	.data.b	4
000004ff 03         9674 	.data.b	3
00000500 72         9675 	.data.b	114
00000501 19         9676 	.data.b	25
00000502 04         9677 	.data.b	4
00000503 04         9678 	.data.b	4
00000504 03         9679 	.data.b	3
00000505 75         9680 	.data.b	117
00000506 1a         9681 	.data.b	26
00000507 04         9682 	.data.b	4
00000508 03         9683 	.data.b	3
00000509 01ce       9684 	.data.b	206,1
0000050b 19         9685 	.data.b	25

                                                                      Page 205
                                                              C:\Users\Fengyuan\AppData\Local\Temp\gh_0000p9o1.s
0000050c 04         9686 	.data.b	4
0000050d 03         9687 	.data.b	3
0000050e 01d5       9688 	.data.b	213,1
00000510 19         9689 	.data.b	25
00000511 04         9690 	.data.b	4
00000512 03         9691 	.data.b	3
00000513 01dd       9692 	.data.b	221,1
00000515 19         9693 	.data.b	25
00000516 04         9694 	.data.b	4
00000517 03         9695 	.data.b	3
00000518 01ef       9696 	.data.b	239,1
0000051a 19         9697 	.data.b	25
0000051b 04         9698 	.data.b	4
0000051c 03         9699 	.data.b	3
0000051d 01f7       9700 	.data.b	247,1
0000051f 19         9701 	.data.b	25
00000520 04         9702 	.data.b	4
00000521 03         9703 	.data.b	3
00000522 04f4       9704 	.data.b	244,4
00000524 19         9705 	.data.b	25
00000525 04         9706 	.data.b	4
00000526 04         9707 	.data.b	4
00000527 03         9708 	.data.b	3
00000528 26         9709 	.data.b	38
00000529 1b         9710 	.data.b	27
0000052a 03         9711 	.data.b	3
0000052b 40         9712 	.data.b	64
0000052c 19         9713 	.data.b	25
0000052d 04         9714 	.data.b	4
0000052e 03         9715 	.data.b	3
0000052f 75         9716 	.data.b	117
00000530 19         9717 	.data.b	25
00000531 04         9718 	.data.b	4
00000532 04         9719 	.data.b	4
00000533 03         9720 	.data.b	3
00000534 42         9721 	.data.b	66
00000535 19         9722 	.data.b	25
00000536 04         9723 	.data.b	4
00000537 03         9724 	.data.b	3
00000538 75         9725 	.data.b	117
00000539 19         9726 	.data.b	25
0000053a 04         9727 	.data.b	4
0000053b 04         9728 	.data.b	4
0000053c 03         9729 	.data.b	3
0000053d 2a         9730 	.data.b	42
0000053e 1c         9731 	.data.b	28
0000053f 03         9732 	.data.b	3
00000540 24         9733 	.data.b	36
00000541 1d         9734 	.data.b	29
00000542 01         9735 	.data.b	1
00000543 3b         9736 	.data.b	59
00000544 534e4143   9737 	.data.b	67,65,78,83,77,95,66,83,87,77,95,78,79,95,67,79,77,77,85,78,73,67,65,84,73,79,78,32,48,117,0
00000548 53425f4d 
0000054c 4e5f4d57 
00000550 4f435f4f 
00000554 4e554d4d 
00000558 54414349 
0000055c 204e4f49 
00000560 007530 
00000563 01         9738 	.data.b	1
00000564 3d         9739 	.data.b	61

                                                                      Page 206
                                                              C:\Users\Fengyuan\AppData\Local\Temp\gh_0000p9o1.s
00000565 534e4143   9740 	.data.b	67,65,78,83,77,95,66,83,87,77,95,70,85,76,76,95,67,79,77,77,85,78,73,67,65,84,73,79,78,32,50,117,0
00000569 53425f4d 
0000056d 465f4d57 
00000571 5f4c4c55 
00000575 4d4d4f43 
00000579 43494e55 
0000057d 4f495441 
00000581 7532204e 
00000585 00 
00000586 04         9741 	.data.b	4
00000587 03         9742 	.data.b	3
00000588 3f         9743 	.data.b	63
00000589 19         9744 	.data.b	25
0000058a 04         9745 	.data.b	4
0000058b 03         9746 	.data.b	3
0000058c 53         9747 	.data.b	83
0000058d 19         9748 	.data.b	25
0000058e 04         9749 	.data.b	4
0000058f 04         9750 	.data.b	4
00000590 03         9751 	.data.b	3
00000591 2b         9752 	.data.b	43
00000592 1e         9753 	.data.b	30
00000593 03         9754 	.data.b	3
00000594 24         9755 	.data.b	36
00000595 1f         9756 	.data.b	31
00000596 03         9757 	.data.b	3
00000597 0393       9758 	.data.b	147,3
00000599 20         9759 	.data.b	32
0000059a 03         9760 	.data.b	3
0000059b 22         9761 	.data.b	34
0000059c 21         9762 	.data.b	33
0000059d 03         9763 	.data.b	3
0000059e 23         9764 	.data.b	35
0000059f 22         9765 	.data.b	34
000005a0 04         9766 	.data.b	4
000005a1 03         9767 	.data.b	3
000005a2 24         9768 	.data.b	36
000005a3 23         9769 	.data.b	35
000005a4 01         9770 	.data.b	1
000005a5 31         9771 	.data.b	49
000005a6 5f4d4344   9772 	.data.b	68,67,77,95,86,69,82,83,73,79,78,95,73,78,70,79,95,65,80,73,32,83,84,68,95,79,70,70,0
000005aa 53524556 
000005ae 5f4e4f49 
000005b2 4f464e49 
000005b6 4950415f 
000005ba 44545320 
000005be 46464f5f 
000005c2 00 
000005c3 01         9773 	.data.b	1
000005c4 35         9774 	.data.b	53
000005c5 5f4d4344   9775 	.data.b	68,67,77,95,66,83,87,95,69,78,86,95,65,83,82,95,86,69,82,83,73,79,78,95,51,88,88,95,69,78,65,66,76,69,68,32,83,84,68,95,79,70,70,0
000005c9 5f575342 
000005cd 5f564e45 
000005d1 5f525341 
000005d5 53524556 
000005d9 5f4e4f49 
000005dd 5f585833 
000005e1 42414e45 
000005e5 2044454c 
000005e9 5f445453 
000005ed 0046464f 

                                                                      Page 207
                                                              C:\Users\Fengyuan\AppData\Local\Temp\gh_0000p9o1.s
000005f1 01         9776 	.data.b	1
000005f2 37         9777 	.data.b	55
000005f3 5f4d4344   9778 	.data.b	68,67,77,95,66,83,87,95,69,78,86,95,65,83,82,95,86,69,82,83,73,79,78,95,52,48,49,95,69,78,65,66,76,69,68,32,83,84,68,95,79,70,70,0
000005f7 5f575342 
000005fb 5f564e45 
000005ff 5f525341 
00000603 53524556 
00000607 5f4e4f49 
0000060b 5f313034 
0000060f 42414e45 
00000613 2044454c 
00000617 5f445453 
0000061b 0046464f 
0000061f 01         9779 	.data.b	1
00000620 39         9780 	.data.b	57
00000621 5f4d4344   9781 	.data.b	68,67,77,95,66,83,87,95,69,78,86,95,65,83,82,95,86,69,82,83,73,79,78,95,52,88,88,95,69,78,65,66,76,69,68,32,83,84,68,95,79,78,0
00000625 5f575342 
00000629 5f564e45 
0000062d 5f525341 
00000631 53524556 
00000635 5f4e4f49 
00000639 5f585834 
0000063d 42414e45 
00000641 2044454c 
00000645 5f445453 
00000649 004e4f 
0000064c 01         9782 	.data.b	1
0000064d 3f         9783 	.data.b	63
0000064e 5f4d4344   9784 	.data.b	68,67,77,95,69,88,84,95,78,69,69,68,95,65,80,73,95,85,84,73,78,86,77,87,82,73,84,69,95,69,78,65,66,76,69,68,32,83,84,68,95,79,70,70,0
00000652 5f545845 
00000656 4445454e 
0000065a 4950415f 
0000065e 4954555f 
00000662 574d564e 
00000666 45544952 
0000066a 414e455f 
0000066e 44454c42 
00000672 44545320 
00000676 46464f5f 
0000067a 00 
0000067b 01         9785 	.data.b	1
0000067c 41         9786 	.data.b	65
0000067d 5f4d4344   9787 	.data.b	68,67,77,95,69,88,84,95,78,69,69,68,95,65,80,73,95,85,84,73,78,86,77,82,69,65,68,95,69,78,65,66,76,69,68,32,83,84,68,95,79,70,70,0
00000681 5f545845 
00000685 4445454e 
00000689 4950415f 
0000068d 4954555f 
00000691 524d564e 
00000695 5f444145 
00000699 42414e45 
0000069d 2044454c 
000006a1 5f445453 
000006a5 0046464f 
000006a9 01         9788 	.data.b	1
000006aa 49         9789 	.data.b	73
000006ab 5f4d4344   9790 	.data.b	68,67,77,95,68,69,66,85,71,95,69,82,82,79,82,95,68,69,84,69,67,84,32,83,84,68,95,79,70,70,0
000006af 55424544 
000006b3 52455f47 
000006b7 5f524f52 
000006bb 45544544 
000006bf 53205443 

                                                                      Page 208
                                                              C:\Users\Fengyuan\AppData\Local\Temp\gh_0000p9o1.s
000006c3 4f5f4454 
000006c7 004646 
000006ca 01         9791 	.data.b	1
000006cb 55         9792 	.data.b	85
000006cc 5f4d4344   9793 	.data.b	68,67,77,95,78,69,84,95,80,69,82,73,79,68,73,67,95,84,88,95,69,78,65,66,76,69,68,32,83,84,68,95,79,70,70,0
000006d0 5f54454e 
000006d4 49524550 
000006d8 4349444f 
000006dc 5f58545f 
000006e0 42414e45 
000006e4 2044454c 
000006e8 5f445453 
000006ec 0046464f 
000006f0 01         9794 	.data.b	1
000006f1 5b         9795 	.data.b	91
000006f2 5f4d4344   9796 	.data.b	68,67,77,95,78,69,84,95,80,82,79,84,79,67,79,76,95,80,82,73,79,82,73,84,73,83,65,84,73,79,78,95,69,78,65,66,76,69,68,32,83,84,68,95,79,70,70,0
000006f6 5f54454e 
000006fa 544f5250 
000006fe 4c4f434f 
00000702 4952505f 
00000706 5449524f 
0000070a 54415349 
0000070e 5f4e4f49 
00000712 42414e45 
00000716 2044454c 
0000071a 5f445453 
0000071e 0046464f 
00000722 01         9797 	.data.b	1
00000723 5f         9798 	.data.b	95
00000724 5f4d4344   9799 	.data.b	68,67,77,95,78,69,84,95,83,85,80,80,82,69,83,83,95,79,78,95,70,85,78,67,95,82,69,81,95,69,78,65,66,76,69,68,32,83,84,68,95,79,70,70,0
00000728 5f54454e 
0000072c 50505553 
00000730 53534552 
00000734 5f4e4f5f 
00000738 434e5546 
0000073c 5145525f 
00000740 414e455f 
00000744 44454c42 
00000748 44545320 
0000074c 46464f5f 
00000750 00 
00000751 01         9800 	.data.b	1
00000752 61         9801 	.data.b	97
00000753 5f4d4344   9802 	.data.b	68,67,77,95,78,69,84,95,77,79,78,73,84,79,82,95,70,79,82,69,73,71,78,95,78,95,84,65,95,69,78,65,66,76,69,68,32,83,84,68,95,79,70,70,0
00000757 5f54454e 
0000075b 494e4f4d 
0000075f 5f524f54 
00000763 45524f46 
00000767 5f4e4749 
0000076b 41545f4e 
0000076f 414e455f 
00000773 44454c42 
00000777 44545320 
0000077b 46464f5f 
0000077f 00 
00000780 01         9803 	.data.b	1
00000781 67         9804 	.data.b	103
00000782 5f4d4344   9805 	.data.b	68,67,77,95,78,69,84,95,67,79,78,78,69,67,84,73,79,78,95,87,73,84,72,79,85,84,95,84,88,95,69,78,65,66,76,69,68,32,83,84,68,95,79,70,70,0
00000786 5f54454e 
0000078a 4e4e4f43 
0000078e 49544345 

                                                                      Page 209
                                                              C:\Users\Fengyuan\AppData\Local\Temp\gh_0000p9o1.s
00000792 575f4e4f 
00000796 4f485449 
0000079a 545f5455 
0000079e 4e455f58 
000007a2 454c4241 
000007a6 54532044 
000007aa 464f5f44 
000007ae 0046 
000007b0 01         9806 	.data.b	1
000007b1 69         9807 	.data.b	105
000007b2 5f4d4344   9808 	.data.b	68,67,77,95,78,69,84,95,67,79,78,78,95,69,67,85,95,65,68,68,82,69,83,83,95,69,78,65,66,76,69,68,32,83,84,68,95,79,70,70,0
000007b6 5f54454e 
000007ba 4e4e4f43 
000007be 5543455f 
000007c2 4444415f 
000007c6 53534552 
000007ca 414e455f 
000007ce 44454c42 
000007d2 44545320 
000007d6 46464f5f 
000007da 00 
000007db 01         9809 	.data.b	1
000007dc 6d         9810 	.data.b	109
000007dd 5f4d4344   9811 	.data.b	68,67,77,95,80,65,71,69,68,95,66,85,70,70,69,82,95,69,78,65,66,76,69,68,32,83,84,68,95,79,78,0
000007e1 45474150 
000007e5 55425f44 
000007e9 52454646 
000007ed 414e455f 
000007f1 44454c42 
000007f5 44545320 
000007f9 004e4f5f 
000007fd 01         9812 	.data.b	1
000007fe 71         9813 	.data.b	113
000007ff 5f4d4344   9814 	.data.b	68,67,77,95,77,79,68,69,77,71,82,95,83,85,80,80,79,82,84,95,69,78,65,66,76,69,68,32,83,84,68,95,79,78,0
00000803 45444f4d 
00000807 5f52474d 
0000080b 50505553 
0000080f 5f54524f 
00000813 42414e45 
00000817 2044454c 
0000081b 5f445453 
0000081f 004e4f 
00000822 01         9815 	.data.b	1
00000823 73         9816 	.data.b	115
00000824 5f4d4344   9817 	.data.b	68,67,77,95,77,79,68,69,77,71,82,95,67,72,69,67,75,95,83,85,80,80,79,82,84,95,69,78,65,66,76,69,68,32,83,84,68,95,79,70,70,0
00000828 45444f4d 
0000082c 5f52474d 
00000830 43454843 
00000834 55535f4b 
00000838 524f5050 
0000083c 4e455f54 
00000840 454c4241 
00000844 54532044 
00000848 464f5f44 
0000084c 0046 
0000084e 01         9818 	.data.b	1
0000084f 7d         9819 	.data.b	125
00000850 5f4d4344   9820 	.data.b	68,67,77,95,77,79,68,69,95,67,79,77,77,67,84,82,76,95,69,78,65,66,76,69,68,32,83,84,68,95,79,70,70,0
00000854 45444f4d 
00000858 4d4f435f 
0000085c 5254434d 

                                                                      Page 210
                                                              C:\Users\Fengyuan\AppData\Local\Temp\gh_0000p9o1.s
00000860 4e455f4c 
00000864 454c4241 
00000868 54532044 
0000086c 464f5f44 
00000870 0046 
00000872 01         9821 	.data.b	1
00000873 0181       9822 	.data.b	129,1
00000875 5f4d4344   9823 	.data.b	68,67,77,95,77,79,68,69,95,83,69,67,85,82,73,84,89,95,65,67,67,69,83,83,95,69,78,65,66,76,69,68,32,83,84,68,95,79,70,70,0
00000879 45444f4d 
0000087d 4345535f 
00000881 54495255 
00000885 43415f59 
00000889 53534543 
0000088d 414e455f 
00000891 44454c42 
00000895 44545320 
00000899 46464f5f 
0000089d 00 
0000089e 01         9824 	.data.b	1
0000089f 0185       9825 	.data.b	133,1
000008a1 5f4d4344   9826 	.data.b	68,67,77,95,83,84,65,84,69,95,83,69,67,85,82,73,84,89,95,69,78,65,66,76,69,68,32,83,84,68,95,79,78,0
000008a5 54415453 
000008a9 45535f45 
000008ad 49525543 
000008b1 455f5954 
000008b5 4c42414e 
000008b9 53204445 
000008bd 4f5f4454 
000008c1 004e 
000008c3 01         9827 	.data.b	1
000008c4 0189       9828 	.data.b	137,1
000008c6 5f4d4344   9829 	.data.b	68,67,77,95,83,84,65,84,69,95,83,69,67,95,82,69,84,82,89,95,69,78,65,66,76,69,68,32,83,84,68,95,79,78,0
000008ca 54415453 
000008ce 45535f45 
000008d2 45525f43 
000008d6 5f595254 
000008da 42414e45 
000008de 2044454c 
000008e2 5f445453 
000008e6 004e4f 
000008e9 01         9830 	.data.b	1
000008ea 018b       9831 	.data.b	139,1
000008ec 5f4d4344   9832 	.data.b	68,67,77,95,83,84,65,84,69,95,83,69,67,95,68,69,76,65,89,95,79,78,95,66,79,79,84,95,69,78,65,66,76,69,68,32,83,84,68,95,79,70,70,0
000008f0 54415453 
000008f4 45535f45 
000008f8 45445f43 
000008fc 5f59414c 
00000900 425f4e4f 
00000904 5f544f4f 
00000908 42414e45 
0000090c 2044454c 
00000910 5f445453 
00000914 0046464f 
00000918 01         9833 	.data.b	1
00000919 018d       9834 	.data.b	141,1
0000091b 5f4d4344   9835 	.data.b	68,67,77,95,83,84,65,84,69,95,83,69,67,95,68,69,76,65,89,95,84,73,77,69,95,79,78,95,70,65,73,76,69,68,95,71,69,84,95,65,84,84,95,67,78,84,82,95,69,78,65,66,76,69,68,32,83,84,68,95
0000091f 54415453 
00000923 45535f45 
00000927 45445f43 
0000092b 5f59414c 
0000092f 454d4954 

                                                                      Page 211
                                                              C:\Users\Fengyuan\AppData\Local\Temp\gh_0000p9o1.s
00000933 5f4e4f5f 
00000937 4c494146 
0000093b 475f4445 
0000093f 415f5445 
00000943 435f5454 
00000947 5f52544e 
0000094b 42414e45 
0000094f 2044454c 
00000953 5f445453 
00000957 0046464f   9836 	.data.b	79,70,70,0
0000095b 01         9837 	.data.b	1
0000095c 018f       9838 	.data.b	143,1
0000095e 5f4d4344   9839 	.data.b	68,67,77,95,83,84,65,84,69,95,83,69,67,95,65,84,84,95,67,78,84,82,95,69,88,84,95,83,84,79,82,65,71,69,95,69,78,65,66,76,69,68,32,83,84,68,95,79,70,70,0
00000962 54415453 
00000966 45535f45 
0000096a 54415f43 
0000096e 4e435f54 
00000972 455f5254 
00000976 535f5458 
0000097a 41524f54 
0000097e 455f4547 
00000982 4c42414e 
00000986 53204445 
0000098a 4f5f4454 
0000098e 004646 
00000991 01         9840 	.data.b	1
00000992 0191       9841 	.data.b	145,1
00000994 5f4d4344   9842 	.data.b	68,67,77,95,83,84,65,84,69,95,83,69,67,85,82,73,84,89,95,70,73,88,69,68,95,66,89,84,69,83,95,69,78,65,66,76,69,68,32,83,84,68,95,79,70,70,0
00000998 54415453 
0000099c 45535f45 
000009a0 49525543 
000009a4 465f5954 
000009a8 44455849 
000009ac 5459425f 
000009b0 455f5345 
000009b4 4c42414e 
000009b8 53204445 
000009bc 4f5f4454 
000009c0 004646 
000009c3 01         9843 	.data.b	1
000009c4 0195       9844 	.data.b	149,1
000009c6 5f4d4344   9845 	.data.b	68,67,77,95,83,84,65,84,69,95,83,69,83,83,73,79,78,95,78,79,84,73,70,73,67,65,84,73,79,78,95,69,78,65,66,76,69,68,32,83,84,68,95,79,70,70,0
000009ca 54415453 
000009ce 45535f45 
000009d2 4f495353 
000009d6 4f4e5f4e 
000009da 49464954 
000009de 49544143 
000009e2 455f4e4f 
000009e6 4c42414e 
000009ea 53204445 
000009ee 4f5f4454 
000009f2 004646 
000009f5 01         9846 	.data.b	1
000009f6 0197       9847 	.data.b	151,1
000009f8 5f4d4344   9848 	.data.b	68,67,77,95,83,84,65,84,69,95,83,69,67,85,82,73,84,89,95,78,79,84,73,70,73,67,65,84,73,79,78,95,69,78,65,66,76,69,68,32,83,84,68,95,79,70,70,0
000009fc 54415453 
00000a00 45535f45 
00000a04 49525543 
00000a08 4e5f5954 
00000a0c 4649544f 

                                                                      Page 212
                                                              C:\Users\Fengyuan\AppData\Local\Temp\gh_0000p9o1.s
00000a10 54414349 
00000a14 5f4e4f49 
00000a18 42414e45 
00000a1c 2044454c 
00000a20 5f445453 
00000a24 0046464f 
00000a28 01         9849 	.data.b	1
00000a29 01a1       9850 	.data.b	161,1
00000a2b 5f4d4344   9851 	.data.b	68,67,77,95,68,69,77,95,65,80,73,95,52,51,48,95,69,78,65,66,76,69,68,32,83,84,68,95,79,78,0
00000a2f 5f4d4544 
00000a33 5f495041 
00000a37 5f303334 
00000a3b 42414e45 
00000a3f 2044454c 
00000a43 5f445453 
00000a47 004e4f 
00000a4a 01         9852 	.data.b	1
00000a4b 01a3       9853 	.data.b	163,1
00000a4d 5f4d4344   9854 	.data.b	68,67,77,95,68,69,77,95,67,76,73,69,78,84,73,68,95,69,78,65,66,76,69,68,32,83,84,68,95,79,78,0
00000a51 5f4d4544 
00000a55 45494c43 
00000a59 4449544e 
00000a5d 414e455f 
00000a61 44454c42 
00000a65 44545320 
00000a69 004e4f5f 
00000a6d 01         9855 	.data.b	1
00000a6e 01a5       9856 	.data.b	165,1
00000a70 5f4d4344   9857 	.data.b	68,67,77,95,68,73,68,77,71,82,95,83,85,80,80,79,82,84,95,69,78,65,66,76,69,68,32,83,84,68,95,79,78,0
00000a74 4d444944 
00000a78 535f5247 
00000a7c 4f505055 
00000a80 455f5452 
00000a84 4c42414e 
00000a88 53204445 
00000a8c 4f5f4454 
00000a90 004e 
00000a92 01         9858 	.data.b	1
00000a93 01a7       9859 	.data.b	167,1
00000a95 5f4d4344   9860 	.data.b	68,67,77,95,68,73,68,77,71,82,95,69,88,84,69,78,68,69,68,95,76,79,79,75,85,80,95,69,78,65,66,76,69,68,32,83,84,68,95,79,70,70,0
00000a99 4d444944 
00000a9d 455f5247 
00000aa1 4e455458 
00000aa5 5f444544 
00000aa9 4b4f4f4c 
00000aad 455f5055 
00000ab1 4c42414e 
00000ab5 53204445 
00000ab9 4f5f4454 
00000abd 004646 
00000ac0 01         9861 	.data.b	1
00000ac1 01b3       9862 	.data.b	179,1
00000ac3 5f4d4344   9863 	.data.b	68,67,77,95,68,73,68,77,71,82,95,82,65,78,71,69,95,83,85,80,80,79,82,84,95,69,78,65,66,76,69,68,32,83,84,68,95,79,70,70,0
00000ac7 4d444944 
00000acb 525f5247 
00000acf 45474e41 
00000ad3 5055535f 
00000ad7 54524f50 
00000adb 414e455f 
00000adf 44454c42 
00000ae3 44545320 

                                                                      Page 213
                                                              C:\Users\Fengyuan\AppData\Local\Temp\gh_0000p9o1.s
00000ae7 46464f5f 
00000aeb 00 
00000aec 01         9864 	.data.b	1
00000aed 01b5       9865 	.data.b	181,1
00000aef 5f4d4344   9866 	.data.b	68,67,77,95,68,73,68,77,71,82,95,73,79,95,77,65,83,75,82,69,67,79,82,68,95,69,78,65,66,76,69,68,32,83,84,68,95,79,70,70,0
00000af3 4d444944 
00000af7 495f5247 
00000afb 414d5f4f 
00000aff 45524b53 
00000b03 44524f43 
00000b07 414e455f 
00000b0b 44454c42 
00000b0f 44545320 
00000b13 46464f5f 
00000b17 00 
00000b18 01         9867 	.data.b	1
00000b19 01b9       9868 	.data.b	185,1
00000b1b 5f4d4344   9869 	.data.b	68,67,77,95,68,73,68,77,71,82,95,73,79,68,73,68,95,69,88,69,67,95,80,82,69,67,79,78,68,95,76,73,77,73,84,95,69,78,65,66,76,69,68,32,83,84,68,95,79,70,70,0
00000b1f 4d444944 
00000b23 495f5247 
00000b27 4449444f 
00000b2b 4558455f 
00000b2f 52505f43 
00000b33 4e4f4345 
00000b37 494c5f44 
00000b3b 5f54494d 
00000b3f 42414e45 
00000b43 2044454c 
00000b47 5f445453 
00000b4b 0046464f 
00000b4f 01         9870 	.data.b	1
00000b50 01bd       9871 	.data.b	189,1
00000b52 5f4d4344   9872 	.data.b	68,67,77,95,68,73,68,77,71,82,95,83,82,95,73,79,95,67,79,78,84,82,79,76,95,69,78,65,66,76,69,68,32,83,84,68,95,79,70,70,0
00000b56 4d444944 
00000b5a 535f5247 
00000b5e 4f495f52 
00000b62 4e4f435f 
00000b66 4c4f5254 
00000b6a 414e455f 
00000b6e 44454c42 
00000b72 44545320 
00000b76 46464f5f 
00000b7a 00 
00000b7b 01         9873 	.data.b	1
00000b7c 01c7       9874 	.data.b	199,1
00000b7e 5f4d4344   9875 	.data.b	68,67,77,95,68,73,68,77,71,82,95,79,80,95,73,78,70,79,95,82,79,69,95,69,78,65,66,76,69,68,32,83,84,68,95,79,70,70,0
00000b82 4d444944 
00000b86 4f5f5247 
00000b8a 4e495f50 
00000b8e 525f4f46 
00000b92 455f454f 
00000b96 4c42414e 
00000b9a 53204445 
00000b9e 4f5f4454 
00000ba2 004646 
00000ba5 01         9876 	.data.b	1
00000ba6 01c9       9877 	.data.b	201,1
00000ba8 5f4d4344   9878 	.data.b	68,67,77,95,68,73,68,77,71,82,95,79,80,95,73,78,70,79,95,68,69,70,73,78,69,95,69,78,65,66,76,69,68,32,83,84,68,95,79,70,70,0
00000bac 4d444944 
00000bb0 4f5f5247 
00000bb4 4e495f50 

                                                                      Page 214
                                                              C:\Users\Fengyuan\AppData\Local\Temp\gh_0000p9o1.s
00000bb8 445f4f46 
00000bbc 4e494645 
00000bc0 4e455f45 
00000bc4 454c4241 
00000bc8 54532044 
00000bcc 464f5f44 
00000bd0 0046 
00000bd2 01         9879 	.data.b	1
00000bd3 01cb       9880 	.data.b	203,1
00000bd5 5f4d4344   9881 	.data.b	68,67,77,95,68,73,68,77,71,82,95,79,80,95,73,78,70,79,95,67,79,77,66,73,78,69,68,95,69,78,65,66,76,69,68,32,83,84,68,95,79,70,70,0
00000bd9 4d444944 
00000bdd 4f5f5247 
00000be1 4e495f50 
00000be5 435f4f46 
00000be9 49424d4f 
00000bed 5f44454e 
00000bf1 42414e45 
00000bf5 2044454c 
00000bf9 5f445453 
00000bfd 0046464f 
00000c01 01         9882 	.data.b	1
00000c02 01cd       9883 	.data.b	205,1
00000c04 5f4d4344   9884 	.data.b	68,67,77,95,68,73,68,77,71,82,95,79,80,95,73,78,70,79,95,65,78,89,95,69,78,65,66,76,69,68,32,83,84,68,95,79,70,70,0
00000c08 4d444944 
00000c0c 4f5f5247 
00000c10 4e495f50 
00000c14 415f4f46 
00000c18 455f594e 
00000c1c 4c42414e 
00000c20 53204445 
00000c24 4f5f4454 
00000c28 004646 
00000c2b 01         9885 	.data.b	1
00000c2c 01d5       9886 	.data.b	213,1
00000c2e 5f4d4344   9887 	.data.b	68,67,77,95,68,73,68,77,71,82,95,78,86,77,95,82,69,65,68,95,69,78,65,66,76,69,68,32,83,84,68,95,79,70,70,0
00000c32 4d444944 
00000c36 4e5f5247 
00000c3a 525f4d56 
00000c3e 5f444145 
00000c42 42414e45 
00000c46 2044454c 
00000c4a 5f445453 
00000c4e 0046464f 
00000c52 01         9888 	.data.b	1
00000c53 01d7       9889 	.data.b	215,1
00000c55 5f4d4344   9890 	.data.b	68,67,77,95,68,73,68,77,71,82,95,78,86,77,95,87,82,73,84,69,95,69,78,65,66,76,69,68,32,83,84,68,95,79,70,70,0
00000c59 4d444944 
00000c5d 4e5f5247 
00000c61 575f4d56 
00000c65 45544952 
00000c69 414e455f 
00000c6d 44454c42 
00000c71 44545320 
00000c75 46464f5f 
00000c79 00 
00000c7a 01         9891 	.data.b	1
00000c7b 01e3       9892 	.data.b	227,1
00000c7d 5f4d4344   9893 	.data.b	68,67,77,95,68,73,68,77,71,82,95,79,80,84,89,80,69,95,73,79,95,82,69,84,67,84,82,76,50,69,67,85,95,69,78,65,66,76,69,68,32,83,84,68,95,79,70,70,0
00000c81 4d444944 
00000c85 4f5f5247 
00000c89 50595450 

                                                                      Page 215
                                                              C:\Users\Fengyuan\AppData\Local\Temp\gh_0000p9o1.s
00000c8d 4f495f45 
00000c91 5445525f 
00000c95 4c525443 
00000c99 55434532 
00000c9d 414e455f 
00000ca1 44454c42 
00000ca5 44545320 
00000ca9 46464f5f 
00000cad 00 
00000cae 01         9894 	.data.b	1
00000caf 01f1       9895 	.data.b	241,1
00000cb1 5f4d4344   9896 	.data.b	68,67,77,95,82,73,68,77,71,82,95,83,85,80,80,79,82,84,95,69,78,65,66,76,69,68,32,83,84,68,95,79,70,70,0
00000cb5 4d444952 
00000cb9 535f5247 
00000cbd 4f505055 
00000cc1 455f5452 
00000cc5 4c42414e 
00000cc9 53204445 
00000ccd 4f5f4454 
00000cd1 004646 
00000cd4 01         9897 	.data.b	1
00000cd5 01f7       9898 	.data.b	247,1
00000cd7 5f4d4344   9899 	.data.b	68,67,77,95,77,69,77,77,71,82,95,83,85,80,80,79,82,84,95,69,78,65,66,76,69,68,32,83,84,68,95,79,70,70,0
00000cdb 4d4d454d 
00000cdf 535f5247 
00000ce3 4f505055 
00000ce7 455f5452 
00000ceb 4c42414e 
00000cef 53204445 
00000cf3 4f5f4454 
00000cf7 004646 
00000cfa 01         9900 	.data.b	1
00000cfb 01ff       9901 	.data.b	255,1
00000cfd 5f4d4344   9902 	.data.b	68,67,77,95,79,66,68,85,68,83,73,68,77,71,82,95,83,85,80,80,79,82,84,95,69,78,65,66,76,69,68,32,83,84,68,95,79,70,70,0
00000d01 5544424f 
00000d05 44495344 
00000d09 5f52474d 
00000d0d 50505553 
00000d11 5f54524f 
00000d15 42414e45 
00000d19 2044454c 
00000d1d 5f445453 
00000d21 0046464f 
00000d25 01         9903 	.data.b	1
00000d26 028f       9904 	.data.b	143,2
00000d28 5f4d4344   9905 	.data.b	68,67,77,95,79,66,68,73,68,77,71,82,95,79,66,68,77,73,68,95,83,85,80,80,79,82,84,95,66,89,95,68,67,77,95,69,78,65,66,76,69,68,32,83,84,68,95,79,70,70,0
00000d2c 4944424f 
00000d30 52474d44 
00000d34 44424f5f 
00000d38 5f44494d 
00000d3c 50505553 
00000d40 5f54524f 
00000d44 445f5942 
00000d48 455f4d43 
00000d4c 4c42414e 
00000d50 53204445 
00000d54 4f5f4454 
00000d58 004646 
00000d5b 01         9906 	.data.b	1
00000d5c 0293       9907 	.data.b	147,2
00000d5e 5f4d4344   9908 	.data.b	68,67,77,95,83,80,76,73,84,95,84,65,83,75,83,95,69,78,65,66,76,69,68,32,83,84,68,95,79,70,70,0

                                                                      Page 216
                                                              C:\Users\Fengyuan\AppData\Local\Temp\gh_0000p9o1.s
00000d62 494c5053 
00000d66 41545f54 
00000d6a 5f534b53 
00000d6e 42414e45 
00000d72 2044454c 
00000d76 5f445453 
00000d7a 0046464f 
00000d7e 01         9909 	.data.b	1
00000d7f 0297       9910 	.data.b	151,2
00000d81 5f4d4344   9911 	.data.b	68,67,77,95,68,73,65,71,95,79,69,77,95,78,79,84,73,70,73,67,65,84,73,79,78,95,69,78,65,66,76,69,68,32,83,84,68,95,79,70,70,0
00000d85 47414944 
00000d89 4d454f5f 
00000d8d 544f4e5f 
00000d91 43494649 
00000d95 4f495441 
00000d99 4e455f4e 
00000d9d 454c4241 
00000da1 54532044 
00000da5 464f5f44 
00000da9 0046 
00000dab 01         9912 	.data.b	1
00000dac 0299       9913 	.data.b	153,2
00000dae 5f4d4344   9914 	.data.b	68,67,77,95,68,73,65,71,95,83,89,83,95,78,79,84,73,70,73,67,65,84,73,79,78,95,69,78,65,66,76,69,68,32,83,84,68,95,79,70,70,0
00000db2 47414944 
00000db6 5359535f 
00000dba 544f4e5f 
00000dbe 43494649 
00000dc2 4f495441 
00000dc6 4e455f4e 
00000dca 454c4241 
00000dce 54532044 
00000dd2 464f5f44 
00000dd6 0046 
00000dd8 01         9915 	.data.b	1
00000dd9 029d       9916 	.data.b	157,2
00000ddb 5f4d4344   9917 	.data.b	68,67,77,95,68,73,65,71,95,69,88,84,69,82,78,95,83,86,67,95,72,65,78,68,76,73,78,71,95,69,78,65,66,76,69,68,32,83,84,68,95,79,70,70,0
00000ddf 47414944 
00000de3 5458455f 
00000de7 5f4e5245 
00000deb 5f435653 
00000def 444e4148 
00000df3 474e494c 
00000df7 414e455f 
00000dfb 44454c42 
00000dff 44545320 
00000e03 46464f5f 
00000e07 00 
00000e08 01         9918 	.data.b	1
00000e09 02a3       9919 	.data.b	163,2
00000e0b 5f4d4344   9920 	.data.b	68,67,77,95,68,73,65,71,95,74,85,77,80,70,82,79,77,70,66,76,95,69,78,65,66,76,69,68,32,83,84,68,95,79,78,0
00000e0f 47414944 
00000e13 4d554a5f 
00000e17 4f524650 
00000e1b 4c42464d 
00000e1f 414e455f 
00000e23 44454c42 
00000e27 44545320 
00000e2b 004e4f5f 
00000e2f 01         9921 	.data.b	1
00000e30 02a5       9922 	.data.b	165,2
00000e32 5f4d4344   9923 	.data.b	68,67,77,95,68,73,65,71,95,74,85,77,80,84,79,70,66,76,95,69,78,65,66,76,69,68,32,83,84,68,95,79,70,70,0

                                                                      Page 217
                                                              C:\Users\Fengyuan\AppData\Local\Temp\gh_0000p9o1.s
00000e36 47414944 
00000e3a 4d554a5f 
00000e3e 464f5450 
00000e42 455f4c42 
00000e46 4c42414e 
00000e4a 53204445 
00000e4e 4f5f4454 
00000e52 004646 
00000e55 01         9924 	.data.b	1
00000e56 02a7       9925 	.data.b	167,2
00000e58 5f4d4344   9926 	.data.b	68,67,77,95,68,73,65,71,95,77,85,76,84,73,95,83,86,67,95,84,65,66,76,69,95,69,78,65,66,76,69,68,32,83,84,68,95,79,70,70,0
00000e5c 47414944 
00000e60 4c554d5f 
00000e64 535f4954 
00000e68 545f4356 
00000e6c 454c4241 
00000e70 414e455f 
00000e74 44454c42 
00000e78 44545320 
00000e7c 46464f5f 
00000e80 00 
00000e81 01         9927 	.data.b	1
00000e82 02a9       9928 	.data.b	169,2
00000e84 5f4d4344   9929 	.data.b	68,67,77,95,68,73,65,71,95,70,65,83,84,95,80,79,83,84,95,80,82,79,67,69,83,83,73,78,71,95,69,78,65,66,76,69,68,32,83,84,68,95,79,78,0
00000e88 47414944 
00000e8c 5341465f 
00000e90 4f505f54 
00000e94 505f5453 
00000e98 45434f52 
00000e9c 4e495353 
00000ea0 4e455f47 
00000ea4 454c4241 
00000ea8 54532044 
00000eac 4e4f5f44 
00000eb0 00 
00000eb1 01         9930 	.data.b	1
00000eb2 02b1       9931 	.data.b	177,2
00000eb4 5f4d4344   9932 	.data.b	68,67,77,95,68,73,65,71,95,83,84,65,84,69,95,82,69,67,79,86,69,82,89,95,69,78,65,66,76,69,68,32,83,84,68,95,79,70,70,0
00000eb8 47414944 
00000ebc 4154535f 
00000ec0 525f4554 
00000ec4 564f4345 
00000ec8 5f595245 
00000ecc 42414e45 
00000ed0 2044454c 
00000ed4 5f445453 
00000ed8 0046464f 
00000edc 01         9933 	.data.b	1
00000edd 02b3       9934 	.data.b	179,2
00000edf 5f4d4344   9935 	.data.b	68,67,77,95,68,73,65,71,95,82,67,82,82,80,95,76,73,77,73,84,95,69,78,65,66,76,69,68,32,83,84,68,95,79,70,70,0
00000ee3 47414944 
00000ee7 5243525f 
00000eeb 4c5f5052 
00000eef 54494d49 
00000ef3 414e455f 
00000ef7 44454c42 
00000efb 44545320 
00000eff 46464f5f 
00000f03 00 
00000f04 01         9936 	.data.b	1
00000f05 02b5       9937 	.data.b	181,2

                                                                      Page 218
                                                              C:\Users\Fengyuan\AppData\Local\Temp\gh_0000p9o1.s
00000f07 5f4d4344   9938 	.data.b	68,67,77,95,68,73,65,71,95,86,73,82,84,85,65,76,95,82,69,81,85,69,83,84,95,69,78,65,66,76,69,68,32,83,84,68,95,79,70,70,0
00000f0b 47414944 
00000f0f 5249565f 
00000f13 4c415554 
00000f17 5145525f 
00000f1b 54534555 
00000f1f 414e455f 
00000f23 44454c42 
00000f27 44545320 
00000f2b 46464f5f 
00000f2f 00 
00000f30 01         9939 	.data.b	1
00000f31 02b9       9940 	.data.b	185,2
00000f33 5f4d4344   9941 	.data.b	68,67,77,95,68,73,65,71,95,83,69,82,86,73,67,69,95,68,73,83,80,65,84,67,72,69,82,95,69,78,65,66,76,69,68,32,83,84,68,95,79,70,70,0
00000f37 47414944 
00000f3b 5245535f 
00000f3f 45434956 
00000f43 5349445f 
00000f47 43544150 
00000f4b 5f524548 
00000f4f 42414e45 
00000f53 2044454c 
00000f57 5f445453 
00000f5b 0046464f 
00000f5f 01         9942 	.data.b	1
00000f60 02bb       9943 	.data.b	187,2
00000f62 5f4d4344   9944 	.data.b	68,67,77,95,86,65,82,77,71,82,95,83,85,80,80,79,82,84,95,69,78,65,66,76,69,68,32,83,84,68,95,79,70,70,0
00000f66 4d524156 
00000f6a 535f5247 
00000f6e 4f505055 
00000f72 455f5452 
00000f76 4c42414e 
00000f7a 53204445 
00000f7e 4f5f4454 
00000f82 004646 
00000f85 01         9945 	.data.b	1
00000f86 02bd       9946 	.data.b	189,2
00000f88 5f4d4344   9947 	.data.b	68,67,77,95,86,65,82,77,71,82,95,77,85,76,84,73,95,83,86,67,95,69,88,67,76,85,83,73,86,69,95,69,78,65,66,76,69,68,32,83,84,68,95,79,70,70,0
00000f8c 4d524156 
00000f90 4d5f5247 
00000f94 49544c55 
00000f98 4356535f 
00000f9c 4358455f 
00000fa0 4953554c 
00000fa4 455f4556 
00000fa8 4c42414e 
00000fac 53204445 
00000fb0 4f5f4454 
00000fb4 004646 
00000fb7 01         9948 	.data.b	1
00000fb8 02bf       9949 	.data.b	191,2
00000fba 5f4d4344   9950 	.data.b	68,67,77,95,86,65,82,77,71,82,95,77,85,76,84,73,95,83,86,67,95,73,78,67,76,85,83,73,86,69,95,69,78,65,66,76,69,68,32,83,84,68,95,79,70,70,0
00000fbe 4d524156 
00000fc2 4d5f5247 
00000fc6 49544c55 
00000fca 4356535f 
00000fce 434e495f 
00000fd2 4953554c 
00000fd6 455f4556 
00000fda 4c42414e 
00000fde 53204445 

                                                                      Page 219
                                                              C:\Users\Fengyuan\AppData\Local\Temp\gh_0000p9o1.s
00000fe2 4f5f4454 
00000fe6 004646 
00000fe9 01         9951 	.data.b	1
00000fea 02c1       9952 	.data.b	193,2
00000fec 5f4d4344   9953 	.data.b	68,67,77,95,86,65,82,77,71,82,95,77,85,76,84,73,95,67,79,77,95,69,78,65,66,76,69,68,32,83,84,68,95,79,70,70,0
00000ff0 4d524156 
00000ff4 4d5f5247 
00000ff8 49544c55 
00000ffc 4d4f435f 
00001000 414e455f 
00001004 44454c42 
00001008 44545320 
0000100c 46464f5f 
00001010 00 
00001011 01         9954 	.data.b	1
00001012 02c7       9955 	.data.b	199,2
00001014 5f4d4344   9956 	.data.b	68,67,77,95,86,65,82,77,71,82,95,77,79,68,69,95,80,79,83,84,66,85,73,76,68,95,76,79,65,68,95,69,78,65,66,76,69,68,32,83,84,68,95,79,70,70,0
00001018 4d524156 
0000101c 4d5f5247 
00001020 5f45444f 
00001024 54534f50 
00001028 4c495542 
0000102c 4f4c5f44 
00001030 455f4441 
00001034 4c42414e 
00001038 53204445 
0000103c 4f5f4454 
00001040 004646 
00001043 01         9957 	.data.b	1
00001044 02c9       9958 	.data.b	201,2
00001046 5f4d4344   9959 	.data.b	68,67,77,95,86,65,82,77,71,82,95,77,79,68,69,95,80,79,83,84,66,85,73,76,68,95,83,69,76,69,67,84,95,69,78,65,66,76,69,68,32,83,84,68,95,79,70,70,0
0000104a 4d524156 
0000104e 4d5f5247 
00001052 5f45444f 
00001056 54534f50 
0000105a 4c495542 
0000105e 45535f44 
00001062 5443454c 
00001066 414e455f 
0000106a 44454c42 
0000106e 44545320 
00001072 46464f5f 
00001076 00 
00001077 01         9960 	.data.b	1
00001078 02cd       9961 	.data.b	205,2
0000107a 5f4d4344   9962 	.data.b	68,67,77,95,83,86,67,95,48,49,95,83,85,80,80,79,82,84,95,69,78,65,66,76,69,68,32,83,84,68,95,79,70,70,0
0000107e 5f435653 
00001082 535f3130 
00001086 4f505055 
0000108a 455f5452 
0000108e 4c42414e 
00001092 53204445 
00001096 4f5f4454 
0000109a 004646 
0000109d 01         9963 	.data.b	1
0000109e 02d5       9964 	.data.b	213,2
000010a0 5f4d4344   9965 	.data.b	68,67,77,95,83,86,67,95,48,54,95,83,85,80,80,79,82,84,95,69,78,65,66,76,69,68,32,83,84,68,95,79,70,70,0
000010a4 5f435653 
000010a8 535f3630 
000010ac 4f505055 
000010b0 455f5452 

                                                                      Page 220
                                                              C:\Users\Fengyuan\AppData\Local\Temp\gh_0000p9o1.s
000010b4 4c42414e 
000010b8 53204445 
000010bc 4f5f4454 
000010c0 004646 
000010c3 01         9966 	.data.b	1
000010c4 02d9       9967 	.data.b	217,2
000010c6 5f4d4344   9968 	.data.b	68,67,77,95,83,86,67,95,48,56,95,83,85,80,80,79,82,84,95,69,78,65,66,76,69,68,32,83,84,68,95,79,70,70,0
000010ca 5f435653 
000010ce 535f3830 
000010d2 4f505055 
000010d6 455f5452 
000010da 4c42414e 
000010de 53204445 
000010e2 4f5f4454 
000010e6 004646 
000010e9 01         9969 	.data.b	1
000010ea 02db       9970 	.data.b	219,2
000010ec 5f4d4344   9971 	.data.b	68,67,77,95,83,86,67,95,48,57,95,83,85,80,80,79,82,84,95,69,78,65,66,76,69,68,32,83,84,68,95,79,70,70,0
000010f0 5f435653 
000010f4 535f3930 
000010f8 4f505055 
000010fc 455f5452 
00001100 4c42414e 
00001104 53204445 
00001108 4f5f4454 
0000110c 004646 
0000110f 01         9972 	.data.b	1
00001110 02df       9973 	.data.b	223,2
00001112 5f4d4344   9974 	.data.b	68,67,77,95,83,86,67,95,49,48,95,83,85,80,80,79,82,84,95,69,78,65,66,76,69,68,32,83,84,68,95,79,78,0
00001116 5f435653 
0000111a 535f3031 
0000111e 4f505055 
00001122 455f5452 
00001126 4c42414e 
0000112a 53204445 
0000112e 4f5f4454 
00001132 004e 
00001134 01         9975 	.data.b	1
00001135 02e1       9976 	.data.b	225,2
00001137 5f4d4344   9977 	.data.b	68,67,77,95,83,86,67,95,49,48,95,74,77,80,50,66,79,79,84,95,69,78,65,66,76,69,68,32,83,84,68,95,79,70,70,0
0000113b 5f435653 
0000113f 4a5f3031 
00001143 4232504d 
00001147 5f544f4f 
0000114b 42414e45 
0000114f 2044454c 
00001153 5f445453 
00001157 0046464f 
0000115b 01         9978 	.data.b	1
0000115c 02e5       9979 	.data.b	229,2
0000115e 5f4d4344   9980 	.data.b	68,67,77,95,83,86,67,95,49,49,95,83,85,80,80,79,82,84,95,69,78,65,66,76,69,68,32,83,84,68,95,79,78,0
00001162 5f435653 
00001166 535f3131 
0000116a 4f505055 
0000116e 455f5452 
00001172 4c42414e 
00001176 53204445 
0000117a 4f5f4454 
0000117e 004e 
00001180 01         9981 	.data.b	1
00001181 02f2       9982 	.data.b	242,2

                                                                      Page 221
                                                              C:\Users\Fengyuan\AppData\Local\Temp\gh_0000p9o1.s
00001183 5f4d4344   9983 	.data.b	68,67,77,95,83,86,67,95,49,57,95,83,85,80,80,79,82,84,95,69,78,65,66,76,69,68,32,83,84,68,95,79,78,0
00001187 5f435653 
0000118b 535f3931 
0000118f 4f505055 
00001193 455f5452 
00001197 4c42414e 
0000119b 53204445 
0000119f 4f5f4454 
000011a3 004e 
000011a5 01         9984 	.data.b	1
000011a6 0396       9985 	.data.b	150,3
000011a8 5f4d4344   9986 	.data.b	68,67,77,95,83,86,67,95,50,55,95,83,85,80,80,79,82,84,95,69,78,65,66,76,69,68,32,83,84,68,95,79,78,0
000011ac 5f435653 
000011b0 535f3732 
000011b4 4f505055 
000011b8 455f5452 
000011bc 4c42414e 
000011c0 53204445 
000011c4 4f5f4454 
000011c8 004e 
000011ca 01         9987 	.data.b	1
000011cb 039c       9988 	.data.b	156,3
000011cd 5f4d4344   9989 	.data.b	68,67,77,95,83,86,67,95,50,56,95,83,85,80,80,79,82,84,95,69,78,65,66,76,69,68,32,83,84,68,95,79,70,70,0
000011d1 5f435653 
000011d5 535f3832 
000011d9 4f505055 
000011dd 455f5452 
000011e1 4c42414e 
000011e5 53204445 
000011e9 4f5f4454 
000011ed 004646 
000011f0 01         9990 	.data.b	1
000011f1 03a6       9991 	.data.b	166,3
000011f3 5f4d4344   9992 	.data.b	68,67,77,95,83,86,67,95,50,67,95,83,85,80,80,79,82,84,95,69,78,65,66,76,69,68,32,83,84,68,95,79,70,70,0
000011f7 5f435653 
000011fb 535f4332 
000011ff 4f505055 
00001203 455f5452 
00001207 4c42414e 
0000120b 53204445 
0000120f 4f5f4454 
00001213 004646 
00001216 01         9993 	.data.b	1
00001217 03c2       9994 	.data.b	194,3
00001219 5f4d4344   9995 	.data.b	68,67,77,95,83,86,67,95,56,53,95,83,85,80,80,79,82,84,95,69,78,65,66,76,69,68,32,83,84,68,95,79,78,0
0000121d 5f435653 
00001221 535f3538 
00001225 4f505055 
00001229 455f5452 
0000122d 4c42414e 
00001231 53204445 
00001235 4f5f4454 
00001239 004e 
0000123b 01         9996 	.data.b	1
0000123c 03c6       9997 	.data.b	198,3
0000123e 5f4d4344   9998 	.data.b	68,67,77,95,83,86,67,95,56,54,95,83,85,80,80,79,82,84,95,69,78,65,66,76,69,68,32,83,84,68,95,79,70,70,0
00001242 5f435653 
00001246 535f3638 
0000124a 4f505055 
0000124e 455f5452 
00001252 4c42414e 

                                                                      Page 222
                                                              C:\Users\Fengyuan\AppData\Local\Temp\gh_0000p9o1.s
00001256 53204445 
0000125a 4f5f4454 
0000125e 004646 
00001261 01         9999 	.data.b	1
00001262 03ee      10000 	.data.b	238,3
00001264 5f4d4344  10001 	.data.b	68,67,77,95,68,67,77,95,65,82,95,86,69,82,83,73,79,78,95,52,48,51,32,48,120,48,52,48,51,117,0
00001268 5f4d4344 
0000126c 565f5241 
00001270 49535245 
00001274 345f4e4f 
00001278 30203330 
0000127c 30343078 
00001280 007533 
00001283 01        10002 	.data.b	1
00001284 03f4      10003 	.data.b	244,3
00001286 5f4d4344  10004 	.data.b	68,67,77,95,68,67,77,95,65,82,95,86,69,82,83,73,79,78,32,48,120,48,52,50,49,117,0
0000128a 5f4d4344 
0000128e 565f5241 
00001292 49535245 
00001296 30204e4f 
0000129a 32343078 
0000129e 007531 
000012a1 01        10005 	.data.b	1
000012a2 03f6      10006 	.data.b	246,3
000012a4 5f4d4344  10007 	.data.b	68,67,77,95,69,88,84,69,78,83,73,79,78,95,73,68,32,48,120,57,54,65,67,68,53,52,51,85,76,0
000012a8 45545845 
000012ac 4f49534e 
000012b0 44495f4e 
000012b4 39783020 
000012b8 44434136 
000012bc 55333435 
000012c0 004c 
000012c2 01        10008 	.data.b	1
000012c3 03f8      10009 	.data.b	248,3
000012c5 5f4d4344  10010 	.data.b	68,67,77,95,80,68,85,82,95,65,80,73,95,65,82,95,86,69,82,83,73,79,78,32,48,120,52,49,50,0
000012c9 52554450 
000012cd 4950415f 
000012d1 5f52415f 
000012d5 53524556 
000012d9 204e4f49 
000012dd 31347830 
000012e1 0032 
000012e3 04        10011 	.data.b	4
000012e4 03        10012 	.data.b	3
000012e5 25        10013 	.data.b	37
000012e6 24        10014 	.data.b	36
000012e7 04        10015 	.data.b	4
000012e8 03        10016 	.data.b	3
000012e9 26        10017 	.data.b	38
000012ea 25        10018 	.data.b	37
000012eb 04        10019 	.data.b	4
000012ec 03        10020 	.data.b	3
000012ed 27        10021 	.data.b	39
000012ee 26        10022 	.data.b	38
000012ef 01        10023 	.data.b	1
000012f0 50        10024 	.data.b	80
000012f1 5f4d4344  10025 	.data.b	68,67,77,95,78,69,84,95,67,79,78,78,95,80,82,79,80,69,82,84,73,69,83,95,69,78,65,66,76,69,68,32,83,84,68,95,79,70,70,0
000012f5 5f54454e 
000012f9 4e4e4f43 
000012fd 4f52505f 
00001301 54524550 

                                                                      Page 223
                                                              C:\Users\Fengyuan\AppData\Local\Temp\gh_0000p9o1.s
00001305 5f534549 
00001309 42414e45 
0000130d 2044454c 
00001311 5f445453 
00001315 0046464f 
00001319 01        10026 	.data.b	1
0000131a 57        10027 	.data.b	87
0000131b 5f4d4344  10028 	.data.b	68,67,77,95,78,69,84,95,80,82,79,67,69,83,83,73,78,71,95,67,65,78,67,69,76,76,65,84,73,79,78,95,69,78,65,66,76,69,68,32,83,84,68,95,79,70,70,0
0000131f 5f54454e 
00001323 434f5250 
00001327 49535345 
0000132b 435f474e 
0000132f 45434e41 
00001333 54414c4c 
00001337 5f4e4f49 
0000133b 42414e45 
0000133f 2044454c 
00001343 5f445453 
00001347 0046464f 
0000134b 01        10029 	.data.b	1
0000134c 6a        10030 	.data.b	106
0000134d 5f4d4344  10031 	.data.b	68,67,77,95,83,84,65,84,69,95,83,69,67,85,82,73,84,89,95,69,88,84,95,83,69,84,84,69,82,95,69,78,65,66,76,69,68,32,83,84,68,95,79,70,70,0
00001351 54415453 
00001355 45535f45 
00001359 49525543 
0000135d 455f5954 
00001361 535f5458 
00001365 45545445 
00001369 4e455f52 
0000136d 454c4241 
00001371 54532044 
00001375 464f5f44 
00001379 0046 
0000137b 01        10032 	.data.b	1
0000137c 028b      10033 	.data.b	139,2
0000137e 5f4d4344  10034 	.data.b	68,67,77,95,85,83,69,68,95,80,68,85,82,95,65,80,73,95,65,82,95,86,69,82,83,73,79,78,32,68,67,77,95,80,68,85,82,95,65,80,73,95,65,82,95,86,69,82,83,73,79,78,0
00001382 44455355 
00001386 5544505f 
0000138a 50415f52 
0000138e 52415f49 
00001392 5245565f 
00001396 4e4f4953 
0000139a 4d434420 
0000139e 5544505f 
000013a2 50415f52 
000013a6 52415f49 
000013aa 5245565f 
000013ae 4e4f4953 
000013b2 00 
000013b3 01        10035 	.data.b	1
000013b4 0293      10036 	.data.b	147,2
000013b6 5f4d4344  10037 	.data.b	68,67,77,95,80,68,85,82,95,65,80,73,95,52,49,50,95,69,78,65,66,76,69,68,32,83,84,68,95,79,78,0
000013ba 52554450 
000013be 4950415f 
000013c2 3231345f 
000013c6 414e455f 
000013ca 44454c42 
000013ce 44545320 
000013d2 004e4f5f 
000013d6 01        10038 	.data.b	1
000013d7 0299      10039 	.data.b	153,2

                                                                      Page 224
                                                              C:\Users\Fengyuan\AppData\Local\Temp\gh_0000p9o1.s
000013d9 5f4d4344  10040 	.data.b	68,67,77,95,80,68,85,82,95,65,80,73,95,52,48,49,95,69,78,65,66,76,69,68,32,83,84,68,95,79,70,70,0
000013dd 52554450 
000013e1 4950415f 
000013e5 3130345f 
000013e9 414e455f 
000013ed 44454c42 
000013f1 44545320 
000013f5 46464f5f 
000013f9 00 
000013fa 01        10041 	.data.b	1
000013fb 029c      10042 	.data.b	156,2
000013fd 5f4d4344  10043 	.data.b	68,67,77,95,80,68,85,82,95,65,80,73,95,52,48,51,95,69,78,65,66,76,69,68,32,83,84,68,95,79,70,70,0
00001401 52554450 
00001405 4950415f 
00001409 3330345f 
0000140d 414e455f 
00001411 44454c42 
00001415 44545320 
00001419 46464f5f 
0000141d 00 
0000141e 01        10044 	.data.b	1
0000141f 02a3      10045 	.data.b	163,2
00001421 5f4d4344  10046 	.data.b	68,67,77,95,78,69,84,95,84,79,66,74,95,65,68,68,66,85,70,70,69,82,95,83,73,90,69,32,51,117,0
00001425 5f54454e 
00001429 4a424f54 
0000142d 4444415f 
00001431 46465542 
00001435 535f5245 
00001439 20455a49 
0000143d 007533 
00001440 01        10047 	.data.b	1
00001441 02ca      10048 	.data.b	202,2
00001443 5f6d6344  10049 	.data.b	68,99,109,95,85,116,105,80,97,105,114,84,121,112,101,40,102,105,114,115,116,84,121,112,101,44,115,101,99,111,110,100,84,121,112,101,41,32,115,116,114,117,99,116,32,123,32,102,105,114,115,116,84,121,112,101,32,70,105,114
00001447 50697455 
0000144b 54726961 
0000144f 28657079 
00001453 73726966 
00001457 70795474 
0000145b 65732c65 
0000145f 646e6f63 
00001463 65707954 
00001467 74732029 
0000146b 74637572 
0000146f 66207b20 
00001473 74737269 
00001477 65707954 
0000147b 72694620 
0000147f 203b7473  10050 	.data.b	115,116,59,32,115,101,99,111,110,100,84,121,112,101,32,83,101,99,111,110,100,59,32,125,0
00001483 6f636573 
00001487 7954646e 
0000148b 53206570 
0000148f 6e6f6365 
00001493 7d203b64 
00001497 00 
00001498 01        10051 	.data.b	1
00001499 03af      10052 	.data.b	175,3
0000149b 5f6d6344  10053 	.data.b	68,99,109,95,78,101,116,65,114,69,110,118,78,111,116,105,102,82,101,115,117,108,116,84,121,112,101,32,83,116,100,95,82,101,116,117,114,110,84,121,112,101,0
0000149f 4174654e 
000014a3 766e4572 
000014a7 69746f4e 
000014ab 73655266 

                                                                      Page 225
                                                              C:\Users\Fengyuan\AppData\Local\Temp\gh_0000p9o1.s
000014af 54746c75 
000014b3 20657079 
000014b7 5f647453 
000014bb 75746552 
000014bf 79546e72 
000014c3 006570 
000014c6 04        10054 	.data.b	4
000014c7 04        10055 	.data.b	4
000014c8 03        10056 	.data.b	3
000014c9 23        10057 	.data.b	35
000014ca 27        10058 	.data.b	39
000014cb 04        10059 	.data.b	4
000014cc 03        10060 	.data.b	3
000014cd 24        10061 	.data.b	36
000014ce 28        10062 	.data.b	40
000014cf 04        10063 	.data.b	4
000014d0 03        10064 	.data.b	3
000014d1 25        10065 	.data.b	37
000014d2 29        10066 	.data.b	41
000014d3 03        10067 	.data.b	3
000014d4 2c        10068 	.data.b	44
000014d5 19        10069 	.data.b	25
000014d6 04        10070 	.data.b	4
000014d7 03        10071 	.data.b	3
000014d8 038d      10072 	.data.b	141,3
000014da 19        10073 	.data.b	25
000014db 04        10074 	.data.b	4
000014dc 04        10075 	.data.b	4
000014dd 04        10076 	.data.b	4
000014de 03        10077 	.data.b	3
000014df 0394      10078 	.data.b	148,3
000014e1 2a        10079 	.data.b	42
000014e2 03        10080 	.data.b	3
000014e3 27        10081 	.data.b	39
000014e4 2b        10082 	.data.b	43
000014e5 01        10083 	.data.b	1
000014e6 03d3      10084 	.data.b	211,3
000014e8 5f4d4544  10085 	.data.b	68,69,77,95,72,32,0
000014ec 002048 
000014ef 03        10086 	.data.b	3
000014f0 03dc      10087 	.data.b	220,3
000014f2 2c        10088 	.data.b	44
000014f3 01        10089 	.data.b	1
000014f4 35        10090 	.data.b	53
000014f5 5f4d4544  10091 	.data.b	68,69,77,95,84,89,80,69,83,95,72,32,0
000014f9 45505954 
000014fd 20485f53 
00001501 00 
00001502 03        10092 	.data.b	3
00001503 42        10093 	.data.b	66
00001504 2d        10094 	.data.b	45
00001505 01        10095 	.data.b	1
00001506 56        10096 	.data.b	86
00001507 5f4d4544  10097 	.data.b	68,69,77,95,67,70,71,95,86,65,82,73,65,78,84,95,80,79,83,84,66,85,73,76,68,95,76,79,65,68,65,66,76,69,32,83,84,68,95,79,70,70,0
0000150b 5f474643 
0000150f 49524156 
00001513 5f544e41 
00001517 54534f50 
0000151b 4c495542 
0000151f 4f4c5f44 
00001523 42414441 

                                                                      Page 226
                                                              C:\Users\Fengyuan\AppData\Local\Temp\gh_0000p9o1.s
00001527 5320454c 
0000152b 4f5f4454 
0000152f 004646 
00001532 01        10098 	.data.b	1
00001533 57        10099 	.data.b	87
00001534 5f4d4544  10100 	.data.b	68,69,77,95,67,70,71,95,86,65,82,73,65,78,84,95,80,79,83,84,66,85,73,76,68,95,83,69,76,69,67,84,65,66,76,69,32,83,84,68,95,79,70,70,0
00001538 5f474643 
0000153c 49524156 
00001540 5f544e41 
00001544 54534f50 
00001548 4c495542 
0000154c 45535f44 
00001550 5443454c 
00001554 454c4241 
00001558 44545320 
0000155c 46464f5f 
00001560 00 
00001561 01        10101 	.data.b	1
00001562 61        10102 	.data.b	97
00001563 5f4d4544  10103 	.data.b	68,69,77,95,67,70,71,95,83,85,80,80,79,82,84,95,68,69,66,79,85,78,67,69,95,84,73,77,69,95,72,82,32,83,84,68,95,79,70,70,0
00001567 5f474643 
0000156b 50505553 
0000156f 5f54524f 
00001573 4f424544 
00001577 45434e55 
0000157b 4d49545f 
0000157f 52485f45 
00001583 44545320 
00001587 46464f5f 
0000158b 00 
0000158c 01        10104 	.data.b	1
0000158d 62        10105 	.data.b	98
0000158e 5f4d4544  10106 	.data.b	68,69,77,95,67,70,71,95,83,85,80,80,79,82,84,95,68,69,66,79,85,78,67,69,95,84,73,77,69,95,76,82,32,83,84,68,95,79,70,70,0
00001592 5f474643 
00001596 50505553 
0000159a 5f54524f 
0000159e 4f424544 
000015a2 45434e55 
000015a6 4d49545f 
000015aa 524c5f45 
000015ae 44545320 
000015b2 46464f5f 
000015b6 00 
000015b7 01        10107 	.data.b	1
000015b8 65        10108 	.data.b	101
000015b9 5f4d4544  10109 	.data.b	68,69,77,95,67,70,71,95,65,71,73,78,71,95,48,48,95,83,84,65,82,84,95,84,69,83,84,83,95,84,70,84,79,67,32,83,84,68,95,79,70,70,0
000015bd 5f474643 
000015c1 4e494741 
000015c5 30305f47 
000015c9 4154535f 
000015cd 545f5452 
000015d1 53545345 
000015d5 5446545f 
000015d9 5320434f 
000015dd 4f5f4454 
000015e1 004646 
000015e4 01        10110 	.data.b	1
000015e5 66        10111 	.data.b	102
000015e6 5f4d4544  10112 	.data.b	68,69,77,95,67,70,71,95,65,71,73,78,71,95,48,48,95,83,84,65,82,84,95,84,82,73,71,71,69,82,95,80,65,83,83,69,68,32,83,84,68,95,79,78,0
000015ea 5f474643 
000015ee 4e494741 

                                                                      Page 227
                                                              C:\Users\Fengyuan\AppData\Local\Temp\gh_0000p9o1.s
000015f2 30305f47 
000015f6 4154535f 
000015fa 545f5452 
000015fe 47474952 
00001602 505f5245 
00001606 45535341 
0000160a 54532044 
0000160e 4e4f5f44 
00001612 00 
00001613 01        10113 	.data.b	1
00001614 67        10114 	.data.b	103
00001615 5f4d4544  10115 	.data.b	68,69,77,95,67,70,71,95,65,71,73,78,71,95,65,70,84,69,82,95,72,69,65,76,73,78,71,32,83,84,68,95,79,70,70,0
00001619 5f474643 
0000161d 4e494741 
00001621 46415f47 
00001625 5f524554 
00001629 4c414548 
0000162d 20474e49 
00001631 5f445453 
00001635 0046464f 
00001639 01        10116 	.data.b	1
0000163a 68        10117 	.data.b	104
0000163b 5f4d4544  10118 	.data.b	68,69,77,95,67,70,71,95,65,71,73,78,71,95,65,70,84,69,82,95,72,69,65,76,73,78,71,95,65,76,76,95,68,84,67,32,83,84,68,95,79,70,70,0
0000163f 5f474643 
00001643 4e494741 
00001647 46415f47 
0000164b 5f524554 
0000164f 4c414548 
00001653 5f474e49 
00001657 5f4c4c41 
0000165b 20435444 
0000165f 5f445453 
00001663 0046464f 
00001667 01        10119 	.data.b	1
00001668 6a        10120 	.data.b	106
00001669 5f4d4544  10121 	.data.b	68,69,77,95,67,70,71,95,65,71,73,78,71,95,78,69,88,84,95,84,69,83,84,83,95,84,70,84,79,67,32,83,84,68,95,79,70,70,0
0000166d 5f474643 
00001671 4e494741 
00001675 454e5f47 
00001679 545f5458 
0000167d 53545345 
00001681 5446545f 
00001685 5320434f 
00001689 4f5f4454 
0000168d 004646 
00001690 01        10122 	.data.b	1
00001691 6b        10123 	.data.b	107
00001692 5f4d4544  10124 	.data.b	68,69,77,95,67,70,71,95,65,71,73,78,71,95,78,69,88,84,95,84,69,83,84,83,95,84,78,67,84,79,67,32,83,84,68,95,79,70,70,0
00001696 5f474643 
0000169a 4e494741 
0000169e 454e5f47 
000016a2 545f5458 
000016a6 53545345 
000016aa 434e545f 
000016ae 20434f54 
000016b2 5f445453 
000016b6 0046464f 
000016ba 01        10125 	.data.b	1
000016bb 6e        10126 	.data.b	110
000016bc 5f4d4544  10127 	.data.b	68,69,77,95,67,70,71,95,65,71,73,78,71,95,83,84,65,82,84,95,84,69,83,84,83,95,84,70,84,79,67,32,83,84,68,95,79,70,70,0
000016c0 5f474643 

                                                                      Page 228
                                                              C:\Users\Fengyuan\AppData\Local\Temp\gh_0000p9o1.s
000016c4 4e494741 
000016c8 54535f47 
000016cc 5f545241 
000016d0 54534554 
000016d4 46545f53 
000016d8 20434f54 
000016dc 5f445453 
000016e0 0046464f 
000016e4 01        10128 	.data.b	1
000016e5 6f        10129 	.data.b	111
000016e6 5f4d4544  10130 	.data.b	68,69,77,95,67,70,71,95,65,71,73,78,71,95,83,84,65,82,84,95,84,82,73,71,71,69,82,95,80,65,83,83,69,68,32,83,84,68,95,79,78,0
000016ea 5f474643 
000016ee 4e494741 
000016f2 54535f47 
000016f6 5f545241 
000016fa 47495254 
000016fe 5f524547 
00001702 53534150 
00001706 53204445 
0000170a 4f5f4454 
0000170e 004e 
00001710 01        10131 	.data.b	1
00001711 77        10132 	.data.b	119
00001712 5f4d4544  10133 	.data.b	68,69,77,95,67,70,71,95,67,65,80,84,85,82,69,95,69,88,84,68,65,84,65,95,84,69,83,84,70,65,73,76,69,68,32,83,84,68,95,79,70,70,0
00001716 5f474643 
0000171a 54504143 
0000171e 5f455255 
00001722 44545845 
00001726 5f415441 
0000172a 54534554 
0000172e 4c494146 
00001732 53204445 
00001736 4f5f4454 
0000173a 004646 
0000173d 01        10134 	.data.b	1
0000173e 79        10135 	.data.b	121
0000173f 5f4d4544  10136 	.data.b	68,69,77,95,67,70,71,95,67,65,80,84,85,82,69,95,70,82,69,69,90,69,70,95,84,69,83,84,70,65,73,76,69,68,32,83,84,68,95,79,70,70,0
00001743 5f474643 
00001747 54504143 
0000174b 5f455255 
0000174f 45455246 
00001753 5f46455a 
00001757 54534554 
0000175b 4c494146 
0000175f 53204445 
00001763 4f5f4454 
00001767 004646 
0000176a 01        10137 	.data.b	1
0000176b 7a        10138 	.data.b	122
0000176c 5f4d4544  10139 	.data.b	68,69,77,95,67,70,71,95,67,76,69,65,82,95,65,76,76,95,68,84,67,83,32,83,84,68,95,79,78,0
00001770 5f474643 
00001774 41454c43 
00001778 4c415f52 
0000177c 54445f4c 
00001780 53205343 
00001784 4f5f4454 
00001788 004e 
0000178a 01        10140 	.data.b	1
0000178b 7b        10141 	.data.b	123
0000178c 5f4d4544  10142 	.data.b	68,69,77,95,67,70,71,95,67,76,69,65,82,95,71,82,79,85,80,95,68,84,67,83,32,83,84,68,95,79,78,0
00001790 5f474643 

                                                                      Page 229
                                                              C:\Users\Fengyuan\AppData\Local\Temp\gh_0000p9o1.s
00001794 41454c43 
00001798 52475f52 
0000179c 5f50554f 
000017a0 53435444 
000017a4 44545320 
000017a8 004e4f5f 
000017ac 01        10143 	.data.b	1
000017ad 7c        10144 	.data.b	124
000017ae 5f4d4544  10145 	.data.b	68,69,77,95,67,70,71,95,67,76,69,65,82,95,73,77,77,69,68,73,65,84,69,95,82,69,83,80,79,78,83,69,32,83,84,68,95,79,78,0
000017b2 5f474643 
000017b6 41454c43 
000017ba 4d495f52 
000017be 4944454d 
000017c2 5f455441 
000017c6 50534552 
000017ca 45534e4f 
000017ce 44545320 
000017d2 004e4f5f 
000017d6 01        10146 	.data.b	1
000017d7 7d        10147 	.data.b	125
000017d8 5f4d4544  10148 	.data.b	68,69,77,95,67,70,71,95,67,76,69,65,82,95,78,86,95,69,78,68,95,82,69,83,80,79,78,83,69,32,83,84,68,95,79,70,70,0
000017dc 5f474643 
000017e0 41454c43 
000017e4 564e5f52 
000017e8 444e455f 
000017ec 5345525f 
000017f0 534e4f50 
000017f4 54532045 
000017f8 464f5f44 
000017fc 0046 
000017fe 01        10149 	.data.b	1
000017ff 7e        10150 	.data.b	126
00001800 5f4d4544  10151 	.data.b	68,69,77,95,67,70,71,95,67,76,69,65,82,95,78,86,95,83,84,65,82,84,95,82,69,83,80,79,78,83,69,32,83,84,68,95,79,70,70,0
00001804 5f474643 
00001808 41454c43 
0000180c 564e5f52 
00001810 4154535f 
00001814 525f5452 
00001818 4f505345 
0000181c 2045534e 
00001820 5f445453 
00001824 0046464f 
00001828 01        10152 	.data.b	1
00001829 7f        10153 	.data.b	127
0000182a 5f4d4544  10154 	.data.b	68,69,77,95,67,70,71,95,67,76,69,65,82,95,79,66,68,73,73,95,71,82,79,85,80,95,68,84,67,83,32,83,84,68,95,79,78,0
0000182e 5f474643 
00001832 41454c43 
00001836 424f5f52 
0000183a 5f494944 
0000183e 554f5247 
00001842 54445f50 
00001846 53205343 
0000184a 4f5f4454 
0000184e 004e 
00001850 01        10155 	.data.b	1
00001851 0180      10156 	.data.b	128,1
00001853 5f4d4544  10157 	.data.b	68,69,77,95,67,70,71,95,67,76,69,65,82,95,82,69,73,78,73,84,95,66,69,70,79,82,69,95,82,69,83,80,79,78,83,69,32,83,84,68,95,79,78,0
00001857 5f474643 
0000185b 41454c43 
0000185f 45525f52 
00001863 54494e49 

                                                                      Page 230
                                                              C:\Users\Fengyuan\AppData\Local\Temp\gh_0000p9o1.s
00001867 4645425f 
0000186b 5f45524f 
0000186f 50534552 
00001873 45534e4f 
00001877 44545320 
0000187b 004e4f5f 
0000187f 01        10158 	.data.b	1
00001880 0181      10159 	.data.b	129,1
00001882 5f4d4544  10160 	.data.b	68,69,77,95,67,70,71,95,67,76,69,65,82,95,83,73,78,71,76,69,95,68,84,67,83,32,83,84,68,95,79,78,0
00001886 5f474643 
0000188a 41454c43 
0000188e 49535f52 
00001892 454c474e 
00001896 4354445f 
0000189a 54532053 
0000189e 4e4f5f44 
000018a2 00 
000018a3 01        10161 	.data.b	1
000018a4 0182      10162 	.data.b	130,1
000018a6 5f4d4544  10163 	.data.b	68,69,77,95,67,70,71,95,67,76,69,65,82,95,87,87,72,79,66,68,95,71,82,79,85,80,95,68,84,67,83,32,83,84,68,95,79,78,0
000018aa 5f474643 
000018ae 41454c43 
000018b2 57575f52 
000018b6 44424f48 
000018ba 4f52475f 
000018be 445f5055 
000018c2 20534354 
000018c6 5f445453 
000018ca 004e4f 
000018cd 01        10164 	.data.b	1
000018ce 0183      10165 	.data.b	131,1
000018d0 5f4d4544  10166 	.data.b	68,69,77,95,67,70,71,95,68,65,84,65,95,65,71,73,78,71,67,84,82,32,83,84,68,95,79,70,70,0
000018d4 5f474643 
000018d8 41544144 
000018dc 4947415f 
000018e0 5443474e 
000018e4 54532052 
000018e8 464f5f44 
000018ec 0046 
000018ee 01        10167 	.data.b	1
000018ef 0184      10168 	.data.b	132,1
000018f1 5f4d4544  10169 	.data.b	68,69,77,95,67,70,71,95,68,65,84,65,95,65,71,73,78,71,67,84,82,95,73,78,86,69,82,84,69,68,32,83,84,68,95,79,70,70,0
000018f5 5f474643 
000018f9 41544144 
000018fd 4947415f 
00001901 5443474e 
00001905 4e495f52 
00001909 54524556 
0000190d 53204445 
00001911 4f5f4454 
00001915 004646 
00001918 01        10170 	.data.b	1
00001919 0186      10171 	.data.b	134,1
0000191b 5f4d4544  10172 	.data.b	68,69,77,95,67,70,71,95,68,65,84,65,95,67,85,82,82,69,78,84,95,70,68,67,32,83,84,68,95,79,70,70,0
0000191f 5f474643 
00001923 41544144 
00001927 5255435f 
0000192b 544e4552 
0000192f 4344465f 
00001933 44545320 
00001937 46464f5f 

                                                                      Page 231
                                                              C:\Users\Fengyuan\AppData\Local\Temp\gh_0000p9o1.s
0000193b 00 
0000193c 01        10173 	.data.b	1
0000193d 0189      10174 	.data.b	137,1
0000193f 5f4d4544  10175 	.data.b	68,69,77,95,67,70,71,95,68,65,84,65,95,67,89,67,76,69,83,95,83,73,78,67,69,95,70,73,82,83,84,95,70,65,73,76,69,68,32,83,84,68,95,79,70,70,0
00001943 5f474643 
00001947 41544144 
0000194b 4359435f 
0000194f 5f53454c 
00001953 434e4953 
00001957 49465f45 
0000195b 5f545352 
0000195f 4c494146 
00001963 53204445 
00001967 4f5f4454 
0000196b 004646 
0000196e 01        10176 	.data.b	1
0000196f 018b      10177 	.data.b	139,1
00001971 5f4d4544  10178 	.data.b	68,69,77,95,67,70,71,95,68,65,84,65,95,67,89,67,76,69,83,95,83,73,78,67,69,95,76,65,83,84,95,70,65,73,76,69,68,32,83,84,68,95,79,70,70,0
00001975 5f474643 
00001979 41544144 
0000197d 4359435f 
00001981 5f53454c 
00001985 434e4953 
00001989 414c5f45 
0000198d 465f5453 
00001991 454c4941 
00001995 54532044 
00001999 464f5f44 
0000199d 0046 
0000199f 01        10179 	.data.b	1
000019a0 018e      10180 	.data.b	142,1
000019a2 5f4d4544  10181 	.data.b	68,69,77,95,67,70,71,95,68,65,84,65,95,67,89,67,76,69,83,95,84,69,83,84,69,68,95,83,73,78,67,69,95,76,65,83,84,95,70,65,73,76,69,68,32,83,84,68,95,79,70,70,0
000019a6 5f474643 
000019aa 41544144 
000019ae 4359435f 
000019b2 5f53454c 
000019b6 54534554 
000019ba 535f4445 
000019be 45434e49 
000019c2 53414c5f 
000019c6 41465f54 
000019ca 44454c49 
000019ce 44545320 
000019d2 46464f5f 
000019d6 00 
000019d7 01        10182 	.data.b	1
000019d8 018f      10183 	.data.b	143,1
000019da 5f4d4544  10184 	.data.b	68,69,77,95,67,70,71,95,68,65,84,65,95,68,65,71,95,69,88,84,69,78,68,69,68,95,69,78,86,95,68,65,84,65,32,83,84,68,95,79,70,70,0
000019de 5f474643 
000019e2 41544144 
000019e6 4741445f 
000019ea 5458455f 
000019ee 45444e45 
000019f2 4e455f44 
000019f6 41445f56 
000019fa 53204154 
000019fe 4f5f4454 
00001a02 004646 
00001a05 01        10185 	.data.b	1
00001a06 0190      10186 	.data.b	144,1
00001a08 5f4d4544  10187 	.data.b	68,69,77,95,67,70,71,95,68,65,84,65,95,68,65,71,95,83,84,65,78,68,65,82,68,95,69,78,86,95,68,65,84,65,32,83,84,68,95,79,70,70,0

                                                                      Page 232
                                                              C:\Users\Fengyuan\AppData\Local\Temp\gh_0000p9o1.s
00001a0c 5f474643 
00001a10 41544144 
00001a14 4741445f 
00001a18 4154535f 
00001a1c 5241444e 
00001a20 4e455f44 
00001a24 41445f56 
00001a28 53204154 
00001a2c 4f5f4454 
00001a30 004646 
00001a33 01        10188 	.data.b	1
00001a34 0193      10189 	.data.b	147,1
00001a36 5f4d4544  10190 	.data.b	68,69,77,95,67,70,71,95,68,65,84,65,95,72,69,65,76,73,78,71,67,84,82,95,68,79,87,78,67,78,84,32,83,84,68,95,79,70,70,0
00001a3a 5f474643 
00001a3e 41544144 
00001a42 4145485f 
00001a46 474e494c 
00001a4a 5f525443 
00001a4e 4e574f44 
00001a52 20544e43 
00001a56 5f445453 
00001a5a 0046464f 
00001a5e 01        10191 	.data.b	1
00001a5f 0194      10192 	.data.b	148,1
00001a61 5f4d4544  10193 	.data.b	68,69,77,95,67,70,71,95,68,65,84,65,95,77,65,88,95,70,68,67,95,68,85,82,73,78,71,95,67,85,82,82,69,78,84,95,67,89,67,76,69,32,83,84,68,95,79,70,70,0
00001a65 5f474643 
00001a69 41544144 
00001a6d 58414d5f 
00001a71 4344465f 
00001a75 5255445f 
00001a79 5f474e49 
00001a7d 52525543 
00001a81 5f544e45 
00001a85 4c435943 
00001a89 54532045 
00001a8d 464f5f44 
00001a91 0046 
00001a93 01        10194 	.data.b	1
00001a94 0195      10195 	.data.b	149,1
00001a96 5f4d4544  10196 	.data.b	68,69,77,95,67,70,71,95,68,65,84,65,95,77,65,88,95,70,68,67,95,83,73,78,67,69,95,76,65,83,84,95,67,76,69,65,82,32,83,84,68,95,79,70,70,0
00001a9a 5f474643 
00001a9e 41544144 
00001aa2 58414d5f 
00001aa6 4344465f 
00001aaa 4e49535f 
00001aae 4c5f4543 
00001ab2 5f545341 
00001ab6 41454c43 
00001aba 54532052 
00001abe 464f5f44 
00001ac2 0046 
00001ac4 01        10197 	.data.b	1
00001ac5 0199      10198 	.data.b	153,1
00001ac7 5f4d4544  10199 	.data.b	68,69,77,95,67,70,71,95,68,65,84,65,95,79,67,67,67,84,82,32,83,84,68,95,79,70,70,0
00001acb 5f474643 
00001acf 41544144 
00001ad3 43434f5f 
00001ad7 20525443 
00001adb 5f445453 
00001adf 0046464f 
00001ae3 01        10200 	.data.b	1

                                                                      Page 233
                                                              C:\Users\Fengyuan\AppData\Local\Temp\gh_0000p9o1.s
00001ae4 019a      10201 	.data.b	154,1
00001ae6 5f4d4544  10202 	.data.b	68,69,77,95,67,70,71,95,68,65,84,65,95,79,67,67,67,84,82,95,50,66,89,84,69,32,83,84,68,95,79,70,70,0
00001aea 5f474643 
00001aee 41544144 
00001af2 43434f5f 
00001af6 5f525443 
00001afa 54594232 
00001afe 54532045 
00001b02 464f5f44 
00001b06 0046 
00001b08 01        10203 	.data.b	1
00001b09 019b      10204 	.data.b	155,1
00001b0b 5f4d4544  10205 	.data.b	68,69,77,95,67,70,71,95,68,65,84,65,95,79,86,70,76,73,78,68,32,83,84,68,95,79,70,70,0
00001b0f 5f474643 
00001b13 41544144 
00001b17 46564f5f 
00001b1b 444e494c 
00001b1f 44545320 
00001b23 46464f5f 
00001b27 00 
00001b28 01        10206 	.data.b	1
00001b29 01a0      10207 	.data.b	160,1
00001b2b 5f4d4544  10208 	.data.b	68,69,77,95,67,70,71,95,68,73,83,80,76,65,67,69,77,69,78,84,95,70,65,76,76,66,65,67,75,95,79,76,68,69,83,84,32,83,84,68,95,79,70,70,0
00001b2f 5f474643 
00001b33 50534944 
00001b37 4543414c 
00001b3b 544e454d 
00001b3f 4c41465f 
00001b43 4341424c 
00001b47 4c4f5f4b 
00001b4b 54534544 
00001b4f 44545320 
00001b53 46464f5f 
00001b57 00 
00001b58 01        10209 	.data.b	1
00001b59 01a1      10210 	.data.b	161,1
00001b5b 5f4d4544  10211 	.data.b	68,69,77,95,67,70,71,95,68,73,83,80,76,65,67,69,77,69,78,84,95,80,82,69,70,69,82,95,80,65,83,83,73,86,69,32,83,84,68,95,79,78,0
00001b5f 5f474643 
00001b63 50534944 
00001b67 4543414c 
00001b6b 544e454d 
00001b6f 4552505f 
00001b73 5f524546 
00001b77 53534150 
00001b7b 20455649 
00001b7f 5f445453 
00001b83 004e4f 
00001b86 01        10212 	.data.b	1
00001b87 01a2      10213 	.data.b	162,1
00001b89 5f4d4544  10214 	.data.b	68,69,77,95,67,70,71,95,68,73,83,80,76,65,67,69,77,69,78,84,95,84,78,67,84,79,67,95,73,83,95,80,65,83,83,73,86,69,32,83,84,68,95,79,70,70,0
00001b8d 5f474643 
00001b91 50534944 
00001b95 4543414c 
00001b99 544e454d 
00001b9d 434e545f 
00001ba1 5f434f54 
00001ba5 505f5349 
00001ba9 49535341 
00001bad 53204556 
00001bb1 4f5f4454 
00001bb5 004646 

                                                                      Page 234
                                                              C:\Users\Fengyuan\AppData\Local\Temp\gh_0000p9o1.s
00001bb8 01        10215 	.data.b	1
00001bb9 01a3      10216 	.data.b	163,1
00001bbb 5f4d4544  10217 	.data.b	68,69,77,95,67,70,71,95,72,65,83,95,74,49,57,51,57,95,78,79,68,69,32,83,84,68,95,79,70,70,0
00001bbf 5f474643 
00001bc3 5f534148 
00001bc7 3339314a 
00001bcb 4f4e5f39 
00001bcf 53204544 
00001bd3 4f5f4454 
00001bd7 004646 
00001bda 01        10218 	.data.b	1
00001bdb 01a5      10219 	.data.b	165,1
00001bdd 5f4d4544  10220 	.data.b	68,69,77,95,67,70,71,95,73,83,67,79,78,83,84,95,65,86,65,73,76,65,66,76,69,73,78,86,65,82,73,65,78,84,32,83,84,68,95,79,78,0
00001be1 5f474643 
00001be5 4f435349 
00001be9 5f54534e 
00001bed 49415641 
00001bf1 4c42414c 
00001bf5 564e4945 
00001bf9 41495241 
00001bfd 5320544e 
00001c01 4f5f4454 
00001c05 004e 
00001c07 01        10221 	.data.b	1
00001c08 01b4      10222 	.data.b	180,1
00001c0a 5f4d4544  10223 	.data.b	68,69,77,95,67,70,71,95,78,79,84,73,70,89,95,74,49,57,51,57,68,67,77,32,83,84,68,95,79,70,70,0
00001c0e 5f474643 
00001c12 49544f4e 
00001c16 4a5f5946 
00001c1a 39333931 
00001c1e 204d4344 
00001c22 5f445453 
00001c26 0046464f 
00001c2a 01        10224 	.data.b	1
00001c2b 01b5      10225 	.data.b	181,1
00001c2d 5f4d4544  10226 	.data.b	68,69,77,95,67,70,71,95,78,79,84,73,70,89,95,74,49,57,51,57,68,84,67,95,83,84,65,84,85,83,32,83,84,68,95,79,70,70,0
00001c31 5f474643 
00001c35 49544f4e 
00001c39 4a5f5946 
00001c3d 39333931 
00001c41 5f435444 
00001c45 54415453 
00001c49 53205355 
00001c4d 4f5f4454 
00001c51 004646 
00001c54 01        10227 	.data.b	1
00001c55 01b7      10228 	.data.b	183,1
00001c57 5f4d4544  10229 	.data.b	68,69,77,95,67,70,71,95,80,82,79,67,69,83,83,95,67,68,84,67,95,65,76,76,95,68,84,67,32,83,84,68,95,79,70,70,0
00001c5b 5f474643 
00001c5f 434f5250 
00001c63 5f535345 
00001c67 43544443 
00001c6b 4c4c415f 
00001c6f 4354445f 
00001c73 44545320 
00001c77 46464f5f 
00001c7b 00 
00001c7c 01        10230 	.data.b	1
00001c7d 01b8      10231 	.data.b	184,1
00001c7f 5f4d4544  10232 	.data.b	68,69,77,95,67,70,71,95,80,82,79,67,69,83,83,95,67,68,84,67,95,83,84,79,82,69,68,79,78,76,89,32,83,84,68,95,79,78,0
00001c83 5f474643 

                                                                      Page 235
                                                              C:\Users\Fengyuan\AppData\Local\Temp\gh_0000p9o1.s
00001c87 434f5250 
00001c8b 5f535345 
00001c8f 43544443 
00001c93 4f54535f 
00001c97 4f444552 
00001c9b 20594c4e 
00001c9f 5f445453 
00001ca3 004e4f 
00001ca6 01        10233 	.data.b	1
00001ca7 01b9      10234 	.data.b	185,1
00001ca9 5f4d4544  10235 	.data.b	68,69,77,95,67,70,71,95,80,82,79,67,69,83,83,95,79,67,67,84,82,95,67,79,78,70,73,82,77,69,68,32,83,84,68,95,79,70,70,0
00001cad 5f474643 
00001cb1 434f5250 
00001cb5 5f535345 
00001cb9 5443434f 
00001cbd 4f435f52 
00001cc1 5249464e 
00001cc5 2044454d 
00001cc9 5f445453 
00001ccd 0046464f 
00001cd1 01        10236 	.data.b	1
00001cd2 01ba      10237 	.data.b	186,1
00001cd4 5f4d4544  10238 	.data.b	68,69,77,95,67,70,71,95,80,82,79,67,69,83,83,95,79,67,67,84,82,95,84,69,83,84,70,65,73,76,69,68,32,83,84,68,95,79,78,0
00001cd8 5f474643 
00001cdc 434f5250 
00001ce0 5f535345 
00001ce4 5443434f 
00001ce8 45545f52 
00001cec 41465453 
00001cf0 44454c49 
00001cf4 44545320 
00001cf8 004e4f5f 
00001cfc 01        10239 	.data.b	1
00001cfd 01bb      10240 	.data.b	187,1
00001cff 5f4d4544  10241 	.data.b	68,69,77,95,67,70,71,95,80,82,79,67,69,83,83,95,80,68,84,67,95,65,76,76,95,68,84,67,32,83,84,68,95,79,70,70,0
00001d03 5f474643 
00001d07 434f5250 
00001d0b 5f535345 
00001d0f 43544450 
00001d13 4c4c415f 
00001d17 4354445f 
00001d1b 44545320 
00001d1f 46464f5f 
00001d23 00 
00001d24 01        10242 	.data.b	1
00001d25 01bc      10243 	.data.b	188,1
00001d27 5f4d4544  10244 	.data.b	68,69,77,95,67,70,71,95,80,82,79,67,69,83,83,95,80,68,84,67,95,83,84,79,82,69,68,79,78,76,89,32,83,84,68,95,79,78,0
00001d2b 5f474643 
00001d2f 434f5250 
00001d33 5f535345 
00001d37 43544450 
00001d3b 4f54535f 
00001d3f 4f444552 
00001d43 20594c4e 
00001d47 5f445453 
00001d4b 004e4f 
00001d4e 01        10245 	.data.b	1
00001d4f 01bd      10246 	.data.b	189,1
00001d51 5f4d4544  10247 	.data.b	68,69,77,95,67,70,71,95,80,82,79,67,69,83,83,95,80,73,68,52,49,95,67,79,77,80,82,69,72,69,78,83,73,86,69,95,67,79,77,80,76,69,84,69,32,83,84,68,95,79,70,70,0
00001d55 5f474643 
00001d59 434f5250 

                                                                      Page 236
                                                              C:\Users\Fengyuan\AppData\Local\Temp\gh_0000p9o1.s
00001d5d 5f535345 
00001d61 34444950 
00001d65 4f435f31 
00001d69 4552504d 
00001d6d 534e4548 
00001d71 5f455649 
00001d75 504d4f43 
00001d79 4554454c 
00001d7d 44545320 
00001d81 46464f5f 
00001d85 00 
00001d86 01        10248 	.data.b	1
00001d87 01be      10249 	.data.b	190,1
00001d89 5f4d4544  10250 	.data.b	68,69,77,95,67,70,71,95,80,82,79,67,69,83,83,95,84,70,83,76,67,95,65,76,76,95,68,84,67,32,83,84,68,95,79,70,70,0
00001d8d 5f474643 
00001d91 434f5250 
00001d95 5f535345 
00001d99 4c534654 
00001d9d 4c415f43 
00001da1 54445f4c 
00001da5 54532043 
00001da9 464f5f44 
00001dad 0046 
00001daf 01        10251 	.data.b	1
00001db0 01bf      10252 	.data.b	191,1
00001db2 5f4d4544  10253 	.data.b	68,69,77,95,67,70,71,95,80,82,79,67,69,83,83,95,84,70,83,76,67,95,67,76,69,65,82,79,78,76,89,32,83,84,68,95,79,78,0
00001db6 5f474643 
00001dba 434f5250 
00001dbe 5f535345 
00001dc2 4c534654 
00001dc6 4c435f43 
00001dca 4f524145 
00001dce 20594c4e 
00001dd2 5f445453 
00001dd6 004e4f 
00001dd9 01        10254 	.data.b	1
00001dda 01c0      10255 	.data.b	192,1
00001ddc 5f4d4544  10256 	.data.b	68,69,77,95,67,70,71,95,80,82,79,67,69,83,83,95,84,70,83,76,67,95,83,84,79,82,69,68,79,78,76,89,32,83,84,68,95,79,70,70,0
00001de0 5f474643 
00001de4 434f5250 
00001de8 5f535345 
00001dec 4c534654 
00001df0 54535f43 
00001df4 4445524f 
00001df8 594c4e4f 
00001dfc 44545320 
00001e00 46464f5f 
00001e04 00 
00001e05 01        10257 	.data.b	1
00001e06 01c1      10258 	.data.b	193,1
00001e08 5f4d4544  10259 	.data.b	68,69,77,95,67,70,71,95,80,82,79,67,69,83,83,95,87,73,82,95,65,76,76,95,68,84,67,32,83,84,68,95,79,70,70,0
00001e0c 5f474643 
00001e10 434f5250 
00001e14 5f535345 
00001e18 5f524957 
00001e1c 5f4c4c41 
00001e20 20435444 
00001e24 5f445453 
00001e28 0046464f 
00001e2c 01        10260 	.data.b	1
00001e2d 01c2      10261 	.data.b	194,1

                                                                      Page 237
                                                              C:\Users\Fengyuan\AppData\Local\Temp\gh_0000p9o1.s
00001e2f 5f4d4544  10262 	.data.b	68,69,77,95,67,70,71,95,80,82,79,67,69,83,83,95,87,73,82,95,83,84,79,82,69,68,79,78,76,89,32,83,84,68,95,79,78,0
00001e33 5f474643 
00001e37 434f5250 
00001e3b 5f535345 
00001e3f 5f524957 
00001e43 524f5453 
00001e47 4e4f4445 
00001e4b 5320594c 
00001e4f 4f5f4454 
00001e53 004e 
00001e55 01        10263 	.data.b	1
00001e56 01c3      10264 	.data.b	195,1
00001e58 5f4d4544  10265 	.data.b	68,69,77,95,67,70,71,95,82,69,80,79,82,84,95,66,76,73,78,75,73,78,71,95,77,73,76,95,65,83,95,65,67,84,73,86,69,32,83,84,68,95,79,78,0
00001e5c 5f474643 
00001e60 4f504552 
00001e64 425f5452 
00001e68 4b4e494c 
00001e6c 5f474e49 
00001e70 5f4c494d 
00001e74 415f5341 
00001e78 56495443 
00001e7c 54532045 
00001e80 4e4f5f44 
00001e84 00 
00001e85 01        10266 	.data.b	1
00001e86 01c4      10267 	.data.b	196,1
00001e88 5f4d4544  10268 	.data.b	68,69,77,95,67,70,71,95,82,69,83,69,84,95,68,69,66,79,85,78,67,69,95,79,78,95,68,73,83,65,66,76,69,95,69,78,65,66,76,69,95,67,79,78,68,73,84,73,79,78,83,32,83,84,68,95,79,78,0
00001e8c 5f474643 
00001e90 45534552 
00001e94 45445f54 
00001e98 4e554f42 
00001e9c 4f5f4543 
00001ea0 49445f4e 
00001ea4 4c424153 
00001ea8 4e455f45 
00001eac 454c4241 
00001eb0 4e4f435f 
00001eb4 49544944 
00001eb8 20534e4f 
00001ebc 5f445453 
00001ec0 004e4f 
00001ec3 01        10269 	.data.b	1
00001ec4 01c5      10270 	.data.b	197,1
00001ec6 5f4d4544  10271 	.data.b	68,69,77,95,67,70,71,95,82,69,83,69,84,95,68,69,66,79,85,78,67,69,95,79,78,95,69,78,65,66,76,69,95,69,78,65,66,76,69,95,67,79,78,68,73,84,73,79,78,83,32,83,84,68,95,79,70,70,0
00001eca 5f474643 
00001ece 45534552 
00001ed2 45445f54 
00001ed6 4e554f42 
00001eda 4f5f4543 
00001ede 4e455f4e 
00001ee2 454c4241 
00001ee6 414e455f 
00001eea 5f454c42 
00001eee 444e4f43 
00001ef2 4f495449 
00001ef6 5320534e 
00001efa 4f5f4454 
00001efe 004646 
00001f01 01        10272 	.data.b	1
00001f02 01c6      10273 	.data.b	198,1
00001f04 5f4d4544  10274 	.data.b	68,69,77,95,67,70,71,95,83,65,70,69,95,66,83,87,95,77,79,68,69,32,83,84,68,95,79,70,70,0

                                                                      Page 238
                                                              C:\Users\Fengyuan\AppData\Local\Temp\gh_0000p9o1.s
00001f08 5f474643 
00001f0c 45464153 
00001f10 5753425f 
00001f14 444f4d5f 
00001f18 54532045 
00001f1c 464f5f44 
00001f20 0046 
00001f22 01        10275 	.data.b	1
00001f23 01c7      10276 	.data.b	199,1
00001f25 5f4d4544  10277 	.data.b	68,69,77,95,67,70,71,95,83,84,79,82,65,71,69,95,65,84,95,67,79,78,70,73,82,77,69,68,32,83,84,68,95,79,70,70,0
00001f29 5f474643 
00001f2d 524f5453 
00001f31 5f454741 
00001f35 435f5441 
00001f39 49464e4f 
00001f3d 44454d52 
00001f41 44545320 
00001f45 46464f5f 
00001f49 00 
00001f4a 01        10278 	.data.b	1
00001f4b 01c8      10279 	.data.b	200,1
00001f4d 5f4d4544  10280 	.data.b	68,69,77,95,67,70,71,95,83,84,79,82,65,71,69,95,65,84,95,70,65,73,76,69,68,32,83,84,68,95,79,78,0
00001f51 5f474643 
00001f55 524f5453 
00001f59 5f454741 
00001f5d 465f5441 
00001f61 454c4941 
00001f65 54532044 
00001f69 4e4f5f44 
00001f6d 00 
00001f6e 01        10281 	.data.b	1
00001f6f 01c9      10282 	.data.b	201,1
00001f71 5f4d4544  10283 	.data.b	68,69,77,95,67,70,71,95,83,84,79,82,65,71,69,95,65,84,95,70,68,67,32,83,84,68,95,79,70,70,0
00001f75 5f474643 
00001f79 524f5453 
00001f7d 5f454741 
00001f81 465f5441 
00001f85 53204344 
00001f89 4f5f4454 
00001f8d 004646 
00001f90 01        10284 	.data.b	1
00001f91 01ca      10285 	.data.b	202,1
00001f93 5f4d4544  10286 	.data.b	68,69,77,95,67,70,71,95,83,84,79,82,65,71,69,95,65,84,95,80,69,78,68,73,78,71,32,83,84,68,95,79,70,70,0
00001f97 5f474643 
00001f9b 524f5453 
00001f9f 5f454741 
00001fa3 505f5441 
00001fa7 49444e45 
00001fab 5320474e 
00001faf 4f5f4454 
00001fb3 004646 
00001fb6 01        10287 	.data.b	1
00001fb7 01cb      10288 	.data.b	203,1
00001fb9 5f4d4544  10289 	.data.b	68,69,77,95,67,70,71,95,83,85,80,80,79,82,84,95,65,87,76,32,83,84,68,95,79,70,70,0
00001fbd 5f474643 
00001fc1 50505553 
00001fc5 5f54524f 
00001fc9 204c5741 
00001fcd 5f445453 
00001fd1 0046464f 
00001fd5 01        10290 	.data.b	1

                                                                      Page 239
                                                              C:\Users\Fengyuan\AppData\Local\Temp\gh_0000p9o1.s
00001fd6 01cd      10291 	.data.b	205,1
00001fd8 5f4d4544  10292 	.data.b	68,69,77,95,67,70,71,95,83,85,80,80,79,82,84,95,67,76,69,65,82,95,80,68,84,67,95,78,79,95,80,70,67,32,83,84,68,95,79,70,70,0
00001fdc 5f474643 
00001fe0 50505553 
00001fe4 5f54524f 
00001fe8 41454c43 
00001fec 44505f52 
00001ff0 4e5f4354 
00001ff4 46505f4f 
00001ff8 54532043 
00001ffc 464f5f44 
00002000 0046 
00002002 01        10293 	.data.b	1
00002003 01ce      10294 	.data.b	206,1
00002005 5f4d4544  10295 	.data.b	68,69,77,95,67,70,71,95,83,85,80,80,79,82,84,95,67,76,69,65,82,95,84,69,83,84,70,65,73,76,69,68,95,79,78,95,79,80,67,89,67,76,69,32,83,84,68,95,79,70,70,0
00002009 5f474643 
0000200d 50505553 
00002011 5f54524f 
00002015 41454c43 
00002019 45545f52 
0000201d 41465453 
00002021 44454c49 
00002025 5f4e4f5f 
00002029 5943504f 
0000202d 20454c43 
00002031 5f445453 
00002035 0046464f 
00002039 01        10296 	.data.b	1
0000203a 01d0      10297 	.data.b	208,1
0000203c 5f4d4544  10298 	.data.b	68,69,77,95,67,70,71,95,83,85,80,80,79,82,84,95,67,79,78,70,73,82,77,69,68,95,83,84,79,82,65,71,69,95,70,82,69,69,90,69,95,70,82,65,77,69,32,83,84,68,95,79,70,70,0
00002040 5f474643 
00002044 50505553 
00002048 5f54524f 
0000204c 464e4f43 
00002050 454d5249 
00002054 54535f44 
00002058 4741524f 
0000205c 52465f45 
00002060 455a4545 
00002064 4152465f 
00002068 5320454d 
0000206c 4f5f4454 
00002070 004646 
00002073 01        10299 	.data.b	1
00002074 01d1      10300 	.data.b	209,1
00002076 5f4d4544  10301 	.data.b	68,69,77,95,67,70,71,95,83,85,80,80,79,82,84,95,67,79,78,70,73,82,77,69,68,95,86,73,83,73,66,76,69,95,70,82,69,69,90,69,95,70,82,65,77,69,32,83,84,68,95,79,70,70,0
0000207a 5f474643 
0000207e 50505553 
00002082 5f54524f 
00002086 464e4f43 
0000208a 454d5249 
0000208e 49565f44 
00002092 4c424953 
00002096 52465f45 
0000209a 455a4545 
0000209e 4152465f 
000020a2 5320454d 
000020a6 4f5f4454 
000020aa 004646 
000020ad 01        10302 	.data.b	1
000020ae 01d9      10303 	.data.b	217,1

                                                                      Page 240
                                                              C:\Users\Fengyuan\AppData\Local\Temp\gh_0000p9o1.s
000020b0 5f4d4544  10304 	.data.b	68,69,77,95,67,70,71,95,83,85,80,80,79,82,84,95,68,67,77,32,83,84,68,95,79,78,0
000020b4 5f474643 
000020b8 50505553 
000020bc 5f54524f 
000020c0 204d4344 
000020c4 5f445453 
000020c8 004e4f 
000020cb 01        10305 	.data.b	1
000020cc 01da      10306 	.data.b	218,1
000020ce 5f4d4544  10307 	.data.b	68,69,77,95,67,70,71,95,83,85,80,80,79,82,84,95,68,69,66,79,85,78,67,69,95,67,79,85,78,84,69,82,32,83,84,68,95,79,78,0
000020d2 5f474643 
000020d6 50505553 
000020da 5f54524f 
000020de 4f424544 
000020e2 45434e55 
000020e6 554f435f 
000020ea 5245544e 
000020ee 44545320 
000020f2 004e4f5f 
000020f6 01        10308 	.data.b	1
000020f7 01db      10309 	.data.b	219,1
000020f9 5f4d4544  10310 	.data.b	68,69,77,95,67,70,71,95,83,85,80,80,79,82,84,95,68,69,66,79,85,78,67,69,95,77,79,78,73,84,79,82,73,78,84,69,82,78,65,76,32,83,84,68,95,79,70,70,0
000020fd 5f474643 
00002101 50505553 
00002105 5f54524f 
00002109 4f424544 
0000210d 45434e55 
00002111 4e4f4d5f 
00002115 524f5449 
00002119 45544e49 
0000211d 4c414e52 
00002121 44545320 
00002125 46464f5f 
00002129 00 
0000212a 01        10311 	.data.b	1
0000212b 01dc      10312 	.data.b	220,1
0000212d 5f4d4544  10313 	.data.b	68,69,77,95,67,70,71,95,83,85,80,80,79,82,84,95,68,69,66,79,85,78,67,69,95,77,79,78,73,84,79,82,73,78,84,69,82,78,65,76,95,71,69,84,70,68,67,32,83,84,68,95,79,70,70,0
00002131 5f474643 
00002135 50505553 
00002139 5f54524f 
0000213d 4f424544 
00002141 45434e55 
00002145 4e4f4d5f 
00002149 524f5449 
0000214d 45544e49 
00002151 4c414e52 
00002155 5445475f 
00002159 20434446 
0000215d 5f445453 
00002161 0046464f 
00002165 01        10314 	.data.b	1
00002166 01dd      10315 	.data.b	221,1
00002168 5f4d4544  10316 	.data.b	68,69,77,95,67,70,71,95,83,85,80,80,79,82,84,95,68,69,66,79,85,78,67,69,95,78,86,32,83,84,68,95,79,70,70,0
0000216c 5f474643 
00002170 50505553 
00002174 5f54524f 
00002178 4f424544 
0000217c 45434e55 
00002180 20564e5f 
00002184 5f445453 
00002188 0046464f 

                                                                      Page 241
                                                              C:\Users\Fengyuan\AppData\Local\Temp\gh_0000p9o1.s
0000218c 01        10317 	.data.b	1
0000218d 01de      10318 	.data.b	222,1
0000218f 5f4d4544  10319 	.data.b	68,69,77,95,67,70,71,95,83,85,80,80,79,82,84,95,68,69,66,79,85,78,67,69,95,84,73,77,69,32,83,84,68,95,79,70,70,0
00002193 5f474643 
00002197 50505553 
0000219b 5f54524f 
0000219f 4f424544 
000021a3 45434e55 
000021a7 4d49545f 
000021ab 54532045 
000021af 464f5f44 
000021b3 0046 
000021b5 01        10320 	.data.b	1
000021b6 01df      10321 	.data.b	223,1
000021b8 5f4d4544  10322 	.data.b	68,69,77,95,67,70,71,95,83,85,80,80,79,82,84,95,68,69,76,65,89,95,87,85,67,95,84,79,95,68,67,89,32,83,84,68,95,79,70,70,0
000021bc 5f474643 
000021c0 50505553 
000021c4 5f54524f 
000021c8 414c4544 
000021cc 55575f59 
000021d0 4f545f43 
000021d4 5943445f 
000021d8 44545320 
000021dc 46464f5f 
000021e0 00 
000021e1 01        10323 	.data.b	1
000021e2 01e1      10324 	.data.b	225,1
000021e4 5f4d4544  10325 	.data.b	68,69,77,95,67,70,71,95,83,85,80,80,79,82,84,95,68,73,83,80,76,65,67,69,77,69,78,84,32,83,84,68,95,79,78,0
000021e8 5f474643 
000021ec 50505553 
000021f0 5f54524f 
000021f4 50534944 
000021f8 4543414c 
000021fc 544e454d 
00002200 44545320 
00002204 004e4f5f 
00002208 01        10326 	.data.b	1
00002209 01e3      10327 	.data.b	227,1
0000220b 5f4d4544  10328 	.data.b	68,69,77,95,67,70,71,95,83,85,80,80,79,82,84,95,68,84,67,83,85,80,80,82,69,83,83,73,79,78,32,83,84,68,95,79,70,70,0
0000220f 5f474643 
00002213 50505553 
00002217 5f54524f 
0000221b 53435444 
0000221f 52505055 
00002223 49535345 
00002227 53204e4f 
0000222b 4f5f4454 
0000222f 004646 
00002232 01        10329 	.data.b	1
00002233 01e4      10330 	.data.b	228,1
00002235 5f4d4544  10331 	.data.b	68,69,77,95,67,70,71,95,83,85,80,80,79,82,84,95,68,84,82,32,83,84,68,95,79,70,70,0
00002239 5f474643 
0000223d 50505553 
00002241 5f54524f 
00002245 20525444 
00002249 5f445453 
0000224d 0046464f 
00002251 01        10332 	.data.b	1
00002252 01e5      10333 	.data.b	229,1
00002254 5f4d4544  10334 	.data.b	68,69,77,95,67,70,71,95,83,85,80,80,79,82,84,95,69,78,65,66,76,69,95,67,79,78,68,73,84,73,79,78,83,32,83,84,68,95,79,70,70,0
00002258 5f474643 

                                                                      Page 242
                                                              C:\Users\Fengyuan\AppData\Local\Temp\gh_0000p9o1.s
0000225c 50505553 
00002260 5f54524f 
00002264 42414e45 
00002268 435f454c 
0000226c 49444e4f 
00002270 4e4f4954 
00002274 54532053 
00002278 464f5f44 
0000227c 0046 
0000227e 01        10335 	.data.b	1
0000227f 01e6      10336 	.data.b	230,1
00002281 5f4d4544  10337 	.data.b	68,69,77,95,67,70,71,95,83,85,80,80,79,82,84,95,69,82,69,67,83,32,83,84,68,95,79,78,0
00002285 5f474643 
00002289 50505553 
0000228d 5f54524f 
00002291 43455245 
00002295 54532053 
00002299 4e4f5f44 
0000229d 00 
0000229e 01        10338 	.data.b	1
0000229f 01e7      10339 	.data.b	231,1
000022a1 5f4d4544  10340 	.data.b	68,69,77,95,67,70,71,95,83,85,80,80,79,82,84,95,69,86,69,78,84,65,86,65,73,76,65,66,76,69,32,83,84,68,95,79,70,70,0
000022a5 5f474643 
000022a9 50505553 
000022ad 5f54524f 
000022b1 4e455645 
000022b5 41564154 
000022b9 42414c49 
000022bd 5320454c 
000022c1 4f5f4454 
000022c5 004646 
000022c8 01        10341 	.data.b	1
000022c9 01e8      10342 	.data.b	232,1
000022cb 5f4d4544  10343 	.data.b	68,69,77,95,67,70,71,95,83,85,80,80,79,82,84,95,69,86,69,78,84,65,86,65,73,76,65,66,76,69,95,68,69,70,65,85,76,84,32,83,84,68,95,79,78,0
000022cf 5f474643 
000022d3 50505553 
000022d7 5f54524f 
000022db 4e455645 
000022df 41564154 
000022e3 42414c49 
000022e7 445f454c 
000022eb 55414645 
000022ef 5320544c 
000022f3 4f5f4454 
000022f7 004e 
000022f9 01        10344 	.data.b	1
000022fa 01e9      10345 	.data.b	233,1
000022fc 5f4d4544  10346 	.data.b	68,69,77,95,67,70,71,95,83,85,80,80,79,82,84,95,69,86,69,78,84,65,86,65,73,76,65,66,76,69,95,78,86,32,83,84,68,95,79,70,70,0
00002300 5f474643 
00002304 50505553 
00002308 5f54524f 
0000230c 4e455645 
00002310 41564154 
00002314 42414c49 
00002318 4e5f454c 
0000231c 54532056 
00002320 464f5f44 
00002324 0046 
00002326 01        10347 	.data.b	1
00002327 01ec      10348 	.data.b	236,1
00002329 5f4d4544  10349 	.data.b	68,69,77,95,67,70,71,95,83,85,80,80,79,82,84,95,70,82,69,69,90,69,70,82,65,77,69,32,83,84,68,95,79,70,70,0

                                                                      Page 243
                                                              C:\Users\Fengyuan\AppData\Local\Temp\gh_0000p9o1.s
0000232d 5f474643 
00002331 50505553 
00002335 5f54524f 
00002339 45455246 
0000233d 5246455a 
00002341 20454d41 
00002345 5f445453 
00002349 0046464f 
0000234d 01        10350 	.data.b	1
0000234e 01ed      10351 	.data.b	237,1
00002350 5f4d4544  10352 	.data.b	68,69,77,95,67,70,71,95,83,85,80,80,79,82,84,95,73,78,68,73,67,65,84,79,82,83,32,83,84,68,95,79,70,70,0
00002354 5f474643 
00002358 50505553 
0000235c 5f54524f 
00002360 49444e49 
00002364 4f544143 
00002368 53205352 
0000236c 4f5f4454 
00002370 004646 
00002373 01        10353 	.data.b	1
00002374 01ee      10354 	.data.b	238,1
00002376 5f4d4544  10355 	.data.b	68,69,77,95,67,70,71,95,83,85,80,80,79,82,84,95,73,85,77,80,82,32,83,84,68,95,79,70,70,0
0000237a 5f474643 
0000237e 50505553 
00002382 5f54524f 
00002386 504d5549 
0000238a 54532052 
0000238e 464f5f44 
00002392 0046 
00002394 01        10356 	.data.b	1
00002395 01ef      10357 	.data.b	239,1
00002397 5f4d4544  10358 	.data.b	68,69,77,95,67,70,71,95,83,85,80,80,79,82,84,95,74,49,57,51,57,32,83,84,68,95,79,70,70,0
0000239b 5f474643 
0000239f 50505553 
000023a3 5f54524f 
000023a7 3339314a 
000023ab 54532039 
000023af 464f5f44 
000023b3 0046 
000023b5 01        10359 	.data.b	1
000023b6 01f0      10360 	.data.b	240,1
000023b8 5f4d4544  10361 	.data.b	68,69,77,95,67,70,71,95,83,85,80,80,79,82,84,95,74,49,57,51,57,95,67,76,69,65,82,95,68,84,67,32,83,84,68,95,79,70,70,0
000023bc 5f474643 
000023c0 50505553 
000023c4 5f54524f 
000023c8 3339314a 
000023cc 4c435f39 
000023d0 5f524145 
000023d4 20435444 
000023d8 5f445453 
000023dc 0046464f 
000023e0 01        10362 	.data.b	1
000023e1 01f1      10363 	.data.b	241,1
000023e3 5f4d4544  10364 	.data.b	68,69,77,95,67,70,71,95,83,85,80,80,79,82,84,95,74,49,57,51,57,95,68,77,51,49,32,83,84,68,95,79,70,70,0
000023e7 5f474643 
000023eb 50505553 
000023ef 5f54524f 
000023f3 3339314a 
000023f7 4d445f39 
000023fb 53203133 
000023ff 4f5f4454 

                                                                      Page 244
                                                              C:\Users\Fengyuan\AppData\Local\Temp\gh_0000p9o1.s
00002403 004646 
00002406 01        10365 	.data.b	1
00002407 01f2      10366 	.data.b	242,1
00002409 5f4d4544  10367 	.data.b	68,69,77,95,67,70,71,95,83,85,80,80,79,82,84,95,74,49,57,51,57,95,69,88,80,65,78,68,69,68,95,70,82,69,69,90,69,70,82,65,77,69,32,83,84,68,95,79,70,70,0
0000240d 5f474643 
00002411 50505553 
00002415 5f54524f 
00002419 3339314a 
0000241d 58455f39 
00002421 444e4150 
00002425 465f4445 
00002429 5a454552 
0000242d 41524645 
00002431 5320454d 
00002435 4f5f4454 
00002439 004646 
0000243c 01        10368 	.data.b	1
0000243d 01f3      10369 	.data.b	243,1
0000243f 5f4d4544  10370 	.data.b	68,69,77,95,67,70,71,95,83,85,80,80,79,82,84,95,74,49,57,51,57,95,70,82,69,69,90,69,70,82,65,77,69,32,83,84,68,95,79,70,70,0
00002443 5f474643 
00002447 50505553 
0000244b 5f54524f 
0000244f 3339314a 
00002453 52465f39 
00002457 455a4545 
0000245b 4d415246 
0000245f 54532045 
00002463 464f5f44 
00002467 0046 
00002469 01        10371 	.data.b	1
0000246a 01f5      10372 	.data.b	245,1
0000246c 5f4d4544  10373 	.data.b	68,69,77,95,67,70,71,95,83,85,80,80,79,82,84,95,74,49,57,51,57,95,82,69,65,68,73,78,69,83,83,49,32,83,84,68,95,79,70,70,0
00002470 5f474643 
00002474 50505553 
00002478 5f54524f 
0000247c 3339314a 
00002480 45525f39 
00002484 4e494441 
00002488 31535345 
0000248c 44545320 
00002490 46464f5f 
00002494 00 
00002495 01        10374 	.data.b	1
00002496 01f8      10375 	.data.b	248,1
00002498 5f4d4544  10376 	.data.b	68,69,77,95,67,70,71,95,83,85,80,80,79,82,84,95,74,49,57,51,57,95,82,69,65,68,95,68,84,67,32,83,84,68,95,79,70,70,0
0000249c 5f474643 
000024a0 50505553 
000024a4 5f54524f 
000024a8 3339314a 
000024ac 45525f39 
000024b0 445f4441 
000024b4 53204354 
000024b8 4f5f4454 
000024bc 004646 
000024bf 01        10377 	.data.b	1
000024c0 01f9      10378 	.data.b	249,1
000024c2 5f4d4544  10379 	.data.b	68,69,77,95,67,70,71,95,83,85,80,80,79,82,84,95,77,65,74,79,82,95,77,79,78,73,84,79,82,83,32,83,84,68,95,79,70,70,0
000024c6 5f474643 
000024ca 50505553 
000024ce 5f54524f 
000024d2 4f4a414d 

                                                                      Page 245
                                                              C:\Users\Fengyuan\AppData\Local\Temp\gh_0000p9o1.s
000024d6 4f4d5f52 
000024da 4f54494e 
000024de 53205352 
000024e2 4f5f4454 
000024e6 004646 
000024e9 01        10380 	.data.b	1
000024ea 01fa      10381 	.data.b	250,1
000024ec 5f4d4544  10382 	.data.b	68,69,77,95,67,70,71,95,83,85,80,80,79,82,84,95,77,73,76,32,83,84,68,95,79,70,70,0
000024f0 5f474643 
000024f4 50505553 
000024f8 5f54524f 
000024fc 204c494d 
00002500 5f445453 
00002504 0046464f 
00002508 01        10383 	.data.b	1
00002509 01fb      10384 	.data.b	251,1
0000250b 5f4d4544  10385 	.data.b	68,69,77,95,67,70,71,95,83,85,80,80,79,82,84,95,77,73,76,95,71,82,79,85,80,32,83,84,68,95,79,70,70,0
0000250f 5f474643 
00002513 50505553 
00002517 5f54524f 
0000251b 5f4c494d 
0000251f 554f5247 
00002523 54532050 
00002527 464f5f44 
0000252b 0046 
0000252d 01        10386 	.data.b	1
0000252e 01fc      10387 	.data.b	252,1
00002530 5f4d4544  10388 	.data.b	68,69,77,95,67,70,71,95,83,85,80,80,79,82,84,95,77,73,82,82,79,82,32,83,84,68,95,79,70,70,0
00002534 5f474643 
00002538 50505553 
0000253c 5f54524f 
00002540 5252494d 
00002544 5320524f 
00002548 4f5f4454 
0000254c 004646 
0000254f 01        10389 	.data.b	1
00002550 01fd      10390 	.data.b	253,1
00002552 5f4d4544  10391 	.data.b	68,69,77,95,67,70,71,95,83,85,80,80,79,82,84,95,77,85,76,84,73,80,76,69,95,83,65,84,69,76,76,73,84,69,83,32,83,84,68,95,79,70,70,0
00002556 5f474643 
0000255a 50505553 
0000255e 5f54524f 
00002562 544c554d 
00002566 454c5049 
0000256a 5441535f 
0000256e 494c4c45 
00002572 20534554 
00002576 5f445453 
0000257a 0046464f 
0000257e 01        10392 	.data.b	1
0000257f 01fe      10393 	.data.b	254,1
00002581 5f4d4544  10394 	.data.b	68,69,77,95,67,70,71,95,83,85,80,80,79,82,84,95,77,85,76,84,73,84,82,73,80,32,83,84,68,95,79,70,70,0
00002585 5f474643 
00002589 50505553 
0000258d 5f54524f 
00002591 544c554d 
00002595 49525449 
00002599 54532050 
0000259d 464f5f44 
000025a1 0046 
000025a3 01        10395 	.data.b	1
000025a4 01ff      10396 	.data.b	255,1

                                                                      Page 246
                                                              C:\Users\Fengyuan\AppData\Local\Temp\gh_0000p9o1.s
000025a6 5f4d4544  10397 	.data.b	68,69,77,95,67,70,71,95,83,85,80,80,79,82,84,95,78,86,77,95,65,80,80,76,95,83,89,78,67,72,82,79,78,73,90,69,32,83,84,68,95,79,70,70,0
000025aa 5f474643 
000025ae 50505553 
000025b2 5f54524f 
000025b6 5f4d564e 
000025ba 4c505041 
000025be 4e59535f 
000025c2 4f524843 
000025c6 455a494e 
000025ca 44545320 
000025ce 46464f5f 
000025d2 00 
000025d3 01        10398 	.data.b	1
000025d4 0280      10399 	.data.b	128,2
000025d6 5f4d4544  10400 	.data.b	68,69,77,95,67,70,71,95,83,85,80,80,79,82,84,95,78,86,77,95,73,77,77,69,68,73,65,84,69,32,83,84,68,95,79,70,70,0
000025da 5f474643 
000025de 50505553 
000025e2 5f54524f 
000025e6 5f4d564e 
000025ea 454d4d49 
000025ee 54414944 
000025f2 54532045 
000025f6 464f5f44 
000025fa 0046 
000025fc 01        10401 	.data.b	1
000025fd 0281      10402 	.data.b	129,2
000025ff 5f4d4544  10403 	.data.b	68,69,77,95,67,70,71,95,83,85,80,80,79,82,84,95,78,86,77,95,87,82,73,84,69,76,73,77,73,84,32,83,84,68,95,79,70,70,0
00002603 5f474643 
00002607 50505553 
0000260b 5f54524f 
0000260f 5f4d564e 
00002613 54495257 
00002617 4d494c45 
0000261b 53205449 
0000261f 4f5f4454 
00002623 004646 
00002626 01        10404 	.data.b	1
00002627 0282      10405 	.data.b	130,2
00002629 5f4d4544  10406 	.data.b	68,69,77,95,67,70,71,95,83,85,80,80,79,82,84,95,79,66,68,73,73,32,83,84,68,95,79,70,70,0
0000262d 5f474643 
00002631 50505553 
00002635 5f54524f 
00002639 4944424f 
0000263d 54532049 
00002641 464f5f44 
00002645 0046 
00002647 01        10407 	.data.b	1
00002648 0283      10408 	.data.b	131,2
0000264a 5f4d4544  10409 	.data.b	68,69,77,95,67,70,71,95,83,85,80,80,79,82,84,95,79,66,68,73,73,95,70,82,69,69,90,69,70,82,65,77,69,95,73,78,95,83,86,67,49,57,32,83,84,68,95,79,70,70,0
0000264e 5f474643 
00002652 50505553 
00002656 5f54524f 
0000265a 4944424f 
0000265e 52465f49 
00002662 455a4545 
00002666 4d415246 
0000266a 4e495f45 
0000266e 4356535f 
00002672 53203931 
00002676 4f5f4454 
0000267a 004646 

                                                                      Page 247
                                                              C:\Users\Fengyuan\AppData\Local\Temp\gh_0000p9o1.s
0000267d 01        10410 	.data.b	1
0000267e 0284      10411 	.data.b	132,2
00002680 5f4d4544  10412 	.data.b	68,69,77,95,67,70,71,95,83,85,80,80,79,82,84,95,79,66,68,95,72,73,68,69,95,79,67,67,85,82,82,69,78,67,69,83,32,83,84,68,95,79,70,70,0
00002684 5f474643 
00002688 50505553 
0000268c 5f54524f 
00002690 5f44424f 
00002694 45444948 
00002698 43434f5f 
0000269c 45525255 
000026a0 5345434e 
000026a4 44545320 
000026a8 46464f5f 
000026ac 00 
000026ad 01        10413 	.data.b	1
000026ae 0286      10414 	.data.b	134,2
000026b0 5f4d4544  10415 	.data.b	68,69,77,95,67,70,71,95,83,85,80,80,79,82,84,95,79,80,67,89,67,76,69,95,65,85,84,79,77,65,84,73,67,95,69,78,68,32,83,84,68,95,79,70,70,0
000026b4 5f474643 
000026b8 50505553 
000026bc 5f54524f 
000026c0 5943504f 
000026c4 5f454c43 
000026c8 4f545541 
000026cc 4954414d 
000026d0 4e455f43 
000026d4 54532044 
000026d8 464f5f44 
000026dc 0046 
000026de 01        10416 	.data.b	1
000026df 0287      10417 	.data.b	135,2
000026e1 5f4d4544  10418 	.data.b	68,69,77,95,67,70,71,95,83,85,80,80,79,82,84,95,79,80,67,89,67,76,69,95,83,84,79,82,65,71,69,32,83,84,68,95,79,70,70,0
000026e5 5f474643 
000026e9 50505553 
000026ed 5f54524f 
000026f1 5943504f 
000026f5 5f454c43 
000026f9 524f5453 
000026fd 20454741 
00002701 5f445453 
00002705 0046464f 
00002709 01        10419 	.data.b	1
0000270a 0288      10420 	.data.b	136,2
0000270c 5f4d4544  10421 	.data.b	68,69,77,95,67,70,71,95,83,85,80,80,79,82,84,95,79,86,70,76,73,78,68,95,65,80,73,32,83,84,68,95,79,78,0
00002710 5f474643 
00002714 50505553 
00002718 5f54524f 
0000271c 4c46564f 
00002720 5f444e49 
00002724 20495041 
00002728 5f445453 
0000272c 004e4f 
0000272f 01        10422 	.data.b	1
00002730 0289      10423 	.data.b	137,2
00002732 5f4d4544  10424 	.data.b	68,69,77,95,67,70,71,95,83,85,80,80,79,82,84,95,80,69,78,68,73,78,71,95,68,73,83,80,76,65,67,69,95,70,82,69,69,90,69,95,70,82,65,77,69,32,83,84,68,95,79,70,70,0
00002736 5f474643 
0000273a 50505553 
0000273e 5f54524f 
00002742 444e4550 
00002746 5f474e49 
0000274a 50534944 
0000274e 4543414c 

                                                                      Page 248
                                                              C:\Users\Fengyuan\AppData\Local\Temp\gh_0000p9o1.s
00002752 4552465f 
00002756 5f455a45 
0000275a 4d415246 
0000275e 54532045 
00002762 464f5f44 
00002766 0046 
00002768 01        10425 	.data.b	1
00002769 028a      10426 	.data.b	138,2
0000276b 5f4d4544  10427 	.data.b	68,69,77,95,67,70,71,95,83,85,80,80,79,82,84,95,80,69,78,68,73,78,71,95,83,84,79,82,65,71,69,95,70,82,69,69,90,69,95,70,82,65,77,69,32,83,84,68,95,79,70,70,0
0000276f 5f474643 
00002773 50505553 
00002777 5f54524f 
0000277b 444e4550 
0000277f 5f474e49 
00002783 524f5453 
00002787 5f454741 
0000278b 45455246 
0000278f 465f455a 
00002793 454d4152 
00002797 44545320 
0000279b 46464f5f 
0000279f 00 
000027a0 01        10428 	.data.b	1
000027a1 028b      10429 	.data.b	139,2
000027a3 5f4d4544  10430 	.data.b	68,69,77,95,67,70,71,95,83,85,80,80,79,82,84,95,80,69,78,68,73,78,71,95,85,80,68,65,84,69,95,70,82,69,69,90,69,95,70,82,65,77,69,32,83,84,68,95,79,70,70,0
000027a7 5f474643 
000027ab 50505553 
000027af 5f54524f 
000027b3 444e4550 
000027b7 5f474e49 
000027bb 41445055 
000027bf 465f4554 
000027c3 5a454552 
000027c7 52465f45 
000027cb 20454d41 
000027cf 5f445453 
000027d3 0046464f 
000027d7 01        10431 	.data.b	1
000027d8 028c      10432 	.data.b	140,2
000027da 5f4d4544  10433 	.data.b	68,69,77,95,67,70,71,95,83,85,80,80,79,82,84,95,80,69,82,77,65,78,69,78,84,32,83,84,68,95,79,70,70,0
000027de 5f474643 
000027e2 50505553 
000027e6 5f54524f 
000027ea 4d524550 
000027ee 4e454e41 
000027f2 54532054 
000027f6 464f5f44 
000027fa 0046 
000027fc 01        10434 	.data.b	1
000027fd 028d      10435 	.data.b	141,2
000027ff 5f4d4544  10436 	.data.b	68,69,77,95,67,70,71,95,83,85,80,80,79,82,84,95,80,69,82,77,65,78,69,78,84,68,84,67,95,65,67,84,73,86,65,84,73,79,78,95,68,73,83,84,65,78,67,69,32,83,84,68,95,79,70,70,0
00002803 5f474643 
00002807 50505553 
0000280b 5f54524f 
0000280f 4d524550 
00002813 4e454e41 
00002817 43544454 
0000281b 5443415f 
0000281f 54415649 
00002823 5f4e4f49 
00002827 54534944 

                                                                      Page 249
                                                              C:\Users\Fengyuan\AppData\Local\Temp\gh_0000p9o1.s
0000282b 45434e41 
0000282f 44545320 
00002833 46464f5f 
00002837 00 
00002838 01        10437 	.data.b	1
00002839 028e      10438 	.data.b	142,2
0000283b 5f4d4544  10439 	.data.b	68,69,77,95,67,70,71,95,83,85,80,80,79,82,84,95,80,69,82,77,65,78,69,78,84,95,67,79,78,68,73,84,73,79,78,95,68,67,89,32,83,84,68,95,79,70,70,0
0000283f 5f474643 
00002843 50505553 
00002847 5f54524f 
0000284b 4d524550 
0000284f 4e454e41 
00002853 4f435f54 
00002857 5449444e 
0000285b 5f4e4f49 
0000285f 20594344 
00002863 5f445453 
00002867 0046464f 
0000286b 01        10440 	.data.b	1
0000286c 028f      10441 	.data.b	143,2
0000286e 5f4d4544  10442 	.data.b	68,69,77,95,67,70,71,95,83,85,80,80,79,82,84,95,80,69,82,77,65,78,69,78,84,95,77,65,78,68,65,84,79,82,89,95,80,70,67,32,83,84,68,95,79,70,70,0
00002872 5f474643 
00002876 50505553 
0000287a 5f54524f 
0000287e 4d524550 
00002882 4e454e41 
00002886 414d5f54 
0000288a 5441444e 
0000288e 5f59524f 
00002892 20434650 
00002896 5f445453 
0000289a 0046464f 
0000289e 01        10443 	.data.b	1
0000289f 0290      10444 	.data.b	144,2
000028a1 5f4d4544  10445 	.data.b	68,69,77,95,67,70,71,95,83,85,80,80,79,82,84,95,80,73,68,48,49,32,83,84,68,95,79,70,70,0
000028a5 5f474643 
000028a9 50505553 
000028ad 5f54524f 
000028b1 30444950 
000028b5 54532031 
000028b9 464f5f44 
000028bd 0046 
000028bf 01        10446 	.data.b	1
000028c0 0291      10447 	.data.b	145,2
000028c2 5f4d4544  10448 	.data.b	68,69,77,95,67,70,71,95,83,85,80,80,79,82,84,95,80,73,68,49,67,32,83,84,68,95,79,70,70,0
000028c6 5f474643 
000028ca 50505553 
000028ce 5f54524f 
000028d2 31444950 
000028d6 54532043 
000028da 464f5f44 
000028de 0046 
000028e0 01        10449 	.data.b	1
000028e1 0292      10450 	.data.b	146,2
000028e3 5f4d4544  10451 	.data.b	68,69,77,95,67,70,71,95,83,85,80,80,79,82,84,95,80,73,68,50,49,32,83,84,68,95,79,70,70,0
000028e7 5f474643 
000028eb 50505553 
000028ef 5f54524f 
000028f3 32444950 
000028f7 54532031 
000028fb 464f5f44 

                                                                      Page 250
                                                              C:\Users\Fengyuan\AppData\Local\Temp\gh_0000p9o1.s
000028ff 0046 
00002901 01        10452 	.data.b	1
00002902 0293      10453 	.data.b	147,2
00002904 5f4d4544  10454 	.data.b	68,69,77,95,67,70,71,95,83,85,80,80,79,82,84,95,80,73,68,51,48,32,83,84,68,95,79,70,70,0
00002908 5f474643 
0000290c 50505553 
00002910 5f54524f 
00002914 33444950 
00002918 54532030 
0000291c 464f5f44 
00002920 0046 
00002922 01        10455 	.data.b	1
00002923 0294      10456 	.data.b	148,2
00002925 5f4d4544  10457 	.data.b	68,69,77,95,67,70,71,95,83,85,80,80,79,82,84,95,80,73,68,51,49,32,83,84,68,95,79,70,70,0
00002929 5f474643 
0000292d 50505553 
00002931 5f54524f 
00002935 33444950 
00002939 54532031 
0000293d 464f5f44 
00002941 0046 
00002943 01        10458 	.data.b	1
00002944 0295      10459 	.data.b	149,2
00002946 5f4d4544  10460 	.data.b	68,69,77,95,67,70,71,95,83,85,80,80,79,82,84,95,80,73,68,52,49,32,83,84,68,95,79,70,70,0
0000294a 5f474643 
0000294e 50505553 
00002952 5f54524f 
00002956 34444950 
0000295a 54532031 
0000295e 464f5f44 
00002962 0046 
00002964 01        10461 	.data.b	1
00002965 0296      10462 	.data.b	150,2
00002967 5f4d4544  10463 	.data.b	68,69,77,95,67,70,71,95,83,85,80,80,79,82,84,95,80,73,68,52,68,32,83,84,68,95,79,70,70,0
0000296b 5f474643 
0000296f 50505553 
00002973 5f54524f 
00002977 34444950 
0000297b 54532044 
0000297f 464f5f44 
00002983 0046 
00002985 01        10464 	.data.b	1
00002986 0297      10465 	.data.b	151,2
00002988 5f4d4544  10466 	.data.b	68,69,77,95,67,70,71,95,83,85,80,80,79,82,84,95,80,73,68,52,69,32,83,84,68,95,79,70,70,0
0000298c 5f474643 
00002990 50505553 
00002994 5f54524f 
00002998 34444950 
0000299c 54532045 
000029a0 464f5f44 
000029a4 0046 
000029a6 01        10467 	.data.b	1
000029a7 0298      10468 	.data.b	152,2
000029a9 5f4d4544  10469 	.data.b	68,69,77,95,67,70,71,95,83,85,80,80,79,82,84,95,80,73,68,57,49,32,83,84,68,95,79,70,70,0
000029ad 5f474643 
000029b1 50505553 
000029b5 5f54524f 
000029b9 39444950 
000029bd 54532031 
000029c1 464f5f44 
000029c5 0046 

                                                                      Page 251
                                                              C:\Users\Fengyuan\AppData\Local\Temp\gh_0000p9o1.s
000029c7 01        10470 	.data.b	1
000029c8 0299      10471 	.data.b	153,2
000029ca 5f4d4544  10472 	.data.b	68,69,77,95,67,70,71,95,83,85,80,80,79,82,84,95,80,76,32,83,84,68,95,79,70,70,0
000029ce 5f474643 
000029d2 50505553 
000029d6 5f54524f 
000029da 53204c50 
000029de 4f5f4454 
000029e2 004646 
000029e5 01        10473 	.data.b	1
000029e6 029a      10474 	.data.b	154,2
000029e8 5f4d4544  10475 	.data.b	68,69,77,95,67,70,71,95,83,85,80,80,79,82,84,95,80,82,69,83,84,79,82,69,68,95,70,70,32,83,84,68,95,79,70,70,0
000029ec 5f474643 
000029f0 50505553 
000029f4 5f54524f 
000029f8 53455250 
000029fc 45524f54 
00002a00 46465f44 
00002a04 44545320 
00002a08 46464f5f 
00002a0c 00 
00002a0d 01        10476 	.data.b	1
00002a0e 029d      10477 	.data.b	157,2
00002a10 5f4d4544  10478 	.data.b	68,69,77,95,67,70,71,95,83,85,80,80,79,82,84,95,82,69,83,84,65,82,84,95,68,67,89,95,79,78,95,67,76,69,65,82,95,68,84,67,32,83,84,68,95,79,70,70,0
00002a14 5f474643 
00002a18 50505553 
00002a1c 5f54524f 
00002a20 54534552 
00002a24 5f545241 
00002a28 5f594344 
00002a2c 435f4e4f 
00002a30 5241454c 
00002a34 4354445f 
00002a38 44545320 
00002a3c 46464f5f 
00002a40 00 
00002a41 01        10479 	.data.b	1
00002a42 029e      10480 	.data.b	158,2
00002a44 5f4d4544  10481 	.data.b	68,69,77,95,67,70,71,95,83,85,80,80,79,82,84,95,82,69,84,82,89,95,83,84,79,82,65,71,69,32,83,84,68,95,79,70,70,0
00002a48 5f474643 
00002a4c 50505553 
00002a50 5f54524f 
00002a54 52544552 
00002a58 54535f59 
00002a5c 4741524f 
00002a60 54532045 
00002a64 464f5f44 
00002a68 0046 
00002a6a 01        10482 	.data.b	1
00002a6b 029f      10483 	.data.b	159,2
00002a6d 5f4d4544  10484 	.data.b	68,69,77,95,67,70,71,95,83,85,80,80,79,82,84,95,82,83,76,32,83,84,68,95,79,70,70,0
00002a71 5f474643 
00002a75 50505553 
00002a79 5f54524f 
00002a7d 204c5352 
00002a81 5f445453 
00002a85 0046464f 
00002a89 01        10485 	.data.b	1
00002a8a 02a0      10486 	.data.b	160,2
00002a8c 5f4d4544  10487 	.data.b	68,69,77,95,67,70,71,95,83,85,80,80,79,82,84,95,83,69,67,79,78,68,65,82,89,32,83,84,68,95,79,70,70,0
00002a90 5f474643 

                                                                      Page 252
                                                              C:\Users\Fengyuan\AppData\Local\Temp\gh_0000p9o1.s
00002a94 50505553 
00002a98 5f54524f 
00002a9c 4f434553 
00002aa0 5241444e 
00002aa4 54532059 
00002aa8 464f5f44 
00002aac 0046 
00002aae 01        10488 	.data.b	1
00002aaf 02a1      10489 	.data.b	161,2
00002ab1 5f4d4544  10490 	.data.b	68,69,77,95,67,70,71,95,83,85,80,80,79,82,84,95,83,73,77,73,76,65,82,95,67,79,78,68,73,84,73,79,78,83,32,83,84,68,95,79,70,70,0
00002ab5 5f474643 
00002ab9 50505553 
00002abd 5f54524f 
00002ac1 494d4953 
00002ac5 5f52414c 
00002ac9 444e4f43 
00002acd 4f495449 
00002ad1 5320534e 
00002ad5 4f5f4454 
00002ad9 004646 
00002adc 01        10491 	.data.b	1
00002add 02a2      10492 	.data.b	162,2
00002adf 5f4d4544  10493 	.data.b	68,69,77,95,67,70,71,95,83,85,80,80,79,82,84,95,83,82,69,67,83,32,83,84,68,95,79,70,70,0
00002ae3 5f474643 
00002ae7 50505553 
00002aeb 5f54524f 
00002aef 43455253 
00002af3 54532053 
00002af7 464f5f44 
00002afb 0046 
00002afd 01        10494 	.data.b	1
00002afe 02a3      10495 	.data.b	163,2
00002b00 5f4d4544  10496 	.data.b	68,69,77,95,67,70,71,95,83,85,80,80,79,82,84,95,83,82,69,67,83,95,67,65,76,67,85,76,65,84,69,68,32,83,84,68,95,79,78,0
00002b04 5f474643 
00002b08 50505553 
00002b0c 5f54524f 
00002b10 43455253 
00002b14 41435f53 
00002b18 4c55434c 
00002b1c 44455441 
00002b20 44545320 
00002b24 004e4f5f 
00002b28 01        10497 	.data.b	1
00002b29 02a4      10498 	.data.b	164,2
00002b2b 5f4d4544  10499 	.data.b	68,69,77,95,67,70,71,95,83,85,80,80,79,82,84,95,83,82,69,67,83,95,67,79,78,70,73,71,85,82,69,68,32,83,84,68,95,79,70,70,0
00002b2f 5f474643 
00002b33 50505553 
00002b37 5f54524f 
00002b3b 43455253 
00002b3f 4f435f53 
00002b43 4749464e 
00002b47 44455255 
00002b4b 44545320 
00002b4f 46464f5f 
00002b53 00 
00002b54 01        10500 	.data.b	1
00002b55 02a5      10501 	.data.b	165,2
00002b57 5f4d4544  10502 	.data.b	68,69,77,95,67,70,71,95,83,85,80,80,79,82,84,95,83,84,79,82,65,71,69,95,67,79,78,68,73,84,73,79,78,83,32,83,84,68,95,79,70,70,0
00002b5b 5f474643 
00002b5f 50505553 
00002b63 5f54524f 

                                                                      Page 253
                                                              C:\Users\Fengyuan\AppData\Local\Temp\gh_0000p9o1.s
00002b67 524f5453 
00002b6b 5f454741 
00002b6f 444e4f43 
00002b73 4f495449 
00002b77 5320534e 
00002b7b 4f5f4454 
00002b7f 004646 
00002b82 01        10503 	.data.b	1
00002b83 02a6      10504 	.data.b	166,2
00002b85 5f4d4544  10505 	.data.b	68,69,77,95,67,70,71,95,83,85,80,80,79,82,84,95,84,69,83,84,70,65,73,76,69,68,95,83,84,79,82,65,71,69,32,83,84,68,95,79,78,0
00002b89 5f474643 
00002b8d 50505553 
00002b91 5f54524f 
00002b95 54534554 
00002b99 4c494146 
00002b9d 535f4445 
00002ba1 41524f54 
00002ba5 53204547 
00002ba9 4f5f4454 
00002bad 004e 
00002baf 01        10506 	.data.b	1
00002bb0 02a7      10507 	.data.b	167,2
00002bb2 5f4d4544  10508 	.data.b	68,69,77,95,67,70,71,95,83,85,80,80,79,82,84,95,84,73,77,69,95,83,69,82,73,69,83,95,70,85,84,85,82,69,95,70,65,83,84,32,83,84,68,95,79,70,70,0
00002bb6 5f474643 
00002bba 50505553 
00002bbe 5f54524f 
00002bc2 454d4954 
00002bc6 5245535f 
00002bca 5f534549 
00002bce 55545546 
00002bd2 465f4552 
00002bd6 20545341 
00002bda 5f445453 
00002bde 0046464f 
00002be2 01        10509 	.data.b	1
00002be3 02a8      10510 	.data.b	168,2
00002be5 5f4d4544  10511 	.data.b	68,69,77,95,67,70,71,95,83,85,80,80,79,82,84,95,84,73,77,69,95,83,69,82,73,69,83,95,70,85,84,85,82,69,95,78,79,82,77,65,76,32,83,84,68,95,79,70,70,0
00002be9 5f474643 
00002bed 50505553 
00002bf1 5f54524f 
00002bf5 454d4954 
00002bf9 5245535f 
00002bfd 5f534549 
00002c01 55545546 
00002c05 4e5f4552 
00002c09 414d524f 
00002c0d 5453204c 
00002c11 464f5f44 
00002c15 0046 
00002c17 01        10512 	.data.b	1
00002c18 02a9      10513 	.data.b	169,2
00002c1a 5f4d4544  10514 	.data.b	68,69,77,95,67,70,71,95,83,85,80,80,79,82,84,95,84,73,77,69,95,83,69,82,73,69,83,95,80,65,83,84,95,70,65,83,84,32,83,84,68,95,79,70,70,0
00002c1e 5f474643 
00002c22 50505553 
00002c26 5f54524f 
00002c2a 454d4954 
00002c2e 5245535f 
00002c32 5f534549 
00002c36 54534150 
00002c3a 5341465f 
00002c3e 54532054 

                                                                      Page 254
                                                              C:\Users\Fengyuan\AppData\Local\Temp\gh_0000p9o1.s
00002c42 464f5f44 
00002c46 0046 
00002c48 01        10515 	.data.b	1
00002c49 02aa      10516 	.data.b	170,2
00002c4b 5f4d4544  10517 	.data.b	68,69,77,95,67,70,71,95,83,85,80,80,79,82,84,95,84,73,77,69,95,83,69,82,73,69,83,95,80,65,83,84,95,78,79,82,77,65,76,32,83,84,68,95,79,70,70,0
00002c4f 5f474643 
00002c53 50505553 
00002c57 5f54524f 
00002c5b 454d4954 
00002c5f 5245535f 
00002c63 5f534549 
00002c67 54534150 
00002c6b 524f4e5f 
00002c6f 204c414d 
00002c73 5f445453 
00002c77 0046464f 
00002c7b 01        10518 	.data.b	1
00002c7c 02ab      10519 	.data.b	171,2
00002c7e 5f4d4544  10520 	.data.b	68,69,77,95,67,70,71,95,83,85,80,80,79,82,84,95,84,82,73,71,71,69,82,95,70,68,67,95,70,73,82,83,84,95,73,78,95,67,89,67,76,69,32,83,84,68,95,79,70,70,0
00002c82 5f474643 
00002c86 50505553 
00002c8a 5f54524f 
00002c8e 47495254 
00002c92 5f524547 
00002c96 5f434446 
00002c9a 53524946 
00002c9e 4e495f54 
00002ca2 4359435f 
00002ca6 5320454c 
00002caa 4f5f4454 
00002cae 004646 
00002cb1 01        10521 	.data.b	1
00002cb2 02ac      10522 	.data.b	172,2
00002cb4 5f4d4544  10523 	.data.b	68,69,77,95,67,70,71,95,83,85,80,80,79,82,84,95,84,89,80,69,49,95,67,79,77,66,73,78,65,84,73,79,78,32,83,84,68,95,79,70,70,0
00002cb8 5f474643 
00002cbc 50505553 
00002cc0 5f54524f 
00002cc4 45505954 
00002cc8 4f435f31 
00002ccc 4e49424d 
00002cd0 4f495441 
00002cd4 5453204e 
00002cd8 464f5f44 
00002cdc 0046 
00002cde 01        10524 	.data.b	1
00002cdf 02ad      10525 	.data.b	173,2
00002ce1 5f4d4544  10526 	.data.b	68,69,77,95,67,70,71,95,83,85,80,80,79,82,84,95,84,89,80,69,50,95,67,79,77,66,73,78,65,84,73,79,78,32,83,84,68,95,79,70,70,0
00002ce5 5f474643 
00002ce9 50505553 
00002ced 5f54524f 
00002cf1 45505954 
00002cf5 4f435f32 
00002cf9 4e49424d 
00002cfd 4f495441 
00002d01 5453204e 
00002d05 464f5f44 
00002d09 0046 
00002d0b 01        10527 	.data.b	1
00002d0c 02af      10528 	.data.b	175,2
00002d0e 5f4d4544  10529 	.data.b	68,69,77,95,67,70,71,95,83,85,80,80,79,82,84,95,85,83,69,82,95,67,79,78,84,82,79,76,76,69,68,95,87,73,82,32,83,84,68,95,79,70,70,0
00002d12 5f474643 

                                                                      Page 255
                                                              C:\Users\Fengyuan\AppData\Local\Temp\gh_0000p9o1.s
00002d16 50505553 
00002d1a 5f54524f 
00002d1e 52455355 
00002d22 4e4f435f 
00002d26 4c4f5254 
00002d2a 5f44454c 
00002d2e 20524957 
00002d32 5f445453 
00002d36 0046464f 
00002d3a 01        10530 	.data.b	1
00002d3b 02b1      10531 	.data.b	177,2
00002d3d 5f4d4544  10532 	.data.b	68,69,77,95,67,70,71,95,83,85,80,80,79,82,84,95,85,83,69,82,95,69,82,69,67,83,32,83,84,68,95,79,78,0
00002d41 5f474643 
00002d45 50505553 
00002d49 5f54524f 
00002d4d 52455355 
00002d51 4552455f 
00002d55 53205343 
00002d59 4f5f4454 
00002d5d 004e 
00002d5f 01        10533 	.data.b	1
00002d60 02b2      10534 	.data.b	178,2
00002d62 5f4d4544  10535 	.data.b	68,69,77,95,67,70,71,95,83,85,80,80,79,82,84,95,85,83,69,82,95,73,78,68,73,67,65,84,79,82,83,32,83,84,68,95,79,70,70,0
00002d66 5f474643 
00002d6a 50505553 
00002d6e 5f54524f 
00002d72 52455355 
00002d76 444e495f 
00002d7a 54414349 
00002d7e 2053524f 
00002d82 5f445453 
00002d86 0046464f 
00002d8a 01        10536 	.data.b	1
00002d8b 02b3      10537 	.data.b	179,2
00002d8d 5f4d4544  10538 	.data.b	68,69,77,95,67,70,71,95,83,85,80,80,79,82,84,95,86,69,82,83,73,79,78,95,73,78,70,79,32,83,84,68,95,79,78,0
00002d91 5f474643 
00002d95 50505553 
00002d99 5f54524f 
00002d9d 53524556 
00002da1 5f4e4f49 
00002da5 4f464e49 
00002da9 44545320 
00002dad 004e4f5f 
00002db1 01        10539 	.data.b	1
00002db2 02b6      10540 	.data.b	182,2
00002db4 5f4d4544  10541 	.data.b	68,69,77,95,67,70,71,95,83,85,80,80,79,82,84,95,87,87,72,79,66,68,32,83,84,68,95,79,70,70,0
00002db8 5f474643 
00002dbc 50505553 
00002dc0 5f54524f 
00002dc4 4f485757 
00002dc8 53204442 
00002dcc 4f5f4454 
00002dd0 004646 
00002dd3 01        10542 	.data.b	1
00002dd4 02b9      10543 	.data.b	185,2
00002dd6 5f4d4544  10544 	.data.b	68,69,77,95,67,70,71,95,85,83,69,95,78,86,77,32,83,84,68,95,79,70,70,0
00002dda 5f474643 
00002dde 5f455355 
00002de2 204d564e 
00002de6 5f445453 
00002dea 0046464f 

                                                                      Page 256
                                                              C:\Users\Fengyuan\AppData\Local\Temp\gh_0000p9o1.s
00002dee 01        10545 	.data.b	1
00002def 02ba      10546 	.data.b	186,2
00002df1 5f4d4544  10547 	.data.b	68,69,77,95,67,70,71,95,85,83,69,95,79,72,68,83,32,83,84,68,95,79,70,70,0
00002df5 5f474643 
00002df9 5f455355 
00002dfd 5344484f 
00002e01 44545320 
00002e05 46464f5f 
00002e09 00 
00002e0a 01        10548 	.data.b	1
00002e0b 02ce      10549 	.data.b	206,2
00002e0d 5f4d4544  10550 	.data.b	68,69,77,95,68,85,77,77,89,95,83,84,65,84,69,77,69,78,84,40,118,41,32,40,118,41,61,40,118,41,0
00002e11 4d4d5544 
00002e15 54535f59 
00002e19 4d455441 
00002e1d 28544e45 
00002e21 28202976 
00002e25 283d2976 
00002e29 002976 
00002e2c 01        10551 	.data.b	1
00002e2d 02d7      10552 	.data.b	215,2
00002e2f 5f4d4544  10553 	.data.b	68,69,77,95,65,84,79,77,73,67,95,86,65,82,73,65,66,76,69,95,65,67,67,69,83,83,32,51,50,117,0
00002e33 4d4f5441 
00002e37 565f4349 
00002e3b 41495241 
00002e3f 5f454c42 
00002e43 45434341 
00002e47 33205353 
00002e4b 007532 
00002e4e 04        10554 	.data.b	4
00002e4f 03        10555 	.data.b	3
00002e50 47        10556 	.data.b	71
00002e51 2e        10557 	.data.b	46
00002e52 03        10558 	.data.b	3
00002e53 35        10559 	.data.b	53
00002e54 2f        10560 	.data.b	47
00002e55 01        10561 	.data.b	1
00002e56 08a4      10562 	.data.b	164,8
00002e58 5f435444  10563 	.data.b	68,84,67,95,67,76,65,83,83,95,66,102,108,77,97,115,107,32,51,49,85,0
00002e5c 53414c43 
00002e60 66425f53 
00002e64 73614d6c 
00002e68 3133206b 
00002e6c 0055 
00002e6e 01        10564 	.data.b	1
00002e6f 08a8      10565 	.data.b	168,8
00002e71 5f435444  10566 	.data.b	68,84,67,95,67,76,65,83,83,95,66,102,108,80,110,32,48,85,0
00002e75 53414c43 
00002e79 66425f53 
00002e7d 206e506c 
00002e81 005530 
00002e84 01        10567 	.data.b	1
00002e85 08ac      10568 	.data.b	172,8
00002e87 5f435444  10569 	.data.b	68,84,67,95,67,76,65,83,83,95,66,102,108,76,110,32,53,85,0
00002e8b 53414c43 
00002e8f 66425f53 
00002e93 206e4c6c 
00002e97 005535 
00002e9a 01        10570 	.data.b	1
00002e9b 08f4      10571 	.data.b	244,8
00002e9d 5f435444  10572 	.data.b	68,84,67,95,83,69,86,69,82,73,84,89,95,66,102,108,77,97,115,107,32,50,50,52,85,0

                                                                      Page 257
                                                              C:\Users\Fengyuan\AppData\Local\Temp\gh_0000p9o1.s
00002ea1 45564553 
00002ea5 59544952 
00002ea9 6c66425f 
00002ead 6b73614d 
00002eb1 34323220 
00002eb5 0055 
00002eb7 01        10573 	.data.b	1
00002eb8 08f8      10574 	.data.b	248,8
00002eba 5f435444  10575 	.data.b	68,84,67,95,83,69,86,69,82,73,84,89,95,66,102,108,80,110,32,53,85,0
00002ebe 45564553 
00002ec2 59544952 
00002ec6 6c66425f 
00002eca 35206e50 
00002ece 0055 
00002ed0 01        10576 	.data.b	1
00002ed1 08fc      10577 	.data.b	252,8
00002ed3 5f435444  10578 	.data.b	68,84,67,95,83,69,86,69,82,73,84,89,95,66,102,108,76,110,32,51,85,0
00002ed7 45564553 
00002edb 59544952 
00002edf 6c66425f 
00002ee3 33206e4c 
00002ee7 0055 
00002ee9 04        10579 	.data.b	4
00002eea 04        10580 	.data.b	4
00002eeb 01        10581 	.data.b	1
00002eec 59        10582 	.data.b	89
00002eed 5f4d4544  10583 	.data.b	68,69,77,95,76,79,67,65,76,95,73,78,76,73,78,69,32,76,79,67,65,76,95,73,78,76,73,78,69,0
00002ef1 41434f4c 
00002ef5 4e495f4c 
00002ef9 454e494c 
00002efd 434f4c20 
00002f01 495f4c41 
00002f05 4e494c4e 
00002f09 0045 
00002f0b 04        10584 	.data.b	4
00002f0c 03        10585 	.data.b	3
00002f0d 03e1      10586 	.data.b	225,3
00002f0f 30        10587 	.data.b	48
00002f10 03        10588 	.data.b	3
00002f11 3b        10589 	.data.b	59
00002f12 31        10590 	.data.b	49
00002f13 03        10591 	.data.b	3
00002f14 37        10592 	.data.b	55
00002f15 32        10593 	.data.b	50
00002f16 03        10594 	.data.b	3
00002f17 3b        10595 	.data.b	59
00002f18 2c        10596 	.data.b	44
00002f19 04        10597 	.data.b	4
00002f1a 03        10598 	.data.b	3
00002f1b 3c        10599 	.data.b	60
00002f1c 33        10600 	.data.b	51
00002f1d 03        10601 	.data.b	3
00002f1e 1c        10602 	.data.b	28
00002f1f 34        10603 	.data.b	52
00002f20 04        10604 	.data.b	4
00002f21 03        10605 	.data.b	3
00002f22 1e        10606 	.data.b	30
00002f23 35        10607 	.data.b	53
00002f24 01        10608 	.data.b	1
00002f25 02ff      10609 	.data.b	255,2
00002f27 485f534f  10610 	.data.b	79,83,95,72,32,0

                                                                      Page 258
                                                              C:\Users\Fengyuan\AppData\Local\Temp\gh_0000p9o1.s
00002f2b 0020 
00002f2d 03        10611 	.data.b	3
00002f2e 0388      10612 	.data.b	136,3
00002f30 36        10613 	.data.b	54
00002f31 03        10614 	.data.b	3
00002f32 27        10615 	.data.b	39
00002f33 37        10616 	.data.b	55
00002f34 01        10617 	.data.b	1
00002f35 21        10618 	.data.b	33
00002f36 4c5f534f  10619 	.data.b	79,83,95,76,67,70,71,95,72,32,0
00002f3a 5f474643 
00002f3e 002048 
00002f41 03        10620 	.data.b	3
00002f42 2b        10621 	.data.b	43
00002f43 38        10622 	.data.b	56
00002f44 01        10623 	.data.b	1
00002f45 21        10624 	.data.b	33
00002f46 435f534f  10625 	.data.b	79,83,95,67,70,71,95,72,32,0
00002f4a 485f4746 
00002f4e 0020 
00002f50 03        10626 	.data.b	3
00002f51 2e        10627 	.data.b	46
00002f52 39        10628 	.data.b	57
00002f53 04        10629 	.data.b	4
00002f54 01        10630 	.data.b	1
00002f55 4e        10631 	.data.b	78
00002f56 435f534f  10632 	.data.b	79,83,95,67,70,71,95,80,82,69,84,65,83,75,72,79,79,75,32,40,83,84,68,95,79,70,70,41,0
00002f5a 505f4746 
00002f5e 41544552 
00002f62 4f484b53 
00002f66 28204b4f 
00002f6a 5f445453 
00002f6e 2946464f 
00002f72 00 
00002f73 01        10633 	.data.b	1
00002f74 51        10634 	.data.b	81
00002f75 435f534f  10635 	.data.b	79,83,95,67,70,71,95,80,79,83,84,84,65,83,75,72,79,79,75,32,40,83,84,68,95,79,70,70,41,0
00002f79 505f4746 
00002f7d 5454534f 
00002f81 484b5341 
00002f85 204b4f4f 
00002f89 44545328 
00002f8d 46464f5f 
00002f91 0029 
00002f93 01        10636 	.data.b	1
00002f94 54        10637 	.data.b	84
00002f95 435f534f  10638 	.data.b	79,83,95,67,70,71,95,80,65,78,73,67,72,79,79,75,32,40,83,84,68,95,79,78,41,0
00002f99 505f4746 
00002f9d 43494e41 
00002fa1 4b4f4f48 
00002fa5 54532820 
00002fa9 4e4f5f44 
00002fad 0029 
00002faf 01        10639 	.data.b	1
00002fb0 57        10640 	.data.b	87
00002fb1 435f534f  10641 	.data.b	79,83,95,67,70,71,95,83,84,65,82,84,85,80,72,79,79,75,95,83,89,83,84,69,77,32,40,83,84,68,95,79,70,70,41,0
00002fb5 535f4746 
00002fb9 54524154 
00002fbd 4f485055 
00002fc1 535f4b4f 
00002fc5 45545359 

                                                                      Page 259
                                                              C:\Users\Fengyuan\AppData\Local\Temp\gh_0000p9o1.s
00002fc9 5328204d 
00002fcd 4f5f4454 
00002fd1 00294646 
00002fd5 01        10642 	.data.b	1
00002fd6 5a        10643 	.data.b	90
00002fd7 435f534f  10644 	.data.b	79,83,95,67,70,71,95,83,72,85,84,68,79,87,78,72,79,79,75,95,83,89,83,84,69,77,32,40,83,84,68,95,79,70,70,41,0
00002fdb 535f4746 
00002fdf 44545548 
00002fe3 484e574f 
00002fe7 5f4b4f4f 
00002feb 54535953 
00002fef 28204d45 
00002ff3 5f445453 
00002ff7 2946464f 
00002ffb 00 
00002ffc 01        10645 	.data.b	1
00002ffd 5d        10646 	.data.b	93
00002ffe 435f534f  10647 	.data.b	79,83,95,67,70,71,95,69,82,82,79,82,72,79,79,75,95,83,89,83,84,69,77,32,40,83,84,68,95,79,78,41,0
00003002 455f4746 
00003006 524f5252 
0000300a 4b4f4f48 
0000300e 5359535f 
00003012 204d4554 
00003016 44545328 
0000301a 294e4f5f 
0000301e 00 
0000301f 01        10648 	.data.b	1
00003020 60        10649 	.data.b	96
00003021 435f534f  10650 	.data.b	79,83,95,67,70,71,95,80,82,79,84,69,67,84,73,79,78,72,79,79,75,95,83,89,83,84,69,77,32,40,83,84,68,95,79,70,70,41,0
00003025 505f4746 
00003029 45544f52 
0000302d 4f495443 
00003031 4f4f484e 
00003035 59535f4b 
00003039 4d455453 
0000303d 54532820 
00003041 464f5f44 
00003045 002946 
00003048 01        10651 	.data.b	1
00003049 63        10652 	.data.b	99
0000304a 435f534f  10653 	.data.b	79,83,95,67,70,71,95,80,69,82,73,80,72,69,82,65,76,95,67,79,77,80,65,84,73,66,73,76,73,84,89,32,40,83,84,68,95,79,70,70,41,0
0000304e 505f4746 
00003052 50495245 
00003056 41524548 
0000305a 4f435f4c 
0000305e 5441504d 
00003062 4c494249 
00003066 20595449 
0000306a 44545328 
0000306e 46464f5f 
00003072 0029 
00003074 04        10654 	.data.b	4
00003075 03        10655 	.data.b	3
00003076 2c        10656 	.data.b	44
00003077 3a        10657 	.data.b	58
00003078 03        10658 	.data.b	3
00003079 27        10659 	.data.b	39
0000307a 3b        10660 	.data.b	59
0000307b 01        10661 	.data.b	1
0000307c 21        10662 	.data.b	33
0000307d 545f534f  10663 	.data.b	79,83,95,84,89,80,69,83,95,76,67,70,71,95,72,32,0

                                                                      Page 260
                                                              C:\Users\Fengyuan\AppData\Local\Temp\gh_0000p9o1.s
00003081 53455059 
00003085 46434c5f 
00003089 20485f47 
0000308d 00 
0000308e 01        10664 	.data.b	1
0000308f 35        10665 	.data.b	53
00003090 74737953  10666 	.data.b	83,121,115,116,101,109,65,112,112,108,105,99,97,116,105,111,110,95,79,115,67,111,114,101,48,32,83,121,115,116,101,109,65,112,112,108,105,99,97,116,105,111,110,95,79,115,67,111,114,101,48,0
00003094 70416d65 
00003098 63696c70 
0000309c 6f697461 
000030a0 734f5f6e 
000030a4 65726f43 
000030a8 79532030 
000030ac 6d657473 
000030b0 6c707041 
000030b4 74616369 
000030b8 5f6e6f69 
000030bc 6f43734f 
000030c0 00306572 
000030c4 01        10667 	.data.b	1
000030c5 3e        10668 	.data.b	62
000030c6 61666544  10669 	.data.b	68,101,102,97,117,108,116,95,73,110,105,116,95,84,97,115,107,32,68,101,102,97,117,108,116,95,73,110,105,116,95,84,97,115,107,0
000030ca 5f746c75 
000030ce 74696e49 
000030d2 7361545f 
000030d6 6544206b 
000030da 6c756166 
000030de 6e495f74 
000030e2 545f7469 
000030e6 006b7361 
000030ea 01        10670 	.data.b	1
000030eb 3f        10671 	.data.b	63
000030ec 656c6449  10672 	.data.b	73,100,108,101,84,97,115,107,95,79,115,67,111,114,101,48,32,73,100,108,101,84,97,115,107,95,79,115,67,111,114,101,48,0
000030f0 6b736154 
000030f4 43734f5f 
000030f8 3065726f 
000030fc 6c644920 
00003100 73615465 
00003104 734f5f6b 
00003108 65726f43 
0000310c 0030 
0000310e 01        10673 	.data.b	1
0000310f 40        10674 	.data.b	64
00003110 6154734f  10675 	.data.b	79,115,84,97,115,107,95,65,80,80,32,79,115,84,97,115,107,95,65,80,80,0
00003114 415f6b73 
00003118 4f205050 
0000311c 73615473 
00003120 50415f6b 
00003124 0050 
00003126 01        10676 	.data.b	1
00003127 41        10677 	.data.b	65
00003128 6154734f  10678 	.data.b	79,115,84,97,115,107,95,66,83,87,95,83,67,72,77,32,79,115,84,97,115,107,95,66,83,87,95,83,67,72,77,0
0000312c 425f6b73 
00003130 535f5753 
00003134 204d4843 
00003138 6154734f 
0000313c 425f6b73 
00003140 535f5753 
00003144 004d4843 
00003148 01        10679 	.data.b	1
00003149 44        10680 	.data.b	68

                                                                      Page 261
                                                              C:\Users\Fengyuan\AppData\Local\Temp\gh_0000p9o1.s
0000314a 496e6143  10681 	.data.b	67,97,110,73,115,114,95,48,95,66,117,115,79,102,102,32,67,97,110,73,115,114,95,48,95,66,117,115,79,102,102,0
0000314e 305f7273 
00003152 7375425f 
00003156 2066664f 
0000315a 496e6143 
0000315e 305f7273 
00003162 7375425f 
00003166 0066664f 
0000316a 01        10682 	.data.b	1
0000316b 45        10683 	.data.b	69
0000316c 496e6143  10684 	.data.b	67,97,110,73,115,114,95,48,95,77,66,48,48,84,111,49,53,32,67,97,110,73,115,114,95,48,95,77,66,48,48,84,111,49,53,0
00003170 305f7273 
00003174 30424d5f 
00003178 316f5430 
0000317c 61432035 
00003180 7273496e 
00003184 4d5f305f 
00003188 54303042 
0000318c 0035316f 
00003190 01        10685 	.data.b	1
00003191 46        10686 	.data.b	70
00003192 496e6143  10687 	.data.b	67,97,110,73,115,114,95,48,95,77,66,49,54,84,111,51,49,32,67,97,110,73,115,114,95,48,95,77,66,49,54,84,111,51,49,0
00003196 305f7273 
0000319a 31424d5f 
0000319e 336f5436 
000031a2 61432031 
000031a6 7273496e 
000031aa 4d5f305f 
000031ae 54363142 
000031b2 0031336f 
000031b6 01        10688 	.data.b	1
000031b7 47        10689 	.data.b	71
000031b8 6e756f43  10690 	.data.b	67,111,117,110,116,101,114,73,115,114,95,83,121,115,116,101,109,84,105,109,101,114,32,67,111,117,110,116,101,114,73,115,114,95,83,121,115,116,101,109,84,105,109,101,114,0
000031bc 49726574 
000031c0 535f7273 
000031c4 65747379 
000031c8 6d69546d 
000031cc 43207265 
000031d0 746e756f 
000031d4 73497265 
000031d8 79535f72 
000031dc 6d657473 
000031e0 656d6954 
000031e4 0072 
000031e6 01        10691 	.data.b	1
000031e7 4a        10692 	.data.b	74
000031e8 5f657452  10693 	.data.b	82,116,101,95,65,108,95,84,69,50,95,79,115,84,97,115,107,95,66,83,87,95,83,67,72,77,95,48,95,49,48,109,115,32,82,116,101,95,65,108,95,84,69,50,95,79,115,84,97,115,107,95,66,83,87,95,83,67,72,77
000031ec 545f6c41 
000031f0 4f5f3245 
000031f4 73615473 
000031f8 53425f6b 
000031fc 43535f57 
00003200 305f4d48 
00003204 6d30315f 
00003208 74522073 
0000320c 6c415f65 
00003210 3245545f 
00003214 54734f5f 
00003218 5f6b7361 
0000321c 5f575342 
00003220 4d484353 

                                                                      Page 262
                                                              C:\Users\Fengyuan\AppData\Local\Temp\gh_0000p9o1.s
00003224 315f305f  10694 	.data.b	95,48,95,49,48,109,115,0
00003228 00736d30 
0000322c 01        10695 	.data.b	1
0000322d 4b        10696 	.data.b	75
0000322e 5f657452  10697 	.data.b	82,116,101,95,65,108,95,84,69,50,95,79,115,84,97,115,107,95,66,83,87,95,83,67,72,77,95,48,95,50,48,109,115,32,82,116,101,95,65,108,95,84,69,50,95,79,115,84,97,115,107,95,66,83,87,95,83,67,72,77
00003232 545f6c41 
00003236 4f5f3245 
0000323a 73615473 
0000323e 53425f6b 
00003242 43535f57 
00003246 305f4d48 
0000324a 6d30325f 
0000324e 74522073 
00003252 6c415f65 
00003256 3245545f 
0000325a 54734f5f 
0000325e 5f6b7361 
00003262 5f575342 
00003266 4d484353 
0000326a 325f305f  10698 	.data.b	95,48,95,50,48,109,115,0
0000326e 00736d30 
00003272 01        10699 	.data.b	1
00003273 4c        10700 	.data.b	76
00003274 5f657452  10701 	.data.b	82,116,101,95,65,108,95,84,69,95,67,97,110,84,112,95,67,97,110,84,112,95,77,97,105,110,70,117,110,99,116,105,111,110,32,82,116,101,95,65,108,95,84,69,95,67,97,110,84,112,95,67,97,110,84,112,95,77,97,105
00003278 545f6c41 
0000327c 61435f45 
00003280 5f70546e 
00003284 546e6143 
00003288 614d5f70 
0000328c 75466e69 
00003290 6974636e 
00003294 52206e6f 
00003298 415f6574 
0000329c 45545f6c 
000032a0 6e61435f 
000032a4 435f7054 
000032a8 70546e61 
000032ac 69614d5f 
000032b0 6e75466e  10702 	.data.b	110,70,117,110,99,116,105,111,110,0
000032b4 6f697463 
000032b8 006e 
000032ba 01        10703 	.data.b	1
000032bb 4d        10704 	.data.b	77
000032bc 5f657452  10705 	.data.b	82,116,101,95,65,108,95,84,69,95,67,100,100,95,83,66,67,95,85,74,65,49,49,54,57,95,83,98,99,95,84,101,115,116,95,82,117,110,110,97,98,108,101,32,82,116,101,95,65,108,95,84,69,95,67,100,100,95,83,66
000032c0 545f6c41 
000032c4 64435f45 
000032c8 42535f64 
000032cc 4a555f43 
000032d0 36313141 
000032d4 62535f39 
000032d8 65545f63 
000032dc 525f7473 
000032e0 616e6e75 
000032e4 20656c62 
000032e8 5f657452 
000032ec 545f6c41 
000032f0 64435f45 
000032f4 42535f64 
000032f8 4a555f43  10706 	.data.b	67,95,85,74,65,49,49,54,57,95,83,98,99,95,84,101,115,116,95,82,117,110,110,97,98,108,101,0
000032fc 36313141 
00003300 62535f39 

                                                                      Page 263
                                                              C:\Users\Fengyuan\AppData\Local\Temp\gh_0000p9o1.s
00003304 65545f63 
00003308 525f7473 
0000330c 616e6e75 
00003310 00656c62 
00003314 01        10707 	.data.b	1
00003315 4e        10708 	.data.b	78
00003316 5f657452  10709 	.data.b	82,116,101,95,65,108,95,84,69,95,67,112,76,101,100,84,97,115,107,95,76,101,100,82,117,110,110,97,98,108,101,32,82,116,101,95,65,108,95,84,69,95,67,112,76,101,100,84,97,115,107,95,76,101,100,82,117,110,110,97
0000331a 545f6c41 
0000331e 70435f45 
00003322 5464654c 
00003326 5f6b7361 
0000332a 5264654c 
0000332e 616e6e75 
00003332 20656c62 
00003336 5f657452 
0000333a 545f6c41 
0000333e 70435f45 
00003342 5464654c 
00003346 5f6b7361 
0000334a 5264654c 
0000334e 616e6e75 
00003352 00656c62  10710 	.data.b	98,108,101,0
00003356 01        10711 	.data.b	1
00003357 51        10712 	.data.b	81
00003358 74737953  10713 	.data.b	83,121,115,116,101,109,84,105,109,101,114,32,83,121,115,116,101,109,84,105,109,101,114,0
0000335c 69546d65 
00003360 2072656d 
00003364 74737953 
00003368 69546d65 
0000336c 0072656d 
00003370 01        10714 	.data.b	1
00003371 56        10715 	.data.b	86
00003372 6552734f  10716 	.data.b	79,115,82,101,115,111,117,114,99,101,32,79,115,82,101,115,111,117,114,99,101,0
00003376 72756f73 
0000337a 4f206563 
0000337e 73655273 
00003382 6372756f 
00003386 0065 
00003388 04        10717 	.data.b	4
00003389 03        10718 	.data.b	3
0000338a 2b        10719 	.data.b	43
0000338b 3c        10720 	.data.b	60
0000338c 01        10721 	.data.b	1
0000338d 1c        10722 	.data.b	28
0000338e 485f534f  10723 	.data.b	79,83,95,72,65,76,95,79,83,95,84,89,80,69,83,95,72,32,0
00003392 4f5f4c41 
00003396 59545f53 
0000339a 5f534550 
0000339e 002048 
000033a1 04        10724 	.data.b	4
000033a2 01        10725 	.data.b	1
000033a3 33        10726 	.data.b	51
000033a4 534f5f45  10727 	.data.b	69,95,79,83,95,65,67,67,69,83,83,32,40,40,83,116,97,116,117,115,84,121,112,101,41,48,120,48,49,41,0
000033a8 4343415f 
000033ac 20535345 
000033b0 74532828 
000033b4 73757461 
000033b8 65707954 
000033bc 30783029 
000033c0 002931 
000033c3 01        10728 	.data.b	1

                                                                      Page 264
                                                              C:\Users\Fengyuan\AppData\Local\Temp\gh_0000p9o1.s
000033c4 35        10729 	.data.b	53
000033c5 534f5f45  10730 	.data.b	69,95,79,83,95,67,65,76,76,69,86,69,76,32,40,40,83,116,97,116,117,115,84,121,112,101,41,48,120,48,50,41,0
000033c9 4c41435f 
000033cd 4556454c 
000033d1 2828204c 
000033d5 74617453 
000033d9 79547375 
000033dd 30296570 
000033e1 29323078 
000033e5 00 
000033e6 01        10731 	.data.b	1
000033e7 37        10732 	.data.b	55
000033e8 534f5f45  10733 	.data.b	69,95,79,83,95,73,68,32,40,40,83,116,97,116,117,115,84,121,112,101,41,48,120,48,51,41,0
000033ec 2044495f 
000033f0 74532828 
000033f4 73757461 
000033f8 65707954 
000033fc 30783029 
00003400 002933 
00003403 01        10734 	.data.b	1
00003404 39        10735 	.data.b	57
00003405 534f5f45  10736 	.data.b	69,95,79,83,95,76,73,77,73,84,32,40,40,83,116,97,116,117,115,84,121,112,101,41,48,120,48,52,41,0
00003409 4d494c5f 
0000340d 28205449 
00003411 61745328 
00003415 54737574 
00003419 29657079 
0000341d 34307830 
00003421 0029 
00003423 01        10737 	.data.b	1
00003424 3b        10738 	.data.b	59
00003425 534f5f45  10739 	.data.b	69,95,79,83,95,78,79,70,85,78,67,32,40,40,83,116,97,116,117,115,84,121,112,101,41,48,120,48,53,41,0
00003429 464f4e5f 
0000342d 20434e55 
00003431 74532828 
00003435 73757461 
00003439 65707954 
0000343d 30783029 
00003441 002935 
00003444 01        10740 	.data.b	1
00003445 3d        10741 	.data.b	61
00003446 534f5f45  10742 	.data.b	69,95,79,83,95,82,69,83,79,85,82,67,69,32,40,40,83,116,97,116,117,115,84,121,112,101,41,48,120,48,54,41,0
0000344a 5345525f 
0000344e 4352554f 
00003452 28282045 
00003456 74617453 
0000345a 79547375 
0000345e 30296570 
00003462 29363078 
00003466 00 
00003467 01        10743 	.data.b	1
00003468 3f        10744 	.data.b	63
00003469 534f5f45  10745 	.data.b	69,95,79,83,95,83,84,65,84,69,32,40,40,83,116,97,116,117,115,84,121,112,101,41,48,120,48,55,41,0
0000346d 4154535f 
00003471 28204554 
00003475 61745328 
00003479 54737574 
0000347d 29657079 
00003481 37307830 
00003485 0029 
00003487 01        10746 	.data.b	1

                                                                      Page 265
                                                              C:\Users\Fengyuan\AppData\Local\Temp\gh_0000p9o1.s
00003488 41        10747 	.data.b	65
00003489 534f5f45  10748 	.data.b	69,95,79,83,95,86,65,76,85,69,32,40,40,83,116,97,116,117,115,84,121,112,101,41,48,120,48,56,41,0
0000348d 4c41565f 
00003491 28204555 
00003495 61745328 
00003499 54737574 
0000349d 29657079 
000034a1 38307830 
000034a5 0029 
000034a7 01        10749 	.data.b	1
000034a8 45        10750 	.data.b	69
000034a9 534f5f45  10751 	.data.b	69,95,79,83,95,83,69,82,86,73,67,69,73,68,32,40,40,83,116,97,116,117,115,84,121,112,101,41,48,120,48,57,41,0
000034ad 5245535f 
000034b1 45434956 
000034b5 28204449 
000034b9 61745328 
000034bd 54737574 
000034c1 29657079 
000034c5 39307830 
000034c9 0029 
000034cb 01        10752 	.data.b	1
000034cc 49        10753 	.data.b	73
000034cd 534f5f45  10754 	.data.b	69,95,79,83,95,73,76,76,69,71,65,76,95,65,68,68,82,69,83,83,32,40,40,83,116,97,116,117,115,84,121,112,101,41,48,120,48,65,41,0
000034d1 4c4c495f 
000034d5 4c414745 
000034d9 4444415f 
000034dd 53534552 
000034e1 53282820 
000034e5 75746174 
000034e9 70795473 
000034ed 78302965 
000034f1 00294130 
000034f5 01        10755 	.data.b	1
000034f6 4b        10756 	.data.b	75
000034f7 534f5f45  10757 	.data.b	69,95,79,83,95,77,73,83,83,73,78,71,69,78,68,32,40,40,83,116,97,116,117,115,84,121,112,101,41,48,120,48,66,41,0
000034fb 53494d5f 
000034ff 474e4953 
00003503 20444e45 
00003507 74532828 
0000350b 73757461 
0000350f 65707954 
00003513 30783029 
00003517 002942 
0000351a 01        10758 	.data.b	1
0000351b 4d        10759 	.data.b	77
0000351c 534f5f45  10760 	.data.b	69,95,79,83,95,68,73,83,65,66,76,69,68,73,78,84,32,40,40,83,116,97,116,117,115,84,121,112,101,41,48,120,48,67,41,0
00003520 5349445f 
00003524 454c4241 
00003528 544e4944 
0000352c 53282820 
00003530 75746174 
00003534 70795473 
00003538 78302965 
0000353c 00294330 
00003540 01        10761 	.data.b	1
00003541 4f        10762 	.data.b	79
00003542 534f5f45  10763 	.data.b	69,95,79,83,95,83,84,65,67,75,70,65,85,76,84,32,40,40,83,116,97,116,117,115,84,121,112,101,41,48,120,48,68,41,0
00003546 4154535f 
0000354a 41464b43 
0000354e 20544c55 
00003552 74532828 

                                                                      Page 266
                                                              C:\Users\Fengyuan\AppData\Local\Temp\gh_0000p9o1.s
00003556 73757461 
0000355a 65707954 
0000355e 30783029 
00003562 002944 
00003565 01        10764 	.data.b	1
00003566 51        10765 	.data.b	81
00003567 534f5f45  10766 	.data.b	69,95,79,83,95,80,82,79,84,69,67,84,73,79,78,95,77,69,77,79,82,89,32,40,40,83,116,97,116,117,115,84,121,112,101,41,48,120,48,69,41,0
0000356b 4f52505f 
0000356f 54434554 
00003573 5f4e4f49 
00003577 4f4d454d 
0000357b 28205952 
0000357f 61745328 
00003583 54737574 
00003587 29657079 
0000358b 45307830 
0000358f 0029 
00003591 01        10767 	.data.b	1
00003592 53        10768 	.data.b	83
00003593 534f5f45  10769 	.data.b	69,95,79,83,95,80,82,79,84,69,67,84,73,79,78,95,84,73,77,69,32,40,40,83,116,97,116,117,115,84,121,112,101,41,48,120,48,70,41,0
00003597 4f52505f 
0000359b 54434554 
0000359f 5f4e4f49 
000035a3 454d4954 
000035a7 53282820 
000035ab 75746174 
000035af 70795473 
000035b3 78302965 
000035b7 00294630 
000035bb 01        10770 	.data.b	1
000035bc 55        10771 	.data.b	85
000035bd 534f5f45  10772 	.data.b	69,95,79,83,95,80,82,79,84,69,67,84,73,79,78,95,65,82,82,73,86,65,76,32,40,40,83,116,97,116,117,115,84,121,112,101,41,48,120,49,48,41,0
000035c1 4f52505f 
000035c5 54434554 
000035c9 5f4e4f49 
000035cd 49525241 
000035d1 204c4156 
000035d5 74532828 
000035d9 73757461 
000035dd 65707954 
000035e1 31783029 
000035e5 002930 
000035e8 01        10773 	.data.b	1
000035e9 57        10774 	.data.b	87
000035ea 534f5f45  10775 	.data.b	69,95,79,83,95,80,82,79,84,69,67,84,73,79,78,95,76,79,67,75,69,68,32,40,40,83,116,97,116,117,115,84,121,112,101,41,48,120,49,49,41,0
000035ee 4f52505f 
000035f2 54434554 
000035f6 5f4e4f49 
000035fa 4b434f4c 
000035fe 28204445 
00003602 61745328 
00003606 54737574 
0000360a 29657079 
0000360e 31317830 
00003612 0029 
00003614 01        10776 	.data.b	1
00003615 59        10777 	.data.b	89
00003616 534f5f45  10778 	.data.b	69,95,79,83,95,80,82,79,84,69,67,84,73,79,78,95,69,88,67,69,80,84,73,79,78,32,40,40,83,116,97,116,117,115,84,121,112,101,41,48,120,49,50,41,0
0000361a 4f52505f 
0000361e 54434554 
00003622 5f4e4f49 

                                                                      Page 267
                                                              C:\Users\Fengyuan\AppData\Local\Temp\gh_0000p9o1.s
00003626 45435845 
0000362a 4f495450 
0000362e 2828204e 
00003632 74617453 
00003636 79547375 
0000363a 30296570 
0000363e 29323178 
00003642 00 
00003643 01        10779 	.data.b	1
00003644 5b        10780 	.data.b	91
00003645 534f5f45  10781 	.data.b	69,95,79,83,95,73,78,84,69,82,70,69,82,69,78,67,69,95,68,69,65,68,76,79,67,75,32,40,40,83,116,97,116,117,115,84,121,112,101,41,48,120,49,51,41,0
00003649 544e495f 
0000364d 45465245 
00003651 434e4552 
00003655 45445f45 
00003659 4f4c4441 
0000365d 28204b43 
00003661 61745328 
00003665 54737574 
00003669 29657079 
0000366d 33317830 
00003671 0029 
00003673 01        10782 	.data.b	1
00003674 5d        10783 	.data.b	93
00003675 534f5f45  10784 	.data.b	69,95,79,83,95,78,69,83,84,73,78,71,95,68,69,65,68,76,79,67,75,32,40,40,83,116,97,116,117,115,84,121,112,101,41,48,120,49,52,41,0
00003679 53454e5f 
0000367d 474e4954 
00003681 4145445f 
00003685 434f4c44 
00003689 2828204b 
0000368d 74617453 
00003691 79547375 
00003695 30296570 
00003699 29343178 
0000369d 00 
0000369e 01        10785 	.data.b	1
0000369f 5f        10786 	.data.b	95
000036a0 534f5f45  10787 	.data.b	69,95,79,83,95,83,80,73,78,76,79,67,75,32,40,40,83,116,97,116,117,115,84,121,112,101,41,48,120,49,53,41,0
000036a4 4950535f 
000036a8 434f4c4e 
000036ac 2828204b 
000036b0 74617453 
000036b4 79547375 
000036b8 30296570 
000036bc 29353178 
000036c0 00 
000036c1 01        10788 	.data.b	1
000036c2 61        10789 	.data.b	97
000036c3 534f5f45  10790 	.data.b	69,95,79,83,95,67,79,82,69,32,40,40,83,116,97,116,117,115,84,121,112,101,41,48,120,49,54,41,0
000036c7 524f435f 
000036cb 28282045 
000036cf 74617453 
000036d3 79547375 
000036d7 30296570 
000036db 29363178 
000036df 00 
000036e0 01        10791 	.data.b	1
000036e1 63        10792 	.data.b	99
000036e2 534f5f45  10793 	.data.b	69,95,79,83,95,80,65,82,65,77,95,80,79,73,78,84,69,82,32,40,40,83,116,97,116,117,115,84,121,112,101,41,48,120,49,55,41,0
000036e6 5241505f 
000036ea 505f4d41 

                                                                      Page 268
                                                              C:\Users\Fengyuan\AppData\Local\Temp\gh_0000p9o1.s
000036ee 544e494f 
000036f2 28205245 
000036f6 61745328 
000036fa 54737574 
000036fe 29657079 
00003702 37317830 
00003706 0029 
00003708 01        10794 	.data.b	1
00003709 67        10795 	.data.b	103
0000370a 534f5f45  10796 	.data.b	69,95,79,83,95,83,89,83,95,78,79,95,66,65,82,82,73,69,82,95,80,65,82,84,73,67,73,80,65,78,84,32,40,40,83,116,97,116,117,115,84,121,112,101,41,48,120,70,50,41,0
0000370e 5359535f 
00003712 5f4f4e5f 
00003716 52524142 
0000371a 5f524549 
0000371e 54524150 
00003722 50494349 
00003726 20544e41 
0000372a 74532828 
0000372e 73757461 
00003732 65707954 
00003736 46783029 
0000373a 002932 
0000373d 01        10797 	.data.b	1
0000373e 6a        10798 	.data.b	106
0000373f 534f5f45  10799 	.data.b	69,95,79,83,95,83,89,83,95,85,78,73,77,80,76,69,77,69,78,84,69,68,95,70,85,78,67,84,73,79,78,65,76,73,84,89,32,40,40,83,116,97,116,117,115,84,121,112,101,41,48,120,70,51,41,0
00003743 5359535f 
00003747 494e555f 
0000374b 454c504d 
0000374f 544e454d 
00003753 465f4445 
00003757 54434e55 
0000375b 414e4f49 
0000375f 5954494c 
00003763 53282820 
00003767 75746174 
0000376b 70795473 
0000376f 78302965 
00003773 00293346 
00003777 01        10800 	.data.b	1
00003778 6c        10801 	.data.b	108
00003779 534f5f45  10802 	.data.b	69,95,79,83,95,83,89,83,95,78,79,95,78,84,70,83,84,65,67,75,32,40,40,83,116,97,116,117,115,84,121,112,101,41,48,120,70,52,41,0
0000377d 5359535f 
00003781 5f4f4e5f 
00003785 5346544e 
00003789 4b434154 
0000378d 53282820 
00003791 75746174 
00003795 70795473 
00003799 78302965 
0000379d 00293446 
000037a1 01        10803 	.data.b	1
000037a2 6e        10804 	.data.b	110
000037a3 534f5f45  10805 	.data.b	69,95,79,83,95,83,89,83,95,79,86,69,82,70,76,79,87,32,40,40,83,116,97,116,117,115,84,121,112,101,41,48,120,70,53,41,0
000037a7 5359535f 
000037ab 45564f5f 
000037af 4f4c4652 
000037b3 28282057 
000037b7 74617453 
000037bb 79547375 
000037bf 30296570 
000037c3 29354678 

                                                                      Page 269
                                                              C:\Users\Fengyuan\AppData\Local\Temp\gh_0000p9o1.s
000037c7 00 
000037c8 01        10806 	.data.b	1
000037c9 70        10807 	.data.b	112
000037ca 534f5f45  10808 	.data.b	69,95,79,83,95,83,89,83,95,75,73,76,76,95,75,69,82,78,69,76,95,79,66,74,32,40,40,83,116,97,116,117,115,84,121,112,101,41,48,120,70,54,41,0
000037ce 5359535f 
000037d2 4c494b5f 
000037d6 454b5f4c 
000037da 4c454e52 
000037de 4a424f5f 
000037e2 53282820 
000037e6 75746174 
000037ea 70795473 
000037ee 78302965 
000037f2 00293646 
000037f6 01        10809 	.data.b	1
000037f7 72        10810 	.data.b	114
000037f8 534f5f45  10811 	.data.b	69,95,79,83,95,83,89,83,95,78,79,95,82,69,83,84,65,82,84,84,65,83,75,32,40,40,83,116,97,116,117,115,84,121,112,101,41,48,120,70,55,41,0
000037fc 5359535f 
00003800 5f4f4e5f 
00003804 54534552 
00003808 54545241 
0000380c 204b5341 
00003810 74532828 
00003814 73757461 
00003818 65707954 
0000381c 46783029 
00003820 002937 
00003823 01        10812 	.data.b	1
00003824 74        10813 	.data.b	116
00003825 534f5f45  10814 	.data.b	69,95,79,83,95,83,89,83,95,67,65,76,76,95,78,79,84,95,65,76,76,79,87,69,68,32,40,40,83,116,97,116,117,115,84,121,112,101,41,48,120,70,56,41,0
00003829 5359535f 
0000382d 4c41435f 
00003831 4f4e5f4c 
00003835 4c415f54 
00003839 45574f4c 
0000383d 28282044 
00003841 74617453 
00003845 79547375 
00003849 30296570 
0000384d 29384678 
00003851 00 
00003852 01        10815 	.data.b	1
00003853 76        10816 	.data.b	118
00003854 534f5f45  10817 	.data.b	69,95,79,83,95,83,89,83,95,70,85,78,67,84,73,79,78,95,85,78,65,86,65,73,76,65,66,76,69,32,40,40,83,116,97,116,117,115,84,121,112,101,41,48,120,70,57,41,0
00003858 5359535f 
0000385c 4e55465f 
00003860 4f495443 
00003864 4e555f4e 
00003868 49415641 
0000386c 4c42414c 
00003870 28282045 
00003874 74617453 
00003878 79547375 
0000387c 30296570 
00003880 29394678 
00003884 00 
00003885 01        10818 	.data.b	1
00003886 78        10819 	.data.b	120
00003887 534f5f45  10820 	.data.b	69,95,79,83,95,83,89,83,95,80,82,79,84,69,67,84,73,79,78,95,83,89,83,67,65,76,76,32,40,40,83,116,97,116,117,115,84,121,112,101,41,48,120,70,65,41,0
0000388b 5359535f 
0000388f 4f52505f 

                                                                      Page 270
                                                              C:\Users\Fengyuan\AppData\Local\Temp\gh_0000p9o1.s
00003893 54434554 
00003897 5f4e4f49 
0000389b 43535953 
0000389f 204c4c41 
000038a3 74532828 
000038a7 73757461 
000038ab 65707954 
000038af 46783029 
000038b3 002941 
000038b6 01        10821 	.data.b	1
000038b7 7a        10822 	.data.b	122
000038b8 534f5f45  10823 	.data.b	69,95,79,83,95,83,89,83,95,80,82,79,84,69,67,84,73,79,78,95,73,82,81,32,40,40,83,116,97,116,117,115,84,121,112,101,41,48,120,70,66,41,0
000038bc 5359535f 
000038c0 4f52505f 
000038c4 54434554 
000038c8 5f4e4f49 
000038cc 20515249 
000038d0 74532828 
000038d4 73757461 
000038d8 65707954 
000038dc 46783029 
000038e0 002942 
000038e3 01        10824 	.data.b	1
000038e4 7c        10825 	.data.b	124
000038e5 534f5f45  10826 	.data.b	69,95,79,83,95,83,89,83,95,65,80,73,95,69,82,82,79,82,32,40,40,83,116,97,116,117,115,84,121,112,101,41,48,120,70,67,41,0
000038e9 5359535f 
000038ed 4950415f 
000038f1 5252455f 
000038f5 2820524f 
000038f9 61745328 
000038fd 54737574 
00003901 29657079 
00003905 43467830 
00003909 0029 
0000390b 01        10827 	.data.b	1
0000390c 7e        10828 	.data.b	126
0000390d 534f5f45  10829 	.data.b	69,95,79,83,95,83,89,83,95,65,83,83,69,82,84,73,79,78,32,40,40,83,116,97,116,117,115,84,121,112,101,41,48,120,70,68,41,0
00003911 5359535f 
00003915 5353415f 
00003919 49545245 
0000391d 28204e4f 
00003921 61745328 
00003925 54737574 
00003929 29657079 
0000392d 44467830 
00003931 0029 
00003933 01        10830 	.data.b	1
00003934 0180      10831 	.data.b	128,1
00003936 534f5f45  10832 	.data.b	69,95,79,83,95,83,89,83,95,79,86,69,82,76,79,65,68,32,40,40,83,116,97,116,117,115,84,121,112,101,41,48,120,70,69,41,0
0000393a 5359535f 
0000393e 45564f5f 
00003942 414f4c52 
00003946 28282044 
0000394a 74617453 
0000394e 79547375 
00003952 30296570 
00003956 29454678 
0000395a 00 
0000395b 01        10833 	.data.b	1
0000395c 01bd      10834 	.data.b	189,1
0000395e 535f534f  10835 	.data.b	79,83,95,83,84,65,84,85,83,95,84,89,80,69,95,86,65,82,73,65,78,84,40,83,116,97,116,117,115,44,86,97,114,105,97,110,116,41,32,40,40,117,105,110,116,51,50,41,32,40,40,40,117,105,110,116,51,50,41,40

                                                                      Page 271
                                                              C:\Users\Fengyuan\AppData\Local\Temp\gh_0000p9o1.s
00003962 55544154 
00003966 59545f53 
0000396a 565f4550 
0000396e 41495241 
00003972 5328544e 
00003976 75746174 
0000397a 61562c73 
0000397e 6e616972 
00003982 28202974 
00003986 6e697528 
0000398a 29323374 
0000398e 28282820 
00003992 746e6975 
00003996 28293233 
0000399a 69726156  10836 	.data.b	86,97,114,105,97,110,116,41,41,32,60,60,32,40,115,105,122,101,111,102,40,83,116,97,116,117,115,84,121,112,101,41,42,56,41,41,32,124,32,40,117,105,110,116,51,50,41,40,83,116,97,116,117,115,41,41,0
0000399e 29746e61 
000039a2 3c3c2029 
000039a6 69732820 
000039aa 666f657a 
000039ae 61745328 
000039b2 54737574 
000039b6 29657079 
000039ba 2929382a 
000039be 28207c20 
000039c2 746e6975 
000039c6 28293233 
000039ca 74617453 
000039ce 29297375 
000039d2 00 
000039d3 04        10837 	.data.b	4
000039d4 03        10838 	.data.b	3
000039d5 2d        10839 	.data.b	45
000039d6 3b        10840 	.data.b	59
000039d7 04        10841 	.data.b	4
000039d8 03        10842 	.data.b	3
000039d9 32        10843 	.data.b	50
000039da 3d        10844 	.data.b	61
000039db 03        10845 	.data.b	3
000039dc 2b        10846 	.data.b	43
000039dd 38        10847 	.data.b	56
000039de 04        10848 	.data.b	4
000039df 01        10849 	.data.b	1
000039e0 37        10850 	.data.b	55
000039e1 435f534f  10851 	.data.b	79,83,95,67,79,82,69,95,73,68,95,48,32,79,83,95,67,79,82,69,95,73,68,95,48,0
000039e5 5f45524f 
000039e9 305f4449 
000039ed 5f534f20 
000039f1 45524f43 
000039f5 5f44495f 
000039f9 0030 
000039fb 04        10852 	.data.b	4
000039fc 03        10853 	.data.b	3
000039fd 50        10854 	.data.b	80
000039fe 19        10855 	.data.b	25
000039ff 04        10856 	.data.b	4
00003a00 03        10857 	.data.b	3
00003a01 58        10858 	.data.b	88
00003a02 19        10859 	.data.b	25
00003a03 04        10860 	.data.b	4
00003a04 03        10861 	.data.b	3
00003a05 5c        10862 	.data.b	92

                                                                      Page 272
                                                              C:\Users\Fengyuan\AppData\Local\Temp\gh_0000p9o1.s
00003a06 19        10863 	.data.b	25
00003a07 04        10864 	.data.b	4
00003a08 03        10865 	.data.b	3
00003a09 64        10866 	.data.b	100
00003a0a 19        10867 	.data.b	25
00003a0b 04        10868 	.data.b	4
00003a0c 03        10869 	.data.b	3
00003a0d 68        10870 	.data.b	104
00003a0e 19        10871 	.data.b	25
00003a0f 04        10872 	.data.b	4
00003a10 03        10873 	.data.b	3
00003a11 70        10874 	.data.b	112
00003a12 19        10875 	.data.b	25
00003a13 04        10876 	.data.b	4
00003a14 03        10877 	.data.b	3
00003a15 74        10878 	.data.b	116
00003a16 19        10879 	.data.b	25
00003a17 04        10880 	.data.b	4
00003a18 03        10881 	.data.b	3
00003a19 7c        10882 	.data.b	124
00003a1a 19        10883 	.data.b	25
00003a1b 04        10884 	.data.b	4
00003a1c 03        10885 	.data.b	3
00003a1d 0180      10886 	.data.b	128,1
00003a1f 19        10887 	.data.b	25
00003a20 04        10888 	.data.b	4
00003a21 03        10889 	.data.b	3
00003a22 0188      10890 	.data.b	136,1
00003a24 19        10891 	.data.b	25
00003a25 04        10892 	.data.b	4
00003a26 04        10893 	.data.b	4
00003a27 03        10894 	.data.b	3
00003a28 2d        10895 	.data.b	45
00003a29 3e        10896 	.data.b	62
00003a2a 01        10897 	.data.b	1
00003a2b 21        10898 	.data.b	33
00003a2c 485f534f  10899 	.data.b	79,83,95,72,65,76,95,79,83,73,78,84,95,72,32,0
00003a30 4f5f4c41 
00003a34 544e4953 
00003a38 0020485f 
00003a3c 03        10900 	.data.b	3
00003a3d 2a        10901 	.data.b	42
00003a3e 3c        10902 	.data.b	60
00003a3f 04        10903 	.data.b	4
00003a40 03        10904 	.data.b	3
00003a41 2d        10905 	.data.b	45
00003a42 37        10906 	.data.b	55
00003a43 04        10907 	.data.b	4
00003a44 04        10908 	.data.b	4
00003a45 03        10909 	.data.b	3
00003a46 02e4      10910 	.data.b	228,2
00003a48 19        10911 	.data.b	25
00003a49 04        10912 	.data.b	4
00003a4a 03        10913 	.data.b	3
00003a4b 02fd      10914 	.data.b	253,2
00003a4d 19        10915 	.data.b	25
00003a4e 04        10916 	.data.b	4
00003a4f 03        10917 	.data.b	3
00003a50 03e0      10918 	.data.b	224,3
00003a52 19        10919 	.data.b	25
00003a53 04        10920 	.data.b	4

                                                                      Page 273
                                                              C:\Users\Fengyuan\AppData\Local\Temp\gh_0000p9o1.s
00003a54 03        10921 	.data.b	3
00003a55 03f4      10922 	.data.b	244,3
00003a57 19        10923 	.data.b	25
00003a58 04        10924 	.data.b	4
00003a59 04        10925 	.data.b	4
00003a5a 03        10926 	.data.b	3
00003a5b 0389      10927 	.data.b	137,3
00003a5d 38        10928 	.data.b	56
00003a5e 04        10929 	.data.b	4
00003a5f 03        10930 	.data.b	3
00003a60 038a      10931 	.data.b	138,3
00003a62 3b        10932 	.data.b	59
00003a63 04        10933 	.data.b	4
00003a64 03        10934 	.data.b	3
00003a65 038f      10935 	.data.b	143,3
00003a67 3f        10936 	.data.b	63
00003a68 03        10937 	.data.b	3
00003a69 7b        10938 	.data.b	123
00003a6a 3e        10939 	.data.b	62
00003a6b 04        10940 	.data.b	4
00003a6c 03        10941 	.data.b	3
00003a6d 7e        10942 	.data.b	126
00003a6e 37        10943 	.data.b	55
00003a6f 04        10944 	.data.b	4
00003a70 04        10945 	.data.b	4
00003a71 01        10946 	.data.b	1
00003a72 03f7      10947 	.data.b	247,3
00003a74 535f534f  10948 	.data.b	79,83,95,83,84,65,82,84,95,83,69,67,95,67,79,68,69,32,0
00003a78 54524154 
00003a7c 4345535f 
00003a80 444f435f 
00003a84 002045 
00003a87 03        10949 	.data.b	3
00003a88 03f8      10950 	.data.b	248,3
00003a8a 40        10951 	.data.b	64
00003a8b 01        10952 	.data.b	1
00003a8c 24        10953 	.data.b	36
00003a8d 4d4d454d  10954 	.data.b	77,69,77,77,65,80,95,69,82,82,79,82,32,0
00003a91 455f5041 
00003a95 524f5252 
00003a99 0020 
00003a9b 03        10955 	.data.b	3
00003a9c 26        10956 	.data.b	38
00003a9d 41        10957 	.data.b	65
00003a9e 01        10958 	.data.b	1
00003a9f 26        10959 	.data.b	38
00003aa0 4d5f534f  10960 	.data.b	79,83,95,77,69,77,77,65,80,95,83,69,67,84,73,79,78,95,79,80,69,78,32,0
00003aa4 414d4d45 
00003aa8 45535f50 
00003aac 4f495443 
00003ab0 504f5f4e 
00003ab4 00204e45 
00003ab8 01        10961 	.data.b	1
00003ab9 27        10962 	.data.b	39
00003aba 435f534f  10963 	.data.b	79,83,95,67,79,68,69,95,79,80,69,78,32,0
00003abe 5f45444f 
00003ac2 4e45504f 
00003ac6 0020 
00003ac8 04        10964 	.data.b	4
00003ac9 04        10965 	.data.b	4
00003aca 01        10966 	.data.b	1

                                                                      Page 274
                                                              C:\Users\Fengyuan\AppData\Local\Temp\gh_0000p9o1.s
00003acb 29d2      10967 	.data.b	210,41
00003acd 535f534f  10968 	.data.b	79,83,95,83,84,79,80,95,83,69,67,95,67,79,68,69,32,0
00003ad1 5f504f54 
00003ad5 5f434553 
00003ad9 45444f43 
00003add 0020 
00003adf 03        10969 	.data.b	3
00003ae0 29d3      10970 	.data.b	211,41
00003ae2 40        10971 	.data.b	64
00003ae3 01        10972 	.data.b	1
00003ae4 24        10973 	.data.b	36
00003ae5 4d4d454d  10974 	.data.b	77,69,77,77,65,80,95,69,82,82,79,82,32,0
00003ae9 455f5041 
00003aed 524f5252 
00003af1 0020 
00003af3 03        10975 	.data.b	3
00003af4 26        10976 	.data.b	38
00003af5 41        10977 	.data.b	65
00003af6 04        10978 	.data.b	4
00003af7 04        10979 	.data.b	4
00003af8 04        10980 	.data.b	4
00003af9 03        10981 	.data.b	3
00003afa 21        10982 	.data.b	33
00003afb 19        10983 	.data.b	25
00003afc 04        10984 	.data.b	4
00003afd 03        10985 	.data.b	3
00003afe 27        10986 	.data.b	39
00003aff 19        10987 	.data.b	25
00003b00 04        10988 	.data.b	4
00003b01 04        10989 	.data.b	4
00003b02 04        10990 	.data.b	4
00003b03 03        10991 	.data.b	3
00003b04 38        10992 	.data.b	56
00003b05 42        10993 	.data.b	66
00003b06 04        10994 	.data.b	4
00003b07 03        10995 	.data.b	3
00003b08 39        10996 	.data.b	57
00003b09 43        10997 	.data.b	67
00003b0a 04        10998 	.data.b	4
00003b0b 03        10999 	.data.b	3
00003b0c 3a        11000 	.data.b	58
00003b0d 44        11001 	.data.b	68
00003b0e 04        11002 	.data.b	4
00003b0f 04        11003 	.data.b	4
00003b10 03        11004 	.data.b	3
00003b11 3c        11005 	.data.b	60
00003b12 45        11006 	.data.b	69
00003b13 04        11007 	.data.b	4
00003b14 03        11008 	.data.b	3
00003b15 3d        11009 	.data.b	61
00003b16 46        11010 	.data.b	70
00003b17 03        11011 	.data.b	3
00003b18 37        11012 	.data.b	55
00003b19 47        11013 	.data.b	71
00003b1a 03        11014 	.data.b	3
00003b1b 35        11015 	.data.b	53
00003b1c 48        11016 	.data.b	72
00003b1d 04        11017 	.data.b	4
00003b1e 04        11018 	.data.b	4
00003b1f 03        11019 	.data.b	3
00003b20 38        11020 	.data.b	56

                                                                      Page 275
                                                              C:\Users\Fengyuan\AppData\Local\Temp\gh_0000p9o1.s
00003b21 49        11021 	.data.b	73
00003b22 03        11022 	.data.b	3
00003b23 39        11023 	.data.b	57
00003b24 4a        11024 	.data.b	74
00003b25 04        11025 	.data.b	4
00003b26 04        11026 	.data.b	4
00003b27 03        11027 	.data.b	3
00003b28 39        11028 	.data.b	57
00003b29 4b        11029 	.data.b	75
00003b2a 04        11030 	.data.b	4
00003b2b 04        11031 	.data.b	4
00003b2c 03        11032 	.data.b	3
00003b2d 3e        11033 	.data.b	62
00003b2e 4c        11034 	.data.b	76
00003b2f 03        11035 	.data.b	3
00003b30 36        11036 	.data.b	54
00003b31 4d        11037 	.data.b	77
00003b32 03        11038 	.data.b	3
00003b33 37        11039 	.data.b	55
00003b34 4e        11040 	.data.b	78
00003b35 04        11041 	.data.b	4
00003b36 04        11042 	.data.b	4
00003b37 04        11043 	.data.b	4
00003b38 03        11044 	.data.b	3
00003b39 3f        11045 	.data.b	63
00003b3a 4f        11046 	.data.b	79
00003b3b 04        11047 	.data.b	4
00003b3c 03        11048 	.data.b	3
00003b3d 40        11049 	.data.b	64
00003b3e 50        11050 	.data.b	80
00003b3f 03        11051 	.data.b	3
00003b40 37        11052 	.data.b	55
00003b41 51        11053 	.data.b	81
00003b42 04        11054 	.data.b	4
00003b43 03        11055 	.data.b	3
00003b44 38        11056 	.data.b	56
00003b45 52        11057 	.data.b	82
00003b46 04        11058 	.data.b	4
00003b47 04        11059 	.data.b	4
00003b48 03        11060 	.data.b	3
00003b49 41        11061 	.data.b	65
00003b4a 53        11062 	.data.b	83
00003b4b 03        11063 	.data.b	3
00003b4c 37        11064 	.data.b	55
00003b4d 54        11065 	.data.b	84
00003b4e 04        11066 	.data.b	4
00003b4f 04        11067 	.data.b	4
00003b50 03        11068 	.data.b	3
00003b51 42        11069 	.data.b	66
00003b52 55        11070 	.data.b	85
00003b53 04        11071 	.data.b	4
00003b54 03        11072 	.data.b	3
00003b55 44        11073 	.data.b	68
00003b56 35        11074 	.data.b	53
00003b57 04        11075 	.data.b	4
00003b58 01        11076 	.data.b	1
00003b59 5a        11077 	.data.b	90
00003b5a 5f4d4544  11078 	.data.b	68,69,77,95,67,70,71,95,67,76,73,69,78,84,84,65,66,76,69,32,83,84,68,95,79,78,0
00003b5e 5f474643 
00003b62 45494c43 
00003b66 4154544e 

                                                                      Page 276
                                                              C:\Users\Fengyuan\AppData\Local\Temp\gh_0000p9o1.s
00003b6a 20454c42 
00003b6e 5f445453 
00003b72 004e4f 
00003b75 01        11079 	.data.b	1
00003b76 5b        11080 	.data.b	91
00003b77 5f4d4544  11081 	.data.b	68,69,77,95,67,70,71,95,67,76,69,65,82,68,84,67,73,78,68,69,88,79,70,67,76,73,69,78,84,84,65,66,76,69,32,83,84,68,95,79,78,0
00003b7b 5f474643 
00003b7f 41454c43 
00003b83 43544452 
00003b87 45444e49 
00003b8b 43464f58 
00003b8f 4e45494c 
00003b93 42415454 
00003b97 5320454c 
00003b9b 4f5f4454 
00003b9f 004e 
00003ba1 01        11082 	.data.b	1
00003ba2 5f        11083 	.data.b	95
00003ba3 5f4d4544  11084 	.data.b	68,69,77,95,67,70,71,95,82,69,65,68,79,85,84,66,85,70,70,69,82,73,78,68,69,88,79,70,67,76,73,69,78,84,84,65,66,76,69,32,83,84,68,95,79,78,0
00003ba7 5f474643 
00003bab 44414552 
00003baf 4254554f 
00003bb3 45464655 
00003bb7 444e4952 
00003bbb 464f5845 
00003bbf 45494c43 
00003bc3 4154544e 
00003bc7 20454c42 
00003bcb 5f445453 
00003bcf 004e4f 
00003bd2 01        11085 	.data.b	1
00003bd3 67        11086 	.data.b	103
00003bd4 5f4d4544  11087 	.data.b	68,69,77,95,67,70,71,95,68,84,67,83,69,76,69,67,84,79,82,84,65,66,76,69,32,83,84,68,95,79,78,0
00003bd8 5f474643 
00003bdc 53435444 
00003be0 43454c45 
00003be4 54524f54 
00003be8 454c4241 
00003bec 44545320 
00003bf0 004e4f5f 
00003bf4 01        11088 	.data.b	1
00003bf5 01ed      11089 	.data.b	237,1
00003bf7 5f4d4544  11090 	.data.b	68,69,77,95,67,70,71,95,70,73,76,84,69,82,73,78,70,79,84,65,66,76,69,32,83,84,68,95,79,78,0
00003bfb 5f474643 
00003bff 544c4946 
00003c03 4e495245 
00003c07 41544f46 
00003c0b 20454c42 
00003c0f 5f445453 
00003c13 004e4f 
00003c16 01        11091 	.data.b	1
00003c17 01f1      11092 	.data.b	241,1
00003c19 5f4d4544  11093 	.data.b	68,69,77,95,67,70,71,95,70,82,69,69,90,69,70,82,65,77,69,73,84,69,82,65,84,79,82,84,65,66,76,69,32,83,84,68,95,79,78,0
00003c1d 5f474643 
00003c21 45455246 
00003c25 5246455a 
00003c29 49454d41 
00003c2d 41524554 
00003c31 54524f54 
00003c35 454c4241 
00003c39 44545320 

                                                                      Page 277
                                                              C:\Users\Fengyuan\AppData\Local\Temp\gh_0000p9o1.s
00003c3d 004e4f5f 
00003c41 01        11094 	.data.b	1
00003c42 06dd      11095 	.data.b	221,6
00003c44 5f6d6544  11096 	.data.b	68,101,109,95,67,111,110,102,105,103,95,80,116,114,32,78,85,76,76,95,80,84,82,0
00003c48 666e6f43 
00003c4c 505f6769 
00003c50 4e207274 
00003c54 5f4c4c55 
00003c58 00525450 
00003c5c 01        11097 	.data.b	1
00003c5d 06f7      11098 	.data.b	247,6
00003c5f 5f4d4544  11099 	.data.b	68,69,77,95,67,70,71,95,85,83,69,95,73,78,73,84,95,80,79,73,78,84,69,82,32,83,84,68,95,79,70,70,0
00003c63 5f474643 
00003c67 5f455355 
00003c6b 54494e49 
00003c6f 494f505f 
00003c73 5245544e 
00003c77 44545320 
00003c7b 46464f5f 
00003c7f 00 
00003c80 03        11100 	.data.b	3
00003c81 13a6      11101 	.data.b	166,19
00003c83 19        11102 	.data.b	25
00003c84 04        11103 	.data.b	4
00003c85 03        11104 	.data.b	3
00003c86 13ab      11105 	.data.b	171,19
00003c88 19        11106 	.data.b	25
00003c89 04        11107 	.data.b	4
00003c8a 03        11108 	.data.b	3
00003c8b 13bd      11109 	.data.b	189,19
00003c8d 19        11110 	.data.b	25
00003c8e 04        11111 	.data.b	4
00003c8f 03        11112 	.data.b	3
00003c90 13c2      11113 	.data.b	194,19
00003c92 19        11114 	.data.b	25
00003c93 04        11115 	.data.b	4
00003c94 03        11116 	.data.b	3
00003c95 13d2      11117 	.data.b	210,19
00003c97 19        11118 	.data.b	25
00003c98 04        11119 	.data.b	4
00003c99 03        11120 	.data.b	3
00003c9a 13d7      11121 	.data.b	215,19
00003c9c 19        11122 	.data.b	25
00003c9d 04        11123 	.data.b	4
00003c9e 03        11124 	.data.b	3
00003c9f 13e9      11125 	.data.b	233,19
00003ca1 19        11126 	.data.b	25
00003ca2 04        11127 	.data.b	4
00003ca3 03        11128 	.data.b	3
00003ca4 13ee      11129 	.data.b	238,19
00003ca6 19        11130 	.data.b	25
00003ca7 04        11131 	.data.b	4
00003ca8 03        11132 	.data.b	3
00003ca9 13fd      11133 	.data.b	253,19
00003cab 19        11134 	.data.b	25
00003cac 04        11135 	.data.b	4
00003cad 03        11136 	.data.b	3
00003cae 1482      11137 	.data.b	130,20
00003cb0 19        11138 	.data.b	25
00003cb1 04        11139 	.data.b	4
00003cb2 03        11140 	.data.b	3

                                                                      Page 278
                                                              C:\Users\Fengyuan\AppData\Local\Temp\gh_0000p9o1.s
00003cb3 1492      11141 	.data.b	146,20
00003cb5 19        11142 	.data.b	25
00003cb6 04        11143 	.data.b	4
00003cb7 03        11144 	.data.b	3
00003cb8 1497      11145 	.data.b	151,20
00003cba 19        11146 	.data.b	25
00003cbb 04        11147 	.data.b	4
00003cbc 03        11148 	.data.b	3
00003cbd 14a3      11149 	.data.b	163,20
00003cbf 19        11150 	.data.b	25
00003cc0 04        11151 	.data.b	4
00003cc1 03        11152 	.data.b	3
00003cc2 14a8      11153 	.data.b	168,20
00003cc4 19        11154 	.data.b	25
00003cc5 04        11155 	.data.b	4
00003cc6 03        11156 	.data.b	3
00003cc7 14b4      11157 	.data.b	180,20
00003cc9 19        11158 	.data.b	25
00003cca 04        11159 	.data.b	4
00003ccb 03        11160 	.data.b	3
00003ccc 14b9      11161 	.data.b	185,20
00003cce 19        11162 	.data.b	25
00003ccf 04        11163 	.data.b	4
00003cd0 03        11164 	.data.b	3
00003cd1 14c5      11165 	.data.b	197,20
00003cd3 19        11166 	.data.b	25
00003cd4 04        11167 	.data.b	4
00003cd5 03        11168 	.data.b	3
00003cd6 14ca      11169 	.data.b	202,20
00003cd8 19        11170 	.data.b	25
00003cd9 04        11171 	.data.b	4
00003cda 03        11172 	.data.b	3
00003cdb 14d6      11173 	.data.b	214,20
00003cdd 19        11174 	.data.b	25
00003cde 04        11175 	.data.b	4
00003cdf 03        11176 	.data.b	3
00003ce0 14db      11177 	.data.b	219,20
00003ce2 19        11178 	.data.b	25
00003ce3 04        11179 	.data.b	4
00003ce4 03        11180 	.data.b	3
00003ce5 14e3      11181 	.data.b	227,20
00003ce7 19        11182 	.data.b	25
00003ce8 04        11183 	.data.b	4
00003ce9 03        11184 	.data.b	3
00003cea 14e8      11185 	.data.b	232,20
00003cec 19        11186 	.data.b	25
00003ced 04        11187 	.data.b	4
00003cee 03        11188 	.data.b	3
00003cef 14f0      11189 	.data.b	240,20
00003cf1 19        11190 	.data.b	25
00003cf2 04        11191 	.data.b	4
00003cf3 03        11192 	.data.b	3
00003cf4 14f5      11193 	.data.b	245,20
00003cf6 19        11194 	.data.b	25
00003cf7 04        11195 	.data.b	4
00003cf8 03        11196 	.data.b	3
00003cf9 14fd      11197 	.data.b	253,20
00003cfb 19        11198 	.data.b	25
00003cfc 04        11199 	.data.b	4
00003cfd 03        11200 	.data.b	3
00003cfe 1582      11201 	.data.b	130,21

                                                                      Page 279
                                                              C:\Users\Fengyuan\AppData\Local\Temp\gh_0000p9o1.s
00003d00 19        11202 	.data.b	25
00003d01 04        11203 	.data.b	4
00003d02 03        11204 	.data.b	3
00003d03 158e      11205 	.data.b	142,21
00003d05 19        11206 	.data.b	25
00003d06 04        11207 	.data.b	4
00003d07 03        11208 	.data.b	3
00003d08 1593      11209 	.data.b	147,21
00003d0a 19        11210 	.data.b	25
00003d0b 04        11211 	.data.b	4
00003d0c 03        11212 	.data.b	3
00003d0d 159b      11213 	.data.b	155,21
00003d0f 19        11214 	.data.b	25
00003d10 04        11215 	.data.b	4
00003d11 03        11216 	.data.b	3
00003d12 15a0      11217 	.data.b	160,21
00003d14 19        11218 	.data.b	25
00003d15 04        11219 	.data.b	4
00003d16 03        11220 	.data.b	3
00003d17 15ac      11221 	.data.b	172,21
00003d19 19        11222 	.data.b	25
00003d1a 04        11223 	.data.b	4
00003d1b 03        11224 	.data.b	3
00003d1c 15b1      11225 	.data.b	177,21
00003d1e 19        11226 	.data.b	25
00003d1f 04        11227 	.data.b	4
00003d20 03        11228 	.data.b	3
00003d21 15bd      11229 	.data.b	189,21
00003d23 19        11230 	.data.b	25
00003d24 04        11231 	.data.b	4
00003d25 03        11232 	.data.b	3
00003d26 15c2      11233 	.data.b	194,21
00003d28 19        11234 	.data.b	25
00003d29 04        11235 	.data.b	4
00003d2a 03        11236 	.data.b	3
00003d2b 15ce      11237 	.data.b	206,21
00003d2d 19        11238 	.data.b	25
00003d2e 04        11239 	.data.b	4
00003d2f 03        11240 	.data.b	3
00003d30 15d3      11241 	.data.b	211,21
00003d32 19        11242 	.data.b	25
00003d33 04        11243 	.data.b	4
00003d34 03        11244 	.data.b	3
00003d35 15df      11245 	.data.b	223,21
00003d37 19        11246 	.data.b	25
00003d38 04        11247 	.data.b	4
00003d39 03        11248 	.data.b	3
00003d3a 15e4      11249 	.data.b	228,21
00003d3c 19        11250 	.data.b	25
00003d3d 04        11251 	.data.b	4
00003d3e 03        11252 	.data.b	3
00003d3f 15f0      11253 	.data.b	240,21
00003d41 19        11254 	.data.b	25
00003d42 04        11255 	.data.b	4
00003d43 03        11256 	.data.b	3
00003d44 15f5      11257 	.data.b	245,21
00003d46 19        11258 	.data.b	25
00003d47 04        11259 	.data.b	4
00003d48 03        11260 	.data.b	3
00003d49 1681      11261 	.data.b	129,22
00003d4b 19        11262 	.data.b	25

                                                                      Page 280
                                                              C:\Users\Fengyuan\AppData\Local\Temp\gh_0000p9o1.s
00003d4c 04        11263 	.data.b	4
00003d4d 03        11264 	.data.b	3
00003d4e 1686      11265 	.data.b	134,22
00003d50 19        11266 	.data.b	25
00003d51 04        11267 	.data.b	4
00003d52 03        11268 	.data.b	3
00003d53 1692      11269 	.data.b	146,22
00003d55 19        11270 	.data.b	25
00003d56 04        11271 	.data.b	4
00003d57 03        11272 	.data.b	3
00003d58 1697      11273 	.data.b	151,22
00003d5a 19        11274 	.data.b	25
00003d5b 04        11275 	.data.b	4
00003d5c 03        11276 	.data.b	3
00003d5d 16a3      11277 	.data.b	163,22
00003d5f 19        11278 	.data.b	25
00003d60 04        11279 	.data.b	4
00003d61 03        11280 	.data.b	3
00003d62 16a8      11281 	.data.b	168,22
00003d64 19        11282 	.data.b	25
00003d65 04        11283 	.data.b	4
00003d66 03        11284 	.data.b	3
00003d67 16b4      11285 	.data.b	180,22
00003d69 19        11286 	.data.b	25
00003d6a 04        11287 	.data.b	4
00003d6b 03        11288 	.data.b	3
00003d6c 16b9      11289 	.data.b	185,22
00003d6e 19        11290 	.data.b	25
00003d6f 04        11291 	.data.b	4
00003d70 03        11292 	.data.b	3
00003d71 16c5      11293 	.data.b	197,22
00003d73 19        11294 	.data.b	25
00003d74 04        11295 	.data.b	4
00003d75 03        11296 	.data.b	3
00003d76 16ca      11297 	.data.b	202,22
00003d78 19        11298 	.data.b	25
00003d79 04        11299 	.data.b	4
00003d7a 03        11300 	.data.b	3
00003d7b 16d6      11301 	.data.b	214,22
00003d7d 19        11302 	.data.b	25
00003d7e 04        11303 	.data.b	4
00003d7f 03        11304 	.data.b	3
00003d80 16db      11305 	.data.b	219,22
00003d82 19        11306 	.data.b	25
00003d83 04        11307 	.data.b	4
00003d84 03        11308 	.data.b	3
00003d85 16e7      11309 	.data.b	231,22
00003d87 19        11310 	.data.b	25
00003d88 04        11311 	.data.b	4
00003d89 03        11312 	.data.b	3
00003d8a 16ec      11313 	.data.b	236,22
00003d8c 19        11314 	.data.b	25
00003d8d 04        11315 	.data.b	4
00003d8e 03        11316 	.data.b	3
00003d8f 16f4      11317 	.data.b	244,22
00003d91 19        11318 	.data.b	25
00003d92 04        11319 	.data.b	4
00003d93 03        11320 	.data.b	3
00003d94 16f9      11321 	.data.b	249,22
00003d96 19        11322 	.data.b	25
00003d97 04        11323 	.data.b	4

                                                                      Page 281
                                                              C:\Users\Fengyuan\AppData\Local\Temp\gh_0000p9o1.s
00003d98 03        11324 	.data.b	3
00003d99 1781      11325 	.data.b	129,23
00003d9b 19        11326 	.data.b	25
00003d9c 04        11327 	.data.b	4
00003d9d 03        11328 	.data.b	3
00003d9e 1786      11329 	.data.b	134,23
00003da0 19        11330 	.data.b	25
00003da1 04        11331 	.data.b	4
00003da2 03        11332 	.data.b	3
00003da3 178e      11333 	.data.b	142,23
00003da5 19        11334 	.data.b	25
00003da6 04        11335 	.data.b	4
00003da7 03        11336 	.data.b	3
00003da8 1793      11337 	.data.b	147,23
00003daa 19        11338 	.data.b	25
00003dab 04        11339 	.data.b	4
00003dac 03        11340 	.data.b	3
00003dad 179b      11341 	.data.b	155,23
00003daf 19        11342 	.data.b	25
00003db0 04        11343 	.data.b	4
00003db1 03        11344 	.data.b	3
00003db2 17a0      11345 	.data.b	160,23
00003db4 19        11346 	.data.b	25
00003db5 04        11347 	.data.b	4
00003db6 03        11348 	.data.b	3
00003db7 17a8      11349 	.data.b	168,23
00003db9 19        11350 	.data.b	25
00003dba 04        11351 	.data.b	4
00003dbb 03        11352 	.data.b	3
00003dbc 17ad      11353 	.data.b	173,23
00003dbe 19        11354 	.data.b	25
00003dbf 04        11355 	.data.b	4
00003dc0 03        11356 	.data.b	3
00003dc1 17b5      11357 	.data.b	181,23
00003dc3 19        11358 	.data.b	25
00003dc4 04        11359 	.data.b	4
00003dc5 03        11360 	.data.b	3
00003dc6 17ba      11361 	.data.b	186,23
00003dc8 19        11362 	.data.b	25
00003dc9 04        11363 	.data.b	4
00003dca 03        11364 	.data.b	3
00003dcb 17c2      11365 	.data.b	194,23
00003dcd 19        11366 	.data.b	25
00003dce 04        11367 	.data.b	4
00003dcf 03        11368 	.data.b	3
00003dd0 17c7      11369 	.data.b	199,23
00003dd2 19        11370 	.data.b	25
00003dd3 04        11371 	.data.b	4
00003dd4 03        11372 	.data.b	3
00003dd5 17cf      11373 	.data.b	207,23
00003dd7 19        11374 	.data.b	25
00003dd8 04        11375 	.data.b	4
00003dd9 03        11376 	.data.b	3
00003dda 17d4      11377 	.data.b	212,23
00003ddc 19        11378 	.data.b	25
00003ddd 04        11379 	.data.b	4
00003dde 03        11380 	.data.b	3
00003ddf 17dc      11381 	.data.b	220,23
00003de1 19        11382 	.data.b	25
00003de2 04        11383 	.data.b	4
00003de3 03        11384 	.data.b	3

                                                                      Page 282
                                                              C:\Users\Fengyuan\AppData\Local\Temp\gh_0000p9o1.s
00003de4 17e1      11385 	.data.b	225,23
00003de6 19        11386 	.data.b	25
00003de7 04        11387 	.data.b	4
00003de8 03        11388 	.data.b	3
00003de9 17ed      11389 	.data.b	237,23
00003deb 19        11390 	.data.b	25
00003dec 04        11391 	.data.b	4
00003ded 03        11392 	.data.b	3
00003dee 17f2      11393 	.data.b	242,23
00003df0 19        11394 	.data.b	25
00003df1 04        11395 	.data.b	4
00003df2 03        11396 	.data.b	3
00003df3 17fe      11397 	.data.b	254,23
00003df5 19        11398 	.data.b	25
00003df6 04        11399 	.data.b	4
00003df7 03        11400 	.data.b	3
00003df8 1883      11401 	.data.b	131,24
00003dfa 19        11402 	.data.b	25
00003dfb 04        11403 	.data.b	4
00003dfc 03        11404 	.data.b	3
00003dfd 188b      11405 	.data.b	139,24
00003dff 19        11406 	.data.b	25
00003e00 04        11407 	.data.b	4
00003e01 03        11408 	.data.b	3
00003e02 1890      11409 	.data.b	144,24
00003e04 19        11410 	.data.b	25
00003e05 04        11411 	.data.b	4
00003e06 04        11412 	.data.b	4
00003e07 03        11413 	.data.b	3
00003e08 03e2      11414 	.data.b	226,3
00003e0a 56        11415 	.data.b	86
00003e0b 04        11416 	.data.b	4
00003e0c 03        11417 	.data.b	3
00003e0d 03e8      11418 	.data.b	232,3
00003e0f 57        11419 	.data.b	87
00003e10 01        11420 	.data.b	1
00003e11 7b        11421 	.data.b	123
00003e12 5f4d4544  11422 	.data.b	68,69,77,95,70,69,65,84,85,82,69,95,78,69,69,68,95,68,69,66,79,85,78,67,69,95,84,73,77,69,32,83,84,68,95,79,70,70,0
00003e16 54414546 
00003e1a 5f455255 
00003e1e 4445454e 
00003e22 4245445f 
00003e26 434e554f 
00003e2a 49545f45 
00003e2e 5320454d 
00003e32 4f5f4454 
00003e36 004646 
00003e39 01        11423 	.data.b	1
00003e3a 01a0      11424 	.data.b	160,1
00003e3c 5f4d4544  11425 	.data.b	68,69,77,95,70,69,65,84,85,82,69,95,78,69,69,68,95,65,71,73,78,71,95,65,70,84,69,82,95,72,69,65,76,73,78,71,32,83,84,68,95,79,70,70,0
00003e40 54414546 
00003e44 5f455255 
00003e48 4445454e 
00003e4c 4947415f 
00003e50 415f474e 
00003e54 52455446 
00003e58 4145485f 
00003e5c 474e494c 
00003e60 44545320 
00003e64 46464f5f 
00003e68 00 

                                                                      Page 283
                                                              C:\Users\Fengyuan\AppData\Local\Temp\gh_0000p9o1.s
00003e69 01        11426 	.data.b	1
00003e6a 028e      11427 	.data.b	142,2
00003e6c 5f4d4544  11428 	.data.b	68,69,77,95,70,69,65,84,85,82,69,95,78,69,69,68,95,79,66,68,32,83,84,68,95,79,70,70,0
00003e70 54414546 
00003e74 5f455255 
00003e78 4445454e 
00003e7c 44424f5f 
00003e80 44545320 
00003e84 46464f5f 
00003e88 00 
00003e89 01        11429 	.data.b	1
00003e8a 02cb      11430 	.data.b	203,2
00003e8c 5f4d4544  11431 	.data.b	68,69,77,95,70,69,65,84,85,82,69,95,78,69,69,68,95,83,80,69,67,73,65,76,95,73,78,68,73,67,65,84,79,82,83,32,83,84,68,95,79,70,70,0
00003e90 54414546 
00003e94 5f455255 
00003e98 4445454e 
00003e9c 4550535f 
00003ea0 4c414943 
00003ea4 444e495f 
00003ea8 54414349 
00003eac 2053524f 
00003eb0 5f445453 
00003eb4 0046464f 
00003eb8 01        11432 	.data.b	1
00003eb9 02d3      11433 	.data.b	211,2
00003ebb 5f4d4544  11434 	.data.b	68,69,77,95,70,69,65,84,85,82,69,95,78,69,69,68,95,73,78,68,73,67,65,84,79,82,83,32,83,84,68,95,79,70,70,0
00003ebf 54414546 
00003ec3 5f455255 
00003ec7 4445454e 
00003ecb 444e495f 
00003ecf 54414349 
00003ed3 2053524f 
00003ed7 5f445453 
00003edb 0046464f 
00003edf 01        11435 	.data.b	1
00003ee0 02fd      11436 	.data.b	253,2
00003ee2 5f4d4544  11437 	.data.b	68,69,77,95,70,69,65,84,85,82,69,95,78,69,69,68,95,84,73,77,69,95,83,69,82,73,69,83,32,83,84,68,95,79,70,70,0
00003ee6 54414546 
00003eea 5f455255 
00003eee 4445454e 
00003ef2 4d49545f 
00003ef6 45535f45 
00003efa 53454952 
00003efe 44545320 
00003f02 46464f5f 
00003f06 00 
00003f07 01        11438 	.data.b	1
00003f08 038b      11439 	.data.b	139,3
00003f0a 5f4d4544  11440 	.data.b	68,69,77,95,70,69,65,84,85,82,69,95,78,69,69,68,95,72,69,65,76,73,78,71,32,83,84,68,95,79,70,70,0
00003f0e 54414546 
00003f12 5f455255 
00003f16 4445454e 
00003f1a 4145485f 
00003f1e 474e494c 
00003f22 44545320 
00003f26 46464f5f 
00003f2a 00 
00003f2b 01        11441 	.data.b	1
00003f2c 03ac      11442 	.data.b	172,3
00003f2e 5f4d4544  11443 	.data.b	68,69,77,95,70,69,65,84,85,82,69,95,78,69,69,68,95,77,85,76,84,73,72,69,65,76,32,83,84,68,95,79,70,70,0
00003f32 54414546 

                                                                      Page 284
                                                              C:\Users\Fengyuan\AppData\Local\Temp\gh_0000p9o1.s
00003f36 5f455255 
00003f3a 4445454e 
00003f3e 4c554d5f 
00003f42 45484954 
00003f46 53204c41 
00003f4a 4f5f4454 
00003f4e 004646 
00003f51 01        11444 	.data.b	1
00003f52 03b6      11445 	.data.b	182,3
00003f54 5f4d4544  11446 	.data.b	68,69,77,95,70,69,65,84,85,82,69,95,78,69,69,68,95,72,69,65,76,73,78,71,67,79,85,78,84,69,82,32,83,84,68,95,79,70,70,0
00003f58 54414546 
00003f5c 5f455255 
00003f60 4445454e 
00003f64 4145485f 
00003f68 474e494c 
00003f6c 4e554f43 
00003f70 20524554 
00003f74 5f445453 
00003f78 0046464f 
00003f7c 01        11447 	.data.b	1
00003f7d 03c9      11448 	.data.b	201,3
00003f7f 5f4d4544  11449 	.data.b	68,69,77,95,70,69,65,84,85,82,69,95,78,69,69,68,95,67,89,67,76,69,95,67,79,85,78,84,69,82,83,32,83,84,68,95,79,70,70,0
00003f83 54414546 
00003f87 5f455255 
00003f8b 4445454e 
00003f8f 4359435f 
00003f93 435f454c 
00003f97 544e554f 
00003f9b 20535245 
00003f9f 5f445453 
00003fa3 0046464f 
00003fa7 01        11450 	.data.b	1
00003fa8 03d4      11451 	.data.b	212,3
00003faa 5f4d4544  11452 	.data.b	68,69,77,95,70,69,65,84,85,82,69,95,78,69,69,68,95,83,84,65,84,73,83,84,73,67,65,76,95,68,65,84,65,32,83,84,68,95,79,78,0
00003fae 54414546 
00003fb2 5f455255 
00003fb6 4445454e 
00003fba 4154535f 
00003fbe 54534954 
00003fc2 4c414349 
00003fc6 5441445f 
00003fca 54532041 
00003fce 4e4f5f44 
00003fd2 00 
00003fd3 01        11453 	.data.b	1
00003fd4 0485      11454 	.data.b	133,4
00003fd6 5f4d4544  11455 	.data.b	68,69,77,95,68,69,86,95,82,85,78,84,73,77,69,95,67,72,69,67,75,83,32,83,84,68,95,79,70,70,0
00003fda 5f564544 
00003fde 544e5552 
00003fe2 5f454d49 
00003fe6 43454843 
00003fea 5320534b 
00003fee 4f5f4454 
00003ff2 004646 
00003ff5 01        11456 	.data.b	1
00003ff6 0490      11457 	.data.b	144,4
00003ff8 5f4d4544  11458 	.data.b	68,69,77,95,70,69,65,84,85,82,69,95,78,69,69,68,95,80,73,68,52,49,95,77,77,79,78,76,89,95,67,65,76,67,85,76,65,84,73,79,78,32,83,84,68,95,79,70,70,0
00003ffc 54414546 
00004000 5f455255 
00004004 4445454e 
00004008 4449505f 

                                                                      Page 285
                                                              C:\Users\Fengyuan\AppData\Local\Temp\gh_0000p9o1.s
0000400c 4d5f3134 
00004010 4c4e4f4d 
00004014 41435f59 
00004018 4c55434c 
0000401c 4f495441 
00004020 5453204e 
00004024 464f5f44 
00004028 0046 
0000402a 01        11459 	.data.b	1
0000402b 049b      11460 	.data.b	155,4
0000402d 5f4d4544  11461 	.data.b	68,69,77,95,70,69,65,84,85,82,69,95,78,69,69,68,95,80,73,68,52,49,95,67,67,79,78,76,89,95,67,65,76,67,85,76,65,84,73,79,78,32,83,84,68,95,79,70,70,0
00004031 54414546 
00004035 5f455255 
00004039 4445454e 
0000403d 4449505f 
00004041 435f3134 
00004045 4c4e4f43 
00004049 41435f59 
0000404d 4c55434c 
00004051 4f495441 
00004055 5453204e 
00004059 464f5f44 
0000405d 0046 
0000405f 04        11462 	.data.b	4
00004060 03        11463 	.data.b	3
00004061 03ee      11464 	.data.b	238,3
00004063 58        11465 	.data.b	88
00004064 04        11466 	.data.b	4
00004065 03        11467 	.data.b	3
00004066 03f3      11468 	.data.b	243,3
00004068 59        11469 	.data.b	89
00004069 03        11470 	.data.b	3
0000406a 37        11471 	.data.b	55
0000406b 5a        11472 	.data.b	90
0000406c 04        11473 	.data.b	4
0000406d 03        11474 	.data.b	3
0000406e 38        11475 	.data.b	56
0000406f 5b        11476 	.data.b	91
00004070 04        11477 	.data.b	4
00004071 03        11478 	.data.b	3
00004072 40        11479 	.data.b	64
00004073 19        11480 	.data.b	25
00004074 04        11481 	.data.b	4
00004075 03        11482 	.data.b	3
00004076 7a        11483 	.data.b	122
00004077 19        11484 	.data.b	25
00004078 04        11485 	.data.b	4
00004079 03        11486 	.data.b	3
0000407a 0180      11487 	.data.b	128,1
0000407c 19        11488 	.data.b	25
0000407d 04        11489 	.data.b	4
0000407e 03        11490 	.data.b	3
0000407f 17f3      11491 	.data.b	243,23
00004081 19        11492 	.data.b	25
00004082 04        11493 	.data.b	4
00004083 04        11494 	.data.b	4
00004084 03        11495 	.data.b	3
00004085 05ae      11496 	.data.b	174,5
00004087 19        11497 	.data.b	25
00004088 04        11498 	.data.b	4
00004089 03        11499 	.data.b	3

                                                                      Page 286
                                                              C:\Users\Fengyuan\AppData\Local\Temp\gh_0000p9o1.s
0000408a 05b6      11500 	.data.b	182,5
0000408c 19        11501 	.data.b	25
0000408d 04        11502 	.data.b	4
0000408e 04        11503 	.data.b	4
0000408f 03        11504 	.data.b	3
00004090 28        11505 	.data.b	40
00004091 5c        11506 	.data.b	92
00004092 03        11507 	.data.b	3
00004093 3c        11508 	.data.b	60
00004094 2b        11509 	.data.b	43
00004095 04        11510 	.data.b	4
00004096 03        11511 	.data.b	3
00004097 43        11512 	.data.b	67
00004098 5d        11513 	.data.b	93
00004099 03        11514 	.data.b	3
0000409a 36        11515 	.data.b	54
0000409b 5e        11516 	.data.b	94
0000409c 04        11517 	.data.b	4
0000409d 03        11518 	.data.b	3
0000409e 3d        11519 	.data.b	61
0000409f 19        11520 	.data.b	25
000040a0 04        11521 	.data.b	4
000040a1 03        11522 	.data.b	3
000040a2 0cf2      11523 	.data.b	242,12
000040a4 19        11524 	.data.b	25
000040a5 04        11525 	.data.b	4
000040a6 04        11526 	.data.b	4
000040a7 04        11527 	.data.b	4
000040a8 01        11528 	.data.b	1
000040a9 3b        11529 	.data.b	59
000040aa 5f4d4344  11530 	.data.b	68,67,77,95,68,73,68,77,71,82,95,79,80,95,73,78,70,79,95,73,79,67,79,78,84,82,79,76,95,69,78,65,66,76,69,68,32,83,84,68,95,79,70,70,0
000040ae 4d444944 
000040b2 4f5f5247 
000040b6 4e495f50 
000040ba 495f4f46 
000040be 4e4f434f 
000040c2 4c4f5254 
000040c6 414e455f 
000040ca 44454c42 
000040ce 44545320 
000040d2 46464f5f 
000040d6 00 
000040d7 03        11531 	.data.b	3
000040d8 07c6      11532 	.data.b	198,7
000040da 19        11533 	.data.b	25
000040db 04        11534 	.data.b	4
000040dc 03        11535 	.data.b	3
000040dd 09a0      11536 	.data.b	160,9
000040df 19        11537 	.data.b	25
000040e0 04        11538 	.data.b	4
000040e1 03        11539 	.data.b	3
000040e2 09a7      11540 	.data.b	167,9
000040e4 19        11541 	.data.b	25
000040e5 04        11542 	.data.b	4
000040e6 03        11543 	.data.b	3
000040e7 0dab      11544 	.data.b	171,13
000040e9 19        11545 	.data.b	25
000040ea 04        11546 	.data.b	4
000040eb 03        11547 	.data.b	3
000040ec 0db2      11548 	.data.b	178,13
000040ee 19        11549 	.data.b	25

                                                                      Page 287
                                                              C:\Users\Fengyuan\AppData\Local\Temp\gh_0000p9o1.s
000040ef 04        11550 	.data.b	4
000040f0 03        11551 	.data.b	3
000040f1 0dc8      11552 	.data.b	200,13
000040f3 19        11553 	.data.b	25
000040f4 04        11554 	.data.b	4
000040f5 03        11555 	.data.b	3
000040f6 0dcf      11556 	.data.b	207,13
000040f8 19        11557 	.data.b	25
000040f9 04        11558 	.data.b	4
000040fa 03        11559 	.data.b	3
000040fb 0dd5      11560 	.data.b	213,13
000040fd 19        11561 	.data.b	25
000040fe 04        11562 	.data.b	4
000040ff 03        11563 	.data.b	3
00004100 0ddc      11564 	.data.b	220,13
00004102 19        11565 	.data.b	25
00004103 04        11566 	.data.b	4
00004104 03        11567 	.data.b	3
00004105 0e9e      11568 	.data.b	158,14
00004107 19        11569 	.data.b	25
00004108 04        11570 	.data.b	4
00004109 04        11571 	.data.b	4
0000410a 03        11572 	.data.b	3
0000410b 0395      11573 	.data.b	149,3
0000410d 5f        11574 	.data.b	95
0000410e 04        11575 	.data.b	4
0000410f 03        11576 	.data.b	3
00004110 0396      11577 	.data.b	150,3
00004112 60        11578 	.data.b	96
00004113 04        11579 	.data.b	4
00004114 03        11580 	.data.b	3
00004115 0397      11581 	.data.b	151,3
00004117 61        11582 	.data.b	97
00004118 03        11583 	.data.b	3
00004119 5e        11584 	.data.b	94
0000411a 19        11585 	.data.b	25
0000411b 04        11586 	.data.b	4
0000411c 03        11587 	.data.b	3
0000411d 0188      11588 	.data.b	136,1
0000411f 19        11589 	.data.b	25
00004120 04        11590 	.data.b	4
00004121 03        11591 	.data.b	3
00004122 018f      11592 	.data.b	143,1
00004124 19        11593 	.data.b	25
00004125 04        11594 	.data.b	4
00004126 03        11595 	.data.b	3
00004127 0196      11596 	.data.b	150,1
00004129 19        11597 	.data.b	25
0000412a 04        11598 	.data.b	4
0000412b 04        11599 	.data.b	4
0000412c 03        11600 	.data.b	3
0000412d 0398      11601 	.data.b	152,3
0000412f 62        11602 	.data.b	98
00004130 03        11603 	.data.b	3
00004131 04f6      11604 	.data.b	246,4
00004133 19        11605 	.data.b	25
00004134 04        11606 	.data.b	4
00004135 03        11607 	.data.b	3
00004136 08bb      11608 	.data.b	187,8
00004138 19        11609 	.data.b	25
00004139 04        11610 	.data.b	4

                                                                      Page 288
                                                              C:\Users\Fengyuan\AppData\Local\Temp\gh_0000p9o1.s
0000413a 03        11611 	.data.b	3
0000413b 08c2      11612 	.data.b	194,8
0000413d 19        11613 	.data.b	25
0000413e 04        11614 	.data.b	4
0000413f 03        11615 	.data.b	3
00004140 0adb      11616 	.data.b	219,10
00004142 19        11617 	.data.b	25
00004143 04        11618 	.data.b	4
00004144 04        11619 	.data.b	4
00004145 04        11620 	.data.b	4
00004146 03        11621 	.data.b	3
00004147 3f        11622 	.data.b	63
00004148 19        11623 	.data.b	25
00004149 04        11624 	.data.b	4
0000414a 03        11625 	.data.b	3
0000414b 60        11626 	.data.b	96
0000414c 19        11627 	.data.b	25
0000414d 04        11628 	.data.b	4
0000414e 04        11629 	.data.b	4
0000414f 03        11630 	.data.b	3
00004150 2c        11631 	.data.b	44
00004151 63        11632 	.data.b	99
00004152 03        11633 	.data.b	3
00004153 24        11634 	.data.b	36
00004154 64        11635 	.data.b	100
00004155 03        11636 	.data.b	3
00004156 01a5      11637 	.data.b	165,1
00004158 65        11638 	.data.b	101
00004159 03        11639 	.data.b	3
0000415a 21        11640 	.data.b	33
0000415b 66        11641 	.data.b	102
0000415c 03        11642 	.data.b	3
0000415d 27        11643 	.data.b	39
0000415e 67        11644 	.data.b	103
0000415f 04        11645 	.data.b	4
00004160 01        11646 	.data.b	1
00004161 3d        11647 	.data.b	61
00004162 4d554345  11648 	.data.b	69,67,85,77,95,87,75,83,79,85,82,67,69,95,65,76,76,95,83,79,85,82,67,69,83,32,40,69,99,117,77,95,87,97,107,101,117,112,83,111,117,114,99,101,84,121,112,101,41,40,126,40,40,69,99,117,77,95,87,97
00004166 534b575f 
0000416a 4352554f 
0000416e 4c415f45 
00004172 4f535f4c 
00004176 45435255 
0000417a 45282053 
0000417e 5f4d7563 
00004182 656b6157 
00004186 6f537075 
0000418a 65637275 
0000418e 65707954 
00004192 287e2829 
00004196 75634528 
0000419a 61575f4d 
0000419e 7075656b  11649 	.data.b	107,101,117,112,83,111,117,114,99,101,84,121,112,101,41,48,120,48,48,85,76,41,41,0
000041a2 72756f53 
000041a6 79546563 
000041aa 30296570 
000041ae 55303078 
000041b2 0029294c 
000041b6 04        11650 	.data.b	4
000041b7 03        11651 	.data.b	3
000041b8 22        11652 	.data.b	34

                                                                      Page 289
                                                              C:\Users\Fengyuan\AppData\Local\Temp\gh_0000p9o1.s
000041b9 68        11653 	.data.b	104
000041ba 01        11654 	.data.b	1
000041bb 29        11655 	.data.b	41
000041bc 4d554345  11656 	.data.b	69,67,85,77,95,68,69,86,95,69,82,82,79,82,95,68,69,84,69,67,84,32,83,84,68,95,79,78,0
000041c0 5645445f 
000041c4 5252455f 
000041c8 445f524f 
000041cc 43455445 
000041d0 54532054 
000041d4 4e4f5f44 
000041d8 00 
000041d9 01        11657 	.data.b	1
000041da 36        11658 	.data.b	54
000041db 4d554345  11659 	.data.b	69,67,85,77,95,86,69,82,83,73,79,78,95,73,78,70,79,95,65,80,73,32,40,83,84,68,95,79,70,70,41,0
000041df 5245565f 
000041e3 4e4f4953 
000041e7 464e495f 
000041eb 50415f4f 
000041ef 53282049 
000041f3 4f5f4454 
000041f7 00294646 
000041fb 01        11660 	.data.b	1
000041fc 3b        11661 	.data.b	59
000041fd 4d554345  11662 	.data.b	69,67,85,77,95,65,76,65,82,77,95,67,76,79,67,75,95,80,82,69,83,69,78,84,32,40,83,84,68,95,79,70,70,41,0
00004201 414c415f 
00004205 435f4d52 
00004209 4b434f4c 
0000420d 4552505f 
00004211 544e4553 
00004215 54532820 
00004219 464f5f44 
0000421d 002946 
00004220 01        11663 	.data.b	1
00004221 3c        11664 	.data.b	60
00004222 4d554345  11665 	.data.b	69,67,85,77,95,77,79,68,69,95,72,65,78,68,76,73,78,71,32,40,83,84,68,95,79,70,70,41,0
00004226 444f4d5f 
0000422a 41485f45 
0000422e 494c444e 
00004232 2820474e 
00004236 5f445453 
0000423a 2946464f 
0000423e 00 
0000423f 01        11666 	.data.b	1
00004240 41        11667 	.data.b	65
00004241 4d554345  11668 	.data.b	69,67,85,77,95,70,73,88,69,68,95,66,69,72,65,86,73,79,82,32,40,83,84,68,95,79,70,70,41,0
00004245 5849465f 
00004249 425f4445 
0000424d 56414845 
00004251 20524f49 
00004255 44545328 
00004259 46464f5f 
0000425d 0029 
0000425f 01        11669 	.data.b	1
00004260 45        11670 	.data.b	69
00004261 4d554345  11671 	.data.b	69,67,85,77,95,73,78,67,76,85,68,69,95,78,86,82,65,77,95,77,71,82,32,40,83,84,68,95,79,70,70,41,0
00004265 434e495f 
00004269 4544554c 
0000426d 52564e5f 
00004271 4d5f4d41 
00004275 28205247 
00004279 5f445453 

                                                                      Page 290
                                                              C:\Users\Fengyuan\AppData\Local\Temp\gh_0000p9o1.s
0000427d 2946464f 
00004281 00 
00004282 01        11672 	.data.b	1
00004283 68        11673 	.data.b	104
00004284 4d554345  11674 	.data.b	69,67,85,77,95,67,79,78,70,73,71,85,82,65,84,73,79,78,95,86,65,82,73,65,78,84,95,80,82,69,67,79,77,80,73,76,69,32,49,0
00004288 4e4f435f 
0000428c 55474946 
00004290 49544152 
00004294 565f4e4f 
00004298 41495241 
0000429c 505f544e 
000042a0 4f434552 
000042a4 4c49504d 
000042a8 00312045 
000042ac 01        11675 	.data.b	1
000042ad 6e        11676 	.data.b	110
000042ae 4d554345  11677 	.data.b	69,67,85,77,95,67,79,78,70,73,71,85,82,65,84,73,79,78,95,86,65,82,73,65,78,84,95,80,79,83,84,66,85,73,76,68,95,76,79,65,68,65,66,76,69,32,51,0
000042b2 4e4f435f 
000042b6 55474946 
000042ba 49544152 
000042be 565f4e4f 
000042c2 41495241 
000042c6 505f544e 
000042ca 4254534f 
000042ce 444c4955 
000042d2 414f4c5f 
000042d6 4c424144 
000042da 00332045 
000042de 01        11678 	.data.b	1
000042df 71        11679 	.data.b	113
000042e0 4d554345  11680 	.data.b	69,67,85,77,95,67,79,78,70,73,71,85,82,65,84,73,79,78,95,86,65,82,73,65,78,84,32,69,67,85,77,95,67,79,78,70,73,71,85,82,65,84,73,79,78,95,86,65,82,73,65,78,84,95,80,82,69,67,79,77
000042e4 4e4f435f 
000042e8 55474946 
000042ec 49544152 
000042f0 565f4e4f 
000042f4 41495241 
000042f8 4520544e 
000042fc 5f4d5543 
00004300 464e4f43 
00004304 52554749 
00004308 4f495441 
0000430c 41565f4e 
00004310 4e414952 
00004314 52505f54 
00004318 4d4f4345 
0000431c 454c4950  11681 	.data.b	80,73,76,69,0
00004320 00 
00004321 04        11682 	.data.b	4
00004322 03        11683 	.data.b	3
00004323 3d        11684 	.data.b	61
00004324 19        11685 	.data.b	25
00004325 04        11686 	.data.b	4
00004326 03        11687 	.data.b	3
00004327 0194      11688 	.data.b	148,1
00004329 19        11689 	.data.b	25
0000432a 04        11690 	.data.b	4
0000432b 04        11691 	.data.b	4
0000432c 03        11692 	.data.b	3
0000432d 02bd      11693 	.data.b	189,2
0000432f 19        11694 	.data.b	25
00004330 04        11695 	.data.b	4

                                                                      Page 291
                                                              C:\Users\Fengyuan\AppData\Local\Temp\gh_0000p9o1.s
00004331 03        11696 	.data.b	3
00004332 07b5      11697 	.data.b	181,7
00004334 19        11698 	.data.b	25
00004335 04        11699 	.data.b	4
00004336 04        11700 	.data.b	4
00004337 03        11701 	.data.b	3
00004338 3f        11702 	.data.b	63
00004339 19        11703 	.data.b	25
0000433a 04        11704 	.data.b	4
0000433b 03        11705 	.data.b	3
0000433c 71        11706 	.data.b	113
0000433d 19        11707 	.data.b	25
0000433e 04        11708 	.data.b	4
0000433f 04        11709 	.data.b	4
00004340 01        11710 	.data.b	1
00004341 36        11711 	.data.b	54
00004342 4d575342  11712 	.data.b	66,83,87,77,95,68,85,77,77,89,95,83,84,65,84,69,77,69,78,84,40,118,41,32,40,118,41,61,40,118,41,0
00004346 4d55445f 
0000434a 535f594d 
0000434e 45544154 
00004352 544e454d 
00004356 20297628 
0000435a 3d297628 
0000435e 00297628 
00004362 01        11713 	.data.b	1
00004363 6a        11714 	.data.b	106
00004364 4d575342  11715 	.data.b	66,83,87,77,95,68,69,86,95,69,82,82,79,82,95,82,69,80,79,82,84,32,83,84,68,95,79,78,0
00004368 5645445f 
0000436c 5252455f 
00004370 525f524f 
00004374 524f5045 
00004378 54532054 
0000437c 4e4f5f44 
00004380 00 
00004381 01        11716 	.data.b	1
00004382 7c        11717 	.data.b	124
00004383 4d575342  11718 	.data.b	66,83,87,77,95,69,78,65,66,76,69,95,82,85,76,69,95,67,79,78,84,82,79,76,32,83,84,68,95,79,70,70,0
00004387 414e455f 
0000438b 5f454c42 
0000438f 454c5552 
00004393 4e4f435f 
00004397 4c4f5254 
0000439b 44545320 
0000439f 46464f5f 
000043a3 00 
000043a4 01        11719 	.data.b	1
000043a5 7d        11720 	.data.b	125
000043a6 4d575342  11721 	.data.b	66,83,87,77,95,86,69,82,83,73,79,78,95,73,78,70,79,95,65,80,73,32,83,84,68,95,79,70,70,0
000043aa 5245565f 
000043ae 4e4f4953 
000043b2 464e495f 
000043b6 50415f4f 
000043ba 54532049 
000043be 464f5f44 
000043c2 0046 
000043c4 01        11722 	.data.b	1
000043c5 0184      11723 	.data.b	132,1
000043c7 4d575342  11724 	.data.b	66,83,87,77,95,73,80,68,85,71,82,79,85,80,86,69,67,84,79,82,83,73,90,69,32,49,117,0
000043cb 4450495f 
000043cf 4f524755 
000043d3 45565055 

                                                                      Page 292
                                                              C:\Users\Fengyuan\AppData\Local\Temp\gh_0000p9o1.s
000043d7 524f5443 
000043db 455a4953 
000043df 00753120 
000043e3 01        11725 	.data.b	1
000043e4 01a4      11726 	.data.b	164,1
000043e6 4d575342  11727 	.data.b	66,83,87,77,95,71,69,78,69,82,73,67,95,69,83,72,95,83,116,97,116,101,32,50,51,48,117,0
000043ea 4e45475f 
000043ee 43495245 
000043f2 4853455f 
000043f6 6174535f 
000043fa 32206574 
000043fe 00753033 
00004402 01        11728 	.data.b	1
00004403 01a6      11729 	.data.b	166,1
00004405 4d575342  11730 	.data.b	66,83,87,77,95,71,69,78,69,82,73,67,95,69,83,72,95,68,101,109,73,110,105,116,83,116,97,116,117,115,32,50,51,49,117,0
00004409 4e45475f 
0000440d 43495245 
00004411 4853455f 
00004415 6d65445f 
00004419 74696e49 
0000441d 74617453 
00004421 32207375 
00004425 00753133 
00004429 01        11731 	.data.b	1
0000442a 01a8      11732 	.data.b	168,1
0000442c 4d575342  11733 	.data.b	66,83,87,77,95,71,69,78,69,82,73,67,86,65,76,85,69,95,69,83,72,95,83,116,97,116,101,95,69,83,72,95,73,78,73,84,32,48,120,48,48,48,48,117,0
00004430 4e45475f 
00004434 43495245 
00004438 554c4156 
0000443c 53455f45 
00004440 74535f48 
00004444 5f657461 
00004448 5f485345 
0000444c 54494e49 
00004450 30783020 
00004454 75303030 
00004458 00 
00004459 01        11734 	.data.b	1
0000445a 01a9      11735 	.data.b	169,1
0000445c 4d575342  11736 	.data.b	66,83,87,77,95,71,69,78,69,82,73,67,86,65,76,85,69,95,69,83,72,95,83,116,97,116,101,95,69,83,72,95,80,79,83,84,95,82,85,78,32,48,120,48,48,48,50,117,0
00004460 4e45475f 
00004464 43495245 
00004468 554c4156 
0000446c 53455f45 
00004470 74535f48 
00004474 5f657461 
00004478 5f485345 
0000447c 54534f50 
00004480 4e55525f 
00004484 30783020 
00004488 75323030 
0000448c 00 
0000448d 01        11737 	.data.b	1
0000448e 01aa      11738 	.data.b	170,1
00004490 4d575342  11739 	.data.b	66,83,87,77,95,71,69,78,69,82,73,67,86,65,76,85,69,95,69,83,72,95,83,116,97,116,101,95,69,83,72,95,80,82,69,80,95,83,72,85,84,68,79,87,78,32,48,120,48,48,48,51,117,0
00004494 4e45475f 
00004498 43495245 
0000449c 554c4156 
000044a0 53455f45 
000044a4 74535f48 
000044a8 5f657461 

                                                                      Page 293
                                                              C:\Users\Fengyuan\AppData\Local\Temp\gh_0000p9o1.s
000044ac 5f485345 
000044b0 50455250 
000044b4 5548535f 
000044b8 574f4454 
000044bc 7830204e 
000044c0 33303030 
000044c4 0075 
000044c6 01        11740 	.data.b	1
000044c7 01ab      11741 	.data.b	171,1
000044c9 4d575342  11742 	.data.b	66,83,87,77,95,71,69,78,69,82,73,67,86,65,76,85,69,95,69,83,72,95,83,116,97,116,101,95,69,83,72,95,82,85,78,32,48,120,48,48,48,49,117,0
000044cd 4e45475f 
000044d1 43495245 
000044d5 554c4156 
000044d9 53455f45 
000044dd 74535f48 
000044e1 5f657461 
000044e5 5f485345 
000044e9 204e5552 
000044ed 30307830 
000044f1 00753130 
000044f5 01        11743 	.data.b	1
000044f6 01ad      11744 	.data.b	173,1
000044f8 4d575342  11745 	.data.b	66,83,87,77,95,71,69,78,69,82,73,67,86,65,76,85,69,95,69,83,72,95,83,116,97,116,101,95,69,83,72,95,87,65,73,84,95,70,79,82,95,78,86,77,32,48,120,48,48,48,52,117,0
000044fc 4e45475f 
00004500 43495245 
00004504 554c4156 
00004508 53455f45 
0000450c 74535f48 
00004510 5f657461 
00004514 5f485345 
00004518 54494157 
0000451c 524f465f 
00004520 4d564e5f 
00004524 30783020 
00004528 75343030 
0000452c 00 
0000452d 01        11746 	.data.b	1
0000452e 01ae      11747 	.data.b	174,1
00004530 4d575342  11748 	.data.b	66,83,87,77,95,71,69,78,69,82,73,67,86,65,76,85,69,95,69,83,72,95,83,116,97,116,101,95,69,83,72,95,87,65,75,69,85,80,32,48,120,48,48,48,54,117,0
00004534 4e45475f 
00004538 43495245 
0000453c 554c4156 
00004540 53455f45 
00004544 74535f48 
00004548 5f657461 
0000454c 5f485345 
00004550 454b4157 
00004554 30205055 
00004558 30303078 
0000455c 007536 
0000455f 01        11749 	.data.b	1
00004560 01af      11750 	.data.b	175,1
00004562 4d575342  11751 	.data.b	66,83,87,77,95,71,69,78,69,82,73,67,86,65,76,85,69,95,69,83,72,95,67,111,109,77,80,101,110,100,105,110,103,82,101,113,117,101,115,116,115,95,69,83,72,95,67,79,77,77,95,78,79,95,82,69,81,85,69,83
00004566 4e45475f 
0000456a 43495245 
0000456e 554c4156 
00004572 53455f45 
00004576 6f435f48 
0000457a 65504d6d 
0000457e 6e69646e 
00004582 71655267 

                                                                      Page 294
                                                              C:\Users\Fengyuan\AppData\Local\Temp\gh_0000p9o1.s
00004586 74736575 
0000458a 53455f73 
0000458e 4f435f48 
00004592 4e5f4d4d 
00004596 45525f4f 
0000459a 53455551 
0000459e 78302054  11752 	.data.b	84,32,48,120,48,48,48,48,117,0
000045a2 30303030 
000045a6 0075 
000045a8 01        11753 	.data.b	1
000045a9 01b0      11754 	.data.b	176,1
000045ab 4d575342  11755 	.data.b	66,83,87,77,95,71,69,78,69,82,73,67,86,65,76,85,69,95,69,83,72,95,67,111,109,77,80,101,110,100,105,110,103,82,101,113,117,101,115,116,115,95,69,83,72,95,67,79,77,77,95,80,69,78,68,73,78,71,95,82
000045af 4e45475f 
000045b3 43495245 
000045b7 554c4156 
000045bb 53455f45 
000045bf 6f435f48 
000045c3 65504d6d 
000045c7 6e69646e 
000045cb 71655267 
000045cf 74736575 
000045d3 53455f73 
000045d7 4f435f48 
000045db 505f4d4d 
000045df 49444e45 
000045e3 525f474e 
000045e7 45555145  11756 	.data.b	69,81,85,69,83,84,32,48,120,48,48,48,49,117,0
000045eb 30205453 
000045ef 30303078 
000045f3 007531 
000045f6 01        11757 	.data.b	1
000045f7 01b1      11758 	.data.b	177,1
000045f9 4d575342  11759 	.data.b	66,83,87,77,95,71,69,78,69,82,73,67,86,65,76,85,69,95,69,83,72,95,68,101,109,73,110,105,116,83,116,97,116,117,115,95,68,69,77,95,73,78,73,84,73,65,76,73,90,69,68,32,48,120,48,48,48,48,117,0
000045fd 4e45475f 
00004601 43495245 
00004605 554c4156 
00004609 53455f45 
0000460d 65445f48 
00004611 696e496d 
00004615 61745374 
00004619 5f737574 
0000461d 5f4d4544 
00004621 54494e49 
00004625 494c4149 
00004629 2044455a 
0000462d 30307830 
00004631 00753030 
00004635 01        11760 	.data.b	1
00004636 01b2      11761 	.data.b	178,1
00004638 4d575342  11762 	.data.b	66,83,87,77,95,71,69,78,69,82,73,67,86,65,76,85,69,95,69,83,72,95,68,101,109,73,110,105,116,83,116,97,116,117,115,95,68,69,77,95,78,79,84,95,73,78,73,84,73,65,76,73,90,69,68,32,48,120,48,48
0000463c 4e45475f 
00004640 43495245 
00004644 554c4156 
00004648 53455f45 
0000464c 65445f48 
00004650 696e496d 
00004654 61745374 
00004658 5f737574 
0000465c 5f4d4544 
00004660 5f544f4e 
00004664 54494e49 

                                                                      Page 295
                                                              C:\Users\Fengyuan\AppData\Local\Temp\gh_0000p9o1.s
00004668 494c4149 
0000466c 2044455a 
00004670 30307830 
00004674 00753130  11763 	.data.b	48,49,117,0
00004678 01        11764 	.data.b	1
00004679 01b8      11765 	.data.b	184,1
0000467b 4d575342  11766 	.data.b	66,83,87,77,95,84,77,82,95,69,83,72,95,83,101,108,102,82,117,110,82,101,113,117,101,115,116,84,105,109,101,114,32,48,117,0
0000467f 524d545f 
00004683 4853455f 
00004687 6c65535f 
0000468b 6e755266 
0000468f 75716552 
00004693 54747365 
00004697 72656d69 
0000469b 00753020 
0000469f 01        11767 	.data.b	1
000046a0 02c3      11768 	.data.b	195,2
000046a2 4d575342  11769 	.data.b	66,83,87,77,95,73,77,77,69,68,73,65,84,69,85,83,69,82,32,83,84,68,95,79,78,0
000046a6 4d4d495f 
000046aa 41494445 
000046ae 53554554 
000046b2 53205245 
000046b6 4f5f4454 
000046ba 004e 
000046bc 01        11770 	.data.b	1
000046bd 03d8      11771 	.data.b	216,3
000046bf 4d575342  11772 	.data.b	66,83,87,77,95,82,85,76,69,83,32,83,84,68,95,79,78,0
000046c3 4c55525f 
000046c7 53205345 
000046cb 4f5f4454 
000046cf 004e 
000046d1 01        11773 	.data.b	1
000046d2 0480      11774 	.data.b	128,4
000046d4 4d575342  11775 	.data.b	66,83,87,77,95,83,73,90,69,79,70,65,67,84,73,79,78,76,73,83,84,83,32,83,84,68,95,79,78,0
000046d8 5a49535f 
000046dc 41464f45 
000046e0 4f495443 
000046e4 53494c4e 
000046e8 53205354 
000046ec 4f5f4454 
000046f0 004e 
000046f2 01        11776 	.data.b	1
000046f3 04f6      11777 	.data.b	246,4
000046f5 4d575342  11778 	.data.b	66,83,87,77,95,78,79,95,73,77,77,69,68,73,65,84,69,85,83,69,82,69,78,68,73,68,88,79,70,71,69,78,69,82,73,67,77,65,80,80,73,78,71,32,50,53,53,117,0
000046f9 5f4f4e5f 
000046fd 454d4d49 
00004701 54414944 
00004705 45535545 
00004709 444e4552 
0000470d 4f584449 
00004711 4e454746 
00004715 43495245 
00004719 5050414d 
0000471d 20474e49 
00004721 75353532 
00004725 00 
00004726 01        11779 	.data.b	1
00004727 04f7      11780 	.data.b	247,4
00004729 4d575342  11781 	.data.b	66,83,87,77,95,78,79,95,73,77,77,69,68,73,65,84,69,85,83,69,82,83,84,65,82,84,73,68,88,79,70,71,69,78,69,82,73,67,77,65,80,80,73,78,71,32,50,53,53,117,0
0000472d 5f4f4e5f 
00004731 454d4d49 

                                                                      Page 296
                                                              C:\Users\Fengyuan\AppData\Local\Temp\gh_0000p9o1.s
00004735 54414944 
00004739 45535545 
0000473d 41545352 
00004741 44495452 
00004745 47464f58 
00004749 52454e45 
0000474d 414d4349 
00004751 4e495050 
00004755 35322047 
00004759 007535 
0000475c 01        11782 	.data.b	1
0000475d 04f8      11783 	.data.b	248,4
0000475f 4d575342  11784 	.data.b	66,83,87,77,95,78,79,95,82,85,76,69,83,73,78,68,69,78,68,73,68,88,79,70,73,77,77,69,68,73,65,84,69,85,83,69,82,32,50,53,53,117,0
00004763 5f4f4e5f 
00004767 454c5552 
0000476b 444e4953 
0000476f 49444e45 
00004773 464f5844 
00004777 454d4d49 
0000477b 54414944 
0000477f 45535545 
00004783 35322052 
00004787 007535 
0000478a 01        11785 	.data.b	1
0000478b 04f9      11786 	.data.b	249,4
0000478d 4d575342  11787 	.data.b	66,83,87,77,95,78,79,95,82,85,76,69,83,73,78,68,83,84,65,82,84,73,68,88,79,70,73,77,77,69,68,73,65,84,69,85,83,69,82,32,50,53,53,117,0
00004791 5f4f4e5f 
00004795 454c5552 
00004799 444e4953 
0000479d 52415453 
000047a1 58444954 
000047a5 4d49464f 
000047a9 4944454d 
000047ad 55455441 
000047b1 20524553 
000047b5 75353532 
000047b9 00 
000047ba 01        11788 	.data.b	1
000047bb 06aa      11789 	.data.b	170,6
000047bd 4d575342  11790 	.data.b	66,83,87,77,95,85,83,69,95,73,78,73,84,95,80,79,73,78,84,69,82,32,83,84,68,95,79,70,70,0
000047c1 4553555f 
000047c5 494e495f 
000047c9 4f505f54 
000047cd 45544e49 
000047d1 54532052 
000047d5 464f5f44 
000047d9 0046 
000047db 03        11791 	.data.b	3
000047dc 0a80      11792 	.data.b	128,10
000047de 19        11793 	.data.b	25
000047df 04        11794 	.data.b	4
000047e0 03        11795 	.data.b	3
000047e1 0a85      11796 	.data.b	133,10
000047e3 19        11797 	.data.b	25
000047e4 04        11798 	.data.b	4
000047e5 03        11799 	.data.b	3
000047e6 0a93      11800 	.data.b	147,10
000047e8 19        11801 	.data.b	25
000047e9 04        11802 	.data.b	4
000047ea 03        11803 	.data.b	3
000047eb 0aa5      11804 	.data.b	165,10

                                                                      Page 297
                                                              C:\Users\Fengyuan\AppData\Local\Temp\gh_0000p9o1.s
000047ed 19        11805 	.data.b	25
000047ee 04        11806 	.data.b	4
000047ef 04        11807 	.data.b	4
000047f0 01        11808 	.data.b	1
000047f1 01d4      11809 	.data.b	212,1
000047f3 4d575342  11810 	.data.b	66,83,87,77,95,70,65,76,83,69,32,40,40,117,105,110,116,56,41,48,120,48,48,117,41,0
000047f7 4c41465f 
000047fb 28204553 
000047ff 6e697528 
00004803 30293874 
00004807 75303078 
0000480b 0029 
0000480d 01        11811 	.data.b	1
0000480e 01d5      11812 	.data.b	213,1
00004810 4d575342  11813 	.data.b	66,83,87,77,95,84,82,85,69,32,40,40,117,105,110,116,56,41,48,120,48,49,117,41,0
00004814 5552545f 
00004818 28282045 
0000481c 746e6975 
00004820 78302938 
00004824 29753130 
00004828 00 
00004829 01        11814 	.data.b	1
0000482a 01da      11815 	.data.b	218,1
0000482c 4d575342  11816 	.data.b	66,83,87,77,95,84,73,77,69,82,95,83,84,79,80,80,69,68,32,40,40,117,105,110,116,56,41,48,120,48,48,117,41,0
00004830 4d49545f 
00004834 535f5245 
00004838 50504f54 
0000483c 28204445 
00004840 6e697528 
00004844 30293874 
00004848 75303078 
0000484c 0029 
0000484e 01        11817 	.data.b	1
0000484f 01db      11818 	.data.b	219,1
00004851 4d575342  11819 	.data.b	66,83,87,77,95,84,73,77,69,82,95,83,84,65,82,84,69,68,32,40,40,117,105,110,116,56,41,48,120,48,49,117,41,0
00004855 4d49545f 
00004859 535f5245 
0000485d 54524154 
00004861 28204445 
00004865 6e697528 
00004869 30293874 
0000486d 75313078 
00004871 0029 
00004873 01        11820 	.data.b	1
00004874 01dc      11821 	.data.b	220,1
00004876 4d575342  11822 	.data.b	66,83,87,77,95,84,73,77,69,82,95,69,88,80,73,82,69,68,32,40,40,117,105,110,116,56,41,48,120,48,50,117,41,0
0000487a 4d49545f 
0000487e 455f5245 
00004882 52495058 
00004886 28204445 
0000488a 6e697528 
0000488e 30293874 
00004892 75323078 
00004896 0029 
00004898 03        11823 	.data.b	3
00004899 01e5      11824 	.data.b	229,1
0000489b 19        11825 	.data.b	25
0000489c 04        11826 	.data.b	4
0000489d 03        11827 	.data.b	3
0000489e 02da      11828 	.data.b	218,2
000048a0 19        11829 	.data.b	25

                                                                      Page 298
                                                              C:\Users\Fengyuan\AppData\Local\Temp\gh_0000p9o1.s
000048a1 04        11830 	.data.b	4
000048a2 04        11831 	.data.b	4
000048a3 03        11832 	.data.b	3
000048a4 27        11833 	.data.b	39
000048a5 69        11834 	.data.b	105
000048a6 03        11835 	.data.b	3
000048a7 2a        11836 	.data.b	42
000048a8 6a        11837 	.data.b	106
000048a9 03        11838 	.data.b	3
000048aa 01df      11839 	.data.b	223,1
000048ac 6b        11840 	.data.b	107
000048ad 03        11841 	.data.b	3
000048ae 2b        11842 	.data.b	43
000048af 6c        11843 	.data.b	108
000048b0 04        11844 	.data.b	4
000048b1 03        11845 	.data.b	3
000048b2 2c        11846 	.data.b	44
000048b3 6d        11847 	.data.b	109
000048b4 04        11848 	.data.b	4
000048b5 03        11849 	.data.b	3
000048b6 2d        11850 	.data.b	45
000048b7 6e        11851 	.data.b	110
000048b8 03        11852 	.data.b	3
000048b9 2b        11853 	.data.b	43
000048ba 6f        11854 	.data.b	111
000048bb 03        11855 	.data.b	3
000048bc 40        11856 	.data.b	64
000048bd 19        11857 	.data.b	25
000048be 04        11858 	.data.b	4
000048bf 03        11859 	.data.b	3
000048c0 49        11860 	.data.b	73
000048c1 19        11861 	.data.b	25
000048c2 04        11862 	.data.b	4
000048c3 04        11863 	.data.b	4
000048c4 03        11864 	.data.b	3
000048c5 5a        11865 	.data.b	90
000048c6 19        11866 	.data.b	25
000048c7 04        11867 	.data.b	4
000048c8 03        11868 	.data.b	3
000048c9 7e        11869 	.data.b	126
000048ca 19        11870 	.data.b	25
000048cb 04        11871 	.data.b	4
000048cc 04        11872 	.data.b	4
000048cd 03        11873 	.data.b	3
000048ce 2e        11874 	.data.b	46
000048cf 70        11875 	.data.b	112
000048d0 03        11876 	.data.b	3
000048d1 2a        11877 	.data.b	42
000048d2 71        11878 	.data.b	113
000048d3 01        11879 	.data.b	1
000048d4 24        11880 	.data.b	36
000048d5 52554450  11881 	.data.b	80,68,85,82,95,77,65,88,95,78,85,77,66,69,82,95,79,70,95,67,79,82,69,83,32,49,0
000048d9 58414d5f 
000048dd 4d554e5f 
000048e1 5f524542 
000048e5 435f464f 
000048e9 5345524f 
000048ed 003120 
000048f0 04        11882 	.data.b	4
000048f1 01        11883 	.data.b	1
000048f2 5d        11884 	.data.b	93

                                                                      Page 299
                                                              C:\Users\Fengyuan\AppData\Local\Temp\gh_0000p9o1.s
000048f3 52554450  11885 	.data.b	80,68,85,82,95,68,69,86,95,69,82,82,79,82,95,82,69,80,79,82,84,32,83,84,68,95,79,78,0
000048f7 5645445f 
000048fb 5252455f 
000048ff 525f524f 
00004903 524f5045 
00004907 54532054 
0000490b 4e4f5f44 
0000490f 00 
00004910 01        11886 	.data.b	1
00004911 60        11887 	.data.b	96
00004912 52554450  11888 	.data.b	80,68,85,82,95,86,69,82,83,73,79,78,95,73,78,70,79,95,65,80,73,32,83,84,68,95,79,70,70,0
00004916 5245565f 
0000491a 4e4f4953 
0000491e 464e495f 
00004922 50415f4f 
00004926 54532049 
0000492a 464f5f44 
0000492e 0046 
00004930 01        11889 	.data.b	1
00004931 68        11890 	.data.b	104
00004932 52756450  11891 	.data.b	80,100,117,82,95,80,66,67,111,110,102,105,103,73,100,84,121,112,101,32,117,105,110,116,51,50,0
00004936 4342505f 
0000493a 69666e6f 
0000493e 54644967 
00004942 20657079 
00004946 746e6975 
0000494a 003233 
0000494d 04        11892 	.data.b	4
0000494e 01        11893 	.data.b	1
0000494f 0283      11894 	.data.b	131,2
00004951 5f4d4f43  11895 	.data.b	67,79,77,95,71,87,84,73,77,69,79,85,84,73,78,70,79,32,83,84,68,95,79,70,70,0
00004955 49545747 
00004959 554f454d 
0000495d 464e4954 
00004961 5453204f 
00004965 464f5f44 
00004969 0046 
0000496b 01        11896 	.data.b	1
0000496c 029e      11897 	.data.b	158,2
0000496e 5f4d4f43  11898 	.data.b	67,79,77,95,80,68,85,71,82,80,86,69,67,84,79,82,32,83,84,68,95,79,78,0
00004972 47554450 
00004976 45565052 
0000497a 524f5443 
0000497e 44545320 
00004982 004e4f5f 
00004986 01        11899 	.data.b	1
00004987 02ff      11900 	.data.b	255,2
00004989 5f4d4f43  11901 	.data.b	67,79,77,95,71,87,84,88,80,68,85,68,69,83,67,82,73,80,84,73,79,78,73,78,70,79,85,83,69,68,79,70,82,88,80,68,85,73,78,70,79,32,83,84,68,95,79,70,70,0
0000498d 58545747 
00004991 44554450 
00004995 52435345 
00004999 49545049 
0000499d 4e494e4f 
000049a1 53554f46 
000049a5 464f4445 
000049a9 44505852 
000049ad 464e4955 
000049b1 5453204f 
000049b5 464f5f44 
000049b9 0046 
000049bb 01        11902 	.data.b	1

                                                                      Page 300
                                                              C:\Users\Fengyuan\AppData\Local\Temp\gh_0000p9o1.s
000049bc 04df      11903 	.data.b	223,4
000049be 5f4d4f43  11904 	.data.b	67,79,77,95,68,73,82,69,67,84,79,70,84,88,77,79,68,69,70,65,76,83,69,32,83,84,68,95,79,70,70,0
000049c2 45524944 
000049c6 464f5443 
000049ca 4f4d5854 
000049ce 41464544 
000049d2 2045534c 
000049d6 5f445453 
000049da 0046464f 
000049de 01        11905 	.data.b	1
000049df 04e1      11906 	.data.b	225,4
000049e1 5f4d4f43  11907 	.data.b	67,79,77,95,82,69,80,67,78,84,79,70,84,88,77,79,68,69,70,65,76,83,69,32,83,84,68,95,79,70,70,0
000049e5 43504552 
000049e9 464f544e 
000049ed 4f4d5854 
000049f1 41464544 
000049f5 2045534c 
000049f9 5f445453 
000049fd 0046464f 
00004a01 01        11908 	.data.b	1
00004a02 04e2      11909 	.data.b	226,4
00004a04 5f4d4f43  11910 	.data.b	67,79,77,95,82,69,80,80,69,82,73,79,68,79,70,84,88,77,79,68,69,70,65,76,83,69,32,83,84,68,95,79,70,70,0
00004a08 50504552 
00004a0c 4f495245 
00004a10 54464f44 
00004a14 444f4d58 
00004a18 4c414645 
00004a1c 53204553 
00004a20 4f5f4454 
00004a24 004646 
00004a27 01        11911 	.data.b	1
00004a28 04f2      11912 	.data.b	242,4
00004a2a 5f4d4f43  11913 	.data.b	67,79,77,95,68,73,82,69,67,84,79,70,84,88,77,79,68,69,84,82,85,69,32,83,84,68,95,79,70,70,0
00004a2e 45524944 
00004a32 464f5443 
00004a36 4f4d5854 
00004a3a 52544544 
00004a3e 53204555 
00004a42 4f5f4454 
00004a46 004646 
00004a49 01        11914 	.data.b	1
00004a4a 04f4      11915 	.data.b	244,4
00004a4c 5f4d4f43  11916 	.data.b	67,79,77,95,82,69,80,67,78,84,79,70,84,88,77,79,68,69,84,82,85,69,32,83,84,68,95,79,70,70,0
00004a50 43504552 
00004a54 464f544e 
00004a58 4f4d5854 
00004a5c 52544544 
00004a60 53204555 
00004a64 4f5f4454 
00004a68 004646 
00004a6b 01        11917 	.data.b	1
00004a6c 04f5      11918 	.data.b	245,4
00004a6e 5f4d4f43  11919 	.data.b	67,79,77,95,82,69,80,80,69,82,73,79,68,79,70,84,88,77,79,68,69,84,82,85,69,32,83,84,68,95,79,70,70,0
00004a72 50504552 
00004a76 4f495245 
00004a7a 54464f44 
00004a7e 444f4d58 
00004a82 55525445 
00004a86 54532045 
00004a8a 464f5f44 
00004a8e 0046 

                                                                      Page 301
                                                              C:\Users\Fengyuan\AppData\Local\Temp\gh_0000p9o1.s
00004a90 01        11920 	.data.b	1
00004a91 04fe      11921 	.data.b	254,4
00004a93 5f4d4f43  11922 	.data.b	67,79,77,95,84,88,80,68,85,73,78,70,79,32,83,84,68,95,79,78,0
00004a97 44505854 
00004a9b 464e4955 
00004a9f 5453204f 
00004aa3 4e4f5f44 
00004aa7 00 
00004aa8 01        11923 	.data.b	1
00004aa9 05ee      11924 	.data.b	238,5
00004aab 5f4d4f43  11925 	.data.b	67,79,77,95,70,73,76,84,69,82,73,78,70,79,85,83,69,68,79,70,84,88,83,73,71,73,78,70,79,32,83,84,68,95,79,70,70,0
00004aaf 544c4946 
00004ab3 4e495245 
00004ab7 53554f46 
00004abb 464f4445 
00004abf 49535854 
00004ac3 464e4947 
00004ac7 5453204f 
00004acb 464f5f44 
00004acf 0046 
00004ad1 01        11926 	.data.b	1
00004ad2 05f5      11927 	.data.b	245,5
00004ad4 5f4d4f43  11928 	.data.b	67,79,77,95,79,78,67,72,65,78,71,69,85,83,69,68,79,70,84,88,83,73,71,73,78,70,79,32,83,84,68,95,79,70,70,0
00004ad8 48434e4f 
00004adc 45474e41 
00004ae0 44455355 
00004ae4 5854464f 
00004ae8 49474953 
00004aec 204f464e 
00004af0 5f445453 
00004af4 0046464f 
00004af8 01        11929 	.data.b	1
00004af9 05f7      11930 	.data.b	247,5
00004afb 5f4d4f43  11931 	.data.b	67,79,77,95,84,82,73,71,71,69,82,69,68,79,70,84,88,83,73,71,73,78,70,79,32,83,84,68,95,79,70,70,0
00004aff 47495254 
00004b03 45524547 
00004b07 54464f44 
00004b0b 47495358 
00004b0f 4f464e49 
00004b13 44545320 
00004b17 46464f5f 
00004b1b 00 
00004b1c 01        11932 	.data.b	1
00004b1d 068d      11933 	.data.b	141,6
00004b1f 5f4d4f43  11934 	.data.b	67,79,77,95,84,88,84,79,85,84,73,78,70,79,32,83,84,68,95,79,70,70,0
00004b23 4f545854 
00004b27 4e495455 
00004b2b 53204f46 
00004b2f 4f5f4454 
00004b33 004646 
00004b36 01        11935 	.data.b	1
00004b37 0b81      11936 	.data.b	129,11
00004b39 5f6d6f43  11937 	.data.b	67,111,109,95,67,111,110,102,105,103,95,80,116,114,32,78,85,76,76,95,80,84,82,0
00004b3d 666e6f43 
00004b41 505f6769 
00004b45 4e207274 
00004b49 5f4c4c55 
00004b4d 00525450 
00004b51 01        11938 	.data.b	1
00004b52 0b9b      11939 	.data.b	155,11
00004b54 5f4d4f43  11940 	.data.b	67,79,77,95,85,83,69,95,73,78,73,84,95,80,79,73,78,84,69,82,32,83,84,68,95,79,70,70,0

                                                                      Page 302
                                                              C:\Users\Fengyuan\AppData\Local\Temp\gh_0000p9o1.s
00004b58 5f455355 
00004b5c 54494e49 
00004b60 494f505f 
00004b64 5245544e 
00004b68 44545320 
00004b6c 46464f5f 
00004b70 00 
00004b71 01        11941 	.data.b	1
00004b72 0ba4      11942 	.data.b	164,11
00004b74 5f4d4f43  11943 	.data.b	67,79,77,95,68,69,86,95,69,82,82,79,82,95,82,69,80,79,82,84,32,83,84,68,95,79,78,0
00004b78 5f564544 
00004b7c 4f525245 
00004b80 45525f52 
00004b84 54524f50 
00004b88 44545320 
00004b8c 004e4f5f 
00004b90 01        11944 	.data.b	1
00004b91 0ba9      11945 	.data.b	169,11
00004b93 5f4d4f43  11946 	.data.b	67,79,77,95,82,69,67,69,73,86,69,95,83,73,71,78,65,76,95,77,65,67,82,79,95,65,80,73,32,83,84,68,95,79,70,70,0
00004b97 45434552 
00004b9b 5f455649 
00004b9f 4e474953 
00004ba3 4d5f4c41 
00004ba7 4f524341 
00004bab 4950415f 
00004baf 44545320 
00004bb3 46464f5f 
00004bb7 00 
00004bb8 01        11947 	.data.b	1
00004bb9 0bad      11948 	.data.b	173,11
00004bbb 5f4d4f43  11949 	.data.b	67,79,77,95,84,82,65,78,83,80,79,82,84,95,80,82,79,84,79,67,79,76,32,83,84,68,95,79,70,70,0
00004bbf 4e415254 
00004bc3 524f5053 
00004bc7 52505f54 
00004bcb 434f544f 
00004bcf 53204c4f 
00004bd3 4f5f4454 
00004bd7 004646 
00004bda 01        11950 	.data.b	1
00004bdb 0bb1      11951 	.data.b	177,11
00004bdd 5f4d4f43  11952 	.data.b	67,79,77,95,84,82,73,71,71,69,82,95,73,80,68,85,95,83,69,78,68,95,87,73,84,72,95,77,69,84,65,95,68,65,84,65,95,65,80,73,32,83,84,68,95,79,70,70,0
00004be1 47495254 
00004be5 5f524547 
00004be9 55445049 
00004bed 4e45535f 
00004bf1 49575f44 
00004bf5 4d5f4854 
00004bf9 5f415445 
00004bfd 41544144 
00004c01 4950415f 
00004c05 44545320 
00004c09 46464f5f 
00004c0d 00 
00004c0e 01        11953 	.data.b	1
00004c0f 0bb2      11954 	.data.b	178,11
00004c11 5f4d4f43  11955 	.data.b	67,79,77,95,77,65,73,78,95,70,85,78,67,84,73,79,78,95,82,79,85,84,69,95,83,73,71,78,65,76,83,95,65,80,73,32,83,84,68,95,79,70,70,0
00004c15 4e49414d 
00004c19 4e55465f 
00004c1d 4f495443 
00004c21 4f525f4e 
00004c25 5f455455 

                                                                      Page 303
                                                              C:\Users\Fengyuan\AppData\Local\Temp\gh_0000p9o1.s
00004c29 4e474953 
00004c2d 5f534c41 
00004c31 20495041 
00004c35 5f445453 
00004c39 0046464f 
00004c3d 01        11956 	.data.b	1
00004c3e 0bb3      11957 	.data.b	179,11
00004c40 5f4d4f43  11958 	.data.b	67,79,77,95,69,78,65,66,76,69,95,83,73,71,78,65,76,95,71,82,79,85,80,95,65,82,82,65,89,95,65,80,73,32,83,84,68,95,79,70,70,0
00004c44 42414e45 
00004c48 535f454c 
00004c4c 414e4749 
00004c50 52475f4c 
00004c54 5f50554f 
00004c58 41525241 
00004c5c 50415f59 
00004c60 54532049 
00004c64 464f5f44 
00004c68 0046 
00004c6a 01        11959 	.data.b	1
00004c6b 0bb5      11960 	.data.b	181,11
00004c6d 5f4d4f43  11961 	.data.b	67,79,77,95,86,69,82,83,73,79,78,95,73,78,70,79,95,65,80,73,32,83,84,68,95,79,70,70,0
00004c71 53524556 
00004c75 5f4e4f49 
00004c79 4f464e49 
00004c7d 4950415f 
00004c81 44545320 
00004c85 46464f5f 
00004c89 00 
00004c8a 01        11962 	.data.b	1
00004c8b 0bb6      11963 	.data.b	182,11
00004c8d 5f4d4f43  11964 	.data.b	67,79,77,95,71,69,78,69,82,65,84,69,68,95,68,69,83,67,82,73,80,84,73,79,78,95,82,79,85,84,73,78,71,32,83,84,68,95,79,70,70,0
00004c91 454e4547 
00004c95 45544152 
00004c99 45445f44 
00004c9d 49524353 
00004ca1 4f495450 
00004ca5 4f525f4e 
00004ca9 4e495455 
00004cad 54532047 
00004cb1 464f5f44 
00004cb5 0046 
00004cb7 01        11965 	.data.b	1
00004cb8 0bf2      11966 	.data.b	242,11
00004cba 436d6f43  11967 	.data.b	67,111,109,67,111,110,102,95,67,111,109,73,80,100,117,71,114,111,117,112,95,77,121,69,67,85,95,111,67,65,78,48,48,95,82,120,95,52,99,98,102,55,49,102,55,32,48,117,0
00004cbe 5f666e6f 
00004cc2 496d6f43 
00004cc6 47756450 
00004cca 70756f72 
00004cce 45794d5f 
00004cd2 6f5f5543 
00004cd6 304e4143 
00004cda 78525f30 
00004cde 6263345f 
00004ce2 66313766 
00004ce6 75302037 
00004cea 00 
00004ceb 01        11968 	.data.b	1
00004cec 0bf3      11969 	.data.b	243,11
00004cee 436d6f43  11970 	.data.b	67,111,109,67,111,110,102,95,67,111,109,73,80,100,117,71,114,111,117,112,95,77,121,69,67,85,95,111,67,65,78,48,48,95,84,120,95,49,97,101,53,100,54,55,49,32,49,117,0
00004cf2 5f666e6f 
00004cf6 496d6f43 

                                                                      Page 304
                                                              C:\Users\Fengyuan\AppData\Local\Temp\gh_0000p9o1.s
00004cfa 47756450 
00004cfe 70756f72 
00004d02 45794d5f 
00004d06 6f5f5543 
00004d0a 304e4143 
00004d0e 78545f30 
00004d12 6561315f 
00004d16 37366435 
00004d1a 75312031 
00004d1e 00 
00004d1f 03        11971 	.data.b	3
00004d20 16f4      11972 	.data.b	244,22
00004d22 19        11973 	.data.b	25
00004d23 04        11974 	.data.b	4
00004d24 03        11975 	.data.b	3
00004d25 16f9      11976 	.data.b	249,22
00004d27 19        11977 	.data.b	25
00004d28 04        11978 	.data.b	4
00004d29 03        11979 	.data.b	3
00004d2a 178a      11980 	.data.b	138,23
00004d2c 19        11981 	.data.b	25
00004d2d 04        11982 	.data.b	4
00004d2e 03        11983 	.data.b	3
00004d2f 178f      11984 	.data.b	143,23
00004d31 19        11985 	.data.b	25
00004d32 04        11986 	.data.b	4
00004d33 03        11987 	.data.b	3
00004d34 179e      11988 	.data.b	158,23
00004d36 19        11989 	.data.b	25
00004d37 04        11990 	.data.b	4
00004d38 03        11991 	.data.b	3
00004d39 17a3      11992 	.data.b	163,23
00004d3b 19        11993 	.data.b	25
00004d3c 04        11994 	.data.b	4
00004d3d 03        11995 	.data.b	3
00004d3e 17b2      11996 	.data.b	178,23
00004d40 19        11997 	.data.b	25
00004d41 04        11998 	.data.b	4
00004d42 03        11999 	.data.b	3
00004d43 17b7      12000 	.data.b	183,23
00004d45 19        12001 	.data.b	25
00004d46 04        12002 	.data.b	4
00004d47 03        12003 	.data.b	3
00004d48 17c6      12004 	.data.b	198,23
00004d4a 19        12005 	.data.b	25
00004d4b 04        12006 	.data.b	4
00004d4c 03        12007 	.data.b	3
00004d4d 17cb      12008 	.data.b	203,23
00004d4f 19        12009 	.data.b	25
00004d50 04        12010 	.data.b	4
00004d51 03        12011 	.data.b	3
00004d52 17db      12012 	.data.b	219,23
00004d54 19        12013 	.data.b	25
00004d55 04        12014 	.data.b	4
00004d56 03        12015 	.data.b	3
00004d57 17e0      12016 	.data.b	224,23
00004d59 19        12017 	.data.b	25
00004d5a 04        12018 	.data.b	4
00004d5b 03        12019 	.data.b	3
00004d5c 17ef      12020 	.data.b	239,23
00004d5e 19        12021 	.data.b	25

                                                                      Page 305
                                                              C:\Users\Fengyuan\AppData\Local\Temp\gh_0000p9o1.s
00004d5f 04        12022 	.data.b	4
00004d60 03        12023 	.data.b	3
00004d61 17f4      12024 	.data.b	244,23
00004d63 19        12025 	.data.b	25
00004d64 04        12026 	.data.b	4
00004d65 03        12027 	.data.b	3
00004d66 1883      12028 	.data.b	131,24
00004d68 19        12029 	.data.b	25
00004d69 04        12030 	.data.b	4
00004d6a 03        12031 	.data.b	3
00004d6b 1888      12032 	.data.b	136,24
00004d6d 19        12033 	.data.b	25
00004d6e 04        12034 	.data.b	4
00004d6f 03        12035 	.data.b	3
00004d70 189a      12036 	.data.b	154,24
00004d72 19        12037 	.data.b	25
00004d73 04        12038 	.data.b	4
00004d74 03        12039 	.data.b	3
00004d75 189f      12040 	.data.b	159,24
00004d77 19        12041 	.data.b	25
00004d78 04        12042 	.data.b	4
00004d79 03        12043 	.data.b	3
00004d7a 18ab      12044 	.data.b	171,24
00004d7c 19        12045 	.data.b	25
00004d7d 04        12046 	.data.b	4
00004d7e 03        12047 	.data.b	3
00004d7f 18b0      12048 	.data.b	176,24
00004d81 19        12049 	.data.b	25
00004d82 04        12050 	.data.b	4
00004d83 03        12051 	.data.b	3
00004d84 18c3      12052 	.data.b	195,24
00004d86 19        12053 	.data.b	25
00004d87 04        12054 	.data.b	4
00004d88 03        12055 	.data.b	3
00004d89 18c8      12056 	.data.b	200,24
00004d8b 19        12057 	.data.b	25
00004d8c 04        12058 	.data.b	4
00004d8d 03        12059 	.data.b	3
00004d8e 18d4      12060 	.data.b	212,24
00004d90 19        12061 	.data.b	25
00004d91 04        12062 	.data.b	4
00004d92 03        12063 	.data.b	3
00004d93 18d9      12064 	.data.b	217,24
00004d95 19        12065 	.data.b	25
00004d96 04        12066 	.data.b	4
00004d97 03        12067 	.data.b	3
00004d98 18e5      12068 	.data.b	229,24
00004d9a 19        12069 	.data.b	25
00004d9b 04        12070 	.data.b	4
00004d9c 03        12071 	.data.b	3
00004d9d 18ea      12072 	.data.b	234,24
00004d9f 19        12073 	.data.b	25
00004da0 04        12074 	.data.b	4
00004da1 03        12075 	.data.b	3
00004da2 18f6      12076 	.data.b	246,24
00004da4 19        12077 	.data.b	25
00004da5 04        12078 	.data.b	4
00004da6 03        12079 	.data.b	3
00004da7 18fb      12080 	.data.b	251,24
00004da9 19        12081 	.data.b	25
00004daa 04        12082 	.data.b	4

                                                                      Page 306
                                                              C:\Users\Fengyuan\AppData\Local\Temp\gh_0000p9o1.s
00004dab 03        12083 	.data.b	3
00004dac 1987      12084 	.data.b	135,25
00004dae 19        12085 	.data.b	25
00004daf 04        12086 	.data.b	4
00004db0 03        12087 	.data.b	3
00004db1 198c      12088 	.data.b	140,25
00004db3 19        12089 	.data.b	25
00004db4 04        12090 	.data.b	4
00004db5 03        12091 	.data.b	3
00004db6 1994      12092 	.data.b	148,25
00004db8 19        12093 	.data.b	25
00004db9 04        12094 	.data.b	4
00004dba 03        12095 	.data.b	3
00004dbb 1999      12096 	.data.b	153,25
00004dbd 19        12097 	.data.b	25
00004dbe 04        12098 	.data.b	4
00004dbf 03        12099 	.data.b	3
00004dc0 19a5      12100 	.data.b	165,25
00004dc2 19        12101 	.data.b	25
00004dc3 04        12102 	.data.b	4
00004dc4 03        12103 	.data.b	3
00004dc5 19aa      12104 	.data.b	170,25
00004dc7 19        12105 	.data.b	25
00004dc8 04        12106 	.data.b	4
00004dc9 03        12107 	.data.b	3
00004dca 19b6      12108 	.data.b	182,25
00004dcc 19        12109 	.data.b	25
00004dcd 04        12110 	.data.b	4
00004dce 03        12111 	.data.b	3
00004dcf 19bb      12112 	.data.b	187,25
00004dd1 19        12113 	.data.b	25
00004dd2 04        12114 	.data.b	4
00004dd3 03        12115 	.data.b	3
00004dd4 19c7      12116 	.data.b	199,25
00004dd6 19        12117 	.data.b	25
00004dd7 04        12118 	.data.b	4
00004dd8 03        12119 	.data.b	3
00004dd9 19cc      12120 	.data.b	204,25
00004ddb 19        12121 	.data.b	25
00004ddc 04        12122 	.data.b	4
00004ddd 03        12123 	.data.b	3
00004dde 19d8      12124 	.data.b	216,25
00004de0 19        12125 	.data.b	25
00004de1 04        12126 	.data.b	4
00004de2 03        12127 	.data.b	3
00004de3 19dd      12128 	.data.b	221,25
00004de5 19        12129 	.data.b	25
00004de6 04        12130 	.data.b	4
00004de7 03        12131 	.data.b	3
00004de8 19e5      12132 	.data.b	229,25
00004dea 19        12133 	.data.b	25
00004deb 04        12134 	.data.b	4
00004dec 03        12135 	.data.b	3
00004ded 19ea      12136 	.data.b	234,25
00004def 19        12137 	.data.b	25
00004df0 04        12138 	.data.b	4
00004df1 03        12139 	.data.b	3
00004df2 19f6      12140 	.data.b	246,25
00004df4 19        12141 	.data.b	25
00004df5 04        12142 	.data.b	4
00004df6 03        12143 	.data.b	3

                                                                      Page 307
                                                              C:\Users\Fengyuan\AppData\Local\Temp\gh_0000p9o1.s
00004df7 19fb      12144 	.data.b	251,25
00004df9 19        12145 	.data.b	25
00004dfa 04        12146 	.data.b	4
00004dfb 03        12147 	.data.b	3
00004dfc 1a83      12148 	.data.b	131,26
00004dfe 19        12149 	.data.b	25
00004dff 04        12150 	.data.b	4
00004e00 03        12151 	.data.b	3
00004e01 1a88      12152 	.data.b	136,26
00004e03 19        12153 	.data.b	25
00004e04 04        12154 	.data.b	4
00004e05 03        12155 	.data.b	3
00004e06 1a90      12156 	.data.b	144,26
00004e08 19        12157 	.data.b	25
00004e09 04        12158 	.data.b	4
00004e0a 03        12159 	.data.b	3
00004e0b 1a95      12160 	.data.b	149,26
00004e0d 19        12161 	.data.b	25
00004e0e 04        12162 	.data.b	4
00004e0f 03        12163 	.data.b	3
00004e10 1aa1      12164 	.data.b	161,26
00004e12 19        12165 	.data.b	25
00004e13 04        12166 	.data.b	4
00004e14 03        12167 	.data.b	3
00004e15 1aa6      12168 	.data.b	166,26
00004e17 19        12169 	.data.b	25
00004e18 04        12170 	.data.b	4
00004e19 03        12171 	.data.b	3
00004e1a 1ab2      12172 	.data.b	178,26
00004e1c 19        12173 	.data.b	25
00004e1d 04        12174 	.data.b	4
00004e1e 03        12175 	.data.b	3
00004e1f 1ab7      12176 	.data.b	183,26
00004e21 19        12177 	.data.b	25
00004e22 04        12178 	.data.b	4
00004e23 03        12179 	.data.b	3
00004e24 1ac3      12180 	.data.b	195,26
00004e26 19        12181 	.data.b	25
00004e27 04        12182 	.data.b	4
00004e28 03        12183 	.data.b	3
00004e29 1ac8      12184 	.data.b	200,26
00004e2b 19        12185 	.data.b	25
00004e2c 04        12186 	.data.b	4
00004e2d 03        12187 	.data.b	3
00004e2e 1ad4      12188 	.data.b	212,26
00004e30 19        12189 	.data.b	25
00004e31 04        12190 	.data.b	4
00004e32 03        12191 	.data.b	3
00004e33 1ad9      12192 	.data.b	217,26
00004e35 19        12193 	.data.b	25
00004e36 04        12194 	.data.b	4
00004e37 03        12195 	.data.b	3
00004e38 1ae1      12196 	.data.b	225,26
00004e3a 19        12197 	.data.b	25
00004e3b 04        12198 	.data.b	4
00004e3c 03        12199 	.data.b	3
00004e3d 1ae6      12200 	.data.b	230,26
00004e3f 19        12201 	.data.b	25
00004e40 04        12202 	.data.b	4
00004e41 03        12203 	.data.b	3
00004e42 1aee      12204 	.data.b	238,26

                                                                      Page 308
                                                              C:\Users\Fengyuan\AppData\Local\Temp\gh_0000p9o1.s
00004e44 19        12205 	.data.b	25
00004e45 04        12206 	.data.b	4
00004e46 03        12207 	.data.b	3
00004e47 1af3      12208 	.data.b	243,26
00004e49 19        12209 	.data.b	25
00004e4a 04        12210 	.data.b	4
00004e4b 03        12211 	.data.b	3
00004e4c 1afb      12212 	.data.b	251,26
00004e4e 19        12213 	.data.b	25
00004e4f 04        12214 	.data.b	4
00004e50 03        12215 	.data.b	3
00004e51 1b80      12216 	.data.b	128,27
00004e53 19        12217 	.data.b	25
00004e54 04        12218 	.data.b	4
00004e55 03        12219 	.data.b	3
00004e56 1b8c      12220 	.data.b	140,27
00004e58 19        12221 	.data.b	25
00004e59 04        12222 	.data.b	4
00004e5a 03        12223 	.data.b	3
00004e5b 1b91      12224 	.data.b	145,27
00004e5d 19        12225 	.data.b	25
00004e5e 04        12226 	.data.b	4
00004e5f 03        12227 	.data.b	3
00004e60 1b99      12228 	.data.b	153,27
00004e62 19        12229 	.data.b	25
00004e63 04        12230 	.data.b	4
00004e64 03        12231 	.data.b	3
00004e65 1b9e      12232 	.data.b	158,27
00004e67 19        12233 	.data.b	25
00004e68 04        12234 	.data.b	4
00004e69 03        12235 	.data.b	3
00004e6a 1baa      12236 	.data.b	170,27
00004e6c 19        12237 	.data.b	25
00004e6d 04        12238 	.data.b	4
00004e6e 03        12239 	.data.b	3
00004e6f 1baf      12240 	.data.b	175,27
00004e71 19        12241 	.data.b	25
00004e72 04        12242 	.data.b	4
00004e73 04        12243 	.data.b	4
00004e74 03        12244 	.data.b	3
00004e75 01e1      12245 	.data.b	225,1
00004e77 72        12246 	.data.b	114
00004e78 03        12247 	.data.b	3
00004e79 4e        12248 	.data.b	78
00004e7a 73        12249 	.data.b	115
00004e7b 01        12250 	.data.b	1
00004e7c 2b        12251 	.data.b	43
00004e7d 5f544544  12252 	.data.b	68,69,84,95,69,78,65,66,76,69,68,32,83,84,68,95,79,78,0
00004e81 42414e45 
00004e85 2044454c 
00004e89 5f445453 
00004e8d 004e4f 
00004e90 01        12253 	.data.b	1
00004e91 2c        12254 	.data.b	44
00004e92 5f544544  12255 	.data.b	68,69,84,95,86,69,82,83,73,79,78,95,73,78,70,79,95,65,80,73,32,83,84,68,95,79,70,70,0
00004e96 53524556 
00004e9a 5f4e4f49 
00004e9e 4f464e49 
00004ea2 4950415f 
00004ea6 44545320 
00004eaa 46464f5f 

                                                                      Page 309
                                                              C:\Users\Fengyuan\AppData\Local\Temp\gh_0000p9o1.s
00004eae 00 
00004eaf 01        12256 	.data.b	1
00004eb0 2d        12257 	.data.b	45
00004eb1 5f544544  12258 	.data.b	68,69,84,95,68,69,66,85,71,95,69,78,65,66,76,69,68,32,83,84,68,95,79,70,70,0
00004eb5 55424544 
00004eb9 4e455f47 
00004ebd 454c4241 
00004ec1 54532044 
00004ec5 464f5f44 
00004ec9 0046 
00004ecb 03        12259 	.data.b	3
00004ecc 0288      12260 	.data.b	136,2
00004ece 19        12261 	.data.b	25
00004ecf 04        12262 	.data.b	4
00004ed0 03        12263 	.data.b	3
00004ed1 028e      12264 	.data.b	142,2
00004ed3 19        12265 	.data.b	25
00004ed4 04        12266 	.data.b	4
00004ed5 04        12267 	.data.b	4
00004ed6 03        12268 	.data.b	3
00004ed7 01d5      12269 	.data.b	213,1
00004ed9 19        12270 	.data.b	25
00004eda 04        12271 	.data.b	4
00004edb 03        12272 	.data.b	3
00004edc 02d3      12273 	.data.b	211,2
00004ede 19        12274 	.data.b	25
00004edf 04        12275 	.data.b	4
00004ee0 04        12276 	.data.b	4
00004ee1 03        12277 	.data.b	3
00004ee2 01e4      12278 	.data.b	228,1
00004ee4 74        12279 	.data.b	116
00004ee5 03        12280 	.data.b	3
00004ee6 36        12281 	.data.b	54
00004ee7 75        12282 	.data.b	117
00004ee8 01        12283 	.data.b	1
00004ee9 32        12284 	.data.b	50
00004eea 44545356  12285 	.data.b	86,83,84,68,76,73,66,95,85,83,69,95,76,73,66,82,65,82,89,95,70,85,78,67,84,73,79,78,83,32,83,84,68,95,79,70,70,0
00004eee 5f42494c 
00004ef2 5f455355 
00004ef6 5242494c 
00004efa 5f595241 
00004efe 434e5546 
00004f02 4e4f4954 
00004f06 54532053 
00004f0a 464f5f44 
00004f0e 0046 
00004f10 01        12286 	.data.b	1
00004f11 41        12287 	.data.b	65
00004f12 44545356  12288 	.data.b	86,83,84,68,76,73,66,95,82,85,78,84,73,77,69,95,79,80,84,73,77,73,90,65,84,73,79,78,32,83,84,68,95,79,78,0
00004f16 5f42494c 
00004f1a 544e5552 
00004f1e 5f454d49 
00004f22 4954504f 
00004f26 415a494d 
00004f2a 4e4f4954 
00004f2e 44545320 
00004f32 004e4f5f 
00004f36 01        12289 	.data.b	1
00004f37 52        12290 	.data.b	82
00004f38 44545356  12291 	.data.b	86,83,84,68,76,73,66,95,85,83,69,95,74,85,77,80,84,65,66,76,69,83,32,83,84,68,95,79,78,0
00004f3c 5f42494c 

                                                                      Page 310
                                                              C:\Users\Fengyuan\AppData\Local\Temp\gh_0000p9o1.s
00004f40 5f455355 
00004f44 504d554a 
00004f48 4c424154 
00004f4c 53205345 
00004f50 4f5f4454 
00004f54 004e 
00004f56 01        12292 	.data.b	1
00004f57 63        12293 	.data.b	99
00004f58 44545356  12294 	.data.b	86,83,84,68,76,73,66,95,68,69,86,95,69,82,82,79,82,95,68,69,84,69,67,84,32,83,84,68,95,79,70,70,0
00004f5c 5f42494c 
00004f60 5f564544 
00004f64 4f525245 
00004f68 45445f52 
00004f6c 54434554 
00004f70 44545320 
00004f74 46464f5f 
00004f78 00 
00004f79 01        12295 	.data.b	1
00004f7a 72        12296 	.data.b	114
00004f7b 44545356  12297 	.data.b	86,83,84,68,76,73,66,95,68,69,86,95,69,82,82,79,82,95,82,69,80,79,82,84,32,83,84,68,95,79,70,70,0
00004f7f 5f42494c 
00004f83 5f564544 
00004f87 4f525245 
00004f8b 45525f52 
00004f8f 54524f50 
00004f93 44545320 
00004f97 46464f5f 
00004f9b 00 
00004f9c 01        12298 	.data.b	1
00004f9d 0180      12299 	.data.b	128,1
00004f9f 44545356  12300 	.data.b	86,83,84,68,76,73,66,95,86,69,82,83,73,79,78,95,73,78,70,79,95,65,80,73,32,83,84,68,95,79,70,70,0
00004fa3 5f42494c 
00004fa7 53524556 
00004fab 5f4e4f49 
00004faf 4f464e49 
00004fb3 4950415f 
00004fb7 44545320 
00004fbb 46464f5f 
00004fbf 00 
00004fc0 01        12301 	.data.b	1
00004fc1 018f      12302 	.data.b	143,1
00004fc3 44545356  12303 	.data.b	86,83,84,68,76,73,66,95,68,85,77,77,89,95,83,84,65,84,69,77,69,78,84,40,118,41,32,40,118,111,105,100,41,40,118,41,0
00004fc7 5f42494c 
00004fcb 4d4d5544 
00004fcf 54535f59 
00004fd3 4d455441 
00004fd7 28544e45 
00004fdb 28202976 
00004fdf 64696f76 
00004fe3 29762829 
00004fe7 00 
00004fe8 01        12304 	.data.b	1
00004fe9 01d1      12305 	.data.b	209,1
00004feb 44545356  12306 	.data.b	86,83,84,68,76,73,66,95,67,70,71,95,77,65,74,79,82,95,86,69,82,83,73,79,78,32,40,50,117,41,0
00004fef 5f42494c 
00004ff3 5f474643 
00004ff7 4f4a414d 
00004ffb 45565f52 
00004fff 4f495352 
00005003 3228204e 
00005007 002975 

                                                                      Page 311
                                                              C:\Users\Fengyuan\AppData\Local\Temp\gh_0000p9o1.s
0000500a 01        12307 	.data.b	1
0000500b 01d2      12308 	.data.b	210,1
0000500d 44545356  12309 	.data.b	86,83,84,68,76,73,66,95,67,70,71,95,77,73,78,79,82,95,86,69,82,83,73,79,78,32,40,48,117,41,0
00005011 5f42494c 
00005015 5f474643 
00005019 4f4e494d 
0000501d 45565f52 
00005021 4f495352 
00005025 3028204e 
00005029 002975 
0000502c 04        12310 	.data.b	4
0000502d 01        12311 	.data.b	1
0000502e 6d        12312 	.data.b	109
0000502f 44545356  12313 	.data.b	86,83,84,68,76,73,66,95,83,85,80,80,79,82,84,95,76,65,82,71,69,95,68,65,84,65,32,83,84,68,95,79,78,0
00005033 5f42494c 
00005037 50505553 
0000503b 5f54524f 
0000503f 4752414c 
00005043 41445f45 
00005047 53204154 
0000504b 4f5f4454 
0000504f 004e 
00005051 03        12314 	.data.b	3
00005052 0383      12315 	.data.b	131,3
00005054 19        12316 	.data.b	25
00005055 04        12317 	.data.b	4
00005056 03        12318 	.data.b	3
00005057 0485      12319 	.data.b	133,4
00005059 19        12320 	.data.b	25
0000505a 04        12321 	.data.b	4
0000505b 04        12322 	.data.b	4
0000505c 03        12323 	.data.b	3
0000505d 01e5      12324 	.data.b	229,1
0000505f 76        12325 	.data.b	118
00005060 03        12326 	.data.b	3
00005061 3e        12327 	.data.b	62
00005062 19        12328 	.data.b	25
00005063 04        12329 	.data.b	4
00005064 03        12330 	.data.b	3
00005065 61        12331 	.data.b	97
00005066 19        12332 	.data.b	25
00005067 04        12333 	.data.b	4
00005068 04        12334 	.data.b	4
00005069 03        12335 	.data.b	3
0000506a 03d6      12336 	.data.b	214,3
0000506c 19        12337 	.data.b	25
0000506d 04        12338 	.data.b	4
0000506e 03        12339 	.data.b	3
0000506f 09d3      12340 	.data.b	211,9
00005071 19        12341 	.data.b	25
00005072 04        12342 	.data.b	4
00005073 04        12343 	.data.b	4
00005074 03        12344 	.data.b	3
00005075 2b        12345 	.data.b	43
00005076 77        12346 	.data.b	119
00005077 03        12347 	.data.b	3
00005078 2b        12348 	.data.b	43
00005079 78        12349 	.data.b	120
0000507a 01        12350 	.data.b	1
0000507b 3c        12351 	.data.b	60
0000507c 454c4552  12352 	.data.b	82,69,76,69,65,83,69,68,32,40,48,85,41,0

                                                                      Page 312
                                                              C:\Users\Fengyuan\AppData\Local\Temp\gh_0000p9o1.s
00005080 44455341 
00005084 55302820 
00005088 0029 
0000508a 01        12353 	.data.b	1
0000508b 40        12354 	.data.b	64
0000508c 55514552  12355 	.data.b	82,69,81,85,69,83,84,69,68,32,40,49,85,41,0
00005090 45545345 
00005094 31282044 
00005098 002955 
0000509b 01        12356 	.data.b	1
0000509c 54        12357 	.data.b	84
0000509d 5f455452  12358 	.data.b	82,84,69,95,77,79,68,69,95,69,83,72,95,77,111,100,101,95,80,79,83,84,82,85,78,32,40,48,85,41,0
000050a1 45444f4d 
000050a5 4853455f 
000050a9 646f4d5f 
000050ad 4f505f65 
000050b1 55525453 
000050b5 3028204e 
000050b9 002955 
000050bc 01        12359 	.data.b	1
000050bd 58        12360 	.data.b	88
000050be 5f455452  12361 	.data.b	82,84,69,95,77,79,68,69,95,69,83,72,95,77,111,100,101,95,82,85,78,32,40,49,85,41,0
000050c2 45444f4d 
000050c6 4853455f 
000050ca 646f4d5f 
000050ce 55525f65 
000050d2 3128204e 
000050d6 002955 
000050d9 01        12362 	.data.b	1
000050da 5c        12363 	.data.b	92
000050db 5f455452  12364 	.data.b	82,84,69,95,77,79,68,69,95,69,83,72,95,77,111,100,101,95,83,72,85,84,68,79,87,78,32,40,50,85,41,0
000050df 45444f4d 
000050e3 4853455f 
000050e7 646f4d5f 
000050eb 48535f65 
000050ef 4f445455 
000050f3 28204e57 
000050f7 00295532 
000050fb 01        12365 	.data.b	1
000050fc 60        12366 	.data.b	96
000050fd 5f455452  12367 	.data.b	82,84,69,95,77,79,68,69,95,69,83,72,95,77,111,100,101,95,83,84,65,82,84,85,80,32,40,51,85,41,0
00005101 45444f4d 
00005105 4853455f 
00005109 646f4d5f 
0000510d 54535f65 
00005111 55545241 
00005115 33282050 
00005119 002955 
0000511c 01        12368 	.data.b	1
0000511d 64        12369 	.data.b	100
0000511e 5f455452  12370 	.data.b	82,84,69,95,77,79,68,69,95,69,83,72,95,77,111,100,101,95,87,65,75,69,85,80,32,40,52,85,41,0
00005122 45444f4d 
00005126 4853455f 
0000512a 646f4d5f 
0000512e 41575f65 
00005132 5055454b 
00005136 55342820 
0000513a 0029 
0000513c 01        12371 	.data.b	1
0000513d 68        12372 	.data.b	104
0000513e 5f455452  12373 	.data.b	82,84,69,95,84,82,65,78,83,73,84,73,79,78,95,69,83,72,95,77,111,100,101,32,40,53,85,41,0

                                                                      Page 313
                                                              C:\Users\Fengyuan\AppData\Local\Temp\gh_0000p9o1.s
00005142 4e415254 
00005146 49544953 
0000514a 455f4e4f 
0000514e 4d5f4853 
00005152 2065646f 
00005156 29553528 
0000515a 00 
0000515b 04        12374 	.data.b	4
0000515c 03        12375 	.data.b	3
0000515d 3c        12376 	.data.b	60
0000515e 19        12377 	.data.b	25
0000515f 04        12378 	.data.b	4
00005160 03        12379 	.data.b	3
00005161 49        12380 	.data.b	73
00005162 19        12381 	.data.b	25
00005163 04        12382 	.data.b	4
00005164 01        12383 	.data.b	1
00005165 51        12384 	.data.b	81
00005166 5f657452  12385 	.data.b	82,116,101,95,82,101,97,100,95,82,101,113,117,101,115,116,95,69,83,72,95,80,111,115,116,82,117,110,82,101,113,117,101,115,116,95,48,95,114,101,113,117,101,115,116,101,100,77,111,100,101,32,82,116,101,95,82,101,97,100
0000516a 64616552 
0000516e 7165525f 
00005172 74736575 
00005176 4853455f 
0000517a 736f505f 
0000517e 6e755274 
00005182 75716552 
00005186 5f747365 
0000518a 65725f30 
0000518e 73657571 
00005192 4d646574 
00005196 2065646f 
0000519a 5f657452 
0000519e 64616552 
000051a2 7773425f  12386 	.data.b	95,66,115,119,77,95,82,101,113,117,101,115,116,95,69,83,72,95,80,111,115,116,82,117,110,82,101,113,117,101,115,116,95,48,95,114,101,113,117,101,115,116,101,100,77,111,100,101,0
000051a6 65525f4d 
000051aa 73657571 
000051ae 53455f74 
000051b2 6f505f48 
000051b6 75527473 
000051ba 7165526e 
000051be 74736575 
000051c2 725f305f 
000051c6 65757165 
000051ca 64657473 
000051ce 65646f4d 
000051d2 00 
000051d3 01        12387 	.data.b	1
000051d4 52        12388 	.data.b	82
000051d5 5f657452  12389 	.data.b	82,116,101,95,82,101,97,100,95,82,101,113,117,101,115,116,95,69,83,72,95,80,111,115,116,82,117,110,82,101,113,117,101,115,116,95,49,95,114,101,113,117,101,115,116,101,100,77,111,100,101,32,82,116,101,95,82,101,97,100
000051d9 64616552 
000051dd 7165525f 
000051e1 74736575 
000051e5 4853455f 
000051e9 736f505f 
000051ed 6e755274 
000051f1 75716552 
000051f5 5f747365 
000051f9 65725f31 
000051fd 73657571 
00005201 4d646574 
00005205 2065646f 

                                                                      Page 314
                                                              C:\Users\Fengyuan\AppData\Local\Temp\gh_0000p9o1.s
00005209 5f657452 
0000520d 64616552 
00005211 7773425f  12390 	.data.b	95,66,115,119,77,95,82,101,113,117,101,115,116,95,69,83,72,95,80,111,115,116,82,117,110,82,101,113,117,101,115,116,95,49,95,114,101,113,117,101,115,116,101,100,77,111,100,101,0
00005215 65525f4d 
00005219 73657571 
0000521d 53455f74 
00005221 6f505f48 
00005225 75527473 
00005229 7165526e 
0000522d 74736575 
00005231 725f315f 
00005235 65757165 
00005239 64657473 
0000523d 65646f4d 
00005241 00 
00005242 01        12391 	.data.b	1
00005243 53        12392 	.data.b	83
00005244 5f657452  12393 	.data.b	82,116,101,95,82,101,97,100,95,82,101,113,117,101,115,116,95,69,83,72,95,82,117,110,82,101,113,117,101,115,116,95,48,95,114,101,113,117,101,115,116,101,100,77,111,100,101,32,82,116,101,95,82,101,97,100,95,66,115,119
00005248 64616552 
0000524c 7165525f 
00005250 74736575 
00005254 4853455f 
00005258 6e75525f 
0000525c 75716552 
00005260 5f747365 
00005264 65725f30 
00005268 73657571 
0000526c 4d646574 
00005270 2065646f 
00005274 5f657452 
00005278 64616552 
0000527c 7773425f 
00005280 65525f4d  12394 	.data.b	77,95,82,101,113,117,101,115,116,95,69,83,72,95,82,117,110,82,101,113,117,101,115,116,95,48,95,114,101,113,117,101,115,116,101,100,77,111,100,101,0
00005284 73657571 
00005288 53455f74 
0000528c 75525f48 
00005290 7165526e 
00005294 74736575 
00005298 725f305f 
0000529c 65757165 
000052a0 64657473 
000052a4 65646f4d 
000052a8 00 
000052a9 01        12395 	.data.b	1
000052aa 54        12396 	.data.b	84
000052ab 5f657452  12397 	.data.b	82,116,101,95,82,101,97,100,95,82,101,113,117,101,115,116,95,69,83,72,95,82,117,110,82,101,113,117,101,115,116,95,49,95,114,101,113,117,101,115,116,101,100,77,111,100,101,32,82,116,101,95,82,101,97,100,95,66,115,119
000052af 64616552 
000052b3 7165525f 
000052b7 74736575 
000052bb 4853455f 
000052bf 6e75525f 
000052c3 75716552 
000052c7 5f747365 
000052cb 65725f31 
000052cf 73657571 
000052d3 4d646574 
000052d7 2065646f 
000052db 5f657452 
000052df 64616552 
000052e3 7773425f 
000052e7 65525f4d  12398 	.data.b	77,95,82,101,113,117,101,115,116,95,69,83,72,95,82,117,110,82,101,113,117,101,115,116,95,49,95,114,101,113,117,101,115,116,101,100,77,111,100,101,0

                                                                      Page 315
                                                              C:\Users\Fengyuan\AppData\Local\Temp\gh_0000p9o1.s
000052eb 73657571 
000052ef 53455f74 
000052f3 75525f48 
000052f7 7165526e 
000052fb 74736575 
000052ff 725f315f 
00005303 65757165 
00005307 64657473 
0000530b 65646f4d 
0000530f 00 
00005310 01        12399 	.data.b	1
00005311 5a        12400 	.data.b	90
00005312 5f657452  12401 	.data.b	82,116,101,95,77,111,100,101,95,78,111,116,105,102,105,99,97,116,105,111,110,95,69,83,72,95,77,111,100,101,78,111,116,105,102,105,99,97,116,105,111,110,95,66,115,119,77,95,77,68,71,80,95,69,83,72,95,77,111,100
00005316 65646f4d 
0000531a 746f4e5f 
0000531e 63696669 
00005322 6f697461 
00005326 53455f6e 
0000532a 6f4d5f48 
0000532e 6f4e6564 
00005332 69666974 
00005336 69746163 
0000533a 425f6e6f 
0000533e 5f4d7773 
00005342 5047444d 
00005346 4853455f 
0000534a 646f4d5f 
0000534e 74522065  12402 	.data.b	101,32,82,116,101,95,77,111,100,101,95,66,115,119,77,95,78,111,116,105,102,105,99,97,116,105,111,110,95,69,83,72,95,77,111,100,101,78,111,116,105,102,105,99,97,116,105,111,110,95,66,115,119,77,95,77,68,71,80,95
00005352 6f4d5f65 
00005356 425f6564 
0000535a 5f4d7773 
0000535e 69746f4e 
00005362 61636966 
00005366 6e6f6974 
0000536a 4853455f 
0000536e 646f4d5f 
00005372 746f4e65 
00005376 63696669 
0000537a 6f697461 
0000537e 73425f6e 
00005382 4d5f4d77 
00005386 5f504744 
0000538a 5f485345  12403 	.data.b	69,83,72,95,77,111,100,101,0
0000538e 65646f4d 
00005392 00 
00005393 01        12404 	.data.b	1
00005394 60        12405 	.data.b	96
00005395 5f657452  12406 	.data.b	82,116,101,95,83,119,105,116,99,104,95,83,119,105,116,99,104,95,69,83,72,95,77,111,100,101,83,119,105,116,99,104,95,66,115,119,77,95,77,68,71,80,95,69,83,72,95,77,111,100,101,32,82,116,101,95,83,119,105,116
00005399 74697753 
0000539d 535f6863 
000053a1 63746977 
000053a5 53455f68 
000053a9 6f4d5f48 
000053ad 77536564 
000053b1 68637469 
000053b5 7773425f 
000053b9 444d5f4d 
000053bd 455f5047 
000053c1 4d5f4853 
000053c5 2065646f 
000053c9 5f657452 

                                                                      Page 316
                                                              C:\Users\Fengyuan\AppData\Local\Temp\gh_0000p9o1.s
000053cd 74697753 
000053d1 425f6863  12407 	.data.b	99,104,95,66,115,119,77,95,83,119,105,116,99,104,95,69,83,72,95,77,111,100,101,83,119,105,116,99,104,95,66,115,119,77,95,77,68,71,80,95,69,83,72,95,77,111,100,101,0
000053d5 5f4d7773 
000053d9 74697753 
000053dd 455f6863 
000053e1 4d5f4853 
000053e5 5365646f 
000053e9 63746977 
000053ed 73425f68 
000053f1 4d5f4d77 
000053f5 5f504744 
000053f9 5f485345 
000053fd 65646f4d 
00005401 00 
00005402 01        12408 	.data.b	1
00005403 66        12409 	.data.b	102
00005404 4d777342  12410 	.data.b	66,115,119,77,95,83,84,65,82,84,95,83,69,67,95,67,79,68,69,32,0
00005408 4154535f 
0000540c 535f5452 
00005410 435f4345 
00005414 2045444f 
00005418 00 
00005419 03        12411 	.data.b	3
0000541a 67        12412 	.data.b	103
0000541b 79        12413 	.data.b	121
0000541c 03        12414 	.data.b	3
0000541d 38        12415 	.data.b	56
0000541e 19        12416 	.data.b	25
0000541f 04        12417 	.data.b	4
00005420 04        12418 	.data.b	4
00005421 01        12419 	.data.b	1
00005422 73        12420 	.data.b	115
00005423 4d777342  12421 	.data.b	66,115,119,77,95,83,84,79,80,95,83,69,67,95,67,79,68,69,32,0
00005427 4f54535f 
0000542b 45535f50 
0000542f 4f435f43 
00005433 00204544 
00005437 03        12422 	.data.b	3
00005438 74        12423 	.data.b	116
00005439 79        12424 	.data.b	121
0000543a 03        12425 	.data.b	3
0000543b 018a      12426 	.data.b	138,1
0000543d 19        12427 	.data.b	25
0000543e 04        12428 	.data.b	4
0000543f 04        12429 	.data.b	4
00005440 04        12430 	.data.b	4
00005441 03        12431 	.data.b	3
00005442 2c        12432 	.data.b	44
00005443 7a        12433 	.data.b	122
00005444 03        12434 	.data.b	3
00005445 03dd      12435 	.data.b	221,3
00005447 7b        12436 	.data.b	123
00005448 03        12437 	.data.b	3
00005449 3a        12438 	.data.b	58
0000544a 7c        12439 	.data.b	124
0000544b 03        12440 	.data.b	3
0000544c 48        12441 	.data.b	72
0000544d 7d        12442 	.data.b	125
0000544e 04        12443 	.data.b	4
0000544f 03        12444 	.data.b	3
00005450 4c        12445 	.data.b	76

                                                                      Page 317
                                                              C:\Users\Fengyuan\AppData\Local\Temp\gh_0000p9o1.s
00005451 7e        12446 	.data.b	126
00005452 04        12447 	.data.b	4
00005453 04        12448 	.data.b	4
00005454 01        12449 	.data.b	1
00005455 6c        12450 	.data.b	108
00005456 5f4e4143  12451 	.data.b	67,65,78,95,80,79,83,84,66,85,73,76,68,95,86,65,82,73,65,78,84,95,83,85,80,80,79,82,84,32,83,84,68,95,79,70,70,0
0000545a 54534f50 
0000545e 4c495542 
00005462 41565f44 
00005466 4e414952 
0000546a 55535f54 
0000546e 524f5050 
00005472 54532054 
00005476 464f5f44 
0000547a 0046 
0000547c 01        12452 	.data.b	1
0000547d 79        12453 	.data.b	121
0000547e 5f4e4143  12454 	.data.b	67,65,78,95,71,69,78,95,67,79,77,95,83,84,65,67,75,95,76,73,66,32,0
00005482 5f4e4547 
00005486 5f4d4f43 
0000548a 43415453 
0000548e 494c5f4b 
00005492 002042 
00005495 01        12455 	.data.b	1
00005496 7c        12456 	.data.b	124
00005497 534f5f56  12457 	.data.b	86,95,79,83,84,89,80,69,95,65,85,84,79,83,65,82,32,0
0000549b 45505954 
0000549f 5455415f 
000054a3 5241534f 
000054a7 0020 
000054a9 01        12458 	.data.b	1
000054aa 019a      12459 	.data.b	154,1
000054ac 50435f43  12460 	.data.b	67,95,67,80,85,84,89,80,69,95,76,73,84,84,76,69,69,78,68,73,65,78,32,0
000054b0 50595455 
000054b4 494c5f45 
000054b8 454c5454 
000054bc 49444e45 
000054c0 00204e41 
000054c4 01        12461 	.data.b	1
000054c5 01ab      12462 	.data.b	171,1
000054c7 50435f56  12463 	.data.b	86,95,67,80,85,95,83,51,50,32,0
000054cb 33535f55 
000054cf 002032 
000054d2 01        12464 	.data.b	1
000054d3 01cc      12465 	.data.b	204,1
000054d5 5f4e4143  12466 	.data.b	67,65,78,95,77,73,67,82,79,83,65,82,95,86,69,82,83,73,79,78,32,67,65,78,95,77,83,82,52,48,51,0
000054d9 5243494d 
000054dd 5241534f 
000054e1 5245565f 
000054e5 4e4f4953 
000054e9 4e414320 
000054ed 52534d5f 
000054f1 00333034 
000054f5 01        12467 	.data.b	1
000054f6 01d2      12468 	.data.b	210,1
000054f8 5f4e4143  12469 	.data.b	67,65,78,95,73,78,83,84,65,78,67,69,95,73,68,32,48,0
000054fc 54534e49 
00005500 45434e41 
00005504 2044495f 
00005508 0030 
0000550a 01        12470 	.data.b	1

                                                                      Page 318
                                                              C:\Users\Fengyuan\AppData\Local\Temp\gh_0000p9o1.s
0000550b 01df      12471 	.data.b	223,1
0000550d 5f4e4143  12472 	.data.b	67,65,78,95,73,78,84,69,82,82,85,80,84,32,48,117,0
00005511 45544e49 
00005515 50555252 
00005519 75302054 
0000551d 00 
0000551e 01        12473 	.data.b	1
0000551f 01e0      12474 	.data.b	224,1
00005521 5f4e4143  12475 	.data.b	67,65,78,95,80,79,76,76,73,78,71,32,49,117,0
00005525 4c4c4f50 
00005529 20474e49 
0000552d 007531 
00005530 01        12476 	.data.b	1
00005531 01e2      12477 	.data.b	226,1
00005533 6e61436b  12478 	.data.b	107,67,97,110,67,104,97,110,110,101,108,78,111,116,85,115,101,100,32,67,65,78,95,78,79,95,67,65,78,73,70,67,72,65,78,78,69,76,73,68,0
00005537 6e616843 
0000553b 4e6c656e 
0000553f 7355746f 
00005543 43206465 
00005547 4e5f4e41 
0000554b 41435f4f 
0000554f 4346494e 
00005553 4e4e4148 
00005557 44494c45 
0000555b 00 
0000555c 01        12479 	.data.b	1
0000555d 01e4      12480 	.data.b	228,1
0000555f 5f4e4143  12481 	.data.b	67,65,78,95,78,79,78,69,32,48,117,0
00005563 454e4f4e 
00005567 00753020 
0000556b 01        12482 	.data.b	1
0000556c 01e6      12483 	.data.b	230,1
0000556e 5f4e4143  12484 	.data.b	67,65,78,95,78,79,84,73,70,89,95,73,83,83,85,69,32,49,117,0
00005572 49544f4e 
00005576 495f5946 
0000557a 45555353 
0000557e 00753120 
00005582 01        12485 	.data.b	1
00005583 01e7      12486 	.data.b	231,1
00005585 5f4e4143  12487 	.data.b	67,65,78,95,78,79,84,73,70,89,95,77,65,73,76,66,79,88,32,50,117,0
00005589 49544f4e 
0000558d 4d5f5946 
00005591 424c4941 
00005595 3220584f 
00005599 0075 
0000559b 01        12488 	.data.b	1
0000559c 01e8      12489 	.data.b	232,1
0000559e 5f4e4143  12490 	.data.b	67,65,78,95,69,88,84,69,78,68,69,68,32,51,117,0
000055a2 45545845 
000055a6 4445444e 
000055aa 00753320 
000055ae 01        12491 	.data.b	1
000055af 01ea      12492 	.data.b	234,1
000055b1 5f4e4143  12493 	.data.b	67,65,78,95,68,82,73,86,69,82,32,49,117,0
000055b5 56495244 
000055b9 31205245 
000055bd 0075 
000055bf 01        12494 	.data.b	1
000055c0 01eb      12495 	.data.b	235,1
000055c2 5f4e4143  12496 	.data.b	67,65,78,95,65,80,80,76,32,50,117,0
000055c6 4c505041 

                                                                      Page 319
                                                              C:\Users\Fengyuan\AppData\Local\Temp\gh_0000p9o1.s
000055ca 00753220 
000055ce 01        12497 	.data.b	1
000055cf 01ec      12498 	.data.b	236,1
000055d1 5f4e4143  12499 	.data.b	67,65,78,95,66,79,84,72,32,51,117,0
000055d5 48544f42 
000055d9 00753320 
000055dd 01        12500 	.data.b	1
000055de 01ee      12501 	.data.b	238,1
000055e0 5f4e4143  12502 	.data.b	67,65,78,95,77,83,82,51,48,32,51,48,117,0
000055e4 3352534d 
000055e8 30332030 
000055ec 0075 
000055ee 01        12503 	.data.b	1
000055ef 01ef      12504 	.data.b	239,1
000055f1 5f4e4143  12505 	.data.b	67,65,78,95,77,83,82,52,48,32,52,48,117,0
000055f5 3452534d 
000055f9 30342030 
000055fd 0075 
000055ff 01        12506 	.data.b	1
00005600 01f0      12507 	.data.b	240,1
00005602 5f4e4143  12508 	.data.b	67,65,78,95,77,83,82,52,48,51,32,52,48,51,117,0
00005606 3452534d 
0000560a 34203330 
0000560e 00753330 
00005612 01        12509 	.data.b	1
00005613 01f2      12510 	.data.b	242,1
00005615 5f4e4143  12511 	.data.b	67,65,78,95,68,69,84,32,49,117,0
00005619 20544544 
0000561d 007531 
00005620 01        12512 	.data.b	1
00005621 01f4      12513 	.data.b	244,1
00005623 5f4e4143  12514 	.data.b	67,65,78,95,66,82,83,32,49,117,0
00005627 20535242 
0000562b 007531 
0000562e 01        12515 	.data.b	1
0000562f 01f5      12516 	.data.b	245,1
00005631 5f4e4143  12517 	.data.b	67,65,78,95,70,85,76,76,32,50,117,0
00005635 4c4c5546 
00005639 00753220 
0000563d 01        12518 	.data.b	1
0000563e 01fb      12519 	.data.b	251,1
00005640 5f4e4143  12520 	.data.b	67,65,78,95,65,80,73,50,32,50,117,0
00005644 32495041 
00005648 00753220 
0000564c 01        12521 	.data.b	1
0000564d 0285      12522 	.data.b	133,2
0000564f 5f4e4143  12523 	.data.b	67,65,78,95,86,69,82,83,73,79,78,95,73,78,70,79,95,65,80,73,32,83,84,68,95,79,70,70,0
00005653 53524556 
00005657 5f4e4f49 
0000565b 4f464e49 
0000565f 4950415f 
00005663 44545320 
00005667 46464f5f 
0000566b 00 
0000566c 01        12524 	.data.b	1
0000566d 0287      12525 	.data.b	135,2
0000566f 5f4e4143  12526 	.data.b	67,65,78,95,68,69,86,95,69,82,82,79,82,95,82,69,80,79,82,84,32,83,84,68,95,79,78,0
00005673 5f564544 
00005677 4f525245 
0000567b 45525f52 
0000567f 54524f50 

                                                                      Page 320
                                                              C:\Users\Fengyuan\AppData\Local\Temp\gh_0000p9o1.s
00005683 44545320 
00005687 004e4f5f 
0000568b 01        12527 	.data.b	1
0000568c 0289      12528 	.data.b	137,2
0000568e 5f4e4143  12529 	.data.b	67,65,78,95,68,69,86,95,84,73,77,69,79,85,84,95,68,69,84,69,67,84,32,83,84,68,95,79,70,70,0
00005692 5f564544 
00005696 454d4954 
0000569a 5f54554f 
0000569e 45544544 
000056a2 53205443 
000056a6 4f5f4454 
000056aa 004646 
000056ad 01        12530 	.data.b	1
000056ae 028d      12531 	.data.b	141,2
000056b0 5f4e4143  12532 	.data.b	67,65,78,95,84,88,95,80,82,79,67,69,83,83,73,78,71,32,67,65,78,95,73,78,84,69,82,82,85,80,84,0
000056b4 505f5854 
000056b8 45434f52 
000056bc 4e495353 
000056c0 41432047 
000056c4 4e495f4e 
000056c8 52524554 
000056cc 00545055 
000056d0 01        12533 	.data.b	1
000056d1 028e      12534 	.data.b	142,2
000056d3 5f4e4143  12535 	.data.b	67,65,78,95,82,88,95,80,82,79,67,69,83,83,73,78,71,32,67,65,78,95,73,78,84,69,82,82,85,80,84,0
000056d7 505f5852 
000056db 45434f52 
000056df 4e495353 
000056e3 41432047 
000056e7 4e495f4e 
000056eb 52524554 
000056ef 00545055 
000056f3 01        12536 	.data.b	1
000056f4 028f      12537 	.data.b	143,2
000056f6 5f4e4143  12538 	.data.b	67,65,78,95,66,85,83,79,70,70,95,80,82,79,67,69,83,83,73,78,71,32,67,65,78,95,73,78,84,69,82,82,85,80,84,0
000056fa 4f535542 
000056fe 505f4646 
00005702 45434f52 
00005706 4e495353 
0000570a 41432047 
0000570e 4e495f4e 
00005712 52524554 
00005716 00545055 
0000571a 01        12539 	.data.b	1
0000571b 0290      12540 	.data.b	144,2
0000571d 5f4e4143  12541 	.data.b	67,65,78,95,87,65,75,69,85,80,95,80,82,79,67,69,83,83,73,78,71,32,67,65,78,95,73,78,84,69,82,82,85,80,84,0
00005721 454b4157 
00005725 505f5055 
00005729 45434f52 
0000572d 4e495353 
00005731 41432047 
00005735 4e495f4e 
00005739 52524554 
0000573d 00545055 
00005741 01        12542 	.data.b	1
00005742 0291      12543 	.data.b	145,2
00005744 5f4e4143  12544 	.data.b	67,65,78,95,73,78,68,73,86,73,68,85,65,76,95,80,82,79,67,69,83,83,73,78,71,32,83,84,68,95,79,70,70,0
00005748 49444e49 
0000574c 55444956 
00005750 505f4c41 
00005754 45434f52 

                                                                      Page 321
                                                              C:\Users\Fengyuan\AppData\Local\Temp\gh_0000p9o1.s
00005758 4e495353 
0000575c 54532047 
00005760 464f5f44 
00005764 0046 
00005766 01        12545 	.data.b	1
00005767 0294      12546 	.data.b	148,2
00005769 4e455f43  12547 	.data.b	67,95,69,78,65,66,76,69,95,79,83,69,75,95,79,83,95,73,78,84,67,65,84,50,32,0
0000576d 454c4241 
00005771 45534f5f 
00005775 534f5f4b 
00005779 544e495f 
0000577d 32544143 
00005781 0020 
00005783 01        12548 	.data.b	1
00005784 0296      12549 	.data.b	150,2
00005786 5f4e4143  12550 	.data.b	67,65,78,95,73,78,84,76,79,67,75,32,67,65,78,95,68,82,73,86,69,82,0
0000578a 4c544e49 
0000578e 204b434f 
00005792 5f4e4143 
00005796 56495244 
0000579a 005245 
0000579d 01        12551 	.data.b	1
0000579e 029c      12552 	.data.b	156,2
000057a0 5f4e4143  12553 	.data.b	67,65,78,95,77,85,76,84,73,80,76,69,88,69,68,95,84,82,65,78,83,77,73,83,83,73,79,78,32,83,84,68,95,79,70,70,0
000057a4 544c554d 
000057a8 454c5049 
000057ac 5f444558 
000057b0 4e415254 
000057b4 53494d53 
000057b8 4e4f4953 
000057bc 44545320 
000057c0 46464f5f 
000057c4 00 
000057c5 01        12554 	.data.b	1
000057c6 029d      12555 	.data.b	157,2
000057c8 5f4e4143  12556 	.data.b	67,65,78,95,72,87,95,84,82,65,78,83,77,73,84,95,67,65,78,67,69,76,76,65,84,73,79,78,32,83,84,68,95,79,70,70,0
000057cc 545f5748 
000057d0 534e4152 
000057d4 5f54494d 
000057d8 434e4143 
000057dc 414c4c45 
000057e0 4e4f4954 
000057e4 44545320 
000057e8 46464f5f 
000057ec 00 
000057ed 01        12557 	.data.b	1
000057ee 029f      12558 	.data.b	159,2
000057f0 5f4e4143  12559 	.data.b	67,65,78,95,77,85,76,84,73,80,76,69,95,66,65,83,73,67,67,65,78,95,84,88,32,83,84,68,95,79,70,70,0
000057f4 544c554d 
000057f8 454c5049 
000057fc 5341425f 
00005800 41434349 
00005804 58545f4e 
00005808 44545320 
0000580c 46464f5f 
00005810 00 
00005811 01        12560 	.data.b	1
00005812 02a2      12561 	.data.b	162,2
00005814 5f4e4143  12562 	.data.b	67,65,78,95,77,85,76,84,73,80,76,69,95,66,65,83,73,67,67,65,78,32,83,84,68,95,79,70,70,0
00005818 544c554d 
0000581c 454c5049 

                                                                      Page 322
                                                              C:\Users\Fengyuan\AppData\Local\Temp\gh_0000p9o1.s
00005820 5341425f 
00005824 41434349 
00005828 5453204e 
0000582c 464f5f44 
00005830 0046 
00005832 01        12563 	.data.b	1
00005833 02a3      12564 	.data.b	163,2
00005835 5f4e4143  12565 	.data.b	67,65,78,95,82,88,95,81,85,69,85,69,32,83,84,68,95,79,70,70,0
00005839 515f5852 
0000583d 45554555 
00005841 44545320 
00005845 46464f5f 
00005849 00 
0000584a 01        12566 	.data.b	1
0000584b 02a4      12567 	.data.b	164,2
0000584d 5f4e4143  12568 	.data.b	67,65,78,95,79,86,69,82,82,85,78,95,78,79,84,73,70,73,67,65,84,73,79,78,32,67,65,78,95,68,69,84,0
00005851 5245564f 
00005855 5f4e5552 
00005859 49544f4e 
0000585d 41434946 
00005861 4e4f4954 
00005865 4e414320 
00005869 5445445f 
0000586d 00 
0000586e 01        12569 	.data.b	1
0000586f 02a7      12570 	.data.b	167,2
00005871 5f4e4143  12571 	.data.b	67,65,78,95,83,76,69,69,80,95,83,85,80,80,79,82,84,32,83,84,68,95,79,70,70,0
00005875 45454c53 
00005879 55535f50 
0000587d 524f5050 
00005881 54532054 
00005885 464f5f44 
00005889 0046 
0000588b 01        12572 	.data.b	1
0000588c 02ab      12573 	.data.b	171,2
0000588e 5f4e4143  12574 	.data.b	67,65,78,95,72,65,82,68,87,65,82,69,95,67,65,78,67,69,76,76,65,84,73,79,78,32,83,84,68,95,79,70,70,0
00005892 44524148 
00005896 45524157 
0000589a 4e41435f 
0000589e 4c4c4543 
000058a2 4f495441 
000058a6 5453204e 
000058aa 464f5f44 
000058ae 0046 
000058b0 01        12575 	.data.b	1
000058b1 02ad      12576 	.data.b	173,2
000058b3 5f4e4143  12577 	.data.b	67,65,78,95,76,79,79,80,95,77,65,88,32,53,117,0
000058b7 504f4f4c 
000058bb 58414d5f 
000058bf 00753520 
000058c3 01        12578 	.data.b	1
000058c4 02b0      12579 	.data.b	176,2
000058c6 5f4e4143  12580 	.data.b	67,65,78,95,69,88,84,69,78,68,69,68,95,83,84,65,84,69,95,77,65,67,72,73,78,69,32,83,84,68,95,79,70,70,0
000058ca 45545845 
000058ce 4445444e 
000058d2 4154535f 
000058d6 4d5f4554 
000058da 49484341 
000058de 5320454e 
000058e2 4f5f4454 
000058e6 004646 

                                                                      Page 323
                                                              C:\Users\Fengyuan\AppData\Local\Temp\gh_0000p9o1.s
000058e9 01        12581 	.data.b	1
000058ea 02b1      12582 	.data.b	177,2
000058ec 5f4e4143  12583 	.data.b	67,65,78,95,66,85,83,79,70,70,95,83,85,80,80,79,82,84,95,65,80,73,32,83,84,68,95,79,70,70,0
000058f0 4f535542 
000058f4 535f4646 
000058f8 4f505055 
000058fc 415f5452 
00005900 53204950 
00005904 4f5f4454 
00005908 004646 
0000590b 01        12584 	.data.b	1
0000590c 02b2      12585 	.data.b	178,2
0000590e 5f4e4143  12586 	.data.b	67,65,78,95,72,87,95,76,79,79,80,95,83,85,80,80,79,82,84,95,65,80,73,32,83,84,68,95,79,70,70,0
00005912 4c5f5748 
00005916 5f504f4f 
0000591a 50505553 
0000591e 5f54524f 
00005922 20495041 
00005926 5f445453 
0000592a 0046464f 
0000592e 01        12587 	.data.b	1
0000592f 02b3      12588 	.data.b	179,2
00005931 5f4e4143  12589 	.data.b	67,65,78,95,71,69,78,69,82,73,67,95,80,82,69,67,79,80,89,32,83,84,68,95,79,70,70,0
00005935 454e4547 
00005939 5f434952 
0000593d 43455250 
00005941 2059504f 
00005945 5f445453 
00005949 0046464f 
0000594d 01        12590 	.data.b	1
0000594e 02b4      12591 	.data.b	180,2
00005950 5f4e4143  12592 	.data.b	67,65,78,95,71,69,78,69,82,73,67,95,67,79,78,70,73,82,77,65,84,73,79,78,32,83,84,68,95,79,70,70,0
00005954 454e4547 
00005958 5f434952 
0000595c 464e4f43 
00005960 414d5249 
00005964 4e4f4954 
00005968 44545320 
0000596c 46464f5f 
00005970 00 
00005971 01        12593 	.data.b	1
00005972 02b5      12594 	.data.b	181,2
00005974 5f4e4143  12595 	.data.b	67,65,78,95,71,69,78,69,82,73,67,95,80,82,69,84,82,65,78,83,77,73,84,32,83,84,68,95,79,70,70,0
00005978 454e4547 
0000597c 5f434952 
00005980 54455250 
00005984 534e4152 
00005988 2054494d 
0000598c 5f445453 
00005990 0046464f 
00005994 01        12596 	.data.b	1
00005995 02b6      12597 	.data.b	182,2
00005997 5f4e4143  12598 	.data.b	67,65,78,95,85,83,69,95,79,83,95,73,78,84,69,82,82,85,80,84,95,67,79,78,84,82,79,76,32,83,84,68,95,79,78,0
0000599b 5f455355 
0000599f 495f534f 
000059a3 5245544e 
000059a7 54505552 
000059ab 4e4f435f 
000059af 4c4f5254 
000059b3 44545320 
000059b7 004e4f5f 

                                                                      Page 324
                                                              C:\Users\Fengyuan\AppData\Local\Temp\gh_0000p9o1.s
000059bb 01        12599 	.data.b	1
000059bc 02b9      12600 	.data.b	185,2
000059be 5f4e4143  12601 	.data.b	67,65,78,95,82,88,95,70,85,76,76,67,65,78,95,79,66,74,69,67,84,83,32,83,84,68,95,79,70,70,0
000059c2 465f5852 
000059c6 434c4c55 
000059ca 4f5f4e41 
000059ce 43454a42 
000059d2 53205354 
000059d6 4f5f4454 
000059da 004646 
000059dd 01        12602 	.data.b	1
000059de 02ba      12603 	.data.b	186,2
000059e0 5f4e4143  12604 	.data.b	67,65,78,95,84,88,95,70,85,76,76,67,65,78,95,79,66,74,69,67,84,83,32,83,84,68,95,79,70,70,0
000059e4 465f5854 
000059e8 434c4c55 
000059ec 4f5f4e41 
000059f0 43454a42 
000059f4 53205354 
000059f8 4f5f4454 
000059fc 004646 
000059ff 01        12605 	.data.b	1
00005a00 02bb      12606 	.data.b	187,2
00005a02 5f4e4143  12607 	.data.b	67,65,78,95,82,88,95,66,65,83,73,67,67,65,78,95,79,66,74,69,67,84,83,32,83,84,68,95,79,78,0
00005a06 425f5852 
00005a0a 43495341 
00005a0e 5f4e4143 
00005a12 454a424f 
00005a16 20535443 
00005a1a 5f445453 
00005a1e 004e4f 
00005a21 01        12608 	.data.b	1
00005a22 02bc      12609 	.data.b	188,2
00005a24 5f4e4143  12610 	.data.b	67,65,78,95,69,88,84,69,78,68,69,68,95,73,68,32,83,84,68,95,79,70,70,0
00005a28 45545845 
00005a2c 4445444e 
00005a30 2044495f 
00005a34 5f445453 
00005a38 0046464f 
00005a3c 01        12611 	.data.b	1
00005a3d 02bd      12612 	.data.b	189,2
00005a3f 5f4e4143  12613 	.data.b	67,65,78,95,77,73,88,69,68,95,73,68,32,83,84,68,95,79,70,70,0
00005a43 4558494d 
00005a47 44495f44 
00005a4b 44545320 
00005a4f 46464f5f 
00005a53 00 
00005a54 01        12614 	.data.b	1
00005a55 02be      12615 	.data.b	190,2
00005a57 5f4e4143  12616 	.data.b	67,65,78,95,79,78,69,95,67,79,78,84,82,79,76,76,69,82,95,79,80,84,73,77,73,90,65,84,73,79,78,32,83,84,68,95,79,78,0
00005a5b 5f454e4f 
00005a5f 544e4f43 
00005a63 4c4c4f52 
00005a67 4f5f5245 
00005a6b 4d495450 
00005a6f 54415a49 
00005a73 204e4f49 
00005a77 5f445453 
00005a7b 004e4f 
00005a7e 01        12617 	.data.b	1
00005a7f 02bf      12618 	.data.b	191,2
00005a81 5f4e4143  12619 	.data.b	67,65,78,95,68,89,78,65,77,73,67,95,70,85,76,76,67,65,78,95,73,68,32,83,84,68,95,79,78,0

                                                                      Page 325
                                                              C:\Users\Fengyuan\AppData\Local\Temp\gh_0000p9o1.s
00005a85 414e5944 
00005a89 5f43494d 
00005a8d 4c4c5546 
00005a91 5f4e4143 
00005a95 53204449 
00005a99 4f5f4454 
00005a9d 004e 
00005a9f 01        12620 	.data.b	1
00005aa0 02c0      12621 	.data.b	192,2
00005aa2 5f4e4143  12622 	.data.b	67,65,78,95,83,69,67,85,82,69,95,84,69,77,80,95,66,85,70,70,69,82,32,83,84,68,95,79,70,70,0
00005aa6 55434553 
00005aaa 545f4552 
00005aae 5f504d45 
00005ab2 46465542 
00005ab6 53205245 
00005aba 4f5f4454 
00005abe 004646 
00005ac1 01        12623 	.data.b	1
00005ac2 02c2      12624 	.data.b	194,2
00005ac4 5f4e4143  12625 	.data.b	67,65,78,95,67,72,65,78,71,69,95,66,65,85,68,82,65,84,69,95,65,80,73,32,83,84,68,95,79,70,70,0
00005ac8 4e414843 
00005acc 425f4547 
00005ad0 52445541 
00005ad4 5f455441 
00005ad8 20495041 
00005adc 5f445453 
00005ae0 0046464f 
00005ae4 01        12626 	.data.b	1
00005ae5 02c5      12627 	.data.b	197,2
00005ae7 5f4e4143  12628 	.data.b	67,65,78,95,83,69,84,95,66,65,85,68,82,65,84,69,95,65,80,73,32,83,84,68,95,79,70,70,0
00005aeb 5f544553 
00005aef 44554142 
00005af3 45544152 
00005af7 4950415f 
00005afb 44545320 
00005aff 46464f5f 
00005b03 00 
00005b04 01        12629 	.data.b	1
00005b05 02c6      12630 	.data.b	198,2
00005b07 5f4e4143  12631 	.data.b	67,65,78,95,70,68,95,83,85,80,80,79,82,84,32,67,65,78,95,78,79,78,69,0
00005b0b 535f4446 
00005b0f 4f505055 
00005b13 43205452 
00005b17 4e5f4e41 
00005b1b 00454e4f 
00005b1f 01        12632 	.data.b	1
00005b20 02c9      12633 	.data.b	201,2
00005b22 5f4e4143  12634 	.data.b	67,65,78,95,77,85,76,84,73,95,69,67,85,95,67,79,78,70,73,71,32,83,84,68,95,79,70,70,0
00005b26 544c554d 
00005b2a 43455f49 
00005b2e 4f435f55 
00005b32 4749464e 
00005b36 44545320 
00005b3a 46464f5f 
00005b3e 00 
00005b3f 01        12635 	.data.b	1
00005b40 02ca      12636 	.data.b	202,2
00005b42 5f4e4143  12637 	.data.b	67,65,78,95,67,79,77,77,79,78,95,67,65,78,32,83,84,68,95,79,70,70,0
00005b46 4d4d4f43 
00005b4a 435f4e4f 
00005b4e 53204e41 

                                                                      Page 326
                                                              C:\Users\Fengyuan\AppData\Local\Temp\gh_0000p9o1.s
00005b52 4f5f4454 
00005b56 004646 
00005b59 01        12638 	.data.b	1
00005b5a 02cb      12639 	.data.b	203,2
00005b5c 5f4e4143  12640 	.data.b	67,65,78,95,80,65,82,84,73,65,76,95,78,69,84,87,79,82,75,32,83,84,68,95,79,70,70,0
00005b60 54524150 
00005b64 5f4c4149 
00005b68 5754454e 
00005b6c 204b524f 
00005b70 5f445453 
00005b74 0046464f 
00005b78 01        12641 	.data.b	1
00005b79 02cc      12642 	.data.b	204,2
00005b7b 5f4e4143  12643 	.data.b	67,65,78,95,82,65,77,95,67,72,69,67,75,32,67,65,78,95,78,79,78,69,0
00005b7f 5f4d4152 
00005b83 43454843 
00005b87 4143204b 
00005b8b 4f4e5f4e 
00005b8f 00454e 
00005b92 01        12644 	.data.b	1
00005b93 02ce      12645 	.data.b	206,2
00005b95 5f4e4143  12646 	.data.b	67,65,78,95,71,69,84,95,83,84,65,84,85,83,32,83,84,68,95,79,70,70,0
00005b99 5f544547 
00005b9d 54415453 
00005ba1 53205355 
00005ba5 4f5f4454 
00005ba9 004646 
00005bac 01        12647 	.data.b	1
00005bad 02d1      12648 	.data.b	209,2
00005baf 5f4e4143  12649 	.data.b	67,65,78,95,77,73,82,82,79,82,95,77,79,68,69,32,83,84,68,95,79,70,70,0
00005bb3 5252494d 
00005bb7 4d5f524f 
00005bbb 2045444f 
00005bbf 5f445453 
00005bc3 0046464f 
00005bc7 01        12650 	.data.b	1
00005bc8 02d2      12651 	.data.b	210,2
00005bca 5f4e4143  12652 	.data.b	67,65,78,95,83,73,76,69,78,84,95,77,79,68,69,32,83,84,68,95,79,70,70,0
00005bce 454c4953 
00005bd2 4d5f544e 
00005bd6 2045444f 
00005bda 5f445453 
00005bde 0046464f 
00005be2 01        12653 	.data.b	1
00005be3 06ab      12654 	.data.b	171,6
00005be5 5f6e6143  12655 	.data.b	67,97,110,95,67,111,110,102,105,103,95,80,116,114,32,78,85,76,76,95,80,84,82,0
00005be9 666e6f43 
00005bed 505f6769 
00005bf1 4e207274 
00005bf5 5f4c4c55 
00005bf9 00525450 
00005bfd 01        12656 	.data.b	1
00005bfe 06c4      12657 	.data.b	196,6
00005c00 5f4e4143  12658 	.data.b	67,65,78,95,85,83,69,95,69,67,85,77,95,66,83,87,95,69,82,82,79,82,95,72,79,79,75,32,83,84,68,95,79,70,70,0
00005c04 5f455355 
00005c08 4d554345 
00005c0c 5753425f 
00005c10 5252455f 
00005c14 485f524f 
00005c18 204b4f4f 
00005c1c 5f445453 

                                                                      Page 327
                                                              C:\Users\Fengyuan\AppData\Local\Temp\gh_0000p9o1.s
00005c20 0046464f 
00005c24 01        12659 	.data.b	1
00005c25 06c5      12660 	.data.b	197,6
00005c27 5f4e4143  12661 	.data.b	67,65,78,95,85,83,69,95,73,78,73,84,95,80,79,73,78,84,69,82,32,83,84,68,95,79,70,70,0
00005c2b 5f455355 
00005c2f 54494e49 
00005c33 494f505f 
00005c37 5245544e 
00005c3b 44545320 
00005c3f 46464f5f 
00005c43 00 
00005c44 03        12662 	.data.b	3
00005c45 0ce8      12663 	.data.b	232,12
00005c47 19        12664 	.data.b	25
00005c48 04        12665 	.data.b	4
00005c49 03        12666 	.data.b	3
00005c4a 0ced      12667 	.data.b	237,12
00005c4c 19        12668 	.data.b	25
00005c4d 04        12669 	.data.b	4
00005c4e 03        12670 	.data.b	3
00005c4f 0d96      12671 	.data.b	150,13
00005c51 19        12672 	.data.b	25
00005c52 04        12673 	.data.b	4
00005c53 03        12674 	.data.b	3
00005c54 0d9b      12675 	.data.b	155,13
00005c56 19        12676 	.data.b	25
00005c57 04        12677 	.data.b	4
00005c58 03        12678 	.data.b	3
00005c59 0dab      12679 	.data.b	171,13
00005c5b 19        12680 	.data.b	25
00005c5c 04        12681 	.data.b	4
00005c5d 03        12682 	.data.b	3
00005c5e 0db0      12683 	.data.b	176,13
00005c60 19        12684 	.data.b	25
00005c61 04        12685 	.data.b	4
00005c62 03        12686 	.data.b	3
00005c63 0dbc      12687 	.data.b	188,13
00005c65 19        12688 	.data.b	25
00005c66 04        12689 	.data.b	4
00005c67 03        12690 	.data.b	3
00005c68 0dc1      12691 	.data.b	193,13
00005c6a 19        12692 	.data.b	25
00005c6b 04        12693 	.data.b	4
00005c6c 03        12694 	.data.b	3
00005c6d 0dd1      12695 	.data.b	209,13
00005c6f 19        12696 	.data.b	25
00005c70 04        12697 	.data.b	4
00005c71 03        12698 	.data.b	3
00005c72 0dd6      12699 	.data.b	214,13
00005c74 19        12700 	.data.b	25
00005c75 04        12701 	.data.b	4
00005c76 03        12702 	.data.b	3
00005c77 0de2      12703 	.data.b	226,13
00005c79 19        12704 	.data.b	25
00005c7a 04        12705 	.data.b	4
00005c7b 03        12706 	.data.b	3
00005c7c 0de7      12707 	.data.b	231,13
00005c7e 19        12708 	.data.b	25
00005c7f 04        12709 	.data.b	4
00005c80 03        12710 	.data.b	3
00005c81 0df3      12711 	.data.b	243,13

                                                                      Page 328
                                                              C:\Users\Fengyuan\AppData\Local\Temp\gh_0000p9o1.s
00005c83 19        12712 	.data.b	25
00005c84 04        12713 	.data.b	4
00005c85 03        12714 	.data.b	3
00005c86 0df8      12715 	.data.b	248,13
00005c88 19        12716 	.data.b	25
00005c89 04        12717 	.data.b	4
00005c8a 03        12718 	.data.b	3
00005c8b 0e8c      12719 	.data.b	140,14
00005c8d 19        12720 	.data.b	25
00005c8e 04        12721 	.data.b	4
00005c8f 03        12722 	.data.b	3
00005c90 0e91      12723 	.data.b	145,14
00005c92 19        12724 	.data.b	25
00005c93 04        12725 	.data.b	4
00005c94 03        12726 	.data.b	3
00005c95 0e9d      12727 	.data.b	157,14
00005c97 19        12728 	.data.b	25
00005c98 04        12729 	.data.b	4
00005c99 03        12730 	.data.b	3
00005c9a 0ea2      12731 	.data.b	162,14
00005c9c 19        12732 	.data.b	25
00005c9d 04        12733 	.data.b	4
00005c9e 03        12734 	.data.b	3
00005c9f 0eb2      12735 	.data.b	178,14
00005ca1 19        12736 	.data.b	25
00005ca2 04        12737 	.data.b	4
00005ca3 03        12738 	.data.b	3
00005ca4 0eb7      12739 	.data.b	183,14
00005ca6 19        12740 	.data.b	25
00005ca7 04        12741 	.data.b	4
00005ca8 03        12742 	.data.b	3
00005ca9 0ecf      12743 	.data.b	207,14
00005cab 19        12744 	.data.b	25
00005cac 04        12745 	.data.b	4
00005cad 03        12746 	.data.b	3
00005cae 0ed4      12747 	.data.b	212,14
00005cb0 19        12748 	.data.b	25
00005cb1 04        12749 	.data.b	4
00005cb2 04        12750 	.data.b	4
00005cb3 01        12751 	.data.b	1
00005cb4 0487      12752 	.data.b	135,4
00005cb6 5f4e4143  12753 	.data.b	67,65,78,95,69,78,65,66,76,69,95,77,73,67,82,79,83,65,82,95,86,69,82,83,73,79,78,95,77,83,82,52,48,51,32,0
00005cba 42414e45 
00005cbe 4d5f454c 
00005cc2 4f524349 
00005cc6 5f524153 
00005cca 53524556 
00005cce 5f4e4f49 
00005cd2 3452534d 
00005cd6 00203330 
00005cda 01        12754 	.data.b	1
00005cdb 0488      12755 	.data.b	136,4
00005cdd 5f4e4143  12756 	.data.b	67,65,78,95,69,78,65,66,76,69,95,77,73,67,82,79,83,65,82,95,86,69,82,83,73,79,78,95,77,83,82,52,48,88,32,0
00005ce1 42414e45 
00005ce5 4d5f454c 
00005ce9 4f524349 
00005ced 5f524153 
00005cf1 53524556 
00005cf5 5f4e4f49 
00005cf9 3452534d 
00005cfd 00205830 

                                                                      Page 329
                                                              C:\Users\Fengyuan\AppData\Local\Temp\gh_0000p9o1.s
00005d01 01        12757 	.data.b	1
00005d02 05bc      12758 	.data.b	188,5
00005d04 4e455f43  12759 	.data.b	67,95,69,78,65,66,76,69,95,79,83,69,75,95,79,83,32,0
00005d08 454c4241 
00005d0c 45534f5f 
00005d10 534f5f4b 
00005d14 0020 
00005d16 01        12760 	.data.b	1
00005d17 05e4      12761 	.data.b	228,5
00005d19 4e455f43  12762 	.data.b	67,95,69,78,65,66,76,69,95,82,88,95,66,65,83,73,67,67,65,78,95,79,66,74,69,67,84,83,32,0
00005d1d 454c4241 
00005d21 5f58525f 
00005d25 49534142 
00005d29 4e414343 
00005d2d 4a424f5f 
00005d31 53544345 
00005d35 0020 
00005d37 01        12763 	.data.b	1
00005d38 06bf      12764 	.data.b	191,6
00005d3a 49535f43  12765 	.data.b	67,95,83,73,78,71,76,69,95,82,69,67,69,73,86,69,95,67,72,65,78,78,69,76,32,0
00005d3e 454c474e 
00005d42 4345525f 
00005d46 45564945 
00005d4a 4148435f 
00005d4e 4c454e4e 
00005d52 0020 
00005d54 01        12766 	.data.b	1
00005d55 06c6      12767 	.data.b	198,6
00005d57 5f4e4143  12768 	.data.b	67,65,78,95,72,87,95,67,72,65,78,78,69,76,95,67,65,78,84,89,80,69,95,79,78,76,89,32,118,111,105,100,0
00005d5b 435f5748 
00005d5f 4e4e4148 
00005d63 435f4c45 
00005d67 59544e41 
00005d6b 4f5f4550 
00005d6f 20594c4e 
00005d73 64696f76 
00005d77 00 
00005d78 01        12769 	.data.b	1
00005d79 07d8      12770 	.data.b	216,7
00005d7b 4f4e5f56  12771 	.data.b	86,95,78,79,78,69,32,0
00005d7f 0020454e 
00005d83 01        12772 	.data.b	1
00005d84 07ee      12773 	.data.b	238,7
00005d86 45445f56  12774 	.data.b	86,95,68,69,70,95,86,65,82,95,84,89,80,69,40,115,116,111,114,97,103,101,44,118,97,114,116,121,112,101,41,32,116,121,112,101,100,101,102,32,115,116,111,114,97,103,101,32,86,65,82,40,118,97,114,116,121,112,101,44
00005d8a 41565f46 
00005d8e 59545f52 
00005d92 73284550 
00005d96 61726f74 
00005d9a 762c6567 
00005d9e 79747261 
00005da2 20296570 
00005da6 65707974 
00005daa 20666564 
00005dae 726f7473 
00005db2 20656761 
00005db6 28524156 
00005dba 74726176 
00005dbe 2c657079 
00005dc2 50595420  12775 	.data.b	32,84,89,80,69,68,69,70,41,0
00005dc6 46454445 
00005dca 0029 

                                                                      Page 330
                                                              C:\Users\Fengyuan\AppData\Local\Temp\gh_0000p9o1.s
00005dcc 01        12776 	.data.b	1
00005dcd 07f0      12777 	.data.b	240,7
00005dcf 45445f56  12778 	.data.b	86,95,68,69,70,95,80,50,86,65,82,95,84,89,80,69,40,115,116,111,114,97,103,101,44,112,116,114,116,121,112,101,44,112,116,114,99,108,97,115,115,41,32,116,121,112,101,100,101,102,32,115,116,111,114,97,103,101,32,80
00005dd3 32505f46 
00005dd7 5f524156 
00005ddb 45505954 
00005ddf 6f747328 
00005de3 65676172 
00005de7 7274702c 
00005deb 65707974 
00005def 7274702c 
00005df3 73616c63 
00005df7 74202973 
00005dfb 64657079 
00005dff 73206665 
00005e03 61726f74 
00005e07 50206567 
00005e0b 52415632  12779 	.data.b	50,86,65,82,40,112,116,114,116,121,112,101,44,32,84,89,80,69,68,69,70,44,32,67,65,78,95,32,35,35,32,112,116,114,99,108,97,115,115,32,41,0
00005e0f 72747028 
00005e13 65707974 
00005e17 5954202c 
00005e1b 45444550 
00005e1f 43202c46 
00005e23 205f4e41 
00005e27 70202323 
00005e2b 6c637274 
00005e2f 20737361 
00005e33 0029 
00005e35 01        12780 	.data.b	1
00005e36 07f3      12781 	.data.b	243,7
00005e38 45445f56  12782 	.data.b	86,95,68,69,70,95,80,50,83,70,82,95,67,65,78,95,84,89,80,69,40,115,116,111,114,97,103,101,44,112,116,114,116,121,112,101,41,32,116,121,112,101,100,101,102,32,115,116,111,114,97,103,101,32,80,50,86,65,82,40
00005e3c 32505f46 
00005e40 5f524653 
00005e44 5f4e4143 
00005e48 45505954 
00005e4c 6f747328 
00005e50 65676172 
00005e54 7274702c 
00005e58 65707974 
00005e5c 79742029 
00005e60 65646570 
00005e64 74732066 
00005e68 6761726f 
00005e6c 32502065 
00005e70 28524156 
00005e74 74727470  12783 	.data.b	112,116,114,116,121,112,101,44,32,84,89,80,69,68,69,70,44,32,67,65,78,95,82,69,71,95,67,65,78,67,69,76,76,41,0
00005e78 2c657079 
00005e7c 50595420 
00005e80 46454445 
00005e84 4143202c 
00005e88 45525f4e 
00005e8c 41435f47 
00005e90 4c45434e 
00005e94 00294c 
00005e97 01        12784 	.data.b	1
00005e98 07f5      12785 	.data.b	245,7
00005e9a 45445f56  12786 	.data.b	86,95,68,69,70,95,67,79,78,83,84,40,115,116,111,114,97,103,101,44,116,121,112,101,44,109,101,109,99,108,97,115,115,41,32,115,116,111,114,97,103,101,32,67,79,78,83,84,40,116,121,112,101,44,32,67,65,78,95,32
00005e9e 4f435f46 
00005ea2 2854534e 
00005ea6 726f7473 
00005eaa 2c656761 

                                                                      Page 331
                                                              C:\Users\Fengyuan\AppData\Local\Temp\gh_0000p9o1.s
00005eae 65707974 
00005eb2 6d656d2c 
00005eb6 73616c63 
00005eba 73202973 
00005ebe 61726f74 
00005ec2 43206567 
00005ec6 54534e4f 
00005eca 70797428 
00005ece 43202c65 
00005ed2 205f4e41 
00005ed6 6d202323  12787 	.data.b	35,35,32,109,101,109,99,108,97,115,115,41,0
00005eda 6c636d65 
00005ede 29737361 
00005ee2 00 
00005ee3 01        12788 	.data.b	1
00005ee4 07f8      12789 	.data.b	248,7
00005ee6 45445f56  12790 	.data.b	86,95,68,69,70,95,80,50,67,79,78,83,84,95,84,89,80,69,40,115,116,111,114,97,103,101,44,112,116,114,116,121,112,101,44,112,116,114,99,108,97,115,115,41,32,116,121,112,101,100,101,102,32,115,116,111,114,97,103,101
00005eea 32505f46 
00005eee 534e4f43 
00005ef2 59545f54 
00005ef6 73284550 
00005efa 61726f74 
00005efe 702c6567 
00005f02 79747274 
00005f06 702c6570 
00005f0a 6c637274 
00005f0e 29737361 
00005f12 70797420 
00005f16 66656465 
00005f1a 6f747320 
00005f1e 65676172 
00005f22 43325020  12791 	.data.b	32,80,50,67,79,78,83,84,40,112,116,114,116,121,112,101,44,32,84,89,80,69,68,69,70,44,32,67,65,78,95,32,35,35,32,112,116,114,99,108,97,115,115,41,0
00005f26 54534e4f 
00005f2a 72747028 
00005f2e 65707974 
00005f32 5954202c 
00005f36 45444550 
00005f3a 43202c46 
00005f3e 205f4e41 
00005f42 70202323 
00005f46 6c637274 
00005f4a 29737361 
00005f4e 00 
00005f4f 01        12792 	.data.b	1
00005f50 07fc      12793 	.data.b	252,7
00005f52 45445f56  12794 	.data.b	86,95,68,69,70,95,70,85,78,67,40,115,116,111,114,97,103,101,44,114,101,116,116,121,112,101,44,109,101,109,99,108,97,115,115,41,32,115,116,111,114,97,103,101,32,70,85,78,67,40,114,101,116,116,121,112,101,44,32,67
00005f56 55465f46 
00005f5a 7328434e 
00005f5e 61726f74 
00005f62 722c6567 
00005f66 79747465 
00005f6a 6d2c6570 
00005f6e 6c636d65 
00005f72 29737361 
00005f76 6f747320 
00005f7a 65676172 
00005f7e 4e554620 
00005f82 65722843 
00005f86 70797474 
00005f8a 43202c65 
00005f8e 205f4e41  12795 	.data.b	65,78,95,32,35,35,32,109,101,109,99,108,97,115,115,41,0

                                                                      Page 332
                                                              C:\Users\Fengyuan\AppData\Local\Temp\gh_0000p9o1.s
00005f92 6d202323 
00005f96 6c636d65 
00005f9a 29737361 
00005f9e 00 
00005f9f 01        12796 	.data.b	1
00005fa0 07fd      12797 	.data.b	253,7
00005fa2 45445f56  12798 	.data.b	86,95,68,69,70,95,70,85,78,67,95,65,80,73,40,115,116,111,114,97,103,101,44,114,101,116,116,121,112,101,44,109,101,109,99,108,97,115,115,41,32,115,116,111,114,97,103,101,32,70,85,78,67,40,114,101,116,116,121,112
00005fa6 55465f46 
00005faa 415f434e 
00005fae 73284950 
00005fb2 61726f74 
00005fb6 722c6567 
00005fba 79747465 
00005fbe 6d2c6570 
00005fc2 6c636d65 
00005fc6 29737361 
00005fca 6f747320 
00005fce 65676172 
00005fd2 4e554620 
00005fd6 65722843 
00005fda 70797474 
00005fde 43202c65  12799 	.data.b	101,44,32,67,65,78,95,32,35,35,32,109,101,109,99,108,97,115,115,41,0
00005fe2 205f4e41 
00005fe6 6d202323 
00005fea 6c636d65 
00005fee 29737361 
00005ff2 00 
00005ff3 01        12800 	.data.b	1
00005ff4 0883      12801 	.data.b	131,8
00005ff6 5f4e4143  12802 	.data.b	67,65,78,95,72,76,95,78,79,95,86,95,68,69,70,32,0
00005ffa 4e5f4c48 
00005ffe 5f565f4f 
00006002 20464544 
00006006 00 
00006007 01        12803 	.data.b	1
00006008 0884      12804 	.data.b	132,8
0000600a 6e697576  12805 	.data.b	118,117,105,110,116,56,32,117,105,110,116,56,0
0000600e 75203874 
00006012 38746e69 
00006016 00 
00006017 01        12806 	.data.b	1
00006018 0887      12807 	.data.b	135,8
0000601a 6e697376  12808 	.data.b	118,115,105,110,116,56,32,115,105,110,116,56,0
0000601e 73203874 
00006022 38746e69 
00006026 00 
00006027 01        12809 	.data.b	1
00006028 088a      12810 	.data.b	138,8
0000602a 6e697576  12811 	.data.b	118,117,105,110,116,49,54,32,117,105,110,116,49,54,0
0000602e 20363174 
00006032 746e6975 
00006036 003631 
00006039 01        12812 	.data.b	1
0000603a 088d      12813 	.data.b	141,8
0000603c 6e697376  12814 	.data.b	118,115,105,110,116,49,54,32,115,105,110,116,49,54,0
00006040 20363174 
00006044 746e6973 
00006048 003631 
0000604b 01        12815 	.data.b	1
0000604c 0890      12816 	.data.b	144,8
0000604e 6e697576  12817 	.data.b	118,117,105,110,116,51,50,32,117,105,110,116,51,50,0

                                                                      Page 333
                                                              C:\Users\Fengyuan\AppData\Local\Temp\gh_0000p9o1.s
00006052 20323374 
00006056 746e6975 
0000605a 003233 
0000605d 01        12818 	.data.b	1
0000605e 0893      12819 	.data.b	147,8
00006060 6e697376  12820 	.data.b	118,115,105,110,116,51,50,32,115,105,110,116,51,50,0
00006064 20323374 
00006068 746e6973 
0000606c 003233 
0000606f 01        12821 	.data.b	1
00006070 08af      12822 	.data.b	175,8
00006072 4e455f43  12823 	.data.b	67,95,69,78,65,66,76,69,95,67,65,78,95,66,85,83,79,70,70,95,73,78,84,69,82,82,85,80,84,32,0
00006076 454c4241 
0000607a 4e41435f 
0000607e 5355425f 
00006082 5f46464f 
00006086 45544e49 
0000608a 50555252 
0000608e 002054 
00006091 01        12824 	.data.b	1
00006092 08b5      12825 	.data.b	181,8
00006094 4e455f43  12826 	.data.b	67,95,69,78,65,66,76,69,95,67,65,78,95,82,88,84,88,95,73,78,84,69,82,82,85,80,84,32,0
00006098 454c4241 
0000609c 4e41435f 
000060a0 5458525f 
000060a4 4e495f58 
000060a8 52524554 
000060ac 20545055 
000060b0 00 
000060b1 03        12827 	.data.b	3
000060b2 0bc6      12828 	.data.b	198,11
000060b4 19        12829 	.data.b	25
000060b5 04        12830 	.data.b	4
000060b6 01        12831 	.data.b	1
000060b7 0fe6      12832 	.data.b	230,15
000060b9 4e455f43  12833 	.data.b	67,95,69,78,65,66,76,69,95,73,83,82,95,80,82,79,84,79,84,89,80,69,32,0
000060bd 454c4241 
000060c1 5253495f 
000060c5 4f52505f 
000060c9 59544f54 
000060cd 00204550 
000060d1 03        12834 	.data.b	3
000060d2 1292      12835 	.data.b	146,18
000060d4 19        12836 	.data.b	25
000060d5 04        12837 	.data.b	4
000060d6 03        12838 	.data.b	3
000060d7 1295      12839 	.data.b	149,18
000060d9 19        12840 	.data.b	25
000060da 04        12841 	.data.b	4
000060db 03        12842 	.data.b	3
000060dc 14e5      12843 	.data.b	229,20
000060de 19        12844 	.data.b	25
000060df 04        12845 	.data.b	4
000060e0 04        12846 	.data.b	4
000060e1 03        12847 	.data.b	3
000060e2 2d        12848 	.data.b	45
000060e3 7f        12849 	.data.b	127
000060e4 03        12850 	.data.b	3
000060e5 01ab      12851 	.data.b	171,1
000060e7 0180      12852 	.data.b	128,1
000060e9 01        12853 	.data.b	1

                                                                      Page 334
                                                              C:\Users\Fengyuan\AppData\Local\Temp\gh_0000p9o1.s
000060ea 48        12854 	.data.b	72
000060eb 494e4143  12855 	.data.b	67,65,78,73,70,95,83,84,65,84,73,67,95,70,68,95,84,88,81,85,69,85,69,32,83,84,68,95,79,70,70,0
000060ef 54535f46 
000060f3 43495441 
000060f7 5f44465f 
000060fb 55515854 
000060ff 20455545 
00006103 5f445453 
00006107 0046464f 
0000610b 01        12856 	.data.b	1
0000610c 49        12857 	.data.b	73
0000610d 494e4143  12858 	.data.b	67,65,78,73,70,95,87,65,75,69,85,80,95,83,85,80,80,79,82,84,32,83,84,68,95,79,70,70,0
00006111 41575f46 
00006115 5055454b 
00006119 5055535f 
0000611d 54524f50 
00006121 44545320 
00006125 46464f5f 
00006129 00 
0000612a 01        12859 	.data.b	1
0000612b 4a        12860 	.data.b	74
0000612c 494e4143  12861 	.data.b	67,65,78,73,70,95,87,65,75,69,85,80,95,86,65,76,73,68,65,84,73,79,78,32,83,84,68,95,79,70,70,0
00006130 41575f46 
00006134 5055454b 
00006138 4c41565f 
0000613c 54414449 
00006140 204e4f49 
00006144 5f445453 
00006148 0046464f 
0000614c 01        12862 	.data.b	1
0000614d 4d        12863 	.data.b	77
0000614e 494e4143  12864 	.data.b	67,65,78,73,70,95,68,69,86,95,69,82,82,79,82,95,68,69,84,69,67,84,32,83,84,68,95,79,78,0
00006152 45445f46 
00006156 52455f56 
0000615a 5f524f52 
0000615e 45544544 
00006162 53205443 
00006166 4f5f4454 
0000616a 004e 
0000616c 01        12865 	.data.b	1
0000616d 50        12866 	.data.b	80
0000616e 494e4143  12867 	.data.b	67,65,78,73,70,95,67,65,78,67,69,76,95,83,85,80,80,79,82,84,95,65,80,73,32,83,84,68,95,79,70,70,0
00006172 41435f46 
00006176 4c45434e 
0000617a 5055535f 
0000617e 54524f50 
00006182 4950415f 
00006186 44545320 
0000618a 46464f5f 
0000618e 00 
0000618f 01        12868 	.data.b	1
00006190 51        12869 	.data.b	81
00006191 494e4143  12870 	.data.b	67,65,78,73,70,95,86,69,82,83,73,79,78,95,73,78,70,79,95,65,80,73,32,83,84,68,95,79,70,70,0
00006195 45565f46 
00006199 4f495352 
0000619d 4e495f4e 
000061a1 415f4f46 
000061a5 53204950 
000061a9 4f5f4454 
000061ad 004646 
000061b0 01        12871 	.data.b	1

                                                                      Page 335
                                                              C:\Users\Fengyuan\AppData\Local\Temp\gh_0000p9o1.s
000061b1 54        12872 	.data.b	84
000061b2 494e4143  12873 	.data.b	67,65,78,73,70,95,84,82,67,86,95,72,65,78,68,76,73,78,71,32,83,84,68,95,79,70,70,0
000061b6 52545f46 
000061ba 485f5643 
000061be 4c444e41 
000061c2 20474e49 
000061c6 5f445453 
000061ca 0046464f 
000061ce 01        12874 	.data.b	1
000061cf 56        12875 	.data.b	86
000061d0 494e4143  12876 	.data.b	67,65,78,73,70,95,80,78,95,84,82,67,86,95,72,65,78,68,76,73,78,71,32,83,84,68,95,79,70,70,0
000061d4 4e505f46 
000061d8 4352545f 
000061dc 41485f56 
000061e0 494c444e 
000061e4 5320474e 
000061e8 4f5f4454 
000061ec 004646 
000061ef 01        12877 	.data.b	1
000061f0 59        12878 	.data.b	89
000061f1 494e4143  12879 	.data.b	67,65,78,73,70,95,83,69,84,68,89,78,65,77,73,67,84,88,73,68,95,65,80,73,32,83,84,68,95,79,70,70,0
000061f5 45535f46 
000061f9 4e594454 
000061fd 43494d41 
00006201 44495854 
00006205 4950415f 
00006209 44545320 
0000620d 46464f5f 
00006211 00 
00006212 01        12880 	.data.b	1
00006213 5a        12881 	.data.b	90
00006214 494e4143  12882 	.data.b	67,65,78,73,70,95,80,78,95,87,85,95,84,88,95,80,68,85,95,70,73,76,84,69,82,32,83,84,68,95,79,70,70,0
00006218 4e505f46 
0000621c 5f55575f 
00006220 505f5854 
00006224 465f5544 
00006228 45544c49 
0000622c 54532052 
00006230 464f5f44 
00006234 0046 
00006236 01        12883 	.data.b	1
00006237 5b        12884 	.data.b	91
00006238 494e4143  12885 	.data.b	67,65,78,73,70,95,80,85,66,76,73,67,95,84,88,95,67,79,78,70,73,82,77,95,80,79,76,76,73,78,71,95,83,85,80,80,79,82,84,32,83,84,68,95,79,70,70,0
0000623c 55505f46 
00006240 43494c42 
00006244 5f58545f 
00006248 464e4f43 
0000624c 5f4d5249 
00006250 4c4c4f50 
00006254 5f474e49 
00006258 50505553 
0000625c 2054524f 
00006260 5f445453 
00006264 0046464f 
00006268 01        12886 	.data.b	1
00006269 5e        12887 	.data.b	94
0000626a 494e4143  12888 	.data.b	67,65,78,73,70,95,67,72,65,78,71,69,95,66,65,85,68,82,65,84,69,95,83,85,80,80,79,82,84,32,83,84,68,95,79,70,70,0
0000626e 48435f46 
00006272 45474e41 
00006276 5541425f 
0000627a 54415244 

                                                                      Page 336
                                                              C:\Users\Fengyuan\AppData\Local\Temp\gh_0000p9o1.s
0000627e 55535f45 
00006282 524f5050 
00006286 54532054 
0000628a 464f5f44 
0000628e 0046 
00006290 01        12889 	.data.b	1
00006291 5f        12890 	.data.b	95
00006292 494e4143  12891 	.data.b	67,65,78,73,70,95,83,69,84,95,66,65,85,68,82,65,84,69,95,65,80,73,32,83,84,68,95,79,70,70,0
00006296 45535f46 
0000629a 41425f54 
0000629e 41524455 
000062a2 415f4554 
000062a6 53204950 
000062aa 4f5f4454 
000062ae 004646 
000062b1 01        12892 	.data.b	1
000062b2 60        12893 	.data.b	96
000062b3 494e4143  12894 	.data.b	67,65,78,73,70,95,77,69,84,65,95,68,65,84,65,95,82,88,95,83,85,80,80,79,82,84,32,83,84,68,95,79,70,70,0
000062b7 454d5f46 
000062bb 445f4154 
000062bf 5f415441 
000062c3 535f5852 
000062c7 4f505055 
000062cb 53205452 
000062cf 4f5f4454 
000062d3 004646 
000062d6 01        12895 	.data.b	1
000062d7 61        12896 	.data.b	97
000062d8 494e4143  12897 	.data.b	67,65,78,73,70,95,77,69,84,65,95,68,65,84,65,95,84,88,95,83,85,80,80,79,82,84,32,83,84,68,95,79,70,70,0
000062dc 454d5f46 
000062e0 445f4154 
000062e4 5f415441 
000062e8 535f5854 
000062ec 4f505055 
000062f0 53205452 
000062f4 4f5f4454 
000062f8 004646 
000062fb 01        12898 	.data.b	1
000062fc 62        12899 	.data.b	98
000062fd 494e4143  12900 	.data.b	67,65,78,73,70,95,74,49,57,51,57,95,68,89,78,95,65,68,68,82,95,83,85,80,80,79,82,84,32,67,65,78,73,70,95,74,49,57,51,57,95,68,89,78,95,65,68,68,82,95,68,73,83,65,66,76,69,68,0
00006301 314a5f46 
00006305 5f393339 
00006309 5f4e5944 
0000630d 52444441 
00006311 5055535f 
00006315 54524f50 
00006319 4e414320 
0000631d 4a5f4649 
00006321 39333931 
00006325 4e59445f 
00006329 4444415f 
0000632d 49445f52 
00006331 4c424153 
00006335 004445 
00006338 01        12901 	.data.b	1
00006339 63        12902 	.data.b	99
0000633a 494e4143  12903 	.data.b	67,65,78,73,70,95,77,85,76,84,73,80,76,69,95,67,65,78,68,82,86,95,83,85,80,80,79,82,84,32,83,84,68,95,79,70,70,0
0000633e 554d5f46 
00006342 5049544c 
00006346 435f454c 
0000634a 52444e41 

                                                                      Page 337
                                                              C:\Users\Fengyuan\AppData\Local\Temp\gh_0000p9o1.s
0000634e 55535f56 
00006352 524f5050 
00006356 54532054 
0000635a 464f5f44 
0000635e 0046 
00006360 01        12904 	.data.b	1
00006361 64        12905 	.data.b	100
00006362 494e4143  12906 	.data.b	67,65,78,73,70,95,82,88,95,83,69,65,82,67,72,95,67,79,78,83,73,68,69,82,95,77,83,71,95,84,89,80,69,32,83,84,68,95,79,70,70,0
00006366 58525f46 
0000636a 4145535f 
0000636e 5f484352 
00006372 534e4f43 
00006376 52454449 
0000637a 47534d5f 
0000637e 5059545f 
00006382 54532045 
00006386 464f5f44 
0000638a 0046 
0000638c 01        12907 	.data.b	1
0000638d 66        12908 	.data.b	102
0000638e 494e4143  12909 	.data.b	67,65,78,73,70,95,69,88,84,69,78,68,69,68,95,82,65,77,95,67,72,69,67,75,95,83,85,80,80,79,82,84,32,83,84,68,95,79,70,70,0
00006392 58455f46 
00006396 444e4554 
0000639a 525f4445 
0000639e 435f4d41 
000063a2 4b434548 
000063a6 5055535f 
000063aa 54524f50 
000063ae 44545320 
000063b2 46464f5f 
000063b6 00 
000063b7 01        12910 	.data.b	1
000063b8 67        12911 	.data.b	103
000063b9 494e4143  12912 	.data.b	67,65,78,73,70,95,68,65,84,65,95,67,72,69,67,75,83,85,77,95,82,88,95,83,85,80,80,79,82,84,32,83,84,68,95,79,70,70,0
000063bd 41445f46 
000063c1 435f4154 
000063c5 4b434548 
000063c9 5f4d5553 
000063cd 535f5852 
000063d1 4f505055 
000063d5 53205452 
000063d9 4f5f4454 
000063dd 004646 
000063e0 01        12913 	.data.b	1
000063e1 68        12914 	.data.b	104
000063e2 494e4143  12915 	.data.b	67,65,78,73,70,95,68,65,84,65,95,67,72,69,67,75,83,85,77,95,84,88,95,83,85,80,80,79,82,84,32,83,84,68,95,79,70,70,0
000063e6 41445f46 
000063ea 435f4154 
000063ee 4b434548 
000063f2 5f4d5553 
000063f6 535f5854 
000063fa 4f505055 
000063fe 53205452 
00006402 4f5f4454 
00006406 004646 
00006409 01        12916 	.data.b	1
0000640a 69        12917 	.data.b	105
0000640b 494e4143  12918 	.data.b	67,65,78,73,70,95,83,69,84,95,80,68,85,95,82,69,67,69,80,84,73,79,78,95,77,79,68,69,95,83,85,80,80,79,82,84,32,83,84,68,95,79,70,70,0
0000640f 45535f46 
00006413 44505f54 
00006417 45525f55 

                                                                      Page 338
                                                              C:\Users\Fengyuan\AppData\Local\Temp\gh_0000p9o1.s
0000641b 54504543 
0000641f 5f4e4f49 
00006423 45444f4d 
00006427 5055535f 
0000642b 54524f50 
0000642f 44545320 
00006433 46464f5f 
00006437 00 
00006438 01        12919 	.data.b	1
00006439 019e      12920 	.data.b	158,1
0000643b 494e4143  12921 	.data.b	67,65,78,73,70,95,83,69,65,82,67,72,95,65,76,71,79,82,73,84,72,77,32,67,65,78,73,70,95,76,73,78,69,65,82,0
0000643f 45535f46 
00006443 48435241 
00006447 474c415f 
0000644b 5449524f 
0000644f 43204d48 
00006453 46494e41 
00006457 4e494c5f 
0000645b 00524145 
0000645f 01        12922 	.data.b	1
00006460 01a4      12923 	.data.b	164,1
00006462 494e4143  12924 	.data.b	67,65,78,73,70,95,67,79,78,70,73,71,95,86,65,82,73,65,78,84,32,67,65,78,73,70,95,67,70,71,86,65,82,95,80,82,69,67,79,77,80,73,76,69,84,73,77,69,0
00006466 4f435f46 
0000646a 4749464e 
0000646e 5241565f 
00006472 544e4149 
00006476 4e414320 
0000647a 435f4649 
0000647e 41564746 
00006482 52505f52 
00006486 4d4f4345 
0000648a 454c4950 
0000648e 454d4954 
00006492 00 
00006493 03        12925 	.data.b	3
00006494 01b4      12926 	.data.b	180,1
00006496 0181      12927 	.data.b	129,1
00006498 01        12928 	.data.b	1
00006499 49        12929 	.data.b	73
0000649a 494e4143  12930 	.data.b	67,65,78,73,70,95,67,70,71,86,65,82,95,80,82,69,67,79,77,80,73,76,69,84,73,77,69,32,49,117,0
0000649e 46435f46 
000064a2 52415647 
000064a6 4552505f 
000064aa 504d4f43 
000064ae 54454c49 
000064b2 20454d49 
000064b6 007531 
000064b9 01        12931 	.data.b	1
000064ba 4b        12932 	.data.b	75
000064bb 494e4143  12933 	.data.b	67,65,78,73,70,95,67,70,71,86,65,82,95,80,79,83,84,66,85,73,76,68,84,73,77,69,32,51,117,0
000064bf 46435f46 
000064c3 52415647 
000064c7 534f505f 
000064cb 49554254 
000064cf 4954444c 
000064d3 3320454d 
000064d7 0075 
000064d9 01        12934 	.data.b	1
000064da 01c8      12935 	.data.b	200,1
000064dc 494e4143  12936 	.data.b	67,65,78,73,70,95,74,49,57,51,57,95,68,89,78,95,65,68,68,82,95,68,73,83,65,66,76,69,68,32,48,117,0
000064e0 314a5f46 

                                                                      Page 339
                                                              C:\Users\Fengyuan\AppData\Local\Temp\gh_0000p9o1.s
000064e4 5f393339 
000064e8 5f4e5944 
000064ec 52444441 
000064f0 5349445f 
000064f4 454c4241 
000064f8 75302044 
000064fc 00 
000064fd 01        12937 	.data.b	1
000064fe 01cd      12938 	.data.b	205,1
00006500 494e4143  12939 	.data.b	67,65,78,73,70,95,83,84,65,84,73,67,95,66,85,70,70,69,82,95,83,73,90,69,32,56,117,0
00006504 54535f46 
00006508 43495441 
0000650c 4655425f 
00006510 5f524546 
00006514 455a4953 
00006518 00753820 
0000651c 01        12940 	.data.b	1
0000651d 02a0      12941 	.data.b	160,2
0000651f 496e6143  12942 	.data.b	67,97,110,73,102,95,72,119,72,97,110,100,108,101,84,121,112,101,32,67,97,110,95,72,119,72,97,110,100,108,101,84,121,112,101,0
00006523 77485f66 
00006527 646e6148 
0000652b 7954656c 
0000652f 43206570 
00006533 485f6e61 
00006537 6e614877 
0000653b 54656c64 
0000653f 00657079 
00006543 04        12943 	.data.b	4
00006544 01        12944 	.data.b	1
00006545 04c7      12945 	.data.b	199,4
00006547 496e6143  12946 	.data.b	67,97,110,73,102,95,67,111,110,102,105,103,95,80,116,114,32,78,85,76,76,95,80,84,82,0
0000654b 6f435f66 
0000654f 6769666e 
00006553 7274505f 
00006557 4c554e20 
0000655b 54505f4c 
0000655f 0052 
00006561 01        12947 	.data.b	1
00006562 04e1      12948 	.data.b	225,4
00006564 494e4143  12949 	.data.b	67,65,78,73,70,95,85,83,69,95,73,78,73,84,95,80,79,73,78,84,69,82,32,83,84,68,95,79,70,70,0
00006568 53555f46 
0000656c 4e495f45 
00006570 505f5449 
00006574 544e494f 
00006578 53205245 
0000657c 4f5f4454 
00006580 004646 
00006583 03        12950 	.data.b	3
00006584 0ad0      12951 	.data.b	208,10
00006586 19        12952 	.data.b	25
00006587 04        12953 	.data.b	4
00006588 03        12954 	.data.b	3
00006589 0ad5      12955 	.data.b	213,10
0000658b 19        12956 	.data.b	25
0000658c 04        12957 	.data.b	4
0000658d 03        12958 	.data.b	3
0000658e 0ae5      12959 	.data.b	229,10
00006590 19        12960 	.data.b	25
00006591 04        12961 	.data.b	4
00006592 03        12962 	.data.b	3
00006593 0aea      12963 	.data.b	234,10

                                                                      Page 340
                                                              C:\Users\Fengyuan\AppData\Local\Temp\gh_0000p9o1.s
00006595 19        12964 	.data.b	25
00006596 04        12965 	.data.b	4
00006597 03        12966 	.data.b	3
00006598 0af2      12967 	.data.b	242,10
0000659a 19        12968 	.data.b	25
0000659b 04        12969 	.data.b	4
0000659c 03        12970 	.data.b	3
0000659d 0af7      12971 	.data.b	247,10
0000659f 19        12972 	.data.b	25
000065a0 04        12973 	.data.b	4
000065a1 03        12974 	.data.b	3
000065a2 0b8b      12975 	.data.b	139,11
000065a4 19        12976 	.data.b	25
000065a5 04        12977 	.data.b	4
000065a6 03        12978 	.data.b	3
000065a7 0b90      12979 	.data.b	144,11
000065a9 19        12980 	.data.b	25
000065aa 04        12981 	.data.b	4
000065ab 03        12982 	.data.b	3
000065ac 0b9f      12983 	.data.b	159,11
000065ae 19        12984 	.data.b	25
000065af 04        12985 	.data.b	4
000065b0 03        12986 	.data.b	3
000065b1 0ba4      12987 	.data.b	164,11
000065b3 19        12988 	.data.b	25
000065b4 04        12989 	.data.b	4
000065b5 03        12990 	.data.b	3
000065b6 0bb4      12991 	.data.b	180,11
000065b8 19        12992 	.data.b	25
000065b9 04        12993 	.data.b	4
000065ba 03        12994 	.data.b	3
000065bb 0bb9      12995 	.data.b	185,11
000065bd 19        12996 	.data.b	25
000065be 04        12997 	.data.b	4
000065bf 03        12998 	.data.b	3
000065c0 0bcc      12999 	.data.b	204,11
000065c2 19        13000 	.data.b	25
000065c3 04        13001 	.data.b	4
000065c4 03        13002 	.data.b	3
000065c5 0bd1      13003 	.data.b	209,11
000065c7 19        13004 	.data.b	25
000065c8 04        13005 	.data.b	4
000065c9 03        13006 	.data.b	3
000065ca 0be3      13007 	.data.b	227,11
000065cc 19        13008 	.data.b	25
000065cd 04        13009 	.data.b	4
000065ce 03        13010 	.data.b	3
000065cf 0be8      13011 	.data.b	232,11
000065d1 19        13012 	.data.b	25
000065d2 04        13013 	.data.b	4
000065d3 03        13014 	.data.b	3
000065d4 0bf7      13015 	.data.b	247,11
000065d6 19        13016 	.data.b	25
000065d7 04        13017 	.data.b	4
000065d8 03        13018 	.data.b	3
000065d9 0bfc      13019 	.data.b	252,11
000065db 19        13020 	.data.b	25
000065dc 04        13021 	.data.b	4
000065dd 03        13022 	.data.b	3
000065de 0c88      13023 	.data.b	136,12
000065e0 19        13024 	.data.b	25

                                                                      Page 341
                                                              C:\Users\Fengyuan\AppData\Local\Temp\gh_0000p9o1.s
000065e1 04        13025 	.data.b	4
000065e2 03        13026 	.data.b	3
000065e3 0c8d      13027 	.data.b	141,12
000065e5 19        13028 	.data.b	25
000065e6 04        13029 	.data.b	4
000065e7 03        13030 	.data.b	3
000065e8 0ca1      13031 	.data.b	161,12
000065ea 19        13032 	.data.b	25
000065eb 04        13033 	.data.b	4
000065ec 03        13034 	.data.b	3
000065ed 0ca6      13035 	.data.b	166,12
000065ef 19        13036 	.data.b	25
000065f0 04        13037 	.data.b	4
000065f1 03        13038 	.data.b	3
000065f2 0cb5      13039 	.data.b	181,12
000065f4 19        13040 	.data.b	25
000065f5 04        13041 	.data.b	4
000065f6 03        13042 	.data.b	3
000065f7 0cba      13043 	.data.b	186,12
000065f9 19        13044 	.data.b	25
000065fa 04        13045 	.data.b	4
000065fb 03        13046 	.data.b	3
000065fc 0cc9      13047 	.data.b	201,12
000065fe 19        13048 	.data.b	25
000065ff 04        13049 	.data.b	4
00006600 03        13050 	.data.b	3
00006601 0cce      13051 	.data.b	206,12
00006603 19        13052 	.data.b	25
00006604 04        13053 	.data.b	4
00006605 03        13054 	.data.b	3
00006606 0cda      13055 	.data.b	218,12
00006608 19        13056 	.data.b	25
00006609 04        13057 	.data.b	4
0000660a 03        13058 	.data.b	3
0000660b 0cdf      13059 	.data.b	223,12
0000660d 19        13060 	.data.b	25
0000660e 04        13061 	.data.b	4
0000660f 03        13062 	.data.b	3
00006610 0ceb      13063 	.data.b	235,12
00006612 19        13064 	.data.b	25
00006613 04        13065 	.data.b	4
00006614 03        13066 	.data.b	3
00006615 0cf0      13067 	.data.b	240,12
00006617 19        13068 	.data.b	25
00006618 04        13069 	.data.b	4
00006619 04        13070 	.data.b	4
0000661a 03        13071 	.data.b	3
0000661b 01e6      13072 	.data.b	230,1
0000661d 19        13073 	.data.b	25
0000661e 04        13074 	.data.b	4
0000661f 03        13075 	.data.b	3
00006620 06ed      13076 	.data.b	237,6
00006622 19        13077 	.data.b	25
00006623 04        13078 	.data.b	4
00006624 03        13079 	.data.b	3
00006625 06f3      13080 	.data.b	243,6
00006627 19        13081 	.data.b	25
00006628 04        13082 	.data.b	4
00006629 03        13083 	.data.b	3
0000662a 06fa      13084 	.data.b	250,6
0000662c 19        13085 	.data.b	25

                                                                      Page 342
                                                              C:\Users\Fengyuan\AppData\Local\Temp\gh_0000p9o1.s
0000662d 04        13086 	.data.b	4
0000662e 04        13087 	.data.b	4
0000662f 03        13088 	.data.b	3
00006630 2e        13089 	.data.b	46
00006631 0182      13090 	.data.b	130,1
00006633 03        13091 	.data.b	3
00006634 01dd      13092 	.data.b	221,1
00006636 0183      13093 	.data.b	131,1
00006638 03        13094 	.data.b	3
00006639 2c        13095 	.data.b	44
0000663a 0184      13096 	.data.b	132,1
0000663c 04        13097 	.data.b	4
0000663d 03        13098 	.data.b	3
0000663e 32        13099 	.data.b	50
0000663f 0185      13100 	.data.b	133,1
00006641 03        13101 	.data.b	3
00006642 69        13102 	.data.b	105
00006643 0186      13103 	.data.b	134,1
00006645 03        13104 	.data.b	3
00006646 26        13105 	.data.b	38
00006647 0187      13106 	.data.b	135,1
00006649 01        13107 	.data.b	1
0000664a 5d        13108 	.data.b	93
0000664b 544e4143  13109 	.data.b	67,65,78,84,80,95,86,69,82,83,73,79,78,95,73,78,70,79,95,65,80,73,32,83,84,68,95,79,70,70,0
0000664f 45565f50 
00006653 4f495352 
00006657 4e495f4e 
0000665b 415f4f46 
0000665f 53204950 
00006663 4f5f4454 
00006667 004646 
0000666a 01        13110 	.data.b	1
0000666b 60        13111 	.data.b	96
0000666c 544e4143  13112 	.data.b	67,65,78,84,80,95,84,67,32,83,84,68,95,79,70,70,0
00006670 43545f50 
00006674 44545320 
00006678 46464f5f 
0000667c 00 
0000667d 01        13113 	.data.b	1
0000667e 61        13114 	.data.b	97
0000667f 544e4143  13115 	.data.b	67,65,78,84,80,95,82,67,32,83,84,68,95,79,70,70,0
00006683 43525f50 
00006687 44545320 
0000668b 46464f5f 
0000668f 00 
00006690 01        13116 	.data.b	1
00006691 66        13117 	.data.b	102
00006692 544e4143  13118 	.data.b	67,65,78,84,80,95,77,65,88,95,70,82,65,77,69,95,76,69,78,71,84,72,32,56,0
00006696 414d5f50 
0000669a 52465f58 
0000669e 5f454d41 
000066a2 474e454c 
000066a6 38204854 
000066aa 00 
000066ab 01        13119 	.data.b	1
000066ac 67        13120 	.data.b	103
000066ad 544e4143  13121 	.data.b	67,65,78,84,80,95,77,65,88,95,80,65,89,76,79,65,68,95,76,69,78,71,84,72,32,55,0
000066b1 414d5f50 
000066b5 41505f58 
000066b9 414f4c59 
000066bd 454c5f44 

                                                                      Page 343
                                                              C:\Users\Fengyuan\AppData\Local\Temp\gh_0000p9o1.s
000066c1 4854474e 
000066c5 003720 
000066c8 01        13122 	.data.b	1
000066c9 0187      13123 	.data.b	135,1
000066cb 544e4143  13124 	.data.b	67,65,78,84,80,95,82,88,84,88,95,77,65,73,78,70,85,78,67,84,73,79,78,95,65,80,73,32,83,84,68,95,79,70,70,0
000066cf 58525f50 
000066d3 4d5f5854 
000066d7 464e4941 
000066db 54434e55 
000066df 5f4e4f49 
000066e3 20495041 
000066e7 5f445453 
000066eb 0046464f 
000066ef 01        13125 	.data.b	1
000066f0 018a      13126 	.data.b	138,1
000066f2 544e4143  13127 	.data.b	67,65,78,84,80,95,85,83,69,95,79,78,76,89,95,70,73,82,83,84,95,70,67,32,83,84,68,95,79,78,0
000066f6 53555f50 
000066fa 4e4f5f45 
000066fe 465f594c 
00006702 54535249 
00006706 2043465f 
0000670a 5f445453 
0000670e 004e4f 
00006711 01        13128 	.data.b	1
00006712 018b      13129 	.data.b	139,1
00006714 544e4143  13130 	.data.b	67,65,78,84,80,95,69,78,65,66,76,69,95,67,72,65,78,71,69,95,80,65,82,65,77,32,83,84,68,95,79,70,70,0
00006718 4e455f50 
0000671c 454c4241 
00006720 4148435f 
00006724 5f45474e 
00006728 41524150 
0000672c 5453204d 
00006730 464f5f44 
00006734 0046 
00006736 01        13131 	.data.b	1
00006737 018c      13132 	.data.b	140,1
00006739 544e4143  13133 	.data.b	67,65,78,84,80,95,69,78,65,66,76,69,95,82,69,65,68,95,80,65,82,65,77,32,83,84,68,95,79,70,70,0
0000673d 4e455f50 
00006741 454c4241 
00006745 4145525f 
00006749 41505f44 
0000674d 204d4152 
00006751 5f445453 
00006755 0046464f 
00006759 01        13134 	.data.b	1
0000675a 018d      13135 	.data.b	141,1
0000675c 544e4143  13136 	.data.b	67,65,78,84,80,95,79,78,76,89,95,78,79,84,73,70,89,95,73,78,70,79,82,77,69,68,95,65,80,80,76,32,83,84,68,95,79,78,0
00006760 4e4f5f50 
00006764 4e5f594c 
00006768 4649544f 
0000676c 4e495f59 
00006770 4d524f46 
00006774 415f4445 
00006778 204c5050 
0000677c 5f445453 
00006780 004e4f 
00006783 01        13137 	.data.b	1
00006784 0190      13138 	.data.b	144,1
00006786 544e4143  13139 	.data.b	67,65,78,84,80,95,80,68,85,82,95,65,80,73,95,65,82,95,86,69,82,83,73,79,78,32,48,120,52,49,50,0
0000678a 44505f50 
0000678e 415f5255 

                                                                      Page 344
                                                              C:\Users\Fengyuan\AppData\Local\Temp\gh_0000p9o1.s
00006792 415f4950 
00006796 45565f52 
0000679a 4f495352 
0000679e 7830204e 
000067a2 00323134 
000067a6 01        13140 	.data.b	1
000067a7 0193      13141 	.data.b	147,1
000067a9 544e4143  13142 	.data.b	67,65,78,84,80,95,83,84,77,73,78,95,66,89,95,65,80,80,76,32,83,84,68,95,79,70,70,0
000067ad 54535f50 
000067b1 5f4e494d 
000067b5 415f5942 
000067b9 204c5050 
000067bd 5f445453 
000067c1 0046464f 
000067c5 01        13143 	.data.b	1
000067c6 04ac      13144 	.data.b	172,4
000067c8 546e6143  13145 	.data.b	67,97,110,84,112,95,67,111,110,102,105,103,95,80,116,114,32,78,85,76,76,95,80,84,82,0
000067cc 6f435f70 
000067d0 6769666e 
000067d4 7274505f 
000067d8 4c554e20 
000067dc 54505f4c 
000067e0 0052 
000067e2 01        13146 	.data.b	1
000067e3 04c6      13147 	.data.b	198,4
000067e5 544e4143  13148 	.data.b	67,65,78,84,80,95,85,83,69,95,73,78,73,84,95,80,79,73,78,84,69,82,32,83,84,68,95,79,70,70,0
000067e9 53555f50 
000067ed 4e495f45 
000067f1 505f5449 
000067f5 544e494f 
000067f9 53205245 
000067fd 4f5f4454 
00006801 004646 
00006804 04        13149 	.data.b	4
00006805 01        13150 	.data.b	1
00006806 38        13151 	.data.b	56
00006807 544e4143  13152 	.data.b	67,65,78,84,80,95,80,68,85,82,95,65,80,73,95,52,48,51,95,69,78,65,66,76,69,68,32,83,84,68,95,79,70,70,0
0000680b 44505f50 
0000680f 415f5255 
00006813 345f4950 
00006817 455f3330 
0000681b 4c42414e 
0000681f 53204445 
00006823 4f5f4454 
00006827 004646 
0000682a 01        13153 	.data.b	1
0000682b 44        13154 	.data.b	68
0000682c 544e4143  13155 	.data.b	67,65,78,84,80,95,84,88,95,81,85,69,85,69,95,83,73,90,69,32,52,0
00006830 58545f50 
00006834 4555515f 
00006838 535f4555 
0000683c 20455a49 
00006840 0034 
00006842 04        13156 	.data.b	4
00006843 03        13157 	.data.b	3
00006844 6c        13158 	.data.b	108
00006845 0188      13159 	.data.b	136,1
00006847 03        13160 	.data.b	3
00006848 0392      13161 	.data.b	146,3
0000684a 19        13162 	.data.b	25
0000684b 04        13163 	.data.b	4

                                                                      Page 345
                                                              C:\Users\Fengyuan\AppData\Local\Temp\gh_0000p9o1.s
0000684c 03        13164 	.data.b	3
0000684d 0397      13165 	.data.b	151,3
0000684f 19        13166 	.data.b	25
00006850 04        13167 	.data.b	4
00006851 03        13168 	.data.b	3
00006852 03ad      13169 	.data.b	173,3
00006854 19        13170 	.data.b	25
00006855 04        13171 	.data.b	4
00006856 03        13172 	.data.b	3
00006857 03b2      13173 	.data.b	178,3
00006859 19        13174 	.data.b	25
0000685a 04        13175 	.data.b	4
0000685b 03        13176 	.data.b	3
0000685c 03be      13177 	.data.b	190,3
0000685e 19        13178 	.data.b	25
0000685f 04        13179 	.data.b	4
00006860 03        13180 	.data.b	3
00006861 03c3      13181 	.data.b	195,3
00006863 19        13182 	.data.b	25
00006864 04        13183 	.data.b	4
00006865 03        13184 	.data.b	3
00006866 03d1      13185 	.data.b	209,3
00006868 19        13186 	.data.b	25
00006869 04        13187 	.data.b	4
0000686a 03        13188 	.data.b	3
0000686b 03d6      13189 	.data.b	214,3
0000686d 19        13190 	.data.b	25
0000686e 04        13191 	.data.b	4
0000686f 03        13192 	.data.b	3
00006870 03de      13193 	.data.b	222,3
00006872 19        13194 	.data.b	25
00006873 04        13195 	.data.b	4
00006874 03        13196 	.data.b	3
00006875 03e3      13197 	.data.b	227,3
00006877 19        13198 	.data.b	25
00006878 04        13199 	.data.b	4
00006879 03        13200 	.data.b	3
0000687a 03eb      13201 	.data.b	235,3
0000687c 19        13202 	.data.b	25
0000687d 04        13203 	.data.b	4
0000687e 03        13204 	.data.b	3
0000687f 03f0      13205 	.data.b	240,3
00006881 19        13206 	.data.b	25
00006882 04        13207 	.data.b	4
00006883 03        13208 	.data.b	3
00006884 03f8      13209 	.data.b	248,3
00006886 19        13210 	.data.b	25
00006887 04        13211 	.data.b	4
00006888 03        13212 	.data.b	3
00006889 03fd      13213 	.data.b	253,3
0000688b 19        13214 	.data.b	25
0000688c 04        13215 	.data.b	4
0000688d 03        13216 	.data.b	3
0000688e 0485      13217 	.data.b	133,4
00006890 19        13218 	.data.b	25
00006891 04        13219 	.data.b	4
00006892 03        13220 	.data.b	3
00006893 048a      13221 	.data.b	138,4
00006895 19        13222 	.data.b	25
00006896 04        13223 	.data.b	4
00006897 04        13224 	.data.b	4

                                                                      Page 346
                                                              C:\Users\Fengyuan\AppData\Local\Temp\gh_0000p9o1.s
00006898 03        13225 	.data.b	3
00006899 6d        13226 	.data.b	109
0000689a 0189      13227 	.data.b	137,1
0000689c 04        13228 	.data.b	4
0000689d 03        13229 	.data.b	3
0000689e 028f      13230 	.data.b	143,2
000068a0 19        13231 	.data.b	25
000068a1 04        13232 	.data.b	4
000068a2 03        13233 	.data.b	3
000068a3 03ce      13234 	.data.b	206,3
000068a5 19        13235 	.data.b	25
000068a6 04        13236 	.data.b	4
000068a7 04        13237 	.data.b	4
000068a8 01        13238 	.data.b	1
000068a9 6c        13239 	.data.b	108
000068aa 52554450  13240 	.data.b	80,68,85,82,95,68,69,70,69,82,82,69,68,69,86,69,78,84,67,65,67,72,69,82,79,77,32,83,84,68,95,79,70,70,0
000068ae 4645445f 
000068b2 45525245 
000068b6 45564544 
000068ba 4143544e 
000068be 52454843 
000068c2 53204d4f 
000068c6 4f5f4454 
000068ca 004646 
000068cd 01        13241 	.data.b	1
000068ce 75        13242 	.data.b	117
000068cf 52554450  13243 	.data.b	80,68,85,82,95,70,77,70,73,70,79,69,76,69,77,69,78,84,82,65,77,32,83,84,68,95,79,70,70,0
000068d3 464d465f 
000068d7 454f4649 
000068db 454d454c 
000068df 4152544e 
000068e3 5453204d 
000068e7 464f5f44 
000068eb 0046 
000068ed 01        13244 	.data.b	1
000068ee 7e        13245 	.data.b	126
000068ef 52554450  13246 	.data.b	80,68,85,82,95,70,77,70,73,70,79,82,65,77,32,83,84,68,95,79,70,70,0
000068f3 464d465f 
000068f7 524f4649 
000068fb 53204d41 
000068ff 4f5f4454 
00006903 004646 
00006906 01        13247 	.data.b	1
00006907 01b0      13248 	.data.b	176,1
00006909 52554450  13249 	.data.b	80,68,85,82,95,67,65,78,67,69,76,82,69,67,69,73,86,69,83,85,80,80,79,82,84,69,68,79,70,77,77,82,79,77,32,83,84,68,95,79,70,70,0
0000690d 4e41435f 
00006911 524c4543 
00006915 49454345 
00006919 55534556 
0000691d 524f5050 
00006921 4f444554 
00006925 524d4d46 
00006929 53204d4f 
0000692d 4f5f4454 
00006931 004646 
00006934 01        13250 	.data.b	1
00006935 01b1      13251 	.data.b	177,1
00006937 52554450  13252 	.data.b	80,68,85,82,95,67,72,65,78,71,69,80,65,82,65,77,69,84,69,82,83,85,80,80,79,82,84,69,68,79,70,77,77,82,79,77,32,83,84,68,95,79,70,70,0
0000693b 4148435f 
0000693f 5045474e 
00006943 4d415241 

                                                                      Page 347
                                                              C:\Users\Fengyuan\AppData\Local\Temp\gh_0000p9o1.s
00006947 52455445 
0000694b 50505553 
0000694f 4554524f 
00006953 4d464f44 
00006957 4d4f524d 
0000695b 44545320 
0000695f 46464f5f 
00006963 00 
00006964 01        13253 	.data.b	1
00006965 01b3      13254 	.data.b	179,1
00006967 52554450  13255 	.data.b	80,68,85,82,95,73,70,67,65,78,67,69,76,84,82,65,78,83,77,73,84,83,85,80,80,79,82,84,69,68,79,70,77,77,82,79,77,32,83,84,68,95,79,70,70,0
0000696b 4346495f 
0000696f 45434e41 
00006973 4152544c 
00006977 494d534e 
0000697b 50555354 
0000697f 54524f50 
00006983 464f4445 
00006987 4f524d4d 
0000698b 5453204d 
0000698f 464f5f44 
00006993 0046 
00006995 01        13256 	.data.b	1
00006996 01c0      13257 	.data.b	192,1
00006998 52554450  13258 	.data.b	80,68,85,82,95,84,80,67,65,78,67,69,76,84,82,65,78,83,77,73,84,83,85,80,80,79,82,84,69,68,79,70,77,77,82,79,77,32,83,84,68,95,79,70,70,0
0000699c 4350545f 
000069a0 45434e41 
000069a4 4152544c 
000069a8 494d534e 
000069ac 50555354 
000069b0 54524f50 
000069b4 464f4445 
000069b8 4f524d4d 
000069bc 5453204d 
000069c0 464f5f44 
000069c4 0046 
000069c6 01        13259 	.data.b	1
000069c7 01e5      13260 	.data.b	229,1
000069c9 52554450  13261 	.data.b	80,68,85,82,95,82,77,68,69,83,84,82,79,77,32,83,84,68,95,79,78,0
000069cd 444d525f 
000069d1 52545345 
000069d5 53204d4f 
000069d9 4f5f4454 
000069dd 004e 
000069df 01        13262 	.data.b	1
000069e0 0282      13263 	.data.b	130,2
000069e2 52554450  13264 	.data.b	80,68,85,82,95,82,77,71,68,69,83,84,78,84,79,49,73,78,70,79,82,65,77,73,68,88,79,70,82,77,71,68,69,83,84,82,79,77,32,83,84,68,95,79,70,70,0
000069e6 474d525f 
000069ea 54534544 
000069ee 314f544e 
000069f2 4f464e49 
000069f6 494d4152 
000069fa 464f5844 
000069fe 44474d52 
00006a02 52545345 
00006a06 53204d4f 
00006a0a 4f5f4454 
00006a0e 004646 
00006a11 01        13265 	.data.b	1
00006a12 028e      13266 	.data.b	142,2
00006a14 52554450  13267 	.data.b	80,68,85,82,95,82,77,83,82,67,82,79,77,32,83,84,68,95,79,78,0

                                                                      Page 348
                                                              C:\Users\Fengyuan\AppData\Local\Temp\gh_0000p9o1.s
00006a18 534d525f 
00006a1c 4f524352 
00006a20 5453204d 
00006a24 4e4f5f44 
00006a28 00 
00006a29 01        13268 	.data.b	1
00006a2a 0299      13269 	.data.b	153,2
00006a2c 52554450  13270 	.data.b	80,68,85,82,95,84,82,73,71,71,69,82,84,82,65,78,83,77,73,84,83,85,80,80,79,82,84,69,68,79,70,82,77,83,82,67,82,79,77,32,83,84,68,95,79,70,70,0
00006a30 4952545f 
00006a34 52454747 
00006a38 4e415254 
00006a3c 54494d53 
00006a40 50505553 
00006a44 4554524f 
00006a48 52464f44 
00006a4c 4352534d 
00006a50 204d4f52 
00006a54 5f445453 
00006a58 0046464f 
00006a5c 01        13271 	.data.b	1
00006a5d 02b1      13272 	.data.b	177,2
00006a5f 52554450  13273 	.data.b	80,68,85,82,95,82,80,71,82,79,77,32,83,84,68,95,79,70,70,0
00006a63 4750525f 
00006a67 204d4f52 
00006a6b 5f445453 
00006a6f 0046464f 
00006a73 01        13274 	.data.b	1
00006a74 02b7      13275 	.data.b	183,2
00006a76 52554450  13276 	.data.b	80,68,85,82,95,82,88,73,70,50,68,69,83,84,32,83,84,68,95,79,78,0
00006a7a 4958525f 
00006a7e 45443246 
00006a82 53205453 
00006a86 4f5f4454 
00006a8a 004e 
00006a8c 01        13277 	.data.b	1
00006a8d 02bb      13278 	.data.b	187,2
00006a8f 52554450  13279 	.data.b	80,68,85,82,95,82,88,84,80,50,68,69,83,84,32,83,84,68,95,79,78,0
00006a93 5458525f 
00006a97 45443250 
00006a9b 53205453 
00006a9f 4f5f4454 
00006aa3 004e 
00006aa5 01        13280 	.data.b	1
00006aa6 02d2      13281 	.data.b	210,2
00006aa8 52554450  13282 	.data.b	80,68,85,82,95,83,77,68,65,84,65,80,76,65,78,69,82,79,77,32,83,84,68,95,79,70,70,0
00006aac 444d535f 
00006ab0 50415441 
00006ab4 454e414c 
00006ab8 204d4f52 
00006abc 5f445453 
00006ac0 0046464f 
00006ac4 01        13283 	.data.b	1
00006ac5 02fb      13284 	.data.b	251,2
00006ac7 52554450  13285 	.data.b	80,68,85,82,95,84,88,50,76,79,32,83,84,68,95,79,78,0
00006acb 3258545f 
00006acf 53204f4c 
00006ad3 4f5f4454 
00006ad7 004e 
00006ad9 01        13286 	.data.b	1
00006ada 0386      13287 	.data.b	134,3
00006adc 52554450  13288 	.data.b	80,68,85,82,95,84,88,67,79,78,70,73,82,77,65,84,73,79,78,85,83,69,68,79,70,84,88,73,70,50,85,80,32,83,84,68,95,79,78,0

                                                                      Page 349
                                                              C:\Users\Fengyuan\AppData\Local\Temp\gh_0000p9o1.s
00006ae0 4358545f 
00006ae4 49464e4f 
00006ae8 54414d52 
00006aec 554e4f49 
00006af0 4f444553 
00006af4 49585446 
00006af8 50553246 
00006afc 44545320 
00006b00 004e4f5f 
00006b04 01        13289 	.data.b	1
00006b05 0387      13290 	.data.b	135,3
00006b07 52554450  13291 	.data.b	80,68,85,82,95,84,88,84,80,50,83,82,67,32,83,84,68,95,79,78,0
00006b0b 5458545f 
00006b0f 52533250 
00006b13 54532043 
00006b17 4e4f5f44 
00006b1b 00 
00006b1c 01        13292 	.data.b	1
00006b1d 03d7      13293 	.data.b	215,3
00006b1f 52554450  13294 	.data.b	80,68,85,82,95,69,88,73,83,84,83,95,84,95,84,95,83,73,78,71,76,69,95,66,85,70,70,69,82,95,70,73,70,79,84,89,80,69,79,70,82,77,66,85,70,70,69,82,69,68,73,70,80,82,79,80,69,82,84,73
00006b23 4958455f 
00006b27 5f535453 
00006b2b 5f545f54 
00006b2f 474e4953 
00006b33 425f454c 
00006b37 45464655 
00006b3b 49465f52 
00006b3f 59544f46 
00006b43 464f4550 
00006b47 55424d52 
00006b4b 52454646 
00006b4f 46494445 
00006b53 504f5250 
00006b57 49545245 
00006b5b 4f525345  13295 	.data.b	69,83,82,79,77,32,83,84,68,95,79,70,70,0
00006b5f 5453204d 
00006b63 464f5f44 
00006b67 0046 
00006b69 01        13296 	.data.b	1
00006b6a 03d8      13297 	.data.b	216,3
00006b6c 52554450  13298 	.data.b	80,68,85,82,95,69,88,73,83,84,83,95,84,95,84,95,70,73,70,79,95,66,85,70,70,69,82,95,70,73,70,79,84,89,80,69,79,70,82,77,66,85,70,70,69,82,69,68,73,70,80,82,79,80,69,82,84,73,69,83
00006b70 4958455f 
00006b74 5f535453 
00006b78 5f545f54 
00006b7c 4f464946 
00006b80 4655425f 
00006b84 5f524546 
00006b88 4f464946 
00006b8c 45505954 
00006b90 4d52464f 
00006b94 46465542 
00006b98 44455245 
00006b9c 52504649 
00006ba0 5245504f 
00006ba4 53454954 
00006ba8 204d4f52  13299 	.data.b	82,79,77,32,83,84,68,95,79,70,70,0
00006bac 5f445453 
00006bb0 0046464f 
00006bb4 01        13300 	.data.b	1
00006bb5 03df      13301 	.data.b	223,3
00006bb7 52554450  13302 	.data.b	80,68,85,82,95,69,88,73,83,84,83,95,73,70,95,66,85,70,70,69,82,69,68,95,82,79,85,84,73,78,71,84,89,80,69,79,70,82,77,68,69,83,84,82,79,77,32,83,84,68,95,79,70,70,0

                                                                      Page 350
                                                              C:\Users\Fengyuan\AppData\Local\Temp\gh_0000p9o1.s
00006bbb 4958455f 
00006bbf 5f535453 
00006bc3 425f4649 
00006bc7 45464655 
00006bcb 5f444552 
00006bcf 54554f52 
00006bd3 54474e49 
00006bd7 4f455059 
00006bdb 444d5246 
00006bdf 52545345 
00006be3 53204d4f 
00006be7 4f5f4454 
00006beb 004646 
00006bee 01        13303 	.data.b	1
00006bef 03e2      13304 	.data.b	226,3
00006bf1 52554450  13305 	.data.b	80,68,85,82,95,69,88,73,83,84,83,95,84,80,95,66,85,70,70,69,82,69,68,95,82,79,85,84,73,78,71,84,89,80,69,79,70,82,77,68,69,83,84,82,79,77,32,83,84,68,95,79,70,70,0
00006bf5 4958455f 
00006bf9 5f535453 
00006bfd 425f5054 
00006c01 45464655 
00006c05 5f444552 
00006c09 54554f52 
00006c0d 54474e49 
00006c11 4f455059 
00006c15 444d5246 
00006c19 52545345 
00006c1d 53204d4f 
00006c21 4f5f4454 
00006c25 004646 
00006c28 01        13306 	.data.b	1
00006c29 05b1      13307 	.data.b	177,5
00006c2b 52756450  13308 	.data.b	80,100,117,82,95,67,111,110,102,105,103,95,80,116,114,32,78,85,76,76,95,80,84,82,0
00006c2f 6e6f435f 
00006c33 5f676966 
00006c37 20727450 
00006c3b 4c4c554e 
00006c3f 5254505f 
00006c43 00 
00006c44 01        13309 	.data.b	1
00006c45 05cb      13310 	.data.b	203,5
00006c47 52554450  13311 	.data.b	80,68,85,82,95,85,83,69,95,73,78,73,84,95,80,79,73,78,84,69,82,32,83,84,68,95,79,70,70,0
00006c4b 4553555f 
00006c4f 494e495f 
00006c53 4f505f54 
00006c57 45544e49 
00006c5b 54532052 
00006c5f 464f5f44 
00006c63 0046 
00006c65 03        13312 	.data.b	3
00006c66 0cb9      13313 	.data.b	185,12
00006c68 19        13314 	.data.b	25
00006c69 04        13315 	.data.b	4
00006c6a 03        13316 	.data.b	3
00006c6b 0cbe      13317 	.data.b	190,12
00006c6d 19        13318 	.data.b	25
00006c6e 04        13319 	.data.b	4
00006c6f 03        13320 	.data.b	3
00006c70 0cd0      13321 	.data.b	208,12
00006c72 19        13322 	.data.b	25
00006c73 04        13323 	.data.b	4
00006c74 03        13324 	.data.b	3

                                                                      Page 351
                                                              C:\Users\Fengyuan\AppData\Local\Temp\gh_0000p9o1.s
00006c75 0cd5      13325 	.data.b	213,12
00006c77 19        13326 	.data.b	25
00006c78 04        13327 	.data.b	4
00006c79 03        13328 	.data.b	3
00006c7a 0cef      13329 	.data.b	239,12
00006c7c 19        13330 	.data.b	25
00006c7d 04        13331 	.data.b	4
00006c7e 03        13332 	.data.b	3
00006c7f 0cf4      13333 	.data.b	244,12
00006c81 19        13334 	.data.b	25
00006c82 04        13335 	.data.b	4
00006c83 03        13336 	.data.b	3
00006c84 0d85      13337 	.data.b	133,13
00006c86 19        13338 	.data.b	25
00006c87 04        13339 	.data.b	4
00006c88 03        13340 	.data.b	3
00006c89 0d8a      13341 	.data.b	138,13
00006c8b 19        13342 	.data.b	25
00006c8c 04        13343 	.data.b	4
00006c8d 03        13344 	.data.b	3
00006c8e 0d9d      13345 	.data.b	157,13
00006c90 19        13346 	.data.b	25
00006c91 04        13347 	.data.b	4
00006c92 03        13348 	.data.b	3
00006c93 0da2      13349 	.data.b	162,13
00006c95 19        13350 	.data.b	25
00006c96 04        13351 	.data.b	4
00006c97 03        13352 	.data.b	3
00006c98 0db4      13353 	.data.b	180,13
00006c9a 19        13354 	.data.b	25
00006c9b 04        13355 	.data.b	4
00006c9c 03        13356 	.data.b	3
00006c9d 0db9      13357 	.data.b	185,13
00006c9f 19        13358 	.data.b	25
00006ca0 04        13359 	.data.b	4
00006ca1 03        13360 	.data.b	3
00006ca2 0dc5      13361 	.data.b	197,13
00006ca4 19        13362 	.data.b	25
00006ca5 04        13363 	.data.b	4
00006ca6 03        13364 	.data.b	3
00006ca7 0dca      13365 	.data.b	202,13
00006ca9 19        13366 	.data.b	25
00006caa 04        13367 	.data.b	4
00006cab 03        13368 	.data.b	3
00006cac 0dd9      13369 	.data.b	217,13
00006cae 19        13370 	.data.b	25
00006caf 04        13371 	.data.b	4
00006cb0 03        13372 	.data.b	3
00006cb1 0dde      13373 	.data.b	222,13
00006cb3 19        13374 	.data.b	25
00006cb4 04        13375 	.data.b	4
00006cb5 03        13376 	.data.b	3
00006cb6 0ded      13377 	.data.b	237,13
00006cb8 19        13378 	.data.b	25
00006cb9 04        13379 	.data.b	4
00006cba 03        13380 	.data.b	3
00006cbb 0df2      13381 	.data.b	242,13
00006cbd 19        13382 	.data.b	25
00006cbe 04        13383 	.data.b	4
00006cbf 03        13384 	.data.b	3
00006cc0 0dfe      13385 	.data.b	254,13

                                                                      Page 352
                                                              C:\Users\Fengyuan\AppData\Local\Temp\gh_0000p9o1.s
00006cc2 19        13386 	.data.b	25
00006cc3 04        13387 	.data.b	4
00006cc4 03        13388 	.data.b	3
00006cc5 0e83      13389 	.data.b	131,14
00006cc7 19        13390 	.data.b	25
00006cc8 04        13391 	.data.b	4
00006cc9 03        13392 	.data.b	3
00006cca 0e8e      13393 	.data.b	142,14
00006ccc 19        13394 	.data.b	25
00006ccd 04        13395 	.data.b	4
00006cce 03        13396 	.data.b	3
00006ccf 0e95      13397 	.data.b	149,14
00006cd1 19        13398 	.data.b	25
00006cd2 04        13399 	.data.b	4
00006cd3 04        13400 	.data.b	4
00006cd4 03        13401 	.data.b	3
00006cd5 0485      13402 	.data.b	133,4
00006cd7 19        13403 	.data.b	25
00006cd8 04        13404 	.data.b	4
00006cd9 03        13405 	.data.b	3
00006cda 0891      13406 	.data.b	145,8
00006cdc 19        13407 	.data.b	25
00006cdd 04        13408 	.data.b	4
00006cde 04        13409 	.data.b	4
00006cdf 03        13410 	.data.b	3
00006ce0 2f        13411 	.data.b	47
00006ce1 018a      13412 	.data.b	138,1
00006ce3 03        13413 	.data.b	3
00006ce4 26        13414 	.data.b	38
00006ce5 018b      13415 	.data.b	139,1
00006ce7 03        13416 	.data.b	3
00006ce8 61        13417 	.data.b	97
00006ce9 018c      13418 	.data.b	140,1
00006ceb 03        13419 	.data.b	3
00006cec 28        13420 	.data.b	40
00006ced 018d      13421 	.data.b	141,1
00006cef 04        13422 	.data.b	4
00006cf0 01        13423 	.data.b	1
00006cf1 31        13424 	.data.b	49
00006cf2 534e4143  13425 	.data.b	67,65,78,83,77,95,86,69,82,83,73,79,78,95,73,78,70,79,95,65,80,73,32,83,84,68,95,79,70,70,0
00006cf6 45565f4d 
00006cfa 4f495352 
00006cfe 4e495f4e 
00006d02 415f4f46 
00006d06 53204950 
00006d0a 4f5f4454 
00006d0e 004646 
00006d11 01        13426 	.data.b	1
00006d12 33        13427 	.data.b	51
00006d13 534e4143  13428 	.data.b	67,65,78,83,77,95,66,79,82,95,67,72,69,67,75,95,76,69,86,69,76,32,83,84,68,95,79,70,70,0
00006d17 4f425f4d 
00006d1b 48435f52 
00006d1f 5f4b4345 
00006d23 4556454c 
00006d27 5453204c 
00006d2b 464f5f44 
00006d2f 0046 
00006d31 01        13429 	.data.b	1
00006d32 38        13430 	.data.b	56
00006d33 534e4143  13431 	.data.b	67,65,78,83,77,95,69,67,85,95,80,65,83,83,73,86,69,95,77,79,68,69,32,83,84,68,95,79,70,70,0
00006d37 43455f4d 

                                                                      Page 353
                                                              C:\Users\Fengyuan\AppData\Local\Temp\gh_0000p9o1.s
00006d3b 41505f55 
00006d3f 56495353 
00006d43 4f4d5f45 
00006d47 53204544 
00006d4b 4f5f4454 
00006d4f 004646 
00006d52 01        13432 	.data.b	1
00006d53 39        13433 	.data.b	57
00006d54 534e4143  13434 	.data.b	67,65,78,83,77,95,80,82,69,86,69,78,84,95,66,85,83,83,76,69,69,80,95,65,84,95,83,84,65,82,84,85,80,32,83,84,68,95,79,70,70,0
00006d58 52505f4d 
00006d5c 4e455645 
00006d60 55425f54 
00006d64 454c5353 
00006d68 415f5045 
00006d6c 54535f54 
00006d70 55545241 
00006d74 54532050 
00006d78 464f5f44 
00006d7c 0046 
00006d7e 01        13435 	.data.b	1
00006d7f 3c        13436 	.data.b	60
00006d80 534e4143  13437 	.data.b	67,65,78,83,77,95,69,88,84,69,78,68,69,68,95,82,65,77,95,67,72,69,67,75,32,83,84,68,95,79,70,70,0
00006d84 58455f4d 
00006d88 444e4554 
00006d8c 525f4445 
00006d90 435f4d41 
00006d94 4b434548 
00006d98 44545320 
00006d9c 46464f5f 
00006da0 00 
00006da1 01        13438 	.data.b	1
00006da2 03a8      13439 	.data.b	168,3
00006da4 536e6143  13440 	.data.b	67,97,110,83,77,95,67,111,110,102,105,103,95,80,116,114,32,78,85,76,76,95,80,84,82,0
00006da8 6f435f4d 
00006dac 6769666e 
00006db0 7274505f 
00006db4 4c554e20 
00006db8 54505f4c 
00006dbc 0052 
00006dbe 03        13441 	.data.b	3
00006dbf 04df      13442 	.data.b	223,4
00006dc1 19        13443 	.data.b	25
00006dc2 04        13444 	.data.b	4
00006dc3 03        13445 	.data.b	3
00006dc4 04e4      13446 	.data.b	228,4
00006dc6 19        13447 	.data.b	25
00006dc7 04        13448 	.data.b	4
00006dc8 04        13449 	.data.b	4
00006dc9 03        13450 	.data.b	3
00006dca 01e0      13451 	.data.b	224,1
00006dcc 19        13452 	.data.b	25
00006dcd 04        13453 	.data.b	4
00006dce 03        13454 	.data.b	3
00006dcf 03aa      13455 	.data.b	170,3
00006dd1 19        13456 	.data.b	25
00006dd2 04        13457 	.data.b	4
00006dd3 04        13458 	.data.b	4
00006dd4 03        13459 	.data.b	3
00006dd5 43        13460 	.data.b	67
00006dd6 19        13461 	.data.b	25
00006dd7 04        13462 	.data.b	4

                                                                      Page 354
                                                              C:\Users\Fengyuan\AppData\Local\Temp\gh_0000p9o1.s
00006dd8 03        13463 	.data.b	3
00006dd9 01b0      13464 	.data.b	176,1
00006ddb 19        13465 	.data.b	25
00006ddc 04        13466 	.data.b	4
00006ddd 04        13467 	.data.b	4
00006dde 03        13468 	.data.b	3
00006ddf 33        13469 	.data.b	51
00006de0 2b        13470 	.data.b	43
00006de1 04        13471 	.data.b	4
00006de2 03        13472 	.data.b	3
00006de3 34        13473 	.data.b	52
00006de4 018e      13474 	.data.b	142,1
00006de6 03        13475 	.data.b	3
00006de7 1d        13476 	.data.b	29
00006de8 19        13477 	.data.b	25
00006de9 04        13478 	.data.b	4
00006dea 03        13479 	.data.b	3
00006deb 2b        13480 	.data.b	43
00006dec 19        13481 	.data.b	25
00006ded 04        13482 	.data.b	4
00006dee 04        13483 	.data.b	4
00006def 03        13484 	.data.b	3
00006df0 35        13485 	.data.b	53
00006df1 018f      13486 	.data.b	143,1
00006df3 03        13487 	.data.b	3
00006df4 1c        13488 	.data.b	28
00006df5 0190      13489 	.data.b	144,1
00006df7 04        13490 	.data.b	4
00006df8 03        13491 	.data.b	3
00006df9 1e        13492 	.data.b	30
00006dfa 35        13493 	.data.b	53
00006dfb 04        13494 	.data.b	4
00006dfc 03        13495 	.data.b	3
00006dfd 21        13496 	.data.b	33
00006dfe 19        13497 	.data.b	25
00006dff 04        13498 	.data.b	4
00006e00 03        13499 	.data.b	3
00006e01 26        13500 	.data.b	38
00006e02 19        13501 	.data.b	25
00006e03 04        13502 	.data.b	4
00006e04 01        13503 	.data.b	1
00006e05 28        13504 	.data.b	40
00006e06 4d686353  13505 	.data.b	83,99,104,77,95,69,110,116,101,114,95,66,115,119,77,95,66,83,87,77,95,69,88,67,76,85,83,73,86,69,95,65,82,69,65,95,48,40,41,32,83,117,115,112,101,110,100,65,108,108,73,110,116,101,114,114,117,112,116,115
00006e0a 746e455f 
00006e0e 425f7265 
00006e12 5f4d7773 
00006e16 4d575342 
00006e1a 4358455f 
00006e1e 4953554c 
00006e22 415f4556 
00006e26 5f414552 
00006e2a 20292830 
00006e2e 70737553 
00006e32 41646e65 
00006e36 6e496c6c 
00006e3a 72726574 
00006e3e 73747075 
00006e42 002928    13506 	.data.b	40,41,0
00006e45 01        13507 	.data.b	1
00006e46 2a        13508 	.data.b	42
00006e47 4d686353  13509 	.data.b	83,99,104,77,95,69,120,105,116,95,66,115,119,77,95,66,83,87,77,95,69,88,67,76,85,83,73,86,69,95,65,82,69,65,95,48,40,41,32,82,101,115,117,109,101,65,108,108,73,110,116,101,114,114,117,112,116,115,40,41

                                                                      Page 355
                                                              C:\Users\Fengyuan\AppData\Local\Temp\gh_0000p9o1.s
00006e4b 6978455f 
00006e4f 73425f74 
00006e53 425f4d77 
00006e57 5f4d5753 
00006e5b 4c435845 
00006e5f 56495355 
00006e63 52415f45 
00006e67 305f4145 
00006e6b 52202928 
00006e6f 6d757365 
00006e73 6c6c4165 
00006e77 65746e49 
00006e7b 70757272 
00006e7f 29287374 
00006e83 00        13510 	.data.b	0
00006e84 04        13511 	.data.b	4
00006e85 01        13512 	.data.b	1
00006e86 41        13513 	.data.b	65
00006e87 4d575342  13514 	.data.b	66,83,87,77,95,70,85,78,67,84,73,79,78,95,66,65,83,69,68,32,83,84,68,95,79,78,0
00006e8b 4e55465f 
00006e8f 4f495443 
00006e93 41425f4e 
00006e97 20444553 
00006e9b 5f445453 
00006e9f 004e4f 
00006ea2 01        13515 	.data.b	1
00006ea3 54        13516 	.data.b	84
00006ea4 4d575342  13517 	.data.b	66,83,87,77,95,78,79,95,65,67,84,73,79,78,76,73,83,84,32,66,115,119,77,95,71,101,116,83,105,122,101,79,102,65,99,116,105,111,110,76,105,115,116,115,40,41,0
00006ea8 5f4f4e5f 
00006eac 49544341 
00006eb0 494c4e4f 
00006eb4 42205453 
00006eb8 5f4d7773 
00006ebc 53746547 
00006ec0 4f657a69 
00006ec4 74634166 
00006ec8 4c6e6f69 
00006ecc 73747369 
00006ed0 002928 
00006ed3 01        13518 	.data.b	1
00006ed4 5d        13519 	.data.b	93
00006ed5 4d575342  13520 	.data.b	66,83,87,77,95,71,82,79,85,80,67,79,78,84,82,79,76,95,73,68,76,69,32,40,117,105,110,116,56,41,48,120,48,48,117,0
00006ed9 4f52475f 
00006edd 4f435055 
00006ee1 4f52544e 
00006ee5 44495f4c 
00006ee9 2820454c 
00006eed 746e6975 
00006ef1 78302938 
00006ef5 00753030 
00006ef9 01        13521 	.data.b	1
00006efa 5e        13522 	.data.b	94
00006efb 4d575342  13523 	.data.b	66,83,87,77,95,71,82,79,85,80,67,79,78,84,82,79,76,95,78,79,82,77,65,76,32,40,117,105,110,116,56,41,48,120,48,49,117,0
00006eff 4f52475f 
00006f03 4f435055 
00006f07 4f52544e 
00006f0b 4f4e5f4c 
00006f0f 4c414d52 
00006f13 69752820 
00006f17 2938746e 
00006f1b 31307830 

                                                                      Page 356
                                                              C:\Users\Fengyuan\AppData\Local\Temp\gh_0000p9o1.s
00006f1f 0075 
00006f21 01        13524 	.data.b	1
00006f22 60        13525 	.data.b	96
00006f23 4d575342  13526 	.data.b	66,83,87,77,95,71,82,79,85,80,67,79,78,84,82,79,76,95,68,77,32,40,117,105,110,116,56,41,48,120,48,52,117,0
00006f27 4f52475f 
00006f2b 4f435055 
00006f2f 4f52544e 
00006f33 4d445f4c 
00006f37 69752820 
00006f3b 2938746e 
00006f3f 34307830 
00006f43 0075 
00006f45 01        13527 	.data.b	1
00006f46 64        13528 	.data.b	100
00006f47 4d575342  13529 	.data.b	66,83,87,77,95,73,68,95,82,85,76,69,95,67,67,95,67,78,95,67,65,78,48,48,95,53,101,53,54,54,97,100,57,95,82,88,32,48,117,0
00006f4b 5f44495f 
00006f4f 454c5552 
00006f53 5f43435f 
00006f57 435f4e43 
00006f5b 30304e41 
00006f5f 3565355f 
00006f63 64613636 
00006f67 58525f39 
00006f6b 00753020 
00006f6f 01        13530 	.data.b	1
00006f70 65        13531 	.data.b	101
00006f71 4d575342  13532 	.data.b	66,83,87,77,95,73,68,95,82,85,76,69,95,67,67,95,67,78,95,67,65,78,48,48,95,53,101,53,54,54,97,100,57,95,84,88,32,49,117,0
00006f75 5f44495f 
00006f79 454c5552 
00006f7d 5f43435f 
00006f81 435f4e43 
00006f85 30304e41 
00006f89 3565355f 
00006f8d 64613636 
00006f91 58545f39 
00006f95 00753120 
00006f99 01        13533 	.data.b	1
00006f9a 66        13534 	.data.b	102
00006f9b 4d575342  13535 	.data.b	66,83,87,77,95,73,68,95,82,85,76,69,95,67,67,95,67,78,95,67,65,78,48,48,95,53,101,53,54,54,97,100,57,95,82,88,95,68,77,32,50,117,0
00006f9f 5f44495f 
00006fa3 454c5552 
00006fa7 5f43435f 
00006fab 435f4e43 
00006faf 30304e41 
00006fb3 3565355f 
00006fb7 64613636 
00006fbb 58525f39 
00006fbf 204d445f 
00006fc3 007532 
00006fc6 01        13536 	.data.b	1
00006fc7 68        13537 	.data.b	104
00006fc8 4d575342  13538 	.data.b	66,83,87,77,95,73,68,95,82,85,76,69,95,69,83,72,95,82,117,110,84,111,80,111,115,116,82,117,110,78,101,115,116,101,100,32,52,117,0
00006fcc 5f44495f 
00006fd0 454c5552 
00006fd4 4853455f 
00006fd8 6e75525f 
00006fdc 6f506f54 
00006fe0 75527473 
00006fe4 73654e6e 
00006fe8 20646574 
00006fec 007534 

                                                                      Page 357
                                                              C:\Users\Fengyuan\AppData\Local\Temp\gh_0000p9o1.s
00006fef 01        13539 	.data.b	1
00006ff0 6d        13540 	.data.b	109
00006ff1 4d575342  13541 	.data.b	66,83,87,77,95,73,68,95,82,85,76,69,95,69,83,72,95,68,101,109,73,110,105,116,32,57,117,0
00006ff5 5f44495f 
00006ff9 454c5552 
00006ffd 4853455f 
00007001 6d65445f 
00007005 74696e49 
00007009 00753920 
0000700d 01        13542 	.data.b	1
0000700e 6f        13543 	.data.b	111
0000700f 4d575342  13544 	.data.b	66,83,87,77,95,73,68,95,82,85,76,69,95,69,83,72,95,80,111,115,116,82,117,110,84,111,80,114,101,112,78,101,115,116,101,100,32,49,49,117,0
00007013 5f44495f 
00007017 454c5552 
0000701b 4853455f 
0000701f 736f505f 
00007023 6e755274 
00007027 72506f54 
0000702b 654e7065 
0000702f 64657473 
00007033 75313120 
00007037 00 
00007038 01        13545 	.data.b	1
00007039 70        13546 	.data.b	112
0000703a 4d575342  13547 	.data.b	66,83,87,77,95,73,68,95,82,85,76,69,95,69,83,72,95,80,111,115,116,82,117,110,78,101,115,116,101,100,32,49,50,117,0
0000703e 5f44495f 
00007042 454c5552 
00007046 4853455f 
0000704a 736f505f 
0000704e 6e755274 
00007052 7473654e 
00007056 31206465 
0000705a 007532 
0000705d 01        13548 	.data.b	1
0000705e 74        13549 	.data.b	116
0000705f 4d575342  13550 	.data.b	66,83,87,77,95,73,68,95,65,76,95,67,67,95,65,76,95,67,78,95,67,65,78,48,48,95,53,101,53,54,54,97,100,57,95,82,88,95,68,105,115,97,98,108,101,32,48,117,0
00007063 5f44495f 
00007067 435f4c41 
0000706b 4c415f43 
0000706f 5f4e435f 
00007073 304e4143 
00007077 65355f30 
0000707b 61363635 
0000707f 525f3964 
00007083 69445f58 
00007087 6c626173 
0000708b 75302065 
0000708f 00 
00007090 01        13551 	.data.b	1
00007091 75        13552 	.data.b	117
00007092 4d575342  13553 	.data.b	66,83,87,77,95,73,68,95,65,76,95,67,67,95,65,76,95,67,78,95,67,65,78,48,48,95,53,101,53,54,54,97,100,57,95,82,88,95,69,110,97,98,108,101,78,111,105,110,105,116,32,49,117,0
00007096 5f44495f 
0000709a 435f4c41 
0000709e 4c415f43 
000070a2 5f4e435f 
000070a6 304e4143 
000070aa 65355f30 
000070ae 61363635 
000070b2 525f3964 
000070b6 6e455f58 
000070ba 656c6261 

                                                                      Page 358
                                                              C:\Users\Fengyuan\AppData\Local\Temp\gh_0000p9o1.s
000070be 6e696f4e 
000070c2 31207469 
000070c6 0075 
000070c8 01        13554 	.data.b	1
000070c9 76        13555 	.data.b	118
000070ca 4d575342  13556 	.data.b	66,83,87,77,95,73,68,95,65,76,95,67,67,95,65,76,95,67,78,95,67,65,78,48,48,95,53,101,53,54,54,97,100,57,95,84,88,95,68,105,115,97,98,108,101,32,50,117,0
000070ce 5f44495f 
000070d2 435f4c41 
000070d6 4c415f43 
000070da 5f4e435f 
000070de 304e4143 
000070e2 65355f30 
000070e6 61363635 
000070ea 545f3964 
000070ee 69445f58 
000070f2 6c626173 
000070f6 75322065 
000070fa 00 
000070fb 01        13557 	.data.b	1
000070fc 77        13558 	.data.b	119
000070fd 4d575342  13559 	.data.b	66,83,87,77,95,73,68,95,65,76,95,67,67,95,65,76,95,67,78,95,67,65,78,48,48,95,53,101,53,54,54,97,100,57,95,84,88,95,69,110,97,98,108,101,78,111,105,110,105,116,32,51,117,0
00007101 5f44495f 
00007105 435f4c41 
00007109 4c415f43 
0000710d 5f4e435f 
00007111 304e4143 
00007115 65355f30 
00007119 61363635 
0000711d 545f3964 
00007121 6e455f58 
00007125 656c6261 
00007129 6e696f4e 
0000712d 33207469 
00007131 0075 
00007133 01        13560 	.data.b	1
00007134 78        13561 	.data.b	120
00007135 4d575342  13562 	.data.b	66,83,87,77,95,73,68,95,65,76,95,67,67,95,65,76,95,67,78,95,67,65,78,48,48,95,53,101,53,54,54,97,100,57,95,68,105,115,97,98,108,101,95,68,77,32,52,117,0
00007139 5f44495f 
0000713d 435f4c41 
00007141 4c415f43 
00007145 5f4e435f 
00007149 304e4143 
0000714d 65355f30 
00007151 61363635 
00007155 445f3964 
00007159 62617369 
0000715d 445f656c 
00007161 7534204d 
00007165 00 
00007166 01        13563 	.data.b	1
00007167 79        13564 	.data.b	121
00007168 4d575342  13565 	.data.b	66,83,87,77,95,73,68,95,65,76,95,67,67,95,65,76,95,67,78,95,67,65,78,48,48,95,53,101,53,54,54,97,100,57,95,69,110,97,98,108,101,95,68,77,32,53,117,0
0000716c 5f44495f 
00007170 435f4c41 
00007174 4c415f43 
00007178 5f4e435f 
0000717c 304e4143 
00007180 65355f30 
00007184 61363635 
00007188 455f3964 
0000718c 6c62616e 

                                                                      Page 359
                                                              C:\Users\Fengyuan\AppData\Local\Temp\gh_0000p9o1.s
00007190 4d445f65 
00007194 00753520 
00007198 01        13566 	.data.b	1
00007199 7b        13567 	.data.b	123
0000719a 4d575342  13568 	.data.b	66,83,87,77,95,73,68,95,65,76,95,69,83,72,95,65,76,95,69,120,105,116,82,117,110,32,55,117,0
0000719e 5f44495f 
000071a2 455f4c41 
000071a6 415f4853 
000071aa 78455f4c 
000071ae 75527469 
000071b2 7537206e 
000071b6 00 
000071b7 01        13569 	.data.b	1
000071b8 7c        13570 	.data.b	124
000071b9 4d575342  13571 	.data.b	66,83,87,77,95,73,68,95,65,76,95,69,83,72,95,65,76,95,82,117,110,84,111,80,111,115,116,82,117,110,32,56,117,0
000071bd 5f44495f 
000071c1 455f4c41 
000071c5 415f4853 
000071c9 75525f4c 
000071cd 506f546e 
000071d1 5274736f 
000071d5 38206e75 
000071d9 0075 
000071db 01        13572 	.data.b	1
000071dc 7d        13573 	.data.b	125
000071dd 4d575342  13574 	.data.b	66,83,87,77,95,73,68,95,65,76,95,69,83,72,95,65,76,95,87,97,105,116,70,111,114,78,118,77,84,111,83,104,117,116,100,111,119,110,32,57,117,0
000071e1 5f44495f 
000071e5 455f4c41 
000071e9 415f4853 
000071ed 61575f4c 
000071f1 6f467469 
000071f5 4d764e72 
000071f9 68536f54 
000071fd 6f647475 
00007201 39206e77 
00007205 0075 
00007207 01        13575 	.data.b	1
00007208 7e        13576 	.data.b	126
00007209 4d575342  13577 	.data.b	66,83,87,77,95,73,68,95,65,76,95,69,83,72,95,65,76,95,87,97,107,101,117,112,84,111,80,114,101,112,32,49,48,117,0
0000720d 5f44495f 
00007211 455f4c41 
00007215 415f4853 
00007219 61575f4c 
0000721d 7075656b 
00007221 72506f54 
00007225 31207065 
00007229 007530 
0000722c 01        13578 	.data.b	1
0000722d 7f        13579 	.data.b	127
0000722e 4d575342  13580 	.data.b	66,83,87,77,95,73,68,95,65,76,95,69,83,72,95,65,76,95,87,97,105,116,70,111,114,78,118,77,87,97,107,101,117,112,32,49,49,117,0
00007232 5f44495f 
00007236 455f4c41 
0000723a 415f4853 
0000723e 61575f4c 
00007242 6f467469 
00007246 4d764e72 
0000724a 656b6157 
0000724e 31207075 
00007252 007531 
00007255 01        13581 	.data.b	1
00007256 0180      13582 	.data.b	128,1

                                                                      Page 360
                                                              C:\Users\Fengyuan\AppData\Local\Temp\gh_0000p9o1.s
00007258 4d575342  13583 	.data.b	66,83,87,77,95,73,68,95,65,76,95,69,83,72,95,65,76,95,87,97,107,101,117,112,84,111,82,117,110,32,49,50,117,0
0000725c 5f44495f 
00007260 455f4c41 
00007264 415f4853 
00007268 61575f4c 
0000726c 7075656b 
00007270 75526f54 
00007274 3231206e 
00007278 0075 
0000727a 01        13584 	.data.b	1
0000727b 0181      13585 	.data.b	129,1
0000727d 4d575342  13586 	.data.b	66,83,87,77,95,73,68,95,65,76,95,69,83,72,95,65,76,95,68,101,109,73,110,105,116,32,49,51,117,0
00007281 5f44495f 
00007285 455f4c41 
00007289 415f4853 
0000728d 65445f4c 
00007291 696e496d 
00007295 33312074 
00007299 0075 
0000729b 01        13587 	.data.b	1
0000729c 0182      13588 	.data.b	130,1
0000729e 4d575342  13589 	.data.b	66,83,87,77,95,73,68,95,65,76,95,69,83,72,95,65,76,95,73,110,105,116,84,111,87,97,107,101,117,112,32,49,52,117,0
000072a2 5f44495f 
000072a6 455f4c41 
000072aa 415f4853 
000072ae 6e495f4c 
000072b2 6f547469 
000072b6 656b6157 
000072ba 31207075 
000072be 007534 
000072c1 01        13590 	.data.b	1
000072c2 0183      13591 	.data.b	131,1
000072c4 4d575342  13592 	.data.b	66,83,87,77,95,73,68,95,65,76,95,69,83,72,95,65,76,95,80,111,115,116,82,117,110,84,111,80,114,101,112,83,104,117,116,100,111,119,110,32,49,53,117,0
000072c8 5f44495f 
000072cc 455f4c41 
000072d0 415f4853 
000072d4 6f505f4c 
000072d8 75527473 
000072dc 506f546e 
000072e0 53706572 
000072e4 64747568 
000072e8 206e776f 
000072ec 00753531 
000072f0 01        13593 	.data.b	1
000072f1 0184      13594 	.data.b	132,1
000072f3 4d575342  13595 	.data.b	66,83,87,77,95,73,68,95,65,76,95,69,83,72,95,65,76,95,69,83,72,95,80,111,115,116,82,117,110,84,111,80,114,101,112,67,104,101,99,107,32,49,54,117,0
000072f7 5f44495f 
000072fb 455f4c41 
000072ff 415f4853 
00007303 53455f4c 
00007307 6f505f48 
0000730b 75527473 
0000730f 506f546e 
00007313 43706572 
00007317 6b636568 
0000731b 75363120 
0000731f 00 
00007320 01        13596 	.data.b	1
00007321 0185      13597 	.data.b	133,1
00007323 4d575342  13598 	.data.b	66,83,87,77,95,73,68,95,65,76,95,69,83,72,95,65,76,95,80,111,115,116,82,117,110,84,111,82,117,110,32,49,55,117,0
00007327 5f44495f 

                                                                      Page 361
                                                              C:\Users\Fengyuan\AppData\Local\Temp\gh_0000p9o1.s
0000732b 455f4c41 
0000732f 415f4853 
00007333 6f505f4c 
00007337 75527473 
0000733b 526f546e 
0000733f 31206e75 
00007343 007537 
00007346 01        13599 	.data.b	1
00007347 0186      13600 	.data.b	134,1
00007349 4d575342  13601 	.data.b	66,83,87,77,95,73,68,95,65,76,95,69,83,72,95,65,76,95,69,120,105,116,80,111,115,116,82,117,110,32,49,56,117,0
0000734d 5f44495f 
00007351 455f4c41 
00007355 415f4853 
00007359 78455f4c 
0000735d 6f507469 
00007361 75527473 
00007365 3831206e 
00007369 0075 
0000736b 01        13602 	.data.b	1
0000736c 0187      13603 	.data.b	135,1
0000736e 4d575342  13604 	.data.b	66,83,87,77,95,73,68,95,65,76,95,69,83,72,95,65,76,95,80,114,101,112,83,104,117,116,100,111,119,110,84,111,87,97,105,116,70,111,114,78,118,77,32,49,57,117,0
00007372 5f44495f 
00007376 455f4c41 
0000737a 415f4853 
0000737e 72505f4c 
00007382 68537065 
00007386 6f647475 
0000738a 6f546e77 
0000738e 74696157 
00007392 4e726f46 
00007396 31204d76 
0000739a 007539 
0000739d 01        13605 	.data.b	1
0000739e 019d      13606 	.data.b	157,1
000073a0 4d777342  13607 	.data.b	66,115,119,77,95,71,101,116,65,99,116,105,111,110,76,105,115,116,115,79,102,80,67,67,111,110,102,105,103,40,41,32,66,115,119,77,95,65,99,116,105,111,110,76,105,115,116,115,0
000073a4 7465475f 
000073a8 69746341 
000073ac 694c6e6f 
000073b0 4f737473 
000073b4 43435066 
000073b8 69666e6f 
000073bc 20292867 
000073c0 4d777342 
000073c4 7463415f 
000073c8 4c6e6f69 
000073cc 73747369 
000073d0 00 
000073d1 01        13608 	.data.b	1
000073d2 019f      13609 	.data.b	159,1
000073d4 4d777342  13610 	.data.b	66,115,119,77,95,71,101,116,67,97,110,83,77,67,104,97,110,110,101,108,83,116,97,116,101,79,102,80,67,67,111,110,102,105,103,40,41,32,66,115,119,77,95,67,97,110,83,77,67,104,97,110,110,101,108,83,116,97,116,101
000073d8 7465475f 
000073dc 536e6143 
000073e0 6168434d 
000073e4 6c656e6e 
000073e8 74617453 
000073ec 50664f65 
000073f0 6e6f4343 
000073f4 28676966 
000073f8 73422029 
000073fc 435f4d77 
00007400 4d536e61 

                                                                      Page 362
                                                              C:\Users\Fengyuan\AppData\Local\Temp\gh_0000p9o1.s
00007404 6e616843 
00007408 536c656e 
0000740c 65746174 
00007410 00        13611 	.data.b	0
00007411 01        13612 	.data.b	1
00007412 01a1      13613 	.data.b	161,1
00007414 4d777342  13614 	.data.b	66,115,119,77,95,71,101,116,67,111,109,77,67,104,97,110,110,101,108,83,116,97,116,101,79,102,80,67,67,111,110,102,105,103,40,41,32,66,115,119,77,95,67,111,109,77,67,104,97,110,110,101,108,83,116,97,116,101,0
00007418 7465475f 
0000741c 4d6d6f43 
00007420 6e616843 
00007424 536c656e 
00007428 65746174 
0000742c 4350664f 
00007430 666e6f43 
00007434 29286769 
00007438 77734220 
0000743c 6f435f4d 
00007440 68434d6d 
00007444 656e6e61 
00007448 6174536c 
0000744c 006574 
0000744f 01        13615 	.data.b	1
00007450 01a5      13616 	.data.b	165,1
00007452 4d777342  13617 	.data.b	66,115,119,77,95,71,101,116,71,101,110,101,114,105,99,83,116,97,116,101,79,102,80,67,67,111,110,102,105,103,40,41,32,66,115,119,77,95,71,101,110,101,114,105,99,83,116,97,116,101,0
00007456 7465475f 
0000745a 656e6547 
0000745e 53636972 
00007462 65746174 
00007466 4350664f 
0000746a 666e6f43 
0000746e 29286769 
00007472 77734220 
00007476 65475f4d 
0000747a 6972656e 
0000747e 61745363 
00007482 006574 
00007485 01        13618 	.data.b	1
00007486 01ab      13619 	.data.b	171,1
00007488 4d777342  13620 	.data.b	66,115,119,77,95,71,101,116,82,117,108,101,83,116,97,116,101,115,79,102,80,67,67,111,110,102,105,103,40,41,32,66,115,119,77,95,82,117,108,101,83,116,97,116,101,115,0
0000748c 7465475f 
00007490 656c7552 
00007494 74617453 
00007498 664f7365 
0000749c 6f434350 
000074a0 6769666e 
000074a4 42202928 
000074a8 5f4d7773 
000074ac 656c7552 
000074b0 74617453 
000074b4 007365 
000074b7 01        13621 	.data.b	1
000074b8 01ae      13622 	.data.b	174,1
000074ba 4d777342  13623 	.data.b	66,115,119,77,95,71,101,116,82,117,108,101,115,79,102,80,67,67,111,110,102,105,103,40,41,32,66,115,119,77,95,82,117,108,101,115,0
000074be 7465475f 
000074c2 656c7552 
000074c6 50664f73 
000074ca 6e6f4343 
000074ce 28676966 
000074d2 73422029 
000074d6 525f4d77 
000074da 73656c75 

                                                                      Page 363
                                                              C:\Users\Fengyuan\AppData\Local\Temp\gh_0000p9o1.s
000074de 00 
000074df 01        13624 	.data.b	1
000074e0 01af      13625 	.data.b	175,1
000074e2 4d777342  13626 	.data.b	66,115,119,77,95,71,101,116,83,105,122,101,79,102,65,99,116,105,111,110,76,105,115,116,115,79,102,80,67,67,111,110,102,105,103,40,41,32,50,48,117,0
000074e6 7465475f 
000074ea 657a6953 
000074ee 6341664f 
000074f2 6e6f6974 
000074f6 7473694c 
000074fa 50664f73 
000074fe 6e6f4343 
00007502 28676966 
00007506 30322029 
0000750a 0075 
0000750c 01        13627 	.data.b	1
0000750d 01bb      13628 	.data.b	187,1
0000750f 4d777342  13629 	.data.b	66,115,119,77,95,71,101,116,83,105,122,101,79,102,82,117,108,101,115,79,102,80,67,67,111,110,102,105,103,40,41,32,49,53,117,0
00007513 7465475f 
00007517 657a6953 
0000751b 7552664f 
0000751f 4f73656c 
00007523 43435066 
00007527 69666e6f 
0000752b 20292867 
0000752f 00753531 
00007533 01        13630 	.data.b	1
00007534 01bd      13631 	.data.b	189,1
00007536 4d777342  13632 	.data.b	66,115,119,77,95,71,101,116,83,105,122,101,79,102,84,105,109,101,114,86,97,108,117,101,79,102,80,67,67,111,110,102,105,103,40,41,32,49,117,0
0000753a 7465475f 
0000753e 657a6953 
00007542 6954664f 
00007546 5672656d 
0000754a 65756c61 
0000754e 4350664f 
00007552 666e6f43 
00007556 29286769 
0000755a 00753120 
0000755e 01        13633 	.data.b	1
0000755f 01be      13634 	.data.b	190,1
00007561 4d777342  13635 	.data.b	66,115,119,77,95,71,101,116,84,105,109,101,114,83,116,97,116,101,79,102,80,67,67,111,110,102,105,103,40,41,32,66,115,119,77,95,84,105,109,101,114,83,116,97,116,101,46,114,97,119,0
00007565 7465475f 
00007569 656d6954 
0000756d 61745372 
00007571 664f6574 
00007575 6f434350 
00007579 6769666e 
0000757d 42202928 
00007581 5f4d7773 
00007585 656d6954 
00007589 61745372 
0000758d 722e6574 
00007591 007761 
00007594 01        13636 	.data.b	1
00007595 01bf      13637 	.data.b	191,1
00007597 4d777342  13638 	.data.b	66,115,119,77,95,71,101,116,84,105,109,101,114,86,97,108,117,101,79,102,80,67,67,111,110,102,105,103,40,41,32,66,115,119,77,95,84,105,109,101,114,86,97,108,117,101,46,114,97,119,0
0000759b 7465475f 
0000759f 656d6954 
000075a3 6c615672 
000075a7 664f6575 
000075ab 6f434350 
000075af 6769666e 

                                                                      Page 364
                                                              C:\Users\Fengyuan\AppData\Local\Temp\gh_0000p9o1.s
000075b3 42202928 
000075b7 5f4d7773 
000075bb 656d6954 
000075bf 6c615672 
000075c3 722e6575 
000075c7 007761 
000075ca 01        13639 	.data.b	1
000075cb 01ce      13640 	.data.b	206,1
000075cd 4d777342  13641 	.data.b	66,115,119,77,95,71,101,116,83,105,122,101,79,102,82,117,108,101,83,116,97,116,101,115,79,102,80,67,67,111,110,102,105,103,40,41,32,66,115,119,77,95,71,101,116,83,105,122,101,79,102,82,117,108,101,115,79,102,80,67
000075d1 7465475f 
000075d5 657a6953 
000075d9 7552664f 
000075dd 7453656c 
000075e1 73657461 
000075e5 4350664f 
000075e9 666e6f43 
000075ed 29286769 
000075f1 77734220 
000075f5 65475f4d 
000075f9 7a695374 
000075fd 52664f65 
00007601 73656c75 
00007605 4350664f 
00007609 666e6f43  13642 	.data.b	67,111,110,102,105,103,40,41,0
0000760d 29286769 
00007611 00 
00007612 01        13643 	.data.b	1
00007613 01d9      13644 	.data.b	217,1
00007615 4d777342  13645 	.data.b	66,115,119,77,95,71,101,116,70,99,116,80,116,114,79,102,65,99,116,105,111,110,76,105,115,116,115,40,73,110,100,101,120,41,32,40,66,115,119,77,95,71,101,116,65,99,116,105,111,110,76,105,115,116,115,79,102,80,67,67
00007619 7465475f 
0000761d 50746346 
00007621 664f7274 
00007625 69746341 
00007629 694c6e6f 
0000762d 28737473 
00007631 65646e49 
00007635 28202978 
00007639 4d777342 
0000763d 7465475f 
00007641 69746341 
00007645 694c6e6f 
00007649 4f737473 
0000764d 43435066 
00007651 69666e6f  13646 	.data.b	111,110,102,105,103,40,41,91,40,73,110,100,101,120,41,93,46,70,99,116,80,116,114,79,102,65,99,116,105,111,110,76,105,115,116,115,41,0
00007655 5b292867 
00007659 646e4928 
0000765d 5d297865 
00007661 7463462e 
00007665 4f727450 
00007669 74634166 
0000766d 4c6e6f69 
00007671 73747369 
00007675 0029 
00007677 01        13647 	.data.b	1
00007678 01da      13648 	.data.b	218,1
0000767a 4d777342  13649 	.data.b	66,115,119,77,95,71,101,116,67,97,110,83,77,67,104,97,110,110,101,108,83,116,97,116,101,40,73,110,100,101,120,41,32,40,66,115,119,77,95,71,101,116,67,97,110,83,77,67,104,97,110,110,101,108,83,116,97,116,101,79
0000767e 7465475f 
00007682 536e6143 
00007686 6168434d 
0000768a 6c656e6e 
0000768e 74617453 

                                                                      Page 365
                                                              C:\Users\Fengyuan\AppData\Local\Temp\gh_0000p9o1.s
00007692 6e492865 
00007696 29786564 
0000769a 73422820 
0000769e 475f4d77 
000076a2 61437465 
000076a6 434d536e 
000076aa 6e6e6168 
000076ae 74536c65 
000076b2 4f657461 
000076b6 43435066  13650 	.data.b	102,80,67,67,111,110,102,105,103,40,41,91,40,73,110,100,101,120,41,93,41,0
000076ba 69666e6f 
000076be 5b292867 
000076c2 646e4928 
000076c6 5d297865 
000076ca 0029 
000076cc 01        13651 	.data.b	1
000076cd 01db      13652 	.data.b	219,1
000076cf 4d777342  13653 	.data.b	66,115,119,77,95,71,101,116,67,111,109,77,67,104,97,110,110,101,108,83,116,97,116,101,40,73,110,100,101,120,41,32,40,66,115,119,77,95,71,101,116,67,111,109,77,67,104,97,110,110,101,108,83,116,97,116,101,79,102,80
000076d3 7465475f 
000076d7 4d6d6f43 
000076db 6e616843 
000076df 536c656e 
000076e3 65746174 
000076e7 646e4928 
000076eb 20297865 
000076ef 77734228 
000076f3 65475f4d 
000076f7 6d6f4374 
000076fb 6168434d 
000076ff 6c656e6e 
00007703 74617453 
00007707 50664f65 
0000770b 6e6f4343  13654 	.data.b	67,67,111,110,102,105,103,40,41,91,40,73,110,100,101,120,41,93,41,0
0000770f 28676966 
00007713 49285b29 
00007717 7865646e 
0000771b 00295d29 
0000771f 01        13655 	.data.b	1
00007720 01e2      13656 	.data.b	226,1
00007722 4d777342  13657 	.data.b	66,115,119,77,95,71,101,116,71,101,110,101,114,105,99,83,116,97,116,101,40,73,110,100,101,120,41,32,40,66,115,119,77,95,71,101,116,71,101,110,101,114,105,99,83,116,97,116,101,79,102,80,67,67,111,110,102,105,103,40
00007726 7465475f 
0000772a 656e6547 
0000772e 53636972 
00007732 65746174 
00007736 646e4928 
0000773a 20297865 
0000773e 77734228 
00007742 65475f4d 
00007746 6e654774 
0000774a 63697265 
0000774e 74617453 
00007752 50664f65 
00007756 6e6f4343 
0000775a 28676966 
0000775e 49285b29  13658 	.data.b	41,91,40,73,110,100,101,120,41,93,41,0
00007762 7865646e 
00007766 00295d29 
0000776a 01        13659 	.data.b	1
0000776b 01ea      13660 	.data.b	234,1
0000776d 4d777342  13661 	.data.b	66,115,119,77,95,71,101,116,82,117,108,101,83,116,97,116,101,115,40,73,110,100,101,120,41,32,40,66,115,119,77,95,71,101,116,82,117,108,101,83,116,97,116,101,115,79,102,80,67,67,111,110,102,105,103,40,41,91,40,73
00007771 7465475f 

                                                                      Page 366
                                                              C:\Users\Fengyuan\AppData\Local\Temp\gh_0000p9o1.s
00007775 656c7552 
00007779 74617453 
0000777d 49287365 
00007781 7865646e 
00007785 42282029 
00007789 5f4d7773 
0000778d 52746547 
00007791 53656c75 
00007795 65746174 
00007799 50664f73 
0000779d 6e6f4343 
000077a1 28676966 
000077a5 49285b29 
000077a9 7865646e  13662 	.data.b	110,100,101,120,41,93,41,0
000077ad 00295d29 
000077b1 01        13663 	.data.b	1
000077b2 01eb      13664 	.data.b	235,1
000077b4 4d777342  13665 	.data.b	66,115,119,77,95,71,101,116,70,99,116,80,116,114,79,102,82,117,108,101,115,40,73,110,100,101,120,41,32,40,66,115,119,77,95,71,101,116,82,117,108,101,115,79,102,80,67,67,111,110,102,105,103,40,41,91,40,73,110,100
000077b8 7465475f 
000077bc 50746346 
000077c0 664f7274 
000077c4 656c7552 
000077c8 6e492873 
000077cc 29786564 
000077d0 73422820 
000077d4 475f4d77 
000077d8 75527465 
000077dc 4f73656c 
000077e0 43435066 
000077e4 69666e6f 
000077e8 5b292867 
000077ec 646e4928 
000077f0 5d297865  13666 	.data.b	101,120,41,93,46,70,99,116,80,116,114,79,102,82,117,108,101,115,41,0
000077f4 7463462e 
000077f8 4f727450 
000077fc 6c755266 
00007800 00297365 
00007804 01        13667 	.data.b	1
00007805 01ef      13668 	.data.b	239,1
00007807 4d777342  13669 	.data.b	66,115,119,77,95,71,101,116,84,105,109,101,114,83,116,97,116,101,40,73,110,100,101,120,41,32,40,66,115,119,77,95,71,101,116,84,105,109,101,114,83,116,97,116,101,79,102,80,67,67,111,110,102,105,103,40,41,91,40,73
0000780b 7465475f 
0000780f 656d6954 
00007813 61745372 
00007817 49286574 
0000781b 7865646e 
0000781f 42282029 
00007823 5f4d7773 
00007827 54746547 
0000782b 72656d69 
0000782f 74617453 
00007833 50664f65 
00007837 6e6f4343 
0000783b 28676966 
0000783f 49285b29 
00007843 7865646e  13670 	.data.b	110,100,101,120,41,93,41,0
00007847 00295d29 
0000784b 01        13671 	.data.b	1
0000784c 0296      13672 	.data.b	150,2
0000784e 4d777342  13673 	.data.b	66,115,119,77,95,71,101,116,83,105,122,101,79,102,65,99,116,105,111,110,76,105,115,116,115,40,41,32,66,115,119,77,95,71,101,116,83,105,122,101,79,102,65,99,116,105,111,110,76,105,115,116,115,79,102,80,67,67,111,110
00007852 7465475f 
00007856 657a6953 

                                                                      Page 367
                                                              C:\Users\Fengyuan\AppData\Local\Temp\gh_0000p9o1.s
0000785a 6341664f 
0000785e 6e6f6974 
00007862 7473694c 
00007866 20292873 
0000786a 4d777342 
0000786e 7465475f 
00007872 657a6953 
00007876 6341664f 
0000787a 6e6f6974 
0000787e 7473694c 
00007882 50664f73 
00007886 6e6f4343 
0000788a 28676966  13674 	.data.b	102,105,103,40,41,0
0000788e 0029 
00007890 01        13675 	.data.b	1
00007891 02a4      13676 	.data.b	164,2
00007893 4d777342  13677 	.data.b	66,115,119,77,95,71,101,116,83,105,122,101,79,102,82,117,108,101,83,116,97,116,101,115,40,41,32,66,115,119,77,95,71,101,116,83,105,122,101,79,102,82,117,108,101,83,116,97,116,101,115,79,102,80,67,67,111,110,102,105
00007897 7465475f 
0000789b 657a6953 
0000789f 7552664f 
000078a3 7453656c 
000078a7 73657461 
000078ab 42202928 
000078af 5f4d7773 
000078b3 53746547 
000078b7 4f657a69 
000078bb 6c755266 
000078bf 61745365 
000078c3 4f736574 
000078c7 43435066 
000078cb 69666e6f 
000078cf 00292867  13678 	.data.b	103,40,41,0
000078d3 01        13679 	.data.b	1
000078d4 02a5      13680 	.data.b	165,2
000078d6 4d777342  13681 	.data.b	66,115,119,77,95,71,101,116,83,105,122,101,79,102,82,117,108,101,115,40,41,32,66,115,119,77,95,71,101,116,83,105,122,101,79,102,82,117,108,101,115,79,102,80,67,67,111,110,102,105,103,40,41,0
000078da 7465475f 
000078de 657a6953 
000078e2 7552664f 
000078e6 2873656c 
000078ea 73422029 
000078ee 475f4d77 
000078f2 69537465 
000078f6 664f657a 
000078fa 656c7552 
000078fe 50664f73 
00007902 6e6f4343 
00007906 28676966 
0000790a 0029 
0000790c 01        13682 	.data.b	1
0000790d 02a9      13683 	.data.b	169,2
0000790f 4d777342  13684 	.data.b	66,115,119,77,95,71,101,116,83,105,122,101,79,102,84,105,109,101,114,86,97,108,117,101,40,41,32,66,115,119,77,95,71,101,116,83,105,122,101,79,102,84,105,109,101,114,86,97,108,117,101,79,102,80,67,67,111,110,102,105
00007913 7465475f 
00007917 657a6953 
0000791b 6954664f 
0000791f 5672656d 
00007923 65756c61 
00007927 42202928 
0000792b 5f4d7773 
0000792f 53746547 
00007933 4f657a69 
00007937 6d695466 

                                                                      Page 368
                                                              C:\Users\Fengyuan\AppData\Local\Temp\gh_0000p9o1.s
0000793b 61567265 
0000793f 4f65756c 
00007943 43435066 
00007947 69666e6f 
0000794b 00292867  13685 	.data.b	103,40,41,0
0000794f 01        13686 	.data.b	1
00007950 02bc      13687 	.data.b	188,2
00007952 4d777342  13688 	.data.b	66,115,119,77,95,83,101,116,82,117,108,101,83,116,97,116,101,115,40,73,110,100,101,120,44,86,97,108,117,101,41,32,66,115,119,77,95,71,101,116,82,117,108,101,83,116,97,116,101,115,79,102,80,67,67,111,110,102,105,103
00007956 7465535f 
0000795a 656c7552 
0000795e 74617453 
00007962 49287365 
00007966 7865646e 
0000796a 6c61562c 
0000796e 20296575 
00007972 4d777342 
00007976 7465475f 
0000797a 656c7552 
0000797e 74617453 
00007982 664f7365 
00007986 6f434350 
0000798a 6769666e 
0000798e 285b2928  13689 	.data.b	40,41,91,40,73,110,100,101,120,41,93,32,61,32,40,86,97,108,117,101,41,0
00007992 65646e49 
00007996 205d2978 
0000799a 5628203d 
0000799e 65756c61 
000079a2 0029 
000079a4 01        13690 	.data.b	1
000079a5 02bd      13691 	.data.b	189,2
000079a7 4d777342  13692 	.data.b	66,115,119,77,95,83,101,116,84,105,109,101,114,83,116,97,116,101,40,73,110,100,101,120,44,86,97,108,117,101,41,32,66,115,119,77,95,71,101,116,84,105,109,101,114,83,116,97,116,101,79,102,80,67,67,111,110,102,105,103
000079ab 7465535f 
000079af 656d6954 
000079b3 61745372 
000079b7 49286574 
000079bb 7865646e 
000079bf 6c61562c 
000079c3 20296575 
000079c7 4d777342 
000079cb 7465475f 
000079cf 656d6954 
000079d3 61745372 
000079d7 664f6574 
000079db 6f434350 
000079df 6769666e 
000079e3 285b2928  13693 	.data.b	40,41,91,40,73,110,100,101,120,41,93,32,61,32,40,86,97,108,117,101,41,0
000079e7 65646e49 
000079eb 205d2978 
000079ef 5628203d 
000079f3 65756c61 
000079f7 0029 
000079f9 01        13694 	.data.b	1
000079fa 02be      13695 	.data.b	190,2
000079fc 4d777342  13696 	.data.b	66,115,119,77,95,83,101,116,84,105,109,101,114,86,97,108,117,101,40,73,110,100,101,120,44,86,97,108,117,101,41,32,66,115,119,77,95,71,101,116,84,105,109,101,114,86,97,108,117,101,79,102,80,67,67,111,110,102,105,103
00007a00 7465535f 
00007a04 656d6954 
00007a08 6c615672 
00007a0c 49286575 
00007a10 7865646e 
00007a14 6c61562c 
00007a18 20296575 

                                                                      Page 369
                                                              C:\Users\Fengyuan\AppData\Local\Temp\gh_0000p9o1.s
00007a1c 4d777342 
00007a20 7465475f 
00007a24 656d6954 
00007a28 6c615672 
00007a2c 664f6575 
00007a30 6f434350 
00007a34 6769666e 
00007a38 285b2928  13697 	.data.b	40,41,91,40,73,110,100,101,120,41,93,32,61,32,40,86,97,108,117,101,41,0
00007a3c 65646e49 
00007a40 205d2978 
00007a44 5628203d 
00007a48 65756c61 
00007a4c 0029 
00007a4e 03        13698 	.data.b	3
00007a4f 0498      13699 	.data.b	152,4
00007a51 19        13700 	.data.b	25
00007a52 04        13701 	.data.b	4
00007a53 03        13702 	.data.b	3
00007a54 049d      13703 	.data.b	157,4
00007a56 19        13704 	.data.b	25
00007a57 04        13705 	.data.b	4
00007a58 03        13706 	.data.b	3
00007a59 04ab      13707 	.data.b	171,4
00007a5b 19        13708 	.data.b	25
00007a5c 04        13709 	.data.b	4
00007a5d 03        13710 	.data.b	3
00007a5e 04b0      13711 	.data.b	176,4
00007a60 19        13712 	.data.b	25
00007a61 04        13713 	.data.b	4
00007a62 03        13714 	.data.b	3
00007a63 04c2      13715 	.data.b	194,4
00007a65 19        13716 	.data.b	25
00007a66 04        13717 	.data.b	4
00007a67 03        13718 	.data.b	3
00007a68 04c7      13719 	.data.b	199,4
00007a6a 19        13720 	.data.b	25
00007a6b 04        13721 	.data.b	4
00007a6c 03        13722 	.data.b	3
00007a6d 04d8      13723 	.data.b	216,4
00007a6f 19        13724 	.data.b	25
00007a70 04        13725 	.data.b	4
00007a71 03        13726 	.data.b	3
00007a72 04dd      13727 	.data.b	221,4
00007a74 19        13728 	.data.b	25
00007a75 04        13729 	.data.b	4
00007a76 03        13730 	.data.b	3
00007a77 04ec      13731 	.data.b	236,4
00007a79 19        13732 	.data.b	25
00007a7a 04        13733 	.data.b	4
00007a7b 03        13734 	.data.b	3
00007a7c 04f1      13735 	.data.b	241,4
00007a7e 19        13736 	.data.b	25
00007a7f 04        13737 	.data.b	4
00007a80 03        13738 	.data.b	3
00007a81 04fd      13739 	.data.b	253,4
00007a83 19        13740 	.data.b	25
00007a84 04        13741 	.data.b	4
00007a85 03        13742 	.data.b	3
00007a86 0582      13743 	.data.b	130,5
00007a88 19        13744 	.data.b	25
00007a89 04        13745 	.data.b	4

                                                                      Page 370
                                                              C:\Users\Fengyuan\AppData\Local\Temp\gh_0000p9o1.s
00007a8a 03        13746 	.data.b	3
00007a8b 0590      13747 	.data.b	144,5
00007a8d 19        13748 	.data.b	25
00007a8e 04        13749 	.data.b	4
00007a8f 03        13750 	.data.b	3
00007a90 0595      13751 	.data.b	149,5
00007a92 19        13752 	.data.b	25
00007a93 04        13753 	.data.b	4
00007a94 03        13754 	.data.b	3
00007a95 05a1      13755 	.data.b	161,5
00007a97 19        13756 	.data.b	25
00007a98 04        13757 	.data.b	4
00007a99 03        13758 	.data.b	3
00007a9a 05a6      13759 	.data.b	166,5
00007a9c 19        13760 	.data.b	25
00007a9d 04        13761 	.data.b	4
00007a9e 03        13762 	.data.b	3
00007a9f 05b2      13763 	.data.b	178,5
00007aa1 19        13764 	.data.b	25
00007aa2 04        13765 	.data.b	4
00007aa3 03        13766 	.data.b	3
00007aa4 05b7      13767 	.data.b	183,5
00007aa6 19        13768 	.data.b	25
00007aa7 04        13769 	.data.b	4
00007aa8 03        13770 	.data.b	3
00007aa9 05c3      13771 	.data.b	195,5
00007aab 19        13772 	.data.b	25
00007aac 04        13773 	.data.b	4
00007aad 03        13774 	.data.b	3
00007aae 05c8      13775 	.data.b	200,5
00007ab0 19        13776 	.data.b	25
00007ab1 04        13777 	.data.b	4
00007ab2 03        13778 	.data.b	3
00007ab3 05d0      13779 	.data.b	208,5
00007ab5 19        13780 	.data.b	25
00007ab6 04        13781 	.data.b	4
00007ab7 03        13782 	.data.b	3
00007ab8 05d5      13783 	.data.b	213,5
00007aba 19        13784 	.data.b	25
00007abb 04        13785 	.data.b	4
00007abc 03        13786 	.data.b	3
00007abd 05e1      13787 	.data.b	225,5
00007abf 19        13788 	.data.b	25
00007ac0 04        13789 	.data.b	4
00007ac1 03        13790 	.data.b	3
00007ac2 05e6      13791 	.data.b	230,5
00007ac4 19        13792 	.data.b	25
00007ac5 04        13793 	.data.b	4
00007ac6 03        13794 	.data.b	3
00007ac7 05ee      13795 	.data.b	238,5
00007ac9 19        13796 	.data.b	25
00007aca 04        13797 	.data.b	4
00007acb 03        13798 	.data.b	3
00007acc 05f3      13799 	.data.b	243,5
00007ace 19        13800 	.data.b	25
00007acf 04        13801 	.data.b	4
00007ad0 03        13802 	.data.b	3
00007ad1 05ff      13803 	.data.b	255,5
00007ad3 19        13804 	.data.b	25
00007ad4 04        13805 	.data.b	4
00007ad5 03        13806 	.data.b	3

                                                                      Page 371
                                                              C:\Users\Fengyuan\AppData\Local\Temp\gh_0000p9o1.s
00007ad6 0684      13807 	.data.b	132,6
00007ad8 19        13808 	.data.b	25
00007ad9 04        13809 	.data.b	4
00007ada 03        13810 	.data.b	3
00007adb 068c      13811 	.data.b	140,6
00007add 19        13812 	.data.b	25
00007ade 04        13813 	.data.b	4
00007adf 03        13814 	.data.b	3
00007ae0 0691      13815 	.data.b	145,6
00007ae2 19        13816 	.data.b	25
00007ae3 04        13817 	.data.b	4
00007ae4 03        13818 	.data.b	3
00007ae5 0699      13819 	.data.b	153,6
00007ae7 19        13820 	.data.b	25
00007ae8 04        13821 	.data.b	4
00007ae9 03        13822 	.data.b	3
00007aea 069e      13823 	.data.b	158,6
00007aec 19        13824 	.data.b	25
00007aed 04        13825 	.data.b	4
00007aee 03        13826 	.data.b	3
00007aef 06aa      13827 	.data.b	170,6
00007af1 19        13828 	.data.b	25
00007af2 04        13829 	.data.b	4
00007af3 03        13830 	.data.b	3
00007af4 06af      13831 	.data.b	175,6
00007af6 19        13832 	.data.b	25
00007af7 04        13833 	.data.b	4
00007af8 03        13834 	.data.b	3
00007af9 06bb      13835 	.data.b	187,6
00007afb 19        13836 	.data.b	25
00007afc 04        13837 	.data.b	4
00007afd 03        13838 	.data.b	3
00007afe 06c0      13839 	.data.b	192,6
00007b00 19        13840 	.data.b	25
00007b01 04        13841 	.data.b	4
00007b02 03        13842 	.data.b	3
00007b03 06cc      13843 	.data.b	204,6
00007b05 19        13844 	.data.b	25
00007b06 04        13845 	.data.b	4
00007b07 03        13846 	.data.b	3
00007b08 06d1      13847 	.data.b	209,6
00007b0a 19        13848 	.data.b	25
00007b0b 04        13849 	.data.b	4
00007b0c 03        13850 	.data.b	3
00007b0d 06e0      13851 	.data.b	224,6
00007b0f 19        13852 	.data.b	25
00007b10 04        13853 	.data.b	4
00007b11 03        13854 	.data.b	3
00007b12 06e8      13855 	.data.b	232,6
00007b14 19        13856 	.data.b	25
00007b15 04        13857 	.data.b	4
00007b16 03        13858 	.data.b	3
00007b17 06ff      13859 	.data.b	255,6
00007b19 19        13860 	.data.b	25
00007b1a 04        13861 	.data.b	4
00007b1b 03        13862 	.data.b	3
00007b1c 0890      13863 	.data.b	144,8
00007b1e 19        13864 	.data.b	25
00007b1f 04        13865 	.data.b	4
00007b20 04        13866 	.data.b	4
00007b21 01        13867 	.data.b	1

                                                                      Page 372
                                                              C:\Users\Fengyuan\AppData\Local\Temp\gh_0000p9o1.s
00007b22 2b        13868 	.data.b	43
00007b23 4d575342  13869 	.data.b	66,83,87,77,95,76,79,67,65,76,32,115,116,97,116,105,99,0
00007b27 434f4c5f 
00007b2b 73204c41 
00007b2f 69746174 
00007b33 0063 
00007b35 01        13870 	.data.b	1
00007b36 2f        13871 	.data.b	47
00007b37 4d575342  13872 	.data.b	66,83,87,77,95,76,79,67,65,76,95,73,78,76,73,78,69,32,76,79,67,65,76,95,73,78,76,73,78,69,0
00007b3b 434f4c5f 
00007b3f 495f4c41 
00007b43 4e494c4e 
00007b47 4f4c2045 
00007b4b 5f4c4143 
00007b4f 494c4e49 
00007b53 00454e 
00007b56 01        13873 	.data.b	1
00007b57 36        13874 	.data.b	54
00007b58 4d777342  13875 	.data.b	66,115,119,77,95,83,101,116,73,112,100,117,71,114,111,117,112,40,112,100,117,73,100,44,98,105,116,86,97,108,41,32,67,111,109,95,83,101,116,73,112,100,117,71,114,111,117,112,40,66,115,119,77,95,67,111,109,73,80,100
00007b5c 7465535f 
00007b60 75647049 
00007b64 756f7247 
00007b68 64702870 
00007b6c 2c644975 
00007b70 56746962 
00007b74 20296c61 
00007b78 5f6d6f43 
00007b7c 49746553 
00007b80 47756470 
00007b84 70756f72 
00007b88 77734228 
00007b8c 6f435f4d 
00007b90 6450496d 
00007b94 6f724775  13876 	.data.b	117,71,114,111,117,112,83,116,97,116,101,44,32,40,112,100,117,73,100,41,44,32,40,98,105,116,86,97,108,41,41,0
00007b98 74537075 
00007b9c 2c657461 
00007ba0 64702820 
00007ba4 29644975 
00007ba8 6228202c 
00007bac 61567469 
00007bb0 0029296c 
00007bb4 01        13877 	.data.b	1
00007bb5 39        13878 	.data.b	57
00007bb6 4d777342  13879 	.data.b	66,115,119,77,95,83,101,116,73,112,100,117,68,77,71,114,111,117,112,40,112,100,117,73,100,44,98,105,116,86,97,108,41,32,67,111,109,95,83,101,116,73,112,100,117,71,114,111,117,112,40,66,115,119,77,95,67,111,109,82
00007bba 7465535f 
00007bbe 75647049 
00007bc2 72474d44 
00007bc6 2870756f 
00007bca 49756470 
00007bce 69622c64 
00007bd2 6c615674 
00007bd6 6f432029 
00007bda 65535f6d 
00007bde 64704974 
00007be2 6f724775 
00007be6 42287075 
00007bea 5f4d7773 
00007bee 526d6f43 
00007bf2 64504978  13880 	.data.b	120,73,80,100,117,71,114,111,117,112,68,77,83,116,97,116,101,44,32,40,112,100,117,73,100,41,44,32,40,98,105,116,86,97,108,41,41,0
00007bf6 6f724775 
00007bfa 4d447075 

                                                                      Page 373
                                                              C:\Users\Fengyuan\AppData\Local\Temp\gh_0000p9o1.s
00007bfe 74617453 
00007c02 28202c65 
00007c06 49756470 
00007c0a 202c2964 
00007c0e 74696228 
00007c12 296c6156 
00007c16 0029 
00007c18 01        13881 	.data.b	1
00007c19 3c        13882 	.data.b	60
00007c1a 4d777342  13883 	.data.b	66,115,119,77,95,77,97,114,107,80,100,117,71,114,111,117,112,67,111,110,116,114,111,108,73,110,118,111,99,97,116,105,111,110,40,99,111,110,116,114,111,108,41,32,66,115,119,77,95,80,100,117,71,114,111,117,112,67,111,110
00007c1e 72614d5f 
00007c22 7564506b 
00007c26 756f7247 
00007c2a 6e6f4370 
00007c2e 6c6f7274 
00007c32 6f766e49 
00007c36 69746163 
00007c3a 63286e6f 
00007c3e 72746e6f 
00007c42 20296c6f 
00007c46 4d777342 
00007c4a 7564505f 
00007c4e 756f7247 
00007c52 6e6f4370 
00007c56 6c6f7274  13884 	.data.b	116,114,111,108,73,110,118,111,99,97,116,105,111,110,32,124,61,32,40,99,111,110,116,114,111,108,41,0
00007c5a 6f766e49 
00007c5e 69746163 
00007c62 7c206e6f 
00007c66 6328203d 
00007c6a 72746e6f 
00007c6e 00296c6f 
00007c72 01        13885 	.data.b	1
00007c73 3d        13886 	.data.b	61
00007c74 4d777342  13887 	.data.b	66,115,119,77,95,77,97,114,107,68,109,67,111,110,116,114,111,108,73,110,118,111,99,97,116,105,111,110,40,41,32,66,115,119,77,95,80,100,117,71,114,111,117,112,67,111,110,116,114,111,108,73,110,118,111,99,97,116,105,111
00007c78 72614d5f 
00007c7c 436d446b 
00007c80 72746e6f 
00007c84 6e496c6f 
00007c88 61636f76 
00007c8c 6e6f6974 
00007c90 42202928 
00007c94 5f4d7773 
00007c98 47756450 
00007c9c 70756f72 
00007ca0 746e6f43 
00007ca4 496c6f72 
00007ca8 636f766e 
00007cac 6f697461 
00007cb0 3d7c206e  13888 	.data.b	110,32,124,61,32,66,83,87,77,95,71,82,79,85,80,67,79,78,84,82,79,76,95,68,77,0
00007cb4 57534220 
00007cb8 52475f4d 
00007cbc 4350554f 
00007cc0 52544e4f 
00007cc4 445f4c4f 
00007cc8 004d 
00007cca 03        13889 	.data.b	3
00007ccb 43        13890 	.data.b	67
00007ccc 19        13891 	.data.b	25
00007ccd 04        13892 	.data.b	4
00007cce 01        13893 	.data.b	1
00007ccf 01a2      13894 	.data.b	162,1

                                                                      Page 374
                                                              C:\Users\Fengyuan\AppData\Local\Temp\gh_0000p9o1.s
00007cd1 4d777342  13895 	.data.b	66,115,119,77,95,65,99,116,105,111,110,76,105,115,116,95,69,83,72,95,65,76,95,73,110,105,116,84,111,87,97,107,101,117,112,32,66,115,119,77,95,65,99,116,105,111,110,76,105,115,116,95,69,83,72,95,65,76,95,87
00007cd5 7463415f 
00007cd9 4c6e6f69 
00007cdd 5f747369 
00007ce1 5f485345 
00007ce5 495f4c41 
00007ce9 5474696e 
00007ced 6b61576f 
00007cf1 20707565 
00007cf5 4d777342 
00007cf9 7463415f 
00007cfd 4c6e6f69 
00007d01 5f747369 
00007d05 5f485345 
00007d09 575f4c41 
00007d0d 46746961  13896 	.data.b	97,105,116,70,111,114,78,118,77,87,97,107,101,117,112,0
00007d11 764e726f 
00007d15 6b61574d 
00007d19 00707565 
00007d1d 03        13897 	.data.b	3
00007d1e 01cd      13898 	.data.b	205,1
00007d20 19        13899 	.data.b	25
00007d21 04        13900 	.data.b	4
00007d22 03        13901 	.data.b	3
00007d23 01d8      13902 	.data.b	216,1
00007d25 19        13903 	.data.b	25
00007d26 04        13904 	.data.b	4
00007d27 03        13905 	.data.b	3
00007d28 01de      13906 	.data.b	222,1
00007d2a 19        13907 	.data.b	25
00007d2b 04        13908 	.data.b	4
00007d2c 03        13909 	.data.b	3
00007d2d 01e2      13910 	.data.b	226,1
00007d2f 19        13911 	.data.b	25
00007d30 04        13912 	.data.b	4
00007d31 03        13913 	.data.b	3
00007d32 01f4      13914 	.data.b	244,1
00007d34 19        13915 	.data.b	25
00007d35 04        13916 	.data.b	4
00007d36 03        13917 	.data.b	3
00007d37 029e      13918 	.data.b	158,2
00007d39 19        13919 	.data.b	25
00007d3a 04        13920 	.data.b	4
00007d3b 03        13921 	.data.b	3
00007d3c 02b9      13922 	.data.b	185,2
00007d3e 19        13923 	.data.b	25
00007d3f 04        13924 	.data.b	4
00007d40 03        13925 	.data.b	3
00007d41 02c7      13926 	.data.b	199,2
00007d43 19        13927 	.data.b	25
00007d44 04        13928 	.data.b	4
00007d45 03        13929 	.data.b	3
00007d46 02d5      13930 	.data.b	213,2
00007d48 19        13931 	.data.b	25
00007d49 04        13932 	.data.b	4
00007d4a 03        13933 	.data.b	3
00007d4b 02e7      13934 	.data.b	231,2
00007d4d 19        13935 	.data.b	25
00007d4e 04        13936 	.data.b	4
00007d4f 03        13937 	.data.b	3
00007d50 02f1      13938 	.data.b	241,2

                                                                      Page 375
                                                              C:\Users\Fengyuan\AppData\Local\Temp\gh_0000p9o1.s
00007d52 19        13939 	.data.b	25
00007d53 04        13940 	.data.b	4
00007d54 03        13941 	.data.b	3
00007d55 0382      13942 	.data.b	130,3
00007d57 19        13943 	.data.b	25
00007d58 04        13944 	.data.b	4
00007d59 03        13945 	.data.b	3
00007d5a 038c      13946 	.data.b	140,3
00007d5c 19        13947 	.data.b	25
00007d5d 04        13948 	.data.b	4
00007d5e 03        13949 	.data.b	3
00007d5f 039b      13950 	.data.b	155,3
00007d61 19        13951 	.data.b	25
00007d62 04        13952 	.data.b	4
00007d63 03        13953 	.data.b	3
00007d64 03b1      13954 	.data.b	177,3
00007d66 19        13955 	.data.b	25
00007d67 04        13956 	.data.b	4
00007d68 03        13957 	.data.b	3
00007d69 03bd      13958 	.data.b	189,3
00007d6b 19        13959 	.data.b	25
00007d6c 04        13960 	.data.b	4
00007d6d 03        13961 	.data.b	3
00007d6e 03cf      13962 	.data.b	207,3
00007d70 19        13963 	.data.b	25
00007d71 04        13964 	.data.b	4
00007d72 03        13965 	.data.b	3
00007d73 03dd      13966 	.data.b	221,3
00007d75 19        13967 	.data.b	25
00007d76 04        13968 	.data.b	4
00007d77 03        13969 	.data.b	3
00007d78 03e5      13970 	.data.b	229,3
00007d7a 19        13971 	.data.b	25
00007d7b 04        13972 	.data.b	4
00007d7c 03        13973 	.data.b	3
00007d7d 03f1      13974 	.data.b	241,3
00007d7f 19        13975 	.data.b	25
00007d80 04        13976 	.data.b	4
00007d81 03        13977 	.data.b	3
00007d82 048c      13978 	.data.b	140,4
00007d84 19        13979 	.data.b	25
00007d85 04        13980 	.data.b	4
00007d86 03        13981 	.data.b	3
00007d87 0498      13982 	.data.b	152,4
00007d89 19        13983 	.data.b	25
00007d8a 04        13984 	.data.b	4
00007d8b 03        13985 	.data.b	3
00007d8c 04a0      13986 	.data.b	160,4
00007d8e 19        13987 	.data.b	25
00007d8f 04        13988 	.data.b	4
00007d90 03        13989 	.data.b	3
00007d91 04ac      13990 	.data.b	172,4
00007d93 19        13991 	.data.b	25
00007d94 04        13992 	.data.b	4
00007d95 03        13993 	.data.b	3
00007d96 04b4      13994 	.data.b	180,4
00007d98 19        13995 	.data.b	25
00007d99 04        13996 	.data.b	4
00007d9a 03        13997 	.data.b	3
00007d9b 04bc      13998 	.data.b	188,4
00007d9d 19        13999 	.data.b	25

                                                                      Page 376
                                                              C:\Users\Fengyuan\AppData\Local\Temp\gh_0000p9o1.s
00007d9e 04        14000 	.data.b	4
00007d9f 03        14001 	.data.b	3
00007da0 04c1      14002 	.data.b	193,4
00007da2 19        14003 	.data.b	25
00007da3 04        14004 	.data.b	4
00007da4 03        14005 	.data.b	3
00007da5 04cd      14006 	.data.b	205,4
00007da7 19        14007 	.data.b	25
00007da8 04        14008 	.data.b	4
00007da9 03        14009 	.data.b	3
00007daa 04d7      14010 	.data.b	215,4
00007dac 19        14011 	.data.b	25
00007dad 04        14012 	.data.b	4
00007dae 03        14013 	.data.b	3
00007daf 04df      14014 	.data.b	223,4
00007db1 19        14015 	.data.b	25
00007db2 04        14016 	.data.b	4
00007db3 03        14017 	.data.b	3
00007db4 04e4      14018 	.data.b	228,4
00007db6 19        14019 	.data.b	25
00007db7 04        14020 	.data.b	4
00007db8 03        14021 	.data.b	3
00007db9 04f0      14022 	.data.b	240,4
00007dbb 19        14023 	.data.b	25
00007dbc 04        14024 	.data.b	4
00007dbd 03        14025 	.data.b	3
00007dbe 04fa      14026 	.data.b	250,4
00007dc0 19        14027 	.data.b	25
00007dc1 04        14028 	.data.b	4
00007dc2 03        14029 	.data.b	3
00007dc3 0582      14030 	.data.b	130,5
00007dc5 19        14031 	.data.b	25
00007dc6 04        14032 	.data.b	4
00007dc7 03        14033 	.data.b	3
00007dc8 0587      14034 	.data.b	135,5
00007dca 19        14035 	.data.b	25
00007dcb 04        14036 	.data.b	4
00007dcc 03        14037 	.data.b	3
00007dcd 058f      14038 	.data.b	143,5
00007dcf 19        14039 	.data.b	25
00007dd0 04        14040 	.data.b	4
00007dd1 03        14041 	.data.b	3
00007dd2 0594      14042 	.data.b	148,5
00007dd4 19        14043 	.data.b	25
00007dd5 04        14044 	.data.b	4
00007dd6 03        14045 	.data.b	3
00007dd7 05a0      14046 	.data.b	160,5
00007dd9 19        14047 	.data.b	25
00007dda 04        14048 	.data.b	4
00007ddb 03        14049 	.data.b	3
00007ddc 05b6      14050 	.data.b	182,5
00007dde 19        14051 	.data.b	25
00007ddf 04        14052 	.data.b	4
00007de0 03        14053 	.data.b	3
00007de1 05c2      14054 	.data.b	194,5
00007de3 19        14055 	.data.b	25
00007de4 04        14056 	.data.b	4
00007de5 03        14057 	.data.b	3
00007de6 05ca      14058 	.data.b	202,5
00007de8 19        14059 	.data.b	25
00007de9 04        14060 	.data.b	4

                                                                      Page 377
                                                              C:\Users\Fengyuan\AppData\Local\Temp\gh_0000p9o1.s
00007dea 03        14061 	.data.b	3
00007deb 05d6      14062 	.data.b	214,5
00007ded 19        14063 	.data.b	25
00007dee 04        14064 	.data.b	4
00007def 03        14065 	.data.b	3
00007df0 05de      14066 	.data.b	222,5
00007df2 19        14067 	.data.b	25
00007df3 04        14068 	.data.b	4
00007df4 03        14069 	.data.b	3
00007df5 05e7      14070 	.data.b	231,5
00007df7 19        14071 	.data.b	25
00007df8 04        14072 	.data.b	4
00007df9 03        14073 	.data.b	3
00007dfa 0bbd      14074 	.data.b	189,11
00007dfc 19        14075 	.data.b	25
00007dfd 04        14076 	.data.b	4
00007dfe 04        14077 	.data.b	4
00007dff 00        14078 	.data.b	0
                   14079 	.section	.debug_abbrev
000001b1 00        14080 	.data.b	0
                   14081 	.section	.debug_info
                   14082 .Ldw_end:
