                                                                      Page 1
                                                              C:\Users\Fengyuan\AppData\Local\Temp\gh_0000sro1.s
Command Line: C:\ghs\comp_201714\asarm.exe -elf -b0 -I../../../bsw/../thirdparty/mcal_s32k/supply/s32k14x_mcal4_2_rtm_hf3_1_0_1/eclipse/plugins/base_ts_t40d2m10i1r0/include -I../../../bsw/../thirdparty/mcal_s32k/supply/s32k14x_mcal4_2_rtm_hf3_1_0_1/eclipse/plugins/dio_ts_t40d2m10i1r0/include -I../../../bsw/../thirdparty/mcal_s32k/supply/s32k14x_mcal4_2_rtm_hf3_1_0_1/eclipse/plugins/mcu_ts_t40d2m10i1r0/include -I../../../bsw/../thirdparty/mcal_s32k/supply/s32k14x_mcal4_2_rtm_hf3_1_0_1/eclipse/plugins/port_ts_t40d2m10i1r0/include -I../../../bsw/../thirdparty/mcal_s32k/supply/s32k14x_mcal4_2_rtm_hf3_1_0_1/eclipse/plugins/spi_ts_t40d2m10i1r0/include -I../../../bsw/_common -I../../../bsw/bswm -I../../../bsw/can -I../../../bsw/canif -I../../../bsw/cansm -I../../../bsw/cantp -I../../../bsw/com -I../../../bsw/comm -I../../../bsw/dcm -I../../../bsw/dem -I../../../bsw/det -I../../../bsw/ecum -I../../../bsw/gendata -I../../../bsw/iohwab -I../../../bsw/mcal_s32k -I../../../bsw/os -I../../../bsw/pdur -I../../../bsw/vstdlib -I./shared/zbrs_armcommon -I./shared/zbrs_asrembeddedruntimesystemcfg5 -I./shared/zbrs_s32arm -Ic:/ghs/comp_201714/ansi -Ic:/ghs/comp_201714/include/arm -Igendata -Igendata/components -Igendata/include -Iinclude -IC:\ghs\comp_201714\lib\thumb2 -cpu=cortexm4 -fpu=soft -patch_dbo=C:\Vector\CBD1800257_D01_S32K1xx\Applications\S32K144_Start_new\Appl\obj\Can.dbo -source=Can.c -o obj\gh_0000sro1.o -list=lst/Can.lst C:\Users\Fengyuan\AppData\Local\Temp\gh_0000sro1.s 
Original File: C:\Users\Fengyuan\AppData\Local\Temp\gh_0000sro1.s
Source File: Can.c
Directory: C:\Vector\CBD1800257_D01_S32K1xx\Applications\S32K144_Start_new\Appl
Host OS: Windows
EASE: Copyright (C) 1983-2016 Green Hills Software.  All Rights Reserved.
Release: Compiler v2017.1.4
Build Directory: [Directory] COMP-VAL-WIN47:l:/compiler/release-branch-2017-1-comp/build/v2017.1-2017-04-09/win32-comp-ecom
Revision: [VCInfo] http://toolsvc/branches/release-branch-2017-1-comp/src@589570 (built by auto-compiler)
Revision Date: Mon Apr 10 10:52:57 2017

Release Date: Mon Apr 10 08:00:05 2017

                       1 ;Driver Command: ccarm -DBRS_DERIVATIVE_S32K144 -DBRS_OSC_CLK=8
                       2 ;		-DBRS_TIMEBASE_CLOCK=96 -DBRS_OS_USECASE_OSGEN7 -DBRS_EVA_BOARD_
                       3 ;		-DBRS_PROGRAM_CODE_LOCATION_FLASH
                       4 ;		-DBRS_VECTOR_TABLE_LOCATION_FLASH -DBRS_CPU_CORE_CORTEX_M4
                       5 ;		-DBRS_STACK_SIZE=0xC800 -DBRS_PLATFORM_ARM -DBRS_COMP_GHS
                       6 ;		-DBRS_INSTRUCTION_SET_ARM -DBRS_OPTIONBYTES_ADR=1
                       7 ;		-DBRS_RAM_ETH_SIZE=0 -DBRS_RAM_ETH_MAPPING=0
                       8 ;		-DBRS_RAM_SIZE=0x0000F000 -DBRS_RAM_MAPPING=0x1FFF8000 -c
                       9 ;		-object_dir=obj -list=lst/Can.lst --diag_suppress=1 -cpu=cortexm4
                      10 ;		-noobj --long_long -g -dual_debug -farcalls -dwarf2
                      11 ;		-no_misalign_pack -nostartfiles -act_like=2015.1
                      12 ;		-pragma_asm_inline -thumb -thumb_lib -Osize -object_dir= -e
                      13 ;		Startup_Handler
                      14 ;		-I../../../bsw/../thirdparty/mcal_s32k/supply/s32k14x_mcal4_2_rtm_hf3_1_0_1/eclipse/plugins/base_ts_t40d2m10i1r0/include
                      15 ;		-I../../../bsw/../thirdparty/mcal_s32k/supply/s32k14x_mcal4_2_rtm_hf3_1_0_1/eclipse/plugins/dio_ts_t40d2m10i1r0/include
                      16 ;		-I../../../bsw/../thirdparty/mcal_s32k/supply/s32k14x_mcal4_2_rtm_hf3_1_0_1/eclipse/plugins/mcu_ts_t40d2m10i1r0/include
                      17 ;		-I../../../bsw/../thirdparty/mcal_s32k/supply/s32k14x_mcal4_2_rtm_hf3_1_0_1/eclipse/plugins/port_ts_t40d2m10i1r0/include
                      18 ;		-I../../../bsw/../thirdparty/mcal_s32k/supply/s32k14x_mcal4_2_rtm_hf3_1_0_1/eclipse/plugins/spi_ts_t40d2m10i1r0/include
                      19 ;		-I../../../bsw/_common -I../../../bsw/bswm -I../../../bsw/can
                      20 ;		-I../../../bsw/canif -I../../../bsw/cansm -I../../../bsw/cantp
                      21 ;		-I../../../bsw/com -I../../../bsw/comm -I../../../bsw/dcm
                      22 ;		-I../../../bsw/dem -I../../../bsw/det -I../../../bsw/ecum
                      23 ;		-I../../../bsw/gendata -I../../../bsw/iohwab
                      24 ;		-I../../../bsw/mcal_s32k -I../../../bsw/os -I../../../bsw/pdur
                      25 ;		-I../../../bsw/vstdlib -I./shared/zbrs_armcommon
                      26 ;		-I./shared/zbrs_asrembeddedruntimesystemcfg5
                      27 ;		-I./shared/zbrs_s32arm -Ic:/ghs/comp_201714/ansi
                      28 ;		-Ic:/ghs/comp_201714/include/arm -Igendata -Igendata/components
                      29 ;		-Igendata/include -Iinclude ../../../BSW/Can/Can.c
                      30 ;Source File:   ../../../BSW/Can/Can.c
                      31 ;Directory:     
                      32 ;		C:\Vector\CBD1800257_D01_S32K1xx\Applications\S32K144_Start_new\Appl
                      33 ;Compile Date:  Fri Jun 18 09:56:56 2021
                      34 ;Host OS:       Win32
                      35 ;Version:       C-ARM 2017.1.4 RELEASE VERSION
                      36 ;Release:       Compiler v2017.1.4
                      37 ;Revision Date: Tue Apr 11 01:37:22 2017
                      38 ;Release Date:  Mon Apr 10 08:00:05 2017
                      39 ; ecom  -g -w -OMS
                      40 
                      41 ;source	none	param
                      42 
                      43 	.section ".rodata","a"
                      44 	.align	4
00000000 00000000     45 Can_ConfigDataPtr::	.data.b	0,0,0,0
                      46 	.endo	Can_ConfigDataPtr
                      47 	.text
                      48 ..bof.C.3A.5CVector.5CCBD1800257_D01_S32K1xx.5CApplications.5CS32K144_Start_new.5CAppl.5Cobj.5CCan...43.3A.5CVector.5CCBD1800257_D01_S32K1xx.5CApplications.5CS32K144_Start_new.5CAppl..60CBFD68..0::
                      49 	.align	2
                      50 ..gh.f.a.1.e.0:

                                                                      Page 2
                                                              C:\Users\Fengyuan\AppData\Local\Temp\gh_0000sro1.s
                      51 	.endo	..gh.f.a.1.e.0
                      52 	.thumb2
                      53 	.global	CanLL_ComputeMailboxInterrupt..C.3A.5CVector.5CCBD1800257_D01_S32K1xx.5CApplications.5CS32K144_Start_new.5CAppl.5Cobj.5CCan.
                      54 CanLL_ComputeMailboxInterrupt..C.3A.5CVector.5CCBD1800257_D01_S32K1xx.5CApplications.5CS32K144_Start_new.5CAppl.5Cobj.5CCan.:
                      55 CanLL_ComputeMailboxInterrupt:
00000000 b5f0         56 	push	{r4-r7,lr}
00000002 4605         57 	cpy	r5,r0
00000004 460e         58 	cpy	r6,r1
00000006 4617         59 	cpy	r7,r2
                      60 .LDW01:
00000008 ea110005     61 	ands	r0,r1,r5
0000000c 4614         62 	cpy	r4,r2
0000000e e01e*        63 	b	.L921
                      64 .L926:
                      65 ;line5958
                      66 ..lin.a553691..49333824.0_1::
                      67 .LDWlin1:
00000010 0a00         68 	lsrs	r0,r0,8
00000012 3408         69 	adds	r4,8
00000014 b2e4         70 	uxtb	r4,r4
                      71 .L924:
00000016 0601         72 	lsls	r1,r0,24
00000018 d0fa*        73 	beq	.L926
                      74 ;line5961
                      75 ..lin.a553691..49333824.0_2::
                      76 .LDWlin2:
0000001a 0701         77 	lsls	r1,r0,28
0000001c d105*        78 	bne	.L929
                      79 ;line5963
                      80 ..lin.a553691..49333824.0_3::
                      81 .LDWlin3:
0000001e 0900         82 	lsrs	r0,r0,4
00000020 3404         83 	adds	r4,4
00000022 e001*        84 	b	.L1134
                      85 .L931:
                      86 ;line5968
                      87 ..lin.a553691..49333824.0_4::
                      88 .LDWlin4:
00000024 0840         89 	lsrs	r0,r0,1
00000026 3401         90 	adds	r4,1
                      91 .L1134:
                      92 
00000028 b2e4         93 	uxtb	r4,r4
                      94 .L929:
0000002a 07c1         95 	lsls	r1,r0,31
0000002c d5fa*        96 	bpl	.L931
                      97 ;line5979
                      98 ..lin.a553691..49333824.0_5::
                      99 .LDWlin5:
0000002e 48c9*       100 	ldr	r0,.L1148
00000030 78c1        101 	ldrb	r1,[r0,3]
00000032 428c        102 	cmp	r4,r1
00000034 d305*       103 	blo	.L932
00000036 7980        104 	ldrb	r0,[r0,6]
00000038 4284        105 	cmp	r4,r0
0000003a d202*       106 	bhs	.L932
0000003c 49c6*       107 	ldr	r1,.L1149
0000003e 4620        108 	cpy	r0,r4
00000040 4788        109 	blx	r1
                     110 .L932:
                     111 ;line5982

                                                                      Page 3
                                                              C:\Users\Fengyuan\AppData\Local\Temp\gh_0000sro1.s
                     112 ..lin.a553691..49333824.0_6::
                     113 .LDWlin6:
00000042 3401        114 	adds	r4,1
00000044 b2e4        115 	uxtb	r4,r4
00000046 ea160005    116 	ands	r0,r6,r5
0000004a 1be1        117 	subs	r1,r4,r7
0000004c 40c8        118 	lsrs	r0,r1
                     119 .L921:
0000004e 2800        120 	cmp	r0,0
00000050 d1e1*       121 	bne	.L924
                     122 .LDW11:
                     123 ;line5985
                     124 ..lin.a553691..49333824.0_7::
                     125 .LDWlin7:
00000052 bdf0        126 	pop	{r4-r7,pc}
                     127 __ghs_eofn_CanLL_ComputeMailboxInterrupt:
                     128 	.endf	CanLL_ComputeMailboxInterrupt
                     129 	.endf	CanLL_ComputeMailboxInterrupt..C.3A.5CVector.5CCBD1800257_D01_S32K1xx.5CApplications.5CS32K144_Start_new.5CAppl.5Cobj.5CCan.
                     130 ;activeInterrupts	r0	local
                     131 ;index	r4	local
                     132 
                     133 ;iFlags	r5	param
                     134 ;iMask	r6	param
                     135 ;startIndex	r7	param
                     136 
                     137 	.section ".bss","awb"
                     138 .L1021:
                     139 	.endo	.L1021
                     140 	.text
                     141 ..gh.f.a.1.e.1:
                     142 	.endo	..gh.f.a.1.e.1
                     143 CanBusOffInterrupt::
                     144 .LDW21:
00000054 48c1*       145 	ldr	r0,.L1189
00000056 4700        146 	bx	r0
                     147 .LDW31:
                     148 __ghs_eofn_CanBusOffInterrupt::
                     149 	.endf	CanBusOffInterrupt
                     150 
                     151 	.section ".bss","awb"
                     152 .L1166:
                     153 	.endo	.L1166
                     154 	.text
                     155 ..gh.f.a.1.e.2:
                     156 	.endo	..gh.f.a.1.e.2
                     157 CanMailboxInterrupt::
00000058 b530        158 	push	{r4-r5,lr}
                     159 .LDW41:
0000005a 48c1*       160 	ldr	r0,.L1290
0000005c 2400        161 	movs	r4,0
0000005e 6805        162 	ldr	r5,[r0]
00000060 e004*       163 	b	.L1192
                     164 .L1194:
                     165 ;line6364
                     166 ..lin.a553691..269b5710.0_8::
                     167 .LDWlin8:
00000062 3401        168 	adds	r4,1
00000064 49bf*       169 	ldr	r1,.L1291
00000066 b2e4        170 	uxtb	r4,r4
00000068 2000        171 	movs	r0,0
0000006a 4788        172 	blx	r1

                                                                      Page 4
                                                              C:\Users\Fengyuan\AppData\Local\Temp\gh_0000sro1.s
                     173 .L1192:
0000006c 6b28        174 	ldr	r0,[r5,48]
0000006e 0680        175 	lsls	r0,r0,26
00000070 d501*       176 	bpl	.L1193
00000072 2c06        177 	cmp	r4,6
00000074 d3f5*       178 	blo	.L1194
                     179 .L1193:
                     180 ;line6372
                     181 ..lin.a553691..269b5710.0_9::
                     182 .LDWlin9:
00000076 6aa9        183 	ldr	r1,[r5,40]
00000078 4bbb*       184 	ldr	r3,.L1292
0000007a 6b28        185 	ldr	r0,[r5,48]
0000007c 2200        186 	movs	r2,0
0000007e 4798        187 	blx	r3
                     188 .LDW51:
00000080 bd30        189 	pop	{r4-r5,pc}
                     190 __ghs_eofn_CanMailboxInterrupt::
                     191 	.endf	CanMailboxInterrupt
                     192 ;fifoLoopCnt	r4	local
                     193 ;pFlexCANLocal	r5	local
                     194 
                     195 	.section ".bss","awb"
                     196 .L1230:
                     197 	.endo	.L1230
                     198 	.text
                     199 ..gh.f.a.1.e.3:
                     200 	.endo	..gh.f.a.1.e.3
                     201 	.global	CanHL_TxConfirmation..C.3A.5CVector.5CCBD1800257_D01_S32K1xx.5CApplications.5CS32K144_Start_new.5CAppl.5Cobj.5CCan.
                     202 CanHL_TxConfirmation..C.3A.5CVector.5CCBD1800257_D01_S32K1xx.5CApplications.5CS32K144_Start_new.5CAppl.5Cobj.5CCan.:
                     203 CanHL_TxConfirmation:
00000082 b510        204 	push	{r4,lr}
                     205 .LDW61:
00000084 4ab6*       206 	ldr	r2,.L1290
00000086 f1120128    207 	adds	r1,r2,40
0000008a 78cb        208 	ldrb	r3,[r1,3]
0000008c 4298        209 	cmp	r0,r3
0000008e d317*       210 	blo	.L1306
00000090 7989        211 	ldrb	r1,[r1,6]
00000092 4288        212 	cmp	r0,r1
00000094 d214*       213 	bhs	.L1306
                     214 .LDW71:
                     215 
                     216 ;line6502
                     217 ..lin.a553691..8b53b3df.0_10::
                     218 .LDWlin10:
00000096 4bb5*       219 	ldr	r3,.L1454
00000098 8819        220 	ldrh	r1,[r3]
0000009a 1809        221 	adds	r1,r1,r0
0000009c b2c9        222 	uxtb	r1,r1
0000009e 2820        223 	cmp	r0,32
000000a0 d205*       224 	bhs	.L1303
                     225 ;line6507
                     226 ..lin.a553691..8b53b3df.0_11::
                     227 .LDWlin11:
000000a2 6812        228 	ldr	r2,[r2]
000000a4 f000001f    229 	and	r0,r0,31
000000a8 2301        230 	movs	r3,1
000000aa 4083        231 	lsls	r3,r0
000000ac 6313        232 	str	r3,[r2,48]
                     233 .L1303:

                                                                      Page 5
                                                              C:\Users\Fengyuan\AppData\Local\Temp\gh_0000sro1.s
000000ae 4ab0*       234 	ldr	r2,.L1455
000000b0 0049        235 	lsls	r1,r1,1
000000b2 1850        236 	adds	r0,r2,r1
000000b4 23ff        237 	movs	r3,255
000000b6 7043        238 	strb	r3,[r0,1]
                     239 .LDW81:
                     240 
000000b8 5c88        241 	ldrb	r0,[r1,r2]
000000ba 49ae*       242 	ldr	r1,.L1456
000000bc 4788        243 	blx	r1
000000be e005*       244 	b	.L1293
                     245 .L1306:
                     246 ;line6709
                     247 ..lin.a553691..8b53b3df.0_12::
                     248 .LDWlin12:
000000c0 2211        249 	movs	r2,17
000000c2 2050        250 	movs	r0,80
000000c4 4cac*       251 	ldr	r4,.L1457
000000c6 2302        252 	movs	r3,2
000000c8 2100        253 	movs	r1,0
000000ca 47a0        254 	blx	r4
                     255 .L1293:
                     256 .LDW91:
000000cc bd10        257 	pop	{r4,pc}
                     258 __ghs_eofn_CanHL_TxConfirmation:
                     259 	.endf	CanHL_TxConfirmation
                     260 	.endf	CanHL_TxConfirmation..C.3A.5CVector.5CCBD1800257_D01_S32K1xx.5CApplications.5CS32K144_Start_new.5CAppl.5Cobj.5CCan.
                     261 ;logTxObjHandle	r1	local
                     262 
                     263 ;txObjHandle	r0	param
                     264 
                     265 	.section ".bss","awb"
                     266 .L1385:
                     267 	.endo	.L1385
                     268 	.text
                     269 ..gh.f.a.1.e.4:
                     270 	.endo	..gh.f.a.1.e.4
                     271 	.global	CanBasicCanMsgReceived..C.3A.5CVector.5CCBD1800257_D01_S32K1xx.5CApplications.5CS32K144_Start_new.5CAppl.5Cobj.5CCan.
                     272 CanBasicCanMsgReceived..C.3A.5CVector.5CCBD1800257_D01_S32K1xx.5CApplications.5CS32K144_Start_new.5CAppl.5Cobj.5CCan.:
                     273 CanBasicCanMsgReceived:
000000ce b5f0        274 	push	{r4-r7,lr}
000000d0 b081        275 	sub	sp,4
                     276 .LDW02:
000000d2 4da3*       277 	ldr	r5,.L1290
000000d4 9000        278 	str	r0,[sp]
000000d6 4ca9*       279 	ldr	r4,.L1715
000000d8 682a        280 	ldr	r2,[r5]
000000da f1120180    281 	adds	r1,r2,128
000000de eb111000    282 	adds	r0,r1,r0 lsl 4
000000e2 8841        283 	ldrh	r1,[r0,2]
000000e4 8021        284 	strh	r1,[r4]
000000e6 6841        285 	ldr	r1,[r0,4]
000000e8 6061        286 	str	r1,[r4,4]
000000ea 4601        287 	cpy	r1,r0
000000ec 6880        288 	ldr	r0,[r0,8]
000000ee f44f037f    289 	mov	r3,255<<16
000000f2 688e        290 	ldr	r6,[r1,8]
000000f4 401e        291 	ands	r6,r3
000000f6 0a36        292 	lsrs	r6,r6,8
000000f8 ea566710    293 	orrs	r7,r6,r0 lsr 24
000000fc 6888        294 	ldr	r0,[r1,8]

                                                                      Page 6
                                                              C:\Users\Fengyuan\AppData\Local\Temp\gh_0000sro1.s
000000fe 0a1e        295 	lsrs	r6,r3,8
00000100 4030        296 	ands	r0,r6
00000102 ea572700    297 	orrs	r7,r7,r0 lsl 8
00000106 6888        298 	ldr	r0,[r1,8]
00000108 ea576000    299 	orrs	r0,r7,r0 lsl 24
0000010c 60a0        300 	str	r0,[r4,8]
0000010e 68c8        301 	ldr	r0,[r1,12]
00000110 68cf        302 	ldr	r7,[r1,12]
00000112 401f        303 	ands	r7,r3
00000114 0a3b        304 	lsrs	r3,r7,8
00000116 ea536010    305 	orrs	r0,r3,r0 lsr 24
0000011a 68cb        306 	ldr	r3,[r1,12]
0000011c 4033        307 	ands	r3,r6
0000011e 68c9        308 	ldr	r1,[r1,12]
00000120 ea502003    309 	orrs	r0,r0,r3 lsl 8
00000124 ea506001    310 	orrs	r0,r0,r1 lsl 24
00000128 60e0        311 	str	r0,[r4,12]
0000012a 2020        312 	movs	r0,32
0000012c 6310        313 	str	r0,[r2,48]
0000012e 6b10        314 	ldr	r0,[r2,48]
00000130 0600        315 	lsls	r0,r0,24
00000132 d507*       316 	bpl	.L1467
                     317 ;line6801
                     318 ..lin.a553691..111d3919.0_13::
                     319 .LDWlin13:
00000134 20c0        320 	movs	r0,192
00000136 6310        321 	str	r0,[r2,48]
00000138 2210        322 	movs	r2,16
0000013a 2050        323 	movs	r0,80
0000013c 4e8e*       324 	ldr	r6,.L1457
0000013e 2307        325 	movs	r3,7
00000140 2100        326 	movs	r1,0
00000142 47b0        327 	blx	r6
                     328 .L1467:
00000144 8820        329 	ldrh	r0,[r4]
00000146 6861        330 	ldr	r1,[r4,4]
00000148 f000020f    331 	and	r2,r0,15
0000014c f3c1400c    332 	ubfx	r0,r1,16,13
00000150 0881        333 	lsrs	r1,r0,2
00000152 f8950027    334 	ldrb	r0,[r5,39]
00000156 9b00        335 	ldr	r3,[sp]
00000158 1a18        336 	subs	r0,r3,r0
0000015a 7dab        337 	ldrb	r3,[r5,22]
0000015c 4f88*       338 	ldr	r7,.L1717
0000015e b2c0        339 	uxtb	r0,r0
00000160 eb1706c3    340 	adds	r6,r7,r3 lsl 3
00000164 7936        341 	ldrb	r6,[r6,4]
00000166 fb90f0f6    342 	sdiv	r0,r0,r6
0000016a 1818        343 	adds	r0,r3,r0
0000016c b2c0        344 	uxtb	r0,r0
0000016e 4298        345 	cmp	r0,r3
00000170 d302*       346 	blo	.L1476
00000172 7cab        347 	ldrb	r3,[r5,18]
00000174 4298        348 	cmp	r0,r3
00000176 d305*       349 	blo	.L1475
                     350 .L1476:
                     351 ;line6855
                     352 ..lin.a553691..111d3919.0_14::
                     353 .LDWlin14:
00000178 2302        354 	movs	r3,2
                     355 .L1491:

                                                                      Page 7
                                                              C:\Users\Fengyuan\AppData\Local\Temp\gh_0000sro1.s
0000017a 2210        356 	movs	r2,16
0000017c 2050        357 	movs	r0,80
0000017e 2100        358 	movs	r1,0
00000180 4c7d*       359 	ldr	r4,.L1457
00000182 e006*       360 	b	.L1458
                     361 .L1475:
                     362 ;line6861
                     363 ..lin.a553691..111d3919.0_15::
                     364 .LDWlin15:
00000184 2a08        365 	cmp	r2,8
00000186 d901*       366 	bls	.L1484
                     367 ;line6863
                     368 ..lin.a553691..111d3919.0_16::
                     369 .LDWlin16:
00000188 2303        370 	movs	r3,3
0000018a e7f6*       371 	b	.L1491
                     372 .L1484:
                     373 ;line6869
                     374 ..lin.a553691..111d3919.0_17::
                     375 .LDWlin17:
0000018c f1140308    376 	adds	r3,r4,8
00000190 4c7c*       377 	ldr	r4,.L1718
                     378 .L1458:
00000192 47a0        379 	blx	r4
                     380 .LDW12:
00000194 b001        381 	add	sp,4
00000196 bdf0        382 	pop	{r4-r7,pc}
                     383 __ghs_eofn_CanBasicCanMsgReceived:
                     384 	.endf	CanBasicCanMsgReceived
                     385 	.endf	CanBasicCanMsgReceived..C.3A.5CVector.5CCBD1800257_D01_S32K1xx.5CApplications.5CS32K144_Start_new.5CAppl.5Cobj.5CCan.
                     386 
                     387 ;rxObjHandle	r0	param
                     388 
                     389 	.section ".bss","awb"
                     390 .L1613:
                     391 	.endo	.L1613
                     392 	.text
                     393 ..gh.f.a.1.e.5:
                     394 	.endo	..gh.f.a.1.e.5
                     395 	.global	CanHL_ErrorHandling..C.3A.5CVector.5CCBD1800257_D01_S32K1xx.5CApplications.5CS32K144_Start_new.5CAppl.5Cobj.5CCan.
                     396 CanHL_ErrorHandling..C.3A.5CVector.5CCBD1800257_D01_S32K1xx.5CApplications.5CS32K144_Start_new.5CAppl.5Cobj.5CCan.:
                     397 CanHL_ErrorHandling:
00000198 b510        398 	push	{r4,lr}
                     399 .LDW22:
                     400 .LDW32:
                     401 
0000019a 4871*       402 	ldr	r0,.L1290
0000019c 6801        403 	ldr	r1,[r0]
0000019e 6a0a        404 	ldr	r2,[r1,32]
000001a0 0752        405 	lsls	r2,r2,29
000001a2 d522*       406 	bpl	.L1719
                     407 ;line7120
                     408 ..lin.a553691..8b3957f9.0_18::
                     409 .LDWlin18:
000001a4 2206        410 	movs	r2,6
000001a6 3028        411 	adds	r0,40
000001a8 620a        412 	str	r2,[r1,32]
000001aa 78c2        413 	ldrb	r2,[r0,3]
000001ac e007*       414 	b	.L1726
                     415 .L1725:
                     416 ;line7126

                                                                      Page 8
                                                              C:\Users\Fengyuan\AppData\Local\Temp\gh_0000sro1.s
                     417 ..lin.a553691..8b3957f9.0_19::
                     418 .LDWlin19:
000001ae f1110480    419 	adds	r4,r1,128
000001b2 eb141302    420 	adds	r3,r4,r2 lsl 4
000001b6 f44f6400    421 	mov	r4,1<<11
000001ba 3201        422 	adds	r2,1
000001bc 805c        423 	strh	r4,[r3,2]
                     424 .L1726:
000001be 7983        425 	ldrb	r3,[r0,6]
000001c0 429a        426 	cmp	r2,r3
000001c2 d3f4*       427 	blo	.L1725
                     428 ;line7130
                     429 ..lin.a553691..8b3957f9.0_20::
                     430 .LDWlin20:
000001c4 4870*       431 	ldr	r0,.L1847
000001c6 4780        432 	blx	r0
000001c8 4970*       433 	ldr	r1,.L1848
000001ca 2003        434 	movs	r0,3
000001cc 7008        435 	strb	r0,[r1]
000001ce 2001        436 	movs	r0,1
000001d0 7088        437 	strb	r0,[r1,2]
000001d2 7908        438 	ldrb	r0,[r1,4]
000001d4 f000000c    439 	and	r0,r0,12
000001d8 f0500002    440 	orrs	r0,r0,2
000001dc 7108        441 	strb	r0,[r1,4]
000001de 486c*       442 	ldr	r0,.L1849
000001e0 4780        443 	blx	r0
000001e2 4b6c*       444 	ldr	r3,.L1850
000001e4 496c*       445 	ldr	r1,.L1851
000001e6 7818        446 	ldrb	r0,[r3]
000001e8 4788        447 	blx	r1
                     448 .L1719:
                     449 .LDW42:
                     450 
                     451 .LDW52:
000001ea bd10        452 	pop	{r4,pc}
                     453 __ghs_eofn_CanHL_ErrorHandling:
                     454 	.endf	CanHL_ErrorHandling
                     455 	.endf	CanHL_ErrorHandling..C.3A.5CVector.5CCBD1800257_D01_S32K1xx.5CApplications.5CS32K144_Start_new.5CAppl.5Cobj.5CCan.
                     456 ;hwObjHandle	r2	local
                     457 ;pFlexCANLocal	r1	local
                     458 
                     459 	.section ".bss","awb"
                     460 .L1786:
                     461 	.endo	.L1786
                     462 	.text
                     463 ..gh.f.a.1.e.6:
                     464 	.endo	..gh.f.a.1.e.6
                     465 Can_InitMemory::
                     466 .LDW62:
000001ec 496b*       467 	ldr	r1,.L1887
000001ee 2000        468 	movs	r0,0
000001f0 7008        469 	strb	r0,[r1]
                     470 .LDW72:
000001f2 4770        471 	ret
                     472 __ghs_eofn_Can_InitMemory::
                     473 	.endf	Can_InitMemory
                     474 
                     475 	.section ".bss","awb"
                     476 canConfigInitFlag..C.3A.5CVector.5CCBD1800257_D01_S32K1xx.5CApplications.5CS32K144_Start_new.5CAppl.5Cobj.5CCan.::
00000000 00          477 canConfigInitFlag:	.space	1

                                                                      Page 9
                                                              C:\Users\Fengyuan\AppData\Local\Temp\gh_0000sro1.s
                     478 	.endo	canConfigInitFlag..C.3A.5CVector.5CCBD1800257_D01_S32K1xx.5CApplications.5CS32K144_Start_new.5CAppl.5Cobj.5CCan.
                     479 	.endo	canConfigInitFlag
                     480 	.text
                     481 ..gh.f.a.1.e.7:
                     482 	.endo	..gh.f.a.1.e.7
                     483 Can_ChangeBaudrate::
000001f4 b5f0        484 	push	{r4-r7,lr}
                     485 .LDW82:
000001f6 4a69*       486 	ldr	r2,.L1887
000001f8 2401        487 	movs	r4,1
000001fa 7810        488 	ldrb	r0,[r2]
000001fc b908*       489 	cbnz	r0,.L1890
000001fe 2305        490 	movs	r3,5
00000200 e018*       491 	b	.L1905
                     492 .L1890:
00000202 4862*       493 	ldr	r0,.L1848
                     494 ;line7375
                     495 ..lin.a553691..85304fc4.0_21::
                     496 .LDWlin21:
00000204 2308        497 	movs	r3,8
00000206 7902        498 	ldrb	r2,[r0,4]
00000208 0792        499 	lsls	r2,r2,30
0000020a d401*       500 	bmi	.L1893
                     501 ;line7377
                     502 ..lin.a553691..85304fc4.0_22::
                     503 .LDWlin22:
0000020c 2306        504 	movs	r3,6
0000020e e011*       505 	b	.L1905
                     506 .L1893:
                     507 .LDW92:
                     508 
                     509 ;line7384
                     510 ..lin.a553691..85304fc4.0_23::
                     511 .LDWlin23:
00000210 4d63*       512 	ldr	r5,.L2145
00000212 782a        513 	ldrb	r2,[r5]
00000214 e00b*       514 	b	.L1899
                     515 .L1898:
                     516 ;line7386
                     517 ..lin.a553691..85304fc4.0_24::
                     518 .LDWlin24:
00000216 4f63*       519 	ldr	r7,.L2146
00000218 883e        520 	ldrh	r6,[r7]
0000021a 428e        521 	cmp	r6,r1
0000021c d106*       522 	bne	.L1897
                     523 ;line7388
                     524 ..lin.a553691..85304fc4.0_25::
                     525 .LDWlin25:
0000021e 70c2        526 	strb	r2,[r0,3]
00000220 4a61*       527 	ldr	r2,.L2147
00000222 2100        528 	movs	r1,0
00000224 4608        529 	cpy	r0,r1
00000226 4790        530 	blx	r2
00000228 2400        531 	movs	r4,0
0000022a e008*       532 	b	.L1904
                     533 .L1897:
                     534 ;line7384
                     535 ..lin.a553691..85304fc4.0_26::
                     536 .LDWlin26:
0000022c 3201        537 	adds	r2,1
                     538 .L1899:

                                                                      Page 10
                                                              C:\Users\Fengyuan\AppData\Local\Temp\gh_0000sro1.s
0000022e 786e        539 	ldrb	r6,[r5,1]
00000230 42b2        540 	cmp	r2,r6
00000232 d3f0*       541 	blo	.L1898
                     542 .L1905:
                     543 .LDW03:
                     544 
                     545 ;line7401
                     546 ..lin.a553691..85304fc4.0_27::
                     547 .LDWlin27:
00000234 220d        548 	movs	r2,13
00000236 4d50*       549 	ldr	r5,.L1457
00000238 2050        550 	movs	r0,80
0000023a 2100        551 	movs	r1,0
0000023c 47a8        552 	blx	r5
                     553 .L1904:
0000023e 4620        554 	cpy	r0,r4
                     555 .LDW13:
00000240 bdf0        556 	pop	{r4-r7,pc}
                     557 __ghs_eofn_Can_ChangeBaudrate::
                     558 	.endf	Can_ChangeBaudrate
                     559 ;retVal	r4	local
                     560 ;errorId	r3	local
                     561 ;baudrateIndex	r2	local
                     562 
                     563 ;Controller	none	param
                     564 ;Baudrate	r1	param
                     565 
                     566 	.assert 0x0 + (canRxTaskActive - canConfigInitFlag) +0 == 4
                     567 	.assert 0x0 + (canConfigInitFlag - canConfigInitFlag) +0 == 0
                     568 ..gh.f.a.1.e.8:
                     569 	.endo	..gh.f.a.1.e.8
                     570 Can_Init::
00000242 b510        571 	push	{r4,lr}
00000244 4955*       572 	ldr	r1,.L1887
                     573 .LDW23:
00000246 7808        574 	ldrb	r0,[r1]
00000248 b9a8*       575 	cbnz	r0,.L2165
0000024a 2001        576 	movs	r0,1
0000024c 6048        577 	str	r0,[r1,4]
0000024e 2004        578 	movs	r0,4
00000250 7008        579 	strb	r0,[r1]
00000252 484e*       580 	ldr	r0,.L1848
00000254 2100        581 	movs	r1,0
00000256 4b52*       582 	ldr	r3,.L2145
00000258 7181        583 	strb	r1,[r0,6]
0000025a 7001        584 	strb	r1,[r0]
0000025c 7081        585 	strb	r1,[r0,2]
0000025e 7819        586 	ldrb	r1,[r3]
00000260 70c1        587 	strb	r1,[r0,3]
00000262 2100        588 	movs	r1,0
00000264 7041        589 	strb	r1,[r0,1]
00000266 4b3e*       590 	ldr	r3,.L1290
00000268 2102        591 	movs	r1,2
0000026a 7101        592 	strb	r1,[r0,4]
0000026c 4a4f*       593 	ldr	r2,.L2254
0000026e 8a19        594 	ldrh	r1,[r3,16]
00000270 2000        595 	movs	r0,0
00000272 4790        596 	blx	r2
00000274 e005*       597 	b	.L2148
                     598 .L2165:
                     599 ;line7837

                                                                      Page 11
                                                              C:\Users\Fengyuan\AppData\Local\Temp\gh_0000sro1.s
                     600 ..lin.a553691..83377caa.0_28::
                     601 .LDWlin28:
00000276 2050        602 	movs	r0,80
00000278 2306        603 	movs	r3,6
0000027a 4c3f*       604 	ldr	r4,.L1457
0000027c 2200        605 	movs	r2,0
0000027e 4611        606 	cpy	r1,r2
00000280 47a0        607 	blx	r4
                     608 .L2148:
                     609 .LDW33:
00000282 bd10        610 	pop	{r4,pc}
                     611 __ghs_eofn_Can_Init::
                     612 	.endf	Can_Init
                     613 
                     614 ;ConfigPtr	none	param
                     615 
                     616 	.section ".bss","awb"
00000001 000000      617 	.space	3
                     618 	.align	4
                     619 canRxTaskActive..C.3A.5CVector.5CCBD1800257_D01_S32K1xx.5CApplications.5CS32K144_Start_new.5CAppl.5Cobj.5CCan.::
00000004 00000000    620 canRxTaskActive:	.space	4
                     621 	.endo	canRxTaskActive..C.3A.5CVector.5CCBD1800257_D01_S32K1xx.5CApplications.5CS32K144_Start_new.5CAppl.5Cobj.5CCan.
                     622 	.endo	canRxTaskActive
                     623 	.text
                     624 ..gh.f.a.1.e.9:
                     625 	.endo	..gh.f.a.1.e.9
                     626 Can_InitController::
00000284 b5f0        627 	push	{r4-r7,lr}
00000286 b089        628 	sub	sp,36
                     629 .LDW43:
00000288 4944*       630 	ldr	r1,.L1887
0000028a 7808        631 	ldrb	r0,[r1]
0000028c 2800        632 	cmp	r0,0
0000028e f000812c*   633 	beq	.L2380
                     634 .LDW53:
                     635 
                     636 ;line7965
                     637 ..lin.a553691..b3ba9dce.0_29::
                     638 .LDWlin29:
00000292 4c3e*       639 	ldr	r4,.L1848
00000294 4a32*       640 	ldr	r2,.L1290
00000296 f6480510    641 	mov	r5,0x8810
0000029a 7921        642 	ldrb	r1,[r4,4]
0000029c f001010c    643 	and	r1,r1,12
000002a0 2000        644 	movs	r0,0
000002a2 7160        645 	strb	r0,[r4,5]
000002a4 9106        646 	str	r1,[sp,24]
000002a6 6811        647 	ldr	r1,[r2]
000002a8 f64770ff    648 	mov	r0,0x7fff
000002ac 884e        649 	ldrh	r6,[r1,2]
000002ae f44f5300    650 	mov	r3,1<<13
000002b2 402e        651 	ands	r6,r5
000002b4 42ae        652 	cmp	r6,r5
000002b6 d002*       653 	beq	.L2284
000002b8 6a0d        654 	ldr	r5,[r1,32]
000002ba 06ad        655 	lsls	r5,r5,26
000002bc d437*       656 	bmi	.L2306
                     657 .L2284:
000002be 884e        658 	ldrh	r6,[r1,2]
000002c0 f1100511    659 	adds	r5,r0,17
000002c4 4035        660 	ands	r5,r6

                                                                      Page 12
                                                              C:\Users\Fengyuan\AppData\Local\Temp\gh_0000sro1.s
000002c6 d11e*       661 	bne	.L2295
000002c8 884d        662 	ldrh	r5,[r1,2]
000002ca f4554580    663 	orrs	r5,r5,1<<14
000002ce 804d        664 	strh	r5,[r1,2]
000002d0 884d        665 	ldrh	r5,[r1,2]
000002d2 f4555580    666 	orrs	r5,r5,1<<12
000002d6 804d        667 	strh	r5,[r1,2]
000002d8 4e35*       668 	ldr	r6,.L3654
000002da 884d        669 	ldrh	r5,[r1,2]
000002dc 4035        670 	ands	r5,r6
000002de f5b54fb2    671 	cmp	r5,89<<8
000002e2 d005*       672 	beq	.L2290
                     673 .L2287:
000002e4 4e32*       674 	ldr	r6,.L3654
000002e6 884d        675 	ldrh	r5,[r1,2]
000002e8 4035        676 	ands	r5,r6
000002ea f5b54fb2    677 	cmp	r5,89<<8
000002ee d1f9*       678 	bne	.L2287
                     679 .L2290:
000002f0 884d        680 	ldrh	r5,[r1,2]
000002f2 1c46        681 	adds	r6,r0,1
000002f4 4335        682 	orrs	r5,r6
000002f6 804d        683 	strh	r5,[r1,2]
000002f8 884d        684 	ldrh	r5,[r1,2]
000002fa 2610        685 	movs	r6,16
000002fc 06ed        686 	lsls	r5,r5,27
000002fe d402*       687 	bmi	.L2295
                     688 .L2292:
00000300 884d        689 	ldrh	r5,[r1,2]
00000302 4035        690 	ands	r5,r6
00000304 d0fc*       691 	beq	.L2292
                     692 .L2295:
00000306 4f2b*       693 	ldr	r7,.L3655
00000308 684d        694 	ldr	r5,[r1,4]
0000030a 687e        695 	ldr	r6,[r7,4]
0000030c 401e        696 	ands	r6,r3
0000030e bf0c        697 	ite	eq
00000310 f4255500    698 	bic	r5,r5,1<<13
00000314 431d        699 	orr	r5,r3
00000316 604d        700 	str	r5,[r1,4]
00000318 884d        701 	ldrh	r5,[r1,2]
0000031a f3c5050e    702 	ubfx	r5,r5,0,15
0000031e 804d        703 	strh	r5,[r1,2]
00000320 884d        704 	ldrh	r5,[r1,2]
00000322 2610        705 	movs	r6,16
00000324 06ed        706 	lsls	r5,r5,27
00000326 d502*       707 	bpl	.L2306
                     708 .L2300:
00000328 884d        709 	ldrh	r5,[r1,2]
0000032a 4035        710 	ands	r5,r6
0000032c d1fc*       711 	bne	.L2300
                     712 .L2306:
0000032e 4d22*       713 	ldr	r5,.L3656
00000330 4e21*       714 	ldr	r6,.L3656
00000332 804d        715 	strh	r5,[r1,2]
00000334 884d        716 	ldrh	r5,[r1,2]
00000336 05ad        717 	lsls	r5,r5,22
00000338 d502*       718 	bpl	.L2311
                     719 .L2308:
0000033a 884d        720 	ldrh	r5,[r1,2]
0000033c 4035        721 	ands	r5,r6

                                                                      Page 13
                                                              C:\Users\Fengyuan\AppData\Local\Temp\gh_0000sro1.s
0000033e d1fc*       722 	bne	.L2308
                     723 .L2311:
00000340 884d        724 	ldrh	r5,[r1,2]
00000342 f0350580    725 	bics	r5,r5,128
00000346 f1120724    726 	adds	r7,r2,36
0000034a 804d        727 	strh	r5,[r1,2]
0000034c 7abd        728 	ldrb	r5,[r7,10]
0000034e 3d01        729 	subs	r5,1
00000350 e034*       730 	b	.L3657
                     731 ;line7978
                     732 ..lin.a553691..b3ba9dce.0_30::
                     733 .LDWlin30:
00000352 bf00        734 	.align	4
00000354 00000000*   735 .L1148:	.data.w	Can_ControllerConfig+40
                     736 	.endo	.L1148
                     737 
00000358 00000000*   738 .L1149:	.data.w	CanHL_TxConfirmation
                     739 	.endo	.L1149
                     740 
0000035c 00000000*   741 .L1189:	.data.w	CanHL_ErrorHandling
                     742 	.endo	.L1189
                     743 
00000360 00000000*   744 .L1290:	.data.w	Can_ControllerConfig
                     745 	.endo	.L1290
                     746 
00000364 00000000*   747 .L1291:	.data.w	CanBasicCanMsgReceived
                     748 	.endo	.L1291
                     749 
00000368 00000000*   750 .L1292:	.data.w	CanLL_ComputeMailboxInterrupt
                     751 	.endo	.L1292
                     752 
0000036c 00000000*   753 .L1454:	.data.w	Can_TxOffsetHwToLog
                     754 	.endo	.L1454
                     755 
00000370 00000000*   756 .L1455:	.data.w	Can_ActiveSendObject
                     757 	.endo	.L1455
                     758 
00000374 00000000*   759 .L1456:	.data.w	CanIf_TxConfirmation
                     760 	.endo	.L1456
                     761 
00000378 00000000*   762 .L1457:	.data.w	Det_ReportError
                     763 	.endo	.L1457
                     764 
0000037c 00000000*   765 .L1715:	.data.w	Can_ControllerData+48
                     766 	.endo	.L1715
                     767 
00000380 00000000*   768 .L1717:	.data.w	Can_Mailbox
                     769 	.endo	.L1717
                     770 
00000384 00000000*   771 .L1718:	.data.w	CanIf_RxIndicationAsr403
                     772 	.endo	.L1718
                     773 
00000388 00000000*   774 .L1847:	.data.w	SchM_Enter_Can_CAN_EXCLUSIVE_AREA_6
                     775 	.endo	.L1847
                     776 
0000038c 00000000*   777 .L1848:	.data.w	Can_ControllerData
                     778 	.endo	.L1848
                     779 
00000390 00000000*   780 .L1849:	.data.w	SchM_Exit_Can_CAN_EXCLUSIVE_AREA_6
                     781 	.endo	.L1849
                     782 

                                                                      Page 14
                                                              C:\Users\Fengyuan\AppData\Local\Temp\gh_0000sro1.s
00000394 00000000*   783 .L1850:	.data.w	Can_CanIfChannelId
                     784 	.endo	.L1850
                     785 
00000398 00000000*   786 .L1851:	.data.w	CanIf_ControllerBusOff
                     787 	.endo	.L1851
                     788 
0000039c 00000000*   789 .L1887:	.data.w	canConfigInitFlag
                     790 	.endo	.L1887
                     791 
000003a0 00000000*   792 .L2145:	.data.w	Can_InitObjectStartIndex
                     793 	.endo	.L2145
                     794 
000003a4 00000000*   795 .L2146:	.data.w	Can_InitObjectBaudrate
                     796 	.endo	.L2146
                     797 
000003a8 00000000*   798 .L2147:	.data.w	Can_InitController
                     799 	.endo	.L2147
                     800 
000003ac 00000000*   801 .L2254:	.data.w	Can_ChangeBaudrate
                     802 	.endo	.L2254
                     803 
000003b0 0000d910    804 .L3654:	.data.w	0xd910
                     805 	.endo	.L3654
                     806 
000003b4 00000000*   807 .L3655:	.data.w	Can_InitObject
                     808 	.endo	.L3655
                     809 
000003b8 00000200    810 .L3656:	.data.w	1<<9
                     811 	.endo	.L3656
                     812 
                     813 .L3657:
                     814 
                     815 ;line7978
                     816 ..lin.a553691..b3ba9dce.0_31::
                     817 .LDWlin31:
000003bc 800d        818 	strh	r5,[r1]
000003be 884d        819 	ldrh	r5,[r1,2]
000003c0 f64d3690    820 	mov	r6,0xdb90
000003c4 9701        821 	str	r7,[sp,4]
000003c6 4035        822 	ands	r5,r6
000003c8 f2420603    823 	mov	r6,0x2003
000003cc 7867        824 	ldrb	r7,[r4,1]
000003ce 4335        825 	orrs	r5,r6
000003d0 4eca*       826 	ldr	r6,.L3660
000003d2 804d        827 	strh	r5,[r1,2]
000003d4 9708        828 	str	r7,[sp,32]
000003d6 6875        829 	ldr	r5,[r6,4]
000003d8 401d        830 	ands	r5,r3
000003da f0550340    831 	orrs	r3,r5,64
000003de b90f*       832 	cbnz	r7,.L2270
000003e0 3001        833 	adds	r0,1
000003e2 4303        834 	orrs	r3,r0
                     835 .L2270:
000003e4 604b        836 	str	r3,[r1,4]
000003e6 6830        837 	ldr	r0,[r6]
000003e8 6508        838 	str	r0,[r1,80]
000003ea 68d0        839 	ldr	r0,[r2,12]
000003ec f4500007    840 	orrs	r0,r0,135<<16
000003f0 6348        841 	str	r0,[r1,52]
000003f2 7f10        842 	ldrb	r0,[r2,28]
000003f4 4bc2*       843 	ldr	r3,.L3661

                                                                      Page 15
                                                              C:\Users\Fengyuan\AppData\Local\Temp\gh_0000sro1.s
000003f6 4ec3*       844 	ldr	r6,.L3662
000003f8 eb1300c0    845 	adds	r0,r3,r0 lsl 3
000003fc 7940        846 	ldrb	r0,[r0,5]
000003fe 8833        847 	ldrh	r3,[r6]
00000400 181b        848 	adds	r3,r3,r0
00000402 4dc1*       849 	ldr	r5,.L3663
00000404 b2db        850 	uxtb	r3,r3
00000406 eb150343    851 	adds	r3,r5,r3 lsl 1
0000040a 25ff        852 	movs	r5,255
0000040c 705d        853 	strb	r5,[r3,1]
0000040e f1110380    854 	adds	r3,r1,128
00000412 eb131000    855 	adds	r0,r3,r0 lsl 4
00000416 f44f6300    856 	mov	r3,1<<11
0000041a 8043        857 	strh	r3,[r0,2]
0000041c 7d93        858 	ldrb	r3,[r2,22]
0000041e e04b*       859 	b	.L2354
                     860 .L2330:
00000420 4eb7*       861 	ldr	r6,.L3661
00000422 eb1600c3    862 	adds	r0,r6,r3 lsl 3
00000426 7945        863 	ldrb	r5,[r0,5]
00000428 9004        864 	str	r0,[sp,16]
0000042a 9505        865 	str	r5,[sp,20]
0000042c e03b*       866 	b	.L2352
                     867 .L2331:
0000042e f1110080    868 	adds	r0,r1,128
00000432 9003        869 	str	r0,[sp,12]
00000434 f5106000    870 	adds	r0,r0,1<<11
00000438 9007        871 	str	r0,[sp,28]
0000043a 2000        872 	movs	r0,0
0000043c e02a*       873 	b	.L2347
                     874 .L2332:
0000043e 9e01        875 	ldr	r6,[sp,4]
00000440 7876        876 	ldrb	r6,[r6,1]
00000442 42b0        877 	cmp	r0,r6
00000444 d20d*       878 	bhs	.L2337
00000446 4eb1*       879 	ldr	r6,.L3665
00000448 4fb1*       880 	ldr	r7,.L3666
0000044a 8836        881 	ldrh	r6,[r6]
0000044c 1986        882 	adds	r6,r0,r6
0000044e eb1706c6    883 	adds	r6,r7,r6 lsl 3
00000452 6876        884 	ldr	r6,[r6,4]
00000454 00f6        885 	lsls	r6,r6,3
00000456 08b7        886 	lsrs	r7,r6,2
00000458 9e07        887 	ldr	r6,[sp,28]
0000045a f0574740    888 	orrs	r7,r7,3<<30
0000045e f8467020    889 	str	r7,[r6,r0 lsl 2]
                     890 .L2337:
00000462 b403        891 	push	{r0-r1}
00000464 4ea9*       892 	ldr	r6,.L3665
00000466 49aa*       893 	ldr	r1,.L3666
00000468 8836        894 	ldrh	r6,[r6]
0000046a 1986        895 	adds	r6,r0,r6
0000046c f8516036    896 	ldr.w	r6,[r1,r6 lsl 3]
00000470 9602        897 	str	r6,[sp,8]
00000472 00f6        898 	lsls	r6,r6,3
00000474 08b6        899 	lsrs	r6,r6,2
00000476 0087        900 	lsls	r7,r0,2
00000478 9805        901 	ldr	r0,[sp,20]
0000047a 19c1        902 	adds	r1,r0,r7
0000047c 3160        903 	adds	r1,96
0000047e 9f02        904 	ldr	r7,[sp,8]

                                                                      Page 16
                                                              C:\Users\Fengyuan\AppData\Local\Temp\gh_0000sro1.s
00000480 9104        905 	str	r1,[sp,16]
00000482 2f00        906 	cmp	r7,0
00000484 bc03        907 	pop	{r0-r1}
00000486 bf48        908 	it	mi
00000488 f0464680    909 	orr	r6,r6,1<<30
0000048c 9f02        910 	ldr	r7,[sp,8]
0000048e 3001        911 	adds	r0,1
00000490 603e        912 	str	r6,[r7]
00000492 b2c0        913 	uxtb	r0,r0
                     914 .L2347:
00000494 9e01        915 	ldr	r6,[sp,4]
00000496 7836        916 	ldrb	r6,[r6]
00000498 42b0        917 	cmp	r0,r6
0000049a d3d0*       918 	blo	.L2332
0000049c f07f0001    919 	mvns	r0,1
000004a0 6488        920 	str	r0,[r1,72]
000004a2 3501        921 	adds	r5,1
000004a4 b2ed        922 	uxtb	r5,r5
                     923 .L2352:
000004a6 9804        924 	ldr	r0,[sp,16]
000004a8 9e05        925 	ldr	r6,[sp,20]
000004aa 7900        926 	ldrb	r0,[r0,4]
000004ac 1980        927 	adds	r0,r0,r6
000004ae b2c0        928 	uxtb	r0,r0
000004b0 4285        929 	cmp	r5,r0
000004b2 d3bc*       930 	blo	.L2331
000004b4 3301        931 	adds	r3,1
000004b6 b2db        932 	uxtb	r3,r3
                     933 .L2354:
000004b8 7c90        934 	ldrb	r0,[r2,18]
000004ba 4283        935 	cmp	r3,r0
000004bc d3b0*       936 	blo	.L2330
                     937 ;line8011
                     938 ..lin.a553691..b3ba9dce.0_32::
                     939 .LDWlin32:
000004be 9808        940 	ldr	r0,[sp,32]
000004c0 b920*       941 	cbnz	r0,.L2357
000004c2 6850        942 	ldr	r0,[r2,4]
000004c4 2220        943 	movs	r2,32
000004c6 f3620007    944 	bfi	r0,r2,0,8
000004ca 6288        945 	str	r0,[r1,40]
                     946 .L2357:
000004cc 79a0        947 	ldrb	r0,[r4,6]
000004ce f0100004    948 	ands	r0,r0,4
000004d2 d105*       949 	bne	.L2376
                     950 ;line8044
                     951 ..lin.a553691..b3ba9dce.0_33::
                     952 .LDWlin33:
000004d4 71a0        953 	strb	r0,[r4,6]
000004d6 9806        954 	ldr	r0,[sp,24]
000004d8 f0500002    955 	orrs	r0,r0,2
000004dc b2c0        956 	uxtb	r0,r0
000004de 9006        957 	str	r0,[sp,24]
                     958 .L2376:
000004e0 9906        959 	ldr	r1,[sp,24]
000004e2 f0510204    960 	orrs	r2,r1,4
000004e6 7122        961 	strb	r2,[r4,4]
000004e8 e005*       962 	b	.L2255
                     963 .L2380:
                     964 .LDW63:
                     965 

                                                                      Page 17
                                                              C:\Users\Fengyuan\AppData\Local\Temp\gh_0000sro1.s
                     966 ;line8076
                     967 ..lin.a553691..b3ba9dce.0_34::
                     968 .LDWlin34:
000004ea 2050        969 	movs	r0,80
000004ec 2305        970 	movs	r3,5
000004ee 4c89*       971 	ldr	r4,.L3667
000004f0 2202        972 	movs	r2,2
000004f2 2100        973 	movs	r1,0
000004f4 47a0        974 	blx	r4
                     975 .L2255:
                     976 .LDW73:
000004f6 b009        977 	add	sp,36
000004f8 bdf0        978 	pop	{r4-r7,pc}
                     979 __ghs_eofn_Can_InitController::
                     980 	.endf	Can_InitController
                     981 ;tmpCANmaxmb	r5	local
                     982 ;tmpCANmcr	r5	local
                     983 ;tmpCANctrl2	r0	local
                     984 ;tmpCANcontrol1	r3	local
                     985 ;pFlexCANLocal	r1	local
                     986 ;value	r0	local
                     987 ;pFlexCANLocal	r1	local
                     988 ;pFlexCANLocal	r1	local
                     989 ;hwObjHandle	r0	local
                     990 ;hwObjHandle	r5	local
                     991 ;Htrh	r3	local
                     992 ;pFlexCANLocal	r1	local
                     993 ;filterHandle	r0	local
                     994 ;locMsgIDMask	r6	local
                     995 ;pRxFIFO	[sp,12]	local
                     996 ;pIndivRxMask	[sp,28]	local
                     997 ;tmpCANimask1	r0	local
                     998 ;pFlexCANLocal	r1	local
                     999 
                    1000 ;Controller	none	param
                    1001 ;ControllerConfigPtr	none	param
                    1002 
                    1003 ..gh.f.a.1.e.10:
                    1004 	.endo	..gh.f.a.1.e.10
                    1005 Can_SetControllerMode::
000004fa b5f0       1006 	push	{r4-r7,lr}
000004fc b086       1007 	sub	sp,24
000004fe 460d       1008 	cpy	r5,r1
                    1009 .LDW83:
00000500 4985*      1010 	ldr	r1,.L7320
00000502 2600       1011 	movs	r6,0
00000504 4637       1012 	cpy	r7,r6
00000506 7808       1013 	ldrb	r0,[r1]
00000508 b118*      1014 	cbz	r0,.L3674
0000050a 4c84*      1015 	ldr	r4,.L7321
0000050c 7920       1016 	ldrb	r0,[r4,4]
0000050e 0742       1017 	lsls	r2,r0,29
00000510 d401*      1018 	bmi	.L3673
                    1019 .L3674:
                    1020 ;line8185
                    1021 ..lin.a553691..7d30efab.0_35::
                    1022 .LDWlin35:
00000512 2705       1023 	movs	r7,5
00000514 e155*      1024 	b	.L3809
                    1025 .L3673:
                    1026 ;line8188

                                                                      Page 18
                                                              C:\Users\Fengyuan\AppData\Local\Temp\gh_0000sro1.s
                    1027 ..lin.a553691..7d30efab.0_36::
                    1028 .LDWlin36:
00000516 0782       1029 	lsls	r2,r0,30
00000518 d405*      1030 	bmi	.L3682
0000051a b145*      1031 	cbz	r5,.L3681
                    1032 ;line8194
                    1033 ..lin.a553691..7d30efab.0_37::
                    1034 .LDWlin37:
0000051c 0601       1035 	lsls	r1,r0,24
0000051e d402*      1036 	bmi	.L3682
00000520 1ea9       1037 	subs	r1,r5,2
00000522 2901       1038 	cmp	r1,1
00000524 d903*      1039 	bls	.L3681
                    1040 .L3682:
00000526 0600       1041 	lsls	r0,r0,24
00000528 d503*      1042 	bpl	.L3680
0000052a 2d01       1043 	cmp	r5,1
0000052c d101*      1044 	bne	.L3680
                    1045 .L3681:
                    1046 ;line8198
                    1047 ..lin.a553691..7d30efab.0_38::
                    1048 .LDWlin38:
0000052e 2706       1049 	movs	r7,6
00000530 e147*      1050 	b	.L3809
                    1051 .L3680:
                    1052 ;line8210
                    1053 ..lin.a553691..7d30efab.0_39::
                    1054 .LDWlin39:
00000532 487b*      1055 	ldr	r0,.L7322
00000534 4780       1056 	blx	r0
00000536 79a0       1057 	ldrb	r0,[r4,6]
00000538 f0500004   1058 	orrs	r0,r0,4
0000053c 71a0       1059 	strb	r0,[r4,6]
0000053e 2d01       1060 	cmp	r5,1
00000540 d307*      1061 	blo	.L3689
00000542 d074*      1062 	beq	.L3690
00000544 2d03       1063 	cmp	r5,3
00000546 f0c08126*  1064 	blo	.L3806
0000054a f0008115*  1065 	beq	.L3691
                    1066 .L3693:
                    1067 ;line8310
                    1068 ..lin.a553691..7d30efab.0_40::
                    1069 .LDWlin40:
0000054e 2706       1070 	movs	r7,6
00000550 e130*      1071 	b	.L3745
                    1072 .L3689:
                    1073 ;line8234
                    1074 ..lin.a553691..7d30efab.0_41::
                    1075 .LDWlin41:
00000552 78a0       1076 	ldrb	r0,[r4,2]
00000554 b108*      1077 	cbz	r0,.L3704
00000556 2001       1078 	movs	r0,1
00000558 70a0       1079 	strb	r0,[r4,2]
                    1080 .L3704:
0000055a 4a72*      1081 	ldr	r2,.L7323
0000055c 6815       1082 	ldr	r5,[r2]
0000055e b118*      1083 	cbz	r0,.L3707
00000560 6868       1084 	ldr	r0,[r5,4]
00000562 f0300040   1085 	bics	r0,r0,64
00000566 6068       1086 	str	r0,[r5,4]
                    1087 .L3707:

                                                                      Page 19
                                                              C:\Users\Fengyuan\AppData\Local\Temp\gh_0000sro1.s
00000568 4a6f*      1088 	ldr	r2,.L7324
0000056a f114012c   1089 	adds	r1,r4,44
0000056e 4630       1090 	cpy	r0,r6
00000570 4790       1091 	blx	r2
                    1092 .L3708:
00000572 79a0       1093 	ldrb	r0,[r4,6]
00000574 f0500004   1094 	orrs	r0,r0,4
00000578 71a0       1095 	strb	r0,[r4,6]
0000057a 78a0       1096 	ldrb	r0,[r4,2]
0000057c b148*      1097 	cbz	r0,.L3739
0000057e 6a28       1098 	ldr	r0,[r5,32]
00000580 f0100020   1099 	ands	r0,r0,32
00000584 d103*      1100 	bne	.L3730
00000586 4a69*      1101 	ldr	r2,.L7325
00000588 70a6       1102 	strb	r6,[r4,2]
0000058a 4601       1103 	cpy	r1,r0
0000058c 4790       1104 	blx	r2
                    1105 .L3730:
0000058e 9605       1106 	str	r6,[sp,20]
00000590 e01b*      1107 	b	.L3711
                    1108 .L3739:
00000592 9005       1109 	str	r0,[sp,20]
00000594 7961       1110 	ldrb	r1,[r4,5]
00000596 8868       1111 	ldrh	r0,[r5,2]
00000598 b989*      1112 	cbnz	r1,.L3741
0000059a f3c0000e   1113 	ubfx	r0,r0,0,15
0000059e 8068       1114 	strh	r0,[r5,2]
000005a0 8868       1115 	ldrh	r0,[r5,2]
000005a2 f4305080   1116 	bics	r0,r0,1<<12
000005a6 8068       1117 	strh	r0,[r5,2]
000005a8 8868       1118 	ldrh	r0,[r5,2]
000005aa f4304080   1119 	bics	r0,r0,1<<14
000005ae 8068       1120 	strh	r0,[r5,2]
000005b0 6868       1121 	ldr	r0,[r5,4]
000005b2 f0500040   1122 	orrs	r0,r0,64
000005b6 6068       1123 	str	r0,[r5,4]
000005b8 2001       1124 	movs	r0,1
000005ba 7160       1125 	strb	r0,[r4,5]
000005bc e005*      1126 	b	.L3711
                    1127 .L3741:
000005be 495c*      1128 	ldr	r1,.L7326
000005c0 4008       1129 	ands	r0,r1
000005c2 d102*      1130 	bne	.L3711
000005c4 2201       1131 	movs	r2,1
000005c6 9205       1132 	str	r2,[sp,20]
000005c8 7166       1133 	strb	r6,[r4,5]
                    1134 .L3711:
000005ca 79a0       1135 	ldrb	r0,[r4,6]
000005cc 466a       1136 	mov	r2,sp
000005ce f00000fb   1137 	and	r0,r0,251
000005d2 71a0       1138 	strb	r0,[r4,6]
000005d4 6ae0       1139 	ldr	r0,[r4,44]
000005d6 4b57*      1140 	ldr	r3,.L7327
000005d8 9001       1141 	str	r0,[sp,4]
000005da a901       1142 	add	r1,sp,4
000005dc 4630       1143 	cpy	r0,r6
000005de 4798       1144 	blx	r3
000005e0 b930*      1145 	cbnz	r0,.L3720
000005e2 9800       1146 	ldr	r0,[sp]
000005e4 2841       1147 	cmp	r0,65
000005e6 d209*      1148 	bhs	.L3724

                                                                      Page 20
                                                              C:\Users\Fengyuan\AppData\Local\Temp\gh_0000sro1.s
000005e8 9805       1149 	ldr	r0,[sp,20]
000005ea 2801       1150 	cmp	r0,1
000005ec d1c1*      1151 	bne	.L3708
000005ee e005*      1152 	b	.L3724
                    1153 .L3720:
000005f0 2311       1154 	movs	r3,17
000005f2 2220       1155 	movs	r2,32
000005f4 4d47*      1156 	ldr	r5,.L3667
000005f6 2050       1157 	movs	r0,80
000005f8 4631       1158 	cpy	r1,r6
000005fa 47a8       1159 	blx	r5
                    1160 .L3724:
000005fc 4a4a*      1161 	ldr	r2,.L7324
000005fe f114012c   1162 	adds	r1,r4,44
00000602 4630       1163 	cpy	r0,r6
00000604 4790       1164 	blx	r2
00000606 9b05       1165 	ldr	r3,[sp,20]
00000608 2b01       1166 	cmp	r3,1
0000060a d004*      1167 	beq	.L3727
0000060c 2601       1168 	movs	r6,1
0000060e 71a6       1169 	strb	r6,[r4,6]
00000610 2b01       1170 	cmp	r3,1
00000612 f04080cf*  1171 	bne	.L3745
                    1172 .L3727:
00000616 7920       1173 	ldrb	r0,[r4,4]
00000618 f000000c   1174 	and	r0,r0,12
0000061c 4318       1175 	orrs	r0,r3
0000061e 4b46*      1176 	ldr	r3,.L7328
00000620 7120       1177 	strb	r0,[r4,4]
00000622 71a7       1178 	strb	r7,[r4,6]
00000624 4a45*      1179 	ldr	r2,.L7329
00000626 7818       1180 	ldrb	r0,[r3]
00000628 2102       1181 	movs	r1,2
0000062a 4790       1182 	blx	r2
0000062c e04b*      1183 	b	.L7261
                    1184 .L3690:
                    1185 ;line8270
                    1186 ..lin.a553691..7d30efab.0_42::
                    1187 .LDWlin42:
0000062e 7820       1188 	ldrb	r0,[r4]
00000630 2800       1189 	cmp	r0,0
00000632 bf0e       1190 	itee	eq
00000634 70a0       1191 	strb	r0,[r4,2]
00000636 3801       1192 	sub	r0,1
00000638 7020       1193 	strb	r0,[r4]
0000063a 78a0       1194 	ldrb	r0,[r4,2]
0000063c 2800       1195 	cmp	r0,0
0000063e f04080b9*  1196 	bne	.L3745
                    1197 ;line8283
                    1198 ..lin.a553691..7d30efab.0_43::
                    1199 .LDWlin43:
00000642 7920       1200 	ldrb	r0,[r4,4]
00000644 0780       1201 	lsls	r0,r0,30
00000646 0f80       1202 	lsrs	r0,r0,30
00000648 d102*      1203 	bne	.L3755
0000064a 4a38*      1204 	ldr	r2,.L7325
0000064c 4601       1205 	cpy	r1,r0
0000064e 4790       1206 	blx	r2
                    1207 .L3755:
00000650 4b34*      1208 	ldr	r3,.L7323
00000652 4a35*      1209 	ldr	r2,.L7324

                                                                      Page 21
                                                              C:\Users\Fengyuan\AppData\Local\Temp\gh_0000sro1.s
00000654 681d       1210 	ldr	r5,[r3]
00000656 9304       1211 	str	r3,[sp,16]
00000658 8868       1212 	ldrh	r0,[r5,2]
0000065a f3c0000e   1213 	ubfx	r0,r0,0,15
0000065e 8068       1214 	strh	r0,[r5,2]
00000660 8868       1215 	ldrh	r0,[r5,2]
00000662 f4504080   1216 	orrs	r0,r0,1<<14
00000666 8068       1217 	strh	r0,[r5,2]
00000668 8868       1218 	ldrh	r0,[r5,2]
0000066a f4505080   1219 	orrs	r0,r0,1<<12
0000066e 8068       1220 	strh	r0,[r5,2]
00000670 f114012c   1221 	adds	r1,r4,44
00000674 4630       1222 	cpy	r0,r6
00000676 4790       1223 	blx	r2
                    1224 .L3757:
00000678 8868       1225 	ldrh	r0,[r5,2]
0000067a 492d*      1226 	ldr	r1,.L7326
0000067c 4b2d*      1227 	ldr	r3,.L7327
0000067e 4008       1228 	ands	r0,r1
00000680 f5b04fb2   1229 	cmp	r0,89<<8
00000684 bf0c       1230 	ite	eq
00000686 2201       1231 	mov	r2,1
00000688 2200       1232 	mov	r2,0
0000068a 9205       1233 	str	r2,[sp,20]
0000068c aa02       1234 	add	r2,sp,8
0000068e 6ae0       1235 	ldr	r0,[r4,44]
00000690 9003       1236 	str	r0,[sp,12]
00000692 a903       1237 	add	r1,sp,12
00000694 4630       1238 	cpy	r0,r6
00000696 4798       1239 	blx	r3
00000698 b930*      1240 	cbnz	r0,.L3769
0000069a 9802       1241 	ldr	r0,[sp,8]
0000069c 2841       1242 	cmp	r0,65
0000069e d209*      1243 	bhs	.L3773
000006a0 9805       1244 	ldr	r0,[sp,20]
000006a2 2800       1245 	cmp	r0,0
000006a4 d0e8*      1246 	beq	.L3757
000006a6 e005*      1247 	b	.L3773
                    1248 .L3769:
000006a8 2311       1249 	movs	r3,17
000006aa 4631       1250 	cpy	r1,r6
000006ac 4e19*      1251 	ldr	r6,.L3667
000006ae 2220       1252 	movs	r2,32
000006b0 2050       1253 	movs	r0,80
000006b2 47b0       1254 	blx	r6
                    1255 .L3773:
000006b4 4a1c*      1256 	ldr	r2,.L7324
000006b6 f114012c   1257 	adds	r1,r4,44
000006ba 4638       1258 	cpy	r0,r7
000006bc 4790       1259 	blx	r2
000006be 9b05       1260 	ldr	r3,[sp,20]
000006c0 b91b*      1261 	cbnz	r3,.L3776
                    1262 .L3775:
000006c2 2002       1263 	movs	r0,2
000006c4 71a0       1264 	strb	r0,[r4,6]
                    1265 .L7261:
                    1266 
000006c6 2601       1267 	movs	r6,1
000006c8 e074*      1268 	b	.L3745
                    1269 .L3776:
000006ca 2601       1270 	movs	r6,1

                                                                      Page 22
                                                              C:\Users\Fengyuan\AppData\Local\Temp\gh_0000sro1.s
000006cc 43f8       1271 	mvns	r0,r7
000006ce 6328       1272 	str	r0,[r5,48]
000006d0 2007       1273 	movs	r0,7
000006d2 6228       1274 	str	r0,[r5,32]
000006d4 6868       1275 	ldr	r0,[r5,4]
000006d6 f0300040   1276 	bics	r0,r0,64
000006da 6068       1277 	str	r0,[r5,4]
000006dc 9804       1278 	ldr	r0,[sp,16]
000006de 301c       1279 	adds	r0,28
000006e0 463a       1280 	cpy	r2,r7
000006e2 7bc3       1281 	ldrb	r3,[r0,15]
                    1282 .L3786:
000006e4 7c81       1283 	ldrb	r1,[r0,18]
000006e6 428b       1284 	cmp	r3,r1
000006e8 d231*      1285 	bhs	.L3789
000006ea b401       1286 	push	{r0}
000006ec f1150080   1287 	adds	r0,r5,128
000006f0 eb101103   1288 	adds	r1,r0,r3 lsl 4
000006f4 f44f6000   1289 	mov	r0,1<<11
000006f8 e022*      1290 	b	.L7331
                    1291 ;line8283
                    1292 ..lin.a553691..7d30efab.0_44::
                    1293 .LDWlin44:
000006fa bf00       1294 	.align	4
000006fc 00000000*  1295 .L3660:	.data.w	Can_InitObject
                    1296 	.endo	.L3660
                    1297 
00000700 00000000*  1298 .L3661:	.data.w	Can_Mailbox
                    1299 	.endo	.L3661
                    1300 
00000704 00000000*  1301 .L3662:	.data.w	Can_TxOffsetHwToLog
                    1302 	.endo	.L3662
                    1303 
00000708 00000000*  1304 .L3663:	.data.w	Can_ActiveSendObject
                    1305 	.endo	.L3663
                    1306 
0000070c 00000000*  1307 .L3665:	.data.w	Can_InitBasicCanIndex
                    1308 	.endo	.L3665
                    1309 
00000710 00000000*  1310 .L3666:	.data.w	Can_InitBasicCan
                    1311 	.endo	.L3666
                    1312 
00000714 00000000*  1313 .L3667:	.data.w	Det_ReportError
                    1314 	.endo	.L3667
                    1315 
00000718 00000000*  1316 .L7320:	.data.w	canConfigInitFlag
                    1317 	.endo	.L7320
                    1318 
0000071c 00000000*  1319 .L7321:	.data.w	Can_ControllerData
                    1320 	.endo	.L7321
                    1321 
00000720 00000000*  1322 .L7322:	.data.w	SchM_Enter_Can_CAN_EXCLUSIVE_AREA_6
                    1323 	.endo	.L7322
                    1324 
00000724 00000000*  1325 .L7323:	.data.w	Can_ControllerConfig
                    1326 	.endo	.L7323
                    1327 
00000728 00000000*  1328 .L7324:	.data.w	GetCounterValue
                    1329 	.endo	.L7324
                    1330 
0000072c 00000000*  1331 .L7325:	.data.w	Can_InitController

                                                                      Page 23
                                                              C:\Users\Fengyuan\AppData\Local\Temp\gh_0000sro1.s
                    1332 	.endo	.L7325
                    1333 
00000730 0000d910   1334 .L7326:	.data.w	0xd910
                    1335 	.endo	.L7326
                    1336 
00000734 00000000*  1337 .L7327:	.data.w	GetElapsedValue
                    1338 	.endo	.L7327
                    1339 
00000738 00000000*  1340 .L7328:	.data.w	Can_CanIfChannelId
                    1341 	.endo	.L7328
                    1342 
0000073c 00000000*  1343 .L7329:	.data.w	CanIf_ControllerModeIndication
                    1344 	.endo	.L7329
                    1345 
                    1346 .L7331:
                    1347 
                    1348 ;line8283
                    1349 ..lin.a553691..7d30efab.0_45::
                    1350 .LDWlin45:
00000740 3301       1351 	adds	r3,1
00000742 8048       1352 	strh	r0,[r1,2]
00000744 bc01       1353 	pop	{r0}
00000746 e7cd*      1354 	b	.L3786
                    1355 .L3788:
00000748 632b       1356 	str	r3,[r5,48]
0000074a 3201       1357 	adds	r2,1
0000074c b2d2       1358 	uxtb	r2,r2
                    1359 .L3789:
0000074e 6b29       1360 	ldr	r1,[r5,48]
00000750 2320       1361 	movs	r3,32
00000752 0689       1362 	lsls	r1,r1,26
00000754 d501*      1363 	bpl	.L3777
00000756 2a06       1364 	cmp	r2,6
00000758 d3f6*      1365 	blo	.L3788
                    1366 .L3777:
0000075a 7800       1367 	ldrb	r0,[r0]
0000075c 49ca*      1368 	ldr	r1,.L7332
0000075e 4bcb*      1369 	ldr	r3,.L7333
00000760 eb1100c0   1370 	adds	r0,r1,r0 lsl 3
00000764 7940       1371 	ldrb	r0,[r0,5]
00000766 8819       1372 	ldrh	r1,[r3]
00000768 1808       1373 	adds	r0,r1,r0
0000076a 49c9*      1374 	ldr	r1,.L7334
0000076c b2c0       1375 	uxtb	r0,r0
0000076e eb110040   1376 	adds	r0,r1,r0 lsl 1
00000772 21ff       1377 	movs	r1,255
00000774 7041       1378 	strb	r1,[r0,1]
00000776 e003*      1379 	b	.L7259
                    1380 .L3691:
                    1381 ;line8290
                    1382 ..lin.a553691..7d30efab.0_46::
                    1383 .LDWlin46:
00000778 0600       1384 	lsls	r0,r0,24
0000077a f53faee8*  1385 	bmi	.L3693
                    1386 .L3802:
                    1387 ;line8298
                    1388 ..lin.a553691..7d30efab.0_47::
                    1389 .LDWlin47:
0000077e 2601       1390 	movs	r6,1
                    1391 .L7259:
                    1392 

                                                                      Page 24
                                                              C:\Users\Fengyuan\AppData\Local\Temp\gh_0000sro1.s
00000780 7920       1393 	ldrb	r0,[r4,4]
00000782 f000000c   1394 	and	r0,r0,12
00000786 4bc3*      1395 	ldr	r3,.L7335
00000788 f0500002   1396 	orrs	r0,r0,2
0000078c 7120       1397 	strb	r0,[r4,4]
0000078e 71a7       1398 	strb	r7,[r4,6]
00000790 7818       1399 	ldrb	r0,[r3]
00000792 4631       1400 	cpy	r1,r6
00000794 e00c*      1401 	b	.L7260
                    1402 .L3806:
                    1403 ;line8305
                    1404 ..lin.a553691..7d30efab.0_48::
                    1405 .LDWlin48:
00000796 7921       1406 	ldrb	r1,[r4,4]
00000798 2601       1407 	movs	r6,1
0000079a f001010c   1408 	and	r1,r1,12
0000079e f0510180   1409 	orrs	r1,r1,128
000007a2 4bbc*      1410 	ldr	r3,.L7335
000007a4 f00000fb   1411 	and	r0,r0,251
000007a8 71a0       1412 	strb	r0,[r4,6]
000007aa 7121       1413 	strb	r1,[r4,4]
000007ac 7818       1414 	ldrb	r0,[r3]
000007ae 2103       1415 	movs	r1,3
                    1416 .L7260:
                    1417 
000007b0 4ab9*      1418 	ldr	r2,.L7336
000007b2 4790       1419 	blx	r2
                    1420 .L3745:
000007b4 79a0       1421 	ldrb	r0,[r4,6]
000007b6 f00000fb   1422 	and	r0,r0,251
000007ba 71a0       1423 	strb	r0,[r4,6]
000007bc 48b7*      1424 	ldr	r0,.L7337
000007be 4780       1425 	blx	r0
000007c0 b12f*      1426 	cbz	r7,.L3808
                    1427 .L3809:
000007c2 463b       1428 	cpy	r3,r7
000007c4 2050       1429 	movs	r0,80
000007c6 4cb6*      1430 	ldr	r4,.L7338
000007c8 2203       1431 	movs	r2,3
000007ca 2100       1432 	movs	r1,0
000007cc 47a0       1433 	blx	r4
                    1434 .L3808:
000007ce 4630       1435 	cpy	r0,r6
                    1436 .LDW93:
000007d0 b006       1437 	add	sp,24
000007d2 bdf0       1438 	pop	{r4-r7,pc}
                    1439 __ghs_eofn_Can_SetControllerMode::
                    1440 	.endf	Can_SetControllerMode
                    1441 ;errorId	r7	local
                    1442 ;retval	r6	local
                    1443 ;transitionRequest	[sp,20]	local
                    1444 ;pFlexCANLocal	r5	local
                    1445 ;elapsedTime	[sp]	local
                    1446 ;startTime	[sp,4]	local
                    1447 ;pFlexCANLocal	r5	local
                    1448 ;transitionRequest	[sp,20]	local
                    1449 ;elapsedTime	[sp,8]	local
                    1450 ;startTime	[sp,12]	local
                    1451 ;pFlexCANLocal	r5	local
                    1452 ;hwObjHandle	r3	local
                    1453 ;fifoLoopCnt	r2	local

                                                                      Page 25
                                                              C:\Users\Fengyuan\AppData\Local\Temp\gh_0000sro1.s
                    1454 
                    1455 ;Controller	none	param
                    1456 ;Transition	r5	param
                    1457 
                    1458 ..gh.f.a.1.e.11:
                    1459 	.endo	..gh.f.a.1.e.11
                    1460 Can_DisableControllerInterrupts::
000007d4 b510       1461 	push	{r4,lr}
                    1462 .LDW04:
000007d6 49b3*      1463 	ldr	r1,.L7485
000007d8 7808       1464 	ldrb	r0,[r1]
000007da b1b8*      1465 	cbz	r0,.L7354
000007dc 4cb2*      1466 	ldr	r4,.L7486
000007de 7920       1467 	ldrb	r0,[r4,4]
000007e0 0740       1468 	lsls	r0,r0,29
000007e2 d513*      1469 	bpl	.L7354
                    1470 ;line8421
                    1471 ..lin.a553691..4c76d16e.0_49::
                    1472 .LDWlin49:
000007e4 48b1*      1473 	ldr	r0,.L7487
000007e6 4780       1474 	blx	r0
000007e8 7862       1475 	ldrb	r2,[r4,1]
000007ea b952*      1476 	cbnz	r2,.L7347
000007ec 49b0*      1477 	ldr	r1,.L7488
000007ee 6808       1478 	ldr	r0,[r1]
000007f0 6a81       1479 	ldr	r1,[r0,40]
000007f2 60a1       1480 	str	r1,[r4,8]
000007f4 6282       1481 	str	r2,[r0,40]
000007f6 6841       1482 	ldr	r1,[r0,4]
000007f8 6121       1483 	str	r1,[r4,16]
000007fa 6841       1484 	ldr	r1,[r0,4]
000007fc f4314140   1485 	bics	r1,r1,3<<14
00000800 6041       1486 	str	r1,[r0,4]
                    1487 .L7347:
00000802 1c50       1488 	adds	r0,r2,1
00000804 7060       1489 	strb	r0,[r4,1]
00000806 48ab*      1490 	ldr	r0,.L7489
00000808 4780       1491 	blx	r0
0000080a e005*      1492 	b	.L7339
                    1493 .L7354:
                    1494 ;line8451
                    1495 ..lin.a553691..4c76d16e.0_50::
                    1496 .LDWlin50:
0000080c 2050       1497 	movs	r0,80
0000080e 2305       1498 	movs	r3,5
00000810 4ca3*      1499 	ldr	r4,.L7338
00000812 2204       1500 	movs	r2,4
00000814 2100       1501 	movs	r1,0
00000816 47a0       1502 	blx	r4
                    1503 .L7339:
                    1504 .LDW14:
00000818 bd10       1505 	pop	{r4,pc}
                    1506 __ghs_eofn_Can_DisableControllerInterrupts::
                    1507 	.endf	Can_DisableControllerInterrupts
                    1508 ;pFlexcan	r0	local
                    1509 
                    1510 ;Controller	none	param
                    1511 
                    1512 ..gh.f.a.1.e.12:
                    1513 	.endo	..gh.f.a.1.e.12
                    1514 Can_EnableControllerInterrupts::

                                                                      Page 26
                                                              C:\Users\Fengyuan\AppData\Local\Temp\gh_0000sro1.s
0000081a b510       1515 	push	{r4,lr}
                    1516 .LDW24:
0000081c 49a1*      1517 	ldr	r1,.L7485
0000081e 7808       1518 	ldrb	r0,[r1]
00000820 b1c0*      1519 	cbz	r0,.L7507
00000822 4ca1*      1520 	ldr	r4,.L7486
00000824 7920       1521 	ldrb	r0,[r4,4]
00000826 0740       1522 	lsls	r0,r0,29
00000828 d514*      1523 	bpl	.L7507
                    1524 ;line8532
                    1525 ..lin.a553691..f0c2e1c1.0_51::
                    1526 .LDWlin51:
0000082a 48a0*      1527 	ldr	r0,.L7487
0000082c 4780       1528 	blx	r0
0000082e 7860       1529 	ldrb	r0,[r4,1]
00000830 3801       1530 	subs	r0,1
00000832 d30c*      1531 	blo	.L7498
                    1532 ;line8535
                    1533 ..lin.a553691..f0c2e1c1.0_52::
                    1534 .LDWlin52:
00000834 7060       1535 	strb	r0,[r4,1]
00000836 0600       1536 	lsls	r0,r0,24
00000838 d109*      1537 	bne	.L7498
                    1538 ;line8549
                    1539 ..lin.a553691..f0c2e1c1.0_53::
                    1540 .LDWlin53:
0000083a 4b9d*      1541 	ldr	r3,.L7488
0000083c 68a2       1542 	ldr	r2,[r4,8]
0000083e 6818       1543 	ldr	r0,[r3]
00000840 6921       1544 	ldr	r1,[r4,16]
00000842 6282       1545 	str	r2,[r0,40]
00000844 f4014240   1546 	and	r2,r1,3<<14
00000848 6841       1547 	ldr	r1,[r0,4]
0000084a 4311       1548 	orrs	r1,r2
0000084c 6041       1549 	str	r1,[r0,4]
                    1550 .L7498:
0000084e 4899*      1551 	ldr	r0,.L7489
00000850 4780       1552 	blx	r0
00000852 e005*      1553 	b	.L7490
                    1554 .L7507:
                    1555 ;line8565
                    1556 ..lin.a553691..f0c2e1c1.0_54::
                    1557 .LDWlin54:
00000854 2050       1558 	movs	r0,80
00000856 2305       1559 	movs	r3,5
00000858 4c91*      1560 	ldr	r4,.L7338
0000085a 461a       1561 	cpy	r2,r3
0000085c 2100       1562 	movs	r1,0
0000085e 47a0       1563 	blx	r4
                    1564 .L7490:
                    1565 .LDW34:
00000860 bd10       1566 	pop	{r4,pc}
                    1567 __ghs_eofn_Can_EnableControllerInterrupts::
                    1568 	.endf	Can_EnableControllerInterrupts
                    1569 ;pFlexcan	r0	local
                    1570 
                    1571 ;Controller	none	param
                    1572 
                    1573 ..gh.f.a.1.e.13:
                    1574 	.endo	..gh.f.a.1.e.13
                    1575 Can_Write::

                                                                      Page 27
                                                              C:\Users\Fengyuan\AppData\Local\Temp\gh_0000sro1.s
00000862 b5f0       1576 	push	{r4-r7,lr}
                    1577 .LDW44:
00000864 4b8f*      1578 	ldr	r3,.L7485
00000866 2400       1579 	movs	r4,0
00000868 781a       1580 	ldrb	r2,[r3]
0000086a b12a*      1581 	cbz	r2,.L7690
0000086c 2803       1582 	cmp	r0,3
0000086e d212*      1583 	bhs	.L7693
                    1584 ;line8665
                    1585 ..lin.a553691..eb269ae1.0_55::
                    1586 .LDWlin55:
00000870 4e8d*      1587 	ldr	r6,.L7486
00000872 7932       1588 	ldrb	r2,[r6,4]
00000874 0752       1589 	lsls	r2,r2,29
00000876 d406*      1590 	bmi	.L7689
                    1591 .L7690:
                    1592 ;line8667
                    1593 ..lin.a553691..eb269ae1.0_56::
                    1594 .LDWlin56:
00000878 2305       1595 	movs	r3,5
                    1596 .L7735:
                    1597 .LDW54:
                    1598 
0000087a 2050       1599 	movs	r0,80
0000087c 4d88*      1600 	ldr	r5,.L7338
0000087e 2206       1601 	movs	r2,6
00000880 4621       1602 	cpy	r1,r4
00000882 47a8       1603 	blx	r5
00000884 e05a*      1604 	b	.L7734
                    1605 .L7689:
                    1606 ;line8673
                    1607 ..lin.a553691..eb269ae1.0_57::
                    1608 .LDWlin57:
00000886 4a80*      1609 	ldr	r2,.L7332
00000888 eb1200c0   1610 	adds	r0,r2,r0 lsl 3
0000088c 7982       1611 	ldrb	r2,[r0,6]
0000088e 2a02       1612 	cmp	r2,2
00000890 d003*      1613 	beq	.L7692
00000892 2a05       1614 	cmp	r2,5
00000894 d001*      1615 	beq	.L7692
                    1616 .L7693:
                    1617 ;line8676
                    1618 ..lin.a553691..eb269ae1.0_58::
                    1619 .LDWlin58:
00000896 2302       1620 	movs	r3,2
00000898 e7ef*      1621 	b	.L7735
                    1622 .L7692:
                    1623 ;line8679
                    1624 ..lin.a553691..eb269ae1.0_59::
                    1625 .LDWlin59:
0000089a b171*      1626 	cbz	r1,.L7708
0000089c 684a       1627 	ldr	r2,[r1,4]
0000089e b90a*      1628 	cbnz	r2,.L7696
000008a0 788b       1629 	ldrb	r3,[r1,2]
000008a2 b953*      1630 	cbnz	r3,.L7708
                    1631 .L7696:
000008a4 880b       1632 	ldrh	r3,[r1]
000008a6 045d       1633 	lsls	r5,r3,17
000008a8 d407*      1634 	bmi	.L7708
                    1635 ;line8703
                    1636 ..lin.a553691..eb269ae1.0_60::

                                                                      Page 28
                                                              C:\Users\Fengyuan\AppData\Local\Temp\gh_0000sro1.s
                    1637 .LDWlin60:
000008aa 788d       1638 	ldrb	r5,[r1,2]
000008ac 2d08       1639 	cmp	r5,8
000008ae d901*      1640 	bls	.L7704
                    1641 ;line8705
                    1642 ..lin.a553691..eb269ae1.0_61::
                    1643 .LDWlin61:
000008b0 2303       1644 	movs	r3,3
000008b2 e7e2*      1645 	b	.L7735
                    1646 .L7704:
                    1647 ;line8716
                    1648 ..lin.a553691..eb269ae1.0_62::
                    1649 .LDWlin62:
000008b4 f4135760   1650 	ands	r7,r3,7<<11
000008b8 d001*      1651 	beq	.L7707
                    1652 .L7708:
                    1653 ;line8718
                    1654 ..lin.a553691..eb269ae1.0_63::
                    1655 .LDWlin63:
000008ba 2301       1656 	movs	r3,1
000008bc e7dd*      1657 	b	.L7735
                    1658 .L7707:
                    1659 ;line8732
                    1660 ..lin.a553691..eb269ae1.0_64::
                    1661 .LDWlin64:
000008be 78b4       1662 	ldrb	r4,[r6,2]
000008c0 b10c*      1663 	cbz	r4,.L7719
000008c2 463c       1664 	cpy	r4,r7
000008c4 e03a*      1665 	b	.L7734
                    1666 .L7719:
                    1667 .LDW64:
                    1668 
                    1669 ;line8752
                    1670 ..lin.a553691..eb269ae1.0_65::
                    1671 .LDWlin65:
000008c6 4e71*      1672 	ldr	r6,.L7333
000008c8 7940       1673 	ldrb	r0,[r0,5]
000008ca 5f34       1674 	ldrsh	r4,[r6,r4]
000008cc 4f70*      1675 	ldr	r7,.L7334
000008ce 1820       1676 	adds	r0,r4,r0
000008d0 b2c0       1677 	uxtb	r0,r0
000008d2 eb170640   1678 	adds	r6,r7,r0 lsl 1
000008d6 7877       1679 	ldrb	r7,[r6,1]
000008d8 2fff       1680 	cmp	r7,255
000008da d12e*      1681 	bne	.L7727
000008dc 7a09       1682 	ldrb	r1,[r1,8]
000008de 7031       1683 	strb	r1,[r6]
000008e0 2101       1684 	movs	r1,1
000008e2 7071       1685 	strb	r1,[r6,1]
000008e4 4e72*      1686 	ldr	r6,.L7488
000008e6 1b00       1687 	subs	r0,r0,r4
000008e8 b2c0       1688 	uxtb	r0,r0
000008ea 6831       1689 	ldr	r1,[r6]
000008ec 3180       1690 	adds	r1,128
000008ee eb111000   1691 	adds	r0,r1,r0 lsl 4
000008f2 055b       1692 	lsls	r3,r3,21
000008f4 08db       1693 	lsrs	r3,r3,3
000008f6 6043       1694 	str	r3,[r0,4]
000008f8 2180       1695 	movs	r1,128
000008fa f361151f   1696 	bfi	r5,r1,4,28
000008fe 8045       1697 	strh	r5,[r0,2]

                                                                      Page 29
                                                              C:\Users\Fengyuan\AppData\Local\Temp\gh_0000sro1.s
00000900 b1aa*      1698 	cbz	r2,.L7726
00000902 7811       1699 	ldrb	r1,[r2]
00000904 060b       1700 	lsls	r3,r1,24
00000906 7851       1701 	ldrb	r1,[r2,1]
00000908 7956       1702 	ldrb	r6,[r2,5]
0000090a ea534401   1703 	orrs	r4,r3,r1 lsl 16
0000090e 7893       1704 	ldrb	r3,[r2,2]
00000910 78d1       1705 	ldrb	r1,[r2,3]
00000912 ea542403   1706 	orrs	r4,r4,r3 lsl 8
00000916 7913       1707 	ldrb	r3,[r2,4]
00000918 430c       1708 	orrs	r4,r1
0000091a 0436       1709 	lsls	r6,r6,16
0000091c ea566103   1710 	orrs	r1,r6,r3 lsl 24
00000920 7995       1711 	ldrb	r5,[r2,6]
00000922 79d2       1712 	ldrb	r2,[r2,7]
00000924 ea512105   1713 	orrs	r1,r1,r5 lsl 8
00000928 4311       1714 	orrs	r1,r2
0000092a 6084       1715 	str	r4,[r0,8]
0000092c 60c1       1716 	str	r1,[r0,12]
                    1717 .L7726:
0000092e 8841       1718 	ldrh	r1,[r0,2]
00000930 2401       1719 	movs	r4,1
00000932 f4516144   1720 	orrs	r1,r1,0x0c40
00000936 8041       1721 	strh	r1,[r0,2]
00000938 e000*      1722 	b	.L7734
                    1723 .L7727:
0000093a 2403       1724 	movs	r4,3
                    1725 .L7734:
                    1726 ;line8772
                    1727 ..lin.a553691..eb269ae1.0_66::
                    1728 .LDWlin66:
0000093c 4620       1729 	cpy	r0,r4
                    1730 .LDW74:
0000093e bdf0       1731 	pop	{r4-r7,pc}
                    1732 __ghs_eofn_Can_Write::
                    1733 	.endf	Can_Write
                    1734 ;retval	r4	local
                    1735 ;logTxObjHandle	r0	local
                    1736 ;pFlexCANLocal	r1	local
                    1737 
                    1738 ;Hth	r0	param
                    1739 ;PduInfo	r1	param
                    1740 
                    1741 ..gh.f.a.1.e.14:
                    1742 	.endo	..gh.f.a.1.e.14
                    1743 Can_CheckWakeup::
                    1744 .LDW84:
00000940 2001       1745 	movs	r0,1
                    1746 .LDW94:
00000942 4770       1747 	ret
                    1748 __ghs_eofn_Can_CheckWakeup::
                    1749 	.endf	Can_CheckWakeup
                    1750 
                    1751 ;Controller	none	param
                    1752 
                    1753 	.section ".bss","awb"
                    1754 .L8254:
                    1755 	.endo	.L8254
                    1756 	.text
                    1757 ..gh.f.a.1.e.15:
                    1758 	.endo	..gh.f.a.1.e.15

                                                                      Page 30
                                                              C:\Users\Fengyuan\AppData\Local\Temp\gh_0000sro1.s
                    1759 Can_MainFunction_Write::
                    1760 .LDW05:
                    1761 .LDW15:
00000944 4770       1762 	ret
                    1763 __ghs_eofn_Can_MainFunction_Write::
                    1764 	.endf	Can_MainFunction_Write
                    1765 
                    1766 	.section ".bss","awb"
                    1767 .L8302:
                    1768 	.endo	.L8302
                    1769 	.text
                    1770 	.assert 0x0 + (canRxTaskActive - canConfigInitFlag) +0 == 4
                    1771 	.assert 0x0 + (canConfigInitFlag - canConfigInitFlag) +0 == 0
                    1772 ..gh.f.a.1.e.16:
                    1773 	.endo	..gh.f.a.1.e.16
                    1774 Can_MainFunction_Read::
00000946 b510       1775 	push	{r4,lr}
00000948 4856*      1776 	ldr	r0,.L7485
                    1777 .LDW25:
0000094a 7801       1778 	ldrb	r1,[r0]
0000094c b921*      1779 	cbnz	r1,.L8317
0000094e 2208       1780 	movs	r2,8
00000950 4c53*      1781 	ldr	r4,.L7338
00000952 2050       1782 	movs	r0,80
00000954 2305       1783 	movs	r3,5
00000956 47a0       1784 	blx	r4
                    1785 .L8317:
                    1786 .LDW35:
00000958 bd10       1787 	pop	{r4,pc}
                    1788 __ghs_eofn_Can_MainFunction_Read::
                    1789 	.endf	Can_MainFunction_Read
                    1790 
                    1791 ..gh.f.a.1.e.17:
                    1792 	.endo	..gh.f.a.1.e.17
                    1793 Can_MainFunction_BusOff::
                    1794 .LDW45:
                    1795 .LDW55:
0000095a 4770       1796 	ret
                    1797 __ghs_eofn_Can_MainFunction_BusOff::
                    1798 	.endf	Can_MainFunction_BusOff
                    1799 
                    1800 	.section ".bss","awb"
                    1801 .L8462:
                    1802 	.endo	.L8462
                    1803 	.text
                    1804 ..gh.f.a.1.e.18:
                    1805 	.endo	..gh.f.a.1.e.18
                    1806 Can_MainFunction_Wakeup::
                    1807 .LDW65:
                    1808 .LDW75:
0000095c 4770       1809 	ret
                    1810 __ghs_eofn_Can_MainFunction_Wakeup::
                    1811 	.endf	Can_MainFunction_Wakeup
                    1812 
                    1813 	.section ".bss","awb"
                    1814 .L8494:
                    1815 	.endo	.L8494
                    1816 	.text
                    1817 ..gh.f.a.1.e.19:
                    1818 	.endo	..gh.f.a.1.e.19
                    1819 Can_MainFunction_Mode::

                                                                      Page 31
                                                              C:\Users\Fengyuan\AppData\Local\Temp\gh_0000sro1.s
0000095e b5f0       1820 	push	{r4-r7,lr}
00000960 b081       1821 	sub	sp,4
                    1822 .LDW85:
00000962 4950*      1823 	ldr	r1,.L7485
00000964 7808       1824 	ldrb	r0,[r1]
00000966 b908*      1825 	cbnz	r0,.L8511
00000968 2505       1826 	movs	r5,5
0000096a e0b2*      1827 	b	.L8574
                    1828 .L8511:
0000096c 4852*      1829 	ldr	r0,.L9985
                    1830 ;line9215
                    1831 ..lin.a553691..8adb5325.0_67::
                    1832 .LDWlin67:
0000096e 2500       1833 	movs	r5,0
00000970 4780       1834 	blx	r0
00000972 4c4d*      1835 	ldr	r4,.L7486
00000974 7927       1836 	ldrb	r7,[r4,4]
00000976 0779       1837 	lsls	r1,r7,29
00000978 d401*      1838 	bmi	.L8514
                    1839 ;line9234
                    1840 ..lin.a553691..8adb5325.0_68::
                    1841 .LDWlin68:
0000097a 2505       1842 	movs	r5,5
0000097c e0a6*      1843 	b	.L8516
                    1844 .L8514:
                    1845 ;line9239
                    1846 ..lin.a553691..8adb5325.0_69::
                    1847 .LDWlin69:
0000097e 79a0       1848 	ldrb	r0,[r4,6]
00000980 2801       1849 	cmp	r0,1
00000982 f0c080a3*  1850 	blo	.L8516
00000986 d003*      1851 	beq	.L8525
00000988 2802       1852 	cmp	r0,2
0000098a d03d*      1853 	beq	.L8549
                    1854 ;line9253
                    1855 ..lin.a553691..8adb5325.0_70::
                    1856 .LDWlin70:
0000098c 2506       1857 	movs	r5,6
0000098e e09d*      1858 	b	.L8516
                    1859 .L8525:
                    1860 ;line9243
                    1861 ..lin.a553691..8adb5325.0_71::
                    1862 .LDWlin71:
00000990 4a47*      1863 	ldr	r2,.L7488
00000992 f0500004   1864 	orrs	r0,r0,4
00000996 71a0       1865 	strb	r0,[r4,6]
00000998 78a0       1866 	ldrb	r0,[r4,2]
0000099a 6811       1867 	ldr	r1,[r2]
0000099c b148*      1868 	cbz	r0,.L8540
0000099e 6a08       1869 	ldr	r0,[r1,32]
000009a0 f0100020   1870 	ands	r0,r0,32
000009a4 d103*      1871 	bne	.L8531
000009a6 4a45*      1872 	ldr	r2,.L9986
000009a8 70a5       1873 	strb	r5,[r4,2]
000009aa 4601       1874 	cpy	r1,r0
000009ac 4790       1875 	blx	r2
                    1876 .L8531:
000009ae 4628       1877 	cpy	r0,r5
000009b0 e019*      1878 	b	.L8528
                    1879 .L8540:
000009b2 7963       1880 	ldrb	r3,[r4,5]

                                                                      Page 32
                                                              C:\Users\Fengyuan\AppData\Local\Temp\gh_0000sro1.s
000009b4 884a       1881 	ldrh	r2,[r1,2]
000009b6 b98b*      1882 	cbnz	r3,.L8542
000009b8 f3c2020e   1883 	ubfx	r2,r2,0,15
000009bc 804a       1884 	strh	r2,[r1,2]
000009be 884a       1885 	ldrh	r2,[r1,2]
000009c0 f4325280   1886 	bics	r2,r2,1<<12
000009c4 804a       1887 	strh	r2,[r1,2]
000009c6 884a       1888 	ldrh	r2,[r1,2]
000009c8 f4324280   1889 	bics	r2,r2,1<<14
000009cc 804a       1890 	strh	r2,[r1,2]
000009ce 684a       1891 	ldr	r2,[r1,4]
000009d0 f0520240   1892 	orrs	r2,r2,64
000009d4 604a       1893 	str	r2,[r1,4]
000009d6 2101       1894 	movs	r1,1
000009d8 7161       1895 	strb	r1,[r4,5]
000009da e004*      1896 	b	.L8528
                    1897 .L8542:
000009dc 4938*      1898 	ldr	r1,.L9987
000009de 4011       1899 	ands	r1,r2
000009e0 d101*      1900 	bne	.L8528
000009e2 2001       1901 	movs	r0,1
000009e4 7165       1902 	strb	r5,[r4,5]
                    1903 .L8528:
000009e6 79a1       1904 	ldrb	r1,[r4,6]
000009e8 f00101fb   1905 	and	r1,r1,251
000009ec 71a1       1906 	strb	r1,[r4,6]
000009ee 2801       1907 	cmp	r0,1
000009f0 d16c*      1908 	bne	.L8516
000009f2 7920       1909 	ldrb	r0,[r4,4]
000009f4 f000000c   1910 	and	r0,r0,12
000009f8 4b26*      1911 	ldr	r3,.L7335
000009fa f0500001   1912 	orrs	r0,r0,1
000009fe 7120       1913 	strb	r0,[r4,4]
00000a00 71a5       1914 	strb	r5,[r4,6]
00000a02 7818       1915 	ldrb	r0,[r3]
00000a04 2102       1916 	movs	r1,2
00000a06 e05f*      1917 	b	.L9956
                    1918 .L8549:
                    1919 ;line9247
                    1920 ..lin.a553691..8adb5325.0_72::
                    1921 .LDWlin72:
00000a08 4a29*      1922 	ldr	r2,.L7488
00000a0a 6810       1923 	ldr	r0,[r2]
00000a0c 4b2c*      1924 	ldr	r3,.L9987
00000a0e 8841       1925 	ldrh	r1,[r0,2]
00000a10 4019       1926 	ands	r1,r3
00000a12 f5b14fb2   1927 	cmp	r1,89<<8
00000a16 d159*      1928 	bne	.L8516
00000a18 43eb       1929 	mvns	r3,r5
00000a1a 6303       1930 	str	r3,[r0,48]
00000a1c 2307       1931 	movs	r3,7
00000a1e 6203       1932 	str	r3,[r0,32]
00000a20 6843       1933 	ldr	r3,[r0,4]
00000a22 4629       1934 	cpy	r1,r5
00000a24 f0330340   1935 	bics	r3,r3,64
00000a28 321c       1936 	adds	r2,28
00000a2a 6043       1937 	str	r3,[r0,4]
00000a2c 7bd3       1938 	ldrb	r3,[r2,15]
                    1939 .L8562:
00000a2e 7c96       1940 	ldrb	r6,[r2,18]
00000a30 42b3       1941 	cmp	r3,r6

                                                                      Page 33
                                                              C:\Users\Fengyuan\AppData\Local\Temp\gh_0000sro1.s
00000a32 d20c*      1942 	bhs	.L8565
00000a34 b403       1943 	push	{r0-r1}
00000a36 f44f6100   1944 	mov	r1,1<<11
00000a3a 3080       1945 	adds	r0,128
00000a3c eb101003   1946 	adds	r0,r0,r3 lsl 4
00000a40 8041       1947 	strh	r1,[r0,2]
00000a42 3301       1948 	adds	r3,1
00000a44 bc03       1949 	pop	{r0-r1}
00000a46 e7f2*      1950 	b	.L8562
                    1951 .L8564:
00000a48 6306       1952 	str	r6,[r0,48]
00000a4a 3101       1953 	adds	r1,1
00000a4c b2c9       1954 	uxtb	r1,r1
                    1955 .L8565:
00000a4e 6b03       1956 	ldr	r3,[r0,48]
00000a50 2620       1957 	movs	r6,32
00000a52 069b       1958 	lsls	r3,r3,26
00000a54 d501*      1959 	bpl	.L8554
00000a56 2906       1960 	cmp	r1,6
00000a58 d3f6*      1961 	blo	.L8564
                    1962 .L8554:
00000a5a 7810       1963 	ldrb	r0,[r2]
00000a5c 490a*      1964 	ldr	r1,.L7332
00000a5e 4b0b*      1965 	ldr	r3,.L7333
00000a60 eb1100c0   1966 	adds	r0,r1,r0 lsl 3
00000a64 7940       1967 	ldrb	r0,[r0,5]
00000a66 8819       1968 	ldrh	r1,[r3]
00000a68 1808       1969 	adds	r0,r1,r0
00000a6a b2c0       1970 	uxtb	r0,r0
00000a6c 4908*      1971 	ldr	r1,.L7334
00000a6e 4b09*      1972 	ldr	r3,.L7335
00000a70 eb110040   1973 	adds	r0,r1,r0 lsl 1
00000a74 21ff       1974 	movs	r1,255
00000a76 7041       1975 	strb	r1,[r0,1]
00000a78 f007000c   1976 	and	r0,r7,12
00000a7c f0500002   1977 	orrs	r0,r0,2
00000a80 7120       1978 	strb	r0,[r4,4]
00000a82 71a5       1979 	strb	r5,[r4,6]
00000a84 e01e*      1980 	b	.L9989
                    1981 ;line9247
                    1982 ..lin.a553691..8adb5325.0_73::
                    1983 .LDWlin73:
00000a86 bf00       1984 	.align	4
00000a88 00000000*  1985 .L7332:	.data.w	Can_Mailbox
                    1986 	.endo	.L7332
                    1987 
00000a8c 00000000*  1988 .L7333:	.data.w	Can_TxOffsetHwToLog
                    1989 	.endo	.L7333
                    1990 
00000a90 00000000*  1991 .L7334:	.data.w	Can_ActiveSendObject
                    1992 	.endo	.L7334
                    1993 
00000a94 00000000*  1994 .L7335:	.data.w	Can_CanIfChannelId
                    1995 	.endo	.L7335
                    1996 
00000a98 00000000*  1997 .L7336:	.data.w	CanIf_ControllerModeIndication
                    1998 	.endo	.L7336
                    1999 
00000a9c 00000000*  2000 .L7337:	.data.w	SchM_Exit_Can_CAN_EXCLUSIVE_AREA_6
                    2001 	.endo	.L7337
                    2002 

                                                                      Page 34
                                                              C:\Users\Fengyuan\AppData\Local\Temp\gh_0000sro1.s
00000aa0 00000000*  2003 .L7338:	.data.w	Det_ReportError
                    2004 	.endo	.L7338
                    2005 
00000aa4 00000000*  2006 .L7485:	.data.w	canConfigInitFlag
                    2007 	.endo	.L7485
                    2008 
00000aa8 00000000*  2009 .L7486:	.data.w	Can_ControllerData
                    2010 	.endo	.L7486
                    2011 
00000aac 00000000*  2012 .L7487:	.data.w	SuspendAllInterrupts
                    2013 	.endo	.L7487
                    2014 
00000ab0 00000000*  2015 .L7488:	.data.w	Can_ControllerConfig
                    2016 	.endo	.L7488
                    2017 
00000ab4 00000000*  2018 .L7489:	.data.w	ResumeAllInterrupts
                    2019 	.endo	.L7489
                    2020 
00000ab8 00000000*  2021 .L9985:	.data.w	SchM_Enter_Can_CAN_EXCLUSIVE_AREA_6
                    2022 	.endo	.L9985
                    2023 
00000abc 00000000*  2024 .L9986:	.data.w	Can_InitController
                    2025 	.endo	.L9986
                    2026 
00000ac0 0000d910   2027 .L9987:	.data.w	0xd910
                    2028 	.endo	.L9987
                    2029 
                    2030 .L9989:
                    2031 
                    2032 ;line9247
                    2033 ..lin.a553691..8adb5325.0_74::
                    2034 .LDWlin74:
00000ac4 7818       2035 	ldrb	r0,[r3]
00000ac6 2101       2036 	movs	r1,1
                    2037 .L9956:
                    2038 
00000ac8 4a07*      2039 	ldr	r2,.L9990
00000aca 4790       2040 	blx	r2
                    2041 .L8516:
00000acc 4807*      2042 	ldr	r0,.L9991
00000ace 4780       2043 	blx	r0
00000ad0 b12d*      2044 	cbz	r5,.L8509
                    2045 .L8574:
00000ad2 462b       2046 	cpy	r3,r5
00000ad4 220c       2047 	movs	r2,12
00000ad6 4c06*      2048 	ldr	r4,.L9992
00000ad8 2050       2049 	movs	r0,80
00000ada 2100       2050 	movs	r1,0
00000adc 47a0       2051 	blx	r4
                    2052 .L8509:
                    2053 .LDW95:
00000ade b001       2054 	add	sp,4
00000ae0 bdf0       2055 	pop	{r4-r7,pc}
                    2056 __ghs_eofn_Can_MainFunction_Mode::
                    2057 	.endf	Can_MainFunction_Mode
                    2058 ;errorId	r5	local
                    2059 ;transitionDone	r0	local
                    2060 ;pFlexCANLocal	r1	local
                    2061 ;pFlexCANLocal	r0	local
                    2062 ;hwObjHandle	r3	local
                    2063 ;fifoLoopCnt	r1	local

                                                                      Page 35
                                                              C:\Users\Fengyuan\AppData\Local\Temp\gh_0000sro1.s
                    2064 
                    2065 ..gh.f.a.1.e.20:
                    2066 	.endo	..gh.f.a.1.e.20
                    2067 Can_CancelTx::
                    2068 .LDW06:
                    2069 .LDW16:
00000ae2 4770       2070 	ret
                    2071 __ghs_eofn_Can_CancelTx::
                    2072 	.endf	Can_CancelTx
                    2073 
                    2074 ;Hth	none	param
                    2075 ;PduId	none	param
                    2076 
                    2077 	.section ".bss","awb"
                    2078 .L10014:
                    2079 	.endo	.L10014
                    2080 	.text
                    2081 ..gh.f.a.1.e.21:
                    2082 	.endo	..gh.f.a.1.e.21
                    2083 Can_ResetBusOffStart::
                    2084 .LDW26:
                    2085 .LDW36:
00000ae4 4770       2086 	ret
                    2087 __ghs_eofn_Can_ResetBusOffStart::
                    2088 	.endf	Can_ResetBusOffStart
                    2089 
                    2090 ;Controller	none	param
                    2091 
                    2092 	.section ".bss","awb"
                    2093 .L10046:
                    2094 	.endo	.L10046
                    2095 	.text
                    2096 ..gh.f.a.1.e.22:
                    2097 	.endo	..gh.f.a.1.e.22
                    2098 Can_ResetBusOffEnd::
                    2099 .LDW46:
                    2100 .LDW56:
00000ae6 4770       2101 	ret
                    2102 __ghs_eofn_Can_ResetBusOffEnd::
                    2103 	.endf	Can_ResetBusOffEnd
                    2104 
                    2105 ;Controller	none	param
                    2106 
                    2107 	.section ".bss","awb"
                    2108 .L10078:
                    2109 	.endo	.L10078
                    2110 	.text
                    2111 	.align	4
00000ae8 00000000*  2112 .L9990:	.data.w	CanIf_ControllerModeIndication
                    2113 	.endo	.L9990
                    2114 
00000aec 00000000*  2115 .L9991:	.data.w	SchM_Exit_Can_CAN_EXCLUSIVE_AREA_6
                    2116 	.endo	.L9991
                    2117 
00000af0 00000000*  2118 .L9992:	.data.w	Det_ReportError
                    2119 	.endo	.L9992
                    2120 
                    2121 ;Can_CanIfChannelId	Can_CanIfChannelId	import
                    2122 ;Can_ControllerConfig	Can_ControllerConfig	import
                    2123 ;Can_InitBasicCan	Can_InitBasicCan	import
                    2124 ;Can_InitBasicCanIndex	Can_InitBasicCanIndex	import

                                                                      Page 36
                                                              C:\Users\Fengyuan\AppData\Local\Temp\gh_0000sro1.s
                    2125 ;Can_InitObject	Can_InitObject	import
                    2126 ;Can_InitObjectBaudrate	Can_InitObjectBaudrate	import
                    2127 ;Can_InitObjectStartIndex	Can_InitObjectStartIndex	import
                    2128 ;Can_Mailbox	Can_Mailbox	import
                    2129 ;Can_TxOffsetHwToLog	Can_TxOffsetHwToLog	import
                    2130 ;Can_ActiveSendObject	Can_ActiveSendObject	import
                    2131 ;Can_ControllerData	Can_ControllerData	import
                    2132 ;Can_MainVersion	Can_MainVersion	export
                    2133 ;Can_SubVersion	Can_SubVersion	export
                    2134 ;Can_ReleaseVersion	Can_ReleaseVersion	export
                    2135 ;canRxTaskActive	canRxTaskActive	static
                    2136 ;canConfigInitFlag	canConfigInitFlag	static
                    2137 ;Can_ConfigDataPtr	Can_ConfigDataPtr	export
                    2138 
                    2139 	.section ".rodata","a"
00000004 05         2140 Can_MainVersion::	.data.b	5
                    2141 	.endo	Can_MainVersion
00000005 04         2142 Can_SubVersion::	.data.b	4
                    2143 	.endo	Can_SubVersion
00000006 02         2144 Can_ReleaseVersion::	.data.b	2
                    2145 	.endo	Can_ReleaseVersion
                    2146 	.ghsnote info, 19, 3, 640
                    2147 	.text
                    2148 	.align	2
                    2149 ..eof.C.3A.5CVector.5CCBD1800257_D01_S32K1xx.5CApplications.5CS32K144_Start_new.5CAppl.5Cobj.5CCan...43.3A.5CVector.5CCBD1800257_D01_S32K1xx.5CApplications.5CS32K144_Start_new.5CAppl..60CBFD68..0::
                    2150 	.section	.debug_info
                    2151 .Ldw_begin:
00000000 00000000*  2152 	.data.w	.Ldw_end-.Ldw_begin-4
00000004 0002       2153 	.data.b	2,0
00000006 00000000*  2154 	.data.w	.Ldw_abbr_begin
0000000a 04         2155 	.data.b	4
                    2156 	.section	.debug_abbrev
                    2157 .Ldw_abbr_begin:
                    2158 	.section	.debug_info
0000000b 01         2159 	.data.b	1
0000000c 00000000*  2160 	.data.w	..bof.C.3A.5CVector.5CCBD1800257_D01_S32K1xx.5CApplications.5CS32K144_Start_new.5CAppl.5Cobj.5CCan...43.3A.5CVector.5CCBD1800257_D01_S32K1xx.5CApplications.5CS32K144_Start_new.5CAppl..60CBFD68..0
00000010 00000000*  2161 	.data.w	..eof.C.3A.5CVector.5CCBD1800257_D01_S32K1xx.5CApplications.5CS32K144_Start_new.5CAppl.5Cobj.5CCan...43.3A.5CVector.5CCBD1800257_D01_S32K1xx.5CApplications.5CS32K144_Start_new.5CAppl..60CBFD68..0
00000014 2e2f2e2e   2162 	.data.b	46,46,47,46,46,47,46,46,47,66,83,87,47,67,97,110,47,67,97,110,46,99,0
00000018 2e2e2f2e 
0000001c 5753422f 
00000020 6e61432f 
00000024 6e61432f 
00000028 00632e 
0000002b 565c3a43   2163 	.data.b	67,58,92,86,101,99,116,111,114,92,67,66,68,49,56,48,48,50,53,55,95,68,48,49,95,83,51,50,75,49,120,120,92,65,112,112,108,105,99,97,116,105,111,110,115,92,83,51,50,75,49,52,52,95,83,116,97,114,116,95
0000002f 6f746365 
00000033 42435c72 
00000037 30383144 
0000003b 37353230 
0000003f 3130445f 
00000043 3233535f 
00000047 7878314b 
0000004b 7070415c 
0000004f 6163696c 
00000053 6e6f6974 
00000057 33535c73 
0000005b 34314b32 
0000005f 74535f34 
00000063 5f747261 
00000067 5c77656e   2164 	.data.b	110,101,119,92,65,112,112,108,0
0000006b 6c707041 
0000006f 00 

                                                                      Page 37
                                                              C:\Users\Fengyuan\AppData\Local\Temp\gh_0000sro1.s
00000070 20534847   2165 	.data.b	71,72,83,32,67,32,50,48,49,55,46,49,46,52,32,91,100,117,97,108,93,0
00000074 30322043 
00000078 312e3731 
0000007c 5b20342e 
00000080 6c617564 
00000084 005d 
00000086 0001       2166 	.data.b	1,0
00000088 00000000*  2167 	.data.w	.Ldw_line_begin
0000008c 00000000*  2168 	.data.w	.Ldw_macinfo_begin
00000090 00         2169 	.data.b	0
                    2170 
                    2171 	.section	.debug_abbrev
00000000 01         2172 	.data.b	1
00000001 11         2173 	.data.b	17
00000002 01         2174 	.data.b	1
00000003 0111       2175 	.data.b	17,1
00000005 0112       2176 	.data.b	18,1
00000007 0803       2177 	.data.b	3,8
00000009 081b       2178 	.data.b	27,8
0000000b 0825       2179 	.data.b	37,8
0000000d 0513       2180 	.data.b	19,5
0000000f 0610       2181 	.data.b	16,6
00000011 0643       2182 	.data.b	67,6
00000013 0b42       2183 	.data.b	66,11
00000015 0000       2184 	.data.b	0,0
                    2185 
                    2186 	.section	.debug_line
                    2187 .Ldw_line_begin:
00000000 00000000*  2188 	.data.w	.Ldw_line_end-.Ldw_line_begin-4
00000004 0002       2189 	.data.b	2,0
00000006 00000000*  2190 	.data.w	.Ldw_lpro_end-.Ldw_lpro_begin
                    2191 .Ldw_lpro_begin:
0000000a 01         2192 	.data.b	1
0000000b 00         2193 	.data.b	0
0000000c 00         2194 	.data.b	0
0000000d 04         2195 	.data.b	4
0000000e 0a         2196 	.data.b	10
0000000f 010100     2197 	.data.b	0,1,1
00000012 000101     2198 	.data.b	1,1,0
00000015 010000     2199 	.data.b	0,0,1
00000018 00         2200 	.data.b	0
00000019 2e2f2e2e   2201 	.data.b	46,46,47,46,46,47,46,46,47,66,83,87,47,67,97,110,47,67,97,110,46,99,0
0000001d 2e2e2f2e 
00000021 5753422f 
00000025 6e61432f 
00000029 6e61432f 
0000002d 00632e 
00000030 000000     2202 	.data.b	0,0,0
00000033 2e2f2e2e   2203 	.data.b	46,46,47,46,46,47,46,46,47,98,115,119,47,99,97,110,105,102,47,67,97,110,73,102,95,67,98,107,46,104,0
00000037 2e2e2f2e 
0000003b 7773622f 
0000003f 6e61632f 
00000043 432f6669 
00000047 66496e61 
0000004b 6b62435f 
0000004f 00682e 
00000052 000000     2204 	.data.b	0,0,0
00000055 646e6567   2205 	.data.b	103,101,110,100,97,116,97,92,67,97,110,73,102,95,67,102,103,46,104,0
00000059 5c617461 
0000005d 496e6143 
00000061 66435f66 

                                                                      Page 38
                                                              C:\Users\Fengyuan\AppData\Local\Temp\gh_0000sro1.s
00000065 00682e67 
00000069 000000     2206 	.data.b	0,0,0
0000006c 2e2f2e2e   2207 	.data.b	46,46,47,46,46,47,46,46,47,98,115,119,47,99,97,110,47,67,97,110,46,104,0
00000070 2e2e2f2e 
00000074 7773622f 
00000078 6e61632f 
0000007c 6e61432f 
00000080 00682e 
00000083 000000     2208 	.data.b	0,0,0
00000086 646e6567   2209 	.data.b	103,101,110,100,97,116,97,92,67,97,110,95,67,102,103,46,104,0
0000008a 5c617461 
0000008e 5f6e6143 
00000092 2e676643 
00000096 0068 
00000098 000000     2210 	.data.b	0,0,0
0000009b 2e2f2e2e   2211 	.data.b	46,46,47,46,46,47,46,46,47,98,115,119,47,95,99,111,109,109,111,110,47,67,111,109,83,116,97,99,107,95,84,121,112,101,115,46,104,0
0000009f 2e2e2f2e 
000000a3 7773622f 
000000a7 6f635f2f 
000000ab 6e6f6d6d 
000000af 6d6f432f 
000000b3 63617453 
000000b7 79545f6b 
000000bb 2e736570 
000000bf 0068 
000000c1 000000     2212 	.data.b	0,0,0
000000c4 2e2f2e2e   2213 	.data.b	46,46,47,46,46,47,46,46,47,98,115,119,47,95,99,111,109,109,111,110,47,83,116,100,95,84,121,112,101,115,46,104,0
000000c8 2e2e2f2e 
000000cc 7773622f 
000000d0 6f635f2f 
000000d4 6e6f6d6d 
000000d8 6474532f 
000000dc 7079545f 
000000e0 682e7365 
000000e4 00 
000000e5 000000     2214 	.data.b	0,0,0
000000e8 2e2f2e2e   2215 	.data.b	46,46,47,46,46,47,46,46,47,98,115,119,47,95,99,111,109,109,111,110,47,80,108,97,116,102,111,114,109,95,84,121,112,101,115,46,104,0
000000ec 2e2e2f2e 
000000f0 7773622f 
000000f4 6f635f2f 
000000f8 6e6f6d6d 
000000fc 616c502f 
00000100 726f6674 
00000104 79545f6d 
00000108 2e736570 
0000010c 0068 
0000010e 000000     2216 	.data.b	0,0,0
00000111 2e2f2e2e   2217 	.data.b	46,46,47,46,46,47,46,46,47,98,115,119,47,95,99,111,109,109,111,110,47,67,111,109,112,105,108,101,114,46,104,0
00000115 2e2e2f2e 
00000119 7773622f 
0000011d 6f635f2f 
00000121 6e6f6d6d 
00000125 6d6f432f 
00000129 656c6970 
0000012d 00682e72 
00000131 000000     2218 	.data.b	0,0,0
00000134 6c636e69   2219 	.data.b	105,110,99,108,117,100,101,92,67,111,109,112,105,108,101,114,95,67,102,103,46,104,0
00000138 5c656475 
0000013c 706d6f43 
00000140 72656c69 
00000144 6766435f 

                                                                      Page 39
                                                              C:\Users\Fengyuan\AppData\Local\Temp\gh_0000sro1.s
00000148 00682e 
0000014b 000000     2220 	.data.b	0,0,0
0000014e 646e6567   2221 	.data.b	103,101,110,100,97,116,97,92,82,116,101,95,67,111,109,112,105,108,101,114,95,67,102,103,46,104,0
00000152 5c617461 
00000156 5f657452 
0000015a 706d6f43 
0000015e 72656c69 
00000162 6766435f 
00000166 00682e 
00000169 000000     2222 	.data.b	0,0,0
0000016c 6c636e69   2223 	.data.b	105,110,99,108,117,100,101,92,67,100,100,95,84,112,95,67,111,109,112,105,108,101,114,95,67,102,103,46,104,0
00000170 5c656475 
00000174 5f646443 
00000178 435f7054 
0000017c 69706d6f 
00000180 5f72656c 
00000184 2e676643 
00000188 0068 
0000018a 000000     2224 	.data.b	0,0,0
0000018d 6c636e69   2225 	.data.b	105,110,99,108,117,100,101,92,67,100,100,95,67,111,109,95,67,111,109,112,105,108,101,114,95,67,102,103,46,104,0
00000191 5c656475 
00000195 5f646443 
00000199 5f6d6f43 
0000019d 706d6f43 
000001a1 72656c69 
000001a5 6766435f 
000001a9 00682e 
000001ac 000000     2226 	.data.b	0,0,0
000001af 646e6567   2227 	.data.b	103,101,110,100,97,116,97,92,79,115,95,67,111,109,112,105,108,101,114,95,67,102,103,46,104,0
000001b3 5c617461 
000001b7 435f734f 
000001bb 69706d6f 
000001bf 5f72656c 
000001c3 2e676643 
000001c7 0068 
000001c9 000000     2228 	.data.b	0,0,0
000001cc 646e6567   2229 	.data.b	103,101,110,100,97,116,97,92,67,111,109,83,116,97,99,107,95,67,102,103,46,104,0
000001d0 5c617461 
000001d4 536d6f43 
000001d8 6b636174 
000001dc 6766435f 
000001e0 00682e 
000001e3 000000     2230 	.data.b	0,0,0
000001e6 2e2f2e2e   2231 	.data.b	46,46,47,46,46,47,46,46,47,98,115,119,47,95,99,111,109,109,111,110,47,67,97,110,95,71,101,110,101,114,97,108,84,121,112,101,115,46,104,0
000001ea 2e2e2f2e 
000001ee 7773622f 
000001f2 6f635f2f 
000001f6 6e6f6d6d 
000001fa 6e61432f 
000001fe 6e65475f 
00000202 6c617265 
00000206 65707954 
0000020a 00682e73 
0000020e 000000     2232 	.data.b	0,0,0
00000211 646e6567   2233 	.data.b	103,101,110,100,97,116,97,92,67,97,110,95,68,114,118,71,101,110,101,114,97,108,84,121,112,101,115,46,104,0
00000215 5c617461 
00000219 5f6e6143 
0000021d 47767244 
00000221 72656e65 
00000225 79546c61 
00000229 2e736570 

                                                                      Page 40
                                                              C:\Users\Fengyuan\AppData\Local\Temp\gh_0000sro1.s
0000022d 0068 
0000022f 000000     2234 	.data.b	0,0,0
00000232 2e2f2e2e   2235 	.data.b	46,46,47,46,46,47,46,46,47,98,115,119,47,99,97,110,105,102,47,67,97,110,73,102,95,71,101,110,101,114,97,108,84,121,112,101,115,46,104,0
00000236 2e2e2f2e 
0000023a 7773622f 
0000023e 6e61632f 
00000242 432f6669 
00000246 66496e61 
0000024a 6e65475f 
0000024e 6c617265 
00000252 65707954 
00000256 00682e73 
0000025a 000000     2236 	.data.b	0,0,0
0000025d 2e2f2e2e   2237 	.data.b	46,46,47,46,46,47,46,46,47,98,115,119,47,111,115,47,79,115,46,104,0
00000261 2e2e2f2e 
00000265 7773622f 
00000269 2f736f2f 
0000026d 682e734f 
00000271 00 
00000272 000000     2238 	.data.b	0,0,0
00000275 2e2f2e2e   2239 	.data.b	46,46,47,46,46,47,46,46,47,98,115,119,47,111,115,47,79,115,73,110,116,46,104,0
00000279 2e2e2f2e 
0000027d 7773622f 
00000281 2f736f2f 
00000285 6e49734f 
00000289 00682e74 
0000028d 000000     2240 	.data.b	0,0,0
00000290 646e6567   2241 	.data.b	103,101,110,100,97,116,97,92,79,115,95,76,99,102,103,46,104,0
00000294 5c617461 
00000298 4c5f734f 
0000029c 2e676663 
000002a0 0068 
000002a2 000000     2242 	.data.b	0,0,0
000002a5 646e6567   2243 	.data.b	103,101,110,100,97,116,97,92,79,115,95,67,102,103,46,104,0
000002a9 5c617461 
000002ad 435f734f 
000002b1 682e6766 
000002b5 00 
000002b6 000000     2244 	.data.b	0,0,0
000002b9 646e6567   2245 	.data.b	103,101,110,100,97,116,97,92,79,115,95,72,97,108,95,67,102,103,46,104,0
000002bd 5c617461 
000002c1 485f734f 
000002c5 435f6c61 
000002c9 682e6766 
000002cd 00 
000002ce 000000     2246 	.data.b	0,0,0
000002d1 2e2f2e2e   2247 	.data.b	46,46,47,46,46,47,46,46,47,98,115,119,47,111,115,47,79,115,95,84,121,112,101,115,46,104,0
000002d5 2e2e2f2e 
000002d9 7773622f 
000002dd 2f736f2f 
000002e1 545f734f 
000002e5 73657079 
000002e9 00682e 
000002ec 000000     2248 	.data.b	0,0,0
000002ef 646e6567   2249 	.data.b	103,101,110,100,97,116,97,92,79,115,95,84,121,112,101,115,95,76,99,102,103,46,104,0
000002f3 5c617461 
000002f7 545f734f 
000002fb 73657079 
000002ff 66634c5f 
00000303 00682e67 
00000307 000000     2250 	.data.b	0,0,0

                                                                      Page 41
                                                              C:\Users\Fengyuan\AppData\Local\Temp\gh_0000sro1.s
0000030a 2e2f2e2e   2251 	.data.b	46,46,47,46,46,47,46,46,47,98,115,119,47,111,115,47,79,115,95,72,97,108,95,79,115,95,84,121,112,101,115,46,104,0
0000030e 2e2e2f2e 
00000312 7773622f 
00000316 2f736f2f 
0000031a 485f734f 
0000031e 4f5f6c61 
00000322 79545f73 
00000326 2e736570 
0000032a 0068 
0000032c 000000     2252 	.data.b	0,0,0
0000032f 646e6567   2253 	.data.b	103,101,110,100,97,116,97,92,79,115,95,72,97,108,95,76,99,102,103,46,104,0
00000333 5c617461 
00000337 485f734f 
0000033b 4c5f6c61 
0000033f 2e676663 
00000343 0068 
00000345 000000     2254 	.data.b	0,0,0
00000348 6c636e69   2255 	.data.b	105,110,99,108,117,100,101,92,77,101,109,77,97,112,46,104,0
0000034c 5c656475 
00000350 4d6d654d 
00000354 682e7061 
00000358 00 
00000359 000000     2256 	.data.b	0,0,0
0000035c 2e2f2e2e   2257 	.data.b	46,46,47,46,46,47,46,46,47,98,115,119,47,111,115,47,79,115,95,72,97,108,95,79,115,73,110,116,46,104,0
00000360 2e2e2f2e 
00000364 7773622f 
00000368 2f736f2f 
0000036c 485f734f 
00000370 4f5f6c61 
00000374 746e4973 
00000378 00682e 
0000037b 000000     2258 	.data.b	0,0,0
0000037e 2e2f2e2e   2259 	.data.b	46,46,47,46,46,47,46,46,47,98,115,119,47,111,115,47,79,115,95,72,97,108,95,79,115,46,104,0
00000382 2e2e2f2e 
00000386 7773622f 
0000038a 2f736f2f 
0000038e 485f734f 
00000392 4f5f6c61 
00000396 00682e73 
0000039a 000000     2260 	.data.b	0,0,0
0000039d 2e2f2e2e   2261 	.data.b	46,46,47,46,46,47,46,46,47,98,115,119,47,111,115,47,79,115,95,77,101,109,77,97,112,95,79,115,67,111,100,101,46,104,0
000003a1 2e2e2f2e 
000003a5 7773622f 
000003a9 2f736f2f 
000003ad 4d5f734f 
000003b1 614d6d65 
000003b5 734f5f70 
000003b9 65646f43 
000003bd 00682e 
000003c0 000000     2262 	.data.b	0,0,0
000003c3 646e6567   2263 	.data.b	103,101,110,100,97,116,97,92,79,115,95,77,101,109,77,97,112,95,79,115,67,111,100,101,73,110,116,46,104,0
000003c7 5c617461 
000003cb 4d5f734f 
000003cf 614d6d65 
000003d3 734f5f70 
000003d7 65646f43 
000003db 2e746e49 
000003df 0068 
000003e1 000000     2264 	.data.b	0,0,0
000003e4 2e2f2e2e   2265 	.data.b	46,46,47,46,46,47,46,46,47,98,115,119,47,99,97,110,105,102,47,67,97,110,73,102,95,84,121,112,101,115,46,104,0
000003e8 2e2e2f2e 

                                                                      Page 42
                                                              C:\Users\Fengyuan\AppData\Local\Temp\gh_0000sro1.s
000003ec 7773622f 
000003f0 6e61632f 
000003f4 432f6669 
000003f8 66496e61 
000003fc 7079545f 
00000400 682e7365 
00000404 00 
00000405 000000     2266 	.data.b	0,0,0
00000408 2e2f2e2e   2267 	.data.b	46,46,47,46,46,47,46,46,47,98,115,119,47,99,97,110,105,102,47,67,97,110,73,102,46,104,0
0000040c 2e2e2f2e 
00000410 7773622f 
00000414 6e61632f 
00000418 432f6669 
0000041c 66496e61 
00000420 00682e 
00000423 000000     2268 	.data.b	0,0,0
00000426 2e2f2e2e   2269 	.data.b	46,46,47,46,46,47,46,46,47,66,83,87,47,67,97,110,47,67,97,110,95,76,111,99,97,108,46,104,0
0000042a 2e2e2f2e 
0000042e 5753422f 
00000432 6e61432f 
00000436 6e61432f 
0000043a 636f4c5f 
0000043e 682e6c61 
00000442 00 
00000443 000000     2270 	.data.b	0,0,0
00000446 646e6567   2271 	.data.b	103,101,110,100,97,116,97,92,83,99,104,77,95,67,97,110,46,104,0
0000044a 5c617461 
0000044e 4d686353 
00000452 6e61435f 
00000456 00682e 
00000459 000000     2272 	.data.b	0,0,0
0000045c 646e6567   2273 	.data.b	103,101,110,100,97,116,97,92,83,99,104,77,95,67,97,110,95,84,121,112,101,46,104,0
00000460 5c617461 
00000464 4d686353 
00000468 6e61435f 
0000046c 7079545f 
00000470 00682e65 
00000474 000000     2274 	.data.b	0,0,0
00000477 646e6567   2275 	.data.b	103,101,110,100,97,116,97,92,82,116,101,95,84,121,112,101,46,104,0
0000047b 5c617461 
0000047f 5f657452 
00000483 65707954 
00000487 00682e 
0000048a 000000     2276 	.data.b	0,0,0
0000048d 646e6567   2277 	.data.b	103,101,110,100,97,116,97,92,82,116,101,46,104,0
00000491 5c617461 
00000495 2e657452 
00000499 0068 
0000049b 000000     2278 	.data.b	0,0,0
0000049e 646e6567   2279 	.data.b	103,101,110,100,97,116,97,92,82,116,101,95,85,115,101,114,84,121,112,101,115,46,104,0
000004a2 5c617461 
000004a6 5f657452 
000004aa 72657355 
000004ae 65707954 
000004b2 00682e73 
000004b6 000000     2280 	.data.b	0,0,0
000004b9 646e6567   2281 	.data.b	103,101,110,100,97,116,97,92,82,116,101,95,68,97,116,97,72,97,110,100,108,101,84,121,112,101,46,104,0
000004bd 5c617461 
000004c1 5f657452 
000004c5 61746144 
000004c9 646e6148 

                                                                      Page 43
                                                              C:\Users\Fengyuan\AppData\Local\Temp\gh_0000sro1.s
000004cd 7954656c 
000004d1 682e6570 
000004d5 00 
000004d6 000000     2282 	.data.b	0,0,0
000004d9 2e2f2e2e   2283 	.data.b	46,46,47,46,46,47,46,46,47,98,115,119,47,100,101,116,47,68,101,116,46,104,0
000004dd 2e2e2f2e 
000004e1 7773622f 
000004e5 7465642f 
000004e9 7465442f 
000004ed 00682e 
000004f0 000000     2284 	.data.b	0,0,0
000004f3 646e6567   2285 	.data.b	103,101,110,100,97,116,97,92,68,101,116,95,67,102,103,46,104,0
000004f7 5c617461 
000004fb 5f746544 
000004ff 2e676643 
00000503 0068 
00000505 000000     2286 	.data.b	0,0,0
00000508 00         2287 	.data.b	0
                    2288 .Ldw_lpro_end:
                    2289 	.section	.debug_macinfo
                    2290 .Ldw_macinfo_begin:
                    2291 	.section	.debug_frame
                    2292 .LDW_5f1c410:
00000000 00000000*  2293 	.data.w	.LDW_unq_2-.LDW_unq_1
                    2294 .LDW_unq_1:
00000004 ffffffff   2295 	.data.b	255,255,255,255
00000008 01         2296 	.data.b	1
00000009 00         2297 	.data.b	0
0000000a 01         2298 	.data.b	1
0000000b 01         2299 	.data.b	1
0000000c 00         2300 	.data.b	0
0000000d 0c         2301 	.data.b	12
0000000e 0d         2302 	.data.b	13
0000000f 00         2303 	.data.b	0
00000010 07         2304 	.data.b	7
00000011 00         2305 	.data.b	0
00000012 07         2306 	.data.b	7
00000013 01         2307 	.data.b	1
00000014 07         2308 	.data.b	7
00000015 02         2309 	.data.b	2
00000016 07         2310 	.data.b	7
00000017 03         2311 	.data.b	3
00000018 07         2312 	.data.b	7
00000019 04         2313 	.data.b	4
0000001a 07         2314 	.data.b	7
0000001b 05         2315 	.data.b	5
0000001c 07         2316 	.data.b	7
0000001d 06         2317 	.data.b	6
0000001e 07         2318 	.data.b	7
0000001f 07         2319 	.data.b	7
00000020 07         2320 	.data.b	7
00000021 08         2321 	.data.b	8
00000022 07         2322 	.data.b	7
00000023 09         2323 	.data.b	9
00000024 07         2324 	.data.b	7
00000025 0a         2325 	.data.b	10
00000026 07         2326 	.data.b	7
00000027 0b         2327 	.data.b	11
00000028 07         2328 	.data.b	7
00000029 0c         2329 	.data.b	12
0000002a 07         2330 	.data.b	7

                                                                      Page 44
                                                              C:\Users\Fengyuan\AppData\Local\Temp\gh_0000sro1.s
0000002b 0d         2331 	.data.b	13
0000002c 07         2332 	.data.b	7
0000002d 0e         2333 	.data.b	14
0000002e 07         2334 	.data.b	7
0000002f 0f         2335 	.data.b	15
00000030 07         2336 	.data.b	7
00000031 10         2337 	.data.b	16
00000032 07         2338 	.data.b	7
00000033 11         2339 	.data.b	17
00000034 07         2340 	.data.b	7
00000035 12         2341 	.data.b	18
00000036 07         2342 	.data.b	7
00000037 13         2343 	.data.b	19
00000038 07         2344 	.data.b	7
00000039 14         2345 	.data.b	20
0000003a 07         2346 	.data.b	7
0000003b 15         2347 	.data.b	21
0000003c 07         2348 	.data.b	7
0000003d 16         2349 	.data.b	22
0000003e 07         2350 	.data.b	7
0000003f 17         2351 	.data.b	23
00000040 07         2352 	.data.b	7
00000041 18         2353 	.data.b	24
00000042 07         2354 	.data.b	7
00000043 19         2355 	.data.b	25
00000044 07         2356 	.data.b	7
00000045 1a         2357 	.data.b	26
00000046 07         2358 	.data.b	7
00000047 1b         2359 	.data.b	27
00000048 07         2360 	.data.b	7
00000049 1c         2361 	.data.b	28
0000004a 07         2362 	.data.b	7
0000004b 1d         2363 	.data.b	29
0000004c 07         2364 	.data.b	7
0000004d 1e         2365 	.data.b	30
0000004e 07         2366 	.data.b	7
0000004f 1f         2367 	.data.b	31
00000050 07         2368 	.data.b	7
00000051 20         2369 	.data.b	32
00000052 07         2370 	.data.b	7
00000053 21         2371 	.data.b	33
00000054 07         2372 	.data.b	7
00000055 22         2373 	.data.b	34
00000056 07         2374 	.data.b	7
00000057 23         2375 	.data.b	35
00000058 07         2376 	.data.b	7
00000059 24         2377 	.data.b	36
0000005a 07         2378 	.data.b	7
0000005b 25         2379 	.data.b	37
0000005c 07         2380 	.data.b	7
0000005d 26         2381 	.data.b	38
0000005e 07         2382 	.data.b	7
0000005f 27         2383 	.data.b	39
00000060 07         2384 	.data.b	7
00000061 28         2385 	.data.b	40
00000062 07         2386 	.data.b	7
00000063 29         2387 	.data.b	41
00000064 07         2388 	.data.b	7
00000065 2a         2389 	.data.b	42
00000066 07         2390 	.data.b	7
00000067 2b         2391 	.data.b	43

                                                                      Page 45
                                                              C:\Users\Fengyuan\AppData\Local\Temp\gh_0000sro1.s
00000068 07         2392 	.data.b	7
00000069 2c         2393 	.data.b	44
0000006a 07         2394 	.data.b	7
0000006b 2d         2395 	.data.b	45
0000006c 07         2396 	.data.b	7
0000006d 2e         2397 	.data.b	46
0000006e 07         2398 	.data.b	7
0000006f 2f         2399 	.data.b	47
00000070 07         2400 	.data.b	7
00000071 30         2401 	.data.b	48
00000072 07         2402 	.data.b	7
00000073 31         2403 	.data.b	49
00000074 07         2404 	.data.b	7
00000075 32         2405 	.data.b	50
00000076 07         2406 	.data.b	7
00000077 33         2407 	.data.b	51
00000078 07         2408 	.data.b	7
00000079 34         2409 	.data.b	52
0000007a 07         2410 	.data.b	7
0000007b 35         2411 	.data.b	53
0000007c 07         2412 	.data.b	7
0000007d 36         2413 	.data.b	54
0000007e 07         2414 	.data.b	7
0000007f 37         2415 	.data.b	55
00000080 07         2416 	.data.b	7
00000081 38         2417 	.data.b	56
00000082 07         2418 	.data.b	7
00000083 39         2419 	.data.b	57
00000084 07         2420 	.data.b	7
00000085 3a         2421 	.data.b	58
00000086 07         2422 	.data.b	7
00000087 3b         2423 	.data.b	59
00000088 07         2424 	.data.b	7
00000089 3c         2425 	.data.b	60
0000008a 07         2426 	.data.b	7
0000008b 3d         2427 	.data.b	61
0000008c 07         2428 	.data.b	7
0000008d 3e         2429 	.data.b	62
0000008e 07         2430 	.data.b	7
0000008f 3f         2431 	.data.b	63
                    2432 .LDW_unq_2:
                    2433 	.section	.debug_info
                    2434 .LDW_333d530:
00000091 27         2435 	.data.b	39
00000092 69736e75   2436 	.data.b	117,110,115,105,103,110,101,100,32,99,104,97,114,0
00000096 64656e67 
0000009a 61686320 
0000009e 0072 
000000a0 08         2437 	.data.b	8
000000a1 01         2438 	.data.b	1
                    2439 
                    2440 	.section	.debug_abbrev
00000017 27         2441 	.data.b	39
00000018 24         2442 	.data.b	36
00000019 00         2443 	.data.b	0
0000001a 0803       2444 	.data.b	3,8
0000001c 0b3e       2445 	.data.b	62,11
0000001e 0b0b       2446 	.data.b	11,11
00000020 0000       2447 	.data.b	0,0
                    2448 
                    2449 	.section	.debug_info

                                                                      Page 46
                                                              C:\Users\Fengyuan\AppData\Local\Temp\gh_0000sro1.s
                    2450 .LDW_333d648:
000000a2 46         2451 	.data.b	70
000000a3 00000000*  2452 	.data.w	.LDW_5c53d78
000000a7 01         2453 	.data.b	1
                    2454 
                    2455 	.section	.debug_abbrev
00000022 46         2456 	.data.b	70
00000023 15         2457 	.data.b	21
00000024 01         2458 	.data.b	1
00000025 1049       2459 	.data.b	73,16
00000027 0c27       2460 	.data.b	39,12
00000029 0000       2461 	.data.b	0,0
                    2462 
                    2463 	.section	.debug_info
                    2464 .LDW_3320628:
000000a8 14         2465 	.data.b	20
000000a9 00000000*  2466 	.data.w	.LDW_5e0df08
000000ad 00         2467 	.data.b	0
                    2468 
                    2469 	.section	.debug_abbrev
0000002b 14         2470 	.data.b	20
0000002c 05         2471 	.data.b	5
0000002d 00         2472 	.data.b	0
0000002e 1049       2473 	.data.b	73,16
00000030 0c4b       2474 	.data.b	75,12
00000032 0000       2475 	.data.b	0,0
                    2476 
                    2477 	.section	.debug_info
000000ae 00         2478 	.data.b	0
                    2479 
                    2480 .LDW_333d7d0:
000000af 27         2481 	.data.b	39
000000b0 69736e75   2482 	.data.b	117,110,115,105,103,110,101,100,32,108,111,110,103,0
000000b4 64656e67 
000000b8 6e6f6c20 
000000bc 0067 
000000be 07         2483 	.data.b	7
000000bf 04         2484 	.data.b	4
                    2485 
                    2486 .LDW_333d108:
000000c0 47         2487 	.data.b	71
000000c1 01         2488 	.data.b	1
                    2489 
                    2490 	.section	.debug_abbrev
00000034 47         2491 	.data.b	71
00000035 15         2492 	.data.b	21
00000036 01         2493 	.data.b	1
00000037 0c27       2494 	.data.b	39,12
00000039 0000       2495 	.data.b	0,0
                    2496 
                    2497 	.section	.debug_info
                    2498 .LDW_3320538:
000000c2 14         2499 	.data.b	20
000000c3 00000000*  2500 	.data.w	.LDW_5e0df08
000000c7 00         2501 	.data.b	0
                    2502 
000000c8 00         2503 	.data.b	0
                    2504 
                    2505 .LDW_333d680:
000000c9 47         2506 	.data.b	71
000000ca 01         2507 	.data.b	1

                                                                      Page 47
                                                              C:\Users\Fengyuan\AppData\Local\Temp\gh_0000sro1.s
                    2508 
000000cb 00         2509 	.data.b	0
                    2510 
                    2511 .LDW_333d178:
000000cc 46         2512 	.data.b	70
000000cd 00000000*  2513 	.data.w	.LDW_5c53d78
000000d1 01         2514 	.data.b	1
                    2515 
000000d2 00         2516 	.data.b	0
                    2517 
                    2518 .LDW_5e0e690:
000000d3 2d         2519 	.data.b	45
000000d4 00000000*  2520 	.data.w	.LDW_5e0ea00
                    2521 
                    2522 	.section	.debug_abbrev
0000003b 2d         2523 	.data.b	45
0000003c 35         2524 	.data.b	53
0000003d 00         2525 	.data.b	0
0000003e 1049       2526 	.data.b	73,16
00000040 0000       2527 	.data.b	0,0
                    2528 
                    2529 	.section	.debug_info
                    2530 .LDW_333d488:
000000d8 31         2531 	.data.b	49
000000d9 00000000*  2532 	.data.w	.LDW_5e0eb08
                    2533 
                    2534 	.section	.debug_abbrev
00000042 31         2535 	.data.b	49
00000043 0f         2536 	.data.b	15
00000044 00         2537 	.data.b	0
00000045 1049       2538 	.data.b	73,16
00000047 0000       2539 	.data.b	0,0
                    2540 
                    2541 	.section	.debug_info
                    2542 .LDW_333d338:
000000dd 46         2543 	.data.b	70
000000de 00000000*  2544 	.data.w	.LDW_5c53d78
000000e2 01         2545 	.data.b	1
                    2546 
000000e3 00         2547 	.data.b	0
                    2548 
                    2549 .LDW_333d6b8:
000000e4 46         2550 	.data.b	70
000000e5 00000000*  2551 	.data.w	.LDW_5c53d78
000000e9 01         2552 	.data.b	1
                    2553 
000000ea 00         2554 	.data.b	0
                    2555 
                    2556 .LDW_333d258:
000000eb 46         2557 	.data.b	70
000000ec 00000000*  2558 	.data.w	.LDW_5c53d78
000000f0 01         2559 	.data.b	1
                    2560 
000000f1 00         2561 	.data.b	0
                    2562 
                    2563 .LDW_5e0e798:
000000f2 2b         2564 	.data.b	43
000000f3 00000000*  2565 	.data.w	.LDW_5e0e740
                    2566 
                    2567 	.section	.debug_abbrev
00000049 2b         2568 	.data.b	43

                                                                      Page 48
                                                              C:\Users\Fengyuan\AppData\Local\Temp\gh_0000sro1.s
0000004a 26         2569 	.data.b	38
0000004b 00         2570 	.data.b	0
0000004c 1049       2571 	.data.b	73,16
0000004e 0000       2572 	.data.b	0,0
                    2573 
                    2574 	.section	.debug_info
                    2575 .LDW_333d370:
000000f7 31         2576 	.data.b	49
000000f8 00000000*  2577 	.data.w	.LDW_5e0e798
                    2578 
                    2579 .LDW_333d1e8:
000000fc 46         2580 	.data.b	70
000000fd 00000000*  2581 	.data.w	.LDW_5e0e5e0
00000101 01         2582 	.data.b	1
                    2583 
                    2584 .LDW_5f9ea20:
00000102 14         2585 	.data.b	20
00000103 00000000*  2586 	.data.w	.LDW_5e0e5e0
00000107 00         2587 	.data.b	0
                    2588 
                    2589 .LDW_5f9ea80:
00000108 14         2590 	.data.b	20
00000109 00000000*  2591 	.data.w	.LDW_5e0e7f0
0000010d 00         2592 	.data.b	0
                    2593 
0000010e 00         2594 	.data.b	0
                    2595 
                    2596 .LDW_333d2c8:
0000010f 46         2597 	.data.b	70
00000110 00000000*  2598 	.data.w	.LDW_5c53d78
00000114 01         2599 	.data.b	1
                    2600 
                    2601 .LDW_5f9e780:
00000115 14         2602 	.data.b	20
00000116 00000000*  2603 	.data.w	.LDW_5e0e5e0
0000011a 00         2604 	.data.b	0
                    2605 
                    2606 .LDW_5f9e8a0:
0000011b 14         2607 	.data.b	20
0000011c 00000000*  2608 	.data.w	.LDW_5e0e5e0
00000120 00         2609 	.data.b	0
                    2610 
                    2611 .LDW_5f9e360:
00000121 14         2612 	.data.b	20
00000122 00000000*  2613 	.data.w	.LDW_5e0e7f0
00000126 00         2614 	.data.b	0
                    2615 
00000127 00         2616 	.data.b	0
                    2617 
                    2618 .LDW_333d6f0:
00000128 31         2619 	.data.b	49
00000129 00000000*  2620 	.data.w	.LDW_5e0df08
                    2621 
                    2622 .LDW_333d3a8:
0000012d 27         2623 	.data.b	39
0000012e 00746e69   2624 	.data.b	105,110,116,0
00000132 05         2625 	.data.b	5
00000133 04         2626 	.data.b	4
                    2627 
                    2628 .LDW_5ee3060:
00000134 3c         2629 	.data.b	60

                                                                      Page 49
                                                              C:\Users\Fengyuan\AppData\Local\Temp\gh_0000sro1.s
00000135 00         2630 	.data.b	0
00000136 08         2631 	.data.b	8
00000137 00000000*  2632 	.data.w	.LDW_5e0e158
                    2633 
                    2634 	.section	.debug_abbrev
00000050 3c         2635 	.data.b	60
00000051 01         2636 	.data.b	1
00000052 01         2637 	.data.b	1
00000053 0b09       2638 	.data.b	9,11
00000055 0f0b       2639 	.data.b	11,15
00000057 1049       2640 	.data.b	73,16
00000059 0000       2641 	.data.b	0,0
                    2642 
                    2643 	.section	.debug_info
0000013b 34         2644 	.data.b	52
0000013c 00000000*  2645 	.data.w	.LDW_333d3a8
00000140 04         2646 	.data.b	4
00000141 00         2647 	.data.b	0
00000142 01         2648 	.data.b	1
                    2649 
                    2650 	.section	.debug_abbrev
0000005b 34         2651 	.data.b	52
0000005c 21         2652 	.data.b	33
0000005d 00         2653 	.data.b	0
0000005e 1049       2654 	.data.b	73,16
00000060 0f0b       2655 	.data.b	11,15
00000062 0d22       2656 	.data.b	34,13
00000064 0d2f       2657 	.data.b	47,13
00000066 0000       2658 	.data.b	0,0
                    2659 
                    2660 	.section	.debug_info
00000143 00         2661 	.data.b	0
                    2662 
                    2663 .LDW_333d450:
00000144 47         2664 	.data.b	71
00000145 01         2665 	.data.b	1
                    2666 
00000146 00         2667 	.data.b	0
                    2668 
                    2669 .LDW_333d290:
00000147 47         2670 	.data.b	71
00000148 01         2671 	.data.b	1
                    2672 
00000149 00         2673 	.data.b	0
                    2674 
                    2675 .LDW_333d418:
0000014a 46         2676 	.data.b	70
0000014b 00000000*  2677 	.data.w	.LDW_5e0e5e0
0000014f 01         2678 	.data.b	1
                    2679 
                    2680 .LDW_5f9e630:
00000150 14         2681 	.data.b	20
00000151 00000000*  2682 	.data.w	.LDW_5e0e5e0
00000155 00         2683 	.data.b	0
                    2684 
00000156 00         2685 	.data.b	0
                    2686 
                    2687 .LDW_333d4c0:
00000157 46         2688 	.data.b	70
00000158 00000000*  2689 	.data.w	.LDW_5e0e5e0
0000015c 01         2690 	.data.b	1

                                                                      Page 50
                                                              C:\Users\Fengyuan\AppData\Local\Temp\gh_0000sro1.s
                    2691 
                    2692 .LDW_5f9e7e0:
0000015d 14         2693 	.data.b	20
0000015e 00000000*  2694 	.data.w	.LDW_5e0e5e0
00000162 00         2695 	.data.b	0
                    2696 
00000163 00         2697 	.data.b	0
                    2698 
                    2699 .LDW_333d878:
00000164 27         2700 	.data.b	39
00000165 69736e75   2701 	.data.b	117,110,115,105,103,110,101,100,32,115,104,111,114,116,0
00000169 64656e67 
0000016d 6f687320 
00000171 007472 
00000174 07         2702 	.data.b	7
00000175 02         2703 	.data.b	2
                    2704 
                    2705 .LDW_5ee2608:
00000176 2d         2706 	.data.b	45
00000177 00000000*  2707 	.data.w	.LDW_5ee2818
                    2708 
                    2709 .LDW_333d808:
0000017b 31         2710 	.data.b	49
0000017c 00000000*  2711 	.data.w	.LDW_5ee2608
                    2712 
                    2713 .LDW_333d4f8:
00000180 46         2714 	.data.b	70
00000181 00000000*  2715 	.data.w	.LDW_5e0df08
00000185 01         2716 	.data.b	1
                    2717 
                    2718 .LDW_5f9e4b0:
00000186 14         2719 	.data.b	20
00000187 00000000*  2720 	.data.w	.LDW_5ee2978
0000018b 00         2721 	.data.b	0
                    2722 
                    2723 .LDW_5f9e690:
0000018c 14         2724 	.data.b	20
0000018d 00000000*  2725 	.data.w	.LDW_5ee2818
00000191 00         2726 	.data.b	0
                    2727 
                    2728 .LDW_5f9e600:
00000192 14         2729 	.data.b	20
00000193 00000000*  2730 	.data.w	.LDW_5ee2818
00000197 00         2731 	.data.b	0
                    2732 
00000198 00         2733 	.data.b	0
                    2734 
                    2735 .LDW_5ee2920:
00000199 2d         2736 	.data.b	45
0000019a 00000000*  2737 	.data.w	.LDW_5e0e158
                    2738 
                    2739 .LDW_5ee3678:
0000019e 31         2740 	.data.b	49
0000019f 00000000*  2741 	.data.w	.LDW_5ee2920
                    2742 
                    2743 .LDW_333d840:
000001a3 46         2744 	.data.b	70
000001a4 00000000*  2745 	.data.w	.LDW_5e0df08
000001a8 01         2746 	.data.b	1
                    2747 
                    2748 .LDW_5f9e510:

                                                                      Page 51
                                                              C:\Users\Fengyuan\AppData\Local\Temp\gh_0000sro1.s
000001a9 14         2749 	.data.b	20
000001aa 00000000*  2750 	.data.w	.LDW_5ee29d0
000001ae 00         2751 	.data.b	0
                    2752 
                    2753 .LDW_5f9e810:
000001af 14         2754 	.data.b	20
000001b0 00000000*  2755 	.data.w	.LDW_5e0e158
000001b4 00         2756 	.data.b	0
                    2757 
                    2758 .LDW_5f9e300:
000001b5 14         2759 	.data.b	20
000001b6 00000000*  2760 	.data.w	.LDW_5e0e158
000001ba 00         2761 	.data.b	0
                    2762 
000001bb 00         2763 	.data.b	0
                    2764 
                    2765 .LDW_5ee3598:
000001bc 46         2766 	.data.b	70
000001bd 00000000*  2767 	.data.w	.LDW_5e0df08
000001c1 01         2768 	.data.b	1
                    2769 
                    2770 .LDW_5f9e840:
000001c2 14         2771 	.data.b	20
000001c3 00000000*  2772 	.data.w	.LDW_5ee2818
000001c7 00         2773 	.data.b	0
                    2774 
                    2775 .LDW_5f9e870:
000001c8 14         2776 	.data.b	20
000001c9 00000000*  2777 	.data.w	.LDW_5ee2978
000001cd 00         2778 	.data.b	0
                    2779 
                    2780 .LDW_5f9e330:
000001ce 14         2781 	.data.b	20
000001cf 00000000*  2782 	.data.w	.LDW_5ee2818
000001d3 00         2783 	.data.b	0
                    2784 
                    2785 .LDW_5f9e750:
000001d4 14         2786 	.data.b	20
000001d5 00000000*  2787 	.data.w	.LDW_5ee2818
000001d9 00         2788 	.data.b	0
                    2789 
000001da 00         2790 	.data.b	0
                    2791 
                    2792 .LDW_5ee3918:
000001db 31         2793 	.data.b	49
000001dc 00000000*  2794 	.data.w	.LDW_5ee2d40
                    2795 
                    2796 .LDW_5ee3410:
000001e0 46         2797 	.data.b	70
000001e1 00000000*  2798 	.data.w	.LDW_5e0df08
000001e5 01         2799 	.data.b	1
                    2800 
                    2801 .LDW_5f9e390:
000001e6 14         2802 	.data.b	20
000001e7 00000000*  2803 	.data.w	.LDW_5ee2ef8
000001eb 00         2804 	.data.b	0
                    2805 
000001ec 00         2806 	.data.b	0
                    2807 
                    2808 .LDW_5ee3528:
000001ed 46         2809 	.data.b	70

                                                                      Page 52
                                                              C:\Users\Fengyuan\AppData\Local\Temp\gh_0000sro1.s
000001ee 00000000*  2810 	.data.w	.LDW_5e0df08
000001f2 01         2811 	.data.b	1
                    2812 
                    2813 .LDW_5f9e450:
000001f3 14         2814 	.data.b	20
000001f4 00000000*  2815 	.data.w	.LDW_5ee2ef8
000001f8 00         2816 	.data.b	0
                    2817 
000001f9 00         2818 	.data.b	0
                    2819 
                    2820 .LDW_5ee38e0:
000001fa 46         2821 	.data.b	70
000001fb 00000000*  2822 	.data.w	.LDW_5e0df08
000001ff 01         2823 	.data.b	1
                    2824 
                    2825 .LDW_5f9e5a0:
00000200 14         2826 	.data.b	20
00000201 00000000*  2827 	.data.w	.LDW_5ee2ef8
00000205 00         2828 	.data.b	0
                    2829 
00000206 00         2830 	.data.b	0
                    2831 
                    2832 .LDW_5ee3e38:
00000207 2d         2833 	.data.b	45
00000208 00000000*  2834 	.data.w	.LDW_5ee4468
                    2835 
                    2836 .LDW_5ee3480:
0000020c 31         2837 	.data.b	49
0000020d 00000000*  2838 	.data.w	.LDW_5ee3e90
                    2839 
                    2840 .LDW_5ee4150:
00000211 2d         2841 	.data.b	45
00000212 00000000*  2842 	.data.w	.LDW_5ee4518
                    2843 
                    2844 .LDW_5ee38a8:
00000216 31         2845 	.data.b	49
00000217 00000000*  2846 	.data.w	.LDW_5ee42b0
                    2847 
                    2848 .LDW_5ee3448:
0000021b 46         2849 	.data.b	70
0000021c 00000000*  2850 	.data.w	.LDW_5e0df08
00000220 01         2851 	.data.b	1
                    2852 
                    2853 .LDW_5fdfdd0:
00000221 14         2854 	.data.b	20
00000222 00000000*  2855 	.data.w	.LDW_5ee2ef8
00000226 00         2856 	.data.b	0
                    2857 
00000227 00         2858 	.data.b	0
                    2859 
                    2860 .LDW_5ee39c0:
00000228 46         2861 	.data.b	70
00000229 00000000*  2862 	.data.w	.LDW_5e0df08
0000022d 01         2863 	.data.b	1
                    2864 
                    2865 .LDW_5fdffe0:
0000022e 14         2866 	.data.b	20
0000022f 00000000*  2867 	.data.w	.LDW_5ee2ef8
00000233 00         2868 	.data.b	0
                    2869 
00000234 00         2870 	.data.b	0

                                                                      Page 53
                                                              C:\Users\Fengyuan\AppData\Local\Temp\gh_0000sro1.s
                    2871 
                    2872 .LDW_5ee36b0:
00000235 47         2873 	.data.b	71
00000236 01         2874 	.data.b	1
                    2875 
00000237 00         2876 	.data.b	0
                    2877 
                    2878 .LDW_5ee34b8:
00000238 47         2879 	.data.b	71
00000239 01         2880 	.data.b	1
                    2881 
0000023a 00         2882 	.data.b	0
                    2883 
                    2884 .LDW_5ee3870:
0000023b 47         2885 	.data.b	71
0000023c 01         2886 	.data.b	1
                    2887 
0000023d 00         2888 	.data.b	0
                    2889 
                    2890 .LDW_5ee36e8:
0000023e 31         2891 	.data.b	49
0000023f 00000000*  2892 	.data.w	.LDW_5ee4990
                    2893 
                    2894 .LDW_5ee3560:
00000243 46         2895 	.data.b	70
00000244 00000000*  2896 	.data.w	.LDW_5c53d78
00000248 01         2897 	.data.b	1
                    2898 
                    2899 .LDW_5fdfe30:
00000249 14         2900 	.data.b	20
0000024a 00000000*  2901 	.data.w	.LDW_5ee49e8
0000024e 00         2902 	.data.b	0
                    2903 
0000024f 00         2904 	.data.b	0
                    2905 
                    2906 .LDW_5ee3720:
00000250 46         2907 	.data.b	70
00000251 00000000*  2908 	.data.w	.LDW_5c53d78
00000255 01         2909 	.data.b	1
                    2910 
                    2911 .LDW_5fdfbc0:
00000256 14         2912 	.data.b	20
00000257 00000000*  2913 	.data.w	.LDW_5ee49e8
0000025b 00         2914 	.data.b	0
                    2915 
0000025c 00         2916 	.data.b	0
                    2917 
                    2918 .LDW_5ee34f0:
0000025d 47         2919 	.data.b	71
0000025e 01         2920 	.data.b	1
                    2921 
                    2922 .LDW_5fdfbf0:
0000025f 14         2923 	.data.b	20
00000260 00000000*  2924 	.data.w	.LDW_5ee49e8
00000264 00         2925 	.data.b	0
                    2926 
00000265 00         2927 	.data.b	0
                    2928 
                    2929 .LDW_5ee3758:
00000266 31         2930 	.data.b	49
00000267 00000000*  2931 	.data.w	.LDW_5ff0cc0

                                                                      Page 54
                                                              C:\Users\Fengyuan\AppData\Local\Temp\gh_0000sro1.s
                    2932 
                    2933 .LDW_5ee3838:
0000026b 46         2934 	.data.b	70
0000026c 00000000*  2935 	.data.w	.LDW_5e0df08
00000270 01         2936 	.data.b	1
                    2937 
                    2938 .LDW_5fdfe00:
00000271 14         2939 	.data.b	20
00000272 00000000*  2940 	.data.w	.LDW_5ff1030
00000276 00         2941 	.data.b	0
                    2942 
00000277 00         2943 	.data.b	0
                    2944 
                    2945 .LDW_5ee35d0:
00000278 47         2946 	.data.b	71
00000279 01         2947 	.data.b	1
                    2948 
                    2949 .LDW_5fdfe60:
0000027a 14         2950 	.data.b	20
0000027b 00000000*  2951 	.data.w	.LDW_5e0df08
0000027f 00         2952 	.data.b	0
                    2953 
00000280 00         2954 	.data.b	0
                    2955 
                    2956 .LDW_5ee3640:
00000281 31         2957 	.data.b	49
00000282 00000000*  2958 	.data.w	.LDW_5ff0e20
                    2959 
                    2960 .LDW_5ee3608:
00000286 47         2961 	.data.b	71
00000287 01         2962 	.data.b	1
                    2963 
                    2964 .LDW_5fdfd70:
00000288 14         2965 	.data.b	20
00000289 00000000*  2966 	.data.w	.LDW_5ff0ab0
0000028d 00         2967 	.data.b	0
                    2968 
                    2969 .LDW_5fdfc80:
0000028e 14         2970 	.data.b	20
0000028f 00000000*  2971 	.data.w	.LDW_5ff0f28
00000293 00         2972 	.data.b	0
                    2973 
00000294 00         2974 	.data.b	0
                    2975 
                    2976 .LDW_5ee3790:
00000295 47         2977 	.data.b	71
00000296 01         2978 	.data.b	1
                    2979 
                    2980 .LDW_5fe0100:
00000297 14         2981 	.data.b	20
00000298 00000000*  2982 	.data.w	.LDW_5ff0ab0
0000029c 00         2983 	.data.b	0
                    2984 
                    2985 .LDW_5fdfc20:
0000029d 14         2986 	.data.b	20
0000029e 00000000*  2987 	.data.w	.LDW_5ff0e20
000002a2 00         2988 	.data.b	0
                    2989 
000002a3 00         2990 	.data.b	0
                    2991 
                    2992 .LDW_5ee37c8:

                                                                      Page 55
                                                              C:\Users\Fengyuan\AppData\Local\Temp\gh_0000sro1.s
000002a4 47         2993 	.data.b	71
000002a5 01         2994 	.data.b	1
                    2995 
                    2996 .LDW_5fdfb60:
000002a6 14         2997 	.data.b	20
000002a7 00000000*  2998 	.data.w	.LDW_5ee2b88
000002ab 00         2999 	.data.b	0
                    3000 
000002ac 00         3001 	.data.b	0
                    3002 
                    3003 .LDW_5ee3950:
000002ad 47         3004 	.data.b	71
000002ae 01         3005 	.data.b	1
                    3006 
000002af 00         3007 	.data.b	0
                    3008 
                    3009 .LDW_5ee3800:
000002b0 47         3010 	.data.b	71
000002b1 01         3011 	.data.b	1
                    3012 
000002b2 00         3013 	.data.b	0
                    3014 
                    3015 .LDW_5ee3988:
000002b3 46         3016 	.data.b	70
000002b4 00000000*  3017 	.data.w	.LDW_5c53d78
000002b8 01         3018 	.data.b	1
                    3019 
000002b9 00         3020 	.data.b	0
                    3021 
                    3022 .LDW_5ee3aa0:
000002ba 47         3023 	.data.b	71
000002bb 01         3024 	.data.b	1
                    3025 
                    3026 .LDW_5fe0160:
000002bc 14         3027 	.data.b	20
000002bd 00000000*  3028 	.data.w	.LDW_5e0e158
000002c1 00         3029 	.data.b	0
                    3030 
                    3031 .LDW_5fe0190:
000002c2 14         3032 	.data.b	20
000002c3 00000000*  3033 	.data.w	.LDW_5e0e158
000002c7 00         3034 	.data.b	0
                    3035 
                    3036 .LDW_5fe0280:
000002c8 14         3037 	.data.b	20
000002c9 00000000*  3038 	.data.w	.LDW_5e0e5e0
000002cd 00         3039 	.data.b	0
                    3040 
000002ce 00         3041 	.data.b	0
                    3042 
                    3043 .LDW_5ee39f8:
000002cf 47         3044 	.data.b	71
000002d0 01         3045 	.data.b	1
                    3046 
                    3047 .LDW_5fe02b0:
000002d1 14         3048 	.data.b	20
000002d2 00000000*  3049 	.data.w	.LDW_5e0e5e0
000002d6 00         3050 	.data.b	0
                    3051 
000002d7 00         3052 	.data.b	0
                    3053 

                                                                      Page 56
                                                              C:\Users\Fengyuan\AppData\Local\Temp\gh_0000sro1.s
                    3054 .LDW_5ee3a30:
000002d8 47         3055 	.data.b	71
000002d9 01         3056 	.data.b	1
                    3057 
000002da 00         3058 	.data.b	0
                    3059 
                    3060 .LDW_5ee3a68:
000002db 47         3061 	.data.b	71
000002dc 01         3062 	.data.b	1
                    3063 
000002dd 00         3064 	.data.b	0
                    3065 
                    3066 .LDW_5ee3ad8:
000002de 47         3067 	.data.b	71
000002df 01         3068 	.data.b	1
                    3069 
                    3070 .LDW_5fe0250:
000002e0 14         3071 	.data.b	20
000002e1 00000000*  3072 	.data.w	.LDW_5e0e5e0
000002e5 00         3073 	.data.b	0
                    3074 
000002e6 00         3075 	.data.b	0
                    3076 
                    3077 .LDW_5ee3b80:
000002e7 47         3078 	.data.b	71
000002e8 01         3079 	.data.b	1
                    3080 
                    3081 .LDW_6021e50:
000002e9 14         3082 	.data.b	20
000002ea 00000000*  3083 	.data.w	.LDW_5e0e5e0
000002ee 00         3084 	.data.b	0
                    3085 
000002ef 00         3086 	.data.b	0
                    3087 
                    3088 .LDW_5ee3b48:
000002f0 47         3089 	.data.b	71
000002f1 01         3090 	.data.b	1
                    3091 
000002f2 00         3092 	.data.b	0
                    3093 
                    3094 .LDW_5ee3b10:
000002f3 47         3095 	.data.b	71
000002f4 01         3096 	.data.b	1
                    3097 
000002f5 00         3098 	.data.b	0
                    3099 
                    3100 .LDW_5ff1660:
000002f6 2b         3101 	.data.b	43
000002f7 00000000*  3102 	.data.w	.LDW_5ee2818
                    3103 
                    3104 .LDW_60223c8:
000002fb 46         3105 	.data.b	70
000002fc 00000000*  3106 	.data.w	.LDW_5ff14a8
00000300 01         3107 	.data.b	1
                    3108 
                    3109 .LDW_6021e20:
00000301 14         3110 	.data.b	20
00000302 00000000*  3111 	.data.w	.LDW_5e0df08
00000306 00         3112 	.data.b	0
                    3113 
                    3114 .LDW_6021e80:

                                                                      Page 57
                                                              C:\Users\Fengyuan\AppData\Local\Temp\gh_0000sro1.s
00000307 14         3115 	.data.b	20
00000308 00000000*  3116 	.data.w	.LDW_5ff1660
0000030c 00         3117 	.data.b	0
                    3118 
0000030d 00         3119 	.data.b	0
                    3120 
                    3121 .LDW_6025698:
0000030e 2b         3122 	.data.b	43
0000030f 00000000*  3123 	.data.w	.LDW_6025640
                    3124 
                    3125 .LDW_60222e8:
00000313 31         3126 	.data.b	49
00000314 00000000*  3127 	.data.w	.LDW_6025698
                    3128 
                    3129 .LDW_6022400:
00000318 47         3130 	.data.b	71
00000319 01         3131 	.data.b	1
                    3132 
                    3133 .LDW_6021a30:
0000031a 14         3134 	.data.b	20
0000031b 00000000*  3135 	.data.w	.LDW_6025328
0000031f 00         3136 	.data.b	0
                    3137 
00000320 00         3138 	.data.b	0
                    3139 
                    3140 .LDW_6024d50:
00000321 2b         3141 	.data.b	43
00000322 00000000*  3142 	.data.w	.LDW_6025430
                    3143 
                    3144 .LDW_6022320:
00000326 31         3145 	.data.b	49
00000327 00000000*  3146 	.data.w	.LDW_6024d50
                    3147 
                    3148 .LDW_6021f68:
0000032b 47         3149 	.data.b	71
0000032c 01         3150 	.data.b	1
                    3151 
                    3152 .LDW_6021c40:
0000032d 14         3153 	.data.b	20
0000032e 00000000*  3154 	.data.w	.LDW_5e0df08
00000332 00         3155 	.data.b	0
                    3156 
                    3157 .LDW_60217f0:
00000333 14         3158 	.data.b	20
00000334 00000000*  3159 	.data.w	.LDW_6024bf0
00000338 00         3160 	.data.b	0
                    3161 
00000339 00         3162 	.data.b	0
                    3163 
                    3164 .LDW_6022048:
0000033a 46         3165 	.data.b	70
0000033b 00000000*  3166 	.data.w	.LDW_5c53d78
0000033f 01         3167 	.data.b	1
                    3168 
                    3169 .LDW_6021910:
00000340 14         3170 	.data.b	20
00000341 00000000*  3171 	.data.w	.LDW_5e0df08
00000345 00         3172 	.data.b	0
                    3173 
                    3174 .LDW_6021a90:
00000346 14         3175 	.data.b	20

                                                                      Page 58
                                                              C:\Users\Fengyuan\AppData\Local\Temp\gh_0000sro1.s
00000347 00000000*  3176 	.data.w	.LDW_6024ae8
0000034b 00         3177 	.data.b	0
                    3178 
0000034c 00         3179 	.data.b	0
                    3180 
                    3181 .LDW_6022470:
0000034d 47         3182 	.data.b	71
0000034e 01         3183 	.data.b	1
                    3184 
                    3185 .LDW_60218b0:
0000034f 14         3186 	.data.b	20
00000350 00000000*  3187 	.data.w	.LDW_5e0df08
00000354 00         3188 	.data.b	0
                    3189 
00000355 00         3190 	.data.b	0
                    3191 
                    3192 .LDW_60224a8:
00000356 47         3193 	.data.b	71
00000357 01         3194 	.data.b	1
                    3195 
                    3196 .LDW_6021a00:
00000358 14         3197 	.data.b	20
00000359 00000000*  3198 	.data.w	.LDW_5e0df08
0000035d 00         3199 	.data.b	0
                    3200 
0000035e 00         3201 	.data.b	0
                    3202 
                    3203 .LDW_60225f8:
0000035f 46         3204 	.data.b	70
00000360 00000000*  3205 	.data.w	.LDW_5c53d78
00000364 01         3206 	.data.b	1
                    3207 
                    3208 .LDW_6021ca0:
00000365 14         3209 	.data.b	20
00000366 00000000*  3210 	.data.w	.LDW_5e0e5e0
0000036a 00         3211 	.data.b	0
                    3212 
                    3213 .LDW_6021cd0:
0000036b 14         3214 	.data.b	20
0000036c 00000000*  3215 	.data.w	.LDW_5e0e7f0
00000370 00         3216 	.data.b	0
                    3217 
00000371 00         3218 	.data.b	0
                    3219 
                    3220 .LDW_6022390:
00000372 46         3221 	.data.b	70
00000373 00000000*  3222 	.data.w	.LDW_5ff14a8
00000377 01         3223 	.data.b	1
                    3224 
                    3225 .LDW_6021b20:
00000378 14         3226 	.data.b	20
00000379 00000000*  3227 	.data.w	.LDW_5e0df08
0000037d 00         3228 	.data.b	0
                    3229 
0000037e 00         3230 	.data.b	0
                    3231 
                    3232 .LDW_6021fd8:
0000037f 47         3233 	.data.b	71
00000380 01         3234 	.data.b	1
                    3235 
00000381 00         3236 	.data.b	0

                                                                      Page 59
                                                              C:\Users\Fengyuan\AppData\Local\Temp\gh_0000sro1.s
                    3237 
                    3238 .LDW_60225c0:
00000382 47         3239 	.data.b	71
00000383 01         3240 	.data.b	1
                    3241 
00000384 00         3242 	.data.b	0
                    3243 
                    3244 .LDW_6022010:
00000385 47         3245 	.data.b	71
00000386 01         3246 	.data.b	1
                    3247 
00000387 00         3248 	.data.b	0
                    3249 
                    3250 .LDW_6022240:
00000388 47         3251 	.data.b	71
00000389 01         3252 	.data.b	1
                    3253 
0000038a 00         3254 	.data.b	0
                    3255 
                    3256 .LDW_6022208:
0000038b 47         3257 	.data.b	71
0000038c 01         3258 	.data.b	1
                    3259 
0000038d 00         3260 	.data.b	0
                    3261 
                    3262 .LDW_6022080:
0000038e 47         3263 	.data.b	71
0000038f 01         3264 	.data.b	1
                    3265 
                    3266 .LDW_6021c10:
00000390 14         3267 	.data.b	20
00000391 00000000*  3268 	.data.w	.LDW_5e0e5e0
00000395 00         3269 	.data.b	0
                    3270 
                    3271 .LDW_6021760:
00000396 14         3272 	.data.b	20
00000397 00000000*  3273 	.data.w	.LDW_5ff1298
0000039b 00         3274 	.data.b	0
                    3275 
0000039c 00         3276 	.data.b	0
                    3277 
                    3278 .LDW_6022518:
0000039d 47         3279 	.data.b	71
0000039e 01         3280 	.data.b	1
                    3281 
                    3282 .LDW_60219a0:
0000039f 14         3283 	.data.b	20
000003a0 00000000*  3284 	.data.w	.LDW_5e0df08
000003a4 00         3285 	.data.b	0
                    3286 
000003a5 00         3287 	.data.b	0
                    3288 
                    3289 .LDW_60224e0:
000003a6 47         3290 	.data.b	71
000003a7 01         3291 	.data.b	1
                    3292 
                    3293 .LDW_60219d0:
000003a8 14         3294 	.data.b	20
000003a9 00000000*  3295 	.data.w	.LDW_5e0df08
000003ad 00         3296 	.data.b	0
                    3297 

                                                                      Page 60
                                                              C:\Users\Fengyuan\AppData\Local\Temp\gh_0000sro1.s
000003ae 00         3298 	.data.b	0
                    3299 
                    3300 .LDW_6022278:
000003af 27         3301 	.data.b	39
000003b0 726f6873   3302 	.data.b	115,104,111,114,116,0
000003b4 0074 
000003b6 05         3303 	.data.b	5
000003b7 02         3304 	.data.b	2
                    3305 
                    3306 .LDW_60226a0:
000003b8 31         3307 	.data.b	49
000003b9 00000000*  3308 	.data.w	.LDW_5e0e208
                    3309 
                    3310 .LDW_605e7b8:
000003bd 3c         3311 	.data.b	60
000003be 00         3312 	.data.b	0
000003bf 08         3313 	.data.b	8
000003c0 00000000*  3314 	.data.w	.LDW_5e0e158
                    3315 
000003c4 34         3316 	.data.b	52
000003c5 00000000*  3317 	.data.w	.LDW_333d3a8
000003c9 04         3318 	.data.b	4
000003ca 00         3319 	.data.b	0
000003cb 01         3320 	.data.b	1
                    3321 
000003cc 00         3322 	.data.b	0
                    3323 
                    3324 .LDW_605e840:
000003cd 3c         3325 	.data.b	60
000003ce 00         3326 	.data.b	0
000003cf 18         3327 	.data.b	24
000003d0 00000000*  3328 	.data.w	.LDW_6059c18
                    3329 
000003d4 34         3330 	.data.b	52
000003d5 00000000*  3331 	.data.w	.LDW_333d3a8
000003d9 04         3332 	.data.b	4
000003da 00         3333 	.data.b	0
000003db 05         3334 	.data.b	5
                    3335 
000003dc 00         3336 	.data.b	0
                    3337 
                    3338 .LDW_6060b90:
000003dd 2b         3339 	.data.b	43
000003de 00000000*  3340 	.data.w	.LDW_5e0df08
                    3341 
                    3342 .LDW_605d5c0:
000003e2 31         3343 	.data.b	49
000003e3 00000000*  3344 	.data.w	.LDW_6060b90
                    3345 
                    3346 .LDW_6060820:
000003e7 2d         3347 	.data.b	45
000003e8 00000000*  3348 	.data.w	.LDW_6059f30
                    3349 
                    3350 .LDW_605d3c8:
000003ec 31         3351 	.data.b	49
000003ed 00000000*  3352 	.data.w	.LDW_6060820
                    3353 
                    3354 .LDW_60609d8:
000003f1 2d         3355 	.data.b	45
000003f2 00000000*  3356 	.data.w	.LDW_5e0df08
                    3357 

                                                                      Page 61
                                                              C:\Users\Fengyuan\AppData\Local\Temp\gh_0000sro1.s
                    3358 .LDW_605d4e0:
000003f6 31         3359 	.data.b	49
000003f7 00000000*  3360 	.data.w	.LDW_60609d8
                    3361 
                    3362 .LDW_60628e0:
000003fb 3c         3363 	.data.b	60
000003fc 00         3364 	.data.b	0
000003fd 08         3365 	.data.b	8
000003fe 00000000*  3366 	.data.w	.LDW_5e0e158
                    3367 
00000402 34         3368 	.data.b	52
00000403 00000000*  3369 	.data.w	.LDW_333d3a8
00000407 04         3370 	.data.b	4
00000408 00         3371 	.data.b	0
00000409 01         3372 	.data.b	1
                    3373 
0000040a 00         3374 	.data.b	0
                    3375 
                    3376 .LDW_6060508:
0000040b 2d         3377 	.data.b	45
0000040c 00000000*  3378 	.data.w	.LDW_6060be8
                    3379 
                    3380 .LDW_6063970:
00000410 3c         3381 	.data.b	60
00000411 00         3382 	.data.b	0
00000412 08         3383 	.data.b	8
00000413 00000000*  3384 	.data.w	.LDW_5e0e158
                    3385 
00000417 34         3386 	.data.b	52
00000418 00000000*  3387 	.data.w	.LDW_333d3a8
0000041c 04         3388 	.data.b	4
0000041d 00         3389 	.data.b	0
0000041e 01         3390 	.data.b	1
                    3391 
0000041f 00         3392 	.data.b	0
                    3393 
                    3394 .LDW_60639f8:
00000420 3c         3395 	.data.b	60
00000421 00         3396 	.data.b	0
00000422 14         3397 	.data.b	20
00000423 00000000*  3398 	.data.w	.LDW_5e0e158
                    3399 
00000427 34         3400 	.data.b	52
00000428 00000000*  3401 	.data.w	.LDW_333d3a8
0000042c 04         3402 	.data.b	4
0000042d 00         3403 	.data.b	0
0000042e 04         3404 	.data.b	4
                    3405 
0000042f 00         3406 	.data.b	0
                    3407 
                    3408 .LDW_6063a80:
00000430 3c         3409 	.data.b	60
00000431 00         3410 	.data.b	0
00000432 08         3411 	.data.b	8
00000433 00000000*  3412 	.data.w	.LDW_5e0e158
                    3413 
00000437 34         3414 	.data.b	52
00000438 00000000*  3415 	.data.w	.LDW_333d3a8
0000043c 04         3416 	.data.b	4
0000043d 00         3417 	.data.b	0
0000043e 01         3418 	.data.b	1

                                                                      Page 62
                                                              C:\Users\Fengyuan\AppData\Local\Temp\gh_0000sro1.s
                    3419 
0000043f 00         3420 	.data.b	0
                    3421 
                    3422 .LDW_6063b08:
00000440 3c         3423 	.data.b	60
00000441 00         3424 	.data.b	0
00000442 0480       3425 	.data.b	128,4
00000444 00000000*  3426 	.data.w	.LDW_6060560
                    3427 
00000448 34         3428 	.data.b	52
00000449 00000000*  3429 	.data.w	.LDW_333d3a8
0000044d 04         3430 	.data.b	4
0000044e 00         3431 	.data.b	0
0000044f 1f         3432 	.data.b	31
                    3433 
00000450 00         3434 	.data.b	0
                    3435 
                    3436 .LDW_605d550:
00000451 31         3437 	.data.b	49
00000452 00000000*  3438 	.data.w	.LDW_6060560
                    3439 
                    3440 .LDW_6063b90:
00000456 3c         3441 	.data.b	60
00000457 00         3442 	.data.b	0
00000458 0280       3443 	.data.b	128,2
0000045a 00000000*  3444 	.data.w	.LDW_5e0e158
                    3445 
0000045e 34         3446 	.data.b	52
0000045f 00000000*  3447 	.data.w	.LDW_333d3a8
00000463 04         3448 	.data.b	4
00000464 00         3449 	.data.b	0
00000465 3f         3450 	.data.b	63
                    3451 
00000466 00         3452 	.data.b	0
                    3453 
                    3454 .LDW_6063c18:
00000467 3c         3455 	.data.b	60
00000468 00         3456 	.data.b	0
00000469 08         3457 	.data.b	8
0000046a 00000000*  3458 	.data.w	.LDW_5e0e158
                    3459 
0000046e 34         3460 	.data.b	52
0000046f 00000000*  3461 	.data.w	.LDW_333d3a8
00000473 04         3462 	.data.b	4
00000474 00         3463 	.data.b	0
00000475 01         3464 	.data.b	1
                    3465 
00000476 00         3466 	.data.b	0
                    3467 
                    3468 .LDW_6064988:
00000477 3c         3469 	.data.b	60
00000478 00         3470 	.data.b	0
00000479 50         3471 	.data.b	80
0000047a 00000000*  3472 	.data.w	.LDW_5e0e158
                    3473 
0000047e 34         3474 	.data.b	52
0000047f 00000000*  3475 	.data.w	.LDW_333d3a8
00000483 04         3476 	.data.b	4
00000484 00         3477 	.data.b	0
00000485 13         3478 	.data.b	19
                    3479 

                                                                      Page 63
                                                              C:\Users\Fengyuan\AppData\Local\Temp\gh_0000sro1.s
00000486 00         3480 	.data.b	0
                    3481 
                    3482 .LDW_6064768:
00000487 3c         3483 	.data.b	60
00000488 00         3484 	.data.b	0
00000489 0480       3485 	.data.b	128,4
0000048b 00000000*  3486 	.data.w	.LDW_5e0e158
                    3487 
0000048f 34         3488 	.data.b	52
00000490 00000000*  3489 	.data.w	.LDW_333d3a8
00000494 04         3490 	.data.b	4
00000495 00         3491 	.data.b	0
00000496 00ff       3492 	.data.b	255,0
                    3493 
00000498 00         3494 	.data.b	0
                    3495 
                    3496 .LDW_605d0b8:
00000499 27         3497 	.data.b	39
0000049a 69736e75   3498 	.data.b	117,110,115,105,103,110,101,100,32,105,110,116,0
0000049e 64656e67 
000004a2 746e6920 
000004a6 00 
000004a7 07         3499 	.data.b	7
000004a8 04         3500 	.data.b	4
                    3501 
                    3502 .LDW_60755d8:
000004a9 2b         3503 	.data.b	43
000004aa 00000000*  3504 	.data.w	.LDW_605f0e0
                    3505 
                    3506 .LDW_60643b0:
000004ae 3c         3507 	.data.b	60
000004af 00         3508 	.data.b	0
000004b0 02         3509 	.data.b	2
000004b1 00000000*  3510 	.data.w	.LDW_60755d8
                    3511 
000004b5 34         3512 	.data.b	52
000004b6 00000000*  3513 	.data.w	.LDW_333d3a8
000004ba 04         3514 	.data.b	4
000004bb 00         3515 	.data.b	0
000004bc 00         3516 	.data.b	0
                    3517 
000004bd 00         3518 	.data.b	0
                    3519 
                    3520 .LDW_6063e60:
000004be 3c         3521 	.data.b	60
000004bf 00         3522 	.data.b	0
000004c0 34         3523 	.data.b	52
000004c1 00000000*  3524 	.data.w	.LDW_6024d50
                    3525 
000004c5 34         3526 	.data.b	52
000004c6 00000000*  3527 	.data.w	.LDW_333d3a8
000004ca 04         3528 	.data.b	4
000004cb 00         3529 	.data.b	0
000004cc 00         3530 	.data.b	0
                    3531 
000004cd 00         3532 	.data.b	0
                    3533 
                    3534 .LDW_6075058:
000004ce 2b         3535 	.data.b	43
000004cf 00000000*  3536 	.data.w	.LDW_6060878
                    3537 

                                                                      Page 64
                                                              C:\Users\Fengyuan\AppData\Local\Temp\gh_0000sro1.s
                    3538 .LDW_6064438:
000004d3 3c         3539 	.data.b	60
000004d4 00         3540 	.data.b	0
000004d5 40         3541 	.data.b	64
000004d6 00000000*  3542 	.data.w	.LDW_6075058
                    3543 
000004da 34         3544 	.data.b	52
000004db 00000000*  3545 	.data.w	.LDW_333d3a8
000004df 04         3546 	.data.b	4
000004e0 00         3547 	.data.b	0
000004e1 07         3548 	.data.b	7
                    3549 
000004e2 00         3550 	.data.b	0
                    3551 
                    3552 .LDW_60758f0:
000004e3 2b         3553 	.data.b	43
000004e4 00000000*  3554 	.data.w	.LDW_605fb10
                    3555 
                    3556 .LDW_6064218:
000004e8 3c         3557 	.data.b	60
000004e9 00         3558 	.data.b	0
000004ea 02         3559 	.data.b	2
000004eb 00000000*  3560 	.data.w	.LDW_60758f0
                    3561 
000004ef 34         3562 	.data.b	52
000004f0 00000000*  3563 	.data.w	.LDW_333d3a8
000004f4 04         3564 	.data.b	4
000004f5 00         3565 	.data.b	0
000004f6 00         3566 	.data.b	0
                    3567 
000004f7 00         3568 	.data.b	0
                    3569 
                    3570 .LDW_60752c0:
000004f8 2b         3571 	.data.b	43
000004f9 00000000*  3572 	.data.w	.LDW_6060da0
                    3573 
                    3574 .LDW_6064a10:
000004fd 3c         3575 	.data.b	60
000004fe 00         3576 	.data.b	0
000004ff 08         3577 	.data.b	8
00000500 00000000*  3578 	.data.w	.LDW_60752c0
                    3579 
00000504 34         3580 	.data.b	52
00000505 00000000*  3581 	.data.w	.LDW_333d3a8
00000509 04         3582 	.data.b	4
0000050a 00         3583 	.data.b	0
0000050b 00         3584 	.data.b	0
                    3585 
0000050c 00         3586 	.data.b	0
                    3587 
                    3588 .LDW_60754d0:
0000050d 2b         3589 	.data.b	43
0000050e 00000000*  3590 	.data.w	.LDW_605f9b0
                    3591 
                    3592 .LDW_6064658:
00000512 3c         3593 	.data.b	60
00000513 00         3594 	.data.b	0
00000514 02         3595 	.data.b	2
00000515 00000000*  3596 	.data.w	.LDW_60754d0
                    3597 
00000519 34         3598 	.data.b	52

                                                                      Page 65
                                                              C:\Users\Fengyuan\AppData\Local\Temp\gh_0000sro1.s
0000051a 00000000*  3599 	.data.w	.LDW_333d3a8
0000051e 04         3600 	.data.b	4
0000051f 00         3601 	.data.b	0
00000520 00         3602 	.data.b	0
                    3603 
00000521 00         3604 	.data.b	0
                    3605 
                    3606 .LDW_6075268:
00000522 2b         3607 	.data.b	43
00000523 00000000*  3608 	.data.w	.LDW_605f900
                    3609 
                    3610 .LDW_6064878:
00000527 3c         3611 	.data.b	60
00000528 00         3612 	.data.b	0
00000529 02         3613 	.data.b	2
0000052a 00000000*  3614 	.data.w	.LDW_6075268
                    3615 
0000052e 34         3616 	.data.b	52
0000052f 00000000*  3617 	.data.w	.LDW_333d3a8
00000533 04         3618 	.data.b	4
00000534 00         3619 	.data.b	0
00000535 01         3620 	.data.b	1
                    3621 
00000536 00         3622 	.data.b	0
                    3623 
                    3624 .LDW_6075790:
00000537 2b         3625 	.data.b	43
00000538 00000000*  3626 	.data.w	.LDW_60604b0
                    3627 
                    3628 .LDW_6063dd8:
0000053c 3c         3629 	.data.b	60
0000053d 00         3630 	.data.b	0
0000053e 18         3631 	.data.b	24
0000053f 00000000*  3632 	.data.w	.LDW_6075790
                    3633 
00000543 34         3634 	.data.b	52
00000544 00000000*  3635 	.data.w	.LDW_333d3a8
00000548 04         3636 	.data.b	4
00000549 00         3637 	.data.b	0
0000054a 02         3638 	.data.b	2
                    3639 
0000054b 00         3640 	.data.b	0
                    3641 
                    3642 .LDW_6075370:
0000054c 2b         3643 	.data.b	43
0000054d 00000000*  3644 	.data.w	.LDW_60600e8
                    3645 
                    3646 .LDW_6064ba8:
00000551 3c         3647 	.data.b	60
00000552 00         3648 	.data.b	0
00000553 02         3649 	.data.b	2
00000554 00000000*  3650 	.data.w	.LDW_6075370
                    3651 
00000558 34         3652 	.data.b	52
00000559 00000000*  3653 	.data.w	.LDW_333d3a8
0000055d 04         3654 	.data.b	4
0000055e 00         3655 	.data.b	0
0000055f 00         3656 	.data.b	0
                    3657 
00000560 00         3658 	.data.b	0
                    3659 

                                                                      Page 66
                                                              C:\Users\Fengyuan\AppData\Local\Temp\gh_0000sro1.s
                    3660 .LDW_6063ee8:
00000561 3c         3661 	.data.b	60
00000562 00         3662 	.data.b	0
00000563 04         3663 	.data.b	4
00000564 00000000*  3664 	.data.w	.LDW_60603a8
                    3665 
00000568 34         3666 	.data.b	52
00000569 00000000*  3667 	.data.w	.LDW_333d3a8
0000056d 04         3668 	.data.b	4
0000056e 00         3669 	.data.b	0
0000056f 01         3670 	.data.b	1
                    3671 
00000570 00         3672 	.data.b	0
                    3673 
                    3674 .LDW_6064328:
00000571 3c         3675 	.data.b	60
00000572 00         3676 	.data.b	0
00000573 40         3677 	.data.b	64
00000574 00000000*  3678 	.data.w	.LDW_6060ae0
                    3679 
00000578 34         3680 	.data.b	52
00000579 00000000*  3681 	.data.w	.LDW_333d3a8
0000057d 04         3682 	.data.b	4
0000057e 00         3683 	.data.b	0
0000057f 00         3684 	.data.b	0
                    3685 
00000580 00         3686 	.data.b	0
                    3687 
                    3688 .LDW_6074b30:
00000581 2b         3689 	.data.b	43
00000582 00000000*  3690 	.data.w	.LDW_60222e8
                    3691 
                    3692 .LDW_6079218:
00000586 47         3693 	.data.b	71
00000587 01         3694 	.data.b	1
                    3695 
00000588 00         3696 	.data.b	0
                    3697 
                    3698 .LDW_6078f08:
00000589 47         3699 	.data.b	71
0000058a 01         3700 	.data.b	1
                    3701 
0000058b 00         3702 	.data.b	0
                    3703 
                    3704 .LDW_607b9b8:
0000058c 46         3705 	.data.b	70
0000058d 00000000*  3706 	.data.w	.LDW_5cc5ec8
00000591 01         3707 	.data.b	1
                    3708 
                    3709 .LDW_6055a68:
00000592 14         3710 	.data.b	20
00000593 00000000*  3711 	.data.w	.LDW_6057738
00000597 00         3712 	.data.b	0
                    3713 
                    3714 .LDW_6055a38:
00000598 14         3715 	.data.b	20
00000599 00000000*  3716 	.data.w	.LDW_6059640
0000059d 00         3717 	.data.b	0
                    3718 
0000059e 00         3719 	.data.b	0
                    3720 

                                                                      Page 67
                                                              C:\Users\Fengyuan\AppData\Local\Temp\gh_0000sro1.s
                    3721 .LDW_607ba60:
0000059f 46         3722 	.data.b	70
000005a0 00000000*  3723 	.data.w	.LDW_5cc5ec8
000005a4 01         3724 	.data.b	1
                    3725 
                    3726 .LDW_6055918:
000005a5 14         3727 	.data.b	20
000005a6 00000000*  3728 	.data.w	.LDW_6057738
000005aa 00         3729 	.data.b	0
                    3730 
                    3731 .LDW_6055948:
000005ab 14         3732 	.data.b	20
000005ac 00000000*  3733 	.data.w	.LDW_6059640
000005b0 00         3734 	.data.b	0
                    3735 
                    3736 .LDW_6055ca8:
000005b1 14         3737 	.data.b	20
000005b2 00000000*  3738 	.data.w	.LDW_6059640
000005b6 00         3739 	.data.b	0
                    3740 
000005b7 00         3741 	.data.b	0
                    3742 
                    3743 .LDW_607eec0:
000005b8 31         3744 	.data.b	49
000005b9 00000000*  3745 	.data.w	.LDW_5e0e158
                    3746 
                    3747 .LDW_6083798:
000005bd 47         3748 	.data.b	71
000005be 01         3749 	.data.b	1
                    3750 
                    3751 .LDW_6080658:
000005bf 14         3752 	.data.b	20
000005c0 00000000*  3753 	.data.w	.LDW_5ff1298
000005c4 00         3754 	.data.b	0
                    3755 
000005c5 00         3756 	.data.b	0
                    3757 
                    3758 .LDW_60833a8:
000005c6 47         3759 	.data.b	71
000005c7 01         3760 	.data.b	1
                    3761 
                    3762 .LDW_6080568:
000005c8 14         3763 	.data.b	20
000005c9 00000000*  3764 	.data.w	.LDW_5e0e5e0
000005cd 00         3765 	.data.b	0
                    3766 
                    3767 .LDW_60802c8:
000005ce 14         3768 	.data.b	20
000005cf 00000000*  3769 	.data.w	.LDW_5cc6970
000005d3 00         3770 	.data.b	0
                    3771 
                    3772 .LDW_6080688:
000005d4 14         3773 	.data.b	20
000005d5 00000000*  3774 	.data.w	.LDW_5e0df08
000005d9 00         3775 	.data.b	0
                    3776 
                    3777 .LDW_60802f8:
000005da 14         3778 	.data.b	20
000005db 00000000*  3779 	.data.w	.LDW_605d5c0
000005df 00         3780 	.data.b	0
                    3781 

                                                                      Page 68
                                                              C:\Users\Fengyuan\AppData\Local\Temp\gh_0000sro1.s
000005e0 00         3782 	.data.b	0
                    3783 
                    3784 .LDW_60836b8:
000005e1 47         3785 	.data.b	71
000005e2 01         3786 	.data.b	1
                    3787 
                    3788 .LDW_6080328:
000005e3 14         3789 	.data.b	20
000005e4 00000000*  3790 	.data.w	.LDW_5e0df08
000005e8 00         3791 	.data.b	0
                    3792 
000005e9 00         3793 	.data.b	0
                    3794 
                    3795 .LDW_6083aa8:
000005ea 47         3796 	.data.b	71
000005eb 01         3797 	.data.b	1
                    3798 
                    3799 .LDW_6080298:
000005ec 14         3800 	.data.b	20
000005ed 00000000*  3801 	.data.w	.LDW_5e0df08
000005f1 00         3802 	.data.b	0
                    3803 
                    3804 .LDW_6080478:
000005f2 14         3805 	.data.b	20
000005f3 00000000*  3806 	.data.w	.LDW_6061428
000005f7 00         3807 	.data.b	0
                    3808 
000005f8 00         3809 	.data.b	0
                    3810 
                    3811 .LDW_6083ae0:
000005f9 47         3812 	.data.b	71
000005fa 01         3813 	.data.b	1
                    3814 
000005fb 00         3815 	.data.b	0
                    3816 
                    3817 .LDW_6083c30:
000005fc 47         3818 	.data.b	71
000005fd 01         3819 	.data.b	1
                    3820 
000005fe 00         3821 	.data.b	0
                    3822 
                    3823 .LDW_6083258:
000005ff 46         3824 	.data.b	70
00000600 00000000*  3825 	.data.w	.LDW_5ff14a8
00000604 01         3826 	.data.b	1
                    3827 
                    3828 .LDW_60807a8:
00000605 14         3829 	.data.b	20
00000606 00000000*  3830 	.data.w	.LDW_5ee2818
0000060a 00         3831 	.data.b	0
                    3832 
                    3833 .LDW_6080448:
0000060b 14         3834 	.data.b	20
0000060c 00000000*  3835 	.data.w	.LDW_5e0df08
00000610 00         3836 	.data.b	0
                    3837 
                    3838 .LDW_6080508:
00000611 14         3839 	.data.b	20
00000612 00000000*  3840 	.data.w	.LDW_5e0df08
00000616 00         3841 	.data.b	0
                    3842 

                                                                      Page 69
                                                              C:\Users\Fengyuan\AppData\Local\Temp\gh_0000sro1.s
                    3843 .LDW_60807d8:
00000617 14         3844 	.data.b	20
00000618 00000000*  3845 	.data.w	.LDW_5e0df08
0000061c 00         3846 	.data.b	0
                    3847 
0000061d 00         3848 	.data.b	0
                    3849 
                    3850 .LDW_6025220:
0000061e 2a         3851 	.data.b	42
0000061f 6c6f6f62   3852 	.data.b	98,111,111,108,101,97,110,0
00000623 006e6165 
00000627 7a         3853 	.data.b	122
00000628 1d         3854 	.data.b	29
00000629 08         3855 	.data.b	8
0000062a 00000000*  3856 	.data.w	.LDW_333d530
                    3857 
                    3858 	.section	.debug_abbrev
00000068 2a         3859 	.data.b	42
00000069 16         3860 	.data.b	22
0000006a 00         3861 	.data.b	0
0000006b 0803       3862 	.data.b	3,8
0000006d 0f3b       3863 	.data.b	59,15
0000006f 0f39       3864 	.data.b	57,15
00000071 0f3a       3865 	.data.b	58,15
00000073 1049       3866 	.data.b	73,16
00000075 0000       3867 	.data.b	0,0
                    3868 
                    3869 	.section	.debug_info
                    3870 .LDW_5e0df08:
0000062e 2a         3871 	.data.b	42
0000062f 746e6975   3872 	.data.b	117,105,110,116,56,0
00000633 0038 
00000635 7d         3873 	.data.b	125
00000636 1d         3874 	.data.b	29
00000637 08         3875 	.data.b	8
00000638 00000000*  3876 	.data.w	.LDW_333d530
                    3877 
                    3878 .LDW_60249e0:
0000063c 2a         3879 	.data.b	42
0000063d 746e6973   3880 	.data.b	115,105,110,116,49,54,0
00000641 003631 
00000644 7e         3881 	.data.b	126
00000645 1d         3882 	.data.b	29
00000646 08         3883 	.data.b	8
00000647 00000000*  3884 	.data.w	.LDW_6022278
                    3885 
                    3886 .LDW_5ee2818:
0000064b 2a         3887 	.data.b	42
0000064c 746e6975   3888 	.data.b	117,105,110,116,49,54,0
00000650 003631 
00000653 7f         3889 	.data.b	127
00000654 1d         3890 	.data.b	29
00000655 08         3891 	.data.b	8
00000656 00000000*  3892 	.data.w	.LDW_333d878
                    3893 
                    3894 .LDW_5e0e158:
0000065a 2a         3895 	.data.b	42
0000065b 746e6975   3896 	.data.b	117,105,110,116,51,50,0
0000065f 003233 
00000662 0181       3897 	.data.b	129,1
00000664 1d         3898 	.data.b	29

                                                                      Page 70
                                                              C:\Users\Fengyuan\AppData\Local\Temp\gh_0000sro1.s
00000665 08         3899 	.data.b	8
00000666 00000000*  3900 	.data.w	.LDW_333d7d0
                    3901 
                    3902 .LDW_6025590:
0000066a 2a         3903 	.data.b	42
0000066b 746e6975   3904 	.data.b	117,105,110,116,56,95,108,101,97,115,116,0
0000066f 656c5f38 
00000673 00747361 
00000677 0185       3905 	.data.b	133,1
00000679 1d         3906 	.data.b	29
0000067a 08         3907 	.data.b	8
0000067b 00000000*  3908 	.data.w	.LDW_333d7d0
                    3909 
                    3910 .LDW_5cc5ec8:
0000067f 2a         3911 	.data.b	42
00000680 74617453   3912 	.data.b	83,116,97,116,117,115,84,121,112,101,0
00000684 79547375 
00000688 006570 
0000068b 7d         3913 	.data.b	125
0000068c 17         3914 	.data.b	23
0000068d 07         3915 	.data.b	7
0000068e 00000000*  3916 	.data.w	.LDW_333d530
                    3917 
                    3918 .LDW_5ff14a8:
00000692 2a         3919 	.data.b	42
00000693 5f647453   3920 	.data.b	83,116,100,95,82,101,116,117,114,110,84,121,112,101,0
00000697 75746552 
0000069b 79546e72 
0000069f 006570 
000006a2 0184       3921 	.data.b	132,1
000006a4 0f         3922 	.data.b	15
000006a5 07         3923 	.data.b	7
000006a6 00000000*  3924 	.data.w	.LDW_5e0df08
                    3925 
                    3926 .LDW_5ff1298:
000006aa 2a         3927 	.data.b	42
000006ab 49756450   3928 	.data.b	80,100,117,73,100,84,121,112,101,0
000006af 70795464 
000006b3 0065 
000006b5 33         3929 	.data.b	51
000006b6 0f         3930 	.data.b	15
000006b7 0f         3931 	.data.b	15
000006b8 00000000*  3932 	.data.w	.LDW_5e0df08
                    3933 
                    3934 .LDW_5cc6970:
000006bc 2a         3935 	.data.b	42
000006bd 5f6e6143   3936 	.data.b	67,97,110,95,73,100,84,121,112,101,0
000006c1 79546449 
000006c5 006570 
000006c8 28         3937 	.data.b	40
000006c9 1e         3938 	.data.b	30
000006ca 11         3939 	.data.b	17
000006cb 00000000*  3940 	.data.w	.LDW_5ee2818
                    3941 
                    3942 .LDW_5e0e5e0:
000006cf 2a         3943 	.data.b	42
000006d0 5f6e6143   3944 	.data.b	67,97,110,95,72,119,72,97,110,100,108,101,84,121,112,101,0
000006d4 61487748 
000006d8 656c646e 
000006dc 65707954 
000006e0 00 

                                                                      Page 71
                                                              C:\Users\Fengyuan\AppData\Local\Temp\gh_0000sro1.s
000006e1 2b         3945 	.data.b	43
000006e2 1d         3946 	.data.b	29
000006e3 11         3947 	.data.b	17
000006e4 00000000*  3948 	.data.w	.LDW_5e0df08
                    3949 
                    3950 .LDW_5ee25b0:
000006e8 2a         3951 	.data.b	42
000006e9 5f6e6143   3952 	.data.b	67,97,110,95,83,100,117,80,116,114,84,121,112,101,0
000006ed 50756453 
000006f1 79547274 
000006f5 006570 
000006f8 2e         3953 	.data.b	46
000006f9 2d         3954 	.data.b	45
000006fa 11         3955 	.data.b	17
000006fb 00000000*  3956 	.data.w	.LDW_333d6f0
                    3957 
                    3958 .LDW_5e0e6e8:
000006ff 42         3959 	.data.b	66
00000700 5f6e6143   3960 	.data.b	67,97,110,95,80,100,117,84,121,112,101,84,97,103,0
00000704 54756450 
00000708 54657079 
0000070c 006761 
0000070f 31         3961 	.data.b	49
00000710 10         3962 	.data.b	16
00000711 11         3963 	.data.b	17
00000712 0c         3964 	.data.b	12
00000713 01         3965 	.data.b	1
                    3966 
                    3967 	.section	.debug_abbrev
00000077 42         3968 	.data.b	66
00000078 13         3969 	.data.b	19
00000079 01         3970 	.data.b	1
0000007a 0803       3971 	.data.b	3,8
0000007c 0f3b       3972 	.data.b	59,15
0000007e 0f39       3973 	.data.b	57,15
00000080 0f3a       3974 	.data.b	58,15
00000082 0f0b       3975 	.data.b	11,15
00000084 0b32       3976 	.data.b	50,11
00000086 0000       3977 	.data.b	0,0
                    3978 
                    3979 	.section	.debug_info
                    3980 .LDW_5f598f8:
00000714 25         3981 	.data.b	37
00000715 006469     3982 	.data.b	105,100,0
00000718 33         3983 	.data.b	51
00000719 0e         3984 	.data.b	14
0000071a 11         3985 	.data.b	17
0000071b 00000000*  3986 	.data.w	.LDW_5cc6970
0000071f 2302       3987 	.data.b	2,35
00000721 00         3988 	.data.b	0
00000722 01         3989 	.data.b	1
                    3990 
                    3991 	.section	.debug_abbrev
00000088 25         3992 	.data.b	37
00000089 0d         3993 	.data.b	13
0000008a 00         3994 	.data.b	0
0000008b 0803       3995 	.data.b	3,8
0000008d 0f3b       3996 	.data.b	59,15
0000008f 0f39       3997 	.data.b	57,15
00000091 0f3a       3998 	.data.b	58,15
00000093 1049       3999 	.data.b	73,16

                                                                      Page 72
                                                              C:\Users\Fengyuan\AppData\Local\Temp\gh_0000sro1.s
00000095 0a38       4000 	.data.b	56,10
00000097 0b32       4001 	.data.b	50,11
00000099 0000       4002 	.data.b	0,0
                    4003 
                    4004 	.section	.debug_info
                    4005 .LDW_5f592c8:
00000723 25         4006 	.data.b	37
00000724 676e656c   4007 	.data.b	108,101,110,103,116,104,0
00000728 006874 
0000072b 34         4008 	.data.b	52
0000072c 09         4009 	.data.b	9
0000072d 11         4010 	.data.b	17
0000072e 00000000*  4011 	.data.w	.LDW_5e0df08
00000732 2302       4012 	.data.b	2,35
00000734 02         4013 	.data.b	2
00000735 01         4014 	.data.b	1
                    4015 
                    4016 .LDW_5f59598:
00000736 25         4017 	.data.b	37
00000737 00756473   4018 	.data.b	115,100,117,0
0000073b 35         4019 	.data.b	53
0000073c 12         4020 	.data.b	18
0000073d 11         4021 	.data.b	17
0000073e 00000000*  4022 	.data.w	.LDW_5ee25b0
00000742 2302       4023 	.data.b	2,35
00000744 04         4024 	.data.b	4
00000745 01         4025 	.data.b	1
                    4026 
                    4027 .LDW_5f59940:
00000746 25         4028 	.data.b	37
00000747 64507773   4029 	.data.b	115,119,80,100,117,72,97,110,100,108,101,0
0000074b 6e614875 
0000074f 00656c64 
00000753 36         4030 	.data.b	54
00000754 0d         4031 	.data.b	13
00000755 11         4032 	.data.b	17
00000756 00000000*  4033 	.data.w	.LDW_5ff1298
0000075a 2302       4034 	.data.b	2,35
0000075c 08         4035 	.data.b	8
0000075d 01         4036 	.data.b	1
                    4037 
0000075e 00         4038 	.data.b	0
                    4039 
                    4040 .LDW_5e0e740:
0000075f 2a         4041 	.data.b	42
00000760 5f6e6143   4042 	.data.b	67,97,110,95,80,100,117,84,121,112,101,0
00000764 54756450 
00000768 00657079 
0000076c 37         4043 	.data.b	55
0000076d 03         4044 	.data.b	3
0000076e 11         4045 	.data.b	17
0000076f 00000000*  4046 	.data.w	.LDW_5e0e6e8
                    4047 
                    4048 .LDW_6024a38:
00000773 30         4049 	.data.b	48
00000774 00         4050 	.data.b	0
00000775 3a         4051 	.data.b	58
00000776 0e         4052 	.data.b	14
00000777 11         4053 	.data.b	17
00000778 04         4054 	.data.b	4
00000779 01         4055 	.data.b	1

                                                                      Page 73
                                                              C:\Users\Fengyuan\AppData\Local\Temp\gh_0000sro1.s
                    4056 
                    4057 	.section	.debug_abbrev
0000009b 30         4058 	.data.b	48
0000009c 04         4059 	.data.b	4
0000009d 01         4060 	.data.b	1
0000009e 0803       4061 	.data.b	3,8
000000a0 0f3b       4062 	.data.b	59,15
000000a2 0f39       4063 	.data.b	57,15
000000a4 0f3a       4064 	.data.b	58,15
000000a6 0f0b       4065 	.data.b	11,15
000000a8 0b32       4066 	.data.b	50,11
000000aa 0000       4067 	.data.b	0,0
                    4068 
                    4069 	.section	.debug_info
                    4070 .LDW_5ee4db8:
0000077a 2f         4071 	.data.b	47
0000077b 5f4e4143   4072 	.data.b	67,65,78,95,84,95,83,84,65,82,84,0
0000077f 54535f54 
00000783 00545241 
00000787 3b         4073 	.data.b	59
00000788 03         4074 	.data.b	3
00000789 11         4075 	.data.b	17
0000078a 00         4076 	.data.b	0
                    4077 
                    4078 	.section	.debug_abbrev
000000ac 2f         4079 	.data.b	47
000000ad 28         4080 	.data.b	40
000000ae 00         4081 	.data.b	0
000000af 0803       4082 	.data.b	3,8
000000b1 0f3b       4083 	.data.b	59,15
000000b3 0f39       4084 	.data.b	57,15
000000b5 0f3a       4085 	.data.b	58,15
000000b7 0d1c       4086 	.data.b	28,13
000000b9 0000       4087 	.data.b	0,0
                    4088 
                    4089 	.section	.debug_info
                    4090 .LDW_5ee4df8:
0000078b 2f         4091 	.data.b	47
0000078c 5f4e4143   4092 	.data.b	67,65,78,95,84,95,83,84,79,80,0
00000790 54535f54 
00000794 00504f 
00000797 3c         4093 	.data.b	60
00000798 03         4094 	.data.b	3
00000799 11         4095 	.data.b	17
0000079a 01         4096 	.data.b	1
                    4097 
                    4098 .LDW_5ee4e38:
0000079b 2f         4099 	.data.b	47
0000079c 5f4e4143   4100 	.data.b	67,65,78,95,84,95,83,76,69,69,80,0
000007a0 4c535f54 
000007a4 00504545 
000007a8 3d         4101 	.data.b	61
000007a9 03         4102 	.data.b	3
000007aa 11         4103 	.data.b	17
000007ab 02         4104 	.data.b	2
                    4105 
                    4106 .LDW_5ee4e78:
000007ac 2f         4107 	.data.b	47
000007ad 5f4e4143   4108 	.data.b	67,65,78,95,84,95,87,65,75,69,85,80,0
000007b1 41575f54 
000007b5 5055454b 

                                                                      Page 74
                                                              C:\Users\Fengyuan\AppData\Local\Temp\gh_0000sro1.s
000007b9 00 
000007ba 3e         4109 	.data.b	62
000007bb 03         4110 	.data.b	3
000007bc 11         4111 	.data.b	17
000007bd 03         4112 	.data.b	3
                    4113 
000007be 00         4114 	.data.b	0
                    4115 
                    4116 .LDW_6024ae8:
000007bf 2a         4117 	.data.b	42
000007c0 5f6e6143   4118 	.data.b	67,97,110,95,83,116,97,116,101,84,114,97,110,115,105,116,105,111,110,84,121,112,101,0
000007c4 74617453 
000007c8 61725465 
000007cc 7469736e 
000007d0 546e6f69 
000007d4 00657079 
000007d8 3f         4119 	.data.b	63
000007d9 03         4120 	.data.b	3
000007da 11         4121 	.data.b	17
000007db 00000000*  4122 	.data.w	.LDW_6024a38
                    4123 
                    4124 .LDW_5c57f48:
000007df 30         4125 	.data.b	48
000007e0 00         4126 	.data.b	0
000007e1 42         4127 	.data.b	66
000007e2 0e         4128 	.data.b	14
000007e3 11         4129 	.data.b	17
000007e4 04         4130 	.data.b	4
000007e5 01         4131 	.data.b	1
                    4132 
                    4133 .LDW_5cc3d98:
000007e6 2f         4134 	.data.b	47
000007e7 5f4e4143   4135 	.data.b	67,65,78,95,78,79,84,95,79,75,0
000007eb 5f544f4e 
000007ef 004b4f 
000007f2 43         4136 	.data.b	67
000007f3 03         4137 	.data.b	3
000007f4 11         4138 	.data.b	17
000007f5 00         4139 	.data.b	0
                    4140 
                    4141 .LDW_5c57fa0:
000007f6 2f         4142 	.data.b	47
000007f7 5f4e4143   4143 	.data.b	67,65,78,95,79,75,0
000007fb 004b4f 
000007fe 44         4144 	.data.b	68
000007ff 03         4145 	.data.b	3
00000800 11         4146 	.data.b	17
00000801 01         4147 	.data.b	1
                    4148 
                    4149 .LDW_5c53cf8:
00000802 2f         4150 	.data.b	47
00000803 5f4e4143   4151 	.data.b	67,65,78,95,78,79,84,95,83,85,80,80,79,82,84,69,68,0
00000807 5f544f4e 
0000080b 50505553 
0000080f 4554524f 
00000813 0044 
00000815 45         4152 	.data.b	69
00000816 03         4153 	.data.b	3
00000817 11         4154 	.data.b	17
00000818 03         4155 	.data.b	3
                    4156 

                                                                      Page 75
                                                              C:\Users\Fengyuan\AppData\Local\Temp\gh_0000sro1.s
                    4157 .LDW_5c53d38:
00000819 2f         4158 	.data.b	47
0000081a 5f4e4143   4159 	.data.b	67,65,78,95,82,69,81,85,69,83,84,69,68,0
0000081e 55514552 
00000822 45545345 
00000826 0044 
00000828 46         4160 	.data.b	70
00000829 03         4161 	.data.b	3
0000082a 11         4162 	.data.b	17
0000082b 04         4163 	.data.b	4
                    4164 
0000082c 00         4165 	.data.b	0
                    4166 
                    4167 .LDW_5c53d78:
0000082d 2a         4168 	.data.b	42
0000082e 5f6e6143   4169 	.data.b	67,97,110,95,82,101,116,117,114,110,84,121,112,101,0
00000832 75746552 
00000836 79546e72 
0000083a 006570 
0000083d 47         4170 	.data.b	71
0000083e 03         4171 	.data.b	3
0000083f 11         4172 	.data.b	17
00000840 00000000*  4173 	.data.w	.LDW_5c57f48
                    4174 
                    4175 .LDW_5cc6a20:
00000844 30         4176 	.data.b	48
00000845 00         4177 	.data.b	0
00000846 6c         4178 	.data.b	108
00000847 01         4179 	.data.b	1
00000848 19         4180 	.data.b	25
00000849 04         4181 	.data.b	4
0000084a 01         4182 	.data.b	1
                    4183 
                    4184 .LDW_6056858:
0000084b 2f         4185 	.data.b	47
0000084c 74737953   4186 	.data.b	83,121,115,116,101,109,65,112,112,108,105,99,97,116,105,111,110,95,79,115,67,111,114,101,48,0
00000850 70416d65 
00000854 63696c70 
00000858 6f697461 
0000085c 734f5f6e 
00000860 65726f43 
00000864 0030 
00000866 6d         4187 	.data.b	109
00000867 03         4188 	.data.b	3
00000868 19         4189 	.data.b	25
00000869 00         4190 	.data.b	0
                    4191 
                    4192 .LDW_60568d8:
0000086a 2f         4193 	.data.b	47
0000086b 415f534f   4194 	.data.b	79,83,95,65,80,80,73,68,95,67,79,85,78,84,0
0000086f 44495050 
00000873 554f435f 
00000877 00544e 
0000087a 6e         4195 	.data.b	110
0000087b 03         4196 	.data.b	3
0000087c 19         4197 	.data.b	25
0000087d 01         4198 	.data.b	1
                    4199 
                    4200 .LDW_6056b18:
0000087e 2f         4201 	.data.b	47
0000087f 41564e49   4202 	.data.b	73,78,86,65,76,73,68,95,79,83,65,80,80,76,73,67,65,84,73,79,78,0

                                                                      Page 76
                                                              C:\Users\Fengyuan\AppData\Local\Temp\gh_0000sro1.s
00000883 5f44494c 
00000887 5041534f 
0000088b 43494c50 
0000088f 4f495441 
00000893 004e 
00000895 6f         4203 	.data.b	111
00000896 03         4204 	.data.b	3
00000897 19         4205 	.data.b	25
00000898 01         4206 	.data.b	1
                    4207 
00000899 00         4208 	.data.b	0
                    4209 
                    4210 .LDW_5cc6d90:
0000089a 2a         4211 	.data.b	42
0000089b 6c707041   4212 	.data.b	65,112,112,108,105,99,97,116,105,111,110,84,121,112,101,0
0000089f 74616369 
000008a3 546e6f69 
000008a7 00657079 
000008ab 70         4213 	.data.b	112
000008ac 03         4214 	.data.b	3
000008ad 19         4215 	.data.b	25
000008ae 00000000*  4216 	.data.w	.LDW_5cc6a20
                    4217 
                    4218 .LDW_6056fa8:
000008b2 30         4219 	.data.b	48
000008b3 00         4220 	.data.b	0
000008b4 0186       4221 	.data.b	134,1
000008b6 01         4222 	.data.b	1
000008b7 19         4223 	.data.b	25
000008b8 04         4224 	.data.b	4
000008b9 01         4225 	.data.b	1
                    4226 
                    4227 .LDW_6056ed8:
000008ba 2f         4228 	.data.b	47
000008bb 61666544   4229 	.data.b	68,101,102,97,117,108,116,95,73,110,105,116,95,84,97,115,107,0
000008bf 5f746c75 
000008c3 74696e49 
000008c7 7361545f 
000008cb 006b 
000008cd 0187       4230 	.data.b	135,1
000008cf 03         4231 	.data.b	3
000008d0 19         4232 	.data.b	25
000008d1 00         4233 	.data.b	0
                    4234 
                    4235 .LDW_6056e58:
000008d2 2f         4236 	.data.b	47
000008d3 656c6449   4237 	.data.b	73,100,108,101,84,97,115,107,95,79,115,67,111,114,101,48,0
000008d7 6b736154 
000008db 43734f5f 
000008df 3065726f 
000008e3 00 
000008e4 0188       4238 	.data.b	136,1
000008e6 03         4239 	.data.b	3
000008e7 19         4240 	.data.b	25
000008e8 01         4241 	.data.b	1
                    4242 
                    4243 .LDW_6056c98:
000008e9 2f         4244 	.data.b	47
000008ea 6154734f   4245 	.data.b	79,115,84,97,115,107,95,65,80,80,0
000008ee 415f6b73 
000008f2 005050 

                                                                      Page 77
                                                              C:\Users\Fengyuan\AppData\Local\Temp\gh_0000sro1.s
000008f5 0189       4246 	.data.b	137,1
000008f7 03         4247 	.data.b	3
000008f8 19         4248 	.data.b	25
000008f9 02         4249 	.data.b	2
                    4250 
                    4251 .LDW_6056cd8:
000008fa 2f         4252 	.data.b	47
000008fb 6154734f   4253 	.data.b	79,115,84,97,115,107,95,66,83,87,95,83,67,72,77,0
000008ff 425f6b73 
00000903 535f5753 
00000907 004d4843 
0000090b 018a       4254 	.data.b	138,1
0000090d 03         4255 	.data.b	3
0000090e 19         4256 	.data.b	25
0000090f 03         4257 	.data.b	3
                    4258 
                    4259 .LDW_6056d58:
00000910 2f         4260 	.data.b	47
00000911 545f534f   4261 	.data.b	79,83,95,84,65,83,75,73,68,95,67,79,85,78,84,0
00000915 494b5341 
00000919 4f435f44 
0000091d 00544e55 
00000921 018b       4262 	.data.b	139,1
00000923 03         4263 	.data.b	3
00000924 19         4264 	.data.b	25
00000925 04         4265 	.data.b	4
                    4266 
                    4267 .LDW_6056798:
00000926 2f         4268 	.data.b	47
00000927 41564e49   4269 	.data.b	73,78,86,65,76,73,68,95,84,65,83,75,0
0000092b 5f44494c 
0000092f 4b534154 
00000933 00 
00000934 018c       4270 	.data.b	140,1
00000936 03         4271 	.data.b	3
00000937 19         4272 	.data.b	25
00000938 04         4273 	.data.b	4
                    4274 
00000939 00         4275 	.data.b	0
                    4276 
                    4277 .LDW_60570b0:
0000093a 2a         4278 	.data.b	42
0000093b 6b736154   4279 	.data.b	84,97,115,107,84,121,112,101,0
0000093f 65707954 
00000943 00 
00000944 018d       4280 	.data.b	141,1
00000946 03         4281 	.data.b	3
00000947 19         4282 	.data.b	25
00000948 00000000*  4283 	.data.w	.LDW_6056fa8
                    4284 
                    4285 .LDW_6057000:
0000094c 30         4286 	.data.b	48
0000094d 00         4287 	.data.b	0
0000094e 0191       4288 	.data.b	145,1
00000950 01         4289 	.data.b	1
00000951 19         4290 	.data.b	25
00000952 04         4291 	.data.b	4
00000953 01         4292 	.data.b	1
                    4293 
                    4294 .LDW_6058c70:
00000954 2f         4295 	.data.b	47

                                                                      Page 78
                                                              C:\Users\Fengyuan\AppData\Local\Temp\gh_0000sro1.s
00000955 496e6143   4296 	.data.b	67,97,110,73,115,114,95,48,95,66,117,115,79,102,102,0
00000959 305f7273 
0000095d 7375425f 
00000961 0066664f 
00000965 0192       4297 	.data.b	146,1
00000967 03         4298 	.data.b	3
00000968 19         4299 	.data.b	25
00000969 00         4300 	.data.b	0
                    4301 
                    4302 .LDW_6058930:
0000096a 2f         4303 	.data.b	47
0000096b 496e6143   4304 	.data.b	67,97,110,73,115,114,95,48,95,77,66,48,48,84,111,49,53,0
0000096f 305f7273 
00000973 30424d5f 
00000977 316f5430 
0000097b 0035 
0000097d 0193       4305 	.data.b	147,1
0000097f 03         4306 	.data.b	3
00000980 19         4307 	.data.b	25
00000981 01         4308 	.data.b	1
                    4309 
                    4310 .LDW_6058a30:
00000982 2f         4311 	.data.b	47
00000983 496e6143   4312 	.data.b	67,97,110,73,115,114,95,48,95,77,66,49,54,84,111,51,49,0
00000987 305f7273 
0000098b 31424d5f 
0000098f 336f5436 
00000993 0031 
00000995 0194       4313 	.data.b	148,1
00000997 03         4314 	.data.b	3
00000998 19         4315 	.data.b	25
00000999 02         4316 	.data.b	2
                    4317 
                    4318 .LDW_6058bf0:
0000099a 2f         4319 	.data.b	47
0000099b 6e756f43   4320 	.data.b	67,111,117,110,116,101,114,73,115,114,95,83,121,115,116,101,109,84,105,109,101,114,0
0000099f 49726574 
000009a3 535f7273 
000009a7 65747379 
000009ab 6d69546d 
000009af 007265 
000009b2 0195       4321 	.data.b	149,1
000009b4 03         4322 	.data.b	3
000009b5 19         4323 	.data.b	25
000009b6 03         4324 	.data.b	3
                    4325 
                    4326 .LDW_6058c30:
000009b7 2f         4327 	.data.b	47
000009b8 495f534f   4328 	.data.b	79,83,95,73,83,82,73,68,95,67,79,85,78,84,0
000009bc 44495253 
000009c0 554f435f 
000009c4 00544e 
000009c7 0196       4329 	.data.b	150,1
000009c9 03         4330 	.data.b	3
000009ca 19         4331 	.data.b	25
000009cb 04         4332 	.data.b	4
                    4333 
                    4334 .LDW_60588b0:
000009cc 2f         4335 	.data.b	47
000009cd 41564e49   4336 	.data.b	73,78,86,65,76,73,68,95,73,83,82,0
000009d1 5f44494c 

                                                                      Page 79
                                                              C:\Users\Fengyuan\AppData\Local\Temp\gh_0000sro1.s
000009d5 00525349 
000009d9 0197       4337 	.data.b	151,1
000009db 03         4338 	.data.b	3
000009dc 19         4339 	.data.b	25
000009dd 04         4340 	.data.b	4
                    4341 
000009de 00         4342 	.data.b	0
                    4343 
                    4344 .LDW_6057058:
000009df 2a         4345 	.data.b	42
000009e0 54525349   4346 	.data.b	73,83,82,84,121,112,101,0
000009e4 00657079 
000009e8 0198       4347 	.data.b	152,1
000009ea 03         4348 	.data.b	3
000009eb 19         4349 	.data.b	25
000009ec 00000000*  4350 	.data.w	.LDW_6057000
                    4351 
                    4352 .LDW_60575d8:
000009f0 30         4353 	.data.b	48
000009f1 00         4354 	.data.b	0
000009f2 01a7       4355 	.data.b	167,1
000009f4 01         4356 	.data.b	1
000009f5 19         4357 	.data.b	25
000009f6 04         4358 	.data.b	4
000009f7 01         4359 	.data.b	1
                    4360 
                    4361 .LDW_6058e30:
000009f8 2f         4362 	.data.b	47
000009f9 74737953   4363 	.data.b	83,121,115,116,101,109,84,105,109,101,114,0
000009fd 69546d65 
00000a01 0072656d 
00000a05 01a8       4364 	.data.b	168,1
00000a07 03         4365 	.data.b	3
00000a08 19         4366 	.data.b	25
00000a09 00         4367 	.data.b	0
                    4368 
                    4369 .LDW_6058db0:
00000a0a 2f         4370 	.data.b	47
00000a0b 435f534f   4371 	.data.b	79,83,95,67,79,85,78,84,69,82,73,68,95,67,79,85,78,84,0
00000a0f 544e554f 
00000a13 44495245 
00000a17 554f435f 
00000a1b 00544e 
00000a1e 01a9       4372 	.data.b	169,1
00000a20 03         4373 	.data.b	3
00000a21 19         4374 	.data.b	25
00000a22 01         4375 	.data.b	1
                    4376 
00000a23 00         4377 	.data.b	0
                    4378 
                    4379 .LDW_6057738:
00000a24 2a         4380 	.data.b	42
00000a25 6e756f43   4381 	.data.b	67,111,117,110,116,101,114,84,121,112,101,0
00000a29 54726574 
00000a2d 00657079 
00000a31 01aa       4382 	.data.b	170,1
00000a33 03         4383 	.data.b	3
00000a34 19         4384 	.data.b	25
00000a35 00000000*  4385 	.data.w	.LDW_60575d8
                    4386 
                    4387 .LDW_60573c8:

                                                                      Page 80
                                                              C:\Users\Fengyuan\AppData\Local\Temp\gh_0000sro1.s
00000a39 30         4388 	.data.b	48
00000a3a 00         4389 	.data.b	0
00000a3b 01bb       4390 	.data.b	187,1
00000a3d 01         4391 	.data.b	1
00000a3e 19         4392 	.data.b	25
00000a3f 04         4393 	.data.b	4
00000a40 01         4394 	.data.b	1
                    4395 
                    4396 .LDW_6058cf0:
00000a41 2f         4397 	.data.b	47
00000a42 535f534f   4398 	.data.b	79,83,95,83,80,73,78,76,79,67,75,73,68,95,67,79,85,78,84,0
00000a46 4c4e4950 
00000a4a 494b434f 
00000a4e 4f435f44 
00000a52 00544e55 
00000a56 01bc       4399 	.data.b	188,1
00000a58 03         4400 	.data.b	3
00000a59 19         4401 	.data.b	25
00000a5a 00         4402 	.data.b	0
                    4403 
                    4404 .LDW_6058d30:
00000a5b 2f         4405 	.data.b	47
00000a5c 41564e49   4406 	.data.b	73,78,86,65,76,73,68,95,83,80,73,78,76,79,67,75,0
00000a60 5f44494c 
00000a64 4e495053 
00000a68 4b434f4c 
00000a6c 00 
00000a6d 01bd       4407 	.data.b	189,1
00000a6f 03         4408 	.data.b	3
00000a70 19         4409 	.data.b	25
00000a71 00         4410 	.data.b	0
                    4411 
00000a72 00         4412 	.data.b	0
                    4413 
                    4414 .LDW_6057898:
00000a73 2a         4415 	.data.b	42
00000a74 6e697053   4416 	.data.b	83,112,105,110,108,111,99,107,73,100,84,121,112,101,0
00000a78 6b636f6c 
00000a7c 79546449 
00000a80 006570 
00000a83 01be       4417 	.data.b	190,1
00000a85 03         4418 	.data.b	3
00000a86 19         4419 	.data.b	25
00000a87 00000000*  4420 	.data.w	.LDW_60573c8
                    4421 
                    4422 .LDW_6057948:
00000a8b 30         4423 	.data.b	48
00000a8c 00         4424 	.data.b	0
00000a8d 01ce       4425 	.data.b	206,1
00000a8f 01         4426 	.data.b	1
00000a90 19         4427 	.data.b	25
00000a91 04         4428 	.data.b	4
00000a92 01         4429 	.data.b	1
                    4430 
                    4431 .LDW_60588f0:
00000a93 2f         4432 	.data.b	47
00000a94 545f534f   4433 	.data.b	79,83,95,84,82,65,67,69,95,84,72,82,69,65,68,73,68,95,67,79,85,78,84,0
00000a98 45434152 
00000a9c 5248545f 
00000aa0 49444145 
00000aa4 4f435f44 

                                                                      Page 81
                                                              C:\Users\Fengyuan\AppData\Local\Temp\gh_0000sro1.s
00000aa8 00544e55 
00000aac 01cf       4434 	.data.b	207,1
00000aae 03         4435 	.data.b	3
00000aaf 19         4436 	.data.b	25
00000ab0 00         4437 	.data.b	0
                    4438 
                    4439 .LDW_6058870:
00000ab1 2f         4440 	.data.b	47
00000ab2 545f534f   4441 	.data.b	79,83,95,84,82,65,67,69,95,73,78,86,65,76,73,68,95,84,72,82,69,65,68,0
00000ab6 45434152 
00000aba 564e495f 
00000abe 44494c41 
00000ac2 5248545f 
00000ac6 00444145 
00000aca 01d0       4442 	.data.b	208,1
00000acc 03         4443 	.data.b	3
00000acd 19         4444 	.data.b	25
00000ace 01         4445 	.data.b	1
                    4446 
00000acf 00         4447 	.data.b	0
                    4448 
                    4449 .LDW_60579f8:
00000ad0 2a         4450 	.data.b	42
00000ad1 545f734f   4451 	.data.b	79,115,95,84,114,97,99,101,84,104,114,101,97,100,73,100,84,121,112,101,0
00000ad5 65636172 
00000ad9 65726854 
00000add 64496461 
00000ae1 65707954 
00000ae5 00 
00000ae6 01d1       4452 	.data.b	209,1
00000ae8 03         4453 	.data.b	3
00000ae9 19         4454 	.data.b	25
00000aea 00000000*  4455 	.data.w	.LDW_6057948
                    4456 
                    4457 .LDW_60572c0:
00000aee 30         4458 	.data.b	48
00000aef 00         4459 	.data.b	0
00000af0 01d5       4460 	.data.b	213,1
00000af2 01         4461 	.data.b	1
00000af3 19         4462 	.data.b	25
00000af4 04         4463 	.data.b	4
00000af5 01         4464 	.data.b	1
                    4465 
                    4466 .LDW_6058970:
00000af6 2f         4467 	.data.b	47
00000af7 545f534f   4468 	.data.b	79,83,95,84,82,65,67,69,95,78,85,77,66,69,82,95,79,70,95,67,79,78,70,73,71,85,82,69,68,95,83,80,73,78,76,79,67,75,83,0
00000afb 45434152 
00000aff 4d554e5f 
00000b03 5f524542 
00000b07 435f464f 
00000b0b 49464e4f 
00000b0f 45525547 
00000b13 50535f44 
00000b17 4f4c4e49 
00000b1b 00534b43 
00000b1f 01d6       4469 	.data.b	214,1
00000b21 03         4470 	.data.b	3
00000b22 19         4471 	.data.b	25
00000b23 00         4472 	.data.b	0
                    4473 
                    4474 .LDW_6058ef0:

                                                                      Page 82
                                                              C:\Users\Fengyuan\AppData\Local\Temp\gh_0000sro1.s
00000b24 2f         4475 	.data.b	47
00000b25 545f534f   4476 	.data.b	79,83,95,84,82,65,67,69,95,78,85,77,66,69,82,95,79,70,95,65,76,76,95,83,80,73,78,76,79,67,75,83,0
00000b29 45434152 
00000b2d 4d554e5f 
00000b31 5f524542 
00000b35 415f464f 
00000b39 535f4c4c 
00000b3d 4c4e4950 
00000b41 534b434f 
00000b45 00 
00000b46 01d7       4477 	.data.b	215,1
00000b48 03         4478 	.data.b	3
00000b49 19         4479 	.data.b	25
00000b4a 00         4480 	.data.b	0
                    4481 
                    4482 .LDW_6058b30:
00000b4b 2f         4483 	.data.b	47
00000b4c 545f534f   4484 	.data.b	79,83,95,84,82,65,67,69,95,73,78,86,65,76,73,68,95,83,80,73,78,76,79,67,75,0
00000b50 45434152 
00000b54 564e495f 
00000b58 44494c41 
00000b5c 4950535f 
00000b60 434f4c4e 
00000b64 004b 
00000b66 01d8       4485 	.data.b	216,1
00000b68 03         4486 	.data.b	3
00000b69 19         4487 	.data.b	25
00000b6a 01         4488 	.data.b	1
                    4489 
00000b6b 00         4490 	.data.b	0
                    4491 
                    4492 .LDW_60578f0:
00000b6c 2a         4493 	.data.b	42
00000b6d 545f734f   4494 	.data.b	79,115,95,84,114,97,99,101,83,112,105,110,108,111,99,107,73,100,84,121,112,101,0
00000b71 65636172 
00000b75 6e697053 
00000b79 6b636f6c 
00000b7d 79546449 
00000b81 006570 
00000b84 01d9       4495 	.data.b	217,1
00000b86 03         4496 	.data.b	3
00000b87 19         4497 	.data.b	25
00000b88 00000000*  4498 	.data.w	.LDW_60572c0
                    4499 
                    4500 .LDW_6057bb0:
00000b8c 2a         4501 	.data.b	42
00000b8d 73796850   4502 	.data.b	80,104,121,115,105,99,97,108,84,105,109,101,84,121,112,101,0
00000b91 6c616369 
00000b95 656d6954 
00000b99 65707954 
00000b9d 00 
00000b9e 02c3       4503 	.data.b	195,2
00000ba0 11         4504 	.data.b	17
00000ba1 18         4505 	.data.b	24
00000ba2 00000000*  4506 	.data.w	.LDW_5e0e158
                    4507 
                    4508 .LDW_5e0e1b0:
00000ba6 2a         4509 	.data.b	42
00000ba7 545f734f   4510 	.data.b	79,115,95,84,105,99,107,84,121,112,101,0
00000bab 546b6369 
00000baf 00657079 

                                                                      Page 83
                                                              C:\Users\Fengyuan\AppData\Local\Temp\gh_0000sro1.s
00000bb3 02c6       4511 	.data.b	198,2
00000bb5 13         4512 	.data.b	19
00000bb6 18         4513 	.data.b	24
00000bb7 00000000*  4514 	.data.w	.LDW_5e0e158
                    4515 
                    4516 .LDW_5e0e208:
00000bbb 2a         4517 	.data.b	42
00000bbc 6b636954   4518 	.data.b	84,105,99,107,84,121,112,101,0
00000bc0 65707954 
00000bc4 00 
00000bc5 02cc       4519 	.data.b	204,2
00000bc7 15         4520 	.data.b	21
00000bc8 18         4521 	.data.b	24
00000bc9 00000000*  4522 	.data.w	.LDW_5e0e1b0
                    4523 
                    4524 .LDW_6059640:
00000bcd 2a         4525 	.data.b	42
00000bce 6b636954   4526 	.data.b	84,105,99,107,82,101,102,84,121,112,101,0
00000bd2 54666552 
00000bd6 00657079 
00000bda 02d0       4527 	.data.b	208,2
00000bdc 38         4528 	.data.b	56
00000bdd 18         4529 	.data.b	24
00000bde 00000000*  4530 	.data.w	.LDW_60226a0
                    4531 
                    4532 .LDW_5ff0d70:
00000be2 42         4533 	.data.b	66
00000be3 6e614374   4534 	.data.b	116,67,97,110,76,76,67,97,110,73,110,116,79,108,100,84,97,103,0
00000be7 61434c4c 
00000beb 746e496e 
00000bef 54646c4f 
00000bf3 006761 
00000bf6 0394       4535 	.data.b	148,3
00000bf8 10         4536 	.data.b	16
00000bf9 05         4537 	.data.b	5
00000bfa 10         4538 	.data.b	16
00000bfb 01         4539 	.data.b	1
                    4540 
                    4541 .LDW_5f59ca0:
00000bfc 25         4542 	.data.b	37
00000bfd 67616c66   4543 	.data.b	102,108,97,103,115,49,0
00000c01 003173 
00000c04 0396       4544 	.data.b	150,3
00000c06 0a         4545 	.data.b	10
00000c07 05         4546 	.data.b	5
00000c08 00000000*  4547 	.data.w	.LDW_5e0e158
00000c0c 2302       4548 	.data.b	2,35
00000c0e 00         4549 	.data.b	0
00000c0f 01         4550 	.data.b	1
                    4551 
                    4552 .LDW_5f5a0d8:
00000c10 25         4553 	.data.b	37
00000c11 67616c66   4554 	.data.b	102,108,97,103,115,50,0
00000c15 003273 
00000c18 0397       4555 	.data.b	151,3
00000c1a 0a         4556 	.data.b	10
00000c1b 05         4557 	.data.b	5
00000c1c 00000000*  4558 	.data.w	.LDW_5e0e158
00000c20 2302       4559 	.data.b	2,35
00000c22 04         4560 	.data.b	4
00000c23 01         4561 	.data.b	1

                                                                      Page 84
                                                              C:\Users\Fengyuan\AppData\Local\Temp\gh_0000sro1.s
                    4562 
                    4563 .LDW_5f59e08:
00000c24 25         4564 	.data.b	37
00000c25 636e6163   4565 	.data.b	99,97,110,99,116,114,108,49,0
00000c29 316c7274 
00000c2d 00 
00000c2e 0398       4566 	.data.b	152,3
00000c30 0a         4567 	.data.b	10
00000c31 05         4568 	.data.b	5
00000c32 00000000*  4569 	.data.w	.LDW_5e0e158
00000c36 2302       4570 	.data.b	2,35
00000c38 08         4571 	.data.b	8
00000c39 01         4572 	.data.b	1
                    4573 
                    4574 .LDW_5f59bc8:
00000c3a 25         4575 	.data.b	37
00000c3b 6d6e6163   4576 	.data.b	99,97,110,109,99,114,0
00000c3f 007263 
00000c42 0399       4577 	.data.b	153,3
00000c44 0a         4578 	.data.b	10
00000c45 05         4579 	.data.b	5
00000c46 00000000*  4580 	.data.w	.LDW_5ee2818
00000c4a 2302       4581 	.data.b	2,35
00000c4c 0c         4582 	.data.b	12
00000c4d 01         4583 	.data.b	1
                    4584 
00000c4e 00         4585 	.data.b	0
                    4586 
                    4587 .LDW_5ff0e20:
00000c4f 2a         4588 	.data.b	42
00000c50 6e614374   4589 	.data.b	116,67,97,110,76,76,67,97,110,73,110,116,79,108,100,0
00000c54 61434c4c 
00000c58 746e496e 
00000c5c 00646c4f 
00000c60 039a       4590 	.data.b	154,3
00000c62 03         4591 	.data.b	3
00000c63 05         4592 	.data.b	5
00000c64 00000000*  4593 	.data.w	.LDW_5ff0d70
                    4594 
                    4595 .LDW_6059ed8:
00000c68 42         4596 	.data.b	66
00000c69 6e614374   4597 	.data.b	116,67,97,110,82,120,77,115,103,66,117,102,102,101,114,84,97,103,0
00000c6d 734d7852 
00000c71 66754267 
00000c75 54726566 
00000c79 006761 
00000c7c 039c       4598 	.data.b	156,3
00000c7e 10         4599 	.data.b	16
00000c7f 05         4600 	.data.b	5
00000c80 10         4601 	.data.b	16
00000c81 01         4602 	.data.b	1
                    4603 
                    4604 .LDW_5f59e98:
00000c82 25         4605 	.data.b	37
00000c83 746e6f63   4606 	.data.b	99,111,110,116,114,111,108,0
00000c87 006c6f72 
00000c8b 039e       4607 	.data.b	158,3
00000c8d 0a         4608 	.data.b	10
00000c8e 05         4609 	.data.b	5
00000c8f 00000000*  4610 	.data.w	.LDW_5ee2818
00000c93 2302       4611 	.data.b	2,35

                                                                      Page 85
                                                              C:\Users\Fengyuan\AppData\Local\Temp\gh_0000sro1.s
00000c95 00         4612 	.data.b	0
00000c96 01         4613 	.data.b	1
                    4614 
                    4615 .LDW_5f5a240:
00000c97 25         4616 	.data.b	37
00000c98 656d6974   4617 	.data.b	116,105,109,101,115,116,97,109,112,0
00000c9c 6d617473 
00000ca0 0070 
00000ca2 039f       4618 	.data.b	159,3
00000ca4 0a         4619 	.data.b	10
00000ca5 05         4620 	.data.b	5
00000ca6 00000000*  4621 	.data.w	.LDW_5ee2818
00000caa 2302       4622 	.data.b	2,35
00000cac 02         4623 	.data.b	2
00000cad 01         4624 	.data.b	1
                    4625 
                    4626 .LDW_5f59c58:
00000cae 25         4627 	.data.b	37
00000caf 4967736d   4628 	.data.b	109,115,103,73,68,0
00000cb3 0044 
00000cb5 03a0       4629 	.data.b	160,3
00000cb7 0a         4630 	.data.b	10
00000cb8 05         4631 	.data.b	5
00000cb9 00000000*  4632 	.data.w	.LDW_5e0e158
00000cbd 2302       4633 	.data.b	2,35
00000cbf 04         4634 	.data.b	4
00000cc0 01         4635 	.data.b	1
                    4636 
                    4637 .LDW_5f59d30:
00000cc1 25         4638 	.data.b	37
00000cc2 61746164   4639 	.data.b	100,97,116,97,0
00000cc6 00 
00000cc7 03a1       4640 	.data.b	161,3
00000cc9 0a         4641 	.data.b	10
00000cca 05         4642 	.data.b	5
00000ccb 00000000*  4643 	.data.w	.LDW_605e7b8
00000ccf 2302       4644 	.data.b	2,35
00000cd1 08         4645 	.data.b	8
00000cd2 01         4646 	.data.b	1
                    4647 
00000cd3 00         4648 	.data.b	0
                    4649 
                    4650 .LDW_6059f30:
00000cd4 2a         4651 	.data.b	42
00000cd5 6e614374   4652 	.data.b	116,67,97,110,82,120,77,115,103,66,117,102,102,101,114,0
00000cd9 734d7852 
00000cdd 66754267 
00000ce1 00726566 
00000ce5 03a2       4653 	.data.b	162,3
00000ce7 03         4654 	.data.b	3
00000ce8 05         4655 	.data.b	5
00000ce9 00000000*  4656 	.data.w	.LDW_6059ed8
                    4657 
                    4658 .LDW_5ff0ab0:
00000ced 2a         4659 	.data.b	42
00000cee 436e6143   4660 	.data.b	67,97,110,67,104,97,110,110,101,108,72,97,110,100,108,101,0
00000cf2 6e6e6168 
00000cf6 61486c65 
00000cfa 656c646e 
00000cfe 00 
00000cff 03a6       4661 	.data.b	166,3

                                                                      Page 86
                                                              C:\Users\Fengyuan\AppData\Local\Temp\gh_0000sro1.s
00000d01 1e         4662 	.data.b	30
00000d02 05         4663 	.data.b	5
00000d03 00000000*  4664 	.data.w	.LDW_5ee2818
                    4665 
                    4666 .LDW_6059c18:
00000d07 2a         4667 	.data.b	42
00000d08 5f6e6143   4668 	.data.b	67,97,110,95,69,120,116,101,114,110,97,108,84,105,99,107,84,121,112,101,0
00000d0c 65747845 
00000d10 6c616e72 
00000d14 6b636954 
00000d18 65707954 
00000d1c 00 
00000d1d 03a9       4669 	.data.b	169,3
00000d1f 12         4670 	.data.b	18
00000d20 05         4671 	.data.b	5
00000d21 00000000*  4672 	.data.w	.LDW_5e0e208
                    4673 
                    4674 .LDW_6059ab8:
00000d25 2a         4675 	.data.b	42
00000d26 5f6e6143   4676 	.data.b	67,97,110,95,76,111,111,112,84,105,109,101,111,117,116,95,100,105,109,95,116,121,112,101,0
00000d2a 706f6f4c 
00000d2e 656d6954 
00000d32 5f74756f 
00000d36 5f6d6964 
00000d3a 65707974 
00000d3e 00 
00000d3f 03ae       4677 	.data.b	174,3
00000d41 2c         4678 	.data.b	44
00000d42 05         4679 	.data.b	5
00000d43 00000000*  4680 	.data.w	.LDW_605e840
                    4681 
                    4682 .LDW_605edc8:
00000d47 2a         4683 	.data.b	42
00000d48 5f6e6143   4684 	.data.b	67,97,110,95,80,100,117,79,102,65,99,116,105,118,101,83,101,110,100,79,98,106,101,99,116,84,121,112,101,0
00000d4c 4f756450 
00000d50 74634166 
00000d54 53657669 
00000d58 4f646e65 
00000d5c 63656a62 
00000d60 70795474 
00000d64 0065 
00000d66 0a97       4685 	.data.b	151,10
00000d68 13         4686 	.data.b	19
00000d69 05         4687 	.data.b	5
00000d6a 00000000*  4688 	.data.w	.LDW_5ff1298
                    4689 
                    4690 .LDW_605ec10:
00000d6e 2a         4691 	.data.b	42
00000d6f 5f6e6143   4692 	.data.b	67,97,110,95,83,116,97,116,101,79,102,65,99,116,105,118,101,83,101,110,100,79,98,106,101,99,116,84,121,112,101,0
00000d73 74617453 
00000d77 41664f65 
00000d7b 76697463 
00000d7f 6e655365 
00000d83 6a624f64 
00000d87 54746365 
00000d8b 00657079 
00000d8f 0a9a       4693 	.data.b	154,10
00000d91 0f         4694 	.data.b	15
00000d92 05         4695 	.data.b	5
00000d93 00000000*  4696 	.data.w	.LDW_5e0df08
                    4697 

                                                                      Page 87
                                                              C:\Users\Fengyuan\AppData\Local\Temp\gh_0000sro1.s
                    4698 .LDW_605f0e0:
00000d97 2a         4699 	.data.b	42
00000d98 5f6e6143   4700 	.data.b	67,97,110,95,67,97,110,73,102,67,104,97,110,110,101,108,73,100,84,121,112,101,0
00000d9c 496e6143 
00000da0 61684366 
00000da4 6c656e6e 
00000da8 79546449 
00000dac 006570 
00000daf 0aa0       4701 	.data.b	160,10
00000db1 10         4702 	.data.b	16
00000db2 05         4703 	.data.b	5
00000db3 00000000*  4704 	.data.w	.LDW_5ee2818
                    4705 
                    4706 .LDW_605f240:
00000db7 2a         4707 	.data.b	42
00000db8 5f6e6143   4708 	.data.b	67,97,110,95,66,97,115,101,65,100,100,114,101,115,115,79,102,67,111,110,116,114,111,108,108,101,114,67,111,110,102,105,103,84,121,112,101,0
00000dbc 65736142 
00000dc0 72646441 
00000dc4 4f737365 
00000dc8 6e6f4366 
00000dcc 6c6f7274 
00000dd0 4372656c 
00000dd4 69666e6f 
00000dd8 70795467 
00000ddc 0065 
00000dde 0aa3       4709 	.data.b	163,10
00000de0 10         4710 	.data.b	16
00000de1 05         4711 	.data.b	5
00000de2 00000000*  4712 	.data.w	.LDW_5e0e158
                    4713 
                    4714 .LDW_605e9a8:
00000de6 2a         4715 	.data.b	42
00000de7 5f6e6143   4716 	.data.b	67,97,110,95,67,97,110,67,111,110,116,114,111,108,108,101,114,68,101,102,97,117,108,116,66,97,117,100,114,97,116,101,79,102,67,111,110,116,114,111,108,108,101,114,67,111,110,102,105,103,84,121,112,101,0
00000deb 436e6143 
00000def 72746e6f 
00000df3 656c6c6f 
00000df7 66654472 
00000dfb 746c7561 
00000dff 64756142 
00000e03 65746172 
00000e07 6f43664f 
00000e0b 6f72746e 
00000e0f 72656c6c 
00000e13 666e6f43 
00000e17 79546769 
00000e1b 006570 
00000e1e 0aa6       4717 	.data.b	166,10
00000e20 10         4718 	.data.b	16
00000e21 05         4719 	.data.b	5
00000e22 00000000*  4720 	.data.w	.LDW_5ee2818
                    4721 
                    4722 .LDW_605ed18:
00000e26 2a         4723 	.data.b	42
00000e27 5f6e6143   4724 	.data.b	67,97,110,95,73,110,116,101,114,114,117,112,116,77,97,115,107,49,79,102,67,111,110,116,114,111,108,108,101,114,67,111,110,102,105,103,84,121,112,101,0
00000e2b 65746e49 
00000e2f 70757272 
00000e33 73614d74 
00000e37 664f316b 
00000e3b 746e6f43 
00000e3f 6c6c6f72 
00000e43 6f437265 

                                                                      Page 88
                                                              C:\Users\Fengyuan\AppData\Local\Temp\gh_0000sro1.s
00000e47 6769666e 
00000e4b 65707954 
00000e4f 00 
00000e50 0aa9       4725 	.data.b	169,10
00000e52 10         4726 	.data.b	16
00000e53 05         4727 	.data.b	5
00000e54 00000000*  4728 	.data.w	.LDW_5e0e158
                    4729 
                    4730 .LDW_605f030:
00000e58 2a         4731 	.data.b	42
00000e59 5f6e6143   4732 	.data.b	67,97,110,95,73,110,116,101,114,114,117,112,116,77,97,115,107,50,79,102,67,111,110,116,114,111,108,108,101,114,67,111,110,102,105,103,84,121,112,101,0
00000e5d 65746e49 
00000e61 70757272 
00000e65 73614d74 
00000e69 664f326b 
00000e6d 746e6f43 
00000e71 6c6c6f72 
00000e75 6f437265 
00000e79 6769666e 
00000e7d 65707954 
00000e81 00 
00000e82 0aac       4733 	.data.b	172,10
00000e84 10         4734 	.data.b	16
00000e85 05         4735 	.data.b	5
00000e86 00000000*  4736 	.data.w	.LDW_5e0e158
                    4737 
                    4738 .LDW_605ea00:
00000e8a 2a         4739 	.data.b	42
00000e8b 5f6e6143   4740 	.data.b	67,97,110,95,77,97,105,108,98,111,120,82,120,66,97,115,105,99,69,110,100,73,100,120,79,102,67,111,110,116,114,111,108,108,101,114,67,111,110,102,105,103,84,121,112,101,0
00000e8f 6c69614d 
00000e93 52786f62 
00000e97 73614278 
00000e9b 6e456369 
00000e9f 78644964 
00000ea3 6f43664f 
00000ea7 6f72746e 
00000eab 72656c6c 
00000eaf 666e6f43 
00000eb3 79546769 
00000eb7 006570 
00000eba 0aaf       4741 	.data.b	175,10
00000ebc 10         4742 	.data.b	16
00000ebd 05         4743 	.data.b	5
00000ebe 00000000*  4744 	.data.w	.LDW_5ee2818
                    4745 
                    4746 .LDW_605eed0:
00000ec2 2a         4747 	.data.b	42
00000ec3 5f6e6143   4748 	.data.b	67,97,110,95,77,97,105,108,98,111,120,82,120,66,97,115,105,99,76,101,110,103,116,104,79,102,67,111,110,116,114,111,108,108,101,114,67,111,110,102,105,103,84,121,112,101,0
00000ec7 6c69614d 
00000ecb 52786f62 
00000ecf 73614278 
00000ed3 654c6369 
00000ed7 6874676e 
00000edb 6f43664f 
00000edf 6f72746e 
00000ee3 72656c6c 
00000ee7 666e6f43 
00000eeb 79546769 
00000eef 006570 
00000ef2 0ab2       4749 	.data.b	178,10
00000ef4 10         4750 	.data.b	16

                                                                      Page 89
                                                              C:\Users\Fengyuan\AppData\Local\Temp\gh_0000sro1.s
00000ef5 05         4751 	.data.b	5
00000ef6 00000000*  4752 	.data.w	.LDW_5ee2818
                    4753 
                    4754 .LDW_605ecc0:
00000efa 2a         4755 	.data.b	42
00000efb 5f6e6143   4756 	.data.b	67,97,110,95,77,97,105,108,98,111,120,82,120,66,97,115,105,99,83,116,97,114,116,73,100,120,79,102,67,111,110,116,114,111,108,108,101,114,67,111,110,102,105,103,84,121,112,101,0
00000eff 6c69614d 
00000f03 52786f62 
00000f07 73614278 
00000f0b 74536369 
00000f0f 49747261 
00000f13 664f7864 
00000f17 746e6f43 
00000f1b 6c6c6f72 
00000f1f 6f437265 
00000f23 6769666e 
00000f27 65707954 
00000f2b 00 
00000f2c 0ab5       4757 	.data.b	181,10
00000f2e 10         4758 	.data.b	16
00000f2f 05         4759 	.data.b	5
00000f30 00000000*  4760 	.data.w	.LDW_5ee2818
                    4761 
                    4762 .LDW_605f138:
00000f34 2a         4763 	.data.b	42
00000f35 5f6e6143   4764 	.data.b	67,97,110,95,77,97,105,108,98,111,120,84,120,66,97,115,105,99,69,110,100,73,100,120,79,102,67,111,110,116,114,111,108,108,101,114,67,111,110,102,105,103,84,121,112,101,0
00000f39 6c69614d 
00000f3d 54786f62 
00000f41 73614278 
00000f45 6e456369 
00000f49 78644964 
00000f4d 6f43664f 
00000f51 6f72746e 
00000f55 72656c6c 
00000f59 666e6f43 
00000f5d 79546769 
00000f61 006570 
00000f64 0abb       4765 	.data.b	187,10
00000f66 10         4766 	.data.b	16
00000f67 05         4767 	.data.b	5
00000f68 00000000*  4768 	.data.w	.LDW_5ee2818
                    4769 
                    4770 .LDW_605ee20:
00000f6c 2a         4771 	.data.b	42
00000f6d 5f6e6143   4772 	.data.b	67,97,110,95,77,97,105,108,98,111,120,84,120,66,97,115,105,99,76,101,110,103,116,104,79,102,67,111,110,116,114,111,108,108,101,114,67,111,110,102,105,103,84,121,112,101,0
00000f71 6c69614d 
00000f75 54786f62 
00000f79 73614278 
00000f7d 654c6369 
00000f81 6874676e 
00000f85 6f43664f 
00000f89 6f72746e 
00000f8d 72656c6c 
00000f91 666e6f43 
00000f95 79546769 
00000f99 006570 
00000f9c 0abe       4773 	.data.b	190,10
00000f9e 10         4774 	.data.b	16
00000f9f 05         4775 	.data.b	5
00000fa0 00000000*  4776 	.data.w	.LDW_5ee2818
                    4777 

                                                                      Page 90
                                                              C:\Users\Fengyuan\AppData\Local\Temp\gh_0000sro1.s
                    4778 .LDW_605eb60:
00000fa4 2a         4779 	.data.b	42
00000fa5 5f6e6143   4780 	.data.b	67,97,110,95,77,97,105,108,98,111,120,84,120,66,97,115,105,99,83,116,97,114,116,73,100,120,79,102,67,111,110,116,114,111,108,108,101,114,67,111,110,102,105,103,84,121,112,101,0
00000fa9 6c69614d 
00000fad 54786f62 
00000fb1 73614278 
00000fb5 74536369 
00000fb9 49747261 
00000fbd 664f7864 
00000fc1 746e6f43 
00000fc5 6c6c6f72 
00000fc9 6f437265 
00000fcd 6769666e 
00000fd1 65707954 
00000fd5 00 
00000fd6 0ac1       4781 	.data.b	193,10
00000fd8 10         4782 	.data.b	16
00000fd9 05         4783 	.data.b	5
00000fda 00000000*  4784 	.data.w	.LDW_5ee2818
                    4785 
                    4786 .LDW_605ea58:
00000fde 2a         4787 	.data.b	42
00000fdf 5f6e6143   4788 	.data.b	67,97,110,95,77,97,105,108,98,111,120,85,110,117,115,101,100,69,110,100,73,100,120,79,102,67,111,110,116,114,111,108,108,101,114,67,111,110,102,105,103,84,121,112,101,0
00000fe3 6c69614d 
00000fe7 55786f62 
00000feb 6573756e 
00000fef 646e4564 
00000ff3 4f786449 
00000ff7 6e6f4366 
00000ffb 6c6f7274 
00000fff 4372656c 
00001003 69666e6f 
00001007 70795467 
0000100b 0065 
0000100d 0ac7       4789 	.data.b	199,10
0000100f 10         4790 	.data.b	16
00001010 05         4791 	.data.b	5
00001011 00000000*  4792 	.data.w	.LDW_5ee2818
                    4793 
                    4794 .LDW_605eab0:
00001015 2a         4795 	.data.b	42
00001016 5f6e6143   4796 	.data.b	67,97,110,95,77,97,105,108,98,111,120,85,110,117,115,101,100,76,101,110,103,116,104,79,102,67,111,110,116,114,111,108,108,101,114,67,111,110,102,105,103,84,121,112,101,0
0000101a 6c69614d 
0000101e 55786f62 
00001022 6573756e 
00001026 6e654c64 
0000102a 4f687467 
0000102e 6e6f4366 
00001032 6c6f7274 
00001036 4372656c 
0000103a 69666e6f 
0000103e 70795467 
00001042 0065 
00001044 0aca       4797 	.data.b	202,10
00001046 10         4798 	.data.b	16
00001047 05         4799 	.data.b	5
00001048 00000000*  4800 	.data.w	.LDW_5ee2818
                    4801 
                    4802 .LDW_605ef28:
0000104c 2a         4803 	.data.b	42
0000104d 5f6e6143   4804 	.data.b	67,97,110,95,77,97,105,108,98,111,120,85,110,117,115,101,100,83,116,97,114,116,73,100,120,79,102,67,111,110,116,114,111,108,108,101,114,67,111,110,102,105,103,84,121,112,101,0

                                                                      Page 91
                                                              C:\Users\Fengyuan\AppData\Local\Temp\gh_0000sro1.s
00001051 6c69614d 
00001055 55786f62 
00001059 6573756e 
0000105d 61745364 
00001061 64497472 
00001065 43664f78 
00001069 72746e6f 
0000106d 656c6c6f 
00001071 6e6f4372 
00001075 54676966 
00001079 00657079 
0000107d 0acd       4805 	.data.b	205,10
0000107f 10         4806 	.data.b	16
00001080 05         4807 	.data.b	5
00001081 00000000*  4808 	.data.w	.LDW_5ee2818
                    4809 
                    4810 .LDW_605eb08:
00001085 2a         4811 	.data.b	42
00001086 5f6e6143   4812 	.data.b	67,97,110,95,78,117,109,98,101,114,79,102,70,105,108,116,101,114,115,79,102,67,111,110,116,114,111,108,108,101,114,67,111,110,102,105,103,84,121,112,101,0
0000108a 626d754e 
0000108e 664f7265 
00001092 746c6946 
00001096 4f737265 
0000109a 6e6f4366 
0000109e 6c6f7274 
000010a2 4372656c 
000010a6 69666e6f 
000010aa 70795467 
000010ae 0065 
000010b0 0ad3       4813 	.data.b	211,10
000010b2 0f         4814 	.data.b	15
000010b3 05         4815 	.data.b	5
000010b4 00000000*  4816 	.data.w	.LDW_5e0df08
                    4817 
                    4818 .LDW_605efd8:
000010b8 2a         4819 	.data.b	42
000010b9 5f6e6143   4820 	.data.b	67,97,110,95,78,117,109,98,101,114,79,102,70,117,108,108,67,111,110,102,105,103,117,114,97,98,108,101,70,105,108,116,101,114,115,79,102,67,111,110,116,114,111,108,108,101,114,67,111,110,102,105,103,84,121,112,101,0
000010bd 626d754e 
000010c1 664f7265 
000010c5 6c6c7546 
000010c9 666e6f43 
000010cd 72756769 
000010d1 656c6261 
000010d5 746c6946 
000010d9 4f737265 
000010dd 6e6f4366 
000010e1 6c6f7274 
000010e5 4372656c 
000010e9 69666e6f 
000010ed 70795467 
000010f1 0065 
000010f3 0ad6       4821 	.data.b	214,10
000010f5 0f         4822 	.data.b	15
000010f6 05         4823 	.data.b	5
000010f7 00000000*  4824 	.data.w	.LDW_5e0df08
                    4825 
                    4826 .LDW_605f190:
000010fb 2a         4827 	.data.b	42
000010fc 5f6e6143   4828 	.data.b	67,97,110,95,78,117,109,98,101,114,79,102,77,97,120,77,97,105,108,98,111,120,101,115,79,102,67,111,110,116,114,111,108,108,101,114,67,111,110,102,105,103,84,121,112,101,0
00001100 626d754e 
00001104 664f7265 

                                                                      Page 92
                                                              C:\Users\Fengyuan\AppData\Local\Temp\gh_0000sro1.s
00001108 4d78614d 
0000110c 626c6961 
00001110 7365786f 
00001114 6f43664f 
00001118 6f72746e 
0000111c 72656c6c 
00001120 666e6f43 
00001124 79546769 
00001128 006570 
0000112b 0ad9       4829 	.data.b	217,10
0000112d 0f         4830 	.data.b	15
0000112e 05         4831 	.data.b	5
0000112f 00000000*  4832 	.data.w	.LDW_5e0df08
                    4833 
                    4834 .LDW_605f450:
00001133 2a         4835 	.data.b	42
00001134 5f6e6143   4836 	.data.b	67,97,110,95,82,70,70,78,79,102,67,111,110,116,114,111,108,108,101,114,67,111,110,102,105,103,84,121,112,101,0
00001138 4e464652 
0000113c 6f43664f 
00001140 6f72746e 
00001144 72656c6c 
00001148 666e6f43 
0000114c 79546769 
00001150 006570 
00001153 0adc       4837 	.data.b	220,10
00001155 10         4838 	.data.b	16
00001156 05         4839 	.data.b	5
00001157 00000000*  4840 	.data.w	.LDW_5e0e158
                    4841 
                    4842 .LDW_605f6b8:
0000115b 2a         4843 	.data.b	42
0000115c 5f6e6143   4844 	.data.b	67,97,110,95,82,120,66,97,115,105,99,72,119,83,116,97,114,116,79,102,67,111,110,116,114,111,108,108,101,114,67,111,110,102,105,103,84,121,112,101,0
00001160 61427852 
00001164 48636973 
00001168 61745377 
0000116c 664f7472 
00001170 746e6f43 
00001174 6c6c6f72 
00001178 6f437265 
0000117c 6769666e 
00001180 65707954 
00001184 00 
00001185 0adf       4845 	.data.b	223,10
00001187 0f         4846 	.data.b	15
00001188 05         4847 	.data.b	5
00001189 00000000*  4848 	.data.w	.LDW_5e0df08
                    4849 
                    4850 .LDW_605f870:
0000118d 2a         4851 	.data.b	42
0000118e 5f6e6143   4852 	.data.b	67,97,110,95,82,120,66,97,115,105,99,72,119,83,116,111,112,79,102,67,111,110,116,114,111,108,108,101,114,67,111,110,102,105,103,84,121,112,101,0
00001192 61427852 
00001196 48636973 
0000119a 6f745377 
0000119e 43664f70 
000011a2 72746e6f 
000011a6 656c6c6f 
000011aa 6e6f4372 
000011ae 54676966 
000011b2 00657079 
000011b6 0ae2       4853 	.data.b	226,10
000011b8 0f         4854 	.data.b	15

                                                                      Page 93
                                                              C:\Users\Fengyuan\AppData\Local\Temp\gh_0000sro1.s
000011b9 05         4855 	.data.b	5
000011ba 00000000*  4856 	.data.w	.LDW_5e0df08
                    4857 
                    4858 .LDW_605f500:
000011be 2a         4859 	.data.b	42
000011bf 5f6e6143   4860 	.data.b	67,97,110,95,82,120,70,117,108,108,72,119,83,116,97,114,116,79,102,67,111,110,116,114,111,108,108,101,114,67,111,110,102,105,103,84,121,112,101,0
000011c3 75467852 
000011c7 77486c6c 
000011cb 72617453 
000011cf 43664f74 
000011d3 72746e6f 
000011d7 656c6c6f 
000011db 6e6f4372 
000011df 54676966 
000011e3 00657079 
000011e7 0ae5       4861 	.data.b	229,10
000011e9 0f         4862 	.data.b	15
000011ea 05         4863 	.data.b	5
000011eb 00000000*  4864 	.data.w	.LDW_5e0df08
                    4865 
                    4866 .LDW_605f4a8:
000011ef 2a         4867 	.data.b	42
000011f0 5f6e6143   4868 	.data.b	67,97,110,95,82,120,70,117,108,108,72,119,83,116,111,112,79,102,67,111,110,116,114,111,108,108,101,114,67,111,110,102,105,103,84,121,112,101,0
000011f4 75467852 
000011f8 77486c6c 
000011fc 706f7453 
00001200 6f43664f 
00001204 6f72746e 
00001208 72656c6c 
0000120c 666e6f43 
00001210 79546769 
00001214 006570 
00001217 0ae8       4869 	.data.b	232,10
00001219 0f         4870 	.data.b	15
0000121a 05         4871 	.data.b	5
0000121b 00000000*  4872 	.data.w	.LDW_5e0df08
                    4873 
                    4874 .LDW_605f7c0:
0000121f 2a         4875 	.data.b	42
00001220 5f6e6143   4876 	.data.b	67,97,110,95,84,120,66,97,115,105,99,72,119,83,116,97,114,116,79,102,67,111,110,116,114,111,108,108,101,114,67,111,110,102,105,103,84,121,112,101,0
00001224 61427854 
00001228 48636973 
0000122c 61745377 
00001230 664f7472 
00001234 746e6f43 
00001238 6c6c6f72 
0000123c 6f437265 
00001240 6769666e 
00001244 65707954 
00001248 00 
00001249 0aeb       4877 	.data.b	235,10
0000124b 0f         4878 	.data.b	15
0000124c 05         4879 	.data.b	5
0000124d 00000000*  4880 	.data.w	.LDW_5e0df08
                    4881 
                    4882 .LDW_605f768:
00001251 2a         4883 	.data.b	42
00001252 5f6e6143   4884 	.data.b	67,97,110,95,84,120,66,97,115,105,99,72,119,83,116,111,112,79,102,67,111,110,116,114,111,108,108,101,114,67,111,110,102,105,103,84,121,112,101,0
00001256 61427854 
0000125a 48636973 
0000125e 6f745377 

                                                                      Page 94
                                                              C:\Users\Fengyuan\AppData\Local\Temp\gh_0000sro1.s
00001262 43664f70 
00001266 72746e6f 
0000126a 656c6c6f 
0000126e 6e6f4372 
00001272 54676966 
00001276 00657079 
0000127a 0aee       4885 	.data.b	238,10
0000127c 0f         4886 	.data.b	15
0000127d 05         4887 	.data.b	5
0000127e 00000000*  4888 	.data.w	.LDW_5e0df08
                    4889 
                    4890 .LDW_605f710:
00001282 2a         4891 	.data.b	42
00001283 5f6e6143   4892 	.data.b	67,97,110,95,84,120,70,117,108,108,72,119,83,116,97,114,116,79,102,67,111,110,116,114,111,108,108,101,114,67,111,110,102,105,103,84,121,112,101,0
00001287 75467854 
0000128b 77486c6c 
0000128f 72617453 
00001293 43664f74 
00001297 72746e6f 
0000129b 656c6c6f 
0000129f 6e6f4372 
000012a3 54676966 
000012a7 00657079 
000012ab 0af1       4893 	.data.b	241,10
000012ad 0f         4894 	.data.b	15
000012ae 05         4895 	.data.b	5
000012af 00000000*  4896 	.data.w	.LDW_5e0df08
                    4897 
                    4898 .LDW_605f608:
000012b3 2a         4899 	.data.b	42
000012b4 5f6e6143   4900 	.data.b	67,97,110,95,84,120,70,117,108,108,72,119,83,116,111,112,79,102,67,111,110,116,114,111,108,108,101,114,67,111,110,102,105,103,84,121,112,101,0
000012b8 75467854 
000012bc 77486c6c 
000012c0 706f7453 
000012c4 6f43664f 
000012c8 6f72746e 
000012cc 72656c6c 
000012d0 666e6f43 
000012d4 79546769 
000012d8 006570 
000012db 0af4       4901 	.data.b	244,10
000012dd 0f         4902 	.data.b	15
000012de 05         4903 	.data.b	5
000012df 00000000*  4904 	.data.w	.LDW_5e0df08
                    4905 
                    4906 .LDW_605f558:
000012e3 2a         4907 	.data.b	42
000012e4 5f6e6143   4908 	.data.b	67,97,110,95,85,110,117,115,101,100,72,119,83,116,97,114,116,79,102,67,111,110,116,114,111,108,108,101,114,67,111,110,102,105,103,84,121,112,101,0
000012e8 73756e55 
000012ec 77486465 
000012f0 72617453 
000012f4 43664f74 
000012f8 72746e6f 
000012fc 656c6c6f 
00001300 6e6f4372 
00001304 54676966 
00001308 00657079 
0000130c 0af7       4909 	.data.b	247,10
0000130e 0f         4910 	.data.b	15
0000130f 05         4911 	.data.b	5
00001310 00000000*  4912 	.data.w	.LDW_5e0df08

                                                                      Page 95
                                                              C:\Users\Fengyuan\AppData\Local\Temp\gh_0000sro1.s
                    4913 
                    4914 .LDW_605f818:
00001314 2a         4915 	.data.b	42
00001315 5f6e6143   4916 	.data.b	67,97,110,95,85,110,117,115,101,100,72,119,83,116,111,112,79,102,67,111,110,116,114,111,108,108,101,114,67,111,110,102,105,103,84,121,112,101,0
00001319 73756e55 
0000131d 77486465 
00001321 706f7453 
00001325 6f43664f 
00001329 6f72746e 
0000132d 72656c6c 
00001331 666e6f43 
00001335 79546769 
00001339 006570 
0000133c 0afa       4917 	.data.b	250,10
0000133e 0f         4918 	.data.b	15
0000133f 05         4919 	.data.b	5
00001340 00000000*  4920 	.data.w	.LDW_5e0df08
                    4921 
                    4922 .LDW_605f5b0:
00001344 2a         4923 	.data.b	42
00001345 5f6e6143   4924 	.data.b	67,97,110,95,66,117,115,79,102,102,67,111,117,110,116,101,114,79,102,67,111,110,116,114,111,108,108,101,114,68,97,116,97,84,121,112,101,0
00001349 4f737542 
0000134d 6f436666 
00001351 65746e75 
00001355 43664f72 
00001359 72746e6f 
0000135d 656c6c6f 
00001361 74614472 
00001365 70795461 
00001369 0065 
0000136b 0afd       4925 	.data.b	253,10
0000136d 0f         4926 	.data.b	15
0000136e 05         4927 	.data.b	5
0000136f 00000000*  4928 	.data.w	.LDW_5e0df08
                    4929 
                    4930 .LDW_605f3f8:
00001373 2a         4931 	.data.b	42
00001374 5f6e6143   4932 	.data.b	67,97,110,95,67,97,110,73,110,116,101,114,114,117,112,116,67,111,117,110,116,101,114,79,102,67,111,110,116,114,111,108,108,101,114,68,97,116,97,84,121,112,101,0
00001378 496e6143 
0000137c 7265746e 
00001380 74707572 
00001384 6e756f43 
00001388 4f726574 
0000138c 6e6f4366 
00001390 6c6f7274 
00001394 4472656c 
00001398 54617461 
0000139c 00657079 
000013a0 0b80       4933 	.data.b	128,11
000013a2 0f         4934 	.data.b	15
000013a3 05         4935 	.data.b	5
000013a4 00000000*  4936 	.data.w	.LDW_5e0df08
                    4937 
                    4938 .LDW_605f660:
000013a8 2a         4939 	.data.b	42
000013a9 5f6e6143   4940 	.data.b	67,97,110,95,73,115,66,117,115,79,102,102,79,102,67,111,110,116,114,111,108,108,101,114,68,97,116,97,84,121,112,101,0
000013ad 75427349 
000013b1 66664f73 
000013b5 6f43664f 
000013b9 6f72746e 
000013bd 72656c6c 

                                                                      Page 96
                                                              C:\Users\Fengyuan\AppData\Local\Temp\gh_0000sro1.s
000013c1 61746144 
000013c5 65707954 
000013c9 00 
000013ca 0b83       4941 	.data.b	131,11
000013cc 11         4942 	.data.b	17
000013cd 05         4943 	.data.b	5
000013ce 00000000*  4944 	.data.w	.LDW_6025220
                    4945 
                    4946 .LDW_605f958:
000013d2 2a         4947 	.data.b	42
000013d3 5f6e6143   4948 	.data.b	67,97,110,95,76,97,115,116,73,110,105,116,79,98,106,101,99,116,79,102,67,111,110,116,114,111,108,108,101,114,68,97,116,97,84,121,112,101,0
000013d7 7473614c 
000013db 74696e49 
000013df 656a624f 
000013e3 664f7463 
000013e7 746e6f43 
000013eb 6c6c6f72 
000013ef 61447265 
000013f3 79546174 
000013f7 006570 
000013fa 0b86       4949 	.data.b	134,11
000013fc 0f         4950 	.data.b	15
000013fd 05         4951 	.data.b	5
000013fe 00000000*  4952 	.data.w	.LDW_5e0df08
                    4953 
                    4954 .LDW_605fa60:
00001402 2a         4955 	.data.b	42
00001403 5f6e6143   4956 	.data.b	67,97,110,95,76,111,103,83,116,97,116,117,115,79,102,67,111,110,116,114,111,108,108,101,114,68,97,116,97,84,121,112,101,0
00001407 53676f4c 
0000140b 75746174 
0000140f 43664f73 
00001413 72746e6f 
00001417 656c6c6f 
0000141b 74614472 
0000141f 70795461 
00001423 0065 
00001425 0b89       4957 	.data.b	137,11
00001427 0f         4958 	.data.b	15
00001428 05         4959 	.data.b	5
00001429 00000000*  4960 	.data.w	.LDW_5e0df08
                    4961 
                    4962 .LDW_605ff30:
0000142d 2a         4963 	.data.b	42
0000142e 5f6e6143   4964 	.data.b	67,97,110,95,83,116,97,114,116,77,111,100,101,82,101,113,117,101,115,116,101,100,79,102,67,111,110,116,114,111,108,108,101,114,68,97,116,97,84,121,112,101,0
00001432 72617453 
00001436 646f4d74 
0000143a 71655265 
0000143e 74736575 
00001442 664f6465 
00001446 746e6f43 
0000144a 6c6c6f72 
0000144e 61447265 
00001452 79546174 
00001456 006570 
00001459 0b8c       4965 	.data.b	140,11
0000145b 11         4966 	.data.b	17
0000145c 05         4967 	.data.b	5
0000145d 00000000*  4968 	.data.w	.LDW_6025220
                    4969 
                    4970 .LDW_605fd78:
00001461 2a         4971 	.data.b	42

                                                                      Page 97
                                                              C:\Users\Fengyuan\AppData\Local\Temp\gh_0000sro1.s
00001462 5f6e6143   4972 	.data.b	67,97,110,95,83,116,97,116,117,115,82,101,113,79,102,67,111,110,116,114,111,108,108,101,114,68,97,116,97,84,121,112,101,0
00001466 74617453 
0000146a 65527375 
0000146e 43664f71 
00001472 72746e6f 
00001476 656c6c6f 
0000147a 74614472 
0000147e 70795461 
00001482 0065 
00001484 0b8f       4973 	.data.b	143,11
00001486 0f         4974 	.data.b	15
00001487 05         4975 	.data.b	5
00001488 00000000*  4976 	.data.w	.LDW_5e0df08
                    4977 
                    4978 .LDW_605fc18:
0000148c 2a         4979 	.data.b	42
0000148d 5f6e6143   4980 	.data.b	67,97,110,95,73,110,105,116,67,111,100,101,79,102,73,110,105,116,66,97,115,105,99,67,97,110,84,121,112,101,0
00001491 74696e49 
00001495 65646f43 
00001499 6e49664f 
0000149d 61427469 
000014a1 43636973 
000014a5 79546e61 
000014a9 006570 
000014ac 0b92       4981 	.data.b	146,11
000014ae 10         4982 	.data.b	16
000014af 05         4983 	.data.b	5
000014b0 00000000*  4984 	.data.w	.LDW_5e0e158
                    4985 
                    4986 .LDW_6060248:
000014b4 2a         4987 	.data.b	42
000014b5 5f6e6143   4988 	.data.b	67,97,110,95,73,110,105,116,77,97,115,107,79,102,73,110,105,116,66,97,115,105,99,67,97,110,84,121,112,101,0
000014b9 74696e49 
000014bd 6b73614d 
000014c1 6e49664f 
000014c5 61427469 
000014c9 43636973 
000014cd 79546e61 
000014d1 006570 
000014d4 0b95       4989 	.data.b	149,11
000014d6 10         4990 	.data.b	16
000014d7 05         4991 	.data.b	5
000014d8 00000000*  4992 	.data.w	.LDW_5e0e158
                    4993 
                    4994 .LDW_605fb10:
000014dc 2a         4995 	.data.b	42
000014dd 5f6e6143   4996 	.data.b	67,97,110,95,73,110,105,116,66,97,115,105,99,67,97,110,73,110,100,101,120,84,121,112,101,0
000014e1 74696e49 
000014e5 69736142 
000014e9 6e614363 
000014ed 65646e49 
000014f1 70795478 
000014f5 0065 
000014f7 0b98       4997 	.data.b	152,11
000014f9 10         4998 	.data.b	16
000014fa 05         4999 	.data.b	5
000014fb 00000000*  5000 	.data.w	.LDW_5ee2818
                    5001 
                    5002 .LDW_605ff88:
000014ff 2a         5003 	.data.b	42
00001500 5f6e6143   5004 	.data.b	67,97,110,95,67,66,84,79,102,73,110,105,116,79,98,106,101,99,116,84,121,112,101,0

                                                                      Page 98
                                                              C:\Users\Fengyuan\AppData\Local\Temp\gh_0000sro1.s
00001504 4f544243 
00001508 696e4966 
0000150c 6a624f74 
00001510 54746365 
00001514 00657079 
00001518 0b9b       5005 	.data.b	155,11
0000151a 10         5006 	.data.b	16
0000151b 05         5007 	.data.b	5
0000151c 00000000*  5008 	.data.w	.LDW_5e0e158
                    5009 
                    5010 .LDW_605fd20:
00001520 2a         5011 	.data.b	42
00001521 5f6e6143   5012 	.data.b	67,97,110,95,67,111,110,116,114,111,108,49,79,102,73,110,105,116,79,98,106,101,99,116,84,121,112,101,0
00001525 746e6f43 
00001529 316c6f72 
0000152d 6e49664f 
00001531 624f7469 
00001535 7463656a 
00001539 65707954 
0000153d 00 
0000153e 0b9e       5013 	.data.b	158,11
00001540 10         5014 	.data.b	16
00001541 05         5015 	.data.b	5
00001542 00000000*  5016 	.data.w	.LDW_5e0e158
                    5017 
                    5018 .LDW_605f9b0:
00001546 2a         5019 	.data.b	42
00001547 5f6e6143   5020 	.data.b	67,97,110,95,73,110,105,116,79,98,106,101,99,116,66,97,117,100,114,97,116,101,84,121,112,101,0
0000154b 74696e49 
0000154f 656a624f 
00001553 61427463 
00001557 61726475 
0000155b 79546574 
0000155f 006570 
00001562 0ba1       5021 	.data.b	161,11
00001564 10         5022 	.data.b	16
00001565 05         5023 	.data.b	5
00001566 00000000*  5024 	.data.w	.LDW_5ee2818
                    5025 
                    5026 .LDW_605f900:
0000156a 2a         5027 	.data.b	42
0000156b 5f6e6143   5028 	.data.b	67,97,110,95,73,110,105,116,79,98,106,101,99,116,83,116,97,114,116,73,110,100,101,120,84,121,112,101,0
0000156f 74696e49 
00001573 656a624f 
00001577 74537463 
0000157b 49747261 
0000157f 7865646e 
00001583 65707954 
00001587 00 
00001588 0ba4       5029 	.data.b	164,11
0000158a 0f         5030 	.data.b	15
0000158b 05         5031 	.data.b	5
0000158c 00000000*  5032 	.data.w	.LDW_5e0df08
                    5033 
                    5034 .LDW_6060350:
00001590 2a         5035 	.data.b	42
00001591 5f6e6143   5036 	.data.b	67,97,110,95,67,111,110,116,114,111,108,108,101,114,67,111,110,102,105,103,73,100,120,79,102,77,97,105,108,98,111,120,84,121,112,101,0
00001595 746e6f43 
00001599 6c6c6f72 
0000159d 6f437265 
000015a1 6769666e 

                                                                      Page 99
                                                              C:\Users\Fengyuan\AppData\Local\Temp\gh_0000sro1.s
000015a5 4f786449 
000015a9 69614d66 
000015ad 786f626c 
000015b1 65707954 
000015b5 00 
000015b6 0ba7       5037 	.data.b	167,11
000015b8 10         5038 	.data.b	16
000015b9 05         5039 	.data.b	5
000015ba 00000000*  5040 	.data.w	.LDW_5ee2818
                    5041 
                    5042 .LDW_605fa08:
000015be 2a         5043 	.data.b	42
000015bf 5f6e6143   5044 	.data.b	67,97,110,95,68,76,67,95,70,73,70,79,79,102,77,97,105,108,98,111,120,84,121,112,101,0
000015c3 5f434c44 
000015c7 4f464946 
000015cb 614d664f 
000015cf 6f626c69 
000015d3 70795478 
000015d7 0065 
000015d9 0baa       5045 	.data.b	170,11
000015db 0f         5046 	.data.b	15
000015dc 05         5047 	.data.b	5
000015dd 00000000*  5048 	.data.w	.LDW_5e0df08
                    5049 
                    5050 .LDW_605fc70:
000015e1 2a         5051 	.data.b	42
000015e2 5f6e6143   5052 	.data.b	67,97,110,95,72,119,72,97,110,100,108,101,79,102,77,97,105,108,98,111,120,84,121,112,101,0
000015e6 61487748 
000015ea 656c646e 
000015ee 614d664f 
000015f2 6f626c69 
000015f6 70795478 
000015fa 0065 
000015fc 0bad       5053 	.data.b	173,11
000015fe 0f         5054 	.data.b	15
000015ff 05         5055 	.data.b	5
00001600 00000000*  5056 	.data.w	.LDW_5e0df08
                    5057 
                    5058 .LDW_60602a0:
00001604 2a         5059 	.data.b	42
00001605 5f6e6143   5060 	.data.b	67,97,110,95,73,68,86,97,108,117,101,79,102,77,97,105,108,98,111,120,84,121,112,101,0
00001609 61564449 
0000160d 4f65756c 
00001611 69614d66 
00001615 786f626c 
00001619 65707954 
0000161d 00 
0000161e 0bb0       5061 	.data.b	176,11
00001620 10         5062 	.data.b	16
00001621 05         5063 	.data.b	5
00001622 00000000*  5064 	.data.w	.LDW_5ee2818
                    5065 
                    5066 .LDW_605fb68:
00001626 2a         5067 	.data.b	42
00001627 5f6e6143   5068 	.data.b	67,97,110,95,77,97,105,108,98,111,120,84,121,112,101,79,102,77,97,105,108,98,111,120,84,121,112,101,0
0000162b 6c69614d 
0000162f 54786f62 
00001633 4f657079 
00001637 69614d66 
0000163b 786f626c 
0000163f 65707954 

                                                                      Page 100
                                                              C:\Users\Fengyuan\AppData\Local\Temp\gh_0000sro1.s
00001643 00 
00001644 0bb3       5069 	.data.b	179,11
00001646 0f         5070 	.data.b	15
00001647 05         5071 	.data.b	5
00001648 00000000*  5072 	.data.w	.LDW_5e0df08
                    5073 
                    5074 .LDW_605fab8:
0000164c 2a         5075 	.data.b	42
0000164d 5f6e6143   5076 	.data.b	67,97,110,95,77,97,120,68,97,116,97,76,101,110,79,102,77,97,105,108,98,111,120,84,121,112,101,0
00001651 4478614d 
00001655 4c617461 
00001659 664f6e65 
0000165d 6c69614d 
00001661 54786f62 
00001665 00657079 
00001669 0bb6       5077 	.data.b	182,11
0000166b 0f         5078 	.data.b	15
0000166c 05         5079 	.data.b	5
0000166d 00000000*  5080 	.data.w	.LDW_5e0df08
                    5081 
                    5082 .LDW_60600e8:
00001671 2a         5083 	.data.b	42
00001672 5f6e6143   5084 	.data.b	67,97,110,95,84,120,79,102,102,115,101,116,72,119,84,111,76,111,103,84,121,112,101,0
00001676 664f7854 
0000167a 74657366 
0000167e 6f547748 
00001682 54676f4c 
00001686 00657079 
0000168a 0bdd       5085 	.data.b	221,11
0000168c 10         5086 	.data.b	16
0000168d 05         5087 	.data.b	5
0000168e 00000000*  5088 	.data.w	.LDW_60249e0
                    5089 
                    5090 .LDW_6060198:
00001692 42         5091 	.data.b	66
00001693 6e614373   5092 	.data.b	115,67,97,110,95,65,99,116,105,118,101,83,101,110,100,79,98,106,101,99,116,84,121,112,101,0
00001697 7463415f 
0000169b 53657669 
0000169f 4f646e65 
000016a3 63656a62 
000016a7 70795474 
000016ab 0065 
000016ad 0be9       5093 	.data.b	233,11
000016af 10         5094 	.data.b	16
000016b0 05         5095 	.data.b	5
000016b1 02         5096 	.data.b	2
000016b2 01         5097 	.data.b	1
                    5098 
                    5099 .LDW_5f59f28:
000016b3 25         5100 	.data.b	37
000016b4 4f756450   5101 	.data.b	80,100,117,79,102,65,99,116,105,118,101,83,101,110,100,79,98,106,101,99,116,0
000016b8 74634166 
000016bc 53657669 
000016c0 4f646e65 
000016c4 63656a62 
000016c8 0074 
000016ca 0beb       5102 	.data.b	235,11
000016cc 21         5103 	.data.b	33
000016cd 05         5104 	.data.b	5
000016ce 00000000*  5105 	.data.w	.LDW_605edc8
000016d2 2302       5106 	.data.b	2,35

                                                                      Page 101
                                                              C:\Users\Fengyuan\AppData\Local\Temp\gh_0000sro1.s
000016d4 00         5107 	.data.b	0
000016d5 01         5108 	.data.b	1
                    5109 
                    5110 .LDW_5f5a1b0:
000016d6 25         5111 	.data.b	37
000016d7 74617453   5112 	.data.b	83,116,97,116,101,79,102,65,99,116,105,118,101,83,101,110,100,79,98,106,101,99,116,0
000016db 41664f65 
000016df 76697463 
000016e3 6e655365 
000016e7 6a624f64 
000016eb 00746365 
000016ef 0bec       5113 	.data.b	236,11
000016f1 23         5114 	.data.b	35
000016f2 05         5115 	.data.b	5
000016f3 00000000*  5116 	.data.w	.LDW_605ec10
000016f7 2302       5117 	.data.b	2,35
000016f9 01         5118 	.data.b	1
000016fa 01         5119 	.data.b	1
                    5120 
000016fb 00         5121 	.data.b	0
                    5122 
                    5123 .LDW_60603a8:
000016fc 2a         5124 	.data.b	42
000016fd 5f6e6143   5125 	.data.b	67,97,110,95,65,99,116,105,118,101,83,101,110,100,79,98,106,101,99,116,84,121,112,101,0
00001701 69746341 
00001705 65536576 
00001709 624f646e 
0000170d 7463656a 
00001711 65707954 
00001715 00 
00001716 0bed       5126 	.data.b	237,11
00001718 03         5127 	.data.b	3
00001719 05         5128 	.data.b	5
0000171a 00000000*  5129 	.data.w	.LDW_6060198
                    5130 
                    5131 .LDW_60253d8:
0000171e 42         5132 	.data.b	66
0000171f 6e614373   5133 	.data.b	115,67,97,110,95,67,111,110,116,114,111,108,108,101,114,67,111,110,102,105,103,84,121,112,101,0
00001723 6e6f435f 
00001727 6c6f7274 
0000172b 4372656c 
0000172f 69666e6f 
00001733 70795467 
00001737 0065 
00001739 0bf0       5134 	.data.b	240,11
0000173b 10         5135 	.data.b	16
0000173c 05         5136 	.data.b	5
0000173d 34         5137 	.data.b	52
0000173e 01         5138 	.data.b	1
                    5139 
                    5140 .LDW_5f5a120:
0000173f 25         5141 	.data.b	37
00001740 65736142   5142 	.data.b	66,97,115,101,65,100,100,114,101,115,115,79,102,67,111,110,116,114,111,108,108,101,114,67,111,110,102,105,103,0
00001744 72646441 
00001748 4f737365 
0000174c 6e6f4366 
00001750 6c6f7274 
00001754 4372656c 
00001758 69666e6f 
0000175c 0067 
0000175e 0bf2       5143 	.data.b	242,11

                                                                      Page 102
                                                              C:\Users\Fengyuan\AppData\Local\Temp\gh_0000sro1.s
00001760 29         5144 	.data.b	41
00001761 05         5145 	.data.b	5
00001762 00000000*  5146 	.data.w	.LDW_605f240
00001766 2302       5147 	.data.b	2,35
00001768 00         5148 	.data.b	0
00001769 01         5149 	.data.b	1
                    5150 
                    5151 .LDW_5f5a1f8:
0000176a 25         5152 	.data.b	37
0000176b 65746e49   5153 	.data.b	73,110,116,101,114,114,117,112,116,77,97,115,107,49,79,102,67,111,110,116,114,111,108,108,101,114,67,111,110,102,105,103,0
0000176f 70757272 
00001773 73614d74 
00001777 664f316b 
0000177b 746e6f43 
0000177f 6c6c6f72 
00001783 6f437265 
00001787 6769666e 
0000178b 00 
0000178c 0bf3       5154 	.data.b	243,11
0000178e 2c         5155 	.data.b	44
0000178f 05         5156 	.data.b	5
00001790 00000000*  5157 	.data.w	.LDW_605ed18
00001794 2302       5158 	.data.b	2,35
00001796 04         5159 	.data.b	4
00001797 01         5160 	.data.b	1
                    5161 
                    5162 .LDW_5f59f70:
00001798 25         5163 	.data.b	37
00001799 65746e49   5164 	.data.b	73,110,116,101,114,114,117,112,116,77,97,115,107,50,79,102,67,111,110,116,114,111,108,108,101,114,67,111,110,102,105,103,0
0000179d 70757272 
000017a1 73614d74 
000017a5 664f326b 
000017a9 746e6f43 
000017ad 6c6c6f72 
000017b1 6f437265 
000017b5 6769666e 
000017b9 00 
000017ba 0bf4       5165 	.data.b	244,11
000017bc 2c         5166 	.data.b	44
000017bd 05         5167 	.data.b	5
000017be 00000000*  5168 	.data.w	.LDW_605f030
000017c2 2302       5169 	.data.b	2,35
000017c4 08         5170 	.data.b	8
000017c5 01         5171 	.data.b	1
                    5172 
                    5173 .LDW_5f59c10:
000017c6 25         5174 	.data.b	37
000017c7 4e464652   5175 	.data.b	82,70,70,78,79,102,67,111,110,116,114,111,108,108,101,114,67,111,110,102,105,103,0
000017cb 6f43664f 
000017cf 6f72746e 
000017d3 72656c6c 
000017d7 666e6f43 
000017db 006769 
000017de 0bf5       5176 	.data.b	245,11
000017e0 22         5177 	.data.b	34
000017e1 05         5178 	.data.b	5
000017e2 00000000*  5179 	.data.w	.LDW_605f450
000017e6 2302       5180 	.data.b	2,35
000017e8 0c         5181 	.data.b	12
000017e9 01         5182 	.data.b	1
                    5183 

                                                                      Page 103
                                                              C:\Users\Fengyuan\AppData\Local\Temp\gh_0000sro1.s
                    5184 .LDW_5f59d78:
000017ea 25         5185 	.data.b	37
000017eb 436e6143   5186 	.data.b	67,97,110,67,111,110,116,114,111,108,108,101,114,68,101,102,97,117,108,116,66,97,117,100,114,97,116,101,79,102,67,111,110,116,114,111,108,108,101,114,67,111,110,102,105,103,0
000017ef 72746e6f 
000017f3 656c6c6f 
000017f7 66654472 
000017fb 746c7561 
000017ff 64756142 
00001803 65746172 
00001807 6f43664f 
0000180b 6f72746e 
0000180f 72656c6c 
00001813 666e6f43 
00001817 006769 
0000181a 0bf6       5187 	.data.b	246,11
0000181c 3a         5188 	.data.b	58
0000181d 05         5189 	.data.b	5
0000181e 00000000*  5190 	.data.w	.LDW_605e9a8
00001822 2302       5191 	.data.b	2,35
00001824 10         5192 	.data.b	16
00001825 01         5193 	.data.b	1
                    5194 
                    5195 .LDW_5f59ce8:
00001826 25         5196 	.data.b	37
00001827 6c69614d   5197 	.data.b	77,97,105,108,98,111,120,82,120,66,97,115,105,99,69,110,100,73,100,120,79,102,67,111,110,116,114,111,108,108,101,114,67,111,110,102,105,103,0
0000182b 52786f62 
0000182f 73614278 
00001833 6e456369 
00001837 78644964 
0000183b 6f43664f 
0000183f 6f72746e 
00001843 72656c6c 
00001847 666e6f43 
0000184b 006769 
0000184e 0bf7       5198 	.data.b	247,11
00001850 32         5199 	.data.b	50
00001851 05         5200 	.data.b	5
00001852 00000000*  5201 	.data.w	.LDW_605ea00
00001856 2302       5202 	.data.b	2,35
00001858 12         5203 	.data.b	18
00001859 01         5204 	.data.b	1
                    5205 
                    5206 .LDW_5f59dc0:
0000185a 25         5207 	.data.b	37
0000185b 6c69614d   5208 	.data.b	77,97,105,108,98,111,120,82,120,66,97,115,105,99,76,101,110,103,116,104,79,102,67,111,110,116,114,111,108,108,101,114,67,111,110,102,105,103,0
0000185f 52786f62 
00001863 73614278 
00001867 654c6369 
0000186b 6874676e 
0000186f 6f43664f 
00001873 6f72746e 
00001877 72656c6c 
0000187b 666e6f43 
0000187f 006769 
00001882 0bf8       5209 	.data.b	248,11
00001884 32         5210 	.data.b	50
00001885 05         5211 	.data.b	5
00001886 00000000*  5212 	.data.w	.LDW_605eed0
0000188a 2302       5213 	.data.b	2,35
0000188c 14         5214 	.data.b	20
0000188d 01         5215 	.data.b	1

                                                                      Page 104
                                                              C:\Users\Fengyuan\AppData\Local\Temp\gh_0000sro1.s
                    5216 
                    5217 .LDW_60621c0:
0000188e 25         5218 	.data.b	37
0000188f 6c69614d   5219 	.data.b	77,97,105,108,98,111,120,82,120,66,97,115,105,99,83,116,97,114,116,73,100,120,79,102,67,111,110,116,114,111,108,108,101,114,67,111,110,102,105,103,0
00001893 52786f62 
00001897 73614278 
0000189b 74536369 
0000189f 49747261 
000018a3 664f7864 
000018a7 746e6f43 
000018ab 6c6c6f72 
000018af 6f437265 
000018b3 6769666e 
000018b7 00 
000018b8 0bf9       5220 	.data.b	249,11
000018ba 34         5221 	.data.b	52
000018bb 05         5222 	.data.b	5
000018bc 00000000*  5223 	.data.w	.LDW_605ecc0
000018c0 2302       5224 	.data.b	2,35
000018c2 16         5225 	.data.b	22
000018c3 01         5226 	.data.b	1
                    5227 
                    5228 .LDW_6061cf8:
000018c4 25         5229 	.data.b	37
000018c5 6c69614d   5230 	.data.b	77,97,105,108,98,111,120,84,120,66,97,115,105,99,69,110,100,73,100,120,79,102,67,111,110,116,114,111,108,108,101,114,67,111,110,102,105,103,0
000018c9 54786f62 
000018cd 73614278 
000018d1 6e456369 
000018d5 78644964 
000018d9 6f43664f 
000018dd 6f72746e 
000018e1 72656c6c 
000018e5 666e6f43 
000018e9 006769 
000018ec 0bfa       5231 	.data.b	250,11
000018ee 32         5232 	.data.b	50
000018ef 05         5233 	.data.b	5
000018f0 00000000*  5234 	.data.w	.LDW_605f138
000018f4 2302       5235 	.data.b	2,35
000018f6 18         5236 	.data.b	24
000018f7 01         5237 	.data.b	1
                    5238 
                    5239 .LDW_60620a0:
000018f8 25         5240 	.data.b	37
000018f9 6c69614d   5241 	.data.b	77,97,105,108,98,111,120,84,120,66,97,115,105,99,76,101,110,103,116,104,79,102,67,111,110,116,114,111,108,108,101,114,67,111,110,102,105,103,0
000018fd 54786f62 
00001901 73614278 
00001905 654c6369 
00001909 6874676e 
0000190d 6f43664f 
00001911 6f72746e 
00001915 72656c6c 
00001919 666e6f43 
0000191d 006769 
00001920 0bfb       5242 	.data.b	251,11
00001922 32         5243 	.data.b	50
00001923 05         5244 	.data.b	5
00001924 00000000*  5245 	.data.w	.LDW_605ee20
00001928 2302       5246 	.data.b	2,35
0000192a 1a         5247 	.data.b	26
0000192b 01         5248 	.data.b	1

                                                                      Page 105
                                                              C:\Users\Fengyuan\AppData\Local\Temp\gh_0000sro1.s
                    5249 
                    5250 .LDW_6061bd8:
0000192c 25         5251 	.data.b	37
0000192d 6c69614d   5252 	.data.b	77,97,105,108,98,111,120,84,120,66,97,115,105,99,83,116,97,114,116,73,100,120,79,102,67,111,110,116,114,111,108,108,101,114,67,111,110,102,105,103,0
00001931 54786f62 
00001935 73614278 
00001939 74536369 
0000193d 49747261 
00001941 664f7864 
00001945 746e6f43 
00001949 6c6c6f72 
0000194d 6f437265 
00001951 6769666e 
00001955 00 
00001956 0bfc       5253 	.data.b	252,11
00001958 34         5254 	.data.b	52
00001959 05         5255 	.data.b	5
0000195a 00000000*  5256 	.data.w	.LDW_605eb60
0000195e 2302       5257 	.data.b	2,35
00001960 1c         5258 	.data.b	28
00001961 01         5259 	.data.b	1
                    5260 
                    5261 .LDW_6061b00:
00001962 25         5262 	.data.b	37
00001963 6c69614d   5263 	.data.b	77,97,105,108,98,111,120,85,110,117,115,101,100,69,110,100,73,100,120,79,102,67,111,110,116,114,111,108,108,101,114,67,111,110,102,105,103,0
00001967 55786f62 
0000196b 6573756e 
0000196f 646e4564 
00001973 4f786449 
00001977 6e6f4366 
0000197b 6c6f7274 
0000197f 4372656c 
00001983 69666e6f 
00001987 0067 
00001989 0bfd       5264 	.data.b	253,11
0000198b 31         5265 	.data.b	49
0000198c 05         5266 	.data.b	5
0000198d 00000000*  5267 	.data.w	.LDW_605ea58
00001991 2302       5268 	.data.b	2,35
00001993 1e         5269 	.data.b	30
00001994 01         5270 	.data.b	1
                    5271 
                    5272 .LDW_6061f38:
00001995 25         5273 	.data.b	37
00001996 6c69614d   5274 	.data.b	77,97,105,108,98,111,120,85,110,117,115,101,100,76,101,110,103,116,104,79,102,67,111,110,116,114,111,108,108,101,114,67,111,110,102,105,103,0
0000199a 55786f62 
0000199e 6573756e 
000019a2 6e654c64 
000019a6 4f687467 
000019aa 6e6f4366 
000019ae 6c6f7274 
000019b2 4372656c 
000019b6 69666e6f 
000019ba 0067 
000019bc 0bfe       5275 	.data.b	254,11
000019be 31         5276 	.data.b	49
000019bf 05         5277 	.data.b	5
000019c0 00000000*  5278 	.data.w	.LDW_605eab0
000019c4 2302       5279 	.data.b	2,35
000019c6 20         5280 	.data.b	32
000019c7 01         5281 	.data.b	1

                                                                      Page 106
                                                              C:\Users\Fengyuan\AppData\Local\Temp\gh_0000sro1.s
                    5282 
                    5283 .LDW_6061a70:
000019c8 25         5284 	.data.b	37
000019c9 6c69614d   5285 	.data.b	77,97,105,108,98,111,120,85,110,117,115,101,100,83,116,97,114,116,73,100,120,79,102,67,111,110,116,114,111,108,108,101,114,67,111,110,102,105,103,0
000019cd 55786f62 
000019d1 6573756e 
000019d5 61745364 
000019d9 64497472 
000019dd 43664f78 
000019e1 72746e6f 
000019e5 656c6c6f 
000019e9 6e6f4372 
000019ed 00676966 
000019f1 0bff       5286 	.data.b	255,11
000019f3 33         5287 	.data.b	51
000019f4 05         5288 	.data.b	5
000019f5 00000000*  5289 	.data.w	.LDW_605ef28
000019f9 2302       5290 	.data.b	2,35
000019fb 22         5291 	.data.b	34
000019fc 01         5292 	.data.b	1
                    5293 
                    5294 .LDW_6061f80:
000019fd 25         5295 	.data.b	37
000019fe 626d754e   5296 	.data.b	78,117,109,98,101,114,79,102,70,105,108,116,101,114,115,79,102,67,111,110,116,114,111,108,108,101,114,67,111,110,102,105,103,0
00001a02 664f7265 
00001a06 746c6946 
00001a0a 4f737265 
00001a0e 6e6f4366 
00001a12 6c6f7274 
00001a16 4372656c 
00001a1a 69666e6f 
00001a1e 0067 
00001a20 0c80       5297 	.data.b	128,12
00001a22 2d         5298 	.data.b	45
00001a23 05         5299 	.data.b	5
00001a24 00000000*  5300 	.data.w	.LDW_605eb08
00001a28 2302       5301 	.data.b	2,35
00001a2a 24         5302 	.data.b	36
00001a2b 01         5303 	.data.b	1
                    5304 
                    5305 .LDW_60620e8:
00001a2c 25         5306 	.data.b	37
00001a2d 626d754e   5307 	.data.b	78,117,109,98,101,114,79,102,70,117,108,108,67,111,110,102,105,103,117,114,97,98,108,101,70,105,108,116,101,114,115,79,102,67,111,110,116,114,111,108,108,101,114,67,111,110,102,105,103,0
00001a31 664f7265 
00001a35 6c6c7546 
00001a39 666e6f43 
00001a3d 72756769 
00001a41 656c6261 
00001a45 746c6946 
00001a49 4f737265 
00001a4d 6e6f4366 
00001a51 6c6f7274 
00001a55 4372656c 
00001a59 69666e6f 
00001a5d 0067 
00001a5f 0c81       5308 	.data.b	129,12
00001a61 3d         5309 	.data.b	61
00001a62 05         5310 	.data.b	5
00001a63 00000000*  5311 	.data.w	.LDW_605efd8
00001a67 2302       5312 	.data.b	2,35
00001a69 25         5313 	.data.b	37

                                                                      Page 107
                                                              C:\Users\Fengyuan\AppData\Local\Temp\gh_0000sro1.s
00001a6a 01         5314 	.data.b	1
                    5315 
                    5316 .LDW_6062130:
00001a6b 25         5317 	.data.b	37
00001a6c 626d754e   5318 	.data.b	78,117,109,98,101,114,79,102,77,97,120,77,97,105,108,98,111,120,101,115,79,102,67,111,110,116,114,111,108,108,101,114,67,111,110,102,105,103,0
00001a70 664f7265 
00001a74 4d78614d 
00001a78 626c6961 
00001a7c 7365786f 
00001a80 6f43664f 
00001a84 6f72746e 
00001a88 72656c6c 
00001a8c 666e6f43 
00001a90 006769 
00001a93 0c82       5319 	.data.b	130,12
00001a95 32         5320 	.data.b	50
00001a96 05         5321 	.data.b	5
00001a97 00000000*  5322 	.data.w	.LDW_605f190
00001a9b 2302       5323 	.data.b	2,35
00001a9d 26         5324 	.data.b	38
00001a9e 01         5325 	.data.b	1
                    5326 
                    5327 .LDW_6061b90:
00001a9f 25         5328 	.data.b	37
00001aa0 61427852   5329 	.data.b	82,120,66,97,115,105,99,72,119,83,116,97,114,116,79,102,67,111,110,116,114,111,108,108,101,114,67,111,110,102,105,103,0
00001aa4 48636973 
00001aa8 61745377 
00001aac 664f7472 
00001ab0 746e6f43 
00001ab4 6c6c6f72 
00001ab8 6f437265 
00001abc 6769666e 
00001ac0 00 
00001ac1 0c83       5330 	.data.b	131,12
00001ac3 2c         5331 	.data.b	44
00001ac4 05         5332 	.data.b	5
00001ac5 00000000*  5333 	.data.w	.LDW_605f6b8
00001ac9 2302       5334 	.data.b	2,35
00001acb 27         5335 	.data.b	39
00001acc 01         5336 	.data.b	1
                    5337 
                    5338 .LDW_60619e0:
00001acd 25         5339 	.data.b	37
00001ace 61427852   5340 	.data.b	82,120,66,97,115,105,99,72,119,83,116,111,112,79,102,67,111,110,116,114,111,108,108,101,114,67,111,110,102,105,103,0
00001ad2 48636973 
00001ad6 6f745377 
00001ada 43664f70 
00001ade 72746e6f 
00001ae2 656c6c6f 
00001ae6 6e6f4372 
00001aea 00676966 
00001aee 0c84       5341 	.data.b	132,12
00001af0 2b         5342 	.data.b	43
00001af1 05         5343 	.data.b	5
00001af2 00000000*  5344 	.data.w	.LDW_605f870
00001af6 2302       5345 	.data.b	2,35
00001af8 28         5346 	.data.b	40
00001af9 01         5347 	.data.b	1
                    5348 
                    5349 .LDW_6061908:
00001afa 25         5350 	.data.b	37

                                                                      Page 108
                                                              C:\Users\Fengyuan\AppData\Local\Temp\gh_0000sro1.s
00001afb 75467852   5351 	.data.b	82,120,70,117,108,108,72,119,83,116,97,114,116,79,102,67,111,110,116,114,111,108,108,101,114,67,111,110,102,105,103,0
00001aff 77486c6c 
00001b03 72617453 
00001b07 43664f74 
00001b0b 72746e6f 
00001b0f 656c6c6f 
00001b13 6e6f4372 
00001b17 00676966 
00001b1b 0c85       5352 	.data.b	133,12
00001b1d 2b         5353 	.data.b	43
00001b1e 05         5354 	.data.b	5
00001b1f 00000000*  5355 	.data.w	.LDW_605f500
00001b23 2302       5356 	.data.b	2,35
00001b25 29         5357 	.data.b	41
00001b26 01         5358 	.data.b	1
                    5359 
                    5360 .LDW_6061998:
00001b27 25         5361 	.data.b	37
00001b28 75467852   5362 	.data.b	82,120,70,117,108,108,72,119,83,116,111,112,79,102,67,111,110,116,114,111,108,108,101,114,67,111,110,102,105,103,0
00001b2c 77486c6c 
00001b30 706f7453 
00001b34 6f43664f 
00001b38 6f72746e 
00001b3c 72656c6c 
00001b40 666e6f43 
00001b44 006769 
00001b47 0c86       5363 	.data.b	134,12
00001b49 2a         5364 	.data.b	42
00001b4a 05         5365 	.data.b	5
00001b4b 00000000*  5366 	.data.w	.LDW_605f4a8
00001b4f 2302       5367 	.data.b	2,35
00001b51 2a         5368 	.data.b	42
00001b52 01         5369 	.data.b	1
                    5370 
                    5371 .LDW_6061d88:
00001b53 25         5372 	.data.b	37
00001b54 61427854   5373 	.data.b	84,120,66,97,115,105,99,72,119,83,116,97,114,116,79,102,67,111,110,116,114,111,108,108,101,114,67,111,110,102,105,103,0
00001b58 48636973 
00001b5c 61745377 
00001b60 664f7472 
00001b64 746e6f43 
00001b68 6c6c6f72 
00001b6c 6f437265 
00001b70 6769666e 
00001b74 00 
00001b75 0c87       5374 	.data.b	135,12
00001b77 2c         5375 	.data.b	44
00001b78 05         5376 	.data.b	5
00001b79 00000000*  5377 	.data.w	.LDW_605f7c0
00001b7d 2302       5378 	.data.b	2,35
00001b7f 2b         5379 	.data.b	43
00001b80 01         5380 	.data.b	1
                    5381 
                    5382 .LDW_6061950:
00001b81 25         5383 	.data.b	37
00001b82 61427854   5384 	.data.b	84,120,66,97,115,105,99,72,119,83,116,111,112,79,102,67,111,110,116,114,111,108,108,101,114,67,111,110,102,105,103,0
00001b86 48636973 
00001b8a 6f745377 
00001b8e 43664f70 
00001b92 72746e6f 
00001b96 656c6c6f 

                                                                      Page 109
                                                              C:\Users\Fengyuan\AppData\Local\Temp\gh_0000sro1.s
00001b9a 6e6f4372 
00001b9e 00676966 
00001ba2 0c88       5385 	.data.b	136,12
00001ba4 2b         5386 	.data.b	43
00001ba5 05         5387 	.data.b	5
00001ba6 00000000*  5388 	.data.w	.LDW_605f768
00001baa 2302       5389 	.data.b	2,35
00001bac 2c         5390 	.data.b	44
00001bad 01         5391 	.data.b	1
                    5392 
                    5393 .LDW_6061fc8:
00001bae 25         5394 	.data.b	37
00001baf 75467854   5395 	.data.b	84,120,70,117,108,108,72,119,83,116,97,114,116,79,102,67,111,110,116,114,111,108,108,101,114,67,111,110,102,105,103,0
00001bb3 77486c6c 
00001bb7 72617453 
00001bbb 43664f74 
00001bbf 72746e6f 
00001bc3 656c6c6f 
00001bc7 6e6f4372 
00001bcb 00676966 
00001bcf 0c89       5396 	.data.b	137,12
00001bd1 2b         5397 	.data.b	43
00001bd2 05         5398 	.data.b	5
00001bd3 00000000*  5399 	.data.w	.LDW_605f710
00001bd7 2302       5400 	.data.b	2,35
00001bd9 2d         5401 	.data.b	45
00001bda 01         5402 	.data.b	1
                    5403 
                    5404 .LDW_6062010:
00001bdb 25         5405 	.data.b	37
00001bdc 75467854   5406 	.data.b	84,120,70,117,108,108,72,119,83,116,111,112,79,102,67,111,110,116,114,111,108,108,101,114,67,111,110,102,105,103,0
00001be0 77486c6c 
00001be4 706f7453 
00001be8 6f43664f 
00001bec 6f72746e 
00001bf0 72656c6c 
00001bf4 666e6f43 
00001bf8 006769 
00001bfb 0c8a       5407 	.data.b	138,12
00001bfd 2a         5408 	.data.b	42
00001bfe 05         5409 	.data.b	5
00001bff 00000000*  5410 	.data.w	.LDW_605f608
00001c03 2302       5411 	.data.b	2,35
00001c05 2e         5412 	.data.b	46
00001c06 01         5413 	.data.b	1
                    5414 
                    5415 .LDW_6061b48:
00001c07 25         5416 	.data.b	37
00001c08 73756e55   5417 	.data.b	85,110,117,115,101,100,72,119,83,116,97,114,116,79,102,67,111,110,116,114,111,108,108,101,114,67,111,110,102,105,103,0
00001c0c 77486465 
00001c10 72617453 
00001c14 43664f74 
00001c18 72746e6f 
00001c1c 656c6c6f 
00001c20 6e6f4372 
00001c24 00676966 
00001c28 0c8b       5418 	.data.b	139,12
00001c2a 2b         5419 	.data.b	43
00001c2b 05         5420 	.data.b	5
00001c2c 00000000*  5421 	.data.w	.LDW_605f558
00001c30 2302       5422 	.data.b	2,35

                                                                      Page 110
                                                              C:\Users\Fengyuan\AppData\Local\Temp\gh_0000sro1.s
00001c32 2f         5423 	.data.b	47
00001c33 01         5424 	.data.b	1
                    5425 
                    5426 .LDW_6061d40:
00001c34 25         5427 	.data.b	37
00001c35 73756e55   5428 	.data.b	85,110,117,115,101,100,72,119,83,116,111,112,79,102,67,111,110,116,114,111,108,108,101,114,67,111,110,102,105,103,0
00001c39 77486465 
00001c3d 706f7453 
00001c41 6f43664f 
00001c45 6f72746e 
00001c49 72656c6c 
00001c4d 666e6f43 
00001c51 006769 
00001c54 0c8c       5429 	.data.b	140,12
00001c56 2a         5430 	.data.b	42
00001c57 05         5431 	.data.b	5
00001c58 00000000*  5432 	.data.w	.LDW_605f818
00001c5c 2302       5433 	.data.b	2,35
00001c5e 30         5434 	.data.b	48
00001c5f 01         5435 	.data.b	1
                    5436 
00001c60 00         5437 	.data.b	0
                    5438 
                    5439 .LDW_6025430:
00001c61 2a         5440 	.data.b	42
00001c62 5f6e6143   5441 	.data.b	67,97,110,95,67,111,110,116,114,111,108,108,101,114,67,111,110,102,105,103,84,121,112,101,0
00001c66 746e6f43 
00001c6a 6c6c6f72 
00001c6e 6f437265 
00001c72 6769666e 
00001c76 65707954 
00001c7a 00 
00001c7b 0c8d       5442 	.data.b	141,12
00001c7d 03         5443 	.data.b	3
00001c7e 05         5444 	.data.b	5
00001c7f 00000000*  5445 	.data.w	.LDW_60253d8
                    5446 
                    5447 .LDW_6060c40:
00001c83 42         5448 	.data.b	66
00001c84 6e614373   5449 	.data.b	115,67,97,110,95,67,111,110,116,114,111,108,108,101,114,68,97,116,97,84,121,112,101,0
00001c88 6e6f435f 
00001c8c 6c6f7274 
00001c90 4472656c 
00001c94 54617461 
00001c98 00657079 
00001c9c 0c90       5450 	.data.b	144,12
00001c9e 10         5451 	.data.b	16
00001c9f 05         5452 	.data.b	5
00001ca0 40         5453 	.data.b	64
00001ca1 01         5454 	.data.b	1
                    5455 
                    5456 .LDW_6061e60:
00001ca2 25         5457 	.data.b	37
00001ca3 4f737542   5458 	.data.b	66,117,115,79,102,102,67,111,117,110,116,101,114,79,102,67,111,110,116,114,111,108,108,101,114,68,97,116,97,0
00001ca7 6f436666 
00001cab 65746e75 
00001caf 43664f72 
00001cb3 72746e6f 
00001cb7 656c6c6f 
00001cbb 74614472 
00001cbf 0061 

                                                                      Page 111
                                                              C:\Users\Fengyuan\AppData\Local\Temp\gh_0000sro1.s
00001cc1 0c92       5459 	.data.b	146,12
00001cc3 29         5460 	.data.b	41
00001cc4 05         5461 	.data.b	5
00001cc5 00000000*  5462 	.data.w	.LDW_605f5b0
00001cc9 2302       5463 	.data.b	2,35
00001ccb 00         5464 	.data.b	0
00001ccc 01         5465 	.data.b	1
                    5466 
                    5467 .LDW_6062058:
00001ccd 25         5468 	.data.b	37
00001cce 496e6143   5469 	.data.b	67,97,110,73,110,116,101,114,114,117,112,116,67,111,117,110,116,101,114,79,102,67,111,110,116,114,111,108,108,101,114,68,97,116,97,0
00001cd2 7265746e 
00001cd6 74707572 
00001cda 6e756f43 
00001cde 4f726574 
00001ce2 6e6f4366 
00001ce6 6c6f7274 
00001cea 4472656c 
00001cee 00617461 
00001cf2 0c93       5470 	.data.b	147,12
00001cf4 2f         5471 	.data.b	47
00001cf5 05         5472 	.data.b	5
00001cf6 00000000*  5473 	.data.w	.LDW_605f3f8
00001cfa 2302       5474 	.data.b	2,35
00001cfc 01         5475 	.data.b	1
00001cfd 01         5476 	.data.b	1
                    5477 
                    5478 .LDW_6061dd0:
00001cfe 25         5479 	.data.b	37
00001cff 75427349   5480 	.data.b	73,115,66,117,115,79,102,102,79,102,67,111,110,116,114,111,108,108,101,114,68,97,116,97,0
00001d03 66664f73 
00001d07 6f43664f 
00001d0b 6f72746e 
00001d0f 72656c6c 
00001d13 61746144 
00001d17 00 
00001d18 0c94       5481 	.data.b	148,12
00001d1a 24         5482 	.data.b	36
00001d1b 05         5483 	.data.b	5
00001d1c 00000000*  5484 	.data.w	.LDW_605f660
00001d20 2302       5485 	.data.b	2,35
00001d22 02         5486 	.data.b	2
00001d23 01         5487 	.data.b	1
                    5488 
                    5489 .LDW_6061cb0:
00001d24 25         5490 	.data.b	37
00001d25 7473614c   5491 	.data.b	76,97,115,116,73,110,105,116,79,98,106,101,99,116,79,102,67,111,110,116,114,111,108,108,101,114,68,97,116,97,0
00001d29 74696e49 
00001d2d 656a624f 
00001d31 664f7463 
00001d35 746e6f43 
00001d39 6c6c6f72 
00001d3d 61447265 
00001d41 006174 
00001d44 0c95       5492 	.data.b	149,12
00001d46 2a         5493 	.data.b	42
00001d47 05         5494 	.data.b	5
00001d48 00000000*  5495 	.data.w	.LDW_605f958
00001d4c 2302       5496 	.data.b	2,35
00001d4e 03         5497 	.data.b	3
00001d4f 01         5498 	.data.b	1

                                                                      Page 112
                                                              C:\Users\Fengyuan\AppData\Local\Temp\gh_0000sro1.s
                    5499 
                    5500 .LDW_6061ea8:
00001d50 25         5501 	.data.b	37
00001d51 53676f4c   5502 	.data.b	76,111,103,83,116,97,116,117,115,79,102,67,111,110,116,114,111,108,108,101,114,68,97,116,97,0
00001d55 75746174 
00001d59 43664f73 
00001d5d 72746e6f 
00001d61 656c6c6f 
00001d65 74614472 
00001d69 0061 
00001d6b 0c96       5503 	.data.b	150,12
00001d6d 25         5504 	.data.b	37
00001d6e 05         5505 	.data.b	5
00001d6f 00000000*  5506 	.data.w	.LDW_605fa60
00001d73 2302       5507 	.data.b	2,35
00001d75 04         5508 	.data.b	4
00001d76 01         5509 	.data.b	1
                    5510 
                    5511 .LDW_6062178:
00001d77 25         5512 	.data.b	37
00001d78 72617453   5513 	.data.b	83,116,97,114,116,77,111,100,101,82,101,113,117,101,115,116,101,100,79,102,67,111,110,116,114,111,108,108,101,114,68,97,116,97,0
00001d7c 646f4d74 
00001d80 71655265 
00001d84 74736575 
00001d88 664f6465 
00001d8c 746e6f43 
00001d90 6c6c6f72 
00001d94 61447265 
00001d98 006174 
00001d9b 0c97       5514 	.data.b	151,12
00001d9d 2e         5515 	.data.b	46
00001d9e 05         5516 	.data.b	5
00001d9f 00000000*  5517 	.data.w	.LDW_605ff30
00001da3 2302       5518 	.data.b	2,35
00001da5 05         5519 	.data.b	5
00001da6 01         5520 	.data.b	1
                    5521 
                    5522 .LDW_6061c20:
00001da7 25         5523 	.data.b	37
00001da8 74617453   5524 	.data.b	83,116,97,116,117,115,82,101,113,79,102,67,111,110,116,114,111,108,108,101,114,68,97,116,97,0
00001dac 65527375 
00001db0 43664f71 
00001db4 72746e6f 
00001db8 656c6c6f 
00001dbc 74614472 
00001dc0 0061 
00001dc2 0c98       5525 	.data.b	152,12
00001dc4 25         5526 	.data.b	37
00001dc5 05         5527 	.data.b	5
00001dc6 00000000*  5528 	.data.w	.LDW_605fd78
00001dca 2302       5529 	.data.b	2,35
00001dcc 06         5530 	.data.b	6
00001dcd 01         5531 	.data.b	1
                    5532 
                    5533 .LDW_6061c68:
00001dce 25         5534 	.data.b	37
00001dcf 496e6143   5535 	.data.b	67,97,110,73,110,116,101,114,114,117,112,116,79,108,100,83,116,97,116,117,115,79,102,67,111,110,116,114,111,108,108,101,114,68,97,116,97,0
00001dd3 7265746e 
00001dd7 74707572 
00001ddb 53646c4f 
00001ddf 75746174 

                                                                      Page 113
                                                              C:\Users\Fengyuan\AppData\Local\Temp\gh_0000sro1.s
00001de3 43664f73 
00001de7 72746e6f 
00001deb 656c6c6f 
00001def 74614472 
00001df3 0061 
00001df5 0c99       5536 	.data.b	153,12
00001df7 13         5537 	.data.b	19
00001df8 05         5538 	.data.b	5
00001df9 00000000*  5539 	.data.w	.LDW_5ff0e20
00001dfd 2302       5540 	.data.b	2,35
00001dff 08         5541 	.data.b	8
00001e00 01         5542 	.data.b	1
                    5543 
                    5544 .LDW_6061a28:
00001e01 25         5545 	.data.b	37
00001e02 706f6f4c   5546 	.data.b	76,111,111,112,84,105,109,101,111,117,116,79,102,67,111,110,116,114,111,108,108,101,114,68,97,116,97,0
00001e06 656d6954 
00001e0a 4f74756f 
00001e0e 6e6f4366 
00001e12 6c6f7274 
00001e16 4472656c 
00001e1a 00617461 
00001e1e 0c9a       5547 	.data.b	154,12
00001e20 1c         5548 	.data.b	28
00001e21 05         5549 	.data.b	5
00001e22 00000000*  5550 	.data.w	.LDW_6059ab8
00001e26 2302       5551 	.data.b	2,35
00001e28 18         5552 	.data.b	24
00001e29 01         5553 	.data.b	1
                    5554 
                    5555 .LDW_6061e18:
00001e2a 25         5556 	.data.b	37
00001e2b 734d7852   5557 	.data.b	82,120,77,115,103,66,117,102,102,101,114,79,102,67,111,110,116,114,111,108,108,101,114,68,97,116,97,0
00001e2f 66754267 
00001e33 4f726566 
00001e37 6e6f4366 
00001e3b 6c6f7274 
00001e3f 4472656c 
00001e43 00617461 
00001e47 0c9b       5558 	.data.b	155,12
00001e49 13         5559 	.data.b	19
00001e4a 05         5560 	.data.b	5
00001e4b 00000000*  5561 	.data.w	.LDW_6059f30
00001e4f 2302       5562 	.data.b	2,35
00001e51 30         5563 	.data.b	48
00001e52 01         5564 	.data.b	1
                    5565 
00001e53 00         5566 	.data.b	0
                    5567 
                    5568 .LDW_6060ae0:
00001e54 2a         5569 	.data.b	42
00001e55 5f6e6143   5570 	.data.b	67,97,110,95,67,111,110,116,114,111,108,108,101,114,68,97,116,97,84,121,112,101,0
00001e59 746e6f43 
00001e5d 6c6c6f72 
00001e61 61447265 
00001e65 79546174 
00001e69 006570 
00001e6c 0c9c       5571 	.data.b	156,12
00001e6e 03         5572 	.data.b	3
00001e6f 05         5573 	.data.b	5
00001e70 00000000*  5574 	.data.w	.LDW_6060c40

                                                                      Page 114
                                                              C:\Users\Fengyuan\AppData\Local\Temp\gh_0000sro1.s
                    5575 
                    5576 .LDW_6060a88:
00001e74 42         5577 	.data.b	66
00001e75 6e614373   5578 	.data.b	115,67,97,110,95,73,110,105,116,66,97,115,105,99,67,97,110,84,121,112,101,0
00001e79 696e495f 
00001e7d 73614274 
00001e81 61436369 
00001e85 7079546e 
00001e89 0065 
00001e8b 0c9f       5579 	.data.b	159,12
00001e8d 10         5580 	.data.b	16
00001e8e 05         5581 	.data.b	5
00001e8f 08         5582 	.data.b	8
00001e90 01         5583 	.data.b	1
                    5584 
                    5585 .LDW_6061ef0:
00001e91 25         5586 	.data.b	37
00001e92 74696e49   5587 	.data.b	73,110,105,116,67,111,100,101,79,102,73,110,105,116,66,97,115,105,99,67,97,110,0
00001e96 65646f43 
00001e9a 6e49664f 
00001e9e 61427469 
00001ea2 43636973 
00001ea6 006e61 
00001ea9 0ca1       5588 	.data.b	161,12
00001eab 22         5589 	.data.b	34
00001eac 05         5590 	.data.b	5
00001ead 00000000*  5591 	.data.w	.LDW_605fc18
00001eb1 2302       5592 	.data.b	2,35
00001eb3 00         5593 	.data.b	0
00001eb4 01         5594 	.data.b	1
                    5595 
                    5596 .LDW_6061ab8:
00001eb5 25         5597 	.data.b	37
00001eb6 74696e49   5598 	.data.b	73,110,105,116,77,97,115,107,79,102,73,110,105,116,66,97,115,105,99,67,97,110,0
00001eba 6b73614d 
00001ebe 6e49664f 
00001ec2 61427469 
00001ec6 43636973 
00001eca 006e61 
00001ecd 0ca2       5599 	.data.b	162,12
00001ecf 22         5600 	.data.b	34
00001ed0 05         5601 	.data.b	5
00001ed1 00000000*  5602 	.data.w	.LDW_6060248
00001ed5 2302       5603 	.data.b	2,35
00001ed7 04         5604 	.data.b	4
00001ed8 01         5605 	.data.b	1
                    5606 
00001ed9 00         5607 	.data.b	0
                    5608 
                    5609 .LDW_6060878:
00001eda 2a         5610 	.data.b	42
00001edb 5f6e6143   5611 	.data.b	67,97,110,95,73,110,105,116,66,97,115,105,99,67,97,110,84,121,112,101,0
00001edf 74696e49 
00001ee3 69736142 
00001ee7 6e614363 
00001eeb 65707954 
00001eef 00 
00001ef0 0ca3       5612 	.data.b	163,12
00001ef2 03         5613 	.data.b	3
00001ef3 05         5614 	.data.b	5
00001ef4 00000000*  5615 	.data.w	.LDW_6060a88

                                                                      Page 115
                                                              C:\Users\Fengyuan\AppData\Local\Temp\gh_0000sro1.s
                    5616 
                    5617 .LDW_6060cf0:
00001ef8 42         5618 	.data.b	66
00001ef9 6e614373   5619 	.data.b	115,67,97,110,95,73,110,105,116,79,98,106,101,99,116,84,121,112,101,0
00001efd 696e495f 
00001f01 6a624f74 
00001f05 54746365 
00001f09 00657079 
00001f0d 0ca6       5620 	.data.b	166,12
00001f0f 10         5621 	.data.b	16
00001f10 05         5622 	.data.b	5
00001f11 08         5623 	.data.b	8
00001f12 01         5624 	.data.b	1
                    5625 
                    5626 .LDW_60624d8:
00001f13 25         5627 	.data.b	37
00001f14 4f544243   5628 	.data.b	67,66,84,79,102,73,110,105,116,79,98,106,101,99,116,0
00001f18 696e4966 
00001f1c 6a624f74 
00001f20 00746365 
00001f24 0ca8       5629 	.data.b	168,12
00001f26 1b         5630 	.data.b	27
00001f27 05         5631 	.data.b	5
00001f28 00000000*  5632 	.data.w	.LDW_605ff88
00001f2c 2302       5633 	.data.b	2,35
00001f2e 00         5634 	.data.b	0
00001f2f 01         5635 	.data.b	1
                    5636 
                    5637 .LDW_60627a8:
00001f30 25         5638 	.data.b	37
00001f31 746e6f43   5639 	.data.b	67,111,110,116,114,111,108,49,79,102,73,110,105,116,79,98,106,101,99,116,0
00001f35 316c6f72 
00001f39 6e49664f 
00001f3d 624f7469 
00001f41 7463656a 
00001f45 00 
00001f46 0ca9       5640 	.data.b	169,12
00001f48 20         5641 	.data.b	32
00001f49 05         5642 	.data.b	5
00001f4a 00000000*  5643 	.data.w	.LDW_605fd20
00001f4e 2302       5644 	.data.b	2,35
00001f50 04         5645 	.data.b	4
00001f51 01         5646 	.data.b	1
                    5647 
00001f52 00         5648 	.data.b	0
                    5649 
                    5650 .LDW_6060da0:
00001f53 2a         5651 	.data.b	42
00001f54 5f6e6143   5652 	.data.b	67,97,110,95,73,110,105,116,79,98,106,101,99,116,84,121,112,101,0
00001f58 74696e49 
00001f5c 656a624f 
00001f60 79547463 
00001f64 006570 
00001f67 0caa       5653 	.data.b	170,12
00001f69 03         5654 	.data.b	3
00001f6a 05         5655 	.data.b	5
00001f6b 00000000*  5656 	.data.w	.LDW_6060cf0
                    5657 
                    5658 .LDW_6060df8:
00001f6f 42         5659 	.data.b	66
00001f70 6e614373   5660 	.data.b	115,67,97,110,95,77,97,105,108,98,111,120,84,121,112,101,0

                                                                      Page 116
                                                              C:\Users\Fengyuan\AppData\Local\Temp\gh_0000sro1.s
00001f74 69614d5f 
00001f78 786f626c 
00001f7c 65707954 
00001f80 00 
00001f81 0cad       5661 	.data.b	173,12
00001f83 10         5662 	.data.b	16
00001f84 05         5663 	.data.b	5
00001f85 08         5664 	.data.b	8
00001f86 01         5665 	.data.b	1
                    5666 
                    5667 .LDW_60625b0:
00001f87 25         5668 	.data.b	37
00001f88 746e6f43   5669 	.data.b	67,111,110,116,114,111,108,108,101,114,67,111,110,102,105,103,73,100,120,79,102,77,97,105,108,98,111,120,0
00001f8c 6c6c6f72 
00001f90 6f437265 
00001f94 6769666e 
00001f98 4f786449 
00001f9c 69614d66 
00001fa0 786f626c 
00001fa4 00 
00001fa5 0caf       5670 	.data.b	175,12
00001fa7 28         5671 	.data.b	40
00001fa8 05         5672 	.data.b	5
00001fa9 00000000*  5673 	.data.w	.LDW_6060350
00001fad 2302       5674 	.data.b	2,35
00001faf 00         5675 	.data.b	0
00001fb0 01         5676 	.data.b	1
                    5677 
                    5678 .LDW_6062520:
00001fb1 25         5679 	.data.b	37
00001fb2 61564449   5680 	.data.b	73,68,86,97,108,117,101,79,102,77,97,105,108,98,111,120,0
00001fb6 4f65756c 
00001fba 69614d66 
00001fbe 786f626c 
00001fc2 00 
00001fc3 0cb0       5681 	.data.b	176,12
00001fc5 1c         5682 	.data.b	28
00001fc6 05         5683 	.data.b	5
00001fc7 00000000*  5684 	.data.w	.LDW_60602a0
00001fcb 2302       5685 	.data.b	2,35
00001fcd 02         5686 	.data.b	2
00001fce 01         5687 	.data.b	1
                    5688 
                    5689 .LDW_6062568:
00001fcf 25         5690 	.data.b	37
00001fd0 5f434c44   5691 	.data.b	68,76,67,95,70,73,70,79,79,102,77,97,105,108,98,111,120,0
00001fd4 4f464946 
00001fd8 614d664f 
00001fdc 6f626c69 
00001fe0 0078 
00001fe2 0cb1       5692 	.data.b	177,12
00001fe4 1d         5693 	.data.b	29
00001fe5 05         5694 	.data.b	5
00001fe6 00000000*  5695 	.data.w	.LDW_605fa08
00001fea 2302       5696 	.data.b	2,35
00001fec 04         5697 	.data.b	4
00001fed 01         5698 	.data.b	1
                    5699 
                    5700 .LDW_6062298:
00001fee 25         5701 	.data.b	37
00001fef 61487748   5702 	.data.b	72,119,72,97,110,100,108,101,79,102,77,97,105,108,98,111,120,0

                                                                      Page 117
                                                              C:\Users\Fengyuan\AppData\Local\Temp\gh_0000sro1.s
00001ff3 656c646e 
00001ff7 614d664f 
00001ffb 6f626c69 
00001fff 0078 
00002001 0cb2       5703 	.data.b	178,12
00002003 1d         5704 	.data.b	29
00002004 05         5705 	.data.b	5
00002005 00000000*  5706 	.data.w	.LDW_605fc70
00002009 2302       5707 	.data.b	2,35
0000200b 05         5708 	.data.b	5
0000200c 01         5709 	.data.b	1
                    5710 
                    5711 .LDW_6062640:
0000200d 25         5712 	.data.b	37
0000200e 6c69614d   5713 	.data.b	77,97,105,108,98,111,120,84,121,112,101,79,102,77,97,105,108,98,111,120,0
00002012 54786f62 
00002016 4f657079 
0000201a 69614d66 
0000201e 786f626c 
00002022 00 
00002023 0cb3       5714 	.data.b	179,12
00002025 20         5715 	.data.b	32
00002026 05         5716 	.data.b	5
00002027 00000000*  5717 	.data.w	.LDW_605fb68
0000202b 2302       5718 	.data.b	2,35
0000202d 06         5719 	.data.b	6
0000202e 01         5720 	.data.b	1
                    5721 
                    5722 .LDW_60625f8:
0000202f 25         5723 	.data.b	37
00002030 4478614d   5724 	.data.b	77,97,120,68,97,116,97,76,101,110,79,102,77,97,105,108,98,111,120,0
00002034 4c617461 
00002038 664f6e65 
0000203c 6c69614d 
00002040 00786f62 
00002044 0cb4       5725 	.data.b	180,12
00002046 1f         5726 	.data.b	31
00002047 05         5727 	.data.b	5
00002048 00000000*  5728 	.data.w	.LDW_605fab8
0000204c 2302       5729 	.data.b	2,35
0000204e 07         5730 	.data.b	7
0000204f 01         5731 	.data.b	1
                    5732 
00002050 00         5733 	.data.b	0
                    5734 
                    5735 .LDW_60604b0:
00002051 2a         5736 	.data.b	42
00002052 5f6e6143   5737 	.data.b	67,97,110,95,77,97,105,108,98,111,120,84,121,112,101,0
00002056 6c69614d 
0000205a 54786f62 
0000205e 00657079 
00002062 0cb5       5738 	.data.b	181,12
00002064 03         5739 	.data.b	3
00002065 05         5740 	.data.b	5
00002066 00000000*  5741 	.data.w	.LDW_6060df8
                    5742 
                    5743 .LDW_6025488:
0000206a 42         5744 	.data.b	66
0000206b 6e614373   5745 	.data.b	115,67,97,110,95,80,67,67,111,110,102,105,103,84,121,112,101,0
0000206f 4343505f 
00002073 69666e6f 

                                                                      Page 118
                                                              C:\Users\Fengyuan\AppData\Local\Temp\gh_0000sro1.s
00002077 70795467 
0000207b 0065 
0000207d 0cc1       5746 	.data.b	193,12
0000207f 10         5747 	.data.b	16
00002080 05         5748 	.data.b	5
00002081 01         5749 	.data.b	1
00002082 01         5750 	.data.b	1
                    5751 
                    5752 .LDW_6062688:
00002083 25         5753 	.data.b	37
00002084 5f6e6143   5754 	.data.b	67,97,110,95,80,67,67,111,110,102,105,103,78,101,118,101,114,85,115,101,100,0
00002088 6f434350 
0000208c 6769666e 
00002090 6576654e 
00002094 65735572 
00002098 0064 
0000209a 0cc3       5755 	.data.b	195,12
0000209c 09         5756 	.data.b	9
0000209d 05         5757 	.data.b	5
0000209e 00000000*  5758 	.data.w	.LDW_5e0df08
000020a2 2302       5759 	.data.b	2,35
000020a4 00         5760 	.data.b	0
000020a5 01         5761 	.data.b	1
                    5762 
000020a6 00         5763 	.data.b	0
                    5764 
                    5765 .LDW_60252d0:
000020a7 2a         5766 	.data.b	42
000020a8 5f6e6143   5767 	.data.b	67,97,110,95,80,67,67,111,110,102,105,103,84,121,112,101,0
000020ac 6f434350 
000020b0 6769666e 
000020b4 65707954 
000020b8 00 
000020b9 0cc4       5768 	.data.b	196,12
000020bb 03         5769 	.data.b	3
000020bc 05         5770 	.data.b	5
000020bd 00000000*  5771 	.data.w	.LDW_6025488
                    5772 
                    5773 .LDW_6025640:
000020c1 2a         5774 	.data.b	42
000020c2 5f6e6143   5775 	.data.b	67,97,110,95,67,111,110,102,105,103,84,121,112,101,0
000020c6 666e6f43 
000020ca 79546769 
000020ce 006570 
000020d1 0cc6       5776 	.data.b	198,12
000020d3 1a         5777 	.data.b	26
000020d4 05         5778 	.data.b	5
000020d5 00000000*  5779 	.data.w	.LDW_60252d0
                    5780 
                    5781 .LDW_6025328:
000020d9 2a         5782 	.data.b	42
000020da 5f6e6143   5783 	.data.b	67,97,110,95,67,111,110,102,105,103,80,116,114,84,121,112,101,0
000020de 666e6f43 
000020e2 74506769 
000020e6 70795472 
000020ea 0065 
000020ec 08a0       5784 	.data.b	160,8
000020ee 39         5785 	.data.b	57
000020ef 04         5786 	.data.b	4
000020f0 00000000*  5787 	.data.w	.LDW_60222e8
                    5788 

                                                                      Page 119
                                                              C:\Users\Fengyuan\AppData\Local\Temp\gh_0000sro1.s
                    5789 .LDW_6024bf0:
000020f4 2a         5790 	.data.b	42
000020f5 5f6e6143   5791 	.data.b	67,97,110,95,67,111,110,116,114,111,108,108,101,114,67,111,110,102,105,103,80,116,114,84,121,112,101,0
000020f9 746e6f43 
000020fd 6c6c6f72 
00002101 6f437265 
00002105 6769666e 
00002109 54727450 
0000210d 00657079 
00002111 08a2       5792 	.data.b	162,8
00002113 43         5793 	.data.b	67
00002114 04         5794 	.data.b	4
00002115 00000000*  5795 	.data.w	.LDW_6022320
                    5796 
                    5797 .LDW_5e0e7f0:
00002119 2a         5798 	.data.b	42
0000211a 5f6e6143   5799 	.data.b	67,97,110,95,80,100,117,73,110,102,111,80,116,114,84,121,112,101,0
0000211e 49756450 
00002122 506f666e 
00002126 79547274 
0000212a 006570 
0000212d 08a7       5800 	.data.b	167,8
0000212f 33         5801 	.data.b	51
00002130 04         5802 	.data.b	4
00002131 00000000*  5803 	.data.w	.LDW_333d370
                    5804 
                    5805 .LDW_6060e50:
00002135 2a         5806 	.data.b	42
00002136 5f6e6143   5807 	.data.b	67,97,110,95,68,97,116,97,80,116,114,84,121,112,101,0
0000213a 61746144 
0000213e 54727450 
00002142 00657079 
00002146 08a9       5808 	.data.b	169,8
00002148 33         5809 	.data.b	51
00002149 04         5810 	.data.b	4
0000214a 00000000*  5811 	.data.w	.LDW_605d5c0
                    5812 
                    5813 .LDW_5ee2b88:
0000214e 2a         5814 	.data.b	42
0000214f 496e6143   5815 	.data.b	67,97,110,73,110,105,116,72,97,110,100,108,101,0
00002153 4874696e 
00002157 6c646e61 
0000215b 0065 
0000215d 08bf       5816 	.data.b	191,8
0000215f 21         5817 	.data.b	33
00002160 04         5818 	.data.b	4
00002161 00000000*  5819 	.data.w	.LDW_5ee2818
                    5820 
                    5821 .LDW_6060668:
00002165 2a         5822 	.data.b	42
00002166 6e614374   5823 	.data.b	116,67,97,110,82,120,77,115,103,66,117,102,102,101,114,80,116,114,0
0000216a 734d7852 
0000216e 66754267 
00002172 50726566 
00002176 007274 
00002179 08d0       5824 	.data.b	208,8
0000217b 32         5825 	.data.b	50
0000217c 04         5826 	.data.b	4
0000217d 00000000*  5827 	.data.w	.LDW_605d3c8
                    5828 
                    5829 .LDW_6060610:

                                                                      Page 120
                                                              C:\Users\Fengyuan\AppData\Local\Temp\gh_0000sro1.s
00002181 2a         5830 	.data.b	42
00002182 436e6143   5831 	.data.b	67,97,110,67,104,105,112,68,97,116,97,80,116,114,0
00002186 44706968 
0000218a 50617461 
0000218e 007274 
00002191 08d1       5832 	.data.b	209,8
00002193 29         5833 	.data.b	41
00002194 04         5834 	.data.b	4
00002195 00000000*  5835 	.data.w	.LDW_605d4e0
                    5836 
                    5837 .LDW_6060718:
00002199 2a         5838 	.data.b	42
0000219a 436e6143   5839 	.data.b	67,97,110,67,104,105,112,77,115,103,80,116,114,0
0000219e 4d706968 
000021a2 74506773 
000021a6 0072 
000021a8 08d2       5840 	.data.b	210,8
000021aa 29         5841 	.data.b	41
000021ab 04         5842 	.data.b	4
000021ac 00000000*  5843 	.data.w	.LDW_605d4e0
                    5844 
                    5845 .LDW_5ee2978:
000021b0 2a         5846 	.data.b	42
000021b1 436e6143   5847 	.data.b	67,97,110,67,104,105,112,77,115,103,80,116,114,49,54,0
000021b5 4d706968 
000021b9 74506773 
000021bd 00363172 
000021c1 08d6       5848 	.data.b	214,8
000021c3 29         5849 	.data.b	41
000021c4 04         5850 	.data.b	4
000021c5 00000000*  5851 	.data.w	.LDW_333d808
                    5852 
                    5853 .LDW_5ee29d0:
000021c9 2a         5854 	.data.b	42
000021ca 436e6143   5855 	.data.b	67,97,110,67,104,105,112,77,115,103,80,116,114,51,50,0
000021ce 4d706968 
000021d2 74506773 
000021d6 00323372 
000021da 08d8       5856 	.data.b	216,8
000021dc 29         5857 	.data.b	41
000021dd 04         5858 	.data.b	4
000021de 00000000*  5859 	.data.w	.LDW_5ee3678
                    5860 
                    5861 .LDW_5ff0f28:
000021e2 2a         5862 	.data.b	42
000021e3 6e614374   5863 	.data.b	116,67,97,110,73,110,116,79,108,100,80,116,114,0
000021e7 4f746e49 
000021eb 7450646c 
000021ef 0072 
000021f1 098c       5864 	.data.b	140,9
000021f3 34         5865 	.data.b	52
000021f4 04         5866 	.data.b	4
000021f5 00000000*  5867 	.data.w	.LDW_5ee3640
                    5868 
                    5869 .LDW_6060be8:
000021f9 43         5870 	.data.b	67
000021fa 0990       5871 	.data.b	144,9
000021fc 01         5872 	.data.b	1
000021fd 04         5873 	.data.b	4
000021fe 10         5874 	.data.b	16
000021ff 01         5875 	.data.b	1

                                                                      Page 121
                                                              C:\Users\Fengyuan\AppData\Local\Temp\gh_0000sro1.s
                    5876 
                    5877 	.section	.debug_abbrev
000000bb 43         5878 	.data.b	67
000000bc 13         5879 	.data.b	19
000000bd 01         5880 	.data.b	1
000000be 0f3b       5881 	.data.b	59,15
000000c0 0f39       5882 	.data.b	57,15
000000c2 0f3a       5883 	.data.b	58,15
000000c4 0f0b       5884 	.data.b	11,15
000000c6 0b32       5885 	.data.b	50,11
000000c8 0000       5886 	.data.b	0,0
                    5887 
                    5888 	.section	.debug_info
                    5889 .LDW_6062370:
00002200 25         5890 	.data.b	37
00002201 656d6974   5891 	.data.b	116,105,109,101,115,116,97,109,112,0
00002205 6d617473 
00002209 0070 
0000220b 0992       5892 	.data.b	146,9
0000220d 0c         5893 	.data.b	12
0000220e 04         5894 	.data.b	4
0000220f 00000000*  5895 	.data.w	.LDW_5ee2818
00002213 2302       5896 	.data.b	2,35
00002215 00         5897 	.data.b	0
00002216 01         5898 	.data.b	1
                    5899 
                    5900 .LDW_60626d0:
00002217 25         5901 	.data.b	37
00002218 746e6f63   5902 	.data.b	99,111,110,116,114,111,108,0
0000221c 006c6f72 
00002220 0993       5903 	.data.b	147,9
00002222 0c         5904 	.data.b	12
00002223 04         5905 	.data.b	4
00002224 00000000*  5906 	.data.w	.LDW_5ee2818
00002228 2302       5907 	.data.b	2,35
0000222a 02         5908 	.data.b	2
0000222b 01         5909 	.data.b	1
                    5910 
                    5911 .LDW_6062448:
0000222c 25         5912 	.data.b	37
0000222d 4967736d   5913 	.data.b	109,115,103,73,68,0
00002231 0044 
00002233 0995       5914 	.data.b	149,9
00002235 0c         5915 	.data.b	12
00002236 04         5916 	.data.b	4
00002237 00000000*  5917 	.data.w	.LDW_5e0e158
0000223b 2302       5918 	.data.b	2,35
0000223d 04         5919 	.data.b	4
0000223e 01         5920 	.data.b	1
                    5921 
                    5922 .LDW_60623b8:
0000223f 25         5923 	.data.b	37
00002240 61746164   5924 	.data.b	100,97,116,97,0
00002244 00 
00002245 0999       5925 	.data.b	153,9
00002247 0c         5926 	.data.b	12
00002248 04         5927 	.data.b	4
00002249 00000000*  5928 	.data.w	.LDW_60628e0
0000224d 2302       5929 	.data.b	2,35
0000224f 08         5930 	.data.b	8
00002250 01         5931 	.data.b	1

                                                                      Page 122
                                                              C:\Users\Fengyuan\AppData\Local\Temp\gh_0000sro1.s
                    5932 
00002251 00         5933 	.data.b	0
                    5934 
                    5935 .LDW_6060560:
00002252 2a         5936 	.data.b	42
00002253 6e614374   5937 	.data.b	116,67,97,110,77,115,103,79,98,106,0
00002257 4f67734d 
0000225b 006a62 
0000225e 099b       5938 	.data.b	155,9
00002260 02         5939 	.data.b	2
00002261 04         5940 	.data.b	4
00002262 00000000*  5941 	.data.w	.LDW_6060508
                    5942 
                    5943 .LDW_5e0ea00:
00002266 43         5944 	.data.b	67
00002267 099d       5945 	.data.b	157,9
00002269 01         5946 	.data.b	1
0000226a 04         5947 	.data.b	4
0000226b 0580       5948 	.data.b	128,5
0000226d 01         5949 	.data.b	1
                    5950 
                    5951 .LDW_6062208:
0000226e 25         5952 	.data.b	37
0000226f 6d6e6163   5953 	.data.b	99,97,110,109,97,120,109,98,0
00002273 626d7861 
00002277 00 
00002278 099f       5954 	.data.b	159,9
0000227a 0c         5955 	.data.b	12
0000227b 04         5956 	.data.b	4
0000227c 00000000*  5957 	.data.w	.LDW_5ee2818
00002280 2302       5958 	.data.b	2,35
00002282 00         5959 	.data.b	0
00002283 01         5960 	.data.b	1
                    5961 
                    5962 .LDW_6062718:
00002284 25         5963 	.data.b	37
00002285 6d6e6163   5964 	.data.b	99,97,110,109,99,114,0
00002289 007263 
0000228c 09a0       5965 	.data.b	160,9
0000228e 0c         5966 	.data.b	12
0000228f 04         5967 	.data.b	4
00002290 00000000*  5968 	.data.w	.LDW_5ee2818
00002294 2302       5969 	.data.b	2,35
00002296 02         5970 	.data.b	2
00002297 01         5971 	.data.b	1
                    5972 
                    5973 .LDW_60622e0:
00002298 25         5974 	.data.b	37
00002299 746e6f63   5975 	.data.b	99,111,110,116,114,111,108,49,0
0000229d 316c6f72 
000022a1 00 
000022a2 09a2       5976 	.data.b	162,9
000022a4 0c         5977 	.data.b	12
000022a5 04         5978 	.data.b	4
000022a6 00000000*  5979 	.data.w	.LDW_5e0e158
000022aa 2302       5980 	.data.b	2,35
000022ac 04         5981 	.data.b	4
000022ad 01         5982 	.data.b	1
                    5983 
                    5984 .LDW_6062490:
000022ae 25         5985 	.data.b	37

                                                                      Page 123
                                                              C:\Users\Fengyuan\AppData\Local\Temp\gh_0000sro1.s
000022af 656d6974   5986 	.data.b	116,105,109,101,114,0
000022b3 0072 
000022b5 09a3       5987 	.data.b	163,9
000022b7 0c         5988 	.data.b	12
000022b8 04         5989 	.data.b	4
000022b9 00000000*  5990 	.data.w	.LDW_5e0e158
000022bd 2302       5991 	.data.b	2,35
000022bf 08         5992 	.data.b	8
000022c0 01         5993 	.data.b	1
                    5994 
                    5995 .LDW_6062760:
000022c1 25         5996 	.data.b	37
000022c2 31767372   5997 	.data.b	114,115,118,49,0
000022c6 00 
000022c7 09a4       5998 	.data.b	164,9
000022c9 0c         5999 	.data.b	12
000022ca 04         6000 	.data.b	4
000022cb 00000000*  6001 	.data.w	.LDW_5e0e158
000022cf 2302       6002 	.data.b	2,35
000022d1 0c         6003 	.data.b	12
000022d2 01         6004 	.data.b	1
                    6005 
                    6006 .LDW_60627f0:
000022d3 25         6007 	.data.b	37
000022d4 676d7872   6008 	.data.b	114,120,109,103,109,97,115,107,0
000022d8 6b73616d 
000022dc 00 
000022dd 09a5       6009 	.data.b	165,9
000022df 0c         6010 	.data.b	12
000022e0 04         6011 	.data.b	4
000022e1 00000000*  6012 	.data.w	.LDW_5e0e158
000022e5 2302       6013 	.data.b	2,35
000022e7 10         6014 	.data.b	16
000022e8 01         6015 	.data.b	1
                    6016 
                    6017 .LDW_6062838:
000022e9 25         6018 	.data.b	37
000022ea 34317872   6019 	.data.b	114,120,49,52,109,97,115,107,0
000022ee 6b73616d 
000022f2 00 
000022f3 09a6       6020 	.data.b	166,9
000022f5 0c         6021 	.data.b	12
000022f6 04         6022 	.data.b	4
000022f7 00000000*  6023 	.data.w	.LDW_5e0e158
000022fb 2302       6024 	.data.b	2,35
000022fd 14         6025 	.data.b	20
000022fe 01         6026 	.data.b	1
                    6027 
                    6028 .LDW_6062880:
000022ff 25         6029 	.data.b	37
00002300 35317872   6030 	.data.b	114,120,49,53,109,97,115,107,0
00002304 6b73616d 
00002308 00 
00002309 09a7       6031 	.data.b	167,9
0000230b 0c         6032 	.data.b	12
0000230c 04         6033 	.data.b	4
0000230d 00000000*  6034 	.data.w	.LDW_5e0e158
00002311 2302       6035 	.data.b	2,35
00002313 18         6036 	.data.b	24
00002314 01         6037 	.data.b	1
                    6038 

                                                                      Page 124
                                                              C:\Users\Fengyuan\AppData\Local\Temp\gh_0000sro1.s
                    6039 .LDW_6062250:
00002315 25         6040 	.data.b	37
00002316 00726365   6041 	.data.b	101,99,114,0
0000231a 09a8       6042 	.data.b	168,9
0000231c 0c         6043 	.data.b	12
0000231d 04         6044 	.data.b	4
0000231e 00000000*  6045 	.data.w	.LDW_5e0e158
00002322 2302       6046 	.data.b	2,35
00002324 1c         6047 	.data.b	28
00002325 01         6048 	.data.b	1
                    6049 
                    6050 .LDW_6062400:
00002326 25         6051 	.data.b	37
00002327 61747365   6052 	.data.b	101,115,116,97,116,0
0000232b 0074 
0000232d 09a9       6053 	.data.b	169,9
0000232f 0c         6054 	.data.b	12
00002330 04         6055 	.data.b	4
00002331 00000000*  6056 	.data.w	.LDW_5e0e158
00002335 2302       6057 	.data.b	2,35
00002337 20         6058 	.data.b	32
00002338 01         6059 	.data.b	1
                    6060 
                    6061 .LDW_6062328:
00002339 25         6062 	.data.b	37
0000233a 73616d69   6063 	.data.b	105,109,97,115,107,50,0
0000233e 00326b 
00002341 09aa       6064 	.data.b	170,9
00002343 0c         6065 	.data.b	12
00002344 04         6066 	.data.b	4
00002345 00000000*  6067 	.data.w	.LDW_5e0e158
00002349 2302       6068 	.data.b	2,35
0000234b 24         6069 	.data.b	36
0000234c 01         6070 	.data.b	1
                    6071 
                    6072 .LDW_6063298:
0000234d 25         6073 	.data.b	37
0000234e 73616d69   6074 	.data.b	105,109,97,115,107,49,0
00002352 00316b 
00002355 09ab       6075 	.data.b	171,9
00002357 0c         6076 	.data.b	12
00002358 04         6077 	.data.b	4
00002359 00000000*  6078 	.data.w	.LDW_5e0e158
0000235d 2302       6079 	.data.b	2,35
0000235f 28         6080 	.data.b	40
00002360 01         6081 	.data.b	1
                    6082 
                    6083 .LDW_6063910:
00002361 25         6084 	.data.b	37
00002362 616c6669   6085 	.data.b	105,102,108,97,103,50,0
00002366 003267 
00002369 09ac       6086 	.data.b	172,9
0000236b 0c         6087 	.data.b	12
0000236c 04         6088 	.data.b	4
0000236d 00000000*  6089 	.data.w	.LDW_5e0e158
00002371 2302       6090 	.data.b	2,35
00002373 2c         6091 	.data.b	44
00002374 01         6092 	.data.b	1
                    6093 
                    6094 .LDW_6063328:
00002375 25         6095 	.data.b	37

                                                                      Page 125
                                                              C:\Users\Fengyuan\AppData\Local\Temp\gh_0000sro1.s
00002376 616c6669   6096 	.data.b	105,102,108,97,103,49,0
0000237a 003167 
0000237d 09ad       6097 	.data.b	173,9
0000237f 0c         6098 	.data.b	12
00002380 04         6099 	.data.b	4
00002381 00000000*  6100 	.data.w	.LDW_5e0e158
00002385 2302       6101 	.data.b	2,35
00002387 30         6102 	.data.b	48
00002388 01         6103 	.data.b	1
                    6104 
                    6105 .LDW_60636d0:
00002389 25         6106 	.data.b	37
0000238a 6c727463   6107 	.data.b	99,116,114,108,50,0
0000238e 0032 
00002390 09ae       6108 	.data.b	174,9
00002392 0c         6109 	.data.b	12
00002393 04         6110 	.data.b	4
00002394 00000000*  6111 	.data.w	.LDW_5e0e158
00002398 2302       6112 	.data.b	2,35
0000239a 34         6113 	.data.b	52
0000239b 01         6114 	.data.b	1
                    6115 
                    6116 .LDW_6063400:
0000239c 25         6117 	.data.b	37
0000239d 32727365   6118 	.data.b	101,115,114,50,0
000023a1 00 
000023a2 09af       6119 	.data.b	175,9
000023a4 0c         6120 	.data.b	12
000023a5 04         6121 	.data.b	4
000023a6 00000000*  6122 	.data.w	.LDW_5e0e158
000023aa 2302       6123 	.data.b	2,35
000023ac 38         6124 	.data.b	56
000023ad 01         6125 	.data.b	1
                    6126 
                    6127 .LDW_60635f8:
000023ae 25         6128 	.data.b	37
000023af 34767372   6129 	.data.b	114,115,118,52,0
000023b3 00 
000023b4 09b0       6130 	.data.b	176,9
000023b6 0c         6131 	.data.b	12
000023b7 04         6132 	.data.b	4
000023b8 00000000*  6133 	.data.w	.LDW_6063970
000023bc 2302       6134 	.data.b	2,35
000023be 3c         6135 	.data.b	60
000023bf 01         6136 	.data.b	1
                    6137 
                    6138 .LDW_6063718:
000023c0 25         6139 	.data.b	37
000023c1 72637263   6140 	.data.b	99,114,99,114,0
000023c5 00 
000023c6 09b1       6141 	.data.b	177,9
000023c8 0c         6142 	.data.b	12
000023c9 04         6143 	.data.b	4
000023ca 00000000*  6144 	.data.w	.LDW_5e0e158
000023ce 2302       6145 	.data.b	2,35
000023d0 44         6146 	.data.b	68
000023d1 01         6147 	.data.b	1
                    6148 
                    6149 .LDW_60638c8:
000023d2 25         6150 	.data.b	37
000023d3 67667872   6151 	.data.b	114,120,102,103,109,97,115,107,0

                                                                      Page 126
                                                              C:\Users\Fengyuan\AppData\Local\Temp\gh_0000sro1.s
000023d7 6b73616d 
000023db 00 
000023dc 09b2       6152 	.data.b	178,9
000023de 0c         6153 	.data.b	12
000023df 04         6154 	.data.b	4
000023e0 00000000*  6155 	.data.w	.LDW_5e0e158
000023e4 2302       6156 	.data.b	2,35
000023e6 48         6157 	.data.b	72
000023e7 01         6158 	.data.b	1
                    6159 
                    6160 .LDW_60637a8:
000023e8 25         6161 	.data.b	37
000023e9 69667872   6162 	.data.b	114,120,102,105,114,0
000023ed 0072 
000023ef 09b3       6163 	.data.b	179,9
000023f1 0c         6164 	.data.b	12
000023f2 04         6165 	.data.b	4
000023f3 00000000*  6166 	.data.w	.LDW_5e0e158
000023f7 2302       6167 	.data.b	2,35
000023f9 4c         6168 	.data.b	76
000023fa 01         6169 	.data.b	1
                    6170 
                    6171 .LDW_60635b0:
000023fb 25         6172 	.data.b	37
000023fc 00746263   6173 	.data.b	99,98,116,0
00002400 09b4       6174 	.data.b	180,9
00002402 0c         6175 	.data.b	12
00002403 04         6176 	.data.b	4
00002404 00000000*  6177 	.data.w	.LDW_5e0e158
00002408 2302       6178 	.data.b	2,35
0000240a 50         6179 	.data.b	80
0000240b 01         6180 	.data.b	1
                    6181 
                    6182 .LDW_6063490:
0000240c 25         6183 	.data.b	37
0000240d 35767372   6184 	.data.b	114,115,118,53,0
00002411 00 
00002412 09b5       6185 	.data.b	181,9
00002414 0c         6186 	.data.b	12
00002415 04         6187 	.data.b	4
00002416 00000000*  6188 	.data.w	.LDW_60639f8
0000241a 2302       6189 	.data.b	2,35
0000241c 54         6190 	.data.b	84
0000241d 01         6191 	.data.b	1
                    6192 
                    6193 .LDW_60634d8:
0000241e 25         6194 	.data.b	37
0000241f 73616d69   6195 	.data.b	105,109,97,115,107,52,0
00002423 00346b 
00002426 09b6       6196 	.data.b	182,9
00002428 0c         6197 	.data.b	12
00002429 04         6198 	.data.b	4
0000242a 00000000*  6199 	.data.w	.LDW_5e0e158
0000242e 2302       6200 	.data.b	2,35
00002430 68         6201 	.data.b	104
00002431 01         6202 	.data.b	1
                    6203 
                    6204 .LDW_6063760:
00002432 25         6205 	.data.b	37
00002433 73616d69   6206 	.data.b	105,109,97,115,107,51,0
00002437 00336b 

                                                                      Page 127
                                                              C:\Users\Fengyuan\AppData\Local\Temp\gh_0000sro1.s
0000243a 09b7       6207 	.data.b	183,9
0000243c 0c         6208 	.data.b	12
0000243d 04         6209 	.data.b	4
0000243e 00000000*  6210 	.data.w	.LDW_5e0e158
00002442 2302       6211 	.data.b	2,35
00002444 6c         6212 	.data.b	108
00002445 01         6213 	.data.b	1
                    6214 
                    6215 .LDW_6063520:
00002446 25         6216 	.data.b	37
00002447 616c6669   6217 	.data.b	105,102,108,97,103,52,0
0000244b 003467 
0000244e 09b8       6218 	.data.b	184,9
00002450 0c         6219 	.data.b	12
00002451 04         6220 	.data.b	4
00002452 00000000*  6221 	.data.w	.LDW_5e0e158
00002456 2302       6222 	.data.b	2,35
00002458 70         6223 	.data.b	112
00002459 01         6224 	.data.b	1
                    6225 
                    6226 .LDW_6063370:
0000245a 25         6227 	.data.b	37
0000245b 616c6669   6228 	.data.b	105,102,108,97,103,51,0
0000245f 003367 
00002462 09b9       6229 	.data.b	185,9
00002464 0c         6230 	.data.b	12
00002465 04         6231 	.data.b	4
00002466 00000000*  6232 	.data.w	.LDW_5e0e158
0000246a 2302       6233 	.data.b	2,35
0000246c 74         6234 	.data.b	116
0000246d 01         6235 	.data.b	1
                    6236 
                    6237 .LDW_60637f0:
0000246e 25         6238 	.data.b	37
0000246f 36767372   6239 	.data.b	114,115,118,54,0
00002473 00 
00002474 09ba       6240 	.data.b	186,9
00002476 0c         6241 	.data.b	12
00002477 04         6242 	.data.b	4
00002478 00000000*  6243 	.data.w	.LDW_6063a80
0000247c 2302       6244 	.data.b	2,35
0000247e 78         6245 	.data.b	120
0000247f 01         6246 	.data.b	1
                    6247 
                    6248 .LDW_6063838:
00002480 25         6249 	.data.b	37
00002481 4f6e6163   6250 	.data.b	99,97,110,79,98,106,101,99,116,0
00002485 63656a62 
00002489 0074 
0000248b 09c2       6251 	.data.b	194,9
0000248d 0e         6252 	.data.b	14
0000248e 04         6253 	.data.b	4
0000248f 00000000*  6254 	.data.w	.LDW_6063b08
00002493 2303       6255 	.data.b	3,35
00002495 0180       6256 	.data.b	128,1
00002497 01         6257 	.data.b	1
                    6258 
00002498 00         6259 	.data.b	0
                    6260 
                    6261 .LDW_5e0eb08:
00002499 2a         6262 	.data.b	42

                                                                      Page 128
                                                              C:\Users\Fengyuan\AppData\Local\Temp\gh_0000sro1.s
0000249a 656c4674   6263 	.data.b	116,70,108,101,120,67,65,78,0
0000249e 4e414378 
000024a2 00 
000024a3 09c4       6264 	.data.b	196,9
000024a5 02         6265 	.data.b	2
000024a6 04         6266 	.data.b	4
000024a7 00000000*  6267 	.data.w	.LDW_5e0e690
                    6268 
                    6269 .LDW_5e0e3d0:
000024ab 2a         6270 	.data.b	42
000024ac 656c4674   6271 	.data.b	116,70,108,101,120,67,65,78,80,116,114,0
000024b0 4e414378 
000024b4 00727450 
000024b8 09c7       6272 	.data.b	199,9
000024ba 28         6273 	.data.b	40
000024bb 04         6274 	.data.b	4
000024bc 00000000*  6275 	.data.w	.LDW_333d488
                    6276 
                    6277 .LDW_5ee4518:
000024c0 43         6278 	.data.b	67
000024c1 09d8       6279 	.data.b	216,9
000024c3 01         6280 	.data.b	1
000024c4 04         6281 	.data.b	4
000024c5 0280       6282 	.data.b	128,2
000024c7 01         6283 	.data.b	1
                    6284 
                    6285 .LDW_6063640:
000024c8 25         6286 	.data.b	37
000024c9 69646e69   6287 	.data.b	105,110,100,105,118,82,120,77,97,115,107,0
000024cd 4d785276 
000024d1 006b7361 
000024d5 09de       6288 	.data.b	222,9
000024d7 0b         6289 	.data.b	11
000024d8 04         6290 	.data.b	4
000024d9 00000000*  6291 	.data.w	.LDW_6063b90
000024dd 2302       6292 	.data.b	2,35
000024df 00         6293 	.data.b	0
000024e0 01         6294 	.data.b	1
                    6295 
000024e1 00         6296 	.data.b	0
                    6297 
                    6298 .LDW_5ee42b0:
000024e2 2a         6299 	.data.b	42
000024e3 6e614374   6300 	.data.b	116,67,97,110,82,120,77,97,115,107,0
000024e7 614d7852 
000024eb 006b73 
000024ee 09e0       6301 	.data.b	224,9
000024f0 02         6302 	.data.b	2
000024f1 04         6303 	.data.b	4
000024f2 00000000*  6304 	.data.w	.LDW_5ee4150
                    6305 
                    6306 .LDW_5ee4780:
000024f6 2a         6307 	.data.b	42
000024f7 6e614374   6308 	.data.b	116,67,97,110,82,120,77,97,115,107,80,116,114,0
000024fb 614d7852 
000024ff 74506b73 
00002503 0072 
00002505 09e1       6309 	.data.b	225,9
00002507 2a         6310 	.data.b	42
00002508 04         6311 	.data.b	4
00002509 00000000*  6312 	.data.w	.LDW_5ee38a8

                                                                      Page 129
                                                              C:\Users\Fengyuan\AppData\Local\Temp\gh_0000sro1.s
                    6313 
                    6314 .LDW_5ee4468:
0000250d 43         6315 	.data.b	67
0000250e 09e4       6316 	.data.b	228,9
00002510 01         6317 	.data.b	1
00002511 04         6318 	.data.b	4
00002512 04e0       6319 	.data.b	224,4
00002514 01         6320 	.data.b	1
                    6321 
                    6322 .LDW_6063448:
00002515 25         6323 	.data.b	37
00002516 4f437872   6324 	.data.b	114,120,67,79,68,69,0
0000251a 004544 
0000251d 09e5       6325 	.data.b	229,9
0000251f 0c         6326 	.data.b	12
00002520 04         6327 	.data.b	4
00002521 00000000*  6328 	.data.w	.LDW_5e0e158
00002525 2302       6329 	.data.b	2,35
00002527 00         6330 	.data.b	0
00002528 01         6331 	.data.b	1
                    6332 
                    6333 .LDW_6063568:
00002529 25         6334 	.data.b	37
0000252a 44497872   6335 	.data.b	114,120,73,68,0
0000252e 00 
0000252f 09e6       6336 	.data.b	230,9
00002531 0c         6337 	.data.b	12
00002532 04         6338 	.data.b	4
00002533 00000000*  6339 	.data.w	.LDW_5e0e158
00002537 2302       6340 	.data.b	2,35
00002539 04         6341 	.data.b	4
0000253a 01         6342 	.data.b	1
                    6343 
                    6344 .LDW_6063688:
0000253b 25         6345 	.data.b	37
0000253c 41447872   6346 	.data.b	114,120,68,65,84,65,0
00002540 004154 
00002543 09e7       6347 	.data.b	231,9
00002545 0c         6348 	.data.b	12
00002546 04         6349 	.data.b	4
00002547 00000000*  6350 	.data.w	.LDW_6063c18
0000254b 2302       6351 	.data.b	2,35
0000254d 08         6352 	.data.b	8
0000254e 01         6353 	.data.b	1
                    6354 
                    6355 .LDW_60633b8:
0000254f 25         6356 	.data.b	37
00002550 53527872   6357 	.data.b	114,120,82,83,86,68,0
00002554 004456 
00002557 09e8       6358 	.data.b	232,9
00002559 0c         6359 	.data.b	12
0000255a 04         6360 	.data.b	4
0000255b 00000000*  6361 	.data.w	.LDW_6064988
0000255f 2302       6362 	.data.b	2,35
00002561 10         6363 	.data.b	16
00002562 01         6364 	.data.b	1
                    6365 
                    6366 .LDW_6063880:
00002563 25         6367 	.data.b	37
00002564 44497872   6368 	.data.b	114,120,73,68,84,65,66,0
00002568 00424154 

                                                                      Page 130
                                                              C:\Users\Fengyuan\AppData\Local\Temp\gh_0000sro1.s
0000256c 09e9       6369 	.data.b	233,9
0000256e 0c         6370 	.data.b	12
0000256f 04         6371 	.data.b	4
00002570 00000000*  6372 	.data.w	.LDW_6064768
00002574 2302       6373 	.data.b	2,35
00002576 60         6374 	.data.b	96
00002577 01         6375 	.data.b	1
                    6376 
00002578 00         6377 	.data.b	0
                    6378 
                    6379 .LDW_5ee3e90:
00002579 2a         6380 	.data.b	42
0000257a 46585274   6381 	.data.b	116,82,88,70,73,70,79,0
0000257e 004f4649 
00002582 09ea       6382 	.data.b	234,9
00002584 02         6383 	.data.b	2
00002585 04         6384 	.data.b	4
00002586 00000000*  6385 	.data.w	.LDW_5ee3e38
                    6386 
                    6387 .LDW_5ee44c0:
0000258a 2a         6388 	.data.b	42
0000258b 46585274   6389 	.data.b	116,82,88,70,73,70,79,80,116,114,0
0000258f 504f4649 
00002593 007274 
00002596 0a8a       6390 	.data.b	138,10
00002598 27         6391 	.data.b	39
00002599 04         6392 	.data.b	4
0000259a 00000000*  6393 	.data.w	.LDW_5ee3480
                    6394 
                    6395 .LDW_6060f00:
0000259e 30         6396 	.data.b	48
0000259f 00         6397 	.data.b	0
000025a0 02ab       6398 	.data.b	171,2
000025a2 01         6399 	.data.b	1
000025a3 21         6400 	.data.b	33
000025a4 04         6401 	.data.b	4
000025a5 01         6402 	.data.b	1
                    6403 
                    6404 .LDW_605dae0:
000025a6 2f         6405 	.data.b	47
000025a7 494e4143   6406 	.data.b	67,65,78,73,70,95,67,83,95,85,78,73,78,73,84,0
000025ab 53435f46 
000025af 494e555f 
000025b3 0054494e 
000025b7 02ac       6407 	.data.b	172,2
000025b9 03         6408 	.data.b	3
000025ba 21         6409 	.data.b	33
000025bb 00         6410 	.data.b	0
                    6411 
                    6412 .LDW_605dd60:
000025bc 2f         6413 	.data.b	47
000025bd 494e4143   6414 	.data.b	67,65,78,73,70,95,67,83,95,83,84,79,80,80,69,68,0
000025c1 53435f46 
000025c5 4f54535f 
000025c9 44455050 
000025cd 00 
000025ce 02ad       6415 	.data.b	173,2
000025d0 03         6416 	.data.b	3
000025d1 21         6417 	.data.b	33
000025d2 01         6418 	.data.b	1
                    6419 

                                                                      Page 131
                                                              C:\Users\Fengyuan\AppData\Local\Temp\gh_0000sro1.s
                    6420 .LDW_605dc20:
000025d3 2f         6421 	.data.b	47
000025d4 494e4143   6422 	.data.b	67,65,78,73,70,95,67,83,95,83,84,65,82,84,69,68,0
000025d8 53435f46 
000025dc 4154535f 
000025e0 44455452 
000025e4 00 
000025e5 02ae       6423 	.data.b	174,2
000025e7 03         6424 	.data.b	3
000025e8 21         6425 	.data.b	33
000025e9 02         6426 	.data.b	2
                    6427 
                    6428 .LDW_605de60:
000025ea 2f         6429 	.data.b	47
000025eb 494e4143   6430 	.data.b	67,65,78,73,70,95,67,83,95,83,76,69,69,80,0
000025ef 53435f46 
000025f3 454c535f 
000025f7 005045 
000025fa 02af       6431 	.data.b	175,2
000025fc 03         6432 	.data.b	3
000025fd 21         6433 	.data.b	33
000025fe 03         6434 	.data.b	3
                    6435 
000025ff 00         6436 	.data.b	0
                    6437 
                    6438 .LDW_6061428:
00002600 2a         6439 	.data.b	42
00002601 496e6143   6440 	.data.b	67,97,110,73,102,95,67,111,110,116,114,111,108,108,101,114,77,111,100,101,84,121,112,101,0
00002605 6f435f66 
00002609 6f72746e 
0000260d 72656c6c 
00002611 65646f4d 
00002615 65707954 
00002619 00 
0000261a 02b0       6441 	.data.b	176,2
0000261c 03         6442 	.data.b	3
0000261d 21         6443 	.data.b	33
0000261e 00000000*  6444 	.data.w	.LDW_6060f00
                    6445 
                    6446 .LDW_5ff0c68:
00002622 42         6447 	.data.b	66
00002623 6e614373   6448 	.data.b	115,67,97,110,82,120,73,110,102,111,83,116,114,117,99,116,0
00002627 6e497852 
0000262b 74536f66 
0000262f 74637572 
00002633 00 
00002634 088a       6449 	.data.b	138,8
00002636 10         6450 	.data.b	16
00002637 23         6451 	.data.b	35
00002638 0c         6452 	.data.b	12
00002639 01         6453 	.data.b	1
                    6454 
                    6455 .LDW_6070f20:
0000263a 25         6456 	.data.b	37
0000263b 69684370   6457 	.data.b	112,67,104,105,112,77,115,103,79,98,106,0
0000263f 67734d70 
00002643 006a624f 
00002647 088c       6458 	.data.b	140,8
00002649 12         6459 	.data.b	18
0000264a 23         6460 	.data.b	35
0000264b 00000000*  6461 	.data.w	.LDW_6060718

                                                                      Page 132
                                                              C:\Users\Fengyuan\AppData\Local\Temp\gh_0000sro1.s
0000264f 2302       6462 	.data.b	2,35
00002651 00         6463 	.data.b	0
00002652 01         6464 	.data.b	1
                    6465 
                    6466 .LDW_6070c50:
00002653 25         6467 	.data.b	37
00002654 69684370   6468 	.data.b	112,67,104,105,112,68,97,116,97,0
00002658 74614470 
0000265c 0061 
0000265e 088d       6469 	.data.b	141,8
00002660 12         6470 	.data.b	18
00002661 23         6471 	.data.b	35
00002662 00000000*  6472 	.data.w	.LDW_6060610
00002666 2302       6473 	.data.b	2,35
00002668 04         6474 	.data.b	4
00002669 01         6475 	.data.b	1
                    6476 
                    6477 .LDW_6070bc0:
0000266a 25         6478 	.data.b	37
0000266b 61636f6c   6479 	.data.b	108,111,99,97,108,73,100,0
0000266f 0064496c 
00002673 088e       6480 	.data.b	142,8
00002675 0e         6481 	.data.b	14
00002676 23         6482 	.data.b	35
00002677 00000000*  6483 	.data.w	.LDW_5cc6970
0000267b 2302       6484 	.data.b	2,35
0000267d 08         6485 	.data.b	8
0000267e 01         6486 	.data.b	1
                    6487 
                    6488 .LDW_6070d28:
0000267f 25         6489 	.data.b	37
00002680 61636f6c   6490 	.data.b	108,111,99,97,108,72,114,104,0
00002684 6872486c 
00002688 00 
00002689 088f       6491 	.data.b	143,8
0000268b 14         6492 	.data.b	20
0000268c 23         6493 	.data.b	35
0000268d 00000000*  6494 	.data.w	.LDW_5e0e5e0
00002691 2302       6495 	.data.b	2,35
00002693 0a         6496 	.data.b	10
00002694 01         6497 	.data.b	1
                    6498 
                    6499 .LDW_6070a10:
00002695 25         6500 	.data.b	37
00002696 61636f6c   6501 	.data.b	108,111,99,97,108,68,108,99,0
0000269a 636c446c 
0000269e 00 
0000269f 0890       6502 	.data.b	144,8
000026a1 09         6503 	.data.b	9
000026a2 23         6504 	.data.b	35
000026a3 00000000*  6505 	.data.w	.LDW_5e0df08
000026a7 2302       6506 	.data.b	2,35
000026a9 0b         6507 	.data.b	11
000026aa 01         6508 	.data.b	1
                    6509 
000026ab 00         6510 	.data.b	0
                    6511 
                    6512 .LDW_5ff0cc0:
000026ac 2a         6513 	.data.b	42
000026ad 6e614374   6514 	.data.b	116,67,97,110,82,120,73,110,102,111,83,116,114,117,99,116,0
000026b1 6e497852 

                                                                      Page 133
                                                              C:\Users\Fengyuan\AppData\Local\Temp\gh_0000sro1.s
000026b5 74536f66 
000026b9 74637572 
000026bd 00 
000026be 0892       6515 	.data.b	146,8
000026c0 03         6516 	.data.b	3
000026c1 23         6517 	.data.b	35
000026c2 00000000*  6518 	.data.w	.LDW_5ff0c68
                    6519 
                    6520 .LDW_5ff1030:
000026c6 2a         6521 	.data.b	42
000026c7 526e6143   6522 	.data.b	67,97,110,82,120,73,110,102,111,80,116,114,84,121,112,101,0
000026cb 666e4978 
000026cf 7274506f 
000026d3 65707954 
000026d7 00 
000026d8 0893       6523 	.data.b	147,8
000026da 38         6524 	.data.b	56
000026db 23         6525 	.data.b	35
000026dc 00000000*  6526 	.data.w	.LDW_5ee3758
                    6527 
                    6528 .LDW_5ee2ea0:
000026e0 42         6529 	.data.b	66
000026e1 6e614373   6530 	.data.b	115,67,97,110,73,110,105,116,73,110,102,111,83,116,114,117,99,116,0
000026e5 74696e49 
000026e9 6f666e49 
000026ed 75727453 
000026f1 007463 
000026f4 089e       6531 	.data.b	158,8
000026f6 10         6532 	.data.b	16
000026f7 23         6533 	.data.b	35
000026f8 04         6534 	.data.b	4
000026f9 01         6535 	.data.b	1
                    6536 
                    6537 .LDW_6070e00:
000026fa 25         6538 	.data.b	37
000026fb 74696e69   6539 	.data.b	105,110,105,116,79,98,106,101,99,116,0
000026ff 656a624f 
00002703 007463 
00002706 08a1       6540 	.data.b	161,8
00002708 12         6541 	.data.b	18
00002709 23         6542 	.data.b	35
0000270a 00000000*  6543 	.data.w	.LDW_5ee2b88
0000270e 2302       6544 	.data.b	2,35
00002710 00         6545 	.data.b	0
00002711 01         6546 	.data.b	1
                    6547 
                    6548 .LDW_6070f68:
00002712 25         6549 	.data.b	37
00002713 624d7369   6550 	.data.b	105,115,77,98,67,111,114,114,117,112,116,0
00002717 72726f43 
0000271b 00747075 
0000271f 08a2       6551 	.data.b	162,8
00002721 09         6552 	.data.b	9
00002722 23         6553 	.data.b	35
00002723 00000000*  6554 	.data.w	.LDW_5e0df08
00002727 2302       6555 	.data.b	2,35
00002729 02         6556 	.data.b	2
0000272a 01         6557 	.data.b	1
                    6558 
                    6559 .LDW_6070a58:
0000272b 25         6560 	.data.b	37

                                                                      Page 134
                                                              C:\Users\Fengyuan\AppData\Local\Temp\gh_0000sro1.s
0000272c 68437369   6561 	.data.b	105,115,67,104,67,111,114,114,117,112,116,0
00002730 72726f43 
00002734 00747075 
00002738 08a3       6562 	.data.b	163,8
0000273a 09         6563 	.data.b	9
0000273b 23         6564 	.data.b	35
0000273c 00000000*  6565 	.data.w	.LDW_5e0df08
00002740 2302       6566 	.data.b	2,35
00002742 03         6567 	.data.b	3
00002743 01         6568 	.data.b	1
                    6569 
00002744 00         6570 	.data.b	0
                    6571 
                    6572 .LDW_5ee2d40:
00002745 2a         6573 	.data.b	42
00002746 6e614374   6574 	.data.b	116,67,97,110,73,110,105,116,73,110,102,111,83,116,114,117,99,116,0
0000274a 74696e49 
0000274e 6f666e49 
00002752 75727453 
00002756 007463 
00002759 08a5       6575 	.data.b	165,8
0000275b 03         6576 	.data.b	3
0000275c 23         6577 	.data.b	35
0000275d 00000000*  6578 	.data.w	.LDW_5ee2ea0
                    6579 
                    6580 .LDW_5ee2ef8:
00002761 2a         6581 	.data.b	42
00002762 496e6143   6582 	.data.b	67,97,110,73,110,105,116,73,110,102,111,80,116,114,84,121,112,101,0
00002766 4974696e 
0000276a 506f666e 
0000276e 79547274 
00002772 006570 
00002775 08a6       6583 	.data.b	166,8
00002777 3a         6584 	.data.b	58
00002778 23         6585 	.data.b	35
00002779 00000000*  6586 	.data.w	.LDW_5ee3918
                    6587 
                    6588 .LDW_5ee4a40:
0000277d 42         6589 	.data.b	66
0000277e 6e614373   6590 	.data.b	115,67,97,110,82,120,66,97,115,105,99,73,110,102,111,83,116,114,117,99,116,0
00002782 61427852 
00002786 49636973 
0000278a 536f666e 
0000278e 63757274 
00002792 0074 
00002794 08aa       6591 	.data.b	170,8
00002796 10         6592 	.data.b	16
00002797 23         6593 	.data.b	35
00002798 14         6594 	.data.b	20
00002799 01         6595 	.data.b	1
                    6596 
                    6597 .LDW_6070aa0:
0000279a 25         6598 	.data.b	37
0000279b 6e497872   6599 	.data.b	114,120,73,110,102,111,0
0000279f 006f66 
000027a2 08ac       6600 	.data.b	172,8
000027a4 14         6601 	.data.b	20
000027a5 23         6602 	.data.b	35
000027a6 00000000*  6603 	.data.w	.LDW_5ff0cc0
000027aa 2302       6604 	.data.b	2,35
000027ac 00         6605 	.data.b	0

                                                                      Page 135
                                                              C:\Users\Fengyuan\AppData\Local\Temp\gh_0000sro1.s
000027ad 01         6606 	.data.b	1
                    6607 
                    6608 .LDW_6070938:
000027ae 25         6609 	.data.b	37
000027af 624f7872   6610 	.data.b	114,120,79,98,106,72,97,110,100,108,101,0
000027b3 6e61486a 
000027b7 00656c64 
000027bb 08ad       6611 	.data.b	173,8
000027bd 13         6612 	.data.b	19
000027be 23         6613 	.data.b	35
000027bf 00000000*  6614 	.data.w	.LDW_5e0e5e0
000027c3 2302       6615 	.data.b	2,35
000027c5 0c         6616 	.data.b	12
000027c6 01         6617 	.data.b	1
                    6618 
                    6619 .LDW_6070b78:
000027c7 25         6620 	.data.b	37
000027c8 656c4670   6621 	.data.b	112,70,108,101,120,67,65,78,76,111,99,97,108,0
000027cc 4e414378 
000027d0 61636f4c 
000027d4 006c 
000027d6 08b5       6622 	.data.b	181,8
000027d8 0f         6623 	.data.b	15
000027d9 23         6624 	.data.b	35
000027da 00000000*  6625 	.data.w	.LDW_5e0e3d0
000027de 2302       6626 	.data.b	2,35
000027e0 10         6627 	.data.b	16
000027e1 01         6628 	.data.b	1
                    6629 
000027e2 00         6630 	.data.b	0
                    6631 
                    6632 .LDW_5ee4990:
000027e3 2a         6633 	.data.b	42
000027e4 6e614374   6634 	.data.b	116,67,97,110,82,120,66,97,115,105,99,73,110,102,111,83,116,114,117,99,116,0
000027e8 61427852 
000027ec 49636973 
000027f0 536f666e 
000027f4 63757274 
000027f8 0074 
000027fa 08b6       6635 	.data.b	182,8
000027fc 03         6636 	.data.b	3
000027fd 23         6637 	.data.b	35
000027fe 00000000*  6638 	.data.w	.LDW_5ee4a40
                    6639 
                    6640 .LDW_5ee49e8:
00002802 2a         6641 	.data.b	42
00002803 526e6143   6642 	.data.b	67,97,110,82,120,66,97,115,105,99,73,110,102,111,80,116,114,84,121,112,101,0
00002807 73614278 
0000280b 6e496369 
0000280f 74506f66 
00002813 70795472 
00002817 0065 
00002819 08b7       6643 	.data.b	183,8
0000281b 3d         6644 	.data.b	61
0000281c 23         6645 	.data.b	35
0000281d 00000000*  6646 	.data.w	.LDW_5ee36e8
                    6647 
                    6648 .LDW_60759a0:
00002821 07         6649 	.data.b	7
00002822 5f6e6143   6650 	.data.b	67,97,110,95,67,97,110,73,102,67,104,97,110,110,101,108,73,100,0
00002826 496e6143 

                                                                      Page 136
                                                              C:\Users\Fengyuan\AppData\Local\Temp\gh_0000sro1.s
0000282a 61684366 
0000282e 6c656e6e 
00002832 006449 
00002835 0cea       6651 	.data.b	234,12
00002837 31         6652 	.data.b	49
00002838 05         6653 	.data.b	5
00002839 00000000*  6654 	.data.w	.LDW_60643b0
0000283d 01         6655 	.data.b	1
0000283e 01         6656 	.data.b	1
                    6657 
                    6658 	.section	.debug_abbrev
000000ca 07         6659 	.data.b	7
000000cb 34         6660 	.data.b	52
000000cc 00         6661 	.data.b	0
000000cd 0803       6662 	.data.b	3,8
000000cf 0f3b       6663 	.data.b	59,15
000000d1 0f39       6664 	.data.b	57,15
000000d3 0f3a       6665 	.data.b	58,15
000000d5 1049       6666 	.data.b	73,16
000000d7 0c3f       6667 	.data.b	63,12
000000d9 0c3c       6668 	.data.b	60,12
000000db 0000       6669 	.data.b	0,0
                    6670 
                    6671 	.section	.debug_info
                    6672 .LDW_6075210:
0000283f 07         6673 	.data.b	7
00002840 5f6e6143   6674 	.data.b	67,97,110,95,67,111,110,116,114,111,108,108,101,114,67,111,110,102,105,103,0
00002844 746e6f43 
00002848 6c6c6f72 
0000284c 6f437265 
00002850 6769666e 
00002854 00 
00002855 0d98       6675 	.data.b	152,13
00002857 33         6676 	.data.b	51
00002858 05         6677 	.data.b	5
00002859 00000000*  6678 	.data.w	.LDW_6063e60
0000285d 01         6679 	.data.b	1
0000285e 01         6680 	.data.b	1
                    6681 
                    6682 .LDW_6074f50:
0000285f 07         6683 	.data.b	7
00002860 5f6e6143   6684 	.data.b	67,97,110,95,73,110,105,116,66,97,115,105,99,67,97,110,0
00002864 74696e49 
00002868 69736142 
0000286c 6e614363 
00002870 00 
00002871 0dad       6685 	.data.b	173,13
00002873 2f         6686 	.data.b	47
00002874 05         6687 	.data.b	5
00002875 00000000*  6688 	.data.w	.LDW_6064438
00002879 01         6689 	.data.b	1
0000287a 01         6690 	.data.b	1
                    6691 
                    6692 .LDW_6075478:
0000287b 07         6693 	.data.b	7
0000287c 5f6e6143   6694 	.data.b	67,97,110,95,73,110,105,116,66,97,115,105,99,67,97,110,73,110,100,101,120,0
00002880 74696e49 
00002884 69736142 
00002888 6e614363 
0000288c 65646e49 
00002890 0078 

                                                                      Page 137
                                                              C:\Users\Fengyuan\AppData\Local\Temp\gh_0000sro1.s
00002892 0dbe       6695 	.data.b	190,13
00002894 34         6696 	.data.b	52
00002895 05         6697 	.data.b	5
00002896 00000000*  6698 	.data.w	.LDW_6064218
0000289a 01         6699 	.data.b	1
0000289b 01         6700 	.data.b	1
                    6701 
                    6702 .LDW_6075630:
0000289c 07         6703 	.data.b	7
0000289d 5f6e6143   6704 	.data.b	67,97,110,95,73,110,105,116,79,98,106,101,99,116,0
000028a1 74696e49 
000028a5 656a624f 
000028a9 007463 
000028ac 0dd3       6705 	.data.b	211,13
000028ae 2d         6706 	.data.b	45
000028af 05         6707 	.data.b	5
000028b0 00000000*  6708 	.data.w	.LDW_6064a10
000028b4 01         6709 	.data.b	1
000028b5 01         6710 	.data.b	1
                    6711 
                    6712 .LDW_6075528:
000028b6 07         6713 	.data.b	7
000028b7 5f6e6143   6714 	.data.b	67,97,110,95,73,110,105,116,79,98,106,101,99,116,66,97,117,100,114,97,116,101,0
000028bb 74696e49 
000028bf 656a624f 
000028c3 61427463 
000028c7 61726475 
000028cb 006574 
000028ce 0de4       6715 	.data.b	228,13
000028d0 35         6716 	.data.b	53
000028d1 05         6717 	.data.b	5
000028d2 00000000*  6718 	.data.w	.LDW_6064658
000028d6 01         6719 	.data.b	1
000028d7 01         6720 	.data.b	1
                    6721 
                    6722 .LDW_6075108:
000028d8 07         6723 	.data.b	7
000028d9 5f6e6143   6724 	.data.b	67,97,110,95,73,110,105,116,79,98,106,101,99,116,83,116,97,114,116,73,110,100,101,120,0
000028dd 74696e49 
000028e1 656a624f 
000028e5 74537463 
000028e9 49747261 
000028ed 7865646e 
000028f1 00 
000028f2 0df5       6725 	.data.b	245,13
000028f4 37         6726 	.data.b	55
000028f5 05         6727 	.data.b	5
000028f6 00000000*  6728 	.data.w	.LDW_6064878
000028fa 01         6729 	.data.b	1
000028fb 01         6730 	.data.b	1
                    6731 
                    6732 .LDW_6075318:
000028fc 07         6733 	.data.b	7
000028fd 5f6e6143   6734 	.data.b	67,97,110,95,77,97,105,108,98,111,120,0
00002901 6c69614d 
00002905 00786f62 
00002909 0e8e       6735 	.data.b	142,14
0000290b 2a         6736 	.data.b	42
0000290c 05         6737 	.data.b	5
0000290d 00000000*  6738 	.data.w	.LDW_6063dd8
00002911 01         6739 	.data.b	1

                                                                      Page 138
                                                              C:\Users\Fengyuan\AppData\Local\Temp\gh_0000sro1.s
00002912 01         6740 	.data.b	1
                    6741 
                    6742 .LDW_6075948:
00002913 07         6743 	.data.b	7
00002914 5f6e6143   6744 	.data.b	67,97,110,95,84,120,79,102,102,115,101,116,72,119,84,111,76,111,103,0
00002918 664f7854 
0000291c 74657366 
00002920 6f547748 
00002924 00676f4c 
00002928 0e9f       6745 	.data.b	159,14
0000292a 32         6746 	.data.b	50
0000292b 05         6747 	.data.b	5
0000292c 00000000*  6748 	.data.w	.LDW_6064ba8
00002930 01         6749 	.data.b	1
00002931 01         6750 	.data.b	1
                    6751 
                    6752 .LDW_6074fa8:
00002932 07         6753 	.data.b	7
00002933 5f6e6143   6754 	.data.b	67,97,110,95,65,99,116,105,118,101,83,101,110,100,79,98,106,101,99,116,0
00002937 69746341 
0000293b 65536576 
0000293f 624f646e 
00002943 7463656a 
00002947 00 
00002948 0eb4       6755 	.data.b	180,14
0000294a 36         6756 	.data.b	54
0000294b 05         6757 	.data.b	5
0000294c 00000000*  6758 	.data.w	.LDW_6063ee8
00002950 01         6759 	.data.b	1
00002951 01         6760 	.data.b	1
                    6761 
                    6762 .LDW_60756e0:
00002952 07         6763 	.data.b	7
00002953 5f6e6143   6764 	.data.b	67,97,110,95,67,111,110,116,114,111,108,108,101,114,68,97,116,97,0
00002957 746e6f43 
0000295b 6c6c6f72 
0000295f 61447265 
00002963 006174 
00002966 0ed1       6765 	.data.b	209,14
00002968 34         6766 	.data.b	52
00002969 05         6767 	.data.b	5
0000296a 00000000*  6768 	.data.w	.LDW_6064328
0000296e 01         6769 	.data.b	1
0000296f 01         6770 	.data.b	1
                    6771 
                    6772 .LDW_6075b00:
00002970 06         6773 	.data.b	6
00002971 5f6e6143   6774 	.data.b	67,97,110,95,77,97,105,110,86,101,114,115,105,111,110,0
00002975 6e69614d 
00002979 73726556 
0000297d 006e6f69 
00002981 06e2       6775 	.data.b	226,6
00002983 23         6776 	.data.b	35
00002984 01         6777 	.data.b	1
00002985 00000000*  6778 	.data.w	.LDW_6060b90
00002989 01         6779 	.data.b	1
0000298a 00         6780 	.data.b	0
0000298b 0305       6781 	.data.b	5,3
0000298d 00000000*  6782 	.data.w	Can_MainVersion
                    6783 
                    6784 	.section	.debug_abbrev

                                                                      Page 139
                                                              C:\Users\Fengyuan\AppData\Local\Temp\gh_0000sro1.s
000000dd 06         6785 	.data.b	6
000000de 34         6786 	.data.b	52
000000df 00         6787 	.data.b	0
000000e0 0803       6788 	.data.b	3,8
000000e2 0f3b       6789 	.data.b	59,15
000000e4 0f39       6790 	.data.b	57,15
000000e6 0f3a       6791 	.data.b	58,15
000000e8 1049       6792 	.data.b	73,16
000000ea 0c3f       6793 	.data.b	63,12
000000ec 0c3c       6794 	.data.b	60,12
000000ee 0a02       6795 	.data.b	2,10
000000f0 0000       6796 	.data.b	0,0
                    6797 
                    6798 	.section	.debug_info
                    6799 .LDW_6075c08:
00002991 06         6800 	.data.b	6
00002992 5f6e6143   6801 	.data.b	67,97,110,95,83,117,98,86,101,114,115,105,111,110,0
00002996 56627553 
0000299a 69737265 
0000299e 006e6f 
000029a1 06e3       6802 	.data.b	227,6
000029a3 23         6803 	.data.b	35
000029a4 01         6804 	.data.b	1
000029a5 00000000*  6805 	.data.w	.LDW_6060b90
000029a9 01         6806 	.data.b	1
000029aa 00         6807 	.data.b	0
000029ab 0305       6808 	.data.b	5,3
000029ad 00000000*  6809 	.data.w	Can_SubVersion
                    6810 
                    6811 .LDW_6075c60:
000029b1 06         6812 	.data.b	6
000029b2 5f6e6143   6813 	.data.b	67,97,110,95,82,101,108,101,97,115,101,86,101,114,115,105,111,110,0
000029b6 656c6552 
000029ba 56657361 
000029be 69737265 
000029c2 006e6f 
000029c5 06e4       6814 	.data.b	228,6
000029c7 23         6815 	.data.b	35
000029c8 01         6816 	.data.b	1
000029c9 00000000*  6817 	.data.w	.LDW_6060b90
000029cd 01         6818 	.data.b	1
000029ce 00         6819 	.data.b	0
000029cf 0305       6820 	.data.b	5,3
000029d1 00000000*  6821 	.data.w	Can_ReleaseVersion
                    6822 
                    6823 .LDW_6075dc0:
000029d5 06         6824 	.data.b	6
000029d6 526e6163   6825 	.data.b	99,97,110,82,120,84,97,115,107,65,99,116,105,118,101,0
000029da 73615478 
000029de 7463416b 
000029e2 00657669 
000029e6 07ad       6826 	.data.b	173,7
000029e8 33         6827 	.data.b	51
000029e9 01         6828 	.data.b	1
000029ea 00000000*  6829 	.data.w	.LDW_5c53d78
000029ee 00         6830 	.data.b	0
000029ef 00         6831 	.data.b	0
000029f0 0305       6832 	.data.b	5,3
000029f2 00000000*  6833 	.data.w	canRxTaskActive..C.3A.5CVector.5CCBD1800257_D01_S32K1xx.5CApplications.5CS32K144_Start_new.5CAppl.5Cobj.5CCan.
                    6834 
                    6835 .LDW_60744a8:

                                                                      Page 140
                                                              C:\Users\Fengyuan\AppData\Local\Temp\gh_0000sro1.s
000029f6 06         6836 	.data.b	6
000029f7 436e6163   6837 	.data.b	99,97,110,67,111,110,102,105,103,73,110,105,116,70,108,97,103,0
000029fb 69666e6f 
000029ff 696e4967 
00002a03 616c4674 
00002a07 0067 
00002a09 07cd       6838 	.data.b	205,7
00002a0b 28         6839 	.data.b	40
00002a0c 01         6840 	.data.b	1
00002a0d 00000000*  6841 	.data.w	.LDW_5e0df08
00002a11 00         6842 	.data.b	0
00002a12 00         6843 	.data.b	0
00002a13 0305       6844 	.data.b	5,3
00002a15 00000000*  6845 	.data.w	canConfigInitFlag..C.3A.5CVector.5CCBD1800257_D01_S32K1xx.5CApplications.5CS32K144_Start_new.5CAppl.5Cobj.5CCan.
                    6846 
                    6847 .LDW_6074500:
00002a19 06         6848 	.data.b	6
00002a1a 5f6e6143   6849 	.data.b	67,97,110,95,67,111,110,102,105,103,68,97,116,97,80,116,114,0
00002a1e 666e6f43 
00002a22 61446769 
00002a26 74506174 
00002a2a 0072 
00002a2c 07df       6850 	.data.b	223,7
00002a2e 40         6851 	.data.b	64
00002a2f 01         6852 	.data.b	1
00002a30 00000000*  6853 	.data.w	.LDW_6074b30
00002a34 01         6854 	.data.b	1
00002a35 00         6855 	.data.b	0
00002a36 0305       6856 	.data.b	5,3
00002a38 00000000*  6857 	.data.w	Can_ConfigDataPtr
                    6858 
                    6859 .LDW_60239d8:
00002a3c 17         6860 	.data.b	23
00002a3d 70737553   6861 	.data.b	83,117,115,112,101,110,100,65,108,108,73,110,116,101,114,114,117,112,116,115,0
00002a41 41646e65 
00002a45 6e496c6c 
00002a49 72726574 
00002a4d 73747075 
00002a51 00 
00002a52 0a97       6862 	.data.b	151,10
00002a54 15         6863 	.data.b	21
00002a55 13         6864 	.data.b	19
00002a56 01         6865 	.data.b	1
00002a57 00         6866 	.data.b	0
00002a58 01         6867 	.data.b	1
00002a59 01         6868 	.data.b	1
00002a5a 00         6869 	.data.b	0
00002a5b 01         6870 	.data.b	1
                    6871 
                    6872 	.section	.debug_abbrev
000000f2 17         6873 	.data.b	23
000000f3 2e         6874 	.data.b	46
000000f4 01         6875 	.data.b	1
000000f5 0803       6876 	.data.b	3,8
000000f7 0f3b       6877 	.data.b	59,15
000000f9 0f39       6878 	.data.b	57,15
000000fb 0f3a       6879 	.data.b	58,15
000000fd 0c3c       6880 	.data.b	60,12
000000ff 0b20       6881 	.data.b	32,11
00000101 0c3f       6882 	.data.b	63,12
00000103 0b32       6883 	.data.b	50,11

                                                                      Page 141
                                                              C:\Users\Fengyuan\AppData\Local\Temp\gh_0000sro1.s
00000105 0b4c       6884 	.data.b	76,11
00000107 0c27       6885 	.data.b	39,12
00000109 0000       6886 	.data.b	0,0
                    6887 
                    6888 	.section	.debug_info
00002a5c 00         6889 	.data.b	0
                    6890 
                    6891 .LDW_607a510:
00002a5d 17         6892 	.data.b	23
00002a5e 75736552   6893 	.data.b	82,101,115,117,109,101,65,108,108,73,110,116,101,114,114,117,112,116,115,0
00002a62 6c41656d 
00002a66 746e496c 
00002a6a 75727265 
00002a6e 00737470 
00002a72 0aaa       6894 	.data.b	170,10
00002a74 15         6895 	.data.b	21
00002a75 13         6896 	.data.b	19
00002a76 01         6897 	.data.b	1
00002a77 00         6898 	.data.b	0
00002a78 01         6899 	.data.b	1
00002a79 01         6900 	.data.b	1
00002a7a 00         6901 	.data.b	0
00002a7b 01         6902 	.data.b	1
                    6903 
00002a7c 00         6904 	.data.b	0
                    6905 
                    6906 .LDW_607af28:
00002a7d 18         6907 	.data.b	24
00002a7e 43746547   6908 	.data.b	71,101,116,67,111,117,110,116,101,114,86,97,108,117,101,0
00002a82 746e756f 
00002a86 61567265 
00002a8a 0065756c 
00002a8e 11ab       6909 	.data.b	171,17
00002a90 1b         6910 	.data.b	27
00002a91 13         6911 	.data.b	19
00002a92 00000000*  6912 	.data.w	.LDW_5cc5ec8
00002a96 01         6913 	.data.b	1
00002a97 00         6914 	.data.b	0
00002a98 01         6915 	.data.b	1
00002a99 01         6916 	.data.b	1
00002a9a 00         6917 	.data.b	0
00002a9b 01         6918 	.data.b	1
                    6919 
                    6920 	.section	.debug_abbrev
0000010b 18         6921 	.data.b	24
0000010c 2e         6922 	.data.b	46
0000010d 01         6923 	.data.b	1
0000010e 0803       6924 	.data.b	3,8
00000110 0f3b       6925 	.data.b	59,15
00000112 0f39       6926 	.data.b	57,15
00000114 0f3a       6927 	.data.b	58,15
00000116 1049       6928 	.data.b	73,16
00000118 0c3c       6929 	.data.b	60,12
0000011a 0b20       6930 	.data.b	32,11
0000011c 0c3f       6931 	.data.b	63,12
0000011e 0b32       6932 	.data.b	50,11
00000120 0b4c       6933 	.data.b	76,11
00000122 0c27       6934 	.data.b	39,12
00000124 0000       6935 	.data.b	0,0
                    6936 
                    6937 	.section	.debug_info

                                                                      Page 142
                                                              C:\Users\Fengyuan\AppData\Local\Temp\gh_0000sro1.s
00002a9c 00         6938 	.data.b	0
                    6939 
                    6940 .LDW_607b220:
00002a9d 18         6941 	.data.b	24
00002a9e 45746547   6942 	.data.b	71,101,116,69,108,97,112,115,101,100,86,97,108,117,101,0
00002aa2 7370616c 
00002aa6 61566465 
00002aaa 0065756c 
00002aae 11d4       6943 	.data.b	212,17
00002ab0 1b         6944 	.data.b	27
00002ab1 13         6945 	.data.b	19
00002ab2 00000000*  6946 	.data.w	.LDW_5cc5ec8
00002ab6 01         6947 	.data.b	1
00002ab7 00         6948 	.data.b	0
00002ab8 01         6949 	.data.b	1
00002ab9 01         6950 	.data.b	1
00002aba 00         6951 	.data.b	0
00002abb 01         6952 	.data.b	1
                    6953 
00002abc 00         6954 	.data.b	0
                    6955 
                    6956 .LDW_6082330:
00002abd 17         6957 	.data.b	23
00002abe 496e6143   6958 	.data.b	67,97,110,73,102,95,84,120,67,111,110,102,105,114,109,97,116,105,111,110,0
00002ac2 78545f66 
00002ac6 666e6f43 
00002aca 616d7269 
00002ace 6e6f6974 
00002ad2 00 
00002ad3 44         6959 	.data.b	68
00002ad4 18         6960 	.data.b	24
00002ad5 02         6961 	.data.b	2
00002ad6 01         6962 	.data.b	1
00002ad7 00         6963 	.data.b	0
00002ad8 01         6964 	.data.b	1
00002ad9 01         6965 	.data.b	1
00002ada 00         6966 	.data.b	0
00002adb 01         6967 	.data.b	1
                    6968 
00002adc 00         6969 	.data.b	0
                    6970 
                    6971 .LDW_60823c8:
00002add 17         6972 	.data.b	23
00002ade 496e6143   6973 	.data.b	67,97,110,73,102,95,82,120,73,110,100,105,99,97,116,105,111,110,65,115,114,52,48,51,0
00002ae2 78525f66 
00002ae6 69646e49 
00002aea 69746163 
00002aee 73416e6f 
00002af2 33303472 
00002af6 00 
00002af7 56         6974 	.data.b	86
00002af8 18         6975 	.data.b	24
00002af9 02         6976 	.data.b	2
00002afa 01         6977 	.data.b	1
00002afb 00         6978 	.data.b	0
00002afc 01         6979 	.data.b	1
00002afd 01         6980 	.data.b	1
00002afe 00         6981 	.data.b	0
00002aff 01         6982 	.data.b	1
                    6983 
00002b00 00         6984 	.data.b	0

                                                                      Page 143
                                                              C:\Users\Fengyuan\AppData\Local\Temp\gh_0000sro1.s
                    6985 
                    6986 .LDW_6082038:
00002b01 17         6987 	.data.b	23
00002b02 496e6143   6988 	.data.b	67,97,110,73,102,95,67,111,110,116,114,111,108,108,101,114,66,117,115,79,102,102,0
00002b06 6f435f66 
00002b0a 6f72746e 
00002b0e 72656c6c 
00002b12 4f737542 
00002b16 006666 
00002b19 7e         6989 	.data.b	126
00002b1a 18         6990 	.data.b	24
00002b1b 02         6991 	.data.b	2
00002b1c 01         6992 	.data.b	1
00002b1d 00         6993 	.data.b	0
00002b1e 01         6994 	.data.b	1
00002b1f 01         6995 	.data.b	1
00002b20 00         6996 	.data.b	0
00002b21 01         6997 	.data.b	1
                    6998 
00002b22 00         6999 	.data.b	0
                    7000 
                    7001 .LDW_60859c8:
00002b23 17         7002 	.data.b	23
00002b24 496e6143   7003 	.data.b	67,97,110,73,102,95,67,111,110,116,114,111,108,108,101,114,77,111,100,101,73,110,100,105,99,97,116,105,111,110,0
00002b28 6f435f66 
00002b2c 6f72746e 
00002b30 72656c6c 
00002b34 65646f4d 
00002b38 69646e49 
00002b3c 69746163 
00002b40 006e6f 
00002b43 04eb       7004 	.data.b	235,4
00002b45 18         7005 	.data.b	24
00002b46 22         7006 	.data.b	34
00002b47 01         7007 	.data.b	1
00002b48 00         7008 	.data.b	0
00002b49 01         7009 	.data.b	1
00002b4a 01         7010 	.data.b	1
00002b4b 00         7011 	.data.b	0
00002b4c 01         7012 	.data.b	1
                    7013 
00002b4d 00         7014 	.data.b	0
                    7015 
                    7016 .LDW_6085af8:
00002b4e 17         7017 	.data.b	23
00002b4f 4d686353   7018 	.data.b	83,99,104,77,95,69,110,116,101,114,95,67,97,110,95,67,65,78,95,69,88,67,76,85,83,73,86,69,95,65,82,69,65,95,54,0
00002b53 746e455f 
00002b57 435f7265 
00002b5b 435f6e61 
00002b5f 455f4e41 
00002b63 554c4358 
00002b67 45564953 
00002b6b 4552415f 
00002b6f 00365f41 
00002b73 45         7019 	.data.b	69
00002b74 16         7020 	.data.b	22
00002b75 24         7021 	.data.b	36
00002b76 01         7022 	.data.b	1
00002b77 00         7023 	.data.b	0
00002b78 01         7024 	.data.b	1
00002b79 01         7025 	.data.b	1

                                                                      Page 144
                                                              C:\Users\Fengyuan\AppData\Local\Temp\gh_0000sro1.s
00002b7a 00         7026 	.data.b	0
00002b7b 01         7027 	.data.b	1
                    7028 
00002b7c 00         7029 	.data.b	0
                    7030 
                    7031 .LDW_6085a60:
00002b7d 17         7032 	.data.b	23
00002b7e 4d686353   7033 	.data.b	83,99,104,77,95,69,120,105,116,95,67,97,110,95,67,65,78,95,69,88,67,76,85,83,73,86,69,95,65,82,69,65,95,54,0
00002b82 6978455f 
00002b86 61435f74 
00002b8a 41435f6e 
00002b8e 58455f4e 
00002b92 53554c43 
00002b96 5f455649 
00002b9a 41455241 
00002b9e 00365f 
00002ba1 46         7034 	.data.b	70
00002ba2 16         7035 	.data.b	22
00002ba3 24         7036 	.data.b	36
00002ba4 01         7037 	.data.b	1
00002ba5 00         7038 	.data.b	0
00002ba6 01         7039 	.data.b	1
00002ba7 01         7040 	.data.b	1
00002ba8 00         7041 	.data.b	0
00002ba9 01         7042 	.data.b	1
                    7043 
00002baa 00         7044 	.data.b	0
                    7045 
                    7046 .LDW_60850e0:
00002bab 18         7047 	.data.b	24
00002bac 5f746544   7048 	.data.b	68,101,116,95,82,101,112,111,114,116,69,114,114,111,114,0
00002bb0 6f706552 
00002bb4 72457472 
00002bb8 00726f72 
00002bbc 0296       7049 	.data.b	150,2
00002bbe 20         7050 	.data.b	32
00002bbf 2a         7051 	.data.b	42
00002bc0 00000000*  7052 	.data.w	.LDW_5ff14a8
00002bc4 01         7053 	.data.b	1
00002bc5 00         7054 	.data.b	0
00002bc6 01         7055 	.data.b	1
00002bc7 01         7056 	.data.b	1
00002bc8 00         7057 	.data.b	0
00002bc9 01         7058 	.data.b	1
                    7059 
00002bca 00         7060 	.data.b	0
                    7061 
                    7062 .LDW_5e0df60:
00002bcb 18         7063 	.data.b	24
00002bcc 6c707041   7064 	.data.b	65,112,112,108,67,97,110,84,105,109,101,114,76,111,111,112,0
00002bd0 546e6143 
00002bd4 72656d69 
00002bd8 706f6f4c 
00002bdc 00 
00002bdd 09a9       7065 	.data.b	169,9
00002bdf 3b         7066 	.data.b	59
00002be0 01         7067 	.data.b	1
00002be1 00000000*  7068 	.data.w	.LDW_5c53d78
00002be5 00         7069 	.data.b	0
00002be6 03         7070 	.data.b	3
00002be7 00         7071 	.data.b	0

                                                                      Page 145
                                                              C:\Users\Fengyuan\AppData\Local\Temp\gh_0000sro1.s
00002be8 01         7072 	.data.b	1
00002be9 00         7073 	.data.b	0
00002bea 01         7074 	.data.b	1
                    7075 
                    7076 .LDW_5e0dff8:
00002beb 12         7077 	.data.b	18
00002bec 72756f73   7078 	.data.b	115,111,117,114,99,101,0
00002bf0 006563 
00002bf3 09a9       7079 	.data.b	169,9
00002bf5 6d         7080 	.data.b	109
00002bf6 01         7081 	.data.b	1
00002bf7 00000000*  7082 	.data.w	.LDW_5e0df08
00002bfb 00         7083 	.data.b	0
                    7084 
                    7085 	.section	.debug_abbrev
00000126 12         7086 	.data.b	18
00000127 05         7087 	.data.b	5
00000128 00         7088 	.data.b	0
00000129 0803       7089 	.data.b	3,8
0000012b 0f3b       7090 	.data.b	59,15
0000012d 0f39       7091 	.data.b	57,15
0000012f 0f3a       7092 	.data.b	58,15
00000131 1049       7093 	.data.b	73,16
00000133 0c4b       7094 	.data.b	75,12
00000135 0000       7095 	.data.b	0,0
                    7096 
                    7097 	.section	.debug_info
                    7098 .LDW_3320508:
00002bfc 22         7099 	.data.b	34
                    7100 
                    7101 	.section	.debug_abbrev
00000137 22         7102 	.data.b	34
00000138 0b         7103 	.data.b	11
00000139 01         7104 	.data.b	1
0000013a 0000       7105 	.data.b	0,0
                    7106 
                    7107 	.section	.debug_info
                    7108 .LDW_5e0e050:
00002bfd 07         7109 	.data.b	7
00002bfe 76746572   7110 	.data.b	114,101,116,118,97,108,0
00002c02 006c61 
00002c05 09ac       7111 	.data.b	172,9
00002c07 12         7112 	.data.b	18
00002c08 01         7113 	.data.b	1
00002c09 00000000*  7114 	.data.w	.LDW_5c53d78
00002c0d 00         7115 	.data.b	0
00002c0e 00         7116 	.data.b	0
                    7117 
                    7118 .LDW_5e0e0a8:
00002c0f 07         7119 	.data.b	7
00002c10 6f727265   7120 	.data.b	101,114,114,111,114,73,100,0
00002c14 00644972 
00002c18 09ad       7121 	.data.b	173,9
00002c1a 09         7122 	.data.b	9
00002c1b 01         7123 	.data.b	1
00002c1c 00000000*  7124 	.data.w	.LDW_5e0df08
00002c20 00         7125 	.data.b	0
00002c21 00         7126 	.data.b	0
                    7127 
                    7128 .LDW_5e0e100:
00002c22 07         7129 	.data.b	7

                                                                      Page 146
                                                              C:\Users\Fengyuan\AppData\Local\Temp\gh_0000sro1.s
00002c23 49697061   7130 	.data.b	97,112,105,73,100,0
00002c27 0064 
00002c29 09ae       7131 	.data.b	174,9
00002c2b 09         7132 	.data.b	9
00002c2c 01         7133 	.data.b	1
00002c2d 00000000*  7134 	.data.w	.LDW_5e0df08
00002c31 00         7135 	.data.b	0
00002c32 00         7136 	.data.b	0
                    7137 
                    7138 .LDW_3320658:
00002c33 22         7139 	.data.b	34
                    7140 
                    7141 .LDW_5e0e260:
00002c34 07         7142 	.data.b	7
00002c35 70616c65   7143 	.data.b	101,108,97,112,115,101,100,84,105,109,101,0
00002c39 54646573 
00002c3d 00656d69 
00002c41 09c7       7144 	.data.b	199,9
00002c43 0e         7145 	.data.b	14
00002c44 01         7146 	.data.b	1
00002c45 00000000*  7147 	.data.w	.LDW_5e0e208
00002c49 00         7148 	.data.b	0
00002c4a 00         7149 	.data.b	0
                    7150 
                    7151 .LDW_5e0e2b8:
00002c4b 07         7152 	.data.b	7
00002c4c 72617473   7153 	.data.b	115,116,97,114,116,84,105,109,101,0
00002c50 6d695474 
00002c54 0065 
00002c56 09c8       7154 	.data.b	200,9
00002c58 0e         7155 	.data.b	14
00002c59 01         7156 	.data.b	1
00002c5a 00000000*  7157 	.data.w	.LDW_5e0e208
00002c5e 00         7158 	.data.b	0
00002c5f 00         7159 	.data.b	0
                    7160 
00002c60 00         7161 	.data.b	0
                    7162 
00002c61 00         7163 	.data.b	0
                    7164 
00002c62 00         7165 	.data.b	0
                    7166 
                    7167 .LDW_5e0e310:
00002c63 17         7168 	.data.b	23
00002c64 496e6143   7169 	.data.b	67,97,110,73,110,105,116,0
00002c68 0074696e 
00002c6c 0ab6       7170 	.data.b	182,10
00002c6e 31         7171 	.data.b	49
00002c6f 01         7172 	.data.b	1
00002c70 00         7173 	.data.b	0
00002c71 03         7174 	.data.b	3
00002c72 00         7175 	.data.b	0
00002c73 01         7176 	.data.b	1
00002c74 00         7177 	.data.b	0
00002c75 01         7178 	.data.b	1
                    7179 
                    7180 .LDW_5e0e8f8:
00002c76 12         7181 	.data.b	18
00002c77 74696e69   7182 	.data.b	105,110,105,116,79,98,106,101,99,116,0
00002c7b 656a624f 
00002c7f 007463 

                                                                      Page 147
                                                              C:\Users\Fengyuan\AppData\Local\Temp\gh_0000sro1.s
00002c82 0ab6       7183 	.data.b	182,10
00002c84 5a         7184 	.data.b	90
00002c85 01         7185 	.data.b	1
00002c86 00000000*  7186 	.data.w	.LDW_5e0df08
00002c8a 00         7187 	.data.b	0
                    7188 
                    7189 .LDW_33205f8:
00002c8b 22         7190 	.data.b	34
                    7191 
00002c8c 00         7192 	.data.b	0
                    7193 
00002c8d 00         7194 	.data.b	0
                    7195 
                    7196 .LDW_5e0ebb0:
00002c8e 17         7197 	.data.b	23
00002c8f 5f6e6143   7198 	.data.b	67,97,110,95,67,108,101,97,110,85,112,83,101,110,100,83,116,97,116,101,0
00002c93 61656c43 
00002c97 5370556e 
00002c9b 53646e65 
00002c9f 65746174 
00002ca3 00 
00002ca4 0ae9       7199 	.data.b	233,10
00002ca6 31         7200 	.data.b	49
00002ca7 01         7201 	.data.b	1
00002ca8 00         7202 	.data.b	0
00002ca9 03         7203 	.data.b	3
00002caa 00         7204 	.data.b	0
00002cab 01         7205 	.data.b	1
00002cac 00         7206 	.data.b	0
00002cad 01         7207 	.data.b	1
                    7208 
                    7209 .LDW_3320568:
00002cae 22         7210 	.data.b	34
                    7211 
                    7212 .LDW_5e0e480:
00002caf 07         7213 	.data.b	7
00002cb0 54676f6c   7214 	.data.b	108,111,103,84,120,79,98,106,72,97,110,100,108,101,0
00002cb4 6a624f78 
00002cb8 646e6148 
00002cbc 00656c 
00002cbf 0aec       7215 	.data.b	236,10
00002cc1 13         7216 	.data.b	19
00002cc2 01         7217 	.data.b	1
00002cc3 00000000*  7218 	.data.w	.LDW_5e0e5e0
00002cc7 00         7219 	.data.b	0
00002cc8 00         7220 	.data.b	0
                    7221 
                    7222 .LDW_5e0e9a8:
00002cc9 07         7223 	.data.b	7
00002cca 68727448   7224 	.data.b	72,116,114,104,0
00002cce 00 
00002ccf 0af0       7225 	.data.b	240,10
00002cd1 14         7226 	.data.b	20
00002cd2 01         7227 	.data.b	1
00002cd3 00000000*  7228 	.data.w	.LDW_5e0e5e0
00002cd7 00         7229 	.data.b	0
00002cd8 00         7230 	.data.b	0
                    7231 
00002cd9 00         7232 	.data.b	0
                    7233 
00002cda 00         7234 	.data.b	0

                                                                      Page 148
                                                              C:\Users\Fengyuan\AppData\Local\Temp\gh_0000sro1.s
                    7235 
                    7236 .LDW_5e0ec48:
00002cdb 18         7237 	.data.b	24
00002cdc 486e6143   7238 	.data.b	67,97,110,72,76,95,83,116,97,114,116,84,114,97,110,115,105,116,105,111,110,0
00002ce0 74535f4c 
00002ce4 54747261 
00002ce8 736e6172 
00002cec 6f697469 
00002cf0 006e 
00002cf2 0baa       7239 	.data.b	170,11
00002cf4 3b         7240 	.data.b	59
00002cf5 01         7241 	.data.b	1
00002cf6 00000000*  7242 	.data.w	.LDW_5c53d78
00002cfa 00         7243 	.data.b	0
00002cfb 03         7244 	.data.b	3
00002cfc 00         7245 	.data.b	0
00002cfd 01         7246 	.data.b	1
00002cfe 00         7247 	.data.b	0
00002cff 01         7248 	.data.b	1
                    7249 
                    7250 .LDW_3320598:
00002d00 22         7251 	.data.b	34
                    7252 
                    7253 .LDW_5e0ea58:
00002d01 07         7254 	.data.b	7
00002d02 6e617274   7255 	.data.b	116,114,97,110,115,105,116,105,111,110,82,101,113,117,101,115,116,0
00002d06 69746973 
00002d0a 65526e6f 
00002d0e 73657571 
00002d12 0074 
00002d14 0bad       7256 	.data.b	173,11
00002d16 12         7257 	.data.b	18
00002d17 01         7258 	.data.b	1
00002d18 00000000*  7259 	.data.w	.LDW_5c53d78
00002d1c 00         7260 	.data.b	0
00002d1d 00         7261 	.data.b	0
                    7262 
                    7263 .LDW_5e0e530:
00002d1e 07         7264 	.data.b	7
00002d1f 76746572   7265 	.data.b	114,101,116,118,97,108,0
00002d23 006c61 
00002d26 0bae       7266 	.data.b	174,11
00002d28 12         7267 	.data.b	18
00002d29 01         7268 	.data.b	1
00002d2a 00000000*  7269 	.data.w	.LDW_5c53d78
00002d2e 00         7270 	.data.b	0
00002d2f 00         7271 	.data.b	0
                    7272 
                    7273 .LDW_33205c8:
00002d30 22         7274 	.data.b	34
                    7275 
                    7276 .LDW_5e0e950:
00002d31 07         7277 	.data.b	7
00002d32 656c4670   7278 	.data.b	112,70,108,101,120,67,65,78,76,111,99,97,108,0
00002d36 4e414378 
00002d3a 61636f4c 
00002d3e 006c 
00002d40 0bb2       7279 	.data.b	178,11
00002d42 13         7280 	.data.b	19
00002d43 01         7281 	.data.b	1
00002d44 00000000*  7282 	.data.w	.LDW_5e0e3d0

                                                                      Page 149
                                                              C:\Users\Fengyuan\AppData\Local\Temp\gh_0000sro1.s
00002d48 00         7283 	.data.b	0
00002d49 00         7284 	.data.b	0
                    7285 
00002d4a 00         7286 	.data.b	0
                    7287 
00002d4b 00         7288 	.data.b	0
                    7289 
00002d4c 00         7290 	.data.b	0
                    7291 
                    7292 .LDW_5e0ece0:
00002d4d 18         7293 	.data.b	24
00002d4e 486e6143   7294 	.data.b	67,97,110,72,76,95,83,116,111,112,84,114,97,110,115,105,116,105,111,110,0
00002d52 74535f4c 
00002d56 7254706f 
00002d5a 69736e61 
00002d5e 6e6f6974 
00002d62 00 
00002d63 0cbc       7295 	.data.b	188,12
00002d65 3b         7296 	.data.b	59
00002d66 01         7297 	.data.b	1
00002d67 00000000*  7298 	.data.w	.LDW_5c53d78
00002d6b 00         7299 	.data.b	0
00002d6c 03         7300 	.data.b	3
00002d6d 00         7301 	.data.b	0
00002d6e 01         7302 	.data.b	1
00002d6f 00         7303 	.data.b	0
00002d70 01         7304 	.data.b	1
                    7305 
                    7306 .LDW_5f9e900:
00002d71 22         7307 	.data.b	34
                    7308 
                    7309 .LDW_5e0eab0:
00002d72 07         7310 	.data.b	7
00002d73 76746572   7311 	.data.b	114,101,116,118,97,108,0
00002d77 006c61 
00002d7a 0cbf       7312 	.data.b	191,12
00002d7c 12         7313 	.data.b	18
00002d7d 01         7314 	.data.b	1
00002d7e 00000000*  7315 	.data.w	.LDW_5c53d78
00002d82 00         7316 	.data.b	0
00002d83 00         7317 	.data.b	0
                    7318 
                    7319 .LDW_5f9e960:
00002d84 22         7320 	.data.b	34
                    7321 
                    7322 .LDW_5e0e8a0:
00002d85 07         7323 	.data.b	7
00002d86 6e617274   7324 	.data.b	116,114,97,110,115,105,116,105,111,110,82,101,113,117,101,115,116,0
00002d8a 69746973 
00002d8e 65526e6f 
00002d92 73657571 
00002d96 0074 
00002d98 0ccc       7325 	.data.b	204,12
00002d9a 14         7326 	.data.b	20
00002d9b 01         7327 	.data.b	1
00002d9c 00000000*  7328 	.data.w	.LDW_5c53d78
00002da0 00         7329 	.data.b	0
00002da1 00         7330 	.data.b	0
                    7331 
                    7332 .LDW_5f9e930:
00002da2 22         7333 	.data.b	34

                                                                      Page 150
                                                              C:\Users\Fengyuan\AppData\Local\Temp\gh_0000sro1.s
                    7334 
                    7335 .LDW_5e0e588:
00002da3 07         7336 	.data.b	7
00002da4 656c4670   7337 	.data.b	112,70,108,101,120,67,65,78,76,111,99,97,108,0
00002da8 4e414378 
00002dac 61636f4c 
00002db0 006c 
00002db2 0ccf       7338 	.data.b	207,12
00002db4 15         7339 	.data.b	21
00002db5 01         7340 	.data.b	1
00002db6 00000000*  7341 	.data.w	.LDW_5e0e3d0
00002dba 00         7342 	.data.b	0
00002dbb 00         7343 	.data.b	0
                    7344 
00002dbc 00         7345 	.data.b	0
                    7346 
                    7347 .LDW_5f9e990:
00002dbd 22         7348 	.data.b	34
                    7349 
                    7350 .LDW_5e0e428:
00002dbe 07         7351 	.data.b	7
00002dbf 656c4670   7352 	.data.b	112,70,108,101,120,67,65,78,76,111,99,97,108,0
00002dc3 4e414378 
00002dc7 61636f4c 
00002dcb 006c 
00002dcd 0ce5       7353 	.data.b	229,12
00002dcf 19         7354 	.data.b	25
00002dd0 01         7355 	.data.b	1
00002dd1 00000000*  7356 	.data.w	.LDW_5e0e3d0
00002dd5 00         7357 	.data.b	0
00002dd6 00         7358 	.data.b	0
                    7359 
00002dd7 00         7360 	.data.b	0
                    7361 
00002dd8 00         7362 	.data.b	0
                    7363 
00002dd9 00         7364 	.data.b	0
                    7365 
00002dda 00         7366 	.data.b	0
                    7367 
                    7368 .LDW_5e0ed78:
00002ddb 18         7369 	.data.b	24
00002ddc 486e6143   7370 	.data.b	67,97,110,72,76,95,87,97,107,101,117,112,84,114,97,110,115,105,116,105,111,110,0
00002de0 61575f4c 
00002de4 7075656b 
00002de8 6e617254 
00002dec 69746973 
00002df0 006e6f 
00002df3 0dc3       7371 	.data.b	195,13
00002df5 3b         7372 	.data.b	59
00002df6 01         7373 	.data.b	1
00002df7 00000000*  7374 	.data.w	.LDW_5c53d78
00002dfb 00         7375 	.data.b	0
00002dfc 03         7376 	.data.b	3
00002dfd 00         7377 	.data.b	0
00002dfe 01         7378 	.data.b	1
00002dff 00         7379 	.data.b	0
00002e00 01         7380 	.data.b	1
                    7381 
                    7382 .LDW_5f9e9c0:
00002e01 22         7383 	.data.b	34

                                                                      Page 151
                                                              C:\Users\Fengyuan\AppData\Local\Temp\gh_0000sro1.s
                    7384 
                    7385 .LDW_5e0e848:
00002e02 07         7386 	.data.b	7
00002e03 76746572   7387 	.data.b	114,101,116,118,97,108,0
00002e07 006c61 
00002e0a 0dc6       7388 	.data.b	198,13
00002e0c 12         7389 	.data.b	18
00002e0d 01         7390 	.data.b	1
00002e0e 00000000*  7391 	.data.w	.LDW_5c53d78
00002e12 00         7392 	.data.b	0
00002e13 00         7393 	.data.b	0
                    7394 
00002e14 00         7395 	.data.b	0
                    7396 
00002e15 00         7397 	.data.b	0
                    7398 
                    7399 .LDW_5e0ee10:
00002e16 18         7400 	.data.b	24
00002e17 486e6143   7401 	.data.b	67,97,110,72,76,95,83,108,101,101,112,84,114,97,110,115,105,116,105,111,110,0
00002e1b 6c535f4c 
00002e1f 54706565 
00002e23 736e6172 
00002e27 6f697469 
00002e2b 006e 
00002e2d 0ead       7402 	.data.b	173,14
00002e2f 3b         7403 	.data.b	59
00002e30 01         7404 	.data.b	1
00002e31 00000000*  7405 	.data.w	.LDW_5c53d78
00002e35 00         7406 	.data.b	0
00002e36 03         7407 	.data.b	3
00002e37 00         7408 	.data.b	0
00002e38 01         7409 	.data.b	1
00002e39 00         7410 	.data.b	0
00002e3a 01         7411 	.data.b	1
                    7412 
                    7413 .LDW_5f9e9f0:
00002e3b 22         7414 	.data.b	34
                    7415 
                    7416 .LDW_5e0e638:
00002e3c 07         7417 	.data.b	7
00002e3d 76746572   7418 	.data.b	114,101,116,118,97,108,0
00002e41 006c61 
00002e44 0eb0       7419 	.data.b	176,14
00002e46 12         7420 	.data.b	18
00002e47 01         7421 	.data.b	1
00002e48 00000000*  7422 	.data.w	.LDW_5c53d78
00002e4c 00         7423 	.data.b	0
00002e4d 00         7424 	.data.b	0
                    7425 
00002e4e 00         7426 	.data.b	0
                    7427 
00002e4f 00         7428 	.data.b	0
                    7429 
                    7430 .LDW_5e0eea8:
00002e50 18         7431 	.data.b	24
00002e51 486e6143   7432 	.data.b	67,97,110,72,76,95,87,114,105,116,101,80,114,101,112,97,114,101,0
00002e55 72575f4c 
00002e59 50657469 
00002e5d 61706572 
00002e61 006572 
00002e64 0fdb       7433 	.data.b	219,15

                                                                      Page 152
                                                              C:\Users\Fengyuan\AppData\Local\Temp\gh_0000sro1.s
00002e66 3c         7434 	.data.b	60
00002e67 01         7435 	.data.b	1
00002e68 00000000*  7436 	.data.w	.LDW_5e0e5e0
00002e6c 00         7437 	.data.b	0
00002e6d 03         7438 	.data.b	3
00002e6e 00         7439 	.data.b	0
00002e6f 01         7440 	.data.b	1
00002e70 00         7441 	.data.b	0
00002e71 01         7442 	.data.b	1
                    7443 
                    7444 .LDW_5e0e4d8:
00002e72 12         7445 	.data.b	18
00002e73 00687448   7446 	.data.b	72,116,104,0
00002e77 0fdb       7447 	.data.b	219,15
00002e79 7b         7448 	.data.b	123
00002e7a 01         7449 	.data.b	1
00002e7b 00000000*  7450 	.data.w	.LDW_5e0e5e0
00002e7f 00         7451 	.data.b	0
                    7452 
                    7453 .LDW_5ee2870:
00002e80 12         7454 	.data.b	18
00002e81 49756450   7455 	.data.b	80,100,117,73,110,102,111,0
00002e85 006f666e 
00002e89 0fdb       7456 	.data.b	219,15
00002e8b 0193       7457 	.data.b	147,1
00002e8d 01         7458 	.data.b	1
00002e8e 00000000*  7459 	.data.w	.LDW_5e0e7f0
00002e92 00         7460 	.data.b	0
                    7461 
                    7462 .LDW_5f9ea50:
00002e93 22         7463 	.data.b	34
                    7464 
                    7465 .LDW_5ee28c8:
00002e94 07         7466 	.data.b	7
00002e95 54676f6c   7467 	.data.b	108,111,103,84,120,79,98,106,72,97,110,100,108,101,0
00002e99 6a624f78 
00002e9d 646e6148 
00002ea1 00656c 
00002ea4 0fde       7468 	.data.b	222,15
00002ea6 14         7469 	.data.b	20
00002ea7 01         7470 	.data.b	1
00002ea8 00000000*  7471 	.data.w	.LDW_5e0e5e0
00002eac 00         7472 	.data.b	0
00002ead 00         7473 	.data.b	0
                    7474 
00002eae 00         7475 	.data.b	0
                    7476 
00002eaf 00         7477 	.data.b	0
                    7478 
                    7479 .LDW_5e0ef40:
00002eb0 18         7480 	.data.b	24
00002eb1 486e6143   7481 	.data.b	67,97,110,72,76,95,87,114,105,116,101,83,116,97,114,116,0
00002eb5 72575f4c 
00002eb9 53657469 
00002ebd 74726174 
00002ec1 00 
00002ec2 11da       7482 	.data.b	218,17
00002ec4 3b         7483 	.data.b	59
00002ec5 01         7484 	.data.b	1
00002ec6 00000000*  7485 	.data.w	.LDW_5c53d78
00002eca 00         7486 	.data.b	0

                                                                      Page 153
                                                              C:\Users\Fengyuan\AppData\Local\Temp\gh_0000sro1.s
00002ecb 03         7487 	.data.b	3
00002ecc 00         7488 	.data.b	0
00002ecd 01         7489 	.data.b	1
00002ece 00         7490 	.data.b	0
00002ecf 01         7491 	.data.b	1
                    7492 
                    7493 .LDW_5ee2710:
00002ed0 12         7494 	.data.b	18
00002ed1 00687448   7495 	.data.b	72,116,104,0
00002ed5 11da       7496 	.data.b	218,17
00002ed7 78         7497 	.data.b	120
00002ed8 01         7498 	.data.b	1
00002ed9 00000000*  7499 	.data.w	.LDW_5e0e5e0
00002edd 00         7500 	.data.b	0
                    7501 
                    7502 .LDW_5ee2298:
00002ede 12         7503 	.data.b	18
00002edf 54676f6c   7504 	.data.b	108,111,103,84,120,79,98,106,72,97,110,100,108,101,0
00002ee3 6a624f78 
00002ee7 646e6148 
00002eeb 00656c 
00002eee 11da       7505 	.data.b	218,17
00002ef0 018d       7506 	.data.b	141,1
00002ef2 01         7507 	.data.b	1
00002ef3 00000000*  7508 	.data.w	.LDW_5e0e5e0
00002ef7 00         7509 	.data.b	0
                    7510 
                    7511 .LDW_5ee2660:
00002ef8 12         7512 	.data.b	18
00002ef9 49756450   7513 	.data.b	80,100,117,73,110,102,111,0
00002efd 006f666e 
00002f01 11da       7514 	.data.b	218,17
00002f03 01b0       7515 	.data.b	176,1
00002f05 01         7516 	.data.b	1
00002f06 00000000*  7517 	.data.w	.LDW_5e0e7f0
00002f0a 00         7518 	.data.b	0
                    7519 
                    7520 .LDW_5f9e480:
00002f0b 22         7521 	.data.b	34
                    7522 
                    7523 .LDW_5ee2558:
00002f0c 07         7524 	.data.b	7
00002f0d 76746572   7525 	.data.b	114,101,116,118,97,108,0
00002f11 006c61 
00002f14 11dd       7526 	.data.b	221,17
00002f16 12         7527 	.data.b	18
00002f17 01         7528 	.data.b	1
00002f18 00000000*  7529 	.data.w	.LDW_5c53d78
00002f1c 00         7530 	.data.b	0
00002f1d 00         7531 	.data.b	0
                    7532 
                    7533 .LDW_5f9e6f0:
00002f1e 22         7534 	.data.b	34
                    7535 
                    7536 .LDW_5ee2a28:
00002f1f 07         7537 	.data.b	7
00002f20 624f7874   7538 	.data.b	116,120,79,98,106,72,97,110,100,108,101,0
00002f24 6e61486a 
00002f28 00656c64 
00002f2c 11e2       7539 	.data.b	226,17
00002f2e 16         7540 	.data.b	22

                                                                      Page 154
                                                              C:\Users\Fengyuan\AppData\Local\Temp\gh_0000sro1.s
00002f2f 01         7541 	.data.b	1
00002f30 00000000*  7542 	.data.w	.LDW_5e0e5e0
00002f34 00         7543 	.data.b	0
00002f35 00         7544 	.data.b	0
                    7545 
                    7546 .LDW_5ee2138:
00002f36 07         7547 	.data.b	7
00002f37 4d6e6143   7548 	.data.b	67,97,110,77,101,109,67,111,112,121,83,114,99,80,116,114,0
00002f3b 6f436d65 
00002f3f 72537970 
00002f43 72745063 
00002f47 00 
00002f48 11e3       7549 	.data.b	227,17
00002f4a 16         7550 	.data.b	22
00002f4b 01         7551 	.data.b	1
00002f4c 00000000*  7552 	.data.w	.LDW_5ee25b0
00002f50 00         7553 	.data.b	0
00002f51 00         7554 	.data.b	0
                    7555 
                    7556 .LDW_5ee23f8:
00002f52 07         7557 	.data.b	7
00002f53 656c4670   7558 	.data.b	112,70,108,101,120,67,65,78,76,111,99,97,108,0
00002f57 4e414378 
00002f5b 61636f4c 
00002f5f 006c 
00002f61 11f2       7559 	.data.b	242,17
00002f63 11         7560 	.data.b	17
00002f64 01         7561 	.data.b	1
00002f65 00000000*  7562 	.data.w	.LDW_5e0e3d0
00002f69 00         7563 	.data.b	0
00002f6a 00         7564 	.data.b	0
                    7565 
                    7566 .LDW_5ee24a8:
00002f6b 07         7567 	.data.b	7
00002f6c 546e6163   7568 	.data.b	99,97,110,84,120,66,117,102,0
00002f70 66754278 
00002f74 00 
00002f75 11f3       7569 	.data.b	243,17
00002f77 11         7570 	.data.b	17
00002f78 01         7571 	.data.b	1
00002f79 00000000*  7572 	.data.w	.LDW_5ee3060
00002f7d 00         7573 	.data.b	0
00002f7e 00         7574 	.data.b	0
                    7575 
00002f7f 00         7576 	.data.b	0
                    7577 
00002f80 00         7578 	.data.b	0
                    7579 
00002f81 00         7580 	.data.b	0
                    7581 
                    7582 .LDW_5ee30e8:
00002f82 17         7583 	.data.b	23
00002f83 486e6143   7584 	.data.b	67,97,110,72,76,95,83,116,97,114,116,80,114,111,99,101,115,115,101,100,0
00002f87 74535f4c 
00002f8b 50747261 
00002f8f 65636f72 
00002f93 64657373 
00002f97 00 
00002f98 13c2       7585 	.data.b	194,19
00002f9a 31         7586 	.data.b	49
00002f9b 01         7587 	.data.b	1

                                                                      Page 155
                                                              C:\Users\Fengyuan\AppData\Local\Temp\gh_0000sro1.s
00002f9c 00         7588 	.data.b	0
00002f9d 03         7589 	.data.b	3
00002f9e 00         7590 	.data.b	0
00002f9f 01         7591 	.data.b	1
00002fa0 00         7592 	.data.b	0
00002fa1 01         7593 	.data.b	1
                    7594 
                    7595 .LDW_5f9e3f0:
00002fa2 22         7596 	.data.b	34
                    7597 
                    7598 .LDW_5ee2348:
00002fa3 07         7599 	.data.b	7
00002fa4 6e617274   7600 	.data.b	116,114,97,110,115,105,116,105,111,110,68,111,110,101,0
00002fa8 69746973 
00002fac 6f446e6f 
00002fb0 00656e 
00002fb3 13c5       7601 	.data.b	197,19
00002fb5 12         7602 	.data.b	18
00002fb6 01         7603 	.data.b	1
00002fb7 00000000*  7604 	.data.w	.LDW_5c53d78
00002fbb 00         7605 	.data.b	0
00002fbc 00         7606 	.data.b	0
                    7607 
00002fbd 00         7608 	.data.b	0
                    7609 
00002fbe 00         7610 	.data.b	0
                    7611 
                    7612 .LDW_5ee3180:
00002fbf 17         7613 	.data.b	23
00002fc0 486e6143   7614 	.data.b	67,97,110,72,76,95,83,116,111,112,80,114,111,99,101,115,115,101,100,0
00002fc4 74535f4c 
00002fc8 7250706f 
00002fcc 7365636f 
00002fd0 00646573 
00002fd4 1489       7615 	.data.b	137,20
00002fd6 31         7616 	.data.b	49
00002fd7 01         7617 	.data.b	1
00002fd8 00         7618 	.data.b	0
00002fd9 03         7619 	.data.b	3
00002fda 00         7620 	.data.b	0
00002fdb 01         7621 	.data.b	1
00002fdc 00         7622 	.data.b	0
00002fdd 01         7623 	.data.b	1
                    7624 
                    7625 .LDW_5f9e660:
00002fde 22         7626 	.data.b	34
                    7627 
                    7628 .LDW_5ee2ad8:
00002fdf 07         7629 	.data.b	7
00002fe0 6e617274   7630 	.data.b	116,114,97,110,115,105,116,105,111,110,68,111,110,101,0
00002fe4 69746973 
00002fe8 6f446e6f 
00002fec 00656e 
00002fef 148c       7631 	.data.b	140,20
00002ff1 12         7632 	.data.b	18
00002ff2 01         7633 	.data.b	1
00002ff3 00000000*  7634 	.data.w	.LDW_5c53d78
00002ff7 00         7635 	.data.b	0
00002ff8 00         7636 	.data.b	0
                    7637 
                    7638 .LDW_5f9e3c0:

                                                                      Page 156
                                                              C:\Users\Fengyuan\AppData\Local\Temp\gh_0000sro1.s
00002ff9 22         7639 	.data.b	34
                    7640 
                    7641 .LDW_5ee2450:
00002ffa 07         7642 	.data.b	7
00002ffb 656c4670   7643 	.data.b	112,70,108,101,120,67,65,78,76,111,99,97,108,0
00002fff 4e414378 
00003003 61636f4c 
00003007 006c 
00003009 1490       7644 	.data.b	144,20
0000300b 11         7645 	.data.b	17
0000300c 01         7646 	.data.b	1
0000300d 00000000*  7647 	.data.w	.LDW_5e0e3d0
00003011 00         7648 	.data.b	0
00003012 00         7649 	.data.b	0
                    7650 
00003013 00         7651 	.data.b	0
                    7652 
00003014 00         7653 	.data.b	0
                    7654 
00003015 00         7655 	.data.b	0
                    7656 
                    7657 .LDW_5ee3218:
00003016 18         7658 	.data.b	24
00003017 486e6143   7659 	.data.b	67,97,110,72,76,95,71,101,116,84,120,72,119,84,111,76,111,103,72,97,110,100,108,101,0
0000301b 65475f4c 
0000301f 48785474 
00003023 4c6f5477 
00003027 6148676f 
0000302b 656c646e 
0000302f 00 
00003030 14c5       7660 	.data.b	197,20
00003032 3c         7661 	.data.b	60
00003033 01         7662 	.data.b	1
00003034 00000000*  7663 	.data.w	.LDW_5e0e5e0
00003038 00         7664 	.data.b	0
00003039 03         7665 	.data.b	3
0000303a 00         7666 	.data.b	0
0000303b 01         7667 	.data.b	1
0000303c 00         7668 	.data.b	0
0000303d 01         7669 	.data.b	1
                    7670 
                    7671 .LDW_5ee26b8:
0000303e 12         7672 	.data.b	18
0000303f 78547768   7673 	.data.b	104,119,84,120,79,98,106,72,97,110,100,108,101,0
00003043 486a624f 
00003047 6c646e61 
0000304b 0065 
0000304d 14c5       7674 	.data.b	197,20
0000304f 0181       7675 	.data.b	129,1
00003051 01         7676 	.data.b	1
00003052 00000000*  7677 	.data.w	.LDW_5e0e5e0
00003056 00         7678 	.data.b	0
                    7679 
                    7680 .LDW_5f9e7b0:
00003057 22         7681 	.data.b	34
                    7682 
                    7683 .LDW_5ee2a80:
00003058 07         7684 	.data.b	7
00003059 54676f6c   7685 	.data.b	108,111,103,84,120,79,98,106,72,97,110,100,108,101,0
0000305d 6a624f78 
00003061 646e6148 

                                                                      Page 157
                                                              C:\Users\Fengyuan\AppData\Local\Temp\gh_0000sro1.s
00003065 00656c 
00003068 14c8       7686 	.data.b	200,20
0000306a 13         7687 	.data.b	19
0000306b 01         7688 	.data.b	1
0000306c 00000000*  7689 	.data.w	.LDW_5e0e5e0
00003070 00         7690 	.data.b	0
00003071 00         7691 	.data.b	0
                    7692 
00003072 00         7693 	.data.b	0
                    7694 
00003073 00         7695 	.data.b	0
                    7696 
                    7697 .LDW_5ee32b0:
00003074 18         7698 	.data.b	24
00003075 486e6143   7699 	.data.b	67,97,110,72,76,95,71,101,116,84,120,76,111,103,84,111,72,119,72,97,110,100,108,101,0
00003079 65475f4c 
0000307d 4c785474 
00003081 6f54676f 
00003085 61487748 
00003089 656c646e 
0000308d 00 
0000308e 14f4       7700 	.data.b	244,20
00003090 3d         7701 	.data.b	61
00003091 01         7702 	.data.b	1
00003092 00000000*  7703 	.data.w	.LDW_5e0e5e0
00003096 00         7704 	.data.b	0
00003097 03         7705 	.data.b	3
00003098 00         7706 	.data.b	0
00003099 01         7707 	.data.b	1
0000309a 00         7708 	.data.b	0
0000309b 01         7709 	.data.b	1
                    7710 
                    7711 .LDW_5ee2190:
0000309c 12         7712 	.data.b	18
0000309d 54676f6c   7713 	.data.b	108,111,103,84,120,79,98,106,72,97,110,100,108,101,0
000030a1 6a624f78 
000030a5 646e6148 
000030a9 00656c 
000030ac 14f4       7714 	.data.b	244,20
000030ae 0181       7715 	.data.b	129,1
000030b0 01         7716 	.data.b	1
000030b1 00000000*  7717 	.data.w	.LDW_5e0e5e0
000030b5 00         7718 	.data.b	0
                    7719 
                    7720 .LDW_5f9e540:
000030b6 22         7721 	.data.b	34
                    7722 
                    7723 .LDW_5ee27c0:
000030b7 07         7724 	.data.b	7
000030b8 78547768   7725 	.data.b	104,119,84,120,79,98,106,72,97,110,100,108,101,0
000030bc 486a624f 
000030c0 6c646e61 
000030c4 0065 
000030c6 14f7       7726 	.data.b	247,20
000030c8 14         7727 	.data.b	20
000030c9 01         7728 	.data.b	1
000030ca 00000000*  7729 	.data.w	.LDW_5e0e5e0
000030ce 00         7730 	.data.b	0
000030cf 00         7731 	.data.b	0
                    7732 
000030d0 00         7733 	.data.b	0

                                                                      Page 158
                                                              C:\Users\Fengyuan\AppData\Local\Temp\gh_0000sro1.s
                    7734 
000030d1 00         7735 	.data.b	0
                    7736 
                    7737 .LDW_5ee3348:
000030d2 18         7738 	.data.b	24
000030d3 486e6143   7739 	.data.b	67,97,110,72,76,95,83,101,116,86,97,108,117,101,49,54,0
000030d7 65535f4c 
000030db 6c615674 
000030df 36316575 
000030e3 00 
000030e4 15d2       7740 	.data.b	210,21
000030e6 32         7741 	.data.b	50
000030e7 01         7742 	.data.b	1
000030e8 00000000*  7743 	.data.w	.LDW_5e0df08
000030ec 00         7744 	.data.b	0
000030ed 03         7745 	.data.b	3
000030ee 00         7746 	.data.b	0
000030ef 01         7747 	.data.b	1
000030f0 00         7748 	.data.b	0
000030f1 01         7749 	.data.b	1
                    7750 
                    7751 .LDW_5ee2b30:
000030f2 12         7752 	.data.b	18
000030f3 50676572   7753 	.data.b	114,101,103,80,116,114,0
000030f7 007274 
000030fa 15d2       7754 	.data.b	210,21
000030fc 6e         7755 	.data.b	110
000030fd 01         7756 	.data.b	1
000030fe 00000000*  7757 	.data.w	.LDW_5ee2978
00003102 00         7758 	.data.b	0
                    7759 
                    7760 .LDW_5ee20e0:
00003103 12         7761 	.data.b	18
00003104 756c6176   7762 	.data.b	118,97,108,117,101,0
00003108 0065 
0000310a 15d2       7763 	.data.b	210,21
0000310c 7d         7764 	.data.b	125
0000310d 01         7765 	.data.b	1
0000310e 00000000*  7766 	.data.w	.LDW_5ee2818
00003112 00         7767 	.data.b	0
                    7768 
                    7769 .LDW_5ee2768:
00003113 12         7770 	.data.b	18
00003114 64616572   7771 	.data.b	114,101,97,100,77,97,115,107,0
00003118 6b73614d 
0000311c 00 
0000311d 15d2       7772 	.data.b	210,21
0000311f 018b       7773 	.data.b	139,1
00003121 01         7774 	.data.b	1
00003122 00000000*  7775 	.data.w	.LDW_5ee2818
00003126 00         7776 	.data.b	0
                    7777 
                    7778 .LDW_5f9e8d0:
00003127 22         7779 	.data.b	34
                    7780 
                    7781 .LDW_5ee21e8:
00003128 07         7782 	.data.b	7
00003129 75736572   7783 	.data.b	114,101,115,117,108,116,0
0000312d 00746c 
00003130 15d4       7784 	.data.b	212,21
00003132 09         7785 	.data.b	9

                                                                      Page 159
                                                              C:\Users\Fengyuan\AppData\Local\Temp\gh_0000sro1.s
00003133 01         7786 	.data.b	1
00003134 00000000*  7787 	.data.w	.LDW_5e0df08
00003138 00         7788 	.data.b	0
00003139 00         7789 	.data.b	0
                    7790 
0000313a 00         7791 	.data.b	0
                    7792 
0000313b 00         7793 	.data.b	0
                    7794 
                    7795 .LDW_5ee3be8:
0000313c 18         7796 	.data.b	24
0000313d 486e6143   7797 	.data.b	67,97,110,72,76,95,83,101,116,86,97,108,117,101,51,50,0
00003141 65535f4c 
00003145 6c615674 
00003149 32336575 
0000314d 00 
0000314e 1683       7798 	.data.b	131,22
00003150 32         7799 	.data.b	50
00003151 01         7800 	.data.b	1
00003152 00000000*  7801 	.data.w	.LDW_5e0df08
00003156 00         7802 	.data.b	0
00003157 03         7803 	.data.b	3
00003158 00         7804 	.data.b	0
00003159 01         7805 	.data.b	1
0000315a 00         7806 	.data.b	0
0000315b 01         7807 	.data.b	1
                    7808 
                    7809 .LDW_5ee2088:
0000315c 12         7810 	.data.b	18
0000315d 50676572   7811 	.data.b	114,101,103,80,116,114,0
00003161 007274 
00003164 1683       7812 	.data.b	131,22
00003166 6e         7813 	.data.b	110
00003167 01         7814 	.data.b	1
00003168 00000000*  7815 	.data.w	.LDW_5ee29d0
0000316c 00         7816 	.data.b	0
                    7817 
                    7818 .LDW_5ee2240:
0000316d 12         7819 	.data.b	18
0000316e 756c6176   7820 	.data.b	118,97,108,117,101,0
00003172 0065 
00003174 1683       7821 	.data.b	131,22
00003176 7d         7822 	.data.b	125
00003177 01         7823 	.data.b	1
00003178 00000000*  7824 	.data.w	.LDW_5e0e158
0000317c 00         7825 	.data.b	0
                    7826 
                    7827 .LDW_5ee22f0:
0000317d 12         7828 	.data.b	18
0000317e 64616572   7829 	.data.b	114,101,97,100,77,97,115,107,0
00003182 6b73614d 
00003186 00 
00003187 1683       7830 	.data.b	131,22
00003189 018b       7831 	.data.b	139,1
0000318b 01         7832 	.data.b	1
0000318c 00000000*  7833 	.data.w	.LDW_5e0e158
00003190 00         7834 	.data.b	0
                    7835 
                    7836 .LDW_5f9e570:
00003191 22         7837 	.data.b	34
                    7838 

                                                                      Page 160
                                                              C:\Users\Fengyuan\AppData\Local\Temp\gh_0000sro1.s
                    7839 .LDW_5ee23a0:
00003192 07         7840 	.data.b	7
00003193 75736572   7841 	.data.b	114,101,115,117,108,116,0
00003197 00746c 
0000319a 1685       7842 	.data.b	133,22
0000319c 09         7843 	.data.b	9
0000319d 01         7844 	.data.b	1
0000319e 00000000*  7845 	.data.w	.LDW_5e0df08
000031a2 00         7846 	.data.b	0
000031a3 00         7847 	.data.b	0
                    7848 
000031a4 00         7849 	.data.b	0
                    7850 
000031a5 00         7851 	.data.b	0
                    7852 
                    7853 .LDW_5ee3c80:
000031a6 18         7854 	.data.b	24
000031a7 486e6143   7855 	.data.b	67,97,110,72,76,95,83,101,116,79,115,86,97,108,117,101,49,54,0
000031ab 65535f4c 
000031af 56734f74 
000031b3 65756c61 
000031b7 003631 
000031ba 16b5       7856 	.data.b	181,22
000031bc 32         7857 	.data.b	50
000031bd 01         7858 	.data.b	1
000031be 00000000*  7859 	.data.w	.LDW_5e0df08
000031c2 00         7860 	.data.b	0
000031c3 03         7861 	.data.b	3
000031c4 00         7862 	.data.b	0
000031c5 01         7863 	.data.b	1
000031c6 00         7864 	.data.b	0
000031c7 01         7865 	.data.b	1
                    7866 
                    7867 .LDW_5ee2500:
000031c8 12         7868 	.data.b	18
000031c9 61657261   7869 	.data.b	97,114,101,97,0
000031cd 00 
000031ce 16b5       7870 	.data.b	181,22
000031d0 67         7871 	.data.b	103
000031d1 01         7872 	.data.b	1
000031d2 00000000*  7873 	.data.w	.LDW_5ee2818
000031d6 00         7874 	.data.b	0
                    7875 
                    7876 .LDW_5ee2fa8:
000031d7 12         7877 	.data.b	18
000031d8 50676572   7878 	.data.b	114,101,103,80,116,114,0
000031dc 007274 
000031df 16b5       7879 	.data.b	181,22
000031e1 7d         7880 	.data.b	125
000031e2 01         7881 	.data.b	1
000031e3 00000000*  7882 	.data.w	.LDW_5ee2978
000031e7 00         7883 	.data.b	0
                    7884 
                    7885 .LDW_5ee2df0:
000031e8 12         7886 	.data.b	18
000031e9 756c6176   7887 	.data.b	118,97,108,117,101,0
000031ed 0065 
000031ef 16b5       7888 	.data.b	181,22
000031f1 018c       7889 	.data.b	140,1
000031f3 01         7890 	.data.b	1
000031f4 00000000*  7891 	.data.w	.LDW_5ee2818

                                                                      Page 161
                                                              C:\Users\Fengyuan\AppData\Local\Temp\gh_0000sro1.s
000031f8 00         7892 	.data.b	0
                    7893 
                    7894 .LDW_5ee2e48:
000031f9 12         7895 	.data.b	18
000031fa 64616572   7896 	.data.b	114,101,97,100,77,97,115,107,0
000031fe 6b73614d 
00003202 00 
00003203 16b5       7897 	.data.b	181,22
00003205 019a       7898 	.data.b	154,1
00003207 01         7899 	.data.b	1
00003208 00000000*  7900 	.data.w	.LDW_5ee2818
0000320c 00         7901 	.data.b	0
                    7902 
                    7903 .LDW_5f9e6c0:
0000320d 22         7904 	.data.b	34
                    7905 
                    7906 .LDW_5ee2d98:
0000320e 07         7907 	.data.b	7
0000320f 75736572   7908 	.data.b	114,101,115,117,108,116,0
00003213 00746c 
00003216 16b7       7909 	.data.b	183,22
00003218 09         7910 	.data.b	9
00003219 01         7911 	.data.b	1
0000321a 00000000*  7912 	.data.w	.LDW_5e0df08
0000321e 00         7913 	.data.b	0
0000321f 00         7914 	.data.b	0
                    7915 
00003220 00         7916 	.data.b	0
                    7917 
00003221 00         7918 	.data.b	0
                    7919 
                    7920 .LDW_5ee3d18:
00003222 18         7921 	.data.b	24
00003223 486e6143   7922 	.data.b	67,97,110,72,76,95,73,110,105,116,66,101,103,105,110,0
00003227 6e495f4c 
0000322b 65427469 
0000322f 006e6967 
00003233 16e9       7923 	.data.b	233,22
00003235 32         7924 	.data.b	50
00003236 01         7925 	.data.b	1
00003237 00000000*  7926 	.data.w	.LDW_5e0df08
0000323b 00         7927 	.data.b	0
0000323c 03         7928 	.data.b	3
0000323d 00         7929 	.data.b	0
0000323e 01         7930 	.data.b	1
0000323f 00         7931 	.data.b	0
00003240 01         7932 	.data.b	1
                    7933 
                    7934 .LDW_5ee2f50:
00003241 12         7935 	.data.b	18
00003242 74696e69   7936 	.data.b	105,110,105,116,73,110,102,111,0
00003246 6f666e49 
0000324a 00 
0000324b 16e9       7937 	.data.b	233,22
0000324d 56         7938 	.data.b	86
0000324e 01         7939 	.data.b	1
0000324f 00000000*  7940 	.data.w	.LDW_5ee2ef8
00003253 00         7941 	.data.b	0
                    7942 
                    7943 .LDW_5f9e720:
00003254 22         7944 	.data.b	34

                                                                      Page 162
                                                              C:\Users\Fengyuan\AppData\Local\Temp\gh_0000sro1.s
                    7945 
                    7946 .LDW_5ee3000:
00003255 07         7947 	.data.b	7
00003256 6f727265   7948 	.data.b	101,114,114,111,114,73,100,0
0000325a 00644972 
0000325e 16ec       7949 	.data.b	236,22
00003260 09         7950 	.data.b	9
00003261 01         7951 	.data.b	1
00003262 00000000*  7952 	.data.w	.LDW_5e0df08
00003266 00         7953 	.data.b	0
00003267 00         7954 	.data.b	0
                    7955 
                    7956 .LDW_5ee2be0:
00003268 07         7957 	.data.b	7
00003269 74696e69   7958 	.data.b	105,110,105,116,79,98,106,101,99,116,0
0000326d 656a624f 
00003271 007463 
00003274 16ed       7959 	.data.b	237,22
00003276 12         7960 	.data.b	18
00003277 01         7961 	.data.b	1
00003278 00000000*  7962 	.data.w	.LDW_5ee2b88
0000327c 00         7963 	.data.b	0
0000327d 00         7964 	.data.b	0
                    7965 
                    7966 .LDW_5f9e420:
0000327e 22         7967 	.data.b	34
                    7968 
                    7969 .LDW_5ee2c38:
0000327f 07         7970 	.data.b	7
00003280 43706d74   7971 	.data.b	116,109,112,67,65,78,109,97,120,109,98,0
00003284 616d4e41 
00003288 00626d78 
0000328c 178c       7972 	.data.b	140,23
0000328e 0d         7973 	.data.b	13
0000328f 01         7974 	.data.b	1
00003290 00000000*  7975 	.data.w	.LDW_5ee2818
00003294 00         7976 	.data.b	0
00003295 00         7977 	.data.b	0
                    7978 
                    7979 .LDW_5ee2c90:
00003296 07         7980 	.data.b	7
00003297 43706d74   7981 	.data.b	116,109,112,67,65,78,109,99,114,0
0000329b 636d4e41 
0000329f 0072 
000032a1 178c       7982 	.data.b	140,23
000032a3 19         7983 	.data.b	25
000032a4 01         7984 	.data.b	1
000032a5 00000000*  7985 	.data.w	.LDW_5ee2818
000032a9 00         7986 	.data.b	0
000032aa 00         7987 	.data.b	0
                    7988 
                    7989 .LDW_5ee2ce8:
000032ab 07         7990 	.data.b	7
000032ac 43706d74   7991 	.data.b	116,109,112,67,65,78,99,116,114,108,50,0
000032b0 74634e41 
000032b4 00326c72 
000032b8 178d       7992 	.data.b	141,23
000032ba 0d         7993 	.data.b	13
000032bb 01         7994 	.data.b	1
000032bc 00000000*  7995 	.data.w	.LDW_5e0e158
000032c0 00         7996 	.data.b	0

                                                                      Page 163
                                                              C:\Users\Fengyuan\AppData\Local\Temp\gh_0000sro1.s
000032c1 00         7997 	.data.b	0
                    7998 
                    7999 .LDW_5ee43b8:
000032c2 07         8000 	.data.b	7
000032c3 43706d74   8001 	.data.b	116,109,112,67,65,78,99,111,110,116,114,111,108,49,0
000032c7 6f634e41 
000032cb 6f72746e 
000032cf 00316c 
000032d2 178d       8002 	.data.b	141,23
000032d4 19         8003 	.data.b	25
000032d5 01         8004 	.data.b	1
000032d6 00000000*  8005 	.data.w	.LDW_5e0e158
000032da 00         8006 	.data.b	0
000032db 00         8007 	.data.b	0
                    8008 
                    8009 .LDW_5ee4360:
000032dc 07         8010 	.data.b	7
000032dd 656c4670   8011 	.data.b	112,70,108,101,120,67,65,78,76,111,99,97,108,0
000032e1 4e414378 
000032e5 61636f4c 
000032e9 006c 
000032eb 178e       8012 	.data.b	142,23
000032ed 11         8013 	.data.b	17
000032ee 01         8014 	.data.b	1
000032ef 00000000*  8015 	.data.w	.LDW_5e0e3d0
000032f3 00         8016 	.data.b	0
000032f4 00         8017 	.data.b	0
                    8018 
000032f5 00         8019 	.data.b	0
                    8020 
000032f6 00         8021 	.data.b	0
                    8022 
000032f7 00         8023 	.data.b	0
                    8024 
                    8025 .LDW_5fcf238:
000032f8 18         8026 	.data.b	24
000032f9 486e6143   8027 	.data.b	67,97,110,72,76,95,73,110,105,116,84,120,66,97,115,105,99,67,65,78,0
000032fd 6e495f4c 
00003301 78547469 
00003305 69736142 
00003309 4e414363 
0000330d 00 
0000330e 19c9       8028 	.data.b	201,25
00003310 32         8029 	.data.b	50
00003311 01         8030 	.data.b	1
00003312 00000000*  8031 	.data.w	.LDW_5e0df08
00003316 00         8032 	.data.b	0
00003317 03         8033 	.data.b	3
00003318 00         8034 	.data.b	0
00003319 01         8035 	.data.b	1
0000331a 00         8036 	.data.b	0
0000331b 01         8037 	.data.b	1
                    8038 
                    8039 .LDW_5ee4258:
0000331c 12         8040 	.data.b	18
0000331d 74696e69   8041 	.data.b	105,110,105,116,73,110,102,111,0
00003321 6f666e49 
00003325 00 
00003326 19c9       8042 	.data.b	201,25
00003328 5b         8043 	.data.b	91
00003329 01         8044 	.data.b	1

                                                                      Page 164
                                                              C:\Users\Fengyuan\AppData\Local\Temp\gh_0000sro1.s
0000332a 00000000*  8045 	.data.w	.LDW_5ee2ef8
0000332e 00         8046 	.data.b	0
                    8047 
                    8048 .LDW_5f9e4e0:
0000332f 22         8049 	.data.b	34
                    8050 
                    8051 .LDW_5ee4728:
00003330 07         8052 	.data.b	7
00003331 6f727265   8053 	.data.b	101,114,114,111,114,73,100,0
00003335 00644972 
00003339 19cc       8054 	.data.b	204,25
0000333b 09         8055 	.data.b	9
0000333c 01         8056 	.data.b	1
0000333d 00000000*  8057 	.data.w	.LDW_5e0df08
00003341 00         8058 	.data.b	0
00003342 00         8059 	.data.b	0
                    8060 
                    8061 .LDW_5ee4048:
00003343 07         8062 	.data.b	7
00003344 624f7768   8063 	.data.b	104,119,79,98,106,72,97,110,100,108,101,0
00003348 6e61486a 
0000334c 00656c64 
00003350 19cd       8064 	.data.b	205,25
00003352 14         8065 	.data.b	20
00003353 01         8066 	.data.b	1
00003354 00000000*  8067 	.data.w	.LDW_5e0e5e0
00003358 00         8068 	.data.b	0
00003359 00         8069 	.data.b	0
                    8070 
                    8071 .LDW_5ee40a0:
0000335a 07         8072 	.data.b	7
0000335b 68727448   8073 	.data.b	72,116,114,104,0
0000335f 00 
00003360 19ce       8074 	.data.b	206,25
00003362 14         8075 	.data.b	20
00003363 01         8076 	.data.b	1
00003364 00000000*  8077 	.data.w	.LDW_5e0e5e0
00003368 00         8078 	.data.b	0
00003369 00         8079 	.data.b	0
                    8080 
                    8081 .LDW_5ee45c8:
0000336a 07         8082 	.data.b	7
0000336b 54676f6c   8083 	.data.b	108,111,103,84,120,79,98,106,72,97,110,100,108,101,0
0000336f 6a624f78 
00003373 646e6148 
00003377 00656c 
0000337a 19cf       8084 	.data.b	207,25
0000337c 13         8085 	.data.b	19
0000337d 01         8086 	.data.b	1
0000337e 00000000*  8087 	.data.w	.LDW_5e0e5e0
00003382 00         8088 	.data.b	0
00003383 00         8089 	.data.b	0
                    8090 
00003384 00         8091 	.data.b	0
                    8092 
00003385 00         8093 	.data.b	0
                    8094 
                    8095 .LDW_5fcebb0:
00003386 18         8096 	.data.b	24
00003387 486e6143   8097 	.data.b	67,97,110,72,76,95,73,110,105,116,82,120,66,97,115,105,99,67,65,78,0
0000338b 6e495f4c 

                                                                      Page 165
                                                              C:\Users\Fengyuan\AppData\Local\Temp\gh_0000sro1.s
0000338f 78527469 
00003393 69736142 
00003397 4e414363 
0000339b 00 
0000339c 1c84       8098 	.data.b	132,28
0000339e 32         8099 	.data.b	50
0000339f 01         8100 	.data.b	1
000033a0 00000000*  8101 	.data.w	.LDW_5e0df08
000033a4 00         8102 	.data.b	0
000033a5 03         8103 	.data.b	3
000033a6 00         8104 	.data.b	0
000033a7 01         8105 	.data.b	1
000033a8 00         8106 	.data.b	0
000033a9 01         8107 	.data.b	1
                    8108 
                    8109 .LDW_5ee40f8:
000033aa 12         8110 	.data.b	18
000033ab 74696e69   8111 	.data.b	105,110,105,116,73,110,102,111,0
000033af 6f666e49 
000033b3 00 
000033b4 1c84       8112 	.data.b	132,28
000033b6 5b         8113 	.data.b	91
000033b7 01         8114 	.data.b	1
000033b8 00000000*  8115 	.data.w	.LDW_5ee2ef8
000033bc 00         8116 	.data.b	0
                    8117 
                    8118 .LDW_5f9e5d0:
000033bd 22         8119 	.data.b	34
                    8120 
                    8121 .LDW_5ee4830:
000033be 07         8122 	.data.b	7
000033bf 6f727265   8123 	.data.b	101,114,114,111,114,73,100,0
000033c3 00644972 
000033c7 1c87       8124 	.data.b	135,28
000033c9 09         8125 	.data.b	9
000033ca 01         8126 	.data.b	1
000033cb 00000000*  8127 	.data.w	.LDW_5e0df08
000033cf 00         8128 	.data.b	0
000033d0 00         8129 	.data.b	0
                    8130 
                    8131 .LDW_5ee4888:
000033d1 07         8132 	.data.b	7
000033d2 624f7768   8133 	.data.b	104,119,79,98,106,72,97,110,100,108,101,0
000033d6 6e61486a 
000033da 00656c64 
000033de 1c88       8134 	.data.b	136,28
000033e0 14         8135 	.data.b	20
000033e1 01         8136 	.data.b	1
000033e2 00000000*  8137 	.data.w	.LDW_5e0e5e0
000033e6 00         8138 	.data.b	0
000033e7 00         8139 	.data.b	0
                    8140 
                    8141 .LDW_5ee47d8:
000033e8 07         8142 	.data.b	7
000033e9 68727448   8143 	.data.b	72,116,114,104,0
000033ed 00 
000033ee 1c89       8144 	.data.b	137,28
000033f0 14         8145 	.data.b	20
000033f1 01         8146 	.data.b	1
000033f2 00000000*  8147 	.data.w	.LDW_5e0e5e0
000033f6 00         8148 	.data.b	0

                                                                      Page 166
                                                              C:\Users\Fengyuan\AppData\Local\Temp\gh_0000sro1.s
000033f7 00         8149 	.data.b	0
                    8150 
                    8151 .LDW_5fdfe90:
000033f8 22         8152 	.data.b	34
                    8153 
                    8154 .LDW_5ee4410:
000033f9 07         8155 	.data.b	7
000033fa 656c4670   8156 	.data.b	112,70,108,101,120,67,65,78,76,111,99,97,108,0
000033fe 4e414378 
00003402 61636f4c 
00003406 006c 
00003408 1ca0       8157 	.data.b	160,28
0000340a 15         8158 	.data.b	21
0000340b 01         8159 	.data.b	1
0000340c 00000000*  8160 	.data.w	.LDW_5e0e3d0
00003410 00         8161 	.data.b	0
00003411 00         8162 	.data.b	0
                    8163 
                    8164 .LDW_5ee4620:
00003412 07         8165 	.data.b	7
00003413 746c6966   8166 	.data.b	102,105,108,116,101,114,72,97,110,100,108,101,0
00003417 61487265 
0000341b 656c646e 
0000341f 00 
00003420 1ca2       8167 	.data.b	162,28
00003422 10         8168 	.data.b	16
00003423 01         8169 	.data.b	1
00003424 00000000*  8170 	.data.w	.LDW_5e0df08
00003428 00         8171 	.data.b	0
00003429 00         8172 	.data.b	0
                    8173 
                    8174 .LDW_5ee3de0:
0000342a 07         8175 	.data.b	7
0000342b 4d636f6c   8176 	.data.b	108,111,99,77,115,103,73,68,77,97,115,107,0
0000342f 44496773 
00003433 6b73614d 
00003437 00 
00003438 1ca4       8177 	.data.b	164,28
0000343a 11         8178 	.data.b	17
0000343b 01         8179 	.data.b	1
0000343c 00000000*  8180 	.data.w	.LDW_5e0e158
00003440 00         8181 	.data.b	0
00003441 00         8182 	.data.b	0
                    8183 
                    8184 .LDW_5ee3ff0:
00003442 07         8185 	.data.b	7
00003443 46785270   8186 	.data.b	112,82,120,70,73,70,79,0
00003447 004f4649 
0000344b 1ca5       8187 	.data.b	165,28
0000344d 14         8188 	.data.b	20
0000344e 01         8189 	.data.b	1
0000344f 00000000*  8190 	.data.w	.LDW_5ee44c0
00003453 00         8191 	.data.b	0
00003454 00         8192 	.data.b	0
                    8193 
                    8194 .LDW_5ee4678:
00003455 07         8195 	.data.b	7
00003456 646e4970   8196 	.data.b	112,73,110,100,105,118,82,120,77,97,115,107,0
0000345a 78527669 
0000345e 6b73614d 
00003462 00 

                                                                      Page 167
                                                              C:\Users\Fengyuan\AppData\Local\Temp\gh_0000sro1.s
00003463 1ca7       8197 	.data.b	167,28
00003465 17         8198 	.data.b	23
00003466 01         8199 	.data.b	1
00003467 00000000*  8200 	.data.w	.LDW_5ee4780
0000346b 00         8201 	.data.b	0
0000346c 00         8202 	.data.b	0
                    8203 
0000346d 00         8204 	.data.b	0
                    8205 
0000346e 00         8206 	.data.b	0
                    8207 
0000346f 00         8208 	.data.b	0
                    8209 
                    8210 .LDW_5fcf660:
00003470 18         8211 	.data.b	24
00003471 486e6143   8212 	.data.b	67,97,110,72,76,95,73,110,105,116,69,110,100,95,73,110,105,116,77,111,100,101,0
00003475 6e495f4c 
00003479 6e457469 
0000347d 6e495f64 
00003481 6f4d7469 
00003485 006564 
00003488 1db7       8213 	.data.b	183,29
0000348a 32         8214 	.data.b	50
0000348b 01         8215 	.data.b	1
0000348c 00000000*  8216 	.data.w	.LDW_5e0df08
00003490 00         8217 	.data.b	0
00003491 03         8218 	.data.b	3
00003492 00         8219 	.data.b	0
00003493 01         8220 	.data.b	1
00003494 00         8221 	.data.b	0
00003495 01         8222 	.data.b	1
                    8223 
                    8224 .LDW_5ee3ee8:
00003496 12         8225 	.data.b	18
00003497 74696e69   8226 	.data.b	105,110,105,116,73,110,102,111,0
0000349b 6f666e49 
0000349f 00 
000034a0 1db7       8227 	.data.b	183,29
000034a2 5d         8228 	.data.b	93
000034a3 01         8229 	.data.b	1
000034a4 00000000*  8230 	.data.w	.LDW_5ee2ef8
000034a8 00         8231 	.data.b	0
                    8232 
                    8233 .LDW_5fdfec0:
000034a9 22         8234 	.data.b	34
                    8235 
                    8236 .LDW_5ee41a8:
000034aa 07         8237 	.data.b	7
000034ab 6f727265   8238 	.data.b	101,114,114,111,114,73,100,0
000034af 00644972 
000034b3 1dba       8239 	.data.b	186,29
000034b5 09         8240 	.data.b	9
000034b6 01         8241 	.data.b	1
000034b7 00000000*  8242 	.data.w	.LDW_5e0df08
000034bb 00         8243 	.data.b	0
000034bc 00         8244 	.data.b	0
                    8245 
                    8246 .LDW_5ee4200:
000034bd 07         8247 	.data.b	7
000034be 74696e69   8248 	.data.b	105,110,105,116,79,98,106,101,99,116,0
000034c2 656a624f 

                                                                      Page 168
                                                              C:\Users\Fengyuan\AppData\Local\Temp\gh_0000sro1.s
000034c6 007463 
000034c9 1dbb       8249 	.data.b	187,29
000034cb 12         8250 	.data.b	18
000034cc 01         8251 	.data.b	1
000034cd 00000000*  8252 	.data.w	.LDW_5ee2b88
000034d1 00         8253 	.data.b	0
000034d2 00         8254 	.data.b	0
                    8255 
                    8256 .LDW_5fdfef0:
000034d3 22         8257 	.data.b	34
                    8258 
                    8259 .LDW_5ee4570:
000034d4 07         8260 	.data.b	7
000034d5 43706d74   8261 	.data.b	116,109,112,67,65,78,105,109,97,115,107,49,0
000034d9 6d694e41 
000034dd 316b7361 
000034e1 00 
000034e2 1dc8       8262 	.data.b	200,29
000034e4 0d         8263 	.data.b	13
000034e5 01         8264 	.data.b	1
000034e6 00000000*  8265 	.data.w	.LDW_5e0e158
000034ea 00         8266 	.data.b	0
000034eb 00         8267 	.data.b	0
                    8268 
                    8269 .LDW_5ee46d0:
000034ec 07         8270 	.data.b	7
000034ed 656c4670   8271 	.data.b	112,70,108,101,120,67,65,78,76,111,99,97,108,0
000034f1 4e414378 
000034f5 61636f4c 
000034f9 006c 
000034fb 1dc9       8272 	.data.b	201,29
000034fd 11         8273 	.data.b	17
000034fe 01         8274 	.data.b	1
000034ff 00000000*  8275 	.data.w	.LDW_5e0e3d0
00003503 00         8276 	.data.b	0
00003504 00         8277 	.data.b	0
                    8278 
00003505 00         8279 	.data.b	0
                    8280 
00003506 00         8281 	.data.b	0
                    8282 
00003507 00         8283 	.data.b	0
                    8284 
                    8285 .LDW_5fcf1a0:
00003508 18         8286 	.data.b	24
00003509 486e6143   8287 	.data.b	67,97,110,72,76,95,73,110,105,116,69,110,100,95,83,116,111,112,77,111,100,101,0
0000350d 6e495f4c 
00003511 6e457469 
00003515 74535f64 
00003519 6f4d706f 
0000351d 006564 
00003520 1e93       8288 	.data.b	147,30
00003522 32         8289 	.data.b	50
00003523 01         8290 	.data.b	1
00003524 00000000*  8291 	.data.w	.LDW_5e0df08
00003528 00         8292 	.data.b	0
00003529 03         8293 	.data.b	3
0000352a 00         8294 	.data.b	0
0000352b 01         8295 	.data.b	1
0000352c 00         8296 	.data.b	0
0000352d 01         8297 	.data.b	1

                                                                      Page 169
                                                              C:\Users\Fengyuan\AppData\Local\Temp\gh_0000sro1.s
                    8298 
                    8299 .LDW_5ee3f40:
0000352e 12         8300 	.data.b	18
0000352f 74696e69   8301 	.data.b	105,110,105,116,73,110,102,111,0
00003533 6f666e49 
00003537 00 
00003538 1e93       8302 	.data.b	147,30
0000353a 5d         8303 	.data.b	93
0000353b 01         8304 	.data.b	1
0000353c 00000000*  8305 	.data.w	.LDW_5ee2ef8
00003540 00         8306 	.data.b	0
                    8307 
                    8308 .LDW_5fdff20:
00003541 22         8309 	.data.b	34
                    8310 
                    8311 .LDW_5ee3f98:
00003542 07         8312 	.data.b	7
00003543 6f727265   8313 	.data.b	101,114,114,111,114,73,100,0
00003547 00644972 
0000354b 1e96       8314 	.data.b	150,30
0000354d 09         8315 	.data.b	9
0000354e 01         8316 	.data.b	1
0000354f 00000000*  8317 	.data.w	.LDW_5e0df08
00003553 00         8318 	.data.b	0
00003554 00         8319 	.data.b	0
                    8320 
                    8321 .LDW_5ee4308:
00003555 07         8322 	.data.b	7
00003556 74696e69   8323 	.data.b	105,110,105,116,79,98,106,101,99,116,0
0000355a 656a624f 
0000355e 007463 
00003561 1e97       8324 	.data.b	151,30
00003563 12         8325 	.data.b	18
00003564 01         8326 	.data.b	1
00003565 00000000*  8327 	.data.w	.LDW_5ee2b88
00003569 00         8328 	.data.b	0
0000356a 00         8329 	.data.b	0
                    8330 
0000356b 00         8331 	.data.b	0
                    8332 
0000356c 00         8333 	.data.b	0
                    8334 
                    8335 .LDW_5fcec48:
0000356d 17         8336 	.data.b	23
0000356e 486e6143   8337 	.data.b	67,97,110,72,76,95,83,116,111,112,82,101,105,110,105,116,0
00003572 74535f4c 
00003576 6552706f 
0000357a 74696e69 
0000357e 00 
0000357f 1ec1       8338 	.data.b	193,30
00003581 31         8339 	.data.b	49
00003582 01         8340 	.data.b	1
00003583 00         8341 	.data.b	0
00003584 03         8342 	.data.b	3
00003585 00         8343 	.data.b	0
00003586 01         8344 	.data.b	1
00003587 00         8345 	.data.b	0
00003588 01         8346 	.data.b	1
                    8347 
                    8348 .LDW_5fdfcb0:
00003589 22         8349 	.data.b	34

                                                                      Page 170
                                                              C:\Users\Fengyuan\AppData\Local\Temp\gh_0000sro1.s
                    8350 
                    8351 .LDW_5fdff80:
0000358a 22         8352 	.data.b	34
                    8353 
                    8354 .LDW_5ee48e0:
0000358b 07         8355 	.data.b	7
0000358c 656c4670   8356 	.data.b	112,70,108,101,120,67,65,78,76,111,99,97,108,0
00003590 4e414378 
00003594 61636f4c 
00003598 006c 
0000359a 1ec8       8357 	.data.b	200,30
0000359c 11         8358 	.data.b	17
0000359d 01         8359 	.data.b	1
0000359e 00000000*  8360 	.data.w	.LDW_5e0e3d0
000035a2 00         8361 	.data.b	0
000035a3 00         8362 	.data.b	0
                    8363 
                    8364 .LDW_5ee4d58:
000035a4 07         8365 	.data.b	7
000035a5 624f7768   8366 	.data.b	104,119,79,98,106,72,97,110,100,108,101,0
000035a9 6e61486a 
000035ad 00656c64 
000035b1 1ec9       8367 	.data.b	201,30
000035b3 16         8368 	.data.b	22
000035b4 01         8369 	.data.b	1
000035b5 00000000*  8370 	.data.w	.LDW_5ee2818
000035b9 00         8371 	.data.b	0
000035ba 00         8372 	.data.b	0
                    8373 
                    8374 .LDW_5ee4938:
000035bb 07         8375 	.data.b	7
000035bc 6f666966   8376 	.data.b	102,105,102,111,76,111,111,112,67,110,116,0
000035c0 706f6f4c 
000035c4 00746e43 
000035c8 1ecd       8377 	.data.b	205,30
000035ca 0c         8378 	.data.b	12
000035cb 01         8379 	.data.b	1
000035cc 00000000*  8380 	.data.w	.LDW_5e0df08
000035d0 00         8381 	.data.b	0
000035d1 00         8382 	.data.b	0
                    8383 
000035d2 00         8384 	.data.b	0
                    8385 
000035d3 00         8386 	.data.b	0
                    8387 
000035d4 00         8388 	.data.b	0
                    8389 
                    8390 .LDW_5fcf498:
000035d5 17         8391 	.data.b	23
000035d6 486e6143   8392 	.data.b	67,97,110,72,76,95,73,110,105,116,80,111,119,101,114,79,110,0
000035da 6e495f4c 
000035de 6f507469 
000035e2 4f726577 
000035e6 006e 
000035e8 1f95       8393 	.data.b	149,31
000035ea 31         8394 	.data.b	49
000035eb 01         8395 	.data.b	1
000035ec 00         8396 	.data.b	0
000035ed 03         8397 	.data.b	3
000035ee 00         8398 	.data.b	0
000035ef 01         8399 	.data.b	1

                                                                      Page 171
                                                              C:\Users\Fengyuan\AppData\Local\Temp\gh_0000sro1.s
000035f0 00         8400 	.data.b	0
000035f1 01         8401 	.data.b	1
                    8402 
                    8403 .LDW_5fdfb90:
000035f2 22         8404 	.data.b	34
                    8405 
000035f3 00         8406 	.data.b	0
                    8407 
000035f4 00         8408 	.data.b	0
                    8409 
                    8410 .LDW_5fcf958:
000035f5 17         8411 	.data.b	23
000035f6 486e6143   8412 	.data.b	67,97,110,72,76,95,73,110,105,116,80,111,119,101,114,79,110,67,104,97,110,110,101,108,83,112,101,99,105,102,105,99,0
000035fa 6e495f4c 
000035fe 6f507469 
00003602 4f726577 
00003606 6168436e 
0000360a 6c656e6e 
0000360e 63657053 
00003612 63696669 
00003616 00 
00003617 1fad       8413 	.data.b	173,31
00003619 31         8414 	.data.b	49
0000361a 01         8415 	.data.b	1
0000361b 00         8416 	.data.b	0
0000361c 03         8417 	.data.b	3
0000361d 00         8418 	.data.b	0
0000361e 01         8419 	.data.b	1
0000361f 00         8420 	.data.b	0
00003620 01         8421 	.data.b	1
                    8422 
                    8423 .LDW_5fdfce0:
00003621 22         8424 	.data.b	34
                    8425 
00003622 00         8426 	.data.b	0
                    8427 
00003623 00         8428 	.data.b	0
                    8429 
                    8430 .LDW_5fcf9f0:
00003624 18         8431 	.data.b	24
00003625 486e6143   8432 	.data.b	67,97,110,72,76,95,82,120,66,97,115,105,99,77,115,103,82,101,99,101,105,118,101,100,66,101,103,105,110,0
00003629 78525f4c 
0000362d 69736142 
00003631 67734d63 
00003635 65636552 
00003639 64657669 
0000363d 69676542 
00003641 006e 
00003643 1ffb       8433 	.data.b	251,31
00003645 3b         8434 	.data.b	59
00003646 01         8435 	.data.b	1
00003647 00000000*  8436 	.data.w	.LDW_5c53d78
0000364b 00         8437 	.data.b	0
0000364c 03         8438 	.data.b	3
0000364d 00         8439 	.data.b	0
0000364e 01         8440 	.data.b	1
0000364f 00         8441 	.data.b	0
00003650 01         8442 	.data.b	1
                    8443 
                    8444 .LDW_5ee4a98:
00003651 12         8445 	.data.b	18

                                                                      Page 172
                                                              C:\Users\Fengyuan\AppData\Local\Temp\gh_0000sro1.s
00003652 61427872   8446 	.data.b	114,120,66,97,115,105,99,73,110,102,111,0
00003656 49636973 
0000365a 006f666e 
0000365e 1ffb       8447 	.data.b	251,31
00003660 70         8448 	.data.b	112
00003661 01         8449 	.data.b	1
00003662 00000000*  8450 	.data.w	.LDW_5ee49e8
00003666 00         8451 	.data.b	0
                    8452 
                    8453 .LDW_5fdfd10:
00003667 22         8454 	.data.b	34
                    8455 
                    8456 .LDW_5ee4af0:
00003668 07         8457 	.data.b	7
00003669 76746572   8458 	.data.b	114,101,116,118,97,108,0
0000366d 006c61 
00003670 1ffe       8459 	.data.b	254,31
00003672 12         8460 	.data.b	18
00003673 01         8461 	.data.b	1
00003674 00000000*  8462 	.data.w	.LDW_5c53d78
00003678 00         8463 	.data.b	0
00003679 00         8464 	.data.b	0
                    8465 
                    8466 .LDW_5ee4bf8:
0000367a 07         8467 	.data.b	7
0000367b 624f7872   8468 	.data.b	114,120,79,98,106,72,97,110,100,108,101,0
0000367f 6e61486a 
00003683 00656c64 
00003687 1fff       8469 	.data.b	255,31
00003689 13         8470 	.data.b	19
0000368a 01         8471 	.data.b	1
0000368b 00000000*  8472 	.data.w	.LDW_5e0e5e0
0000368f 00         8473 	.data.b	0
00003690 00         8474 	.data.b	0
                    8475 
                    8476 .LDW_5fdfc50:
00003691 22         8477 	.data.b	34
                    8478 
                    8479 .LDW_5ee4b48:
00003692 07         8480 	.data.b	7
00003693 656c4670   8481 	.data.b	112,70,108,101,120,67,65,78,76,111,99,97,108,0
00003697 4e414378 
0000369b 61636f4c 
0000369f 006c 
000036a1 2091       8482 	.data.b	145,32
000036a3 11         8483 	.data.b	17
000036a4 01         8484 	.data.b	1
000036a5 00000000*  8485 	.data.w	.LDW_5e0e3d0
000036a9 00         8486 	.data.b	0
000036aa 00         8487 	.data.b	0
                    8488 
000036ab 00         8489 	.data.b	0
                    8490 
                    8491 .LDW_5c57a70:
000036ac 1e         8492 	.data.b	30
000036ad 696e6966   8493 	.data.b	102,105,110,105,115,104,66,97,115,105,99,67,97,110,0
000036b1 61426873 
000036b5 43636973 
000036b9 006e61 
                    8494 
                    8495 	.section	.debug_abbrev

                                                                      Page 173
                                                              C:\Users\Fengyuan\AppData\Local\Temp\gh_0000sro1.s
0000013c 1e         8496 	.data.b	30
0000013d 0a         8497 	.data.b	10
0000013e 00         8498 	.data.b	0
0000013f 0803       8499 	.data.b	3,8
00000141 0000       8500 	.data.b	0,0
                    8501 
                    8502 	.section	.debug_info
000036bc 00         8503 	.data.b	0
                    8504 
000036bd 00         8505 	.data.b	0
                    8506 
                    8507 .LDW_5fcf790:
000036be 18         8508 	.data.b	24
000036bf 486e6143   8509 	.data.b	67,97,110,72,76,95,82,120,66,97,115,105,99,77,115,103,82,101,99,101,105,118,101,100,83,101,97,114,99,104,0
000036c3 78525f4c 
000036c7 69736142 
000036cb 67734d63 
000036cf 65636552 
000036d3 64657669 
000036d7 72616553 
000036db 006863 
000036de 218b       8510 	.data.b	139,33
000036e0 3b         8511 	.data.b	59
000036e1 01         8512 	.data.b	1
000036e2 00000000*  8513 	.data.w	.LDW_5c53d78
000036e6 00         8514 	.data.b	0
000036e7 03         8515 	.data.b	3
000036e8 00         8516 	.data.b	0
000036e9 01         8517 	.data.b	1
000036ea 00         8518 	.data.b	0
000036eb 01         8519 	.data.b	1
                    8520 
                    8521 .LDW_5ee4ba0:
000036ec 12         8522 	.data.b	18
000036ed 61427872   8523 	.data.b	114,120,66,97,115,105,99,73,110,102,111,0
000036f1 49636973 
000036f5 006f666e 
000036f9 218b       8524 	.data.b	139,33
000036fb 71         8525 	.data.b	113
000036fc 01         8526 	.data.b	1
000036fd 00000000*  8527 	.data.w	.LDW_5ee49e8
00003701 00         8528 	.data.b	0
                    8529 
                    8530 .LDW_5fdfda0:
00003702 22         8531 	.data.b	34
                    8532 
                    8533 .LDW_5ee4c50:
00003703 07         8534 	.data.b	7
00003704 76746572   8535 	.data.b	114,101,116,118,97,108,0
00003708 006c61 
0000370b 218e       8536 	.data.b	142,33
0000370d 12         8537 	.data.b	18
0000370e 01         8538 	.data.b	1
0000370f 00000000*  8539 	.data.w	.LDW_5c53d78
00003713 00         8540 	.data.b	0
00003714 00         8541 	.data.b	0
                    8542 
                    8543 .LDW_5ee4ca8:
00003715 07         8544 	.data.b	7
00003716 624f7872   8545 	.data.b	114,120,79,98,106,72,97,110,100,108,101,0
0000371a 6e61486a 

                                                                      Page 174
                                                              C:\Users\Fengyuan\AppData\Local\Temp\gh_0000sro1.s
0000371e 00656c64 
00003722 218f       8546 	.data.b	143,33
00003724 13         8547 	.data.b	19
00003725 01         8548 	.data.b	1
00003726 00000000*  8549 	.data.w	.LDW_5e0e5e0
0000372a 00         8550 	.data.b	0
0000372b 00         8551 	.data.b	0
                    8552 
0000372c 00         8553 	.data.b	0
                    8554 
0000372d 00         8555 	.data.b	0
                    8556 
                    8557 .LDW_5fcece0:
0000372e 17         8558 	.data.b	23
0000372f 486e6143   8559 	.data.b	67,97,110,72,76,95,82,120,66,97,115,105,99,77,115,103,82,101,99,101,105,118,101,100,69,110,100,0
00003733 78525f4c 
00003737 69736142 
0000373b 67734d63 
0000373f 65636552 
00003743 64657669 
00003747 00646e45 
0000374b 21b3       8560 	.data.b	179,33
0000374d 31         8561 	.data.b	49
0000374e 01         8562 	.data.b	1
0000374f 00         8563 	.data.b	0
00003750 03         8564 	.data.b	3
00003751 00         8565 	.data.b	0
00003752 01         8566 	.data.b	1
00003753 00         8567 	.data.b	0
00003754 01         8568 	.data.b	1
                    8569 
                    8570 .LDW_5ee4d00:
00003755 12         8571 	.data.b	18
00003756 61427872   8572 	.data.b	114,120,66,97,115,105,99,73,110,102,111,0
0000375a 49636973 
0000375e 006f666e 
00003762 21b3       8573 	.data.b	179,33
00003764 64         8574 	.data.b	100
00003765 01         8575 	.data.b	1
00003766 00000000*  8576 	.data.w	.LDW_5ee49e8
0000376a 00         8577 	.data.b	0
                    8578 
                    8579 .LDW_5fe0010:
0000376b 22         8580 	.data.b	34
                    8581 
                    8582 .LDW_5ff0848:
0000376c 07         8583 	.data.b	7
0000376d 624f7872   8584 	.data.b	114,120,79,98,106,72,97,110,100,108,101,0
00003771 6e61486a 
00003775 00656c64 
00003779 21b6       8585 	.data.b	182,33
0000377b 13         8586 	.data.b	19
0000377c 01         8587 	.data.b	1
0000377d 00000000*  8588 	.data.w	.LDW_5e0e5e0
00003781 00         8589 	.data.b	0
00003782 00         8590 	.data.b	0
                    8591 
00003783 00         8592 	.data.b	0
                    8593 
00003784 00         8594 	.data.b	0
                    8595 

                                                                      Page 175
                                                              C:\Users\Fengyuan\AppData\Local\Temp\gh_0000sro1.s
                    8596 .LDW_5fcf828:
00003785 18         8597 	.data.b	24
00003786 486e6143   8598 	.data.b	67,97,110,72,76,95,82,120,77,115,103,82,101,99,101,105,118,101,100,78,111,116,105,102,105,99,97,116,105,111,110,0
0000378a 78525f4c 
0000378e 5267734d 
00003792 69656365 
00003796 4e646576 
0000379a 6669746f 
0000379e 74616369 
000037a2 006e6f69 
000037a6 25b6       8599 	.data.b	182,37
000037a8 32         8600 	.data.b	50
000037a9 01         8601 	.data.b	1
000037aa 00000000*  8602 	.data.w	.LDW_5e0df08
000037ae 00         8603 	.data.b	0
000037af 03         8604 	.data.b	3
000037b0 00         8605 	.data.b	0
000037b1 01         8606 	.data.b	1
000037b2 00         8607 	.data.b	0
000037b3 01         8608 	.data.b	1
                    8609 
                    8610 .LDW_5ff1088:
000037b4 12         8611 	.data.b	18
000037b5 6e497872   8612 	.data.b	114,120,73,110,102,111,0
000037b9 006f66 
000037bc 25b6       8613 	.data.b	182,37
000037be 7e         8614 	.data.b	126
000037bf 01         8615 	.data.b	1
000037c0 00000000*  8616 	.data.w	.LDW_5ff1030
000037c4 00         8617 	.data.b	0
                    8618 
                    8619 .LDW_5fe00d0:
000037c5 22         8620 	.data.b	34
                    8621 
                    8622 .LDW_5ff10e0:
000037c6 07         8623 	.data.b	7
000037c7 6f727265   8624 	.data.b	101,114,114,111,114,73,100,0
000037cb 00644972 
000037cf 25bc       8625 	.data.b	188,37
000037d1 09         8626 	.data.b	9
000037d2 01         8627 	.data.b	1
000037d3 00000000*  8628 	.data.w	.LDW_5e0df08
000037d7 00         8629 	.data.b	0
000037d8 00         8630 	.data.b	0
                    8631 
000037d9 00         8632 	.data.b	0
                    8633 
000037da 00         8634 	.data.b	0
                    8635 
                    8636 .LDW_5fcefd8:
000037db 17         8637 	.data.b	23
000037dc 526e6143   8638 	.data.b	67,97,110,82,101,115,101,116,66,117,115,79,102,102,69,110,100,0
000037e0 74657365 
000037e4 4f737542 
000037e8 6e456666 
000037ec 0064 
000037ee 27de       8639 	.data.b	222,39
000037f0 31         8640 	.data.b	49
000037f1 01         8641 	.data.b	1
000037f2 00         8642 	.data.b	0
000037f3 03         8643 	.data.b	3

                                                                      Page 176
                                                              C:\Users\Fengyuan\AppData\Local\Temp\gh_0000sro1.s
000037f4 00         8644 	.data.b	0
000037f5 01         8645 	.data.b	1
000037f6 00         8646 	.data.b	0
000037f7 01         8647 	.data.b	1
                    8648 
                    8649 .LDW_5ff0d18:
000037f8 12         8650 	.data.b	18
000037f9 74696e69   8651 	.data.b	105,110,105,116,79,98,106,101,99,116,0
000037fd 656a624f 
00003801 007463 
00003804 27de       8652 	.data.b	222,39
00003806 63         8653 	.data.b	99
00003807 01         8654 	.data.b	1
00003808 00000000*  8655 	.data.w	.LDW_5e0df08
0000380c 00         8656 	.data.b	0
                    8657 
                    8658 .LDW_5fdff50:
0000380d 22         8659 	.data.b	34
                    8660 
0000380e 00         8661 	.data.b	0
                    8662 
0000380f 00         8663 	.data.b	0
                    8664 
                    8665 .LDW_5fcf5c8:
00003810 17         8666 	.data.b	23
00003811 4c6e6143   8667 	.data.b	67,97,110,76,76,95,67,97,110,73,110,116,101,114,114,117,112,116,68,105,115,97,98,108,101,0
00003815 61435f4c 
00003819 746e496e 
0000381d 75727265 
00003821 69447470 
00003825 6c626173 
00003829 0065 
0000382b 27f5       8668 	.data.b	245,39
0000382d 31         8669 	.data.b	49
0000382e 01         8670 	.data.b	1
0000382f 00         8671 	.data.b	0
00003830 03         8672 	.data.b	3
00003831 00         8673 	.data.b	0
00003832 01         8674 	.data.b	1
00003833 00         8675 	.data.b	0
00003834 01         8676 	.data.b	1
                    8677 
                    8678 .LDW_5ff0b08:
00003835 12         8679 	.data.b	18
00003836 486e6163   8680 	.data.b	99,97,110,72,119,67,104,0
0000383a 00684377 
0000383e 27f5       8681 	.data.b	245,39
00003840 5c         8682 	.data.b	92
00003841 01         8683 	.data.b	1
00003842 00000000*  8684 	.data.w	.LDW_5ff0ab0
00003846 00         8685 	.data.b	0
                    8686 
                    8687 .LDW_5ff0dc8:
00003847 12         8688 	.data.b	18
00003848 61636f6c   8689 	.data.b	108,111,99,97,108,73,110,116,101,114,114,117,112,116,79,108,100,70,108,97,103,80,116,114,0
0000384c 746e496c 
00003850 75727265 
00003854 6c4f7470 
00003858 616c4664 
0000385c 72745067 
00003860 00 

                                                                      Page 177
                                                              C:\Users\Fengyuan\AppData\Local\Temp\gh_0000sro1.s
00003861 27f5       8690 	.data.b	245,39
00003863 73         8691 	.data.b	115
00003864 01         8692 	.data.b	1
00003865 00000000*  8693 	.data.w	.LDW_5ff0f28
00003869 00         8694 	.data.b	0
                    8695 
                    8696 .LDW_5fdffb0:
0000386a 22         8697 	.data.b	34
                    8698 
                    8699 .LDW_5ff0f80:
0000386b 07         8700 	.data.b	7
0000386c 656c4670   8701 	.data.b	112,70,108,101,120,99,97,110,0
00003870 6e616378 
00003874 00 
00003875 27f8       8702 	.data.b	248,39
00003877 0f         8703 	.data.b	15
00003878 01         8704 	.data.b	1
00003879 00000000*  8705 	.data.w	.LDW_5e0e3d0
0000387d 00         8706 	.data.b	0
0000387e 00         8707 	.data.b	0
                    8708 
0000387f 00         8709 	.data.b	0
                    8710 
00003880 00         8711 	.data.b	0
                    8712 
                    8713 .LDW_5fcf400:
00003881 17         8714 	.data.b	23
00003882 4c6e6143   8715 	.data.b	67,97,110,76,76,95,67,97,110,73,110,116,101,114,114,117,112,116,82,101,115,116,111,114,101,0
00003886 61435f4c 
0000388a 746e496e 
0000388e 75727265 
00003892 65527470 
00003896 726f7473 
0000389a 0065 
0000389c 289e       8716 	.data.b	158,40
0000389e 31         8717 	.data.b	49
0000389f 01         8718 	.data.b	1
000038a0 00         8719 	.data.b	0
000038a1 03         8720 	.data.b	3
000038a2 00         8721 	.data.b	0
000038a3 01         8722 	.data.b	1
000038a4 00         8723 	.data.b	0
000038a5 01         8724 	.data.b	1
                    8725 
                    8726 .LDW_5ff0950:
000038a6 12         8727 	.data.b	18
000038a7 486e6163   8728 	.data.b	99,97,110,72,119,67,104,0
000038ab 00684377 
000038af 289e       8729 	.data.b	158,40
000038b1 5c         8730 	.data.b	92
000038b2 01         8731 	.data.b	1
000038b3 00000000*  8732 	.data.w	.LDW_5ff0ab0
000038b7 00         8733 	.data.b	0
                    8734 
                    8735 .LDW_5ff0e78:
000038b8 12         8736 	.data.b	18
000038b9 61636f6c   8737 	.data.b	108,111,99,97,108,73,110,116,101,114,114,117,112,116,79,108,100,70,108,97,103,0
000038bd 746e496c 
000038c1 75727265 
000038c5 6c4f7470 
000038c9 616c4664 

                                                                      Page 178
                                                              C:\Users\Fengyuan\AppData\Local\Temp\gh_0000sro1.s
000038cd 0067 
000038cf 289e       8738 	.data.b	158,40
000038d1 75         8739 	.data.b	117
000038d2 01         8740 	.data.b	1
000038d3 00000000*  8741 	.data.w	.LDW_5ff0e20
000038d7 00         8742 	.data.b	0
                    8743 
                    8744 .LDW_5fdfd40:
000038d8 22         8745 	.data.b	34
                    8746 
                    8747 .LDW_5ff0c10:
000038d9 07         8748 	.data.b	7
000038da 656c4670   8749 	.data.b	112,70,108,101,120,99,97,110,0
000038de 6e616378 
000038e2 00 
000038e3 28a1       8750 	.data.b	161,40
000038e5 0f         8751 	.data.b	15
000038e6 01         8752 	.data.b	1
000038e7 00000000*  8753 	.data.w	.LDW_5e0e3d0
000038eb 00         8754 	.data.b	0
000038ec 00         8755 	.data.b	0
                    8756 
000038ed 00         8757 	.data.b	0
                    8758 
000038ee 00         8759 	.data.b	0
                    8760 
                    8761 .LDW_5fcf2d0:
000038ef 17         8762 	.data.b	23
000038f0 4c6e6143   8763 	.data.b	67,97,110,76,76,95,83,101,116,70,108,101,120,67,65,78,84,111,73,110,105,116,77,111,100,101,0
000038f4 65535f4c 
000038f8 656c4674 
000038fc 4e414378 
00003900 6e496f54 
00003904 6f4d7469 
00003908 006564 
0000390b 28ca       8764 	.data.b	202,40
0000390d 31         8765 	.data.b	49
0000390e 01         8766 	.data.b	1
0000390f 00         8767 	.data.b	0
00003910 03         8768 	.data.b	3
00003911 00         8769 	.data.b	0
00003912 01         8770 	.data.b	1
00003913 00         8771 	.data.b	0
00003914 01         8772 	.data.b	1
                    8773 
                    8774 .LDW_5ff0fd8:
00003915 12         8775 	.data.b	18
00003916 74696e69   8776 	.data.b	105,110,105,116,79,98,106,0
0000391a 006a624f 
0000391e 28ca       8777 	.data.b	202,40
00003920 77         8778 	.data.b	119
00003921 01         8779 	.data.b	1
00003922 00000000*  8780 	.data.w	.LDW_5ee2b88
00003926 00         8781 	.data.b	0
                    8782 
                    8783 .LDW_5fe0040:
00003927 22         8784 	.data.b	34
                    8785 
                    8786 .LDW_5ff0ed0:
00003928 07         8787 	.data.b	7
00003929 706f6f6c   8788 	.data.b	108,111,111,112,82,101,115,117,108,116,0

                                                                      Page 179
                                                              C:\Users\Fengyuan\AppData\Local\Temp\gh_0000sro1.s
0000392d 75736552 
00003931 00746c 
00003934 28cd       8789 	.data.b	205,40
00003936 0a         8790 	.data.b	10
00003937 01         8791 	.data.b	1
00003938 00000000*  8792 	.data.w	.LDW_5e0df08
0000393c 00         8793 	.data.b	0
0000393d 00         8794 	.data.b	0
                    8795 
                    8796 .LDW_5ff0b60:
0000393e 07         8797 	.data.b	7
0000393f 656c4670   8798 	.data.b	112,70,108,101,120,67,65,78,76,111,99,97,108,0
00003943 4e414378 
00003947 61636f4c 
0000394b 006c 
0000394d 28ce       8799 	.data.b	206,40
0000394f 0f         8800 	.data.b	15
00003950 01         8801 	.data.b	1
00003951 00000000*  8802 	.data.w	.LDW_5e0e3d0
00003955 00         8803 	.data.b	0
00003956 00         8804 	.data.b	0
                    8805 
00003957 00         8806 	.data.b	0
                    8807 
00003958 00         8808 	.data.b	0
                    8809 
                    8810 .LDW_5fcf368:
00003959 17         8811 	.data.b	23
0000395a 4c6e6143   8812 	.data.b	67,97,110,76,76,95,69,120,101,99,117,116,101,83,111,102,116,82,101,115,101,116,0
0000395e 78455f4c 
00003962 74756365 
00003966 666f5365 
0000396a 73655274 
0000396e 007465 
00003971 29a0       8813 	.data.b	160,41
00003973 31         8814 	.data.b	49
00003974 01         8815 	.data.b	1
00003975 00         8816 	.data.b	0
00003976 03         8817 	.data.b	3
00003977 00         8818 	.data.b	0
00003978 01         8819 	.data.b	1
00003979 00         8820 	.data.b	0
0000397a 01         8821 	.data.b	1
                    8822 
                    8823 .LDW_5fe0070:
0000397b 22         8824 	.data.b	34
                    8825 
                    8826 .LDW_5ff0bb8:
0000397c 07         8827 	.data.b	7
0000397d 706f6f6c   8828 	.data.b	108,111,111,112,82,101,115,117,108,116,0
00003981 75736552 
00003985 00746c 
00003988 29a3       8829 	.data.b	163,41
0000398a 0a         8830 	.data.b	10
0000398b 01         8831 	.data.b	1
0000398c 00000000*  8832 	.data.w	.LDW_5e0df08
00003990 00         8833 	.data.b	0
00003991 00         8834 	.data.b	0
                    8835 
                    8836 .LDW_5ff09a8:
00003992 07         8837 	.data.b	7

                                                                      Page 180
                                                              C:\Users\Fengyuan\AppData\Local\Temp\gh_0000sro1.s
00003993 656c4670   8838 	.data.b	112,70,108,101,120,67,65,78,76,111,99,97,108,0
00003997 4e414378 
0000399b 61636f4c 
0000399f 006c 
000039a1 29a4       8839 	.data.b	164,41
000039a3 0f         8840 	.data.b	15
000039a4 01         8841 	.data.b	1
000039a5 00000000*  8842 	.data.w	.LDW_5e0e3d0
000039a9 00         8843 	.data.b	0
000039aa 00         8844 	.data.b	0
                    8845 
000039ab 00         8846 	.data.b	0
                    8847 
000039ac 00         8848 	.data.b	0
                    8849 
                    8850 .LDW_5fcf530:
000039ad 17         8851 	.data.b	23
000039ae 4c6e6143   8852 	.data.b	67,97,110,76,76,95,72,97,110,100,108,101,66,117,115,79,102,102,0
000039b2 61485f4c 
000039b6 656c646e 
000039ba 4f737542 
000039be 006666 
000039c1 29d1       8853 	.data.b	209,41
000039c3 31         8854 	.data.b	49
000039c4 01         8855 	.data.b	1
000039c5 00         8856 	.data.b	0
000039c6 03         8857 	.data.b	3
000039c7 00         8858 	.data.b	0
000039c8 01         8859 	.data.b	1
000039c9 00         8860 	.data.b	0
000039ca 01         8861 	.data.b	1
                    8862 
                    8863 .LDW_5fe00a0:
000039cb 22         8864 	.data.b	34
                    8865 
000039cc 00         8866 	.data.b	0
                    8867 
000039cd 00         8868 	.data.b	0
                    8869 
                    8870 .LDW_5fced78:
000039ce 18         8871 	.data.b	24
000039cf 4c6e6143   8872 	.data.b	67,97,110,76,76,95,72,97,110,100,108,101,83,116,97,114,116,80,114,111,99,101,115,115,0
000039d3 61485f4c 
000039d7 656c646e 
000039db 72617453 
000039df 6f725074 
000039e3 73736563 
000039e7 00 
000039e8 29ed       8873 	.data.b	237,41
000039ea 3b         8874 	.data.b	59
000039eb 01         8875 	.data.b	1
000039ec 00000000*  8876 	.data.w	.LDW_5c53d78
000039f0 00         8877 	.data.b	0
000039f1 03         8878 	.data.b	3
000039f2 00         8879 	.data.b	0
000039f3 01         8880 	.data.b	1
000039f4 00         8881 	.data.b	0
000039f5 01         8882 	.data.b	1
                    8883 
                    8884 .LDW_5fdfb30:
000039f6 22         8885 	.data.b	34

                                                                      Page 181
                                                              C:\Users\Fengyuan\AppData\Local\Temp\gh_0000sro1.s
                    8886 
                    8887 .LDW_5ff0a58:
000039f7 07         8888 	.data.b	7
000039f8 75736572   8889 	.data.b	114,101,115,117,108,116,0
000039fc 00746c 
000039ff 29f0       8890 	.data.b	240,41
00003a01 12         8891 	.data.b	18
00003a02 01         8892 	.data.b	1
00003a03 00000000*  8893 	.data.w	.LDW_5c53d78
00003a07 00         8894 	.data.b	0
00003a08 00         8895 	.data.b	0
                    8896 
                    8897 .LDW_5ff1138:
00003a09 07         8898 	.data.b	7
00003a0a 656c4670   8899 	.data.b	112,70,108,101,120,67,65,78,76,111,99,97,108,0
00003a0e 4e414378 
00003a12 61636f4c 
00003a16 006c 
00003a18 29f1       8900 	.data.b	241,41
00003a1a 0f         8901 	.data.b	15
00003a1b 01         8902 	.data.b	1
00003a1c 00000000*  8903 	.data.w	.LDW_5e0e3d0
00003a20 00         8904 	.data.b	0
00003a21 00         8905 	.data.b	0
                    8906 
00003a22 00         8907 	.data.b	0
                    8908 
00003a23 00         8909 	.data.b	0
                    8910 
                    8911 .LDW_5fceea8:
00003a24 15         8912 	.data.b	21
00003a25 4c6e6143   8913 	.data.b	67,97,110,76,76,95,67,111,109,112,117,116,101,77,97,105,108,98,111,120,73,110,116,101,114,114,117,112,116,0
00003a29 6f435f4c 
00003a2d 7475706d 
00003a31 69614d65 
00003a35 786f626c 
00003a39 65746e49 
00003a3d 70757272 
00003a41 0074 
00003a43 2eb9       8914 	.data.b	185,46
00003a45 2b         8915 	.data.b	43
00003a46 01         8916 	.data.b	1
00003a47 00000000*  8917 	.data.w	CanLL_ComputeMailboxInterrupt..C.3A.5CVector.5CCBD1800257_D01_S32K1xx.5CApplications.5CS32K144_Start_new.5CAppl.5Cobj.5CCan.
00003a4b 00000000*  8918 	.data.w	__ghs_eofn_CanLL_ComputeMailboxInterrupt
00003a4f 5d01       8919 	.data.b	1,93
00003a51 0181f0     8920 	.data.b	240,129,1
00003a54 70         8921 	.data.b	112
00003a55 00         8922 	.data.b	0
00003a56 10         8923 	.data.b	16
00003a57 01         8924 	.data.b	1
00003a58 00         8925 	.data.b	0
00003a59 00         8926 	.data.b	0
00003a5a 00         8927 	.data.b	0
00003a5b 01         8928 	.data.b	1
00003a5c 00         8929 	.data.b	0
00003a5d 01         8930 	.data.b	1
                    8931 
                    8932 	.section	.debug_abbrev
00000143 15         8933 	.data.b	21
00000144 2e         8934 	.data.b	46
00000145 01         8935 	.data.b	1

                                                                      Page 182
                                                              C:\Users\Fengyuan\AppData\Local\Temp\gh_0000sro1.s
00000146 0803       8936 	.data.b	3,8
00000148 0f3b       8937 	.data.b	59,15
0000014a 0f39       8938 	.data.b	57,15
0000014c 0f3a       8939 	.data.b	58,15
0000014e 0111       8940 	.data.b	17,1
00000150 0112       8941 	.data.b	18,1
00000152 0a40       8942 	.data.b	64,10
00000154 4183       8943 	.data.b	131,65
00000156 0f         8944 	.data.b	15
00000157 4187       8945 	.data.b	135,65
00000159 0d         8946 	.data.b	13
0000015a 4185       8947 	.data.b	133,65
0000015c 0f         8948 	.data.b	15
0000015d 4186       8949 	.data.b	134,65
0000015f 0d         8950 	.data.b	13
00000160 4192       8951 	.data.b	146,65
00000162 0f         8952 	.data.b	15
00000163 0c3c       8953 	.data.b	60,12
00000165 0b20       8954 	.data.b	32,11
00000167 0c3f       8955 	.data.b	63,12
00000169 0b32       8956 	.data.b	50,11
0000016b 0b4c       8957 	.data.b	76,11
0000016d 0c27       8958 	.data.b	39,12
0000016f 0000       8959 	.data.b	0,0
                    8960 
                    8961 	.section	.debug_frame
                    8962 .LDW_603fea8:
00000090 00000000*  8963 	.data.w	.LDW_unq_4-.LDW_unq_3
                    8964 .LDW_unq_3:
00000094 00000000*  8965 	.data.w	.LDW_5f1c410
00000098 00000000*  8966 	.data.w	CanLL_ComputeMailboxInterrupt..C.3A.5CVector.5CCBD1800257_D01_S32K1xx.5CApplications.5CS32K144_Start_new.5CAppl.5Cobj.5CCan.
0000009c 00000054   8967 	.data.w	__ghs_eofn_CanLL_ComputeMailboxInterrupt-CanLL_ComputeMailboxInterrupt..C.3A.5CVector.5CCBD1800257_D01_S32K1xx.5CApplications.5CS32K144_Start_new.5CAppl.5Cobj.5CCan.
000000a0 01         8968 	.data.b	1
000000a1 00000000*  8969 	.data.w	.LDW11
000000a5 00         8970 	.data.b	0
000000a6 00         8971 	.data.b	0
000000a7 00         8972 	.data.b	0
                    8973 .LDW_unq_4:
                    8974 	.section	.debug_line
00000509 020500     8975 	.data.b	0,5,2
0000050c 00000000*  8976 	.data.w	CanLL_ComputeMailboxInterrupt..C.3A.5CVector.5CCBD1800257_D01_S32K1xx.5CApplications.5CS32K144_Start_new.5CAppl.5Cobj.5CCan.
00000510 06         8977 	.data.b	6
00000511 03         8978 	.data.b	3
00000512 2eb9       8979 	.data.b	185,46
00000514 02         8980 	.data.b	2
00000515 00         8981 	.data.b	0
00000516 01         8982 	.data.b	1
00000517 03         8983 	.data.b	3
00000518 04         8984 	.data.b	4
00000519 02         8985 	.data.b	2
0000051a 08         8986 	.data.b	8
0000051b 01         8987 	.data.b	1
0000051c 1b         8988 	.data.b	27
0000051d 14         8989 	.data.b	20
0000051e 020500     8990 	.data.b	0,5,2
00000521 00000000*  8991 	.data.w	.LDWlin1
00000525 0d         8992 	.data.b	13
00000526 0c         8993 	.data.b	12
00000527 13         8994 	.data.b	19
00000528 03         8995 	.data.b	3
00000529 7d         8996 	.data.b	125

                                                                      Page 183
                                                              C:\Users\Fengyuan\AppData\Local\Temp\gh_0000sro1.s
0000052a 02         8997 	.data.b	2
0000052b 04         8998 	.data.b	4
0000052c 01         8999 	.data.b	1
0000052d 020500     9000 	.data.b	0,5,2
00000530 00000000*  9001 	.data.w	.LDWlin2
00000534 03         9002 	.data.b	3
00000535 04         9003 	.data.b	4
00000536 02         9004 	.data.b	2
00000537 00         9005 	.data.b	0
00000538 01         9006 	.data.b	1
00000539 0b         9007 	.data.b	11
0000053a 020500     9008 	.data.b	0,5,2
0000053d 00000000*  9009 	.data.w	.LDWlin3
00000541 0b         9010 	.data.b	11
00000542 0b         9011 	.data.b	11
00000543 13         9012 	.data.b	19
00000544 020500     9013 	.data.b	0,5,2
00000547 00000000*  9014 	.data.w	.LDWlin4
0000054b 0b         9015 	.data.b	11
0000054c 02         9016 	.data.b	2
0000054d 00         9017 	.data.b	0
0000054e 0b         9018 	.data.b	11
0000054f 0c         9019 	.data.b	12
00000550 13         9020 	.data.b	19
00000551 03         9021 	.data.b	3
00000552 7d         9022 	.data.b	125
00000553 02         9023 	.data.b	2
00000554 04         9024 	.data.b	4
00000555 01         9025 	.data.b	1
00000556 020500     9026 	.data.b	0,5,2
00000559 00000000*  9027 	.data.w	.LDWlin5
0000055d 03         9028 	.data.b	3
0000055e 04         9029 	.data.b	4
0000055f 02         9030 	.data.b	2
00000560 00         9031 	.data.b	0
00000561 01         9032 	.data.b	1
00000562 03         9033 	.data.b	3
00000563 09         9034 	.data.b	9
00000564 02         9035 	.data.b	2
00000565 00         9036 	.data.b	0
00000566 01         9037 	.data.b	1
00000567 020500     9038 	.data.b	0,5,2
0000056a 00000000*  9039 	.data.w	.LDWlin6
0000056e 0d         9040 	.data.b	13
0000056f 1b         9041 	.data.b	27
00000570 03         9042 	.data.b	3
00000571 62         9043 	.data.b	98
00000572 02         9044 	.data.b	2
00000573 08         9045 	.data.b	8
00000574 01         9046 	.data.b	1
00000575 020500     9047 	.data.b	0,5,2
00000578 00000000*  9048 	.data.w	.LDWlin7
0000057c 03         9049 	.data.b	3
0000057d 1f         9050 	.data.b	31
0000057e 02         9051 	.data.b	2
0000057f 00         9052 	.data.b	0
00000580 01         9053 	.data.b	1
00000581 0b         9054 	.data.b	11
00000582 02         9055 	.data.b	2
00000583 02         9056 	.data.b	2
00000584 010100     9057 	.data.b	0,1,1

                                                                      Page 184
                                                              C:\Users\Fengyuan\AppData\Local\Temp\gh_0000sro1.s
                    9058 	.section	.debug_info
                    9059 .LDW_5ff1190:
00003a5e 11         9060 	.data.b	17
00003a5f 616c4669   9061 	.data.b	105,70,108,97,103,115,0
00003a63 007367 
00003a66 2eb9       9062 	.data.b	185,46
00003a68 6e         9063 	.data.b	110
00003a69 01         9064 	.data.b	1
00003a6a 00000000*  9065 	.data.w	.LDW_5e0e158
00003a6e 00         9066 	.data.b	0
00003a6f 5501       9067 	.data.b	1,85
                    9068 
                    9069 	.section	.debug_abbrev
00000171 11         9070 	.data.b	17
00000172 05         9071 	.data.b	5
00000173 00         9072 	.data.b	0
00000174 0803       9073 	.data.b	3,8
00000176 0f3b       9074 	.data.b	59,15
00000178 0f39       9075 	.data.b	57,15
0000017a 0f3a       9076 	.data.b	58,15
0000017c 1049       9077 	.data.b	73,16
0000017e 0c4b       9078 	.data.b	75,12
00000180 0a02       9079 	.data.b	2,10
00000182 0000       9080 	.data.b	0,0
                    9081 
                    9082 	.section	.debug_info
                    9083 .LDW_5ff11e8:
00003a71 11         9084 	.data.b	17
00003a72 73614d69   9085 	.data.b	105,77,97,115,107,0
00003a76 006b 
00003a78 2eb9       9086 	.data.b	185,46
00003a7a 7e         9087 	.data.b	126
00003a7b 01         9088 	.data.b	1
00003a7c 00000000*  9089 	.data.w	.LDW_5e0e158
00003a80 00         9090 	.data.b	0
00003a81 5601       9091 	.data.b	1,86
                    9092 
                    9093 .LDW_5ff0798:
00003a83 11         9094 	.data.b	17
00003a84 72617473   9095 	.data.b	115,116,97,114,116,73,110,100,101,120,0
00003a88 646e4974 
00003a8c 007865 
00003a8f 2eb9       9096 	.data.b	185,46
00003a91 0195       9097 	.data.b	149,1
00003a93 01         9098 	.data.b	1
00003a94 00000000*  9099 	.data.w	.LDW_5e0e5e0
00003a98 00         9100 	.data.b	0
00003a99 5701       9101 	.data.b	1,87
                    9102 
                    9103 .LDW_5fe0130:
00003a9b 1f         9104 	.data.b	31
00003a9c 00000000*  9105 	.data.w	.LDW01
00003aa0 00000000*  9106 	.data.w	.LDW11
                    9107 
                    9108 	.section	.debug_abbrev
00000184 1f         9109 	.data.b	31
00000185 0b         9110 	.data.b	11
00000186 01         9111 	.data.b	1
00000187 0111       9112 	.data.b	17,1
00000189 0112       9113 	.data.b	18,1
0000018b 0000       9114 	.data.b	0,0

                                                                      Page 185
                                                              C:\Users\Fengyuan\AppData\Local\Temp\gh_0000sro1.s
                    9115 
                    9116 	.section	.debug_info
                    9117 .LDW_5ff0740:
00003aa4 06         9118 	.data.b	6
00003aa5 69746361   9119 	.data.b	97,99,116,105,118,101,73,110,116,101,114,114,117,112,116,115,0
00003aa9 6e496576 
00003aad 72726574 
00003ab1 73747075 
00003ab5 00 
00003ab6 2ebb       9120 	.data.b	187,46
00003ab8 0b         9121 	.data.b	11
00003ab9 01         9122 	.data.b	1
00003aba 00000000*  9123 	.data.w	.LDW_5e0e158
00003abe 00         9124 	.data.b	0
00003abf 00         9125 	.data.b	0
00003ac0 5001       9126 	.data.b	1,80
                    9127 
                    9128 .LDW_5ff07f0:
00003ac2 06         9129 	.data.b	6
00003ac3 65646e69   9130 	.data.b	105,110,100,101,120,0
00003ac7 0078 
00003ac9 2ebc       9131 	.data.b	188,46
00003acb 13         9132 	.data.b	19
00003acc 01         9133 	.data.b	1
00003acd 00000000*  9134 	.data.w	.LDW_5e0e5e0
00003ad1 00         9135 	.data.b	0
00003ad2 00         9136 	.data.b	0
00003ad3 5401       9137 	.data.b	1,84
                    9138 
00003ad5 00         9139 	.data.b	0
                    9140 
00003ad6 00         9141 	.data.b	0
                    9142 
                    9143 .LDW_5fcf6f8:
00003ad7 17         9144 	.data.b	23
00003ad8 4c6e6143   9145 	.data.b	67,97,110,76,76,95,67,111,109,112,117,116,101,73,110,116,101,114,114,117,112,116,84,121,112,101,0
00003adc 6f435f4c 
00003ae0 7475706d 
00003ae4 746e4965 
00003ae8 75727265 
00003aec 79547470 
00003af0 006570 
00003af3 2ef1       9146 	.data.b	241,46
00003af5 31         9147 	.data.b	49
00003af6 01         9148 	.data.b	1
00003af7 00         9149 	.data.b	0
00003af8 03         9150 	.data.b	3
00003af9 00         9151 	.data.b	0
00003afa 01         9152 	.data.b	1
00003afb 00         9153 	.data.b	0
00003afc 01         9154 	.data.b	1
                    9155 
                    9156 .LDW_5ff08a0:
00003afd 12         9157 	.data.b	18
00003afe 65646e69   9158 	.data.b	105,110,100,101,120,0
00003b02 0078 
00003b04 2ef1       9159 	.data.b	241,46
00003b06 79         9160 	.data.b	121
00003b07 01         9161 	.data.b	1
00003b08 00000000*  9162 	.data.w	.LDW_5e0e5e0
00003b0c 00         9163 	.data.b	0

                                                                      Page 186
                                                              C:\Users\Fengyuan\AppData\Local\Temp\gh_0000sro1.s
                    9164 
                    9165 .LDW_5fe01f0:
00003b0d 22         9166 	.data.b	34
                    9167 
00003b0e 00         9168 	.data.b	0
                    9169 
00003b0f 00         9170 	.data.b	0
                    9171 
                    9172 .LDW_5fcf070:
00003b10 15         9173 	.data.b	21
00003b11 426e6143   9174 	.data.b	67,97,110,66,117,115,79,102,102,73,110,116,101,114,114,117,112,116,0
00003b15 664f7375 
00003b19 746e4966 
00003b1d 75727265 
00003b21 007470 
00003b24 3190       9175 	.data.b	144,49
00003b26 24         9176 	.data.b	36
00003b27 01         9177 	.data.b	1
00003b28 00000000*  9178 	.data.w	CanBusOffInterrupt
00003b2c 00000000*  9179 	.data.w	__ghs_eofn_CanBusOffInterrupt
00003b30 5d01       9180 	.data.b	1,93
00003b32 00         9181 	.data.b	0
00003b33 04         9182 	.data.b	4
00003b34 00         9183 	.data.b	0
00003b35 7c         9184 	.data.b	124
00003b36 01         9185 	.data.b	1
00003b37 00         9186 	.data.b	0
00003b38 00         9187 	.data.b	0
00003b39 01         9188 	.data.b	1
00003b3a 01         9189 	.data.b	1
00003b3b 00         9190 	.data.b	0
00003b3c 01         9191 	.data.b	1
                    9192 
                    9193 	.section	.debug_frame
                    9194 .LDW_603fde8:
000000a8 00000000*  9195 	.data.w	.LDW_unq_6-.LDW_unq_5
                    9196 .LDW_unq_5:
000000ac 00000000*  9197 	.data.w	.LDW_5f1c410
000000b0 00000000*  9198 	.data.w	CanBusOffInterrupt
000000b4 00000004   9199 	.data.w	__ghs_eofn_CanBusOffInterrupt-CanBusOffInterrupt
000000b8 01         9200 	.data.b	1
000000b9 00000000*  9201 	.data.w	.LDW31
000000bd 00         9202 	.data.b	0
000000be 00         9203 	.data.b	0
000000bf 00         9204 	.data.b	0
                    9205 .LDW_unq_6:
                    9206 	.section	.debug_line
00000587 020500     9207 	.data.b	0,5,2
0000058a 00000000*  9208 	.data.w	CanBusOffInterrupt
0000058e 06         9209 	.data.b	6
0000058f 03         9210 	.data.b	3
00000590 319e       9211 	.data.b	158,49
00000592 02         9212 	.data.b	2
00000593 00         9213 	.data.b	0
00000594 01         9214 	.data.b	1
00000595 02         9215 	.data.b	2
00000596 04         9216 	.data.b	4
00000597 010100     9217 	.data.b	0,1,1
                    9218 	.section	.debug_info
                    9219 .LDW_5fe01c0:
00003b3d 1f         9220 	.data.b	31

                                                                      Page 187
                                                              C:\Users\Fengyuan\AppData\Local\Temp\gh_0000sro1.s
00003b3e 00000000*  9221 	.data.w	.LDW21
00003b42 00000000*  9222 	.data.w	.LDW31
                    9223 
00003b46 00         9224 	.data.b	0
                    9225 
00003b47 00         9226 	.data.b	0
                    9227 
                    9228 .LDW_5fcf8c0:
00003b48 15         9229 	.data.b	21
00003b49 4d6e6143   9230 	.data.b	67,97,110,77,97,105,108,98,111,120,73,110,116,101,114,114,117,112,116,0
00003b4d 626c6961 
00003b51 6e49786f 
00003b55 72726574 
00003b59 00747075 
00003b5d 31b7       9231 	.data.b	183,49
00003b5f 24         9232 	.data.b	36
00003b60 01         9233 	.data.b	1
00003b61 00000000*  9234 	.data.w	CanMailboxInterrupt
00003b65 00000000*  9235 	.data.w	__ghs_eofn_CanMailboxInterrupt
00003b69 5d01       9236 	.data.b	1,93
00003b6b 0180b0     9237 	.data.b	176,128,1
00003b6e 78         9238 	.data.b	120
00003b6f 00         9239 	.data.b	0
00003b70 08         9240 	.data.b	8
00003b71 01         9241 	.data.b	1
00003b72 00         9242 	.data.b	0
00003b73 00         9243 	.data.b	0
00003b74 01         9244 	.data.b	1
00003b75 01         9245 	.data.b	1
00003b76 00         9246 	.data.b	0
00003b77 01         9247 	.data.b	1
                    9248 
                    9249 	.section	.debug_frame
                    9250 .LDW_6040128:
000000c0 00000000*  9251 	.data.w	.LDW_unq_8-.LDW_unq_7
                    9252 .LDW_unq_7:
000000c4 00000000*  9253 	.data.w	.LDW_5f1c410
000000c8 00000000*  9254 	.data.w	CanMailboxInterrupt
000000cc 0000002a   9255 	.data.w	__ghs_eofn_CanMailboxInterrupt-CanMailboxInterrupt
000000d0 01         9256 	.data.b	1
000000d1 00000000*  9257 	.data.w	.LDW51
000000d5 00         9258 	.data.b	0
000000d6 00         9259 	.data.b	0
000000d7 00         9260 	.data.b	0
                    9261 .LDW_unq_8:
                    9262 	.section	.debug_line
0000059a 020500     9263 	.data.b	0,5,2
0000059d 00000000*  9264 	.data.w	CanMailboxInterrupt
000005a1 06         9265 	.data.b	6
000005a2 03         9266 	.data.b	3
000005a3 31b7       9267 	.data.b	183,49
000005a5 02         9268 	.data.b	2
000005a6 00         9269 	.data.b	0
000005a7 01         9270 	.data.b	1
000005a8 03         9271 	.data.b	3
000005a9 15         9272 	.data.b	21
000005aa 02         9273 	.data.b	2
000005ab 02         9274 	.data.b	2
000005ac 01         9275 	.data.b	1
000005ad 03         9276 	.data.b	3
000005ae 06         9277 	.data.b	6

                                                                      Page 188
                                                              C:\Users\Fengyuan\AppData\Local\Temp\gh_0000sro1.s
000005af 02         9278 	.data.b	2
000005b0 04         9279 	.data.b	4
000005b1 01         9280 	.data.b	1
000005b2 03         9281 	.data.b	3
000005b3 07         9282 	.data.b	7
000005b4 02         9283 	.data.b	2
000005b5 02         9284 	.data.b	2
000005b6 01         9285 	.data.b	1
000005b7 020500     9286 	.data.b	0,5,2
000005ba 00000000*  9287 	.data.w	.LDWlin8
000005be 0c         9288 	.data.b	12
000005bf 1b         9289 	.data.b	27
000005c0 03         9290 	.data.b	3
000005c1 7d         9291 	.data.b	125
000005c2 02         9292 	.data.b	2
000005c3 06         9293 	.data.b	6
000005c4 01         9294 	.data.b	1
000005c5 020500     9295 	.data.b	0,5,2
000005c8 00000000*  9296 	.data.w	.LDWlin9
000005cc 03         9297 	.data.b	3
000005cd 04         9298 	.data.b	4
000005ce 02         9299 	.data.b	2
000005cf 00         9300 	.data.b	0
000005d0 01         9301 	.data.b	1
000005d1 03         9302 	.data.b	3
000005d2 06         9303 	.data.b	6
000005d3 02         9304 	.data.b	2
000005d4 00         9305 	.data.b	0
000005d5 01         9306 	.data.b	1
000005d6 03         9307 	.data.b	3
000005d7 17         9308 	.data.b	23
000005d8 02         9309 	.data.b	2
000005d9 0a         9310 	.data.b	10
000005da 01         9311 	.data.b	1
000005db 02         9312 	.data.b	2
000005dc 02         9313 	.data.b	2
000005dd 010100     9314 	.data.b	0,1,1
                    9315 	.section	.debug_info
                    9316 .LDW_5fe0220:
00003b78 1f         9317 	.data.b	31
00003b79 00000000*  9318 	.data.w	.LDW41
00003b7d 00000000*  9319 	.data.w	.LDW51
                    9320 
                    9321 .LDW_5ff08f8:
00003b81 06         9322 	.data.b	6
00003b82 6f666966   9323 	.data.b	102,105,102,111,76,111,111,112,67,110,116,0
00003b86 706f6f4c 
00003b8a 00746e43 
00003b8e 31bb       9324 	.data.b	187,49
00003b90 0a         9325 	.data.b	10
00003b91 01         9326 	.data.b	1
00003b92 00000000*  9327 	.data.w	.LDW_5e0df08
00003b96 00         9328 	.data.b	0
00003b97 00         9329 	.data.b	0
00003b98 5401       9330 	.data.b	1,84
                    9331 
                    9332 .LDW_5ff0a00:
00003b9a 06         9333 	.data.b	6
00003b9b 656c4670   9334 	.data.b	112,70,108,101,120,67,65,78,76,111,99,97,108,0
00003b9f 4e414378 
00003ba3 61636f4c 

                                                                      Page 189
                                                              C:\Users\Fengyuan\AppData\Local\Temp\gh_0000sro1.s
00003ba7 006c 
00003ba9 31bf       9335 	.data.b	191,49
00003bab 0f         9336 	.data.b	15
00003bac 01         9337 	.data.b	1
00003bad 00000000*  9338 	.data.w	.LDW_5e0e3d0
00003bb1 00         9339 	.data.b	0
00003bb2 00         9340 	.data.b	0
00003bb3 5501       9341 	.data.b	1,85
                    9342 
00003bb5 00         9343 	.data.b	0
                    9344 
00003bb6 00         9345 	.data.b	0
                    9346 
                    9347 .LDW_5fcef40:
00003bb7 15         9348 	.data.b	21
00003bb8 486e6143   9349 	.data.b	67,97,110,72,76,95,84,120,67,111,110,102,105,114,109,97,116,105,111,110,0
00003bbc 78545f4c 
00003bc0 666e6f43 
00003bc4 616d7269 
00003bc8 6e6f6974 
00003bcc 00 
00003bcd 32bc       9350 	.data.b	188,50
00003bcf 2b         9351 	.data.b	43
00003bd0 01         9352 	.data.b	1
00003bd1 00000000*  9353 	.data.w	CanHL_TxConfirmation..C.3A.5CVector.5CCBD1800257_D01_S32K1xx.5CApplications.5CS32K144_Start_new.5CAppl.5Cobj.5CCan.
00003bd5 00000000*  9354 	.data.w	__ghs_eofn_CanHL_TxConfirmation
00003bd9 5d01       9355 	.data.b	1,93
00003bdb 018090     9356 	.data.b	144,128,1
00003bde 7c         9357 	.data.b	124
00003bdf 00         9358 	.data.b	0
00003be0 04         9359 	.data.b	4
00003be1 01         9360 	.data.b	1
00003be2 00         9361 	.data.b	0
00003be3 00         9362 	.data.b	0
00003be4 00         9363 	.data.b	0
00003be5 01         9364 	.data.b	1
00003be6 00         9365 	.data.b	0
00003be7 01         9366 	.data.b	1
                    9367 
                    9368 	.section	.debug_frame
                    9369 .LDW_60404a8:
000000d8 00000000*  9370 	.data.w	.LDW_unq_a-.LDW_unq_9
                    9371 .LDW_unq_9:
000000dc 00000000*  9372 	.data.w	.LDW_5f1c410
000000e0 00000000*  9373 	.data.w	CanHL_TxConfirmation..C.3A.5CVector.5CCBD1800257_D01_S32K1xx.5CApplications.5CS32K144_Start_new.5CAppl.5Cobj.5CCan.
000000e4 0000004c   9374 	.data.w	__ghs_eofn_CanHL_TxConfirmation-CanHL_TxConfirmation..C.3A.5CVector.5CCBD1800257_D01_S32K1xx.5CApplications.5CS32K144_Start_new.5CAppl.5Cobj.5CCan.
000000e8 01         9375 	.data.b	1
000000e9 00000000*  9376 	.data.w	.LDW91
000000ed 00         9377 	.data.b	0
000000ee 00         9378 	.data.b	0
000000ef 00         9379 	.data.b	0
                    9380 .LDW_unq_a:
                    9381 	.section	.debug_line
000005e0 020500     9382 	.data.b	0,5,2
000005e3 00000000*  9383 	.data.w	CanHL_TxConfirmation..C.3A.5CVector.5CCBD1800257_D01_S32K1xx.5CApplications.5CS32K144_Start_new.5CAppl.5Cobj.5CCan.
000005e7 06         9384 	.data.b	6
000005e8 03         9385 	.data.b	3
000005e9 32bc       9386 	.data.b	188,50
000005eb 02         9387 	.data.b	2
000005ec 00         9388 	.data.b	0
000005ed 01         9389 	.data.b	1

                                                                      Page 190
                                                              C:\Users\Fengyuan\AppData\Local\Temp\gh_0000sro1.s
000005ee 03         9390 	.data.b	3
000005ef 11         9391 	.data.b	17
000005f0 02         9392 	.data.b	2
000005f1 02         9393 	.data.b	2
000005f2 01         9394 	.data.b	1
000005f3 020500     9395 	.data.b	0,5,2
000005f6 00000000*  9396 	.data.w	.LDWlin10
000005fa 0b         9397 	.data.b	11
000005fb 0c         9398 	.data.b	12
000005fc 03         9399 	.data.b	3
000005fd 04         9400 	.data.b	4
000005fe 02         9401 	.data.b	2
000005ff 00         9402 	.data.b	0
00000600 01         9403 	.data.b	1
00000601 03         9404 	.data.b	3
00000602 11         9405 	.data.b	17
00000603 02         9406 	.data.b	2
00000604 00         9407 	.data.b	0
00000605 01         9408 	.data.b	1
00000606 2d         9409 	.data.b	45
00000607 020500     9410 	.data.b	0,5,2
0000060a 00000000*  9411 	.data.w	.LDWlin11
0000060e 0b         9412 	.data.b	11
0000060f 0b         9413 	.data.b	11
00000610 3b         9414 	.data.b	59
00000611 02         9415 	.data.b	2
00000612 00         9416 	.data.b	0
00000613 03         9417 	.data.b	3
00000614 00f9       9418 	.data.b	249,0
00000616 02         9419 	.data.b	2
00000617 00         9420 	.data.b	0
00000618 01         9421 	.data.b	1
00000619 03         9422 	.data.b	3
0000061a 0c         9423 	.data.b	12
0000061b 02         9424 	.data.b	2
0000061c 0a         9425 	.data.b	10
0000061d 01         9426 	.data.b	1
0000061e 020500     9427 	.data.b	0,5,2
00000621 00000000*  9428 	.data.w	.LDWlin12
00000625 03         9429 	.data.b	3
00000626 3d         9430 	.data.b	61
00000627 02         9431 	.data.b	2
00000628 00         9432 	.data.b	0
00000629 01         9433 	.data.b	1
0000062a 02         9434 	.data.b	2
0000062b 00         9435 	.data.b	0
0000062c 03         9436 	.data.b	3
0000062d 05         9437 	.data.b	5
0000062e 02         9438 	.data.b	2
0000062f 00         9439 	.data.b	0
00000630 01         9440 	.data.b	1
00000631 0b         9441 	.data.b	11
00000632 0b         9442 	.data.b	11
00000633 3b         9443 	.data.b	59
00000634 02         9444 	.data.b	2
00000635 00         9445 	.data.b	0
00000636 03         9446 	.data.b	3
00000637 05         9447 	.data.b	5
00000638 02         9448 	.data.b	2
00000639 00         9449 	.data.b	0
0000063a 01         9450 	.data.b	1

                                                                      Page 191
                                                              C:\Users\Fengyuan\AppData\Local\Temp\gh_0000sro1.s
0000063b 02         9451 	.data.b	2
0000063c 02         9452 	.data.b	2
0000063d 010100     9453 	.data.b	0,1,1
                    9454 	.section	.debug_info
                    9455 .LDW_5ff15b0:
00003be8 11         9456 	.data.b	17
00003be9 624f7874   9457 	.data.b	116,120,79,98,106,72,97,110,100,108,101,0
00003bed 6e61486a 
00003bf1 00656c64 
00003bf5 32bc       9458 	.data.b	188,50
00003bf7 6e         9459 	.data.b	110
00003bf8 01         9460 	.data.b	1
00003bf9 00000000*  9461 	.data.w	.LDW_5e0e5e0
00003bfd 00         9462 	.data.b	0
00003bfe 5001       9463 	.data.b	1,80
                    9464 
                    9465 .LDW_6021eb0:
00003c00 1f         9466 	.data.b	31
00003c01 00000000*  9467 	.data.w	.LDW61
00003c05 00000000*  9468 	.data.w	.LDW91
                    9469 
                    9470 .LDW_5ff13f8:
00003c09 07         9471 	.data.b	7
00003c0a 6f727265   9472 	.data.b	101,114,114,111,114,73,100,0
00003c0e 00644972 
00003c12 32bf       9473 	.data.b	191,50
00003c14 09         9474 	.data.b	9
00003c15 01         9475 	.data.b	1
00003c16 00000000*  9476 	.data.w	.LDW_5e0df08
00003c1a 00         9477 	.data.b	0
00003c1b 00         9478 	.data.b	0
                    9479 
                    9480 .LDW_6021d60:
00003c1c 1f         9481 	.data.b	31
00003c1d 00000000*  9482 	.data.w	.LDW71
00003c21 00000000*  9483 	.data.w	.LDW81
                    9484 
                    9485 .LDW_5ff1240:
00003c25 06         9486 	.data.b	6
00003c26 54676f6c   9487 	.data.b	108,111,103,84,120,79,98,106,72,97,110,100,108,101,0
00003c2a 6a624f78 
00003c2e 646e6148 
00003c32 00656c 
00003c35 32d7       9488 	.data.b	215,50
00003c37 15         9489 	.data.b	21
00003c38 01         9490 	.data.b	1
00003c39 00000000*  9491 	.data.w	.LDW_5e0e5e0
00003c3d 00         9492 	.data.b	0
00003c3e 00         9493 	.data.b	0
00003c3f 5101       9494 	.data.b	1,81
                    9495 
                    9496 .LDW_5ff12f0:
00003c41 07         9497 	.data.b	7
00003c42 5f706d74   9498 	.data.b	116,109,112,95,112,100,117,0
00003c46 00756470 
00003c4a 32d8       9499 	.data.b	216,50
00003c4c 0f         9500 	.data.b	15
00003c4d 01         9501 	.data.b	1
00003c4e 00000000*  9502 	.data.w	.LDW_5ff1298
00003c52 00         9503 	.data.b	0
00003c53 00         9504 	.data.b	0

                                                                      Page 192
                                                              C:\Users\Fengyuan\AppData\Local\Temp\gh_0000sro1.s
                    9505 
00003c54 00         9506 	.data.b	0
                    9507 
00003c55 00         9508 	.data.b	0
                    9509 
00003c56 00         9510 	.data.b	0
                    9511 
                    9512 .LDW_5fceb18:
00003c57 15         9513 	.data.b	21
00003c58 426e6143   9514 	.data.b	67,97,110,66,97,115,105,99,67,97,110,77,115,103,82,101,99,101,105,118,101,100,0
00003c5c 63697361 
00003c60 4d6e6143 
00003c64 65526773 
00003c68 76696563 
00003c6c 006465 
00003c6f 34e7       9515 	.data.b	231,52
00003c71 2b         9516 	.data.b	43
00003c72 01         9517 	.data.b	1
00003c73 00000000*  9518 	.data.w	CanBasicCanMsgReceived..C.3A.5CVector.5CCBD1800257_D01_S32K1xx.5CApplications.5CS32K144_Start_new.5CAppl.5Cobj.5CCan.
00003c77 00000000*  9519 	.data.w	__ghs_eofn_CanBasicCanMsgReceived
00003c7b 5d01       9520 	.data.b	1,93
00003c7d 0181f0     9521 	.data.b	240,129,1
00003c80 70         9522 	.data.b	112
00003c81 00         9523 	.data.b	0
00003c82 14         9524 	.data.b	20
00003c83 01         9525 	.data.b	1
00003c84 00         9526 	.data.b	0
00003c85 00         9527 	.data.b	0
00003c86 00         9528 	.data.b	0
00003c87 01         9529 	.data.b	1
00003c88 00         9530 	.data.b	0
00003c89 01         9531 	.data.b	1
                    9532 
                    9533 	.section	.debug_frame
                    9534 .LDW_5edfef0:
000000f0 00000000*  9535 	.data.w	.LDW_unq_c-.LDW_unq_b
                    9536 .LDW_unq_b:
000000f4 00000000*  9537 	.data.w	.LDW_5f1c410
000000f8 00000000*  9538 	.data.w	CanBasicCanMsgReceived..C.3A.5CVector.5CCBD1800257_D01_S32K1xx.5CApplications.5CS32K144_Start_new.5CAppl.5Cobj.5CCan.
000000fc 000000ca   9539 	.data.w	__ghs_eofn_CanBasicCanMsgReceived-CanBasicCanMsgReceived..C.3A.5CVector.5CCBD1800257_D01_S32K1xx.5CApplications.5CS32K144_Start_new.5CAppl.5Cobj.5CCan.
00000100 01         9540 	.data.b	1
00000101 00000000*  9541 	.data.w	.LDW12
00000105 00         9542 	.data.b	0
00000106 00         9543 	.data.b	0
00000107 00         9544 	.data.b	0
                    9545 .LDW_unq_c:
                    9546 	.section	.debug_line
00000640 020500     9547 	.data.b	0,5,2
00000643 00000000*  9548 	.data.w	CanBasicCanMsgReceived..C.3A.5CVector.5CCBD1800257_D01_S32K1xx.5CApplications.5CS32K144_Start_new.5CAppl.5Cobj.5CCan.
00000647 06         9549 	.data.b	6
00000648 03         9550 	.data.b	3
00000649 34e7       9551 	.data.b	231,52
0000064b 02         9552 	.data.b	2
0000064c 00         9553 	.data.b	0
0000064d 01         9554 	.data.b	1
0000064e 03         9555 	.data.b	3
0000064f 09         9556 	.data.b	9
00000650 02         9557 	.data.b	2
00000651 04         9558 	.data.b	4
00000652 01         9559 	.data.b	1
00000653 03         9560 	.data.b	3

                                                                      Page 193
                                                              C:\Users\Fengyuan\AppData\Local\Temp\gh_0000sro1.s
00000654 10         9561 	.data.b	16
00000655 02         9562 	.data.b	2
00000656 02         9563 	.data.b	2
00000657 01         9564 	.data.b	1
00000658 03         9565 	.data.b	3
00000659 01         9566 	.data.b	1
0000065a 02         9567 	.data.b	2
0000065b 5a         9568 	.data.b	90
0000065c 01         9569 	.data.b	1
0000065d 03         9570 	.data.b	3
0000065e 0d         9571 	.data.b	13
0000065f 02         9572 	.data.b	2
00000660 00         9573 	.data.b	0
00000661 01         9574 	.data.b	1
00000662 020500     9575 	.data.b	0,5,2
00000665 00000000*  9576 	.data.w	.LDWlin13
00000669 0b         9577 	.data.b	11
0000066a 0b         9578 	.data.b	11
0000066b 03         9579 	.data.b	3
0000066c 04         9580 	.data.b	4
0000066d 02         9581 	.data.b	2
0000066e 04         9582 	.data.b	4
0000066f 01         9583 	.data.b	1
00000670 03         9584 	.data.b	3
00000671 04         9585 	.data.b	4
00000672 02         9586 	.data.b	2
00000673 0c         9587 	.data.b	12
00000674 01         9588 	.data.b	1
00000675 02         9589 	.data.b	2
00000676 00         9590 	.data.b	0
00000677 03         9591 	.data.b	3
00000678 06         9592 	.data.b	6
00000679 02         9593 	.data.b	2
0000067a 00         9594 	.data.b	0
0000067b 01         9595 	.data.b	1
0000067c 03         9596 	.data.b	3
0000067d 10         9597 	.data.b	16
0000067e 02         9598 	.data.b	2
0000067f 04         9599 	.data.b	4
00000680 01         9600 	.data.b	1
00000681 03         9601 	.data.b	3
00000682 10         9602 	.data.b	16
00000683 02         9603 	.data.b	2
00000684 0a         9604 	.data.b	10
00000685 01         9605 	.data.b	1
00000686 7b         9606 	.data.b	123
00000687 03         9607 	.data.b	3
00000688 04         9608 	.data.b	4
00000689 02         9609 	.data.b	2
0000068a 00         9610 	.data.b	0
0000068b 01         9611 	.data.b	1
0000068c 020500     9612 	.data.b	0,5,2
0000068f 00000000*  9613 	.data.w	.LDWlin14
00000693 0c         9614 	.data.b	12
00000694 0b         9615 	.data.b	11
00000695 03         9616 	.data.b	3
00000696 0f         9617 	.data.b	15
00000697 02         9618 	.data.b	2
00000698 02         9619 	.data.b	2
00000699 01         9620 	.data.b	1
0000069a 02         9621 	.data.b	2

                                                                      Page 194
                                                              C:\Users\Fengyuan\AppData\Local\Temp\gh_0000sro1.s
0000069b 00         9622 	.data.b	0
0000069c 02         9623 	.data.b	2
0000069d 00         9624 	.data.b	0
0000069e 02         9625 	.data.b	2
0000069f 00         9626 	.data.b	0
000006a0 0b         9627 	.data.b	11
000006a1 02         9628 	.data.b	2
000006a2 00         9629 	.data.b	0
000006a3 03         9630 	.data.b	3
000006a4 04         9631 	.data.b	4
000006a5 02         9632 	.data.b	2
000006a6 00         9633 	.data.b	0
000006a7 01         9634 	.data.b	1
000006a8 02         9635 	.data.b	2
000006a9 00         9636 	.data.b	0
000006aa 03         9637 	.data.b	3
000006ab 07         9638 	.data.b	7
000006ac 02         9639 	.data.b	2
000006ad 00         9640 	.data.b	0
000006ae 01         9641 	.data.b	1
000006af 0b         9642 	.data.b	11
000006b0 0b         9643 	.data.b	11
000006b1 020500     9644 	.data.b	0,5,2
000006b4 00000000*  9645 	.data.w	.LDWlin15
000006b8 03         9646 	.data.b	3
000006b9 64         9647 	.data.b	100
000006ba 02         9648 	.data.b	2
000006bb 00         9649 	.data.b	0
000006bc 01         9650 	.data.b	1
000006bd 03         9651 	.data.b	3
000006be 05         9652 	.data.b	5
000006bf 02         9653 	.data.b	2
000006c0 00         9654 	.data.b	0
000006c1 01         9655 	.data.b	1
000006c2 02         9656 	.data.b	2
000006c3 00         9657 	.data.b	0
000006c4 020500     9658 	.data.b	0,5,2
000006c7 00000000*  9659 	.data.w	.LDWlin16
000006cb 0b         9660 	.data.b	11
000006cc 0b         9661 	.data.b	11
000006cd 020500     9662 	.data.b	0,5,2
000006d0 00000000*  9663 	.data.w	.LDWlin17
000006d4 0b         9664 	.data.b	11
000006d5 0c         9665 	.data.b	12
000006d6 0d         9666 	.data.b	13
000006d7 03         9667 	.data.b	3
000006d8 10         9668 	.data.b	16
000006d9 02         9669 	.data.b	2
000006da 08         9670 	.data.b	8
000006db 01         9671 	.data.b	1
000006dc 02         9672 	.data.b	2
000006dd 00         9673 	.data.b	0
000006de 03         9674 	.data.b	3
000006df 05         9675 	.data.b	5
000006e0 02         9676 	.data.b	2
000006e1 00         9677 	.data.b	0
000006e2 01         9678 	.data.b	1
000006e3 02         9679 	.data.b	2
000006e4 04         9680 	.data.b	4
000006e5 010100     9681 	.data.b	0,1,1
                    9682 	.section	.debug_info

                                                                      Page 195
                                                              C:\Users\Fengyuan\AppData\Local\Temp\gh_0000sro1.s
                    9683 .LDW_5ff1500:
00003c8a 11         9684 	.data.b	17
00003c8b 624f7872   9685 	.data.b	114,120,79,98,106,72,97,110,100,108,101,0
00003c8f 6e61486a 
00003c93 00656c64 
00003c97 34e7       9686 	.data.b	231,52
00003c99 70         9687 	.data.b	112
00003c9a 01         9688 	.data.b	1
00003c9b 00000000*  9689 	.data.w	.LDW_5e0e5e0
00003c9f 00         9690 	.data.b	0
00003ca0 5001       9691 	.data.b	1,80
                    9692 
                    9693 .LDW_6021d90:
00003ca2 1f         9694 	.data.b	31
00003ca3 00000000*  9695 	.data.w	.LDW02
00003ca7 00000000*  9696 	.data.w	.LDW12
                    9697 
                    9698 .LDW_5ff1348:
00003cab 07         9699 	.data.b	7
00003cac 6f727265   9700 	.data.b	101,114,114,111,114,73,100,0
00003cb0 00644972 
00003cb4 34ea       9701 	.data.b	234,52
00003cb6 09         9702 	.data.b	9
00003cb7 01         9703 	.data.b	1
00003cb8 00000000*  9704 	.data.w	.LDW_5e0df08
00003cbc 00         9705 	.data.b	0
00003cbd 00         9706 	.data.b	0
                    9707 
                    9708 .LDW_5ff1558:
00003cbe 07         9709 	.data.b	7
00003cbf 61427872   9710 	.data.b	114,120,66,97,115,105,99,73,110,102,111,0
00003cc3 49636973 
00003cc7 006f666e 
00003ccb 34eb       9711 	.data.b	235,52
00003ccd 19         9712 	.data.b	25
00003cce 01         9713 	.data.b	1
00003ccf 00000000*  9714 	.data.w	.LDW_5ee4990
00003cd3 00         9715 	.data.b	0
00003cd4 00         9716 	.data.b	0
                    9717 
00003cd5 00         9718 	.data.b	0
                    9719 
00003cd6 00         9720 	.data.b	0
                    9721 
                    9722 .LDW_5fcee10:
00003cd7 15         9723 	.data.b	21
00003cd8 486e6143   9724 	.data.b	67,97,110,72,76,95,69,114,114,111,114,72,97,110,100,108,105,110,103,0
00003cdc 72455f4c 
00003ce0 48726f72 
00003ce4 6c646e61 
00003ce8 00676e69 
00003cec 37b4       9725 	.data.b	180,55
00003cee 2b         9726 	.data.b	43
00003cef 01         9727 	.data.b	1
00003cf0 00000000*  9728 	.data.w	CanHL_ErrorHandling..C.3A.5CVector.5CCBD1800257_D01_S32K1xx.5CApplications.5CS32K144_Start_new.5CAppl.5Cobj.5CCan.
00003cf4 00000000*  9729 	.data.w	__ghs_eofn_CanHL_ErrorHandling
00003cf8 5d01       9730 	.data.b	1,93
00003cfa 018090     9731 	.data.b	144,128,1
00003cfd 7c         9732 	.data.b	124
00003cfe 00         9733 	.data.b	0
00003cff 04         9734 	.data.b	4

                                                                      Page 196
                                                              C:\Users\Fengyuan\AppData\Local\Temp\gh_0000sro1.s
00003d00 01         9735 	.data.b	1
00003d01 00         9736 	.data.b	0
00003d02 00         9737 	.data.b	0
00003d03 00         9738 	.data.b	0
00003d04 01         9739 	.data.b	1
00003d05 00         9740 	.data.b	0
00003d06 01         9741 	.data.b	1
                    9742 
                    9743 	.section	.debug_frame
                    9744 .LDW_5ede730:
00000108 00000000*  9745 	.data.w	.LDW_unq_e-.LDW_unq_d
                    9746 .LDW_unq_d:
0000010c 00000000*  9747 	.data.w	.LDW_5f1c410
00000110 00000000*  9748 	.data.w	CanHL_ErrorHandling..C.3A.5CVector.5CCBD1800257_D01_S32K1xx.5CApplications.5CS32K144_Start_new.5CAppl.5Cobj.5CCan.
00000114 00000054   9749 	.data.w	__ghs_eofn_CanHL_ErrorHandling-CanHL_ErrorHandling..C.3A.5CVector.5CCBD1800257_D01_S32K1xx.5CApplications.5CS32K144_Start_new.5CAppl.5Cobj.5CCan.
00000118 01         9750 	.data.b	1
00000119 00000000*  9751 	.data.w	.LDW52
0000011d 00         9752 	.data.b	0
0000011e 00         9753 	.data.b	0
0000011f 00         9754 	.data.b	0
                    9755 .LDW_unq_e:
                    9756 	.section	.debug_line
000006e8 020500     9757 	.data.b	0,5,2
000006eb 00000000*  9758 	.data.w	CanHL_ErrorHandling..C.3A.5CVector.5CCBD1800257_D01_S32K1xx.5CApplications.5CS32K144_Start_new.5CAppl.5Cobj.5CCan.
000006ef 06         9759 	.data.b	6
000006f0 03         9760 	.data.b	3
000006f1 37b4       9761 	.data.b	180,55
000006f3 02         9762 	.data.b	2
000006f4 00         9763 	.data.b	0
000006f5 01         9764 	.data.b	1
000006f6 03         9765 	.data.b	3
000006f7 17         9766 	.data.b	23
000006f8 02         9767 	.data.b	2
000006f9 02         9768 	.data.b	2
000006fa 01         9769 	.data.b	1
000006fb 1c         9770 	.data.b	28
000006fc 020500     9771 	.data.b	0,5,2
000006ff 00000000*  9772 	.data.w	.LDWlin18
00000703 0b         9773 	.data.b	11
00000704 0b         9774 	.data.b	11
00000705 03         9775 	.data.b	3
00000706 04         9776 	.data.b	4
00000707 02         9777 	.data.b	2
00000708 04         9778 	.data.b	4
00000709 01         9779 	.data.b	1
0000070a 02         9780 	.data.b	2
0000070b 04         9781 	.data.b	4
0000070c 020500     9782 	.data.b	0,5,2
0000070f 00000000*  9783 	.data.w	.LDWlin19
00000713 0c         9784 	.data.b	12
00000714 03         9785 	.data.b	3
00000715 7e         9786 	.data.b	126
00000716 02         9787 	.data.b	2
00000717 0e         9788 	.data.b	14
00000718 01         9789 	.data.b	1
00000719 020500     9790 	.data.b	0,5,2
0000071c 00000000*  9791 	.data.w	.LDWlin20
00000720 0d         9792 	.data.b	13
00000721 0d         9793 	.data.b	13
00000722 1d         9794 	.data.b	29
00000723 24         9795 	.data.b	36

                                                                      Page 197
                                                              C:\Users\Fengyuan\AppData\Local\Temp\gh_0000sro1.s
00000724 1b         9796 	.data.b	27
00000725 03         9797 	.data.b	3
00000726 0b         9798 	.data.b	11
00000727 02         9799 	.data.b	2
00000728 02         9800 	.data.b	2
00000729 01         9801 	.data.b	1
0000072a 33         9802 	.data.b	51
0000072b 1c         9803 	.data.b	28
0000072c 2b         9804 	.data.b	43
0000072d 02         9805 	.data.b	2
0000072e 00         9806 	.data.b	0
0000072f 03         9807 	.data.b	3
00000730 06         9808 	.data.b	6
00000731 02         9809 	.data.b	2
00000732 00         9810 	.data.b	0
00000733 01         9811 	.data.b	1
00000734 0b         9812 	.data.b	11
00000735 0c         9813 	.data.b	12
00000736 02         9814 	.data.b	2
00000737 00         9815 	.data.b	0
00000738 03         9816 	.data.b	3
00000739 04         9817 	.data.b	4
0000073a 02         9818 	.data.b	2
0000073b 00         9819 	.data.b	0
0000073c 01         9820 	.data.b	1
0000073d 02         9821 	.data.b	2
0000073e 02         9822 	.data.b	2
0000073f 010100     9823 	.data.b	0,1,1
                    9824 	.section	.debug_info
                    9825 .LDW_6021ee0:
00003d07 1f         9826 	.data.b	31
00003d08 00000000*  9827 	.data.w	.LDW22
00003d0c 00000000*  9828 	.data.w	.LDW52
                    9829 
                    9830 .LDW_5ff13a0:
00003d10 07         9831 	.data.b	7
00003d11 6f727265   9832 	.data.b	101,114,114,111,114,73,100,0
00003d15 00644972 
00003d19 37b7       9833 	.data.b	183,55
00003d1b 09         9834 	.data.b	9
00003d1c 01         9835 	.data.b	1
00003d1d 00000000*  9836 	.data.w	.LDW_5e0df08
00003d21 00         9837 	.data.b	0
00003d22 00         9838 	.data.b	0
                    9839 
                    9840 .LDW_6021df0:
00003d23 1f         9841 	.data.b	31
00003d24 00000000*  9842 	.data.w	.LDW32
00003d28 00000000*  9843 	.data.w	.LDW42
                    9844 
                    9845 .LDW_5ff1608:
00003d2c 06         9846 	.data.b	6
00003d2d 624f7768   9847 	.data.b	104,119,79,98,106,72,97,110,100,108,101,0
00003d31 6e61486a 
00003d35 00656c64 
00003d39 37ca       9848 	.data.b	202,55
00003d3b 11         9849 	.data.b	17
00003d3c 01         9850 	.data.b	1
00003d3d 00000000*  9851 	.data.w	.LDW_5ee2818
00003d41 00         9852 	.data.b	0
00003d42 00         9853 	.data.b	0

                                                                      Page 198
                                                              C:\Users\Fengyuan\AppData\Local\Temp\gh_0000sro1.s
00003d43 5201       9854 	.data.b	1,82
                    9855 
                    9856 .LDW_5ff1450:
00003d45 06         9857 	.data.b	6
00003d46 656c4670   9858 	.data.b	112,70,108,101,120,67,65,78,76,111,99,97,108,0
00003d4a 4e414378 
00003d4e 61636f4c 
00003d52 006c 
00003d54 37cc       9859 	.data.b	204,55
00003d56 11         9860 	.data.b	17
00003d57 01         9861 	.data.b	1
00003d58 00000000*  9862 	.data.w	.LDW_5e0e3d0
00003d5c 00         9863 	.data.b	0
00003d5d 00         9864 	.data.b	0
00003d5e 5101       9865 	.data.b	1,81
                    9866 
00003d60 00         9867 	.data.b	0
                    9868 
00003d61 00         9869 	.data.b	0
                    9870 
00003d62 00         9871 	.data.b	0
                    9872 
                    9873 .LDW_5fcf108:
00003d63 15         9874 	.data.b	21
00003d64 5f6e6143   9875 	.data.b	67,97,110,95,73,110,105,116,77,101,109,111,114,121,0
00003d68 74696e49 
00003d6c 6f6d654d 
00003d70 007972 
00003d73 38d7       9876 	.data.b	215,56
00003d75 20         9877 	.data.b	32
00003d76 01         9878 	.data.b	1
00003d77 00000000*  9879 	.data.w	Can_InitMemory
00003d7b 00000000*  9880 	.data.w	__ghs_eofn_Can_InitMemory
00003d7f 5d01       9881 	.data.b	1,93
00003d81 00         9882 	.data.b	0
00003d82 04         9883 	.data.b	4
00003d83 00         9884 	.data.b	0
00003d84 7c         9885 	.data.b	124
00003d85 01         9886 	.data.b	1
00003d86 00         9887 	.data.b	0
00003d87 00         9888 	.data.b	0
00003d88 01         9889 	.data.b	1
00003d89 01         9890 	.data.b	1
00003d8a 00         9891 	.data.b	0
00003d8b 01         9892 	.data.b	1
                    9893 
                    9894 	.section	.debug_frame
                    9895 .LDW_5ede430:
00000120 00000000*  9896 	.data.w	.LDW_unq_10-.LDW_unq_f
                    9897 .LDW_unq_f:
00000124 00000000*  9898 	.data.w	.LDW_5f1c410
00000128 00000000*  9899 	.data.w	Can_InitMemory
0000012c 00000008   9900 	.data.w	__ghs_eofn_Can_InitMemory-Can_InitMemory
00000130 01         9901 	.data.b	1
00000131 00000000*  9902 	.data.w	.LDW72
00000135 00         9903 	.data.b	0
00000136 00         9904 	.data.b	0
00000137 00         9905 	.data.b	0
                    9906 .LDW_unq_10:
                    9907 	.section	.debug_line
00000742 020500     9908 	.data.b	0,5,2

                                                                      Page 199
                                                              C:\Users\Fengyuan\AppData\Local\Temp\gh_0000sro1.s
00000745 00000000*  9909 	.data.w	Can_InitMemory
00000749 06         9910 	.data.b	6
0000074a 03         9911 	.data.b	3
0000074b 38db       9912 	.data.b	219,56
0000074d 02         9913 	.data.b	2
0000074e 00         9914 	.data.b	0
0000074f 01         9915 	.data.b	1
00000750 03         9916 	.data.b	3
00000751 0a         9917 	.data.b	10
00000752 02         9918 	.data.b	2
00000753 06         9919 	.data.b	6
00000754 01         9920 	.data.b	1
00000755 02         9921 	.data.b	2
00000756 02         9922 	.data.b	2
00000757 010100     9923 	.data.b	0,1,1
                    9924 	.section	.debug_info
                    9925 .LDW_6021dc0:
00003d8c 1f         9926 	.data.b	31
00003d8d 00000000*  9927 	.data.w	.LDW62
00003d91 00000000*  9928 	.data.w	.LDW72
                    9929 
00003d95 00         9930 	.data.b	0
                    9931 
00003d96 00         9932 	.data.b	0
                    9933 
                    9934 .LDW_6023b08:
00003d97 16         9935 	.data.b	22
00003d98 5f6e6143   9936 	.data.b	67,97,110,95,67,104,97,110,103,101,66,97,117,100,114,97,116,101,0
00003d9c 6e616843 
00003da0 61426567 
00003da4 61726475 
00003da8 006574 
00003dab 39b8       9937 	.data.b	184,57
00003dad 2a         9938 	.data.b	42
00003dae 01         9939 	.data.b	1
00003daf 00000000*  9940 	.data.w	.LDW_5ff14a8
00003db3 00000000*  9941 	.data.w	Can_ChangeBaudrate
00003db7 00000000*  9942 	.data.w	__ghs_eofn_Can_ChangeBaudrate
00003dbb 5d01       9943 	.data.b	1,93
00003dbd 0181f0     9944 	.data.b	240,129,1
00003dc0 70         9945 	.data.b	112
00003dc1 00         9946 	.data.b	0
00003dc2 10         9947 	.data.b	16
00003dc3 01         9948 	.data.b	1
00003dc4 00         9949 	.data.b	0
00003dc5 00         9950 	.data.b	0
00003dc6 01         9951 	.data.b	1
00003dc7 01         9952 	.data.b	1
00003dc8 00         9953 	.data.b	0
00003dc9 01         9954 	.data.b	1
                    9955 
                    9956 	.section	.debug_abbrev
0000018d 16         9957 	.data.b	22
0000018e 2e         9958 	.data.b	46
0000018f 01         9959 	.data.b	1
00000190 0803       9960 	.data.b	3,8
00000192 0f3b       9961 	.data.b	59,15
00000194 0f39       9962 	.data.b	57,15
00000196 0f3a       9963 	.data.b	58,15
00000198 1049       9964 	.data.b	73,16
0000019a 0111       9965 	.data.b	17,1

                                                                      Page 200
                                                              C:\Users\Fengyuan\AppData\Local\Temp\gh_0000sro1.s
0000019c 0112       9966 	.data.b	18,1
0000019e 0a40       9967 	.data.b	64,10
000001a0 4183       9968 	.data.b	131,65
000001a2 0f         9969 	.data.b	15
000001a3 4187       9970 	.data.b	135,65
000001a5 0d         9971 	.data.b	13
000001a6 4185       9972 	.data.b	133,65
000001a8 0f         9973 	.data.b	15
000001a9 4186       9974 	.data.b	134,65
000001ab 0d         9975 	.data.b	13
000001ac 4192       9976 	.data.b	146,65
000001ae 0f         9977 	.data.b	15
000001af 0c3c       9978 	.data.b	60,12
000001b1 0b20       9979 	.data.b	32,11
000001b3 0c3f       9980 	.data.b	63,12
000001b5 0b32       9981 	.data.b	50,11
000001b7 0b4c       9982 	.data.b	76,11
000001b9 0c27       9983 	.data.b	39,12
000001bb 0000       9984 	.data.b	0,0
                    9985 
                    9986 	.section	.debug_frame
                    9987 .LDW_5ede1b0:
00000138 00000000*  9988 	.data.w	.LDW_unq_12-.LDW_unq_11
                    9989 .LDW_unq_11:
0000013c 00000000*  9990 	.data.w	.LDW_5f1c410
00000140 00000000*  9991 	.data.w	Can_ChangeBaudrate
00000144 0000004e   9992 	.data.w	__ghs_eofn_Can_ChangeBaudrate-Can_ChangeBaudrate
00000148 01         9993 	.data.b	1
00000149 00000000*  9994 	.data.w	.LDW13
0000014d 00         9995 	.data.b	0
0000014e 00         9996 	.data.b	0
0000014f 00         9997 	.data.b	0
                    9998 .LDW_unq_12:
                    9999 	.section	.debug_line
0000075a 020500    10000 	.data.b	0,5,2
0000075d 00000000* 10001 	.data.w	Can_ChangeBaudrate
00000761 06        10002 	.data.b	6
00000762 03        10003 	.data.b	3
00000763 39b8      10004 	.data.b	184,57
00000765 02        10005 	.data.b	2
00000766 00        10006 	.data.b	0
00000767 01        10007 	.data.b	1
00000768 03        10008 	.data.b	3
00000769 04        10009 	.data.b	4
0000076a 02        10010 	.data.b	2
0000076b 02        10011 	.data.b	2
0000076c 01        10012 	.data.b	1
0000076d 03        10013 	.data.b	3
0000076e 06        10014 	.data.b	6
0000076f 02        10015 	.data.b	2
00000770 02        10016 	.data.b	2
00000771 01        10017 	.data.b	1
00000772 23        10018 	.data.b	35
00000773 0b        10019 	.data.b	11
00000774 020500    10020 	.data.b	0,5,2
00000777 00000000* 10021 	.data.w	.LDWlin21
0000077b 0b        10022 	.data.b	11
0000077c 03        10023 	.data.b	3
0000077d 09        10024 	.data.b	9
0000077e 02        10025 	.data.b	2
0000077f 00        10026 	.data.b	0

                                                                      Page 201
                                                              C:\Users\Fengyuan\AppData\Local\Temp\gh_0000sro1.s
00000780 01        10027 	.data.b	1
00000781 02        10028 	.data.b	2
00000782 00        10029 	.data.b	0
00000783 020500    10030 	.data.b	0,5,2
00000786 00000000* 10031 	.data.w	.LDWlin22
0000078a 0b        10032 	.data.b	11
0000078b 0b        10033 	.data.b	11
0000078c 020500    10034 	.data.b	0,5,2
0000078f 00000000* 10035 	.data.w	.LDWlin23
00000793 0b        10036 	.data.b	11
00000794 0d        10037 	.data.b	13
00000795 0d        10038 	.data.b	13
00000796 02        10039 	.data.b	2
00000797 04        10040 	.data.b	4
00000798 020500    10041 	.data.b	0,5,2
0000079b 00000000* 10042 	.data.w	.LDWlin24
0000079f 0c        10043 	.data.b	12
000007a0 020500    10044 	.data.b	0,5,2
000007a3 00000000* 10045 	.data.w	.LDWlin25
000007a7 0b        10046 	.data.b	11
000007a8 0b        10047 	.data.b	11
000007a9 13        10048 	.data.b	19
000007aa 2b        10049 	.data.b	43
000007ab 14        10050 	.data.b	20
000007ac 020500    10051 	.data.b	0,5,2
000007af 00000000* 10052 	.data.w	.LDWlin26
000007b3 0b        10053 	.data.b	11
000007b4 02        10054 	.data.b	2
000007b5 00        10055 	.data.b	0
000007b6 03        10056 	.data.b	3
000007b7 77        10057 	.data.b	119
000007b8 02        10058 	.data.b	2
000007b9 00        10059 	.data.b	0
000007ba 01        10060 	.data.b	1
000007bb 020500    10061 	.data.b	0,5,2
000007be 00000000* 10062 	.data.w	.LDWlin27
000007c2 03        10063 	.data.b	3
000007c3 0a        10064 	.data.b	10
000007c4 02        10065 	.data.b	2
000007c5 00        10066 	.data.b	0
000007c6 01        10067 	.data.b	1
000007c7 0b        10068 	.data.b	11
000007c8 02        10069 	.data.b	2
000007c9 00        10070 	.data.b	0
000007ca 02        10071 	.data.b	2
000007cb 00        10072 	.data.b	0
000007cc 02        10073 	.data.b	2
000007cd 00        10074 	.data.b	0
000007ce 03        10075 	.data.b	3
000007cf 04        10076 	.data.b	4
000007d0 02        10077 	.data.b	2
000007d1 00        10078 	.data.b	0
000007d2 01        10079 	.data.b	1
000007d3 0b        10080 	.data.b	11
000007d4 0b        10081 	.data.b	11
000007d5 33        10082 	.data.b	51
000007d6 02        10083 	.data.b	2
000007d7 00        10084 	.data.b	0
000007d8 03        10085 	.data.b	3
000007d9 07        10086 	.data.b	7
000007da 02        10087 	.data.b	2

                                                                      Page 202
                                                              C:\Users\Fengyuan\AppData\Local\Temp\gh_0000sro1.s
000007db 00        10088 	.data.b	0
000007dc 01        10089 	.data.b	1
000007dd 06        10090 	.data.b	6
000007de 02        10091 	.data.b	2
000007df 02        10092 	.data.b	2
000007e0 02        10093 	.data.b	2
000007e1 02        10094 	.data.b	2
000007e2 010100    10095 	.data.b	0,1,1
                   10096 	.section	.debug_info
                   10097 .LDW_5ff16b8:
00003dca 11        10098 	.data.b	17
00003dcb 746e6f43  10099 	.data.b	67,111,110,116,114,111,108,108,101,114,0
00003dcf 6c6c6f72 
00003dd3 007265 
00003dd6 39b8      10100 	.data.b	184,57
00003dd8 44        10101 	.data.b	68
00003dd9 01        10102 	.data.b	1
00003dda 00000000* 10103 	.data.w	.LDW_5e0df08
00003dde 00        10104 	.data.b	0
00003ddf 5001      10105 	.data.b	1,80
                   10106 
                   10107 .LDW_60256f0:
00003de1 11        10108 	.data.b	17
00003de2 64756142  10109 	.data.b	66,97,117,100,114,97,116,101,0
00003de6 65746172 
00003dea 00 
00003deb 39b8      10110 	.data.b	184,57
00003ded 78        10111 	.data.b	120
00003dee 01        10112 	.data.b	1
00003def 00000000* 10113 	.data.w	.LDW_5ff1660
00003df3 00        10114 	.data.b	0
00003df4 5101      10115 	.data.b	1,81
                   10116 
                   10117 .LDW_6021b80:
00003df6 1f        10118 	.data.b	31
00003df7 00000000* 10119 	.data.w	.LDW82
00003dfb 00000000* 10120 	.data.w	.LDW13
                   10121 
                   10122 .LDW_6025538:
00003dff 06        10123 	.data.b	6
00003e00 56746572  10124 	.data.b	114,101,116,86,97,108,0
00003e04 006c61 
00003e07 39bb      10125 	.data.b	187,57
00003e09 12        10126 	.data.b	18
00003e0a 01        10127 	.data.b	1
00003e0b 00000000* 10128 	.data.w	.LDW_5ff14a8
00003e0f 00        10129 	.data.b	0
00003e10 00        10130 	.data.b	0
00003e11 5401      10131 	.data.b	1,84
                   10132 
                   10133 .LDW_6025278:
00003e13 06        10134 	.data.b	6
00003e14 6f727265  10135 	.data.b	101,114,114,111,114,73,100,0
00003e18 00644972 
00003e1c 39bc      10136 	.data.b	188,57
00003e1e 09        10137 	.data.b	9
00003e1f 01        10138 	.data.b	1
00003e20 00000000* 10139 	.data.w	.LDW_5e0df08
00003e24 00        10140 	.data.b	0
00003e25 00        10141 	.data.b	0
00003e26 5301      10142 	.data.b	1,83

                                                                      Page 203
                                                              C:\Users\Fengyuan\AppData\Local\Temp\gh_0000sro1.s
                   10143 
                   10144 .LDW_60217c0:
00003e28 1f        10145 	.data.b	31
00003e29 00000000* 10146 	.data.w	.LDW92
00003e2d 00000000* 10147 	.data.w	.LDW03
                   10148 
                   10149 .LDW_60255e8:
00003e31 06        10150 	.data.b	6
00003e32 64756162  10151 	.data.b	98,97,117,100,114,97,116,101,73,110,100,101,120,0
00003e36 65746172 
00003e3a 65646e49 
00003e3e 0078 
00003e40 39d7      10152 	.data.b	215,57
00003e42 11        10153 	.data.b	17
00003e43 01        10154 	.data.b	1
00003e44 00000000* 10155 	.data.w	.LDW_6025590
00003e48 00        10156 	.data.b	0
00003e49 00        10157 	.data.b	0
00003e4a 5201      10158 	.data.b	1,82
                   10159 
00003e4c 00        10160 	.data.b	0
                   10161 
00003e4d 00        10162 	.data.b	0
                   10163 
00003e4e 00        10164 	.data.b	0
                   10165 
                   10166 .LDW_6023cd0:
00003e4f 15        10167 	.data.b	21
00003e50 5f6e6143  10168 	.data.b	67,97,110,95,73,110,105,116,0
00003e54 74696e49 
00003e58 00 
00003e59 3bcf      10169 	.data.b	207,59
00003e5b 20        10170 	.data.b	32
00003e5c 01        10171 	.data.b	1
00003e5d 00000000* 10172 	.data.w	Can_Init
00003e61 00000000* 10173 	.data.w	__ghs_eofn_Can_Init
00003e65 5d01      10174 	.data.b	1,93
00003e67 018090    10175 	.data.b	144,128,1
00003e6a 7c        10176 	.data.b	124
00003e6b 00        10177 	.data.b	0
00003e6c 04        10178 	.data.b	4
00003e6d 01        10179 	.data.b	1
00003e6e 00        10180 	.data.b	0
00003e6f 00        10181 	.data.b	0
00003e70 01        10182 	.data.b	1
00003e71 01        10183 	.data.b	1
00003e72 00        10184 	.data.b	0
00003e73 01        10185 	.data.b	1
                   10186 
                   10187 	.section	.debug_frame
                   10188 .LDW_5ede5f0:
00000150 00000000* 10189 	.data.w	.LDW_unq_14-.LDW_unq_13
                   10190 .LDW_unq_13:
00000154 00000000* 10191 	.data.w	.LDW_5f1c410
00000158 00000000* 10192 	.data.w	Can_Init
0000015c 00000042  10193 	.data.w	__ghs_eofn_Can_Init-Can_Init
00000160 01        10194 	.data.b	1
00000161 00000000* 10195 	.data.w	.LDW33
00000165 00        10196 	.data.b	0
00000166 00        10197 	.data.b	0
00000167 00        10198 	.data.b	0

                                                                      Page 204
                                                              C:\Users\Fengyuan\AppData\Local\Temp\gh_0000sro1.s
                   10199 .LDW_unq_14:
                   10200 	.section	.debug_line
000007e5 020500    10201 	.data.b	0,5,2
000007e8 00000000* 10202 	.data.w	Can_Init
000007ec 06        10203 	.data.b	6
000007ed 03        10204 	.data.b	3
000007ee 3bcf      10205 	.data.b	207,59
000007f0 02        10206 	.data.b	2
000007f1 00        10207 	.data.b	0
000007f2 01        10208 	.data.b	1
000007f3 03        10209 	.data.b	3
000007f4 32        10210 	.data.b	50
000007f5 02        10211 	.data.b	2
000007f6 04        10212 	.data.b	4
000007f7 01        10213 	.data.b	1
000007f8 1b        10214 	.data.b	27
000007f9 0d        10215 	.data.b	13
000007fa 0d        10216 	.data.b	13
000007fb 02        10217 	.data.b	2
000007fc 00        10218 	.data.b	0
000007fd 0c        10219 	.data.b	12
000007fe 03        10220 	.data.b	3
000007ff 0b        10221 	.data.b	11
00000800 02        10222 	.data.b	2
00000801 00        10223 	.data.b	0
00000802 01        10224 	.data.b	1
00000803 03        10225 	.data.b	3
00000804 18        10226 	.data.b	24
00000805 02        10227 	.data.b	2
00000806 00        10228 	.data.b	0
00000807 01        10229 	.data.b	1
00000808 03        10230 	.data.b	3
00000809 07        10231 	.data.b	7
0000080a 02        10232 	.data.b	2
0000080b 00        10233 	.data.b	0
0000080c 01        10234 	.data.b	1
0000080d 03        10235 	.data.b	3
0000080e 18        10236 	.data.b	24
0000080f 02        10237 	.data.b	2
00000810 04        10238 	.data.b	4
00000811 01        10239 	.data.b	1
00000812 03        10240 	.data.b	3
00000813 1f        10241 	.data.b	31
00000814 02        10242 	.data.b	2
00000815 04        10243 	.data.b	4
00000816 01        10244 	.data.b	1
00000817 14        10245 	.data.b	20
00000818 03        10246 	.data.b	3
00000819 06        10247 	.data.b	6
0000081a 02        10248 	.data.b	2
0000081b 04        10249 	.data.b	4
0000081c 01        10250 	.data.b	1
0000081d 14        10251 	.data.b	20
0000081e 13        10252 	.data.b	19
0000081f 23        10253 	.data.b	35
00000820 03        10254 	.data.b	3
00000821 11        10255 	.data.b	17
00000822 02        10256 	.data.b	2
00000823 04        10257 	.data.b	4
00000824 01        10258 	.data.b	1
00000825 03        10259 	.data.b	3

                                                                      Page 205
                                                              C:\Users\Fengyuan\AppData\Local\Temp\gh_0000sro1.s
00000826 04        10260 	.data.b	4
00000827 02        10261 	.data.b	2
00000828 04        10262 	.data.b	4
00000829 01        10263 	.data.b	1
0000082a 020500    10264 	.data.b	0,5,2
0000082d 00000000* 10265 	.data.w	.LDWlin28
00000831 03        10266 	.data.b	3
00000832 0a        10267 	.data.b	10
00000833 02        10268 	.data.b	2
00000834 00        10269 	.data.b	0
00000835 01        10270 	.data.b	1
00000836 02        10271 	.data.b	2
00000837 00        10272 	.data.b	0
00000838 02        10273 	.data.b	2
00000839 00        10274 	.data.b	0
0000083a 02        10275 	.data.b	2
0000083b 00        10276 	.data.b	0
0000083c 03        10277 	.data.b	3
0000083d 04        10278 	.data.b	4
0000083e 02        10279 	.data.b	2
0000083f 00        10280 	.data.b	0
00000840 01        10281 	.data.b	1
00000841 0b        10282 	.data.b	11
00000842 0b        10283 	.data.b	11
00000843 3b        10284 	.data.b	59
00000844 02        10285 	.data.b	2
00000845 00        10286 	.data.b	0
00000846 03        10287 	.data.b	3
00000847 05        10288 	.data.b	5
00000848 02        10289 	.data.b	2
00000849 00        10290 	.data.b	0
0000084a 01        10291 	.data.b	1
0000084b 02        10292 	.data.b	2
0000084c 02        10293 	.data.b	2
0000084d 010100    10294 	.data.b	0,1,1
                   10295 	.section	.debug_info
                   10296 .LDW_60254e0:
00003e74 11        10297 	.data.b	17
00003e75 666e6f43  10298 	.data.b	67,111,110,102,105,103,80,116,114,0
00003e79 74506769 
00003e7d 0072 
00003e7f 3bcf      10299 	.data.b	207,59
00003e81 3c        10300 	.data.b	60
00003e82 01        10301 	.data.b	1
00003e83 00000000* 10302 	.data.w	.LDW_6025328
00003e87 00        10303 	.data.b	0
00003e88 5001      10304 	.data.b	1,80
                   10305 
                   10306 .LDW_6021a60:
00003e8a 1f        10307 	.data.b	31
00003e8b 00000000* 10308 	.data.w	.LDW23
00003e8f 00000000* 10309 	.data.w	.LDW33
                   10310 
                   10311 .LDW_6025380:
00003e93 07        10312 	.data.b	7
00003e94 6f727265  10313 	.data.b	101,114,114,111,114,73,100,0
00003e98 00644972 
00003e9c 3bd2      10314 	.data.b	210,59
00003e9e 09        10315 	.data.b	9
00003e9f 01        10316 	.data.b	1
00003ea0 00000000* 10317 	.data.w	.LDW_5e0df08

                                                                      Page 206
                                                              C:\Users\Fengyuan\AppData\Local\Temp\gh_0000sro1.s
00003ea4 00        10318 	.data.b	0
00003ea5 00        10319 	.data.b	0
                   10320 
00003ea6 00        10321 	.data.b	0
                   10322 
00003ea7 00        10323 	.data.b	0
                   10324 
                   10325 .LDW_6024488:
00003ea8 15        10326 	.data.b	21
00003ea9 5f6e6143  10327 	.data.b	67,97,110,95,73,110,105,116,67,111,110,116,114,111,108,108,101,114,0
00003ead 74696e49 
00003eb1 746e6f43 
00003eb5 6c6c6f72 
00003eb9 007265 
00003ebc 3dde      10328 	.data.b	222,61
00003ebe 20        10329 	.data.b	32
00003ebf 01        10330 	.data.b	1
00003ec0 00000000* 10331 	.data.w	Can_InitController
00003ec4 00000000* 10332 	.data.w	__ghs_eofn_Can_InitController
00003ec8 5d01      10333 	.data.b	1,93
00003eca 0181f0    10334 	.data.b	240,129,1
00003ecd 70        10335 	.data.b	112
00003ece 00        10336 	.data.b	0
00003ecf 34        10337 	.data.b	52
00003ed0 01        10338 	.data.b	1
00003ed1 00        10339 	.data.b	0
00003ed2 00        10340 	.data.b	0
00003ed3 01        10341 	.data.b	1
00003ed4 01        10342 	.data.b	1
00003ed5 00        10343 	.data.b	0
00003ed6 01        10344 	.data.b	1
                   10345 
                   10346 	.section	.debug_frame
                   10347 .LDW_5edbf20:
00000168 00000000* 10348 	.data.w	.LDW_unq_16-.LDW_unq_15
                   10349 .LDW_unq_15:
0000016c 00000000* 10350 	.data.w	.LDW_5f1c410
00000170 00000000* 10351 	.data.w	Can_InitController
00000174 00000276  10352 	.data.w	__ghs_eofn_Can_InitController-Can_InitController
00000178 01        10353 	.data.b	1
00000179 00000000* 10354 	.data.w	.LDW73
0000017d 00        10355 	.data.b	0
0000017e 00        10356 	.data.b	0
0000017f 00        10357 	.data.b	0
                   10358 .LDW_unq_16:
                   10359 	.section	.debug_line
00000850 020500    10360 	.data.b	0,5,2
00000853 00000000* 10361 	.data.w	Can_InitController
00000857 06        10362 	.data.b	6
00000858 03        10363 	.data.b	3
00000859 3ddf      10364 	.data.b	223,61
0000085b 02        10365 	.data.b	2
0000085c 00        10366 	.data.b	0
0000085d 01        10367 	.data.b	1
0000085e 03        10368 	.data.b	3
0000085f 09        10369 	.data.b	9
00000860 02        10370 	.data.b	2
00000861 04        10371 	.data.b	4
00000862 01        10372 	.data.b	1
00000863 020500    10373 	.data.b	0,5,2
00000866 00000000* 10374 	.data.w	.LDWlin29

                                                                      Page 207
                                                              C:\Users\Fengyuan\AppData\Local\Temp\gh_0000sro1.s
0000086a 0b        10375 	.data.b	11
0000086b 0c        10376 	.data.b	12
0000086c 03        10377 	.data.b	3
0000086d 1c        10378 	.data.b	28
0000086e 02        10379 	.data.b	2
0000086f 00        10380 	.data.b	0
00000870 01        10381 	.data.b	1
00000871 03        10382 	.data.b	3
00000872 15        10383 	.data.b	21
00000873 02        10384 	.data.b	2
00000874 00        10385 	.data.b	0
00000875 01        10386 	.data.b	1
00000876 03        10387 	.data.b	3
00000877 0d        10388 	.data.b	13
00000878 02        10389 	.data.b	2
00000879 0a        10390 	.data.b	10
0000087a 01        10391 	.data.b	1
0000087b 020500    10392 	.data.b	0,5,2
0000087e 00000000* 10393 	.data.w	.LDWlin30
00000882 02        10394 	.data.b	2
00000883 00        10395 	.data.b	0
00000884 020500    10396 	.data.b	0,5,2
00000887 00000000* 10397 	.data.w	.LDWlin31
0000088b 02        10398 	.data.b	2
0000088c 00        10399 	.data.b	0
0000088d 03        10400 	.data.b	3
0000088e 0b        10401 	.data.b	11
0000088f 02        10402 	.data.b	2
00000890 36        10403 	.data.b	54
00000891 01        10404 	.data.b	1
00000892 0b        10405 	.data.b	11
00000893 0b        10406 	.data.b	11
00000894 b3        10407 	.data.b	179
00000895 02        10408 	.data.b	2
00000896 00        10409 	.data.b	0
00000897 03        10410 	.data.b	3
00000898 0b        10411 	.data.b	11
00000899 02        10412 	.data.b	2
0000089a 00        10413 	.data.b	0
0000089b 01        10414 	.data.b	1
0000089c 0b        10415 	.data.b	11
0000089d 0b        10416 	.data.b	11
0000089e 020500    10417 	.data.b	0,5,2
000008a1 00000000* 10418 	.data.w	.LDWlin32
000008a5 0b        10419 	.data.b	11
000008a6 02        10420 	.data.b	2
000008a7 00        10421 	.data.b	0
000008a8 0d        10422 	.data.b	13
000008a9 0b        10423 	.data.b	11
000008aa 0b        10424 	.data.b	11
000008ab 43        10425 	.data.b	67
000008ac 02        10426 	.data.b	2
000008ad 00        10427 	.data.b	0
000008ae 03        10428 	.data.b	3
000008af 1e        10429 	.data.b	30
000008b0 02        10430 	.data.b	2
000008b1 00        10431 	.data.b	0
000008b2 01        10432 	.data.b	1
000008b3 020500    10433 	.data.b	0,5,2
000008b6 00000000* 10434 	.data.w	.LDWlin33
000008ba 0b        10435 	.data.b	11

                                                                      Page 208
                                                              C:\Users\Fengyuan\AppData\Local\Temp\gh_0000sro1.s
000008bb 0b        10436 	.data.b	11
000008bc 15        10437 	.data.b	21
000008bd 0b        10438 	.data.b	11
000008be 0c        10439 	.data.b	12
000008bf 02        10440 	.data.b	2
000008c0 00        10441 	.data.b	0
000008c1 0b        10442 	.data.b	11
000008c2 34        10443 	.data.b	52
000008c3 02        10444 	.data.b	2
000008c4 00        10445 	.data.b	0
000008c5 03        10446 	.data.b	3
000008c6 05        10447 	.data.b	5
000008c7 02        10448 	.data.b	2
000008c8 00        10449 	.data.b	0
000008c9 01        10450 	.data.b	1
000008ca 0b        10451 	.data.b	11
000008cb 0c        10452 	.data.b	12
000008cc 0d        10453 	.data.b	13
000008cd 0b        10454 	.data.b	11
000008ce 020500    10455 	.data.b	0,5,2
000008d1 00000000* 10456 	.data.w	.LDWlin34
000008d5 0b        10457 	.data.b	11
000008d6 02        10458 	.data.b	2
000008d7 00        10459 	.data.b	0
000008d8 03        10460 	.data.b	3
000008d9 04        10461 	.data.b	4
000008da 02        10462 	.data.b	2
000008db 00        10463 	.data.b	0
000008dc 01        10464 	.data.b	1
000008dd 02        10465 	.data.b	2
000008de 00        10466 	.data.b	0
000008df 03        10467 	.data.b	3
000008e0 04        10468 	.data.b	4
000008e1 02        10469 	.data.b	2
000008e2 00        10470 	.data.b	0
000008e3 01        10471 	.data.b	1
000008e4 0b        10472 	.data.b	11
000008e5 0b        10473 	.data.b	11
000008e6 3b        10474 	.data.b	59
000008e7 02        10475 	.data.b	2
000008e8 00        10476 	.data.b	0
000008e9 03        10477 	.data.b	3
000008ea 0b        10478 	.data.b	11
000008eb 02        10479 	.data.b	2
000008ec 00        10480 	.data.b	0
000008ed 01        10481 	.data.b	1
000008ee 02        10482 	.data.b	2
000008ef 04        10483 	.data.b	4
000008f0 010100    10484 	.data.b	0,1,1
                   10485 	.section	.debug_info
                   10486 .LDW_6024b98:
00003ed7 11        10487 	.data.b	17
00003ed8 746e6f43  10488 	.data.b	67,111,110,116,114,111,108,108,101,114,0
00003edc 6c6c6f72 
00003ee0 007265 
00003ee3 3dde      10489 	.data.b	222,61
00003ee5 3a        10490 	.data.b	58
00003ee6 01        10491 	.data.b	1
00003ee7 00000000* 10492 	.data.w	.LDW_5e0df08
00003eeb 00        10493 	.data.b	0
00003eec 5001      10494 	.data.b	1,80

                                                                      Page 209
                                                              C:\Users\Fengyuan\AppData\Local\Temp\gh_0000sro1.s
                   10495 
                   10496 .LDW_6024c48:
00003eee 11        10497 	.data.b	17
00003eef 746e6f43  10498 	.data.b	67,111,110,116,114,111,108,108,101,114,67,111,110,102,105,103,80,116,114,0
00003ef3 6c6c6f72 
00003ef7 6f437265 
00003efb 6769666e 
00003eff 00727450 
00003f03 3dde      10499 	.data.b	222,61
00003f05 62        10500 	.data.b	98
00003f06 01        10501 	.data.b	1
00003f07 00000000* 10502 	.data.w	.LDW_6024bf0
00003f0b 00        10503 	.data.b	0
00003f0c 5101      10504 	.data.b	1,81
                   10505 
                   10506 .LDW_6021970:
00003f0e 1f        10507 	.data.b	31
00003f0f 00000000* 10508 	.data.w	.LDW43
00003f13 00000000* 10509 	.data.w	.LDW73
                   10510 
                   10511 .LDW_60251c8:
00003f17 07        10512 	.data.b	7
00003f18 6f727265  10513 	.data.b	101,114,114,111,114,73,100,0
00003f1c 00644972 
00003f20 3de2      10514 	.data.b	226,61
00003f22 09        10515 	.data.b	9
00003f23 01        10516 	.data.b	1
00003f24 00000000* 10517 	.data.w	.LDW_5e0df08
00003f28 00        10518 	.data.b	0
00003f29 00        10519 	.data.b	0
                   10520 
                   10521 .LDW_6021820:
00003f2a 1f        10522 	.data.b	31
00003f2b 00000000* 10523 	.data.w	.LDW53
00003f2f 00000000* 10524 	.data.w	.LDW63
                   10525 
                   10526 .LDW_6024a90:
00003f33 07        10527 	.data.b	7
00003f34 74696e69  10528 	.data.b	105,110,105,116,73,110,102,111,0
00003f38 6f666e49 
00003f3c 00 
00003f3d 3e8a      10529 	.data.b	138,62
00003f3f 18        10530 	.data.b	24
00003f40 01        10531 	.data.b	1
00003f41 00000000* 10532 	.data.w	.LDW_5ee2d40
00003f45 00        10533 	.data.b	0
00003f46 00        10534 	.data.b	0
                   10535 
00003f47 00        10536 	.data.b	0
                   10537 
00003f48 00        10538 	.data.b	0
                   10539 
00003f49 00        10540 	.data.b	0
                   10541 
                   10542 .LDW_60242c0:
00003f4a 16        10543 	.data.b	22
00003f4b 5f6e6143  10544 	.data.b	67,97,110,95,83,101,116,67,111,110,116,114,111,108,108,101,114,77,111,100,101,0
00003f4f 43746553 
00003f53 72746e6f 
00003f57 656c6c6f 
00003f5b 646f4d72 

                                                                      Page 210
                                                              C:\Users\Fengyuan\AppData\Local\Temp\gh_0000sro1.s
00003f5f 0065 
00003f61 3fd1      10545 	.data.b	209,63
00003f63 2a        10546 	.data.b	42
00003f64 01        10547 	.data.b	1
00003f65 00000000* 10548 	.data.w	.LDW_5c53d78
00003f69 00000000* 10549 	.data.w	Can_SetControllerMode
00003f6d 00000000* 10550 	.data.w	__ghs_eofn_Can_SetControllerMode
00003f71 5d01      10551 	.data.b	1,93
00003f73 0181f0    10552 	.data.b	240,129,1
00003f76 70        10553 	.data.b	112
00003f77 00        10554 	.data.b	0
00003f78 28        10555 	.data.b	40
00003f79 01        10556 	.data.b	1
00003f7a 00        10557 	.data.b	0
00003f7b 00        10558 	.data.b	0
00003f7c 01        10559 	.data.b	1
00003f7d 01        10560 	.data.b	1
00003f7e 00        10561 	.data.b	0
00003f7f 01        10562 	.data.b	1
                   10563 
                   10564 	.section	.debug_frame
                   10565 .LDW_5d65960:
00000180 00000000* 10566 	.data.w	.LDW_unq_18-.LDW_unq_17
                   10567 .LDW_unq_17:
00000184 00000000* 10568 	.data.w	.LDW_5f1c410
00000188 00000000* 10569 	.data.w	Can_SetControllerMode
0000018c 000002da  10570 	.data.w	__ghs_eofn_Can_SetControllerMode-Can_SetControllerMode
00000190 01        10571 	.data.b	1
00000191 00000000* 10572 	.data.w	.LDW93
00000195 00        10573 	.data.b	0
00000196 00        10574 	.data.b	0
00000197 00        10575 	.data.b	0
                   10576 .LDW_unq_18:
                   10577 	.section	.debug_line
000008f3 020500    10578 	.data.b	0,5,2
000008f6 00000000* 10579 	.data.w	Can_SetControllerMode
000008fa 06        10580 	.data.b	6
000008fb 03        10581 	.data.b	3
000008fc 3fd1      10582 	.data.b	209,63
000008fe 02        10583 	.data.b	2
000008ff 00        10584 	.data.b	0
00000900 01        10585 	.data.b	1
00000901 03        10586 	.data.b	3
00000902 05        10587 	.data.b	5
00000903 02        10588 	.data.b	2
00000904 06        10589 	.data.b	6
00000905 01        10590 	.data.b	1
00000906 13        10591 	.data.b	19
00000907 03        10592 	.data.b	3
00000908 05        10593 	.data.b	5
00000909 02        10594 	.data.b	2
0000090a 02        10595 	.data.b	2
0000090b 01        10596 	.data.b	1
0000090c 25        10597 	.data.b	37
0000090d 03        10598 	.data.b	3
0000090e 15        10599 	.data.b	21
0000090f 02        10600 	.data.b	2
00000910 00        10601 	.data.b	0
00000911 01        10602 	.data.b	1
00000912 0c        10603 	.data.b	12
00000913 06        10604 	.data.b	6

                                                                      Page 211
                                                              C:\Users\Fengyuan\AppData\Local\Temp\gh_0000sro1.s
00000914 020500    10605 	.data.b	0,5,2
00000917 00000000* 10606 	.data.w	.LDWlin35
0000091b 03        10607 	.data.b	3
0000091c 68        10608 	.data.b	104
0000091d 02        10609 	.data.b	2
0000091e 00        10610 	.data.b	0
0000091f 01        10611 	.data.b	1
00000920 06        10612 	.data.b	6
00000921 03        10613 	.data.b	3
00000922 19        10614 	.data.b	25
00000923 02        10615 	.data.b	2
00000924 00        10616 	.data.b	0
00000925 01        10617 	.data.b	1
00000926 0b        10618 	.data.b	11
00000927 020500    10619 	.data.b	0,5,2
0000092a 00000000* 10620 	.data.w	.LDWlin36
0000092e 0b        10621 	.data.b	11
0000092f 0c        10622 	.data.b	12
00000930 02        10623 	.data.b	2
00000931 00        10624 	.data.b	0
00000932 020500    10625 	.data.b	0,5,2
00000935 00000000* 10626 	.data.w	.LDWlin37
00000939 0d        10627 	.data.b	13
0000093a 0d        10628 	.data.b	13
0000093b 02        10629 	.data.b	2
0000093c 00        10630 	.data.b	0
0000093d 06        10631 	.data.b	6
0000093e 020500    10632 	.data.b	0,5,2
00000941 00000000* 10633 	.data.w	.LDWlin38
00000945 03        10634 	.data.b	3
00000946 7c        10635 	.data.b	124
00000947 02        10636 	.data.b	2
00000948 00        10637 	.data.b	0
00000949 01        10638 	.data.b	1
0000094a 06        10639 	.data.b	6
0000094b 03        10640 	.data.b	3
0000094c 06        10641 	.data.b	6
0000094d 02        10642 	.data.b	2
0000094e 00        10643 	.data.b	0
0000094f 01        10644 	.data.b	1
00000950 0c        10645 	.data.b	12
00000951 020500    10646 	.data.b	0,5,2
00000954 00000000* 10647 	.data.w	.LDWlin39
00000958 0b        10648 	.data.b	11
00000959 03        10649 	.data.b	3
0000095a 08        10650 	.data.b	8
0000095b 02        10651 	.data.b	2
0000095c 00        10652 	.data.b	0
0000095d 01        10653 	.data.b	1
0000095e 0d        10654 	.data.b	13
0000095f 03        10655 	.data.b	3
00000960 10        10656 	.data.b	16
00000961 02        10657 	.data.b	2
00000962 04        10658 	.data.b	4
00000963 01        10659 	.data.b	1
00000964 2d        10660 	.data.b	45
00000965 06        10661 	.data.b	6
00000966 020500    10662 	.data.b	0,5,2
00000969 00000000* 10663 	.data.w	.LDWlin40
0000096d 03        10664 	.data.b	3
0000096e 3f        10665 	.data.b	63

                                                                      Page 212
                                                              C:\Users\Fengyuan\AppData\Local\Temp\gh_0000sro1.s
0000096f 02        10666 	.data.b	2
00000970 00        10667 	.data.b	0
00000971 01        10668 	.data.b	1
00000972 06        10669 	.data.b	6
00000973 03        10670 	.data.b	3
00000974 0e        10671 	.data.b	14
00000975 02        10672 	.data.b	2
00000976 00        10673 	.data.b	0
00000977 01        10674 	.data.b	1
00000978 0c        10675 	.data.b	12
00000979 0c        10676 	.data.b	12
0000097a 13        10677 	.data.b	19
0000097b 020500    10678 	.data.b	0,5,2
0000097e 00000000* 10679 	.data.w	.LDWlin41
00000982 03        10680 	.data.b	3
00000983 7fb3      10681 	.data.b	179,127
00000985 02        10682 	.data.b	2
00000986 00        10683 	.data.b	0
00000987 01        10684 	.data.b	1
00000988 02        10685 	.data.b	2
00000989 00        10686 	.data.b	0
0000098a 1b        10687 	.data.b	27
0000098b 03        10688 	.data.b	3
0000098c 06        10689 	.data.b	6
0000098d 02        10690 	.data.b	2
0000098e 00        10691 	.data.b	0
0000098f 01        10692 	.data.b	1
00000990 1d        10693 	.data.b	29
00000991 0d        10694 	.data.b	13
00000992 03        10695 	.data.b	3
00000993 0f        10696 	.data.b	15
00000994 02        10697 	.data.b	2
00000995 00        10698 	.data.b	0
00000996 01        10699 	.data.b	1
00000997 02        10700 	.data.b	2
00000998 00        10701 	.data.b	0
00000999 0c        10702 	.data.b	12
0000099a 020500    10703 	.data.b	0,5,2
0000099d 00000000* 10704 	.data.w	.LDWlin42
000009a1 0b        10705 	.data.b	11
000009a2 03        10706 	.data.b	3
000009a3 05        10707 	.data.b	5
000009a4 02        10708 	.data.b	2
000009a5 00        10709 	.data.b	0
000009a6 01        10710 	.data.b	1
000009a7 02        10711 	.data.b	2
000009a8 00        10712 	.data.b	0
000009a9 1b        10713 	.data.b	27
000009aa 0b        10714 	.data.b	11
000009ab 1b        10715 	.data.b	27
000009ac 0c        10716 	.data.b	12
000009ad 0b        10717 	.data.b	11
000009ae 1b        10718 	.data.b	27
000009af 02        10719 	.data.b	2
000009b0 00        10720 	.data.b	0
000009b1 0d        10721 	.data.b	13
000009b2 020500    10722 	.data.b	0,5,2
000009b5 00000000* 10723 	.data.w	.LDWlin43
000009b9 0b        10724 	.data.b	11
000009ba 0c        10725 	.data.b	12
000009bb 020500    10726 	.data.b	0,5,2

                                                                      Page 213
                                                              C:\Users\Fengyuan\AppData\Local\Temp\gh_0000sro1.s
000009be 00000000* 10727 	.data.w	.LDWlin44
000009c2 02        10728 	.data.b	2
000009c3 00        10729 	.data.b	0
000009c4 020500    10730 	.data.b	0,5,2
000009c7 00000000* 10731 	.data.w	.LDWlin45
000009cb 02        10732 	.data.b	2
000009cc 00        10733 	.data.b	0
000009cd 020500    10734 	.data.b	0,5,2
000009d0 00000000* 10735 	.data.w	.LDWlin46
000009d4 0b        10736 	.data.b	11
000009d5 02        10737 	.data.b	2
000009d6 00        10738 	.data.b	0
000009d7 0b        10739 	.data.b	11
000009d8 03        10740 	.data.b	3
000009d9 05        10741 	.data.b	5
000009da 02        10742 	.data.b	2
000009db 00        10743 	.data.b	0
000009dc 01        10744 	.data.b	1
000009dd 02        10745 	.data.b	2
000009de 00        10746 	.data.b	0
000009df 020500    10747 	.data.b	0,5,2
000009e2 00000000* 10748 	.data.w	.LDWlin47
000009e6 0d        10749 	.data.b	13
000009e7 0d        10750 	.data.b	13
000009e8 0c        10751 	.data.b	12
000009e9 020500    10752 	.data.b	0,5,2
000009ec 00000000* 10753 	.data.w	.LDWlin48
000009f0 0b        10754 	.data.b	11
000009f1 02        10755 	.data.b	2
000009f2 00        10756 	.data.b	0
000009f3 0b        10757 	.data.b	11
000009f4 03        10758 	.data.b	3
000009f5 05        10759 	.data.b	5
000009f6 02        10760 	.data.b	2
000009f7 00        10761 	.data.b	0
000009f8 01        10762 	.data.b	1
000009f9 03        10763 	.data.b	3
000009fa 07        10764 	.data.b	7
000009fb 02        10765 	.data.b	2
000009fc 1e        10766 	.data.b	30
000009fd 01        10767 	.data.b	1
000009fe 0d        10768 	.data.b	13
000009ff 03        10769 	.data.b	3
00000a00 0f        10770 	.data.b	15
00000a01 02        10771 	.data.b	2
00000a02 08        10772 	.data.b	8
00000a03 01        10773 	.data.b	1
00000a04 1b        10774 	.data.b	27
00000a05 02        10775 	.data.b	2
00000a06 00        10776 	.data.b	0
00000a07 02        10777 	.data.b	2
00000a08 00        10778 	.data.b	0
00000a09 02        10779 	.data.b	2
00000a0a 00        10780 	.data.b	0
00000a0b 02        10781 	.data.b	2
00000a0c 00        10782 	.data.b	0
00000a0d 02        10783 	.data.b	2
00000a0e 00        10784 	.data.b	0
00000a0f 0b        10785 	.data.b	11
00000a10 02        10786 	.data.b	2
00000a11 00        10787 	.data.b	0

                                                                      Page 214
                                                              C:\Users\Fengyuan\AppData\Local\Temp\gh_0000sro1.s
00000a12 03        10788 	.data.b	3
00000a13 04        10789 	.data.b	4
00000a14 02        10790 	.data.b	2
00000a15 00        10791 	.data.b	0
00000a16 01        10792 	.data.b	1
00000a17 13        10793 	.data.b	19
00000a18 0b        10794 	.data.b	11
00000a19 3b        10795 	.data.b	59
00000a1a 02        10796 	.data.b	2
00000a1b 00        10797 	.data.b	0
00000a1c 03        10798 	.data.b	3
00000a1d 08        10799 	.data.b	8
00000a1e 02        10800 	.data.b	2
00000a1f 00        10801 	.data.b	0
00000a20 01        10802 	.data.b	1
00000a21 06        10803 	.data.b	6
00000a22 02        10804 	.data.b	2
00000a23 02        10805 	.data.b	2
00000a24 02        10806 	.data.b	2
00000a25 04        10807 	.data.b	4
00000a26 010100    10808 	.data.b	0,1,1
                   10809 	.section	.debug_info
                   10810 .LDW_6024930:
00003f80 11        10811 	.data.b	17
00003f81 746e6f43  10812 	.data.b	67,111,110,116,114,111,108,108,101,114,0
00003f85 6c6c6f72 
00003f89 007265 
00003f8c 3fd1      10813 	.data.b	209,63
00003f8e 47        10814 	.data.b	71
00003f8f 01        10815 	.data.b	1
00003f90 00000000* 10816 	.data.w	.LDW_5e0df08
00003f94 00        10817 	.data.b	0
00003f95 5001      10818 	.data.b	1,80
                   10819 
                   10820 .LDW_6024f08:
00003f97 11        10821 	.data.b	17
00003f98 6e617254  10822 	.data.b	84,114,97,110,115,105,116,105,111,110,0
00003f9c 69746973 
00003fa0 006e6f 
00003fa3 3fd1      10823 	.data.b	209,63
00003fa5 6b        10824 	.data.b	107
00003fa6 01        10825 	.data.b	1
00003fa7 00000000* 10826 	.data.w	.LDW_6024ae8
00003fab 00        10827 	.data.b	0
00003fac 5501      10828 	.data.b	1,85
                   10829 
                   10830 .LDW_6021c70:
00003fae 1f        10831 	.data.b	31
00003faf 00000000* 10832 	.data.w	.LDW83
00003fb3 00000000* 10833 	.data.w	.LDW93
                   10834 
                   10835 .LDW_6025118:
00003fb7 06        10836 	.data.b	6
00003fb8 6f727265  10837 	.data.b	101,114,114,111,114,73,100,0
00003fbc 00644972 
00003fc0 3fd4      10838 	.data.b	212,63
00003fc2 09        10839 	.data.b	9
00003fc3 01        10840 	.data.b	1
00003fc4 00000000* 10841 	.data.w	.LDW_5e0df08
00003fc8 00        10842 	.data.b	0
00003fc9 00        10843 	.data.b	0

                                                                      Page 215
                                                              C:\Users\Fengyuan\AppData\Local\Temp\gh_0000sro1.s
00003fca 5701      10844 	.data.b	1,87
                   10845 
                   10846 .LDW_6024b40:
00003fcc 06        10847 	.data.b	6
00003fcd 76746572  10848 	.data.b	114,101,116,118,97,108,0
00003fd1 006c61 
00003fd4 3fd5      10849 	.data.b	213,63
00003fd6 12        10850 	.data.b	18
00003fd7 01        10851 	.data.b	1
00003fd8 00000000* 10852 	.data.w	.LDW_5c53d78
00003fdc 00        10853 	.data.b	0
00003fdd 00        10854 	.data.b	0
00003fde 5601      10855 	.data.b	1,86
                   10856 
00003fe0 00        10857 	.data.b	0
                   10858 
00003fe1 00        10859 	.data.b	0
                   10860 
                   10861 .LDW_6024358:
00003fe2 15        10862 	.data.b	21
00003fe3 5f6e6143  10863 	.data.b	67,97,110,95,68,105,115,97,98,108,101,67,111,110,116,114,111,108,108,101,114,73,110,116,101,114,114,117,112,116,115,0
00003fe7 61736944 
00003feb 43656c62 
00003fef 72746e6f 
00003ff3 656c6c6f 
00003ff7 746e4972 
00003ffb 75727265 
00003fff 00737470 
00004003 41bb      10864 	.data.b	187,65
00004005 20        10865 	.data.b	32
00004006 01        10866 	.data.b	1
00004007 00000000* 10867 	.data.w	Can_DisableControllerInterrupts
0000400b 00000000* 10868 	.data.w	__ghs_eofn_Can_DisableControllerInterrupts
0000400f 5d01      10869 	.data.b	1,93
00004011 018090    10870 	.data.b	144,128,1
00004014 7c        10871 	.data.b	124
00004015 00        10872 	.data.b	0
00004016 04        10873 	.data.b	4
00004017 01        10874 	.data.b	1
00004018 00        10875 	.data.b	0
00004019 00        10876 	.data.b	0
0000401a 01        10877 	.data.b	1
0000401b 01        10878 	.data.b	1
0000401c 00        10879 	.data.b	0
0000401d 01        10880 	.data.b	1
                   10881 
                   10882 	.section	.debug_frame
                   10883 .LDW_5d66660:
00000198 00000000* 10884 	.data.w	.LDW_unq_1a-.LDW_unq_19
                   10885 .LDW_unq_19:
0000019c 00000000* 10886 	.data.w	.LDW_5f1c410
000001a0 00000000* 10887 	.data.w	Can_DisableControllerInterrupts
000001a4 00000046  10888 	.data.w	__ghs_eofn_Can_DisableControllerInterrupts-Can_DisableControllerInterrupts
000001a8 01        10889 	.data.b	1
000001a9 00000000* 10890 	.data.w	.LDW14
000001ad 00        10891 	.data.b	0
000001ae 00        10892 	.data.b	0
000001af 00        10893 	.data.b	0
                   10894 .LDW_unq_1a:
                   10895 	.section	.debug_line
00000a29 020500    10896 	.data.b	0,5,2

                                                                      Page 216
                                                              C:\Users\Fengyuan\AppData\Local\Temp\gh_0000sro1.s
00000a2c 00000000* 10897 	.data.w	Can_DisableControllerInterrupts
00000a30 06        10898 	.data.b	6
00000a31 03        10899 	.data.b	3
00000a32 00c1bb    10900 	.data.b	187,193,0
00000a35 02        10901 	.data.b	2
00000a36 00        10902 	.data.b	0
00000a37 01        10903 	.data.b	1
00000a38 03        10904 	.data.b	3
00000a39 08        10905 	.data.b	8
00000a3a 02        10906 	.data.b	2
00000a3b 02        10907 	.data.b	2
00000a3c 01        10908 	.data.b	1
00000a3d 25        10909 	.data.b	37
00000a3e 03        10910 	.data.b	3
00000a3f 16        10911 	.data.b	22
00000a40 02        10912 	.data.b	2
00000a41 00        10913 	.data.b	0
00000a42 01        10914 	.data.b	1
00000a43 02        10915 	.data.b	2
00000a44 00        10916 	.data.b	0
00000a45 06        10917 	.data.b	6
00000a46 020500    10918 	.data.b	0,5,2
00000a49 00000000* 10919 	.data.w	.LDWlin49
00000a4d 03        10920 	.data.b	3
00000a4e 69        10921 	.data.b	105
00000a4f 02        10922 	.data.b	2
00000a50 00        10923 	.data.b	0
00000a51 01        10924 	.data.b	1
00000a52 06        10925 	.data.b	6
00000a53 03        10926 	.data.b	3
00000a54 18        10927 	.data.b	24
00000a55 02        10928 	.data.b	2
00000a56 00        10929 	.data.b	0
00000a57 01        10930 	.data.b	1
00000a58 0c        10931 	.data.b	12
00000a59 0d        10932 	.data.b	13
00000a5a 0c        10933 	.data.b	12
00000a5b 03        10934 	.data.b	3
00000a5c 0a        10935 	.data.b	10
00000a5d 02        10936 	.data.b	2
00000a5e 04        10937 	.data.b	4
00000a5f 01        10938 	.data.b	1
00000a60 1b        10939 	.data.b	27
00000a61 0d        10940 	.data.b	13
00000a62 03        10941 	.data.b	3
00000a63 07        10942 	.data.b	7
00000a64 02        10943 	.data.b	2
00000a65 16        10944 	.data.b	22
00000a66 01        10945 	.data.b	1
00000a67 02        10946 	.data.b	2
00000a68 00        10947 	.data.b	0
00000a69 0b        10948 	.data.b	11
00000a6a 1b        10949 	.data.b	27
00000a6b 020500    10950 	.data.b	0,5,2
00000a6e 00000000* 10951 	.data.w	.LDWlin50
00000a72 0b        10952 	.data.b	11
00000a73 02        10953 	.data.b	2
00000a74 00        10954 	.data.b	0
00000a75 02        10955 	.data.b	2
00000a76 00        10956 	.data.b	0
00000a77 02        10957 	.data.b	2

                                                                      Page 217
                                                              C:\Users\Fengyuan\AppData\Local\Temp\gh_0000sro1.s
00000a78 00        10958 	.data.b	0
00000a79 03        10959 	.data.b	3
00000a7a 04        10960 	.data.b	4
00000a7b 02        10961 	.data.b	2
00000a7c 00        10962 	.data.b	0
00000a7d 01        10963 	.data.b	1
00000a7e 0b        10964 	.data.b	11
00000a7f 0b        10965 	.data.b	11
00000a80 3b        10966 	.data.b	59
00000a81 02        10967 	.data.b	2
00000a82 00        10968 	.data.b	0
00000a83 03        10969 	.data.b	3
00000a84 07        10970 	.data.b	7
00000a85 02        10971 	.data.b	2
00000a86 00        10972 	.data.b	0
00000a87 01        10973 	.data.b	1
00000a88 02        10974 	.data.b	2
00000a89 02        10975 	.data.b	2
00000a8a 010100    10976 	.data.b	0,1,1
                   10977 	.section	.debug_info
                   10978 .LDW_6024ca0:
0000401e 11        10979 	.data.b	17
0000401f 746e6f43  10980 	.data.b	67,111,110,116,114,111,108,108,101,114,0
00004023 6c6c6f72 
00004027 007265 
0000402a 41bb      10981 	.data.b	187,65
0000402c 47        10982 	.data.b	71
0000402d 01        10983 	.data.b	1
0000402e 00000000* 10984 	.data.w	.LDW_5e0df08
00004032 00        10985 	.data.b	0
00004033 5001      10986 	.data.b	1,80
                   10987 
                   10988 .LDW_6021ac0:
00004035 1f        10989 	.data.b	31
00004036 00000000* 10990 	.data.w	.LDW04
0000403a 00000000* 10991 	.data.w	.LDW14
                   10992 
                   10993 .LDW_6024e58:
0000403e 07        10994 	.data.b	7
0000403f 6f727265  10995 	.data.b	101,114,114,111,114,73,100,0
00004043 00644972 
00004047 41be      10996 	.data.b	190,65
00004049 09        10997 	.data.b	9
0000404a 01        10998 	.data.b	1
0000404b 00000000* 10999 	.data.w	.LDW_5e0df08
0000404f 00        11000 	.data.b	0
00004050 00        11001 	.data.b	0
                   11002 
00004051 00        11003 	.data.b	0
                   11004 
00004052 00        11005 	.data.b	0
                   11006 
                   11007 .LDW_60245b8:
00004053 15        11008 	.data.b	21
00004054 5f6e6143  11009 	.data.b	67,97,110,95,69,110,97,98,108,101,67,111,110,116,114,111,108,108,101,114,73,110,116,101,114,114,117,112,116,115,0
00004058 62616e45 
0000405c 6f43656c 
00004060 6f72746e 
00004064 72656c6c 
00004068 65746e49 
0000406c 70757272 

                                                                      Page 218
                                                              C:\Users\Fengyuan\AppData\Local\Temp\gh_0000sro1.s
00004070 007374 
00004073 42aa      11010 	.data.b	170,66
00004075 20        11011 	.data.b	32
00004076 01        11012 	.data.b	1
00004077 00000000* 11013 	.data.w	Can_EnableControllerInterrupts
0000407b 00000000* 11014 	.data.w	__ghs_eofn_Can_EnableControllerInterrupts
0000407f 5d01      11015 	.data.b	1,93
00004081 018090    11016 	.data.b	144,128,1
00004084 7c        11017 	.data.b	124
00004085 00        11018 	.data.b	0
00004086 04        11019 	.data.b	4
00004087 01        11020 	.data.b	1
00004088 00        11021 	.data.b	0
00004089 00        11022 	.data.b	0
0000408a 01        11023 	.data.b	1
0000408b 01        11024 	.data.b	1
0000408c 00        11025 	.data.b	0
0000408d 01        11026 	.data.b	1
                   11027 
                   11028 	.section	.debug_frame
                   11029 .LDW_5d66020:
000001b0 00000000* 11030 	.data.w	.LDW_unq_1c-.LDW_unq_1b
                   11031 .LDW_unq_1b:
000001b4 00000000* 11032 	.data.w	.LDW_5f1c410
000001b8 00000000* 11033 	.data.w	Can_EnableControllerInterrupts
000001bc 00000048  11034 	.data.w	__ghs_eofn_Can_EnableControllerInterrupts-Can_EnableControllerInterrupts
000001c0 01        11035 	.data.b	1
000001c1 00000000* 11036 	.data.w	.LDW34
000001c5 00        11037 	.data.b	0
000001c6 00        11038 	.data.b	0
000001c7 00        11039 	.data.b	0
                   11040 .LDW_unq_1c:
                   11041 	.section	.debug_line
00000a8d 020500    11042 	.data.b	0,5,2
00000a90 00000000* 11043 	.data.w	Can_EnableControllerInterrupts
00000a94 06        11044 	.data.b	6
00000a95 03        11045 	.data.b	3
00000a96 00c2aa    11046 	.data.b	170,194,0
00000a99 02        11047 	.data.b	2
00000a9a 00        11048 	.data.b	0
00000a9b 01        11049 	.data.b	1
00000a9c 03        11050 	.data.b	3
00000a9d 08        11051 	.data.b	8
00000a9e 02        11052 	.data.b	2
00000a9f 02        11053 	.data.b	2
00000aa0 01        11054 	.data.b	1
00000aa1 25        11055 	.data.b	37
00000aa2 03        11056 	.data.b	3
00000aa3 16        11057 	.data.b	22
00000aa4 02        11058 	.data.b	2
00000aa5 00        11059 	.data.b	0
00000aa6 01        11060 	.data.b	1
00000aa7 02        11061 	.data.b	2
00000aa8 00        11062 	.data.b	0
00000aa9 06        11063 	.data.b	6
00000aaa 020500    11064 	.data.b	0,5,2
00000aad 00000000* 11065 	.data.w	.LDWlin51
00000ab1 03        11066 	.data.b	3
00000ab2 69        11067 	.data.b	105
00000ab3 02        11068 	.data.b	2
00000ab4 00        11069 	.data.b	0

                                                                      Page 219
                                                              C:\Users\Fengyuan\AppData\Local\Temp\gh_0000sro1.s
00000ab5 01        11070 	.data.b	1
00000ab6 06        11071 	.data.b	6
00000ab7 03        11072 	.data.b	3
00000ab8 18        11073 	.data.b	24
00000ab9 02        11074 	.data.b	2
00000aba 00        11075 	.data.b	0
00000abb 01        11076 	.data.b	1
00000abc 0c        11077 	.data.b	12
00000abd 0d        11078 	.data.b	13
00000abe 0c        11079 	.data.b	12
00000abf 1b        11080 	.data.b	27
00000ac0 020500    11081 	.data.b	0,5,2
00000ac3 00000000* 11082 	.data.w	.LDWlin52
00000ac7 0b        11083 	.data.b	11
00000ac8 0b        11084 	.data.b	11
00000ac9 03        11085 	.data.b	3
00000aca 0a        11086 	.data.b	10
00000acb 02        11087 	.data.b	2
00000acc 04        11088 	.data.b	4
00000acd 01        11089 	.data.b	1
00000ace 020500    11090 	.data.b	0,5,2
00000ad1 00000000* 11091 	.data.w	.LDWlin53
00000ad5 0b        11092 	.data.b	11
00000ad6 0d        11093 	.data.b	13
00000ad7 03        11094 	.data.b	3
00000ad8 07        11095 	.data.b	7
00000ad9 02        11096 	.data.b	2
00000ada 14        11097 	.data.b	20
00000adb 01        11098 	.data.b	1
00000adc 02        11099 	.data.b	2
00000add 00        11100 	.data.b	0
00000ade 0b        11101 	.data.b	11
00000adf 02        11102 	.data.b	2
00000ae0 00        11103 	.data.b	0
00000ae1 0b        11104 	.data.b	11
00000ae2 020500    11105 	.data.b	0,5,2
00000ae5 00000000* 11106 	.data.w	.LDWlin54
00000ae9 0b        11107 	.data.b	11
00000aea 02        11108 	.data.b	2
00000aeb 00        11109 	.data.b	0
00000aec 02        11110 	.data.b	2
00000aed 00        11111 	.data.b	0
00000aee 02        11112 	.data.b	2
00000aef 00        11113 	.data.b	0
00000af0 03        11114 	.data.b	3
00000af1 04        11115 	.data.b	4
00000af2 02        11116 	.data.b	2
00000af3 00        11117 	.data.b	0
00000af4 01        11118 	.data.b	1
00000af5 0b        11119 	.data.b	11
00000af6 0b        11120 	.data.b	11
00000af7 3b        11121 	.data.b	59
00000af8 02        11122 	.data.b	2
00000af9 00        11123 	.data.b	0
00000afa 03        11124 	.data.b	3
00000afb 07        11125 	.data.b	7
00000afc 02        11126 	.data.b	2
00000afd 00        11127 	.data.b	0
00000afe 01        11128 	.data.b	1
00000aff 02        11129 	.data.b	2
00000b00 02        11130 	.data.b	2

                                                                      Page 220
                                                              C:\Users\Fengyuan\AppData\Local\Temp\gh_0000sro1.s
00000b01 010100    11131 	.data.b	0,1,1
                   11132 	.section	.debug_info
                   11133 .LDW_6024f60:
0000408e 11        11134 	.data.b	17
0000408f 746e6f43  11135 	.data.b	67,111,110,116,114,111,108,108,101,114,0
00004093 6c6c6f72 
00004097 007265 
0000409a 42aa      11136 	.data.b	170,66
0000409c 46        11137 	.data.b	70
0000409d 01        11138 	.data.b	1
0000409e 00000000* 11139 	.data.w	.LDW_5e0df08
000040a2 00        11140 	.data.b	0
000040a3 5001      11141 	.data.b	1,80
                   11142 
                   11143 .LDW_6021af0:
000040a5 1f        11144 	.data.b	31
000040a6 00000000* 11145 	.data.w	.LDW24
000040aa 00000000* 11146 	.data.w	.LDW34
                   11147 
                   11148 .LDW_6024778:
000040ae 07        11149 	.data.b	7
000040af 6f727265  11150 	.data.b	101,114,114,111,114,73,100,0
000040b3 00644972 
000040b7 42ad      11151 	.data.b	173,66
000040b9 09        11152 	.data.b	9
000040ba 01        11153 	.data.b	1
000040bb 00000000* 11154 	.data.w	.LDW_5e0df08
000040bf 00        11155 	.data.b	0
000040c0 00        11156 	.data.b	0
                   11157 
000040c1 00        11158 	.data.b	0
                   11159 
000040c2 00        11160 	.data.b	0
                   11161 
                   11162 .LDW_60243f0:
000040c3 16        11163 	.data.b	22
000040c4 5f6e6143  11164 	.data.b	67,97,110,95,87,114,105,116,101,0
000040c8 74697257 
000040cc 0065 
000040ce 43a7      11165 	.data.b	167,67
000040d0 2a        11166 	.data.b	42
000040d1 01        11167 	.data.b	1
000040d2 00000000* 11168 	.data.w	.LDW_5c53d78
000040d6 00000000* 11169 	.data.w	Can_Write
000040da 00000000* 11170 	.data.w	__ghs_eofn_Can_Write
000040de 5d01      11171 	.data.b	1,93
000040e0 0181f0    11172 	.data.b	240,129,1
000040e3 70        11173 	.data.b	112
000040e4 00        11174 	.data.b	0
000040e5 10        11175 	.data.b	16
000040e6 01        11176 	.data.b	1
000040e7 00        11177 	.data.b	0
000040e8 00        11178 	.data.b	0
000040e9 01        11179 	.data.b	1
000040ea 01        11180 	.data.b	1
000040eb 00        11181 	.data.b	0
000040ec 01        11182 	.data.b	1
                   11183 
                   11184 	.section	.debug_frame
                   11185 .LDW_5d617d8:
000001c8 00000000* 11186 	.data.w	.LDW_unq_1e-.LDW_unq_1d

                                                                      Page 221
                                                              C:\Users\Fengyuan\AppData\Local\Temp\gh_0000sro1.s
                   11187 .LDW_unq_1d:
000001cc 00000000* 11188 	.data.w	.LDW_5f1c410
000001d0 00000000* 11189 	.data.w	Can_Write
000001d4 000000de  11190 	.data.w	__ghs_eofn_Can_Write-Can_Write
000001d8 01        11191 	.data.b	1
000001d9 00000000* 11192 	.data.w	.LDW74
000001dd 00        11193 	.data.b	0
000001de 00        11194 	.data.b	0
000001df 00        11195 	.data.b	0
                   11196 .LDW_unq_1e:
                   11197 	.section	.debug_line
00000b04 020500    11198 	.data.b	0,5,2
00000b07 00000000* 11199 	.data.w	Can_Write
00000b0b 06        11200 	.data.b	6
00000b0c 03        11201 	.data.b	3
00000b0d 00c3a7    11202 	.data.b	167,195,0
00000b10 02        11203 	.data.b	2
00000b11 00        11204 	.data.b	0
00000b12 01        11205 	.data.b	1
00000b13 03        11206 	.data.b	3
00000b14 07        11207 	.data.b	7
00000b15 02        11208 	.data.b	2
00000b16 02        11209 	.data.b	2
00000b17 01        11210 	.data.b	1
00000b18 03        11211 	.data.b	3
00000b19 05        11212 	.data.b	5
00000b1a 02        11213 	.data.b	2
00000b1b 02        11214 	.data.b	2
00000b1c 01        11215 	.data.b	1
00000b1d 25        11216 	.data.b	37
00000b1e 0d        11217 	.data.b	13
00000b1f 02        11218 	.data.b	2
00000b20 00        11219 	.data.b	0
00000b21 020500    11220 	.data.b	0,5,2
00000b24 00000000* 11221 	.data.w	.LDWlin55
00000b28 0c        11222 	.data.b	12
00000b29 03        11223 	.data.b	3
00000b2a 04        11224 	.data.b	4
00000b2b 02        11225 	.data.b	2
00000b2c 00        11226 	.data.b	0
00000b2d 01        11227 	.data.b	1
00000b2e 03        11228 	.data.b	3
00000b2f 19        11229 	.data.b	25
00000b30 02        11230 	.data.b	2
00000b31 00        11231 	.data.b	0
00000b32 01        11232 	.data.b	1
00000b33 06        11233 	.data.b	6
00000b34 020500    11234 	.data.b	0,5,2
00000b37 00000000* 11235 	.data.w	.LDWlin56
00000b3b 03        11236 	.data.b	3
00000b3c 5d        11237 	.data.b	93
00000b3d 02        11238 	.data.b	2
00000b3e 00        11239 	.data.b	0
00000b3f 01        11240 	.data.b	1
00000b40 06        11241 	.data.b	6
00000b41 03        11242 	.data.b	3
00000b42 24        11243 	.data.b	36
00000b43 02        11244 	.data.b	2
00000b44 00        11245 	.data.b	0
00000b45 01        11246 	.data.b	1
00000b46 0b        11247 	.data.b	11

                                                                      Page 222
                                                              C:\Users\Fengyuan\AppData\Local\Temp\gh_0000sro1.s
00000b47 03        11248 	.data.b	3
00000b48 00dd      11249 	.data.b	221,0
00000b4a 02        11250 	.data.b	2
00000b4b 02        11251 	.data.b	2
00000b4c 01        11252 	.data.b	1
00000b4d 02        11253 	.data.b	2
00000b4e 00        11254 	.data.b	0
00000b4f 02        11255 	.data.b	2
00000b50 00        11256 	.data.b	0
00000b51 02        11257 	.data.b	2
00000b52 00        11258 	.data.b	0
00000b53 02        11259 	.data.b	2
00000b54 00        11260 	.data.b	0
00000b55 02        11261 	.data.b	2
00000b56 00        11262 	.data.b	0
00000b57 02        11263 	.data.b	2
00000b58 00        11264 	.data.b	0
00000b59 02        11265 	.data.b	2
00000b5a 00        11266 	.data.b	0
00000b5b 02        11267 	.data.b	2
00000b5c 00        11268 	.data.b	0
00000b5d 02        11269 	.data.b	2
00000b5e 00        11270 	.data.b	0
00000b5f 02        11271 	.data.b	2
00000b60 00        11272 	.data.b	0
00000b61 02        11273 	.data.b	2
00000b62 00        11274 	.data.b	0
00000b63 02        11275 	.data.b	2
00000b64 00        11276 	.data.b	0
00000b65 02        11277 	.data.b	2
00000b66 00        11278 	.data.b	0
00000b67 0b        11279 	.data.b	11
00000b68 02        11280 	.data.b	2
00000b69 00        11281 	.data.b	0
00000b6a 02        11282 	.data.b	2
00000b6b 00        11283 	.data.b	0
00000b6c 02        11284 	.data.b	2
00000b6d 00        11285 	.data.b	0
00000b6e 0d        11286 	.data.b	13
00000b6f 0b        11287 	.data.b	11
00000b70 0b        11288 	.data.b	11
00000b71 020500    11289 	.data.b	0,5,2
00000b74 00000000* 11290 	.data.w	.LDWlin57
00000b78 03        11291 	.data.b	3
00000b79 7f9e      11292 	.data.b	158,127
00000b7b 02        11293 	.data.b	2
00000b7c 00        11294 	.data.b	0
00000b7d 01        11295 	.data.b	1
00000b7e 03        11296 	.data.b	3
00000b7f 05        11297 	.data.b	5
00000b80 02        11298 	.data.b	2
00000b81 00        11299 	.data.b	0
00000b82 01        11300 	.data.b	1
00000b83 02        11301 	.data.b	2
00000b84 00        11302 	.data.b	0
00000b85 06        11303 	.data.b	6
00000b86 020500    11304 	.data.b	0,5,2
00000b89 00000000* 11305 	.data.w	.LDWlin58
00000b8d 03        11306 	.data.b	3
00000b8e 5a        11307 	.data.b	90
00000b8f 02        11308 	.data.b	2

                                                                      Page 223
                                                              C:\Users\Fengyuan\AppData\Local\Temp\gh_0000sro1.s
00000b90 00        11309 	.data.b	0
00000b91 01        11310 	.data.b	1
00000b92 06        11311 	.data.b	6
00000b93 03        11312 	.data.b	3
00000b94 28        11313 	.data.b	40
00000b95 02        11314 	.data.b	2
00000b96 00        11315 	.data.b	0
00000b97 01        11316 	.data.b	1
00000b98 0b        11317 	.data.b	11
00000b99 020500    11318 	.data.b	0,5,2
00000b9c 00000000* 11319 	.data.w	.LDWlin59
00000ba0 0b        11320 	.data.b	11
00000ba1 0c        11321 	.data.b	12
00000ba2 02        11322 	.data.b	2
00000ba3 00        11323 	.data.b	0
00000ba4 35        11324 	.data.b	53
00000ba5 0d        11325 	.data.b	13
00000ba6 02        11326 	.data.b	2
00000ba7 00        11327 	.data.b	0
00000ba8 020500    11328 	.data.b	0,5,2
00000bab 00000000* 11329 	.data.w	.LDWlin60
00000baf 0d        11330 	.data.b	13
00000bb0 03        11331 	.data.b	3
00000bb1 0f        11332 	.data.b	15
00000bb2 02        11333 	.data.b	2
00000bb3 00        11334 	.data.b	0
00000bb4 01        11335 	.data.b	1
00000bb5 02        11336 	.data.b	2
00000bb6 00        11337 	.data.b	0
00000bb7 020500    11338 	.data.b	0,5,2
00000bba 00000000* 11339 	.data.w	.LDWlin61
00000bbe 0b        11340 	.data.b	11
00000bbf 0b        11341 	.data.b	11
00000bc0 020500    11342 	.data.b	0,5,2
00000bc3 00000000* 11343 	.data.w	.LDWlin62
00000bc7 0b        11344 	.data.b	11
00000bc8 03        11345 	.data.b	3
00000bc9 0a        11346 	.data.b	10
00000bca 02        11347 	.data.b	2
00000bcb 00        11348 	.data.b	0
00000bcc 01        11349 	.data.b	1
00000bcd 02        11350 	.data.b	2
00000bce 00        11351 	.data.b	0
00000bcf 06        11352 	.data.b	6
00000bd0 020500    11353 	.data.b	0,5,2
00000bd3 00000000* 11354 	.data.w	.LDWlin63
00000bd7 03        11355 	.data.b	3
00000bd8 5d        11356 	.data.b	93
00000bd9 02        11357 	.data.b	2
00000bda 00        11358 	.data.b	0
00000bdb 01        11359 	.data.b	1
00000bdc 03        11360 	.data.b	3
00000bdd 06        11361 	.data.b	6
00000bde 02        11362 	.data.b	2
00000bdf 00        11363 	.data.b	0
00000be0 01        11364 	.data.b	1
00000be1 06        11365 	.data.b	6
00000be2 03        11366 	.data.b	3
00000be3 1e        11367 	.data.b	30
00000be4 02        11368 	.data.b	2
00000be5 00        11369 	.data.b	0

                                                                      Page 224
                                                              C:\Users\Fengyuan\AppData\Local\Temp\gh_0000sro1.s
00000be6 01        11370 	.data.b	1
00000be7 0b        11371 	.data.b	11
00000be8 020500    11372 	.data.b	0,5,2
00000beb 00000000* 11373 	.data.w	.LDWlin64
00000bef 0b        11374 	.data.b	11
00000bf0 03        11375 	.data.b	3
00000bf1 0d        11376 	.data.b	13
00000bf2 02        11377 	.data.b	2
00000bf3 00        11378 	.data.b	0
00000bf4 01        11379 	.data.b	1
00000bf5 02        11380 	.data.b	2
00000bf6 00        11381 	.data.b	0
00000bf7 1b        11382 	.data.b	27
00000bf8 0b        11383 	.data.b	11
00000bf9 020500    11384 	.data.b	0,5,2
00000bfc 00000000* 11385 	.data.w	.LDWlin65
00000c00 0b        11386 	.data.b	11
00000c01 03        11387 	.data.b	3
00000c02 06        11388 	.data.b	6
00000c03 02        11389 	.data.b	2
00000c04 00        11390 	.data.b	0
00000c05 01        11391 	.data.b	1
00000c06 03        11392 	.data.b	3
00000c07 0b        11393 	.data.b	11
00000c08 02        11394 	.data.b	2
00000c09 00        11395 	.data.b	0
00000c0a 01        11396 	.data.b	1
00000c0b 34        11397 	.data.b	52
00000c0c 020500    11398 	.data.b	0,5,2
00000c0f 00000000* 11399 	.data.w	.LDWlin66
00000c13 03        11400 	.data.b	3
00000c14 0d        11401 	.data.b	13
00000c15 02        11402 	.data.b	2
00000c16 00        11403 	.data.b	0
00000c17 01        11404 	.data.b	1
00000c18 02        11405 	.data.b	2
00000c19 00        11406 	.data.b	0
00000c1a 03        11407 	.data.b	3
00000c1b 05        11408 	.data.b	5
00000c1c 02        11409 	.data.b	2
00000c1d 00        11410 	.data.b	0
00000c1e 01        11411 	.data.b	1
00000c1f 06        11412 	.data.b	6
00000c20 02        11413 	.data.b	2
00000c21 02        11414 	.data.b	2
00000c22 02        11415 	.data.b	2
00000c23 02        11416 	.data.b	2
00000c24 010100    11417 	.data.b	0,1,1
                   11418 	.section	.debug_info
                   11419 .LDW_60250c0:
000040ed 11        11420 	.data.b	17
000040ee 00687448  11421 	.data.b	72,116,104,0
000040f2 43a7      11422 	.data.b	167,67
000040f4 46        11423 	.data.b	70
000040f5 01        11424 	.data.b	1
000040f6 00000000* 11425 	.data.w	.LDW_5e0e5e0
000040fa 00        11426 	.data.b	0
000040fb 5001      11427 	.data.b	1,80
                   11428 
                   11429 .LDW_6024eb0:
000040fd 11        11430 	.data.b	17

                                                                      Page 225
                                                              C:\Users\Fengyuan\AppData\Local\Temp\gh_0000sro1.s
000040fe 49756450  11431 	.data.b	80,100,117,73,110,102,111,0
00004102 006f666e 
00004106 43a7      11432 	.data.b	167,67
00004108 5e        11433 	.data.b	94
00004109 01        11434 	.data.b	1
0000410a 00000000* 11435 	.data.w	.LDW_5e0e7f0
0000410e 00        11436 	.data.b	0
0000410f 5101      11437 	.data.b	1,81
                   11438 
                   11439 .LDW_6021bb0:
00004111 1f        11440 	.data.b	31
00004112 00000000* 11441 	.data.w	.LDW44
00004116 00000000* 11442 	.data.w	.LDW74
                   11443 
                   11444 .LDW_6024cf8:
0000411a 06        11445 	.data.b	6
0000411b 76746572  11446 	.data.b	114,101,116,118,97,108,0
0000411f 006c61 
00004122 43aa      11447 	.data.b	170,67
00004124 12        11448 	.data.b	18
00004125 01        11449 	.data.b	1
00004126 00000000* 11450 	.data.w	.LDW_5c53d78
0000412a 00        11451 	.data.b	0
0000412b 00        11452 	.data.b	0
0000412c 5401      11453 	.data.b	1,84
                   11454 
                   11455 .LDW_6024988:
0000412e 07        11456 	.data.b	7
0000412f 6f727265  11457 	.data.b	101,114,114,111,114,73,100,0
00004133 00644972 
00004137 43ac      11458 	.data.b	172,67
00004139 09        11459 	.data.b	9
0000413a 01        11460 	.data.b	1
0000413b 00000000* 11461 	.data.w	.LDW_5e0df08
0000413f 00        11462 	.data.b	0
00004140 00        11463 	.data.b	0
                   11464 
                   11465 .LDW_60218e0:
00004141 1f        11466 	.data.b	31
00004142 00000000* 11467 	.data.w	.LDW64
00004146 00000000* 11468 	.data.w	.LDW54
                   11469 
                   11470 .LDW_6024fb8:
0000414a 06        11471 	.data.b	6
0000414b 54676f6c  11472 	.data.b	108,111,103,84,120,79,98,106,72,97,110,100,108,101,0
0000414f 6a624f78 
00004153 646e6148 
00004157 00656c 
0000415a 44a6      11473 	.data.b	166,68
0000415c 18        11474 	.data.b	24
0000415d 01        11475 	.data.b	1
0000415e 00000000* 11476 	.data.w	.LDW_5e0e5e0
00004162 00        11477 	.data.b	0
00004163 00        11478 	.data.b	0
00004164 5001      11479 	.data.b	1,80
                   11480 
00004166 00        11481 	.data.b	0
                   11482 
00004167 00        11483 	.data.b	0
                   11484 
00004168 00        11485 	.data.b	0

                                                                      Page 226
                                                              C:\Users\Fengyuan\AppData\Local\Temp\gh_0000sro1.s
                   11486 
                   11487 .LDW_6024520:
00004169 16        11488 	.data.b	22
0000416a 5f6e6143  11489 	.data.b	67,97,110,95,67,104,101,99,107,87,97,107,101,117,112,0
0000416e 63656843 
00004172 6b61576b 
00004176 00707565 
0000417a 44e0      11490 	.data.b	224,68
0000417c 2a        11491 	.data.b	42
0000417d 01        11492 	.data.b	1
0000417e 00000000* 11493 	.data.w	.LDW_5ff14a8
00004182 00000000* 11494 	.data.w	Can_CheckWakeup
00004186 00000000* 11495 	.data.w	__ghs_eofn_Can_CheckWakeup
0000418a 5d01      11496 	.data.b	1,93
0000418c 00        11497 	.data.b	0
0000418d 04        11498 	.data.b	4
0000418e 00        11499 	.data.b	0
0000418f 7c        11500 	.data.b	124
00004190 01        11501 	.data.b	1
00004191 00        11502 	.data.b	0
00004192 00        11503 	.data.b	0
00004193 01        11504 	.data.b	1
00004194 01        11505 	.data.b	1
00004195 00        11506 	.data.b	0
00004196 01        11507 	.data.b	1
                   11508 
                   11509 	.section	.debug_frame
                   11510 .LDW_5d61a18:
000001e0 00000000* 11511 	.data.w	.LDW_unq_20-.LDW_unq_1f
                   11512 .LDW_unq_1f:
000001e4 00000000* 11513 	.data.w	.LDW_5f1c410
000001e8 00000000* 11514 	.data.w	Can_CheckWakeup
000001ec 00000004  11515 	.data.w	__ghs_eofn_Can_CheckWakeup-Can_CheckWakeup
000001f0 01        11516 	.data.b	1
000001f1 00000000* 11517 	.data.w	.LDW94
000001f5 00        11518 	.data.b	0
000001f6 00        11519 	.data.b	0
000001f7 00        11520 	.data.b	0
                   11521 .LDW_unq_20:
                   11522 	.section	.debug_line
00000c27 020500    11523 	.data.b	0,5,2
00000c2a 00000000* 11524 	.data.w	Can_CheckWakeup
00000c2e 06        11525 	.data.b	6
00000c2f 03        11526 	.data.b	3
00000c30 00c4e5    11527 	.data.b	229,196,0
00000c33 02        11528 	.data.b	2
00000c34 00        11529 	.data.b	0
00000c35 01        11530 	.data.b	1
00000c36 06        11531 	.data.b	6
00000c37 02        11532 	.data.b	2
00000c38 02        11533 	.data.b	2
00000c39 02        11534 	.data.b	2
00000c3a 02        11535 	.data.b	2
00000c3b 010100    11536 	.data.b	0,1,1
                   11537 	.section	.debug_info
                   11538 .LDW_6024da8:
00004197 11        11539 	.data.b	17
00004198 746e6f43  11540 	.data.b	67,111,110,116,114,111,108,108,101,114,0
0000419c 6c6c6f72 
000041a0 007265 
000041a3 44e0      11541 	.data.b	224,68

                                                                      Page 227
                                                              C:\Users\Fengyuan\AppData\Local\Temp\gh_0000sro1.s
000041a5 41        11542 	.data.b	65
000041a6 01        11543 	.data.b	1
000041a7 00000000* 11544 	.data.w	.LDW_5e0df08
000041ab 00        11545 	.data.b	0
000041ac 5001      11546 	.data.b	1,80
                   11547 
                   11548 .LDW_6021d00:
000041ae 1f        11549 	.data.b	31
000041af 00000000* 11550 	.data.w	.LDW84
000041b3 00000000* 11551 	.data.w	.LDW94
                   11552 
                   11553 .LDW_60248d8:
000041b7 07        11554 	.data.b	7
000041b8 76746572  11555 	.data.b	114,101,116,118,97,108,0
000041bc 006c61 
000041bf 44e3      11556 	.data.b	227,68
000041c1 12        11557 	.data.b	18
000041c2 01        11558 	.data.b	1
000041c3 00000000* 11559 	.data.w	.LDW_5ff14a8
000041c7 00        11560 	.data.b	0
000041c8 00        11561 	.data.b	0
                   11562 
000041c9 00        11563 	.data.b	0
                   11564 
000041ca 00        11565 	.data.b	0
                   11566 
                   11567 .LDW_6024190:
000041cb 15        11568 	.data.b	21
000041cc 5f6e6143  11569 	.data.b	67,97,110,95,77,97,105,110,70,117,110,99,116,105,111,110,95,87,114,105,116,101,0
000041d0 6e69614d 
000041d4 636e7546 
000041d8 6e6f6974 
000041dc 6972575f 
000041e0 006574 
000041e3 4586      11570 	.data.b	134,69
000041e5 20        11571 	.data.b	32
000041e6 01        11572 	.data.b	1
000041e7 00000000* 11573 	.data.w	Can_MainFunction_Write
000041eb 00000000* 11574 	.data.w	__ghs_eofn_Can_MainFunction_Write
000041ef 5d01      11575 	.data.b	1,93
000041f1 00        11576 	.data.b	0
000041f2 04        11577 	.data.b	4
000041f3 00        11578 	.data.b	0
000041f4 7c        11579 	.data.b	124
000041f5 01        11580 	.data.b	1
000041f6 00        11581 	.data.b	0
000041f7 00        11582 	.data.b	0
000041f8 01        11583 	.data.b	1
000041f9 01        11584 	.data.b	1
000041fa 00        11585 	.data.b	0
000041fb 01        11586 	.data.b	1
                   11587 
                   11588 	.section	.debug_frame
                   11589 .LDW_5d61918:
000001f8 00000000* 11590 	.data.w	.LDW_unq_22-.LDW_unq_21
                   11591 .LDW_unq_21:
000001fc 00000000* 11592 	.data.w	.LDW_5f1c410
00000200 00000000* 11593 	.data.w	Can_MainFunction_Write
00000204 00000002  11594 	.data.w	__ghs_eofn_Can_MainFunction_Write-Can_MainFunction_Write
00000208 01        11595 	.data.b	1
00000209 00000000* 11596 	.data.w	.LDW15

                                                                      Page 228
                                                              C:\Users\Fengyuan\AppData\Local\Temp\gh_0000sro1.s
0000020d 00        11597 	.data.b	0
0000020e 00        11598 	.data.b	0
0000020f 00        11599 	.data.b	0
                   11600 .LDW_unq_22:
                   11601 	.section	.debug_line
00000c3e 020500    11602 	.data.b	0,5,2
00000c41 00000000* 11603 	.data.w	Can_MainFunction_Write
00000c45 06        11604 	.data.b	6
00000c46 03        11605 	.data.b	3
00000c47 00c5cf    11606 	.data.b	207,197,0
00000c4a 02        11607 	.data.b	2
00000c4b 00        11608 	.data.b	0
00000c4c 01        11609 	.data.b	1
00000c4d 02        11610 	.data.b	2
00000c4e 02        11611 	.data.b	2
00000c4f 010100    11612 	.data.b	0,1,1
                   11613 	.section	.debug_info
                   11614 .LDW_6021b50:
000041fc 1f        11615 	.data.b	31
000041fd 00000000* 11616 	.data.w	.LDW05
00004201 00000000* 11617 	.data.w	.LDW15
                   11618 
00004205 00        11619 	.data.b	0
                   11620 
00004206 00        11621 	.data.b	0
                   11622 
                   11623 .LDW_6024650:
00004207 15        11624 	.data.b	21
00004208 5f6e6143  11625 	.data.b	67,97,110,95,77,97,105,110,70,117,110,99,116,105,111,110,95,82,101,97,100,0
0000420c 6e69614d 
00004210 636e7546 
00004214 6e6f6974 
00004218 6165525f 
0000421c 0064 
0000421e 45f5      11626 	.data.b	245,69
00004220 20        11627 	.data.b	32
00004221 01        11628 	.data.b	1
00004222 00000000* 11629 	.data.w	Can_MainFunction_Read
00004226 00000000* 11630 	.data.w	__ghs_eofn_Can_MainFunction_Read
0000422a 5d01      11631 	.data.b	1,93
0000422c 018090    11632 	.data.b	144,128,1
0000422f 7c        11633 	.data.b	124
00004230 00        11634 	.data.b	0
00004231 04        11635 	.data.b	4
00004232 01        11636 	.data.b	1
00004233 00        11637 	.data.b	0
00004234 00        11638 	.data.b	0
00004235 01        11639 	.data.b	1
00004236 01        11640 	.data.b	1
00004237 00        11641 	.data.b	0
00004238 01        11642 	.data.b	1
                   11643 
                   11644 	.section	.debug_frame
                   11645 .LDW_5d61758:
00000210 00000000* 11646 	.data.w	.LDW_unq_24-.LDW_unq_23
                   11647 .LDW_unq_23:
00000214 00000000* 11648 	.data.w	.LDW_5f1c410
00000218 00000000* 11649 	.data.w	Can_MainFunction_Read
0000021c 00000014  11650 	.data.w	__ghs_eofn_Can_MainFunction_Read-Can_MainFunction_Read
00000220 01        11651 	.data.b	1
00000221 00000000* 11652 	.data.w	.LDW35

                                                                      Page 229
                                                              C:\Users\Fengyuan\AppData\Local\Temp\gh_0000sro1.s
00000225 00        11653 	.data.b	0
00000226 00        11654 	.data.b	0
00000227 00        11655 	.data.b	0
                   11656 .LDW_unq_24:
                   11657 	.section	.debug_line
00000c52 020500    11658 	.data.b	0,5,2
00000c55 00000000* 11659 	.data.w	Can_MainFunction_Read
00000c59 06        11660 	.data.b	6
00000c5a 03        11661 	.data.b	3
00000c5b 00c5f5    11662 	.data.b	245,197,0
00000c5e 02        11663 	.data.b	2
00000c5f 00        11664 	.data.b	0
00000c60 01        11665 	.data.b	1
00000c61 03        11666 	.data.b	3
00000c62 09        11667 	.data.b	9
00000c63 02        11668 	.data.b	2
00000c64 04        11669 	.data.b	4
00000c65 01        11670 	.data.b	1
00000c66 03        11671 	.data.b	3
00000c67 09        11672 	.data.b	9
00000c68 02        11673 	.data.b	2
00000c69 04        11674 	.data.b	4
00000c6a 01        11675 	.data.b	1
00000c6b 03        11676 	.data.b	3
00000c6c 34        11677 	.data.b	52
00000c6d 02        11678 	.data.b	2
00000c6e 00        11679 	.data.b	0
00000c6f 01        11680 	.data.b	1
00000c70 02        11681 	.data.b	2
00000c71 00        11682 	.data.b	0
00000c72 02        11683 	.data.b	2
00000c73 00        11684 	.data.b	0
00000c74 02        11685 	.data.b	2
00000c75 00        11686 	.data.b	0
00000c76 03        11687 	.data.b	3
00000c77 04        11688 	.data.b	4
00000c78 02        11689 	.data.b	2
00000c79 00        11690 	.data.b	0
00000c7a 01        11691 	.data.b	1
00000c7b 0b        11692 	.data.b	11
00000c7c 0b        11693 	.data.b	11
00000c7d 03        11694 	.data.b	3
00000c7e 7fbe      11695 	.data.b	190,127
00000c80 02        11696 	.data.b	2
00000c81 0a        11697 	.data.b	10
00000c82 01        11698 	.data.b	1
00000c83 0c        11699 	.data.b	12
00000c84 03        11700 	.data.b	3
00000c85 05        11701 	.data.b	5
00000c86 02        11702 	.data.b	2
00000c87 00        11703 	.data.b	0
00000c88 01        11704 	.data.b	1
00000c89 02        11705 	.data.b	2
00000c8a 00        11706 	.data.b	0
00000c8b 03        11707 	.data.b	3
00000c8c 3c        11708 	.data.b	60
00000c8d 02        11709 	.data.b	2
00000c8e 00        11710 	.data.b	0
00000c8f 01        11711 	.data.b	1
00000c90 02        11712 	.data.b	2
00000c91 00        11713 	.data.b	0

                                                                      Page 230
                                                              C:\Users\Fengyuan\AppData\Local\Temp\gh_0000sro1.s
00000c92 03        11714 	.data.b	3
00000c93 05        11715 	.data.b	5
00000c94 02        11716 	.data.b	2
00000c95 00        11717 	.data.b	0
00000c96 01        11718 	.data.b	1
00000c97 02        11719 	.data.b	2
00000c98 02        11720 	.data.b	2
00000c99 010100    11721 	.data.b	0,1,1
                   11722 	.section	.debug_info
                   11723 .LDW_6021be0:
00004239 1f        11724 	.data.b	31
0000423a 00000000* 11725 	.data.w	.LDW25
0000423e 00000000* 11726 	.data.w	.LDW35
                   11727 
                   11728 .LDW_6025010:
00004242 07        11729 	.data.b	7
00004243 6f727265  11730 	.data.b	101,114,114,111,114,73,100,0
00004247 00644972 
0000424b 45f8      11731 	.data.b	248,69
0000424d 09        11732 	.data.b	9
0000424e 01        11733 	.data.b	1
0000424f 00000000* 11734 	.data.w	.LDW_5e0df08
00004253 00        11735 	.data.b	0
00004254 00        11736 	.data.b	0
                   11737 
00004255 00        11738 	.data.b	0
                   11739 
00004256 00        11740 	.data.b	0
                   11741 
                   11742 .LDW_6023a70:
00004257 15        11743 	.data.b	21
00004258 5f6e6143  11744 	.data.b	67,97,110,95,77,97,105,110,70,117,110,99,116,105,111,110,95,66,117,115,79,102,102,0
0000425c 6e69614d 
00004260 636e7546 
00004264 6e6f6974 
00004268 7375425f 
0000426c 0066664f 
00004270 46e6      11745 	.data.b	230,70
00004272 20        11746 	.data.b	32
00004273 01        11747 	.data.b	1
00004274 00000000* 11748 	.data.w	Can_MainFunction_BusOff
00004278 00000000* 11749 	.data.w	__ghs_eofn_Can_MainFunction_BusOff
0000427c 5d01      11750 	.data.b	1,93
0000427e 00        11751 	.data.b	0
0000427f 04        11752 	.data.b	4
00004280 00        11753 	.data.b	0
00004281 7c        11754 	.data.b	124
00004282 01        11755 	.data.b	1
00004283 00        11756 	.data.b	0
00004284 00        11757 	.data.b	0
00004285 01        11758 	.data.b	1
00004286 01        11759 	.data.b	1
00004287 00        11760 	.data.b	0
00004288 01        11761 	.data.b	1
                   11762 
                   11763 	.section	.debug_frame
                   11764 .LDW_5d61a58:
00000228 00000000* 11765 	.data.w	.LDW_unq_26-.LDW_unq_25
                   11766 .LDW_unq_25:
0000022c 00000000* 11767 	.data.w	.LDW_5f1c410
00000230 00000000* 11768 	.data.w	Can_MainFunction_BusOff

                                                                      Page 231
                                                              C:\Users\Fengyuan\AppData\Local\Temp\gh_0000sro1.s
00000234 00000002  11769 	.data.w	__ghs_eofn_Can_MainFunction_BusOff-Can_MainFunction_BusOff
00000238 01        11770 	.data.b	1
00000239 00000000* 11771 	.data.w	.LDW55
0000023d 00        11772 	.data.b	0
0000023e 00        11773 	.data.b	0
0000023f 00        11774 	.data.b	0
                   11775 .LDW_unq_26:
                   11776 	.section	.debug_line
00000c9c 020500    11777 	.data.b	0,5,2
00000c9f 00000000* 11778 	.data.w	Can_MainFunction_BusOff
00000ca3 06        11779 	.data.b	6
00000ca4 03        11780 	.data.b	3
00000ca5 00c7a7    11781 	.data.b	167,199,0
00000ca8 02        11782 	.data.b	2
00000ca9 00        11783 	.data.b	0
00000caa 01        11784 	.data.b	1
00000cab 02        11785 	.data.b	2
00000cac 02        11786 	.data.b	2
00000cad 010100    11787 	.data.b	0,1,1
                   11788 	.section	.debug_info
                   11789 .LDW_6021d30:
00004289 1f        11790 	.data.b	31
0000428a 00000000* 11791 	.data.w	.LDW45
0000428e 00000000* 11792 	.data.w	.LDW55
                   11793 
00004292 00        11794 	.data.b	0
                   11795 
00004293 00        11796 	.data.b	0
                   11797 
                   11798 .LDW_6024060:
00004294 15        11799 	.data.b	21
00004295 5f6e6143  11800 	.data.b	67,97,110,95,77,97,105,110,70,117,110,99,116,105,111,110,95,87,97,107,101,117,112,0
00004299 6e69614d 
0000429d 636e7546 
000042a1 6e6f6974 
000042a5 6b61575f 
000042a9 00707565 
000042ad 47c7      11801 	.data.b	199,71
000042af 20        11802 	.data.b	32
000042b0 01        11803 	.data.b	1
000042b1 00000000* 11804 	.data.w	Can_MainFunction_Wakeup
000042b5 00000000* 11805 	.data.w	__ghs_eofn_Can_MainFunction_Wakeup
000042b9 5d01      11806 	.data.b	1,93
000042bb 00        11807 	.data.b	0
000042bc 04        11808 	.data.b	4
000042bd 00        11809 	.data.b	0
000042be 7c        11810 	.data.b	124
000042bf 01        11811 	.data.b	1
000042c0 00        11812 	.data.b	0
000042c1 00        11813 	.data.b	0
000042c2 01        11814 	.data.b	1
000042c3 01        11815 	.data.b	1
000042c4 00        11816 	.data.b	0
000042c5 01        11817 	.data.b	1
                   11818 
                   11819 	.section	.debug_frame
                   11820 .LDW_5d61e98:
00000240 00000000* 11821 	.data.w	.LDW_unq_28-.LDW_unq_27
                   11822 .LDW_unq_27:
00000244 00000000* 11823 	.data.w	.LDW_5f1c410
00000248 00000000* 11824 	.data.w	Can_MainFunction_Wakeup

                                                                      Page 232
                                                              C:\Users\Fengyuan\AppData\Local\Temp\gh_0000sro1.s
0000024c 00000002  11825 	.data.w	__ghs_eofn_Can_MainFunction_Wakeup-Can_MainFunction_Wakeup
00000250 01        11826 	.data.b	1
00000251 00000000* 11827 	.data.w	.LDW75
00000255 00        11828 	.data.b	0
00000256 00        11829 	.data.b	0
00000257 00        11830 	.data.b	0
                   11831 .LDW_unq_28:
                   11832 	.section	.debug_line
00000cb0 020500    11833 	.data.b	0,5,2
00000cb3 00000000* 11834 	.data.w	Can_MainFunction_Wakeup
00000cb7 06        11835 	.data.b	6
00000cb8 03        11836 	.data.b	3
00000cb9 00c7c9    11837 	.data.b	201,199,0
00000cbc 02        11838 	.data.b	2
00000cbd 00        11839 	.data.b	0
00000cbe 01        11840 	.data.b	1
00000cbf 02        11841 	.data.b	2
00000cc0 02        11842 	.data.b	2
00000cc1 010100    11843 	.data.b	0,1,1
                   11844 	.section	.debug_info
                   11845 .LDW_6021940:
000042c6 1f        11846 	.data.b	31
000042c7 00000000* 11847 	.data.w	.LDW65
000042cb 00000000* 11848 	.data.w	.LDW75
                   11849 
000042cf 00        11850 	.data.b	0
                   11851 
000042d0 00        11852 	.data.b	0
                   11853 
                   11854 .LDW_60240f8:
000042d1 15        11855 	.data.b	21
000042d2 5f6e6143  11856 	.data.b	67,97,110,95,77,97,105,110,70,117,110,99,116,105,111,110,95,77,111,100,101,0
000042d6 6e69614d 
000042da 636e7546 
000042de 6e6f6974 
000042e2 646f4d5f 
000042e6 0065 
000042e8 47ee      11857 	.data.b	238,71
000042ea 20        11858 	.data.b	32
000042eb 01        11859 	.data.b	1
000042ec 00000000* 11860 	.data.w	Can_MainFunction_Mode
000042f0 00000000* 11861 	.data.w	__ghs_eofn_Can_MainFunction_Mode
000042f4 5d01      11862 	.data.b	1,93
000042f6 0181f0    11863 	.data.b	240,129,1
000042f9 70        11864 	.data.b	112
000042fa 00        11865 	.data.b	0
000042fb 14        11866 	.data.b	20
000042fc 01        11867 	.data.b	1
000042fd 00        11868 	.data.b	0
000042fe 00        11869 	.data.b	0
000042ff 01        11870 	.data.b	1
00004300 01        11871 	.data.b	1
00004301 00        11872 	.data.b	0
00004302 01        11873 	.data.b	1
                   11874 
                   11875 	.section	.debug_frame
                   11876 .LDW_5d627d8:
00000258 00000000* 11877 	.data.w	.LDW_unq_2a-.LDW_unq_29
                   11878 .LDW_unq_29:
0000025c 00000000* 11879 	.data.w	.LDW_5f1c410
00000260 00000000* 11880 	.data.w	Can_MainFunction_Mode

                                                                      Page 233
                                                              C:\Users\Fengyuan\AppData\Local\Temp\gh_0000sro1.s
00000264 00000184  11881 	.data.w	__ghs_eofn_Can_MainFunction_Mode-Can_MainFunction_Mode
00000268 01        11882 	.data.b	1
00000269 00000000* 11883 	.data.w	.LDW95
0000026d 00        11884 	.data.b	0
0000026e 00        11885 	.data.b	0
0000026f 00        11886 	.data.b	0
                   11887 .LDW_unq_2a:
                   11888 	.section	.debug_line
00000cc4 020500    11889 	.data.b	0,5,2
00000cc7 00000000* 11890 	.data.w	Can_MainFunction_Mode
00000ccb 06        11891 	.data.b	6
00000ccc 03        11892 	.data.b	3
00000ccd 00c7ee    11893 	.data.b	238,199,0
00000cd0 02        11894 	.data.b	2
00000cd1 00        11895 	.data.b	0
00000cd2 01        11896 	.data.b	1
00000cd3 03        11897 	.data.b	3
00000cd4 08        11898 	.data.b	8
00000cd5 02        11899 	.data.b	2
00000cd6 04        11900 	.data.b	4
00000cd7 01        11901 	.data.b	1
00000cd8 23        11902 	.data.b	35
00000cd9 0b        11903 	.data.b	11
00000cda 020500    11904 	.data.b	0,5,2
00000cdd 00000000* 11905 	.data.w	.LDWlin67
00000ce1 0b        11906 	.data.b	11
00000ce2 0d        11907 	.data.b	13
00000ce3 0c        11908 	.data.b	12
00000ce4 03        11909 	.data.b	3
00000ce5 11        11910 	.data.b	17
00000ce6 02        11911 	.data.b	2
00000ce7 04        11912 	.data.b	4
00000ce8 01        11913 	.data.b	1
00000ce9 020500    11914 	.data.b	0,5,2
00000cec 00000000* 11915 	.data.w	.LDWlin68
00000cf0 0b        11916 	.data.b	11
00000cf1 0b        11917 	.data.b	11
00000cf2 020500    11918 	.data.b	0,5,2
00000cf5 00000000* 11919 	.data.w	.LDWlin69
00000cf9 0b        11920 	.data.b	11
00000cfa 0d        11921 	.data.b	13
00000cfb 0b        11922 	.data.b	11
00000cfc 020500    11923 	.data.b	0,5,2
00000cff 00000000* 11924 	.data.w	.LDWlin70
00000d03 03        11925 	.data.b	3
00000d04 09        11926 	.data.b	9
00000d05 02        11927 	.data.b	2
00000d06 00        11928 	.data.b	0
00000d07 01        11929 	.data.b	1
00000d08 0c        11930 	.data.b	12
00000d09 02        11931 	.data.b	2
00000d0a 00        11932 	.data.b	0
00000d0b 0b        11933 	.data.b	11
00000d0c 0c        11934 	.data.b	12
00000d0d 13        11935 	.data.b	19
00000d0e 020500    11936 	.data.b	0,5,2
00000d11 00000000* 11937 	.data.w	.LDWlin71
00000d15 03        11938 	.data.b	3
00000d16 75        11939 	.data.b	117
00000d17 02        11940 	.data.b	2
00000d18 00        11941 	.data.b	0

                                                                      Page 234
                                                              C:\Users\Fengyuan\AppData\Local\Temp\gh_0000sro1.s
00000d19 01        11942 	.data.b	1
00000d1a 020500    11943 	.data.b	0,5,2
00000d1d 00000000* 11944 	.data.w	.LDWlin72
00000d21 0b        11945 	.data.b	11
00000d22 0d        11946 	.data.b	13
00000d23 020500    11947 	.data.b	0,5,2
00000d26 00000000* 11948 	.data.w	.LDWlin73
00000d2a 02        11949 	.data.b	2
00000d2b 00        11950 	.data.b	0
00000d2c 020500    11951 	.data.b	0,5,2
00000d2f 00000000* 11952 	.data.w	.LDWlin74
00000d33 02        11953 	.data.b	2
00000d34 00        11954 	.data.b	0
00000d35 03        11955 	.data.b	3
00000d36 08        11956 	.data.b	8
00000d37 02        11957 	.data.b	2
00000d38 08        11958 	.data.b	8
00000d39 01        11959 	.data.b	1
00000d3a 0b        11960 	.data.b	11
00000d3b 02        11961 	.data.b	2
00000d3c 00        11962 	.data.b	0
00000d3d 0c        11963 	.data.b	12
00000d3e 1b        11964 	.data.b	27
00000d3f 02        11965 	.data.b	2
00000d40 00        11966 	.data.b	0
00000d41 03        11967 	.data.b	3
00000d42 04        11968 	.data.b	4
00000d43 02        11969 	.data.b	2
00000d44 00        11970 	.data.b	0
00000d45 01        11971 	.data.b	1
00000d46 13        11972 	.data.b	19
00000d47 0b        11973 	.data.b	11
00000d48 3b        11974 	.data.b	59
00000d49 02        11975 	.data.b	2
00000d4a 00        11976 	.data.b	0
00000d4b 03        11977 	.data.b	3
00000d4c 04        11978 	.data.b	4
00000d4d 02        11979 	.data.b	2
00000d4e 00        11980 	.data.b	0
00000d4f 01        11981 	.data.b	1
00000d50 02        11982 	.data.b	2
00000d51 04        11983 	.data.b	4
00000d52 010100    11984 	.data.b	0,1,1
                   11985 	.section	.debug_info
                   11986 .LDW_6021790:
00004303 1f        11987 	.data.b	31
00004304 00000000* 11988 	.data.w	.LDW85
00004308 00000000* 11989 	.data.w	.LDW95
                   11990 
                   11991 .LDW_6024e00:
0000430c 06        11992 	.data.b	6
0000430d 6f727265  11993 	.data.b	101,114,114,111,114,73,100,0
00004311 00644972 
00004315 47f2      11994 	.data.b	242,71
00004317 09        11995 	.data.b	9
00004318 01        11996 	.data.b	1
00004319 00000000* 11997 	.data.w	.LDW_5e0df08
0000431d 00        11998 	.data.b	0
0000431e 00        11999 	.data.b	0
0000431f 5501      12000 	.data.b	1,85
                   12001 

                                                                      Page 235
                                                              C:\Users\Fengyuan\AppData\Local\Temp\gh_0000sro1.s
00004321 00        12002 	.data.b	0
                   12003 
00004322 00        12004 	.data.b	0
                   12005 
                   12006 .LDW_6023ba0:
00004323 15        12007 	.data.b	21
00004324 5f6e6143  12008 	.data.b	67,97,110,95,67,97,110,99,101,108,84,120,0
00004328 636e6143 
0000432c 78546c65 
00004330 00 
00004331 48e5      12009 	.data.b	229,72
00004333 20        12010 	.data.b	32
00004334 01        12011 	.data.b	1
00004335 00000000* 12012 	.data.w	Can_CancelTx
00004339 00000000* 12013 	.data.w	__ghs_eofn_Can_CancelTx
0000433d 5d01      12014 	.data.b	1,93
0000433f 00        12015 	.data.b	0
00004340 04        12016 	.data.b	4
00004341 00        12017 	.data.b	0
00004342 7c        12018 	.data.b	124
00004343 01        12019 	.data.b	1
00004344 00        12020 	.data.b	0
00004345 00        12021 	.data.b	0
00004346 01        12022 	.data.b	1
00004347 01        12023 	.data.b	1
00004348 00        12024 	.data.b	0
00004349 01        12025 	.data.b	1
                   12026 
                   12027 	.section	.debug_frame
                   12028 .LDW_5d62c18:
00000270 00000000* 12029 	.data.w	.LDW_unq_2c-.LDW_unq_2b
                   12030 .LDW_unq_2b:
00000274 00000000* 12031 	.data.w	.LDW_5f1c410
00000278 00000000* 12032 	.data.w	Can_CancelTx
0000027c 00000002  12033 	.data.w	__ghs_eofn_Can_CancelTx-Can_CancelTx
00000280 01        12034 	.data.b	1
00000281 00000000* 12035 	.data.w	.LDW16
00000285 00        12036 	.data.b	0
00000286 00        12037 	.data.b	0
00000287 00        12038 	.data.b	0
                   12039 .LDW_unq_2c:
                   12040 	.section	.debug_line
00000d55 020500    12041 	.data.b	0,5,2
00000d58 00000000* 12042 	.data.w	Can_CancelTx
00000d5c 06        12043 	.data.b	6
00000d5d 03        12044 	.data.b	3
00000d5e 00c9f5    12045 	.data.b	245,201,0
00000d61 02        12046 	.data.b	2
00000d62 00        12047 	.data.b	0
00000d63 01        12048 	.data.b	1
00000d64 02        12049 	.data.b	2
00000d65 02        12050 	.data.b	2
00000d66 010100    12051 	.data.b	0,1,1
                   12052 	.section	.debug_info
                   12053 .LDW_6025068:
0000434a 11        12054 	.data.b	17
0000434b 00687448  12055 	.data.b	72,116,104,0
0000434f 48e5      12056 	.data.b	229,72
00004351 3f        12057 	.data.b	63
00004352 01        12058 	.data.b	1
00004353 00000000* 12059 	.data.w	.LDW_5e0e5e0

                                                                      Page 236
                                                              C:\Users\Fengyuan\AppData\Local\Temp\gh_0000sro1.s
00004357 00        12060 	.data.b	0
00004358 5001      12061 	.data.b	1,80
                   12062 
                   12063 .LDW_6024880:
0000435a 11        12064 	.data.b	17
0000435b 49756450  12065 	.data.b	80,100,117,73,100,0
0000435f 0064 
00004361 48e5      12066 	.data.b	229,72
00004363 4e        12067 	.data.b	78
00004364 01        12068 	.data.b	1
00004365 00000000* 12069 	.data.w	.LDW_5ff1298
00004369 00        12070 	.data.b	0
0000436a 5101      12071 	.data.b	1,81
                   12072 
                   12073 .LDW_6021850:
0000436c 1f        12074 	.data.b	31
0000436d 00000000* 12075 	.data.w	.LDW06
00004371 00000000* 12076 	.data.w	.LDW16
                   12077 
00004375 00        12078 	.data.b	0
                   12079 
00004376 00        12080 	.data.b	0
                   12081 
                   12082 .LDW_6023d68:
00004377 15        12083 	.data.b	21
00004378 5f6e6143  12084 	.data.b	67,97,110,95,82,101,115,101,116,66,117,115,79,102,102,83,116,97,114,116,0
0000437c 65736552 
00004380 73754274 
00004384 5366664f 
00004388 74726174 
0000438c 00 
0000438d 4a90      12085 	.data.b	144,74
0000438f 20        12086 	.data.b	32
00004390 01        12087 	.data.b	1
00004391 00000000* 12088 	.data.w	Can_ResetBusOffStart
00004395 00000000* 12089 	.data.w	__ghs_eofn_Can_ResetBusOffStart
00004399 5d01      12090 	.data.b	1,93
0000439b 00        12091 	.data.b	0
0000439c 04        12092 	.data.b	4
0000439d 00        12093 	.data.b	0
0000439e 7c        12094 	.data.b	124
0000439f 01        12095 	.data.b	1
000043a0 00        12096 	.data.b	0
000043a1 00        12097 	.data.b	0
000043a2 01        12098 	.data.b	1
000043a3 01        12099 	.data.b	1
000043a4 00        12100 	.data.b	0
000043a5 01        12101 	.data.b	1
                   12102 
                   12103 	.section	.debug_frame
                   12104 .LDW_5d62818:
00000288 00000000* 12105 	.data.w	.LDW_unq_2e-.LDW_unq_2d
                   12106 .LDW_unq_2d:
0000028c 00000000* 12107 	.data.w	.LDW_5f1c410
00000290 00000000* 12108 	.data.w	Can_ResetBusOffStart
00000294 00000002  12109 	.data.w	__ghs_eofn_Can_ResetBusOffStart-Can_ResetBusOffStart
00000298 01        12110 	.data.b	1
00000299 00000000* 12111 	.data.w	.LDW36
0000029d 00        12112 	.data.b	0
0000029e 00        12113 	.data.b	0
0000029f 00        12114 	.data.b	0

                                                                      Page 237
                                                              C:\Users\Fengyuan\AppData\Local\Temp\gh_0000sro1.s
                   12115 .LDW_unq_2e:
                   12116 	.section	.debug_line
00000d69 020500    12117 	.data.b	0,5,2
00000d6c 00000000* 12118 	.data.w	Can_ResetBusOffStart
00000d70 06        12119 	.data.b	6
00000d71 03        12120 	.data.b	3
00000d72 00cace    12121 	.data.b	206,202,0
00000d75 02        12122 	.data.b	2
00000d76 00        12123 	.data.b	0
00000d77 01        12124 	.data.b	1
00000d78 02        12125 	.data.b	2
00000d79 02        12126 	.data.b	2
00000d7a 010100    12127 	.data.b	0,1,1
                   12128 	.section	.debug_info
                   12129 .LDW_60247d0:
000043a6 11        12130 	.data.b	17
000043a7 746e6f43  12131 	.data.b	67,111,110,116,114,111,108,108,101,114,0
000043ab 6c6c6f72 
000043af 007265 
000043b2 4a90      12132 	.data.b	144,74
000043b4 3c        12133 	.data.b	60
000043b5 01        12134 	.data.b	1
000043b6 00000000* 12135 	.data.w	.LDW_5e0df08
000043ba 00        12136 	.data.b	0
000043bb 5001      12137 	.data.b	1,80
                   12138 
                   12139 .LDW_6021880:
000043bd 1f        12140 	.data.b	31
000043be 00000000* 12141 	.data.w	.LDW26
000043c2 00000000* 12142 	.data.w	.LDW36
                   12143 
000043c6 00        12144 	.data.b	0
                   12145 
000043c7 00        12146 	.data.b	0
                   12147 
                   12148 .LDW_6023c38:
000043c8 15        12149 	.data.b	21
000043c9 5f6e6143  12150 	.data.b	67,97,110,95,82,101,115,101,116,66,117,115,79,102,102,69,110,100,0
000043cd 65736552 
000043d1 73754274 
000043d5 4566664f 
000043d9 00646e 
000043dc 4aea      12151 	.data.b	234,74
000043de 20        12152 	.data.b	32
000043df 01        12153 	.data.b	1
000043e0 00000000* 12154 	.data.w	Can_ResetBusOffEnd
000043e4 00000000* 12155 	.data.w	__ghs_eofn_Can_ResetBusOffEnd
000043e8 5d01      12156 	.data.b	1,93
000043ea 00        12157 	.data.b	0
000043eb 04        12158 	.data.b	4
000043ec 00        12159 	.data.b	0
000043ed 7c        12160 	.data.b	124
000043ee 01        12161 	.data.b	1
000043ef 00        12162 	.data.b	0
000043f0 00        12163 	.data.b	0
000043f1 01        12164 	.data.b	1
000043f2 01        12165 	.data.b	1
000043f3 00        12166 	.data.b	0
000043f4 01        12167 	.data.b	1
                   12168 
                   12169 	.section	.debug_frame

                                                                      Page 238
                                                              C:\Users\Fengyuan\AppData\Local\Temp\gh_0000sro1.s
                   12170 .LDW_5d62b58:
000002a0 00000000* 12171 	.data.w	.LDW_unq_30-.LDW_unq_2f
                   12172 .LDW_unq_2f:
000002a4 00000000* 12173 	.data.w	.LDW_5f1c410
000002a8 00000000* 12174 	.data.w	Can_ResetBusOffEnd
000002ac 00000002  12175 	.data.w	__ghs_eofn_Can_ResetBusOffEnd-Can_ResetBusOffEnd
000002b0 01        12176 	.data.b	1
000002b1 00000000* 12177 	.data.w	.LDW56
000002b5 00        12178 	.data.b	0
000002b6 00        12179 	.data.b	0
000002b7 00        12180 	.data.b	0
                   12181 .LDW_unq_30:
                   12182 	.section	.debug_line
00000d7d 020500    12183 	.data.b	0,5,2
00000d80 00000000* 12184 	.data.w	Can_ResetBusOffEnd
00000d84 06        12185 	.data.b	6
00000d85 03        12186 	.data.b	3
00000d86 00cbab    12187 	.data.b	171,203,0
00000d89 02        12188 	.data.b	2
00000d8a 00        12189 	.data.b	0
00000d8b 01        12190 	.data.b	1
00000d8c 02        12191 	.data.b	2
00000d8d 02        12192 	.data.b	2
00000d8e 010100    12193 	.data.b	0,1,1
                   12194 	.section	.debug_info
                   12195 .LDW_6025170:
000043f5 11        12196 	.data.b	17
000043f6 746e6f43  12197 	.data.b	67,111,110,116,114,111,108,108,101,114,0
000043fa 6c6c6f72 
000043fe 007265 
00004401 4aea      12198 	.data.b	234,74
00004403 3a        12199 	.data.b	58
00004404 01        12200 	.data.b	1
00004405 00000000* 12201 	.data.w	.LDW_5e0df08
00004409 00        12202 	.data.b	0
0000440a 5001      12203 	.data.b	1,80
                   12204 
                   12205 .LDW_6055ee8:
0000440c 1f        12206 	.data.b	31
0000440d 00000000* 12207 	.data.w	.LDW46
00004411 00000000* 12208 	.data.w	.LDW56
                   12209 
00004415 00        12210 	.data.b	0
                   12211 
00004416 00        12212 	.data.b	0
                   12213 
00004417 00        12214 	.data.b	0
                   12215 
                   12216 	.section	.debug_line
                   12217 .Ldw_line_end:
                   12218 	.section	.debug_macinfo
00000000 03        12219 	.data.b	3
00000001 00        12220 	.data.b	0
00000002 01        12221 	.data.b	1
00000003 01        12222 	.data.b	1
00000004 77        12223 	.data.b	119
00000005 52445f43  12224 	.data.b	67,95,68,82,86,95,73,78,84,69,82,78,65,76,32,0
00000009 4e495f56 
0000000d 4e524554 
00000011 00204c41 
00000015 01        12225 	.data.b	1

                                                                      Page 239
                                                              C:\Users\Fengyuan\AppData\Local\Temp\gh_0000sro1.s
00000016 79        12226 	.data.b	121
00000017 41435f5f  12227 	.data.b	95,95,67,65,78,95,83,82,67,95,95,32,0
0000001b 52535f4e 
0000001f 205f5f43 
00000023 00 
00000024 03        12228 	.data.b	3
00000025 0189      12229 	.data.b	137,1
00000027 02        12230 	.data.b	2
00000028 03        12231 	.data.b	3
00000029 2b        12232 	.data.b	43
0000002a 03        12233 	.data.b	3
0000002b 03        12234 	.data.b	3
0000002c 2e        12235 	.data.b	46
0000002d 04        12236 	.data.b	4
0000002e 03        12237 	.data.b	3
0000002f 03dd      12238 	.data.b	221,3
00000031 05        12239 	.data.b	5
00000032 03        12240 	.data.b	3
00000033 38        12241 	.data.b	56
00000034 06        12242 	.data.b	6
00000035 03        12243 	.data.b	3
00000036 4a        12244 	.data.b	74
00000037 07        12245 	.data.b	7
00000038 03        12246 	.data.b	3
00000039 3f        12247 	.data.b	63
0000003a 08        12248 	.data.b	8
0000003b 01        12249 	.data.b	1
0000003c 5a        12250 	.data.b	90
0000003d 5f555043  12251 	.data.b	67,80,85,95,84,89,80,69,95,56,32,56,117,0
00000041 45505954 
00000045 3820385f 
00000049 0075 
0000004b 01        12252 	.data.b	1
0000004c 5b        12253 	.data.b	91
0000004d 5f555043  12254 	.data.b	67,80,85,95,84,89,80,69,95,49,54,32,49,54,117,0
00000051 45505954 
00000055 2036315f 
00000059 00753631 
0000005d 01        12255 	.data.b	1
0000005e 5c        12256 	.data.b	92
0000005f 5f555043  12257 	.data.b	67,80,85,95,84,89,80,69,95,51,50,32,51,50,117,0
00000063 45505954 
00000067 2032335f 
0000006b 00753233 
0000006f 01        12258 	.data.b	1
00000070 5e        12259 	.data.b	94
00000071 5f42534d  12260 	.data.b	77,83,66,95,70,73,82,83,84,32,48,117,0
00000075 53524946 
00000079 75302054 
0000007d 00 
0000007e 01        12261 	.data.b	1
0000007f 5f        12262 	.data.b	95
00000080 5f42534c  12263 	.data.b	76,83,66,95,70,73,82,83,84,32,49,117,0
00000084 53524946 
00000088 75312054 
0000008c 00 
0000008d 01        12264 	.data.b	1
0000008e 61        12265 	.data.b	97
0000008f 48474948  12266 	.data.b	72,73,71,72,95,66,89,84,69,95,70,73,82,83,84,32,48,117,0
00000093 5459425f 
00000097 49465f45 

                                                                      Page 240
                                                              C:\Users\Fengyuan\AppData\Local\Temp\gh_0000sro1.s
0000009b 20545352 
0000009f 007530 
000000a2 01        12267 	.data.b	1
000000a3 62        12268 	.data.b	98
000000a4 5f574f4c  12269 	.data.b	76,79,87,95,66,89,84,69,95,70,73,82,83,84,32,49,117,0
000000a8 45545942 
000000ac 5249465f 
000000b0 31205453 
000000b4 0075 
000000b6 01        12270 	.data.b	1
000000b7 65        12271 	.data.b	101
000000b8 45555254  12272 	.data.b	84,82,85,69,32,49,117,0
000000bc 00753120 
000000c0 01        12273 	.data.b	1
000000c1 69        12274 	.data.b	105
000000c2 534c4146  12275 	.data.b	70,65,76,83,69,32,48,117,0
000000c6 75302045 
000000ca 00 
000000cb 01        12276 	.data.b	1
000000cc 6c        12277 	.data.b	108
000000cd 5f555043  12278 	.data.b	67,80,85,95,84,89,80,69,32,67,80,85,95,84,89,80,69,95,51,50,0
000000d1 45505954 
000000d5 55504320 
000000d9 5059545f 
000000dd 32335f45 
000000e1 00 
000000e2 01        12279 	.data.b	1
000000e3 6d        12280 	.data.b	109
000000e4 5f555043  12281 	.data.b	67,80,85,95,66,73,84,95,79,82,68,69,82,32,76,83,66,95,70,73,82,83,84,0
000000e8 5f544942 
000000ec 4544524f 
000000f0 534c2052 
000000f4 49465f42 
000000f8 00545352 
000000fc 01        12282 	.data.b	1
000000fd 6e        12283 	.data.b	110
000000fe 5f555043  12284 	.data.b	67,80,85,95,66,89,84,69,95,79,82,68,69,82,32,76,79,87,95,66,89,84,69,95,70,73,82,83,84,0
00000102 45545942 
00000106 44524f5f 
0000010a 4c205245 
0000010e 425f574f 
00000112 5f455459 
00000116 53524946 
0000011a 0054 
0000011c 04        12285 	.data.b	4
0000011d 03        12286 	.data.b	3
0000011e 40        12287 	.data.b	64
0000011f 09        12288 	.data.b	9
00000120 03        12289 	.data.b	3
00000121 3e        12290 	.data.b	62
00000122 0a        12291 	.data.b	10
00000123 03        12292 	.data.b	3
00000124 7f        12293 	.data.b	127
00000125 0b        12294 	.data.b	11
00000126 04        12295 	.data.b	4
00000127 03        12296 	.data.b	3
00000128 01d6      12297 	.data.b	214,1
0000012a 0c        12298 	.data.b	12
0000012b 04        12299 	.data.b	4
0000012c 03        12300 	.data.b	3
0000012d 01d7      12301 	.data.b	215,1

                                                                      Page 241
                                                              C:\Users\Fengyuan\AppData\Local\Temp\gh_0000sro1.s
0000012f 0d        12302 	.data.b	13
00000130 04        12303 	.data.b	4
00000131 03        12304 	.data.b	3
00000132 06c5      12305 	.data.b	197,6
00000134 0e        12306 	.data.b	14
00000135 04        12307 	.data.b	4
00000136 04        12308 	.data.b	4
00000137 01        12309 	.data.b	1
00000138 5b        12310 	.data.b	91
00000139 4f545541  12311 	.data.b	65,85,84,79,77,65,84,73,67,32,0
0000013d 4954414d 
00000141 002043 
00000144 01        12312 	.data.b	1
00000145 5e        12313 	.data.b	94
00000146 45505954  12314 	.data.b	84,89,80,69,68,69,70,32,0
0000014a 20464544 
0000014e 00 
0000014f 01        12315 	.data.b	1
00000150 63        12316 	.data.b	99
00000151 4c4c554e  12317 	.data.b	78,85,76,76,95,80,84,82,32,40,40,118,111,105,100,32,42,41,48,41,0
00000155 5254505f 
00000159 76282820 
0000015d 2064696f 
00000161 2930292a 
00000165 00 
00000166 01        12318 	.data.b	1
00000167 6f        12319 	.data.b	111
00000168 41434f4c  12320 	.data.b	76,79,67,65,76,95,73,78,76,73,78,69,32,115,116,97,116,105,99,32,105,110,108,105,110,101,0
0000016c 4e495f4c 
00000170 454e494c 
00000174 61747320 
00000178 20636974 
0000017c 696c6e69 
00000180 00656e 
00000183 01        12321 	.data.b	1
00000184 75        12322 	.data.b	117
00000185 434e5546  12323 	.data.b	70,85,78,67,40,114,101,116,116,121,112,101,44,109,101,109,99,108,97,115,115,41,32,114,101,116,116,121,112,101,0
00000189 74657228 
0000018d 65707974 
00000191 6d656d2c 
00000195 73616c63 
00000199 72202973 
0000019d 79747465 
000001a1 006570 
000001a4 01        12324 	.data.b	1
000001a5 7c        12325 	.data.b	124
000001a6 434e5546  12326 	.data.b	70,85,78,67,95,80,50,67,79,78,83,84,40,114,101,116,116,121,112,101,44,112,116,114,99,108,97,115,115,44,109,101,109,99,108,97,115,115,41,32,99,111,110,115,116,32,114,101,116,116,121,112,101,42,0
000001aa 4332505f 
000001ae 54534e4f 
000001b2 74657228 
000001b6 65707974 
000001ba 7274702c 
000001be 73616c63 
000001c2 656d2c73 
000001c6 616c636d 
000001ca 20297373 
000001ce 736e6f63 
000001d2 65722074 
000001d6 70797474 
000001da 002a65 
000001dd 01        12327 	.data.b	1

                                                                      Page 242
                                                              C:\Users\Fengyuan\AppData\Local\Temp\gh_0000sro1.s
000001de 018a      12328 	.data.b	138,1
000001e0 41563250  12329 	.data.b	80,50,86,65,82,40,112,116,114,116,121,112,101,44,109,101,109,99,108,97,115,115,44,112,116,114,99,108,97,115,115,41,32,112,116,114,116,121,112,101,42,0
000001e4 74702852 
000001e8 70797472 
000001ec 656d2c65 
000001f0 616c636d 
000001f4 702c7373 
000001f8 6c637274 
000001fc 29737361 
00000200 72747020 
00000204 65707974 
00000208 002a 
0000020a 01        12330 	.data.b	1
0000020b 0191      12331 	.data.b	145,1
0000020d 4f433250  12332 	.data.b	80,50,67,79,78,83,84,40,112,116,114,116,121,112,101,44,109,101,109,99,108,97,115,115,44,112,116,114,99,108,97,115,115,41,32,99,111,110,115,116,32,112,116,114,116,121,112,101,42,0
00000211 2854534e 
00000215 74727470 
00000219 2c657079 
0000021d 636d656d 
00000221 7373616c 
00000225 7274702c 
00000229 73616c63 
0000022d 63202973 
00000231 74736e6f 
00000235 72747020 
00000239 65707974 
0000023d 002a 
0000023f 01        12333 	.data.b	1
00000240 019f      12334 	.data.b	159,1
00000242 534e4f43  12335 	.data.b	67,79,78,83,84,80,50,67,79,78,83,84,40,112,116,114,116,121,112,101,44,109,101,109,99,108,97,115,115,44,112,116,114,99,108,97,115,115,41,32,99,111,110,115,116,32,112,116,114,116,121,112,101,42,32,99,111,110,115,116
00000246 43325054 
0000024a 54534e4f 
0000024e 72747028 
00000252 65707974 
00000256 6d656d2c 
0000025a 73616c63 
0000025e 74702c73 
00000262 616c6372 
00000266 20297373 
0000026a 736e6f63 
0000026e 74702074 
00000272 70797472 
00000276 63202a65 
0000027a 74736e6f 
0000027e 00        12336 	.data.b	0
0000027f 01        12337 	.data.b	1
00000280 01a6      12338 	.data.b	166,1
00000282 55463250  12339 	.data.b	80,50,70,85,78,67,40,114,101,116,116,121,112,101,44,112,116,114,99,108,97,115,115,44,102,99,116,110,97,109,101,41,32,114,101,116,116,121,112,101,32,40,42,32,102,99,116,110,97,109,101,41,0
00000286 7228434e 
0000028a 79747465 
0000028e 702c6570 
00000292 6c637274 
00000296 2c737361 
0000029a 6e746366 
0000029e 29656d61 
000002a2 74657220 
000002a6 65707974 
000002aa 202a2820 
000002ae 6e746366 
000002b2 29656d61 
000002b6 00 

                                                                      Page 243
                                                              C:\Users\Fengyuan\AppData\Local\Temp\gh_0000sro1.s
000002b7 01        12340 	.data.b	1
000002b8 01b6      12341 	.data.b	182,1
000002ba 534e4f43  12342 	.data.b	67,79,78,83,84,40,116,121,112,101,44,109,101,109,99,108,97,115,115,41,32,99,111,110,115,116,32,116,121,112,101,0
000002be 79742854 
000002c2 6d2c6570 
000002c6 6c636d65 
000002ca 29737361 
000002ce 6e6f6320 
000002d2 74207473 
000002d6 00657079 
000002da 01        12343 	.data.b	1
000002db 01bc      12344 	.data.b	188,1
000002dd 28524156  12345 	.data.b	86,65,82,40,118,97,114,116,121,112,101,44,109,101,109,99,108,97,115,115,41,32,118,97,114,116,121,112,101,0
000002e1 74726176 
000002e5 2c657079 
000002e9 636d656d 
000002ed 7373616c 
000002f1 61762029 
000002f5 70797472 
000002f9 0065 
000002fb 04        12346 	.data.b	4
000002fc 01        12347 	.data.b	1
000002fd 6d        12348 	.data.b	109
000002fe 5f445453  12349 	.data.b	83,84,68,95,79,78,32,49,117,0
00000302 31204e4f 
00000306 0075 
00000308 01        12350 	.data.b	1
00000309 6e        12351 	.data.b	110
0000030a 5f445453  12352 	.data.b	83,84,68,95,79,70,70,32,48,117,0
0000030e 2046464f 
00000312 007530 
00000315 01        12353 	.data.b	1
00000316 7c        12354 	.data.b	124
00000317 4b4f5f45  12355 	.data.b	69,95,79,75,32,48,117,0
0000031b 00753020 
0000031f 01        12356 	.data.b	1
00000320 0180      12357 	.data.b	128,1
00000322 4f4e5f45  12358 	.data.b	69,95,78,79,84,95,79,75,32,49,117,0
00000326 4b4f5f54 
0000032a 00753120 
0000032e 04        12359 	.data.b	4
0000032f 03        12360 	.data.b	3
00000330 4c        12361 	.data.b	76
00000331 0f        12362 	.data.b	15
00000332 04        12363 	.data.b	4
00000333 01        12364 	.data.b	1
00000334 5a        12365 	.data.b	90
00000335 534d4f43  12366 	.data.b	67,79,77,83,84,65,67,75,84,89,80,69,95,65,82,95,82,69,76,69,65,83,69,95,82,69,86,73,83,73,79,78,95,86,69,82,83,73,79,78,32,40,51,117,41,0
00000339 4b434154 
0000033d 45505954 
00000341 5f52415f 
00000345 454c4552 
00000349 5f455341 
0000034d 49564552 
00000351 4e4f4953 
00000355 5245565f 
00000359 4e4f4953 
0000035d 75332820 
00000361 0029 
00000363 04        12367 	.data.b	4
00000364 03        12368 	.data.b	3

                                                                      Page 244
                                                              C:\Users\Fengyuan\AppData\Local\Temp\gh_0000sro1.s
00000365 3a        12369 	.data.b	58
00000366 10        12370 	.data.b	16
00000367 03        12371 	.data.b	3
00000368 48        12372 	.data.b	72
00000369 11        12373 	.data.b	17
0000036a 04        12374 	.data.b	4
0000036b 03        12375 	.data.b	3
0000036c 4c        12376 	.data.b	76
0000036d 12        12377 	.data.b	18
0000036e 04        12378 	.data.b	4
0000036f 04        12379 	.data.b	4
00000370 03        12380 	.data.b	3
00000371 3d        12381 	.data.b	61
00000372 13        12382 	.data.b	19
00000373 01        12383 	.data.b	1
00000374 02ff      12384 	.data.b	255,2
00000376 485f534f  12385 	.data.b	79,83,95,72,32,0
0000037a 0020 
0000037c 03        12386 	.data.b	3
0000037d 0388      12387 	.data.b	136,3
0000037f 14        12388 	.data.b	20
00000380 03        12389 	.data.b	3
00000381 27        12390 	.data.b	39
00000382 15        12391 	.data.b	21
00000383 01        12392 	.data.b	1
00000384 21        12393 	.data.b	33
00000385 4c5f534f  12394 	.data.b	79,83,95,76,67,70,71,95,72,32,0
00000389 5f474643 
0000038d 002048 
00000390 03        12395 	.data.b	3
00000391 2b        12396 	.data.b	43
00000392 16        12397 	.data.b	22
00000393 01        12398 	.data.b	1
00000394 21        12399 	.data.b	33
00000395 435f534f  12400 	.data.b	79,83,95,67,70,71,95,72,32,0
00000399 485f4746 
0000039d 0020 
0000039f 03        12401 	.data.b	3
000003a0 2e        12402 	.data.b	46
000003a1 17        12403 	.data.b	23
000003a2 01        12404 	.data.b	1
000003a3 56        12405 	.data.b	86
000003a4 545f534f  12406 	.data.b	79,83,95,84,73,67,75,83,50,77,83,95,83,121,115,116,101,109,84,105,109,101,114,40,120,41,32,40,32,40,80,104,121,115,105,99,97,108,84,105,109,101,84,121,112,101,41,32,40,40,40,40,40,117,105,110,116,51,50,41
000003a8 534b4349 
000003ac 5f534d32 
000003b0 74737953 
000003b4 69546d65 
000003b8 2872656d 
000003bc 28202978 
000003c0 68502820 
000003c4 63697379 
000003c8 69546c61 
000003cc 7954656d 
000003d0 20296570 
000003d4 28282828 
000003d8 6e697528 
000003dc 29323374 
000003e0 29297828  12407 	.data.b	40,120,41,41,32,42,32,49,41,32,43,32,48,41,32,47,32,49,41,32,41,0
000003e4 31202a20 
000003e8 202b2029 
000003ec 2f202930 

                                                                      Page 245
                                                              C:\Users\Fengyuan\AppData\Local\Temp\gh_0000sro1.s
000003f0 20293120 
000003f4 0029 
000003f6 04        12408 	.data.b	4
000003f7 01        12409 	.data.b	1
000003f8 4e        12410 	.data.b	78
000003f9 435f534f  12411 	.data.b	79,83,95,67,70,71,95,80,82,69,84,65,83,75,72,79,79,75,32,40,83,84,68,95,79,70,70,41,0
000003fd 505f4746 
00000401 41544552 
00000405 4f484b53 
00000409 28204b4f 
0000040d 5f445453 
00000411 2946464f 
00000415 00 
00000416 01        12412 	.data.b	1
00000417 51        12413 	.data.b	81
00000418 435f534f  12414 	.data.b	79,83,95,67,70,71,95,80,79,83,84,84,65,83,75,72,79,79,75,32,40,83,84,68,95,79,70,70,41,0
0000041c 505f4746 
00000420 5454534f 
00000424 484b5341 
00000428 204b4f4f 
0000042c 44545328 
00000430 46464f5f 
00000434 0029 
00000436 01        12415 	.data.b	1
00000437 54        12416 	.data.b	84
00000438 435f534f  12417 	.data.b	79,83,95,67,70,71,95,80,65,78,73,67,72,79,79,75,32,40,83,84,68,95,79,78,41,0
0000043c 505f4746 
00000440 43494e41 
00000444 4b4f4f48 
00000448 54532820 
0000044c 4e4f5f44 
00000450 0029 
00000452 01        12418 	.data.b	1
00000453 57        12419 	.data.b	87
00000454 435f534f  12420 	.data.b	79,83,95,67,70,71,95,83,84,65,82,84,85,80,72,79,79,75,95,83,89,83,84,69,77,32,40,83,84,68,95,79,70,70,41,0
00000458 535f4746 
0000045c 54524154 
00000460 4f485055 
00000464 535f4b4f 
00000468 45545359 
0000046c 5328204d 
00000470 4f5f4454 
00000474 00294646 
00000478 01        12421 	.data.b	1
00000479 5a        12422 	.data.b	90
0000047a 435f534f  12423 	.data.b	79,83,95,67,70,71,95,83,72,85,84,68,79,87,78,72,79,79,75,95,83,89,83,84,69,77,32,40,83,84,68,95,79,70,70,41,0
0000047e 535f4746 
00000482 44545548 
00000486 484e574f 
0000048a 5f4b4f4f 
0000048e 54535953 
00000492 28204d45 
00000496 5f445453 
0000049a 2946464f 
0000049e 00 
0000049f 01        12424 	.data.b	1
000004a0 5d        12425 	.data.b	93
000004a1 435f534f  12426 	.data.b	79,83,95,67,70,71,95,69,82,82,79,82,72,79,79,75,95,83,89,83,84,69,77,32,40,83,84,68,95,79,78,41,0
000004a5 455f4746 
000004a9 524f5252 
000004ad 4b4f4f48 

                                                                      Page 246
                                                              C:\Users\Fengyuan\AppData\Local\Temp\gh_0000sro1.s
000004b1 5359535f 
000004b5 204d4554 
000004b9 44545328 
000004bd 294e4f5f 
000004c1 00 
000004c2 01        12427 	.data.b	1
000004c3 60        12428 	.data.b	96
000004c4 435f534f  12429 	.data.b	79,83,95,67,70,71,95,80,82,79,84,69,67,84,73,79,78,72,79,79,75,95,83,89,83,84,69,77,32,40,83,84,68,95,79,70,70,41,0
000004c8 505f4746 
000004cc 45544f52 
000004d0 4f495443 
000004d4 4f4f484e 
000004d8 59535f4b 
000004dc 4d455453 
000004e0 54532820 
000004e4 464f5f44 
000004e8 002946 
000004eb 01        12430 	.data.b	1
000004ec 63        12431 	.data.b	99
000004ed 435f534f  12432 	.data.b	79,83,95,67,70,71,95,80,69,82,73,80,72,69,82,65,76,95,67,79,77,80,65,84,73,66,73,76,73,84,89,32,40,83,84,68,95,79,70,70,41,0
000004f1 505f4746 
000004f5 50495245 
000004f9 41524548 
000004fd 4f435f4c 
00000501 5441504d 
00000505 4c494249 
00000509 20595449 
0000050d 44545328 
00000511 46464f5f 
00000515 0029 
00000517 04        12433 	.data.b	4
00000518 03        12434 	.data.b	3
00000519 2c        12435 	.data.b	44
0000051a 18        12436 	.data.b	24
0000051b 03        12437 	.data.b	3
0000051c 27        12438 	.data.b	39
0000051d 19        12439 	.data.b	25
0000051e 01        12440 	.data.b	1
0000051f 21        12441 	.data.b	33
00000520 545f534f  12442 	.data.b	79,83,95,84,89,80,69,83,95,76,67,70,71,95,72,32,0
00000524 53455059 
00000528 46434c5f 
0000052c 20485f47 
00000530 00 
00000531 01        12443 	.data.b	1
00000532 35        12444 	.data.b	53
00000533 74737953  12445 	.data.b	83,121,115,116,101,109,65,112,112,108,105,99,97,116,105,111,110,95,79,115,67,111,114,101,48,32,83,121,115,116,101,109,65,112,112,108,105,99,97,116,105,111,110,95,79,115,67,111,114,101,48,0
00000537 70416d65 
0000053b 63696c70 
0000053f 6f697461 
00000543 734f5f6e 
00000547 65726f43 
0000054b 79532030 
0000054f 6d657473 
00000553 6c707041 
00000557 74616369 
0000055b 5f6e6f69 
0000055f 6f43734f 
00000563 00306572 
00000567 01        12446 	.data.b	1
00000568 3e        12447 	.data.b	62

                                                                      Page 247
                                                              C:\Users\Fengyuan\AppData\Local\Temp\gh_0000sro1.s
00000569 61666544  12448 	.data.b	68,101,102,97,117,108,116,95,73,110,105,116,95,84,97,115,107,32,68,101,102,97,117,108,116,95,73,110,105,116,95,84,97,115,107,0
0000056d 5f746c75 
00000571 74696e49 
00000575 7361545f 
00000579 6544206b 
0000057d 6c756166 
00000581 6e495f74 
00000585 545f7469 
00000589 006b7361 
0000058d 01        12449 	.data.b	1
0000058e 3f        12450 	.data.b	63
0000058f 656c6449  12451 	.data.b	73,100,108,101,84,97,115,107,95,79,115,67,111,114,101,48,32,73,100,108,101,84,97,115,107,95,79,115,67,111,114,101,48,0
00000593 6b736154 
00000597 43734f5f 
0000059b 3065726f 
0000059f 6c644920 
000005a3 73615465 
000005a7 734f5f6b 
000005ab 65726f43 
000005af 0030 
000005b1 01        12452 	.data.b	1
000005b2 40        12453 	.data.b	64
000005b3 6154734f  12454 	.data.b	79,115,84,97,115,107,95,65,80,80,32,79,115,84,97,115,107,95,65,80,80,0
000005b7 415f6b73 
000005bb 4f205050 
000005bf 73615473 
000005c3 50415f6b 
000005c7 0050 
000005c9 01        12455 	.data.b	1
000005ca 41        12456 	.data.b	65
000005cb 6154734f  12457 	.data.b	79,115,84,97,115,107,95,66,83,87,95,83,67,72,77,32,79,115,84,97,115,107,95,66,83,87,95,83,67,72,77,0
000005cf 425f6b73 
000005d3 535f5753 
000005d7 204d4843 
000005db 6154734f 
000005df 425f6b73 
000005e3 535f5753 
000005e7 004d4843 
000005eb 01        12458 	.data.b	1
000005ec 44        12459 	.data.b	68
000005ed 496e6143  12460 	.data.b	67,97,110,73,115,114,95,48,95,66,117,115,79,102,102,32,67,97,110,73,115,114,95,48,95,66,117,115,79,102,102,0
000005f1 305f7273 
000005f5 7375425f 
000005f9 2066664f 
000005fd 496e6143 
00000601 305f7273 
00000605 7375425f 
00000609 0066664f 
0000060d 01        12461 	.data.b	1
0000060e 45        12462 	.data.b	69
0000060f 496e6143  12463 	.data.b	67,97,110,73,115,114,95,48,95,77,66,48,48,84,111,49,53,32,67,97,110,73,115,114,95,48,95,77,66,48,48,84,111,49,53,0
00000613 305f7273 
00000617 30424d5f 
0000061b 316f5430 
0000061f 61432035 
00000623 7273496e 
00000627 4d5f305f 
0000062b 54303042 
0000062f 0035316f 
00000633 01        12464 	.data.b	1
00000634 46        12465 	.data.b	70

                                                                      Page 248
                                                              C:\Users\Fengyuan\AppData\Local\Temp\gh_0000sro1.s
00000635 496e6143  12466 	.data.b	67,97,110,73,115,114,95,48,95,77,66,49,54,84,111,51,49,32,67,97,110,73,115,114,95,48,95,77,66,49,54,84,111,51,49,0
00000639 305f7273 
0000063d 31424d5f 
00000641 336f5436 
00000645 61432031 
00000649 7273496e 
0000064d 4d5f305f 
00000651 54363142 
00000655 0031336f 
00000659 01        12467 	.data.b	1
0000065a 47        12468 	.data.b	71
0000065b 6e756f43  12469 	.data.b	67,111,117,110,116,101,114,73,115,114,95,83,121,115,116,101,109,84,105,109,101,114,32,67,111,117,110,116,101,114,73,115,114,95,83,121,115,116,101,109,84,105,109,101,114,0
0000065f 49726574 
00000663 535f7273 
00000667 65747379 
0000066b 6d69546d 
0000066f 43207265 
00000673 746e756f 
00000677 73497265 
0000067b 79535f72 
0000067f 6d657473 
00000683 656d6954 
00000687 0072 
00000689 01        12470 	.data.b	1
0000068a 4a        12471 	.data.b	74
0000068b 5f657452  12472 	.data.b	82,116,101,95,65,108,95,84,69,50,95,79,115,84,97,115,107,95,66,83,87,95,83,67,72,77,95,48,95,49,48,109,115,32,82,116,101,95,65,108,95,84,69,50,95,79,115,84,97,115,107,95,66,83,87,95,83,67,72,77
0000068f 545f6c41 
00000693 4f5f3245 
00000697 73615473 
0000069b 53425f6b 
0000069f 43535f57 
000006a3 305f4d48 
000006a7 6d30315f 
000006ab 74522073 
000006af 6c415f65 
000006b3 3245545f 
000006b7 54734f5f 
000006bb 5f6b7361 
000006bf 5f575342 
000006c3 4d484353 
000006c7 315f305f  12473 	.data.b	95,48,95,49,48,109,115,0
000006cb 00736d30 
000006cf 01        12474 	.data.b	1
000006d0 4b        12475 	.data.b	75
000006d1 5f657452  12476 	.data.b	82,116,101,95,65,108,95,84,69,50,95,79,115,84,97,115,107,95,66,83,87,95,83,67,72,77,95,48,95,50,48,109,115,32,82,116,101,95,65,108,95,84,69,50,95,79,115,84,97,115,107,95,66,83,87,95,83,67,72,77
000006d5 545f6c41 
000006d9 4f5f3245 
000006dd 73615473 
000006e1 53425f6b 
000006e5 43535f57 
000006e9 305f4d48 
000006ed 6d30325f 
000006f1 74522073 
000006f5 6c415f65 
000006f9 3245545f 
000006fd 54734f5f 
00000701 5f6b7361 
00000705 5f575342 
00000709 4d484353 
0000070d 325f305f  12477 	.data.b	95,48,95,50,48,109,115,0
00000711 00736d30 

                                                                      Page 249
                                                              C:\Users\Fengyuan\AppData\Local\Temp\gh_0000sro1.s
00000715 01        12478 	.data.b	1
00000716 4c        12479 	.data.b	76
00000717 5f657452  12480 	.data.b	82,116,101,95,65,108,95,84,69,95,67,97,110,84,112,95,67,97,110,84,112,95,77,97,105,110,70,117,110,99,116,105,111,110,32,82,116,101,95,65,108,95,84,69,95,67,97,110,84,112,95,67,97,110,84,112,95,77,97,105
0000071b 545f6c41 
0000071f 61435f45 
00000723 5f70546e 
00000727 546e6143 
0000072b 614d5f70 
0000072f 75466e69 
00000733 6974636e 
00000737 52206e6f 
0000073b 415f6574 
0000073f 45545f6c 
00000743 6e61435f 
00000747 435f7054 
0000074b 70546e61 
0000074f 69614d5f 
00000753 6e75466e  12481 	.data.b	110,70,117,110,99,116,105,111,110,0
00000757 6f697463 
0000075b 006e 
0000075d 01        12482 	.data.b	1
0000075e 4d        12483 	.data.b	77
0000075f 5f657452  12484 	.data.b	82,116,101,95,65,108,95,84,69,95,67,100,100,95,83,66,67,95,85,74,65,49,49,54,57,95,83,98,99,95,84,101,115,116,95,82,117,110,110,97,98,108,101,32,82,116,101,95,65,108,95,84,69,95,67,100,100,95,83,66
00000763 545f6c41 
00000767 64435f45 
0000076b 42535f64 
0000076f 4a555f43 
00000773 36313141 
00000777 62535f39 
0000077b 65545f63 
0000077f 525f7473 
00000783 616e6e75 
00000787 20656c62 
0000078b 5f657452 
0000078f 545f6c41 
00000793 64435f45 
00000797 42535f64 
0000079b 4a555f43  12485 	.data.b	67,95,85,74,65,49,49,54,57,95,83,98,99,95,84,101,115,116,95,82,117,110,110,97,98,108,101,0
0000079f 36313141 
000007a3 62535f39 
000007a7 65545f63 
000007ab 525f7473 
000007af 616e6e75 
000007b3 00656c62 
000007b7 01        12486 	.data.b	1
000007b8 4e        12487 	.data.b	78
000007b9 5f657452  12488 	.data.b	82,116,101,95,65,108,95,84,69,95,67,112,76,101,100,84,97,115,107,95,76,101,100,82,117,110,110,97,98,108,101,32,82,116,101,95,65,108,95,84,69,95,67,112,76,101,100,84,97,115,107,95,76,101,100,82,117,110,110,97
000007bd 545f6c41 
000007c1 70435f45 
000007c5 5464654c 
000007c9 5f6b7361 
000007cd 5264654c 
000007d1 616e6e75 
000007d5 20656c62 
000007d9 5f657452 
000007dd 545f6c41 
000007e1 70435f45 
000007e5 5464654c 
000007e9 5f6b7361 
000007ed 5264654c 
000007f1 616e6e75 

                                                                      Page 250
                                                              C:\Users\Fengyuan\AppData\Local\Temp\gh_0000sro1.s
000007f5 00656c62  12489 	.data.b	98,108,101,0
000007f9 01        12490 	.data.b	1
000007fa 51        12491 	.data.b	81
000007fb 74737953  12492 	.data.b	83,121,115,116,101,109,84,105,109,101,114,32,83,121,115,116,101,109,84,105,109,101,114,0
000007ff 69546d65 
00000803 2072656d 
00000807 74737953 
0000080b 69546d65 
0000080f 0072656d 
00000813 01        12493 	.data.b	1
00000814 56        12494 	.data.b	86
00000815 6552734f  12495 	.data.b	79,115,82,101,115,111,117,114,99,101,32,79,115,82,101,115,111,117,114,99,101,0
00000819 72756f73 
0000081d 4f206563 
00000821 73655273 
00000825 6372756f 
00000829 0065 
0000082b 04        12496 	.data.b	4
0000082c 03        12497 	.data.b	3
0000082d 2b        12498 	.data.b	43
0000082e 1a        12499 	.data.b	26
0000082f 01        12500 	.data.b	1
00000830 1c        12501 	.data.b	28
00000831 485f534f  12502 	.data.b	79,83,95,72,65,76,95,79,83,95,84,89,80,69,83,95,72,32,0
00000835 4f5f4c41 
00000839 59545f53 
0000083d 5f534550 
00000841 002048 
00000844 04        12503 	.data.b	4
00000845 01        12504 	.data.b	1
00000846 33        12505 	.data.b	51
00000847 534f5f45  12506 	.data.b	69,95,79,83,95,65,67,67,69,83,83,32,40,40,83,116,97,116,117,115,84,121,112,101,41,48,120,48,49,41,0
0000084b 4343415f 
0000084f 20535345 
00000853 74532828 
00000857 73757461 
0000085b 65707954 
0000085f 30783029 
00000863 002931 
00000866 01        12507 	.data.b	1
00000867 35        12508 	.data.b	53
00000868 534f5f45  12509 	.data.b	69,95,79,83,95,67,65,76,76,69,86,69,76,32,40,40,83,116,97,116,117,115,84,121,112,101,41,48,120,48,50,41,0
0000086c 4c41435f 
00000870 4556454c 
00000874 2828204c 
00000878 74617453 
0000087c 79547375 
00000880 30296570 
00000884 29323078 
00000888 00 
00000889 01        12510 	.data.b	1
0000088a 37        12511 	.data.b	55
0000088b 534f5f45  12512 	.data.b	69,95,79,83,95,73,68,32,40,40,83,116,97,116,117,115,84,121,112,101,41,48,120,48,51,41,0
0000088f 2044495f 
00000893 74532828 
00000897 73757461 
0000089b 65707954 
0000089f 30783029 
000008a3 002933 
000008a6 01        12513 	.data.b	1
000008a7 39        12514 	.data.b	57

                                                                      Page 251
                                                              C:\Users\Fengyuan\AppData\Local\Temp\gh_0000sro1.s
000008a8 534f5f45  12515 	.data.b	69,95,79,83,95,76,73,77,73,84,32,40,40,83,116,97,116,117,115,84,121,112,101,41,48,120,48,52,41,0
000008ac 4d494c5f 
000008b0 28205449 
000008b4 61745328 
000008b8 54737574 
000008bc 29657079 
000008c0 34307830 
000008c4 0029 
000008c6 01        12516 	.data.b	1
000008c7 3b        12517 	.data.b	59
000008c8 534f5f45  12518 	.data.b	69,95,79,83,95,78,79,70,85,78,67,32,40,40,83,116,97,116,117,115,84,121,112,101,41,48,120,48,53,41,0
000008cc 464f4e5f 
000008d0 20434e55 
000008d4 74532828 
000008d8 73757461 
000008dc 65707954 
000008e0 30783029 
000008e4 002935 
000008e7 01        12519 	.data.b	1
000008e8 3d        12520 	.data.b	61
000008e9 534f5f45  12521 	.data.b	69,95,79,83,95,82,69,83,79,85,82,67,69,32,40,40,83,116,97,116,117,115,84,121,112,101,41,48,120,48,54,41,0
000008ed 5345525f 
000008f1 4352554f 
000008f5 28282045 
000008f9 74617453 
000008fd 79547375 
00000901 30296570 
00000905 29363078 
00000909 00 
0000090a 01        12522 	.data.b	1
0000090b 3f        12523 	.data.b	63
0000090c 534f5f45  12524 	.data.b	69,95,79,83,95,83,84,65,84,69,32,40,40,83,116,97,116,117,115,84,121,112,101,41,48,120,48,55,41,0
00000910 4154535f 
00000914 28204554 
00000918 61745328 
0000091c 54737574 
00000920 29657079 
00000924 37307830 
00000928 0029 
0000092a 01        12525 	.data.b	1
0000092b 41        12526 	.data.b	65
0000092c 534f5f45  12527 	.data.b	69,95,79,83,95,86,65,76,85,69,32,40,40,83,116,97,116,117,115,84,121,112,101,41,48,120,48,56,41,0
00000930 4c41565f 
00000934 28204555 
00000938 61745328 
0000093c 54737574 
00000940 29657079 
00000944 38307830 
00000948 0029 
0000094a 01        12528 	.data.b	1
0000094b 45        12529 	.data.b	69
0000094c 534f5f45  12530 	.data.b	69,95,79,83,95,83,69,82,86,73,67,69,73,68,32,40,40,83,116,97,116,117,115,84,121,112,101,41,48,120,48,57,41,0
00000950 5245535f 
00000954 45434956 
00000958 28204449 
0000095c 61745328 
00000960 54737574 
00000964 29657079 
00000968 39307830 
0000096c 0029 
0000096e 01        12531 	.data.b	1

                                                                      Page 252
                                                              C:\Users\Fengyuan\AppData\Local\Temp\gh_0000sro1.s
0000096f 49        12532 	.data.b	73
00000970 534f5f45  12533 	.data.b	69,95,79,83,95,73,76,76,69,71,65,76,95,65,68,68,82,69,83,83,32,40,40,83,116,97,116,117,115,84,121,112,101,41,48,120,48,65,41,0
00000974 4c4c495f 
00000978 4c414745 
0000097c 4444415f 
00000980 53534552 
00000984 53282820 
00000988 75746174 
0000098c 70795473 
00000990 78302965 
00000994 00294130 
00000998 01        12534 	.data.b	1
00000999 4b        12535 	.data.b	75
0000099a 534f5f45  12536 	.data.b	69,95,79,83,95,77,73,83,83,73,78,71,69,78,68,32,40,40,83,116,97,116,117,115,84,121,112,101,41,48,120,48,66,41,0
0000099e 53494d5f 
000009a2 474e4953 
000009a6 20444e45 
000009aa 74532828 
000009ae 73757461 
000009b2 65707954 
000009b6 30783029 
000009ba 002942 
000009bd 01        12537 	.data.b	1
000009be 4d        12538 	.data.b	77
000009bf 534f5f45  12539 	.data.b	69,95,79,83,95,68,73,83,65,66,76,69,68,73,78,84,32,40,40,83,116,97,116,117,115,84,121,112,101,41,48,120,48,67,41,0
000009c3 5349445f 
000009c7 454c4241 
000009cb 544e4944 
000009cf 53282820 
000009d3 75746174 
000009d7 70795473 
000009db 78302965 
000009df 00294330 
000009e3 01        12540 	.data.b	1
000009e4 4f        12541 	.data.b	79
000009e5 534f5f45  12542 	.data.b	69,95,79,83,95,83,84,65,67,75,70,65,85,76,84,32,40,40,83,116,97,116,117,115,84,121,112,101,41,48,120,48,68,41,0
000009e9 4154535f 
000009ed 41464b43 
000009f1 20544c55 
000009f5 74532828 
000009f9 73757461 
000009fd 65707954 
00000a01 30783029 
00000a05 002944 
00000a08 01        12543 	.data.b	1
00000a09 51        12544 	.data.b	81
00000a0a 534f5f45  12545 	.data.b	69,95,79,83,95,80,82,79,84,69,67,84,73,79,78,95,77,69,77,79,82,89,32,40,40,83,116,97,116,117,115,84,121,112,101,41,48,120,48,69,41,0
00000a0e 4f52505f 
00000a12 54434554 
00000a16 5f4e4f49 
00000a1a 4f4d454d 
00000a1e 28205952 
00000a22 61745328 
00000a26 54737574 
00000a2a 29657079 
00000a2e 45307830 
00000a32 0029 
00000a34 01        12546 	.data.b	1
00000a35 53        12547 	.data.b	83
00000a36 534f5f45  12548 	.data.b	69,95,79,83,95,80,82,79,84,69,67,84,73,79,78,95,84,73,77,69,32,40,40,83,116,97,116,117,115,84,121,112,101,41,48,120,48,70,41,0
00000a3a 4f52505f 

                                                                      Page 253
                                                              C:\Users\Fengyuan\AppData\Local\Temp\gh_0000sro1.s
00000a3e 54434554 
00000a42 5f4e4f49 
00000a46 454d4954 
00000a4a 53282820 
00000a4e 75746174 
00000a52 70795473 
00000a56 78302965 
00000a5a 00294630 
00000a5e 01        12549 	.data.b	1
00000a5f 55        12550 	.data.b	85
00000a60 534f5f45  12551 	.data.b	69,95,79,83,95,80,82,79,84,69,67,84,73,79,78,95,65,82,82,73,86,65,76,32,40,40,83,116,97,116,117,115,84,121,112,101,41,48,120,49,48,41,0
00000a64 4f52505f 
00000a68 54434554 
00000a6c 5f4e4f49 
00000a70 49525241 
00000a74 204c4156 
00000a78 74532828 
00000a7c 73757461 
00000a80 65707954 
00000a84 31783029 
00000a88 002930 
00000a8b 01        12552 	.data.b	1
00000a8c 57        12553 	.data.b	87
00000a8d 534f5f45  12554 	.data.b	69,95,79,83,95,80,82,79,84,69,67,84,73,79,78,95,76,79,67,75,69,68,32,40,40,83,116,97,116,117,115,84,121,112,101,41,48,120,49,49,41,0
00000a91 4f52505f 
00000a95 54434554 
00000a99 5f4e4f49 
00000a9d 4b434f4c 
00000aa1 28204445 
00000aa5 61745328 
00000aa9 54737574 
00000aad 29657079 
00000ab1 31317830 
00000ab5 0029 
00000ab7 01        12555 	.data.b	1
00000ab8 59        12556 	.data.b	89
00000ab9 534f5f45  12557 	.data.b	69,95,79,83,95,80,82,79,84,69,67,84,73,79,78,95,69,88,67,69,80,84,73,79,78,32,40,40,83,116,97,116,117,115,84,121,112,101,41,48,120,49,50,41,0
00000abd 4f52505f 
00000ac1 54434554 
00000ac5 5f4e4f49 
00000ac9 45435845 
00000acd 4f495450 
00000ad1 2828204e 
00000ad5 74617453 
00000ad9 79547375 
00000add 30296570 
00000ae1 29323178 
00000ae5 00 
00000ae6 01        12558 	.data.b	1
00000ae7 5b        12559 	.data.b	91
00000ae8 534f5f45  12560 	.data.b	69,95,79,83,95,73,78,84,69,82,70,69,82,69,78,67,69,95,68,69,65,68,76,79,67,75,32,40,40,83,116,97,116,117,115,84,121,112,101,41,48,120,49,51,41,0
00000aec 544e495f 
00000af0 45465245 
00000af4 434e4552 
00000af8 45445f45 
00000afc 4f4c4441 
00000b00 28204b43 
00000b04 61745328 
00000b08 54737574 
00000b0c 29657079 
00000b10 33317830 

                                                                      Page 254
                                                              C:\Users\Fengyuan\AppData\Local\Temp\gh_0000sro1.s
00000b14 0029 
00000b16 01        12561 	.data.b	1
00000b17 5d        12562 	.data.b	93
00000b18 534f5f45  12563 	.data.b	69,95,79,83,95,78,69,83,84,73,78,71,95,68,69,65,68,76,79,67,75,32,40,40,83,116,97,116,117,115,84,121,112,101,41,48,120,49,52,41,0
00000b1c 53454e5f 
00000b20 474e4954 
00000b24 4145445f 
00000b28 434f4c44 
00000b2c 2828204b 
00000b30 74617453 
00000b34 79547375 
00000b38 30296570 
00000b3c 29343178 
00000b40 00 
00000b41 01        12564 	.data.b	1
00000b42 5f        12565 	.data.b	95
00000b43 534f5f45  12566 	.data.b	69,95,79,83,95,83,80,73,78,76,79,67,75,32,40,40,83,116,97,116,117,115,84,121,112,101,41,48,120,49,53,41,0
00000b47 4950535f 
00000b4b 434f4c4e 
00000b4f 2828204b 
00000b53 74617453 
00000b57 79547375 
00000b5b 30296570 
00000b5f 29353178 
00000b63 00 
00000b64 01        12567 	.data.b	1
00000b65 61        12568 	.data.b	97
00000b66 534f5f45  12569 	.data.b	69,95,79,83,95,67,79,82,69,32,40,40,83,116,97,116,117,115,84,121,112,101,41,48,120,49,54,41,0
00000b6a 524f435f 
00000b6e 28282045 
00000b72 74617453 
00000b76 79547375 
00000b7a 30296570 
00000b7e 29363178 
00000b82 00 
00000b83 01        12570 	.data.b	1
00000b84 63        12571 	.data.b	99
00000b85 534f5f45  12572 	.data.b	69,95,79,83,95,80,65,82,65,77,95,80,79,73,78,84,69,82,32,40,40,83,116,97,116,117,115,84,121,112,101,41,48,120,49,55,41,0
00000b89 5241505f 
00000b8d 505f4d41 
00000b91 544e494f 
00000b95 28205245 
00000b99 61745328 
00000b9d 54737574 
00000ba1 29657079 
00000ba5 37317830 
00000ba9 0029 
00000bab 01        12573 	.data.b	1
00000bac 67        12574 	.data.b	103
00000bad 534f5f45  12575 	.data.b	69,95,79,83,95,83,89,83,95,78,79,95,66,65,82,82,73,69,82,95,80,65,82,84,73,67,73,80,65,78,84,32,40,40,83,116,97,116,117,115,84,121,112,101,41,48,120,70,50,41,0
00000bb1 5359535f 
00000bb5 5f4f4e5f 
00000bb9 52524142 
00000bbd 5f524549 
00000bc1 54524150 
00000bc5 50494349 
00000bc9 20544e41 
00000bcd 74532828 
00000bd1 73757461 
00000bd5 65707954 
00000bd9 46783029 

                                                                      Page 255
                                                              C:\Users\Fengyuan\AppData\Local\Temp\gh_0000sro1.s
00000bdd 002932 
00000be0 01        12576 	.data.b	1
00000be1 6a        12577 	.data.b	106
00000be2 534f5f45  12578 	.data.b	69,95,79,83,95,83,89,83,95,85,78,73,77,80,76,69,77,69,78,84,69,68,95,70,85,78,67,84,73,79,78,65,76,73,84,89,32,40,40,83,116,97,116,117,115,84,121,112,101,41,48,120,70,51,41,0
00000be6 5359535f 
00000bea 494e555f 
00000bee 454c504d 
00000bf2 544e454d 
00000bf6 465f4445 
00000bfa 54434e55 
00000bfe 414e4f49 
00000c02 5954494c 
00000c06 53282820 
00000c0a 75746174 
00000c0e 70795473 
00000c12 78302965 
00000c16 00293346 
00000c1a 01        12579 	.data.b	1
00000c1b 6c        12580 	.data.b	108
00000c1c 534f5f45  12581 	.data.b	69,95,79,83,95,83,89,83,95,78,79,95,78,84,70,83,84,65,67,75,32,40,40,83,116,97,116,117,115,84,121,112,101,41,48,120,70,52,41,0
00000c20 5359535f 
00000c24 5f4f4e5f 
00000c28 5346544e 
00000c2c 4b434154 
00000c30 53282820 
00000c34 75746174 
00000c38 70795473 
00000c3c 78302965 
00000c40 00293446 
00000c44 01        12582 	.data.b	1
00000c45 6e        12583 	.data.b	110
00000c46 534f5f45  12584 	.data.b	69,95,79,83,95,83,89,83,95,79,86,69,82,70,76,79,87,32,40,40,83,116,97,116,117,115,84,121,112,101,41,48,120,70,53,41,0
00000c4a 5359535f 
00000c4e 45564f5f 
00000c52 4f4c4652 
00000c56 28282057 
00000c5a 74617453 
00000c5e 79547375 
00000c62 30296570 
00000c66 29354678 
00000c6a 00 
00000c6b 01        12585 	.data.b	1
00000c6c 70        12586 	.data.b	112
00000c6d 534f5f45  12587 	.data.b	69,95,79,83,95,83,89,83,95,75,73,76,76,95,75,69,82,78,69,76,95,79,66,74,32,40,40,83,116,97,116,117,115,84,121,112,101,41,48,120,70,54,41,0
00000c71 5359535f 
00000c75 4c494b5f 
00000c79 454b5f4c 
00000c7d 4c454e52 
00000c81 4a424f5f 
00000c85 53282820 
00000c89 75746174 
00000c8d 70795473 
00000c91 78302965 
00000c95 00293646 
00000c99 01        12588 	.data.b	1
00000c9a 72        12589 	.data.b	114
00000c9b 534f5f45  12590 	.data.b	69,95,79,83,95,83,89,83,95,78,79,95,82,69,83,84,65,82,84,84,65,83,75,32,40,40,83,116,97,116,117,115,84,121,112,101,41,48,120,70,55,41,0
00000c9f 5359535f 
00000ca3 5f4f4e5f 
00000ca7 54534552 
00000cab 54545241 

                                                                      Page 256
                                                              C:\Users\Fengyuan\AppData\Local\Temp\gh_0000sro1.s
00000caf 204b5341 
00000cb3 74532828 
00000cb7 73757461 
00000cbb 65707954 
00000cbf 46783029 
00000cc3 002937 
00000cc6 01        12591 	.data.b	1
00000cc7 74        12592 	.data.b	116
00000cc8 534f5f45  12593 	.data.b	69,95,79,83,95,83,89,83,95,67,65,76,76,95,78,79,84,95,65,76,76,79,87,69,68,32,40,40,83,116,97,116,117,115,84,121,112,101,41,48,120,70,56,41,0
00000ccc 5359535f 
00000cd0 4c41435f 
00000cd4 4f4e5f4c 
00000cd8 4c415f54 
00000cdc 45574f4c 
00000ce0 28282044 
00000ce4 74617453 
00000ce8 79547375 
00000cec 30296570 
00000cf0 29384678 
00000cf4 00 
00000cf5 01        12594 	.data.b	1
00000cf6 76        12595 	.data.b	118
00000cf7 534f5f45  12596 	.data.b	69,95,79,83,95,83,89,83,95,70,85,78,67,84,73,79,78,95,85,78,65,86,65,73,76,65,66,76,69,32,40,40,83,116,97,116,117,115,84,121,112,101,41,48,120,70,57,41,0
00000cfb 5359535f 
00000cff 4e55465f 
00000d03 4f495443 
00000d07 4e555f4e 
00000d0b 49415641 
00000d0f 4c42414c 
00000d13 28282045 
00000d17 74617453 
00000d1b 79547375 
00000d1f 30296570 
00000d23 29394678 
00000d27 00 
00000d28 01        12597 	.data.b	1
00000d29 78        12598 	.data.b	120
00000d2a 534f5f45  12599 	.data.b	69,95,79,83,95,83,89,83,95,80,82,79,84,69,67,84,73,79,78,95,83,89,83,67,65,76,76,32,40,40,83,116,97,116,117,115,84,121,112,101,41,48,120,70,65,41,0
00000d2e 5359535f 
00000d32 4f52505f 
00000d36 54434554 
00000d3a 5f4e4f49 
00000d3e 43535953 
00000d42 204c4c41 
00000d46 74532828 
00000d4a 73757461 
00000d4e 65707954 
00000d52 46783029 
00000d56 002941 
00000d59 01        12600 	.data.b	1
00000d5a 7a        12601 	.data.b	122
00000d5b 534f5f45  12602 	.data.b	69,95,79,83,95,83,89,83,95,80,82,79,84,69,67,84,73,79,78,95,73,82,81,32,40,40,83,116,97,116,117,115,84,121,112,101,41,48,120,70,66,41,0
00000d5f 5359535f 
00000d63 4f52505f 
00000d67 54434554 
00000d6b 5f4e4f49 
00000d6f 20515249 
00000d73 74532828 
00000d77 73757461 
00000d7b 65707954 
00000d7f 46783029 

                                                                      Page 257
                                                              C:\Users\Fengyuan\AppData\Local\Temp\gh_0000sro1.s
00000d83 002942 
00000d86 01        12603 	.data.b	1
00000d87 7c        12604 	.data.b	124
00000d88 534f5f45  12605 	.data.b	69,95,79,83,95,83,89,83,95,65,80,73,95,69,82,82,79,82,32,40,40,83,116,97,116,117,115,84,121,112,101,41,48,120,70,67,41,0
00000d8c 5359535f 
00000d90 4950415f 
00000d94 5252455f 
00000d98 2820524f 
00000d9c 61745328 
00000da0 54737574 
00000da4 29657079 
00000da8 43467830 
00000dac 0029 
00000dae 01        12606 	.data.b	1
00000daf 7e        12607 	.data.b	126
00000db0 534f5f45  12608 	.data.b	69,95,79,83,95,83,89,83,95,65,83,83,69,82,84,73,79,78,32,40,40,83,116,97,116,117,115,84,121,112,101,41,48,120,70,68,41,0
00000db4 5359535f 
00000db8 5353415f 
00000dbc 49545245 
00000dc0 28204e4f 
00000dc4 61745328 
00000dc8 54737574 
00000dcc 29657079 
00000dd0 44467830 
00000dd4 0029 
00000dd6 01        12609 	.data.b	1
00000dd7 0180      12610 	.data.b	128,1
00000dd9 534f5f45  12611 	.data.b	69,95,79,83,95,83,89,83,95,79,86,69,82,76,79,65,68,32,40,40,83,116,97,116,117,115,84,121,112,101,41,48,120,70,69,41,0
00000ddd 5359535f 
00000de1 45564f5f 
00000de5 414f4c52 
00000de9 28282044 
00000ded 74617453 
00000df1 79547375 
00000df5 30296570 
00000df9 29454678 
00000dfd 00 
00000dfe 01        12612 	.data.b	1
00000dff 01bd      12613 	.data.b	189,1
00000e01 535f534f  12614 	.data.b	79,83,95,83,84,65,84,85,83,95,84,89,80,69,95,86,65,82,73,65,78,84,40,83,116,97,116,117,115,44,86,97,114,105,97,110,116,41,32,40,40,117,105,110,116,51,50,41,32,40,40,40,117,105,110,116,51,50,41,40
00000e05 55544154 
00000e09 59545f53 
00000e0d 565f4550 
00000e11 41495241 
00000e15 5328544e 
00000e19 75746174 
00000e1d 61562c73 
00000e21 6e616972 
00000e25 28202974 
00000e29 6e697528 
00000e2d 29323374 
00000e31 28282820 
00000e35 746e6975 
00000e39 28293233 
00000e3d 69726156  12615 	.data.b	86,97,114,105,97,110,116,41,41,32,60,60,32,40,115,105,122,101,111,102,40,83,116,97,116,117,115,84,121,112,101,41,42,56,41,41,32,124,32,40,117,105,110,116,51,50,41,40,83,116,97,116,117,115,41,41,0
00000e41 29746e61 
00000e45 3c3c2029 
00000e49 69732820 
00000e4d 666f657a 
00000e51 61745328 
00000e55 54737574 

                                                                      Page 258
                                                              C:\Users\Fengyuan\AppData\Local\Temp\gh_0000sro1.s
00000e59 29657079 
00000e5d 2929382a 
00000e61 28207c20 
00000e65 746e6975 
00000e69 28293233 
00000e6d 74617453 
00000e71 29297375 
00000e75 00 
00000e76 04        12616 	.data.b	4
00000e77 03        12617 	.data.b	3
00000e78 2d        12618 	.data.b	45
00000e79 19        12619 	.data.b	25
00000e7a 04        12620 	.data.b	4
00000e7b 03        12621 	.data.b	3
00000e7c 32        12622 	.data.b	50
00000e7d 1b        12623 	.data.b	27
00000e7e 03        12624 	.data.b	3
00000e7f 2b        12625 	.data.b	43
00000e80 16        12626 	.data.b	22
00000e81 04        12627 	.data.b	4
00000e82 01        12628 	.data.b	1
00000e83 37        12629 	.data.b	55
00000e84 435f534f  12630 	.data.b	79,83,95,67,79,82,69,95,73,68,95,48,32,79,83,95,67,79,82,69,95,73,68,95,48,0
00000e88 5f45524f 
00000e8c 305f4449 
00000e90 5f534f20 
00000e94 45524f43 
00000e98 5f44495f 
00000e9c 0030 
00000e9e 04        12631 	.data.b	4
00000e9f 03        12632 	.data.b	3
00000ea0 50        12633 	.data.b	80
00000ea1 1c        12634 	.data.b	28
00000ea2 04        12635 	.data.b	4
00000ea3 03        12636 	.data.b	3
00000ea4 58        12637 	.data.b	88
00000ea5 1c        12638 	.data.b	28
00000ea6 04        12639 	.data.b	4
00000ea7 03        12640 	.data.b	3
00000ea8 5c        12641 	.data.b	92
00000ea9 1c        12642 	.data.b	28
00000eaa 04        12643 	.data.b	4
00000eab 03        12644 	.data.b	3
00000eac 64        12645 	.data.b	100
00000ead 1c        12646 	.data.b	28
00000eae 04        12647 	.data.b	4
00000eaf 03        12648 	.data.b	3
00000eb0 68        12649 	.data.b	104
00000eb1 1c        12650 	.data.b	28
00000eb2 04        12651 	.data.b	4
00000eb3 03        12652 	.data.b	3
00000eb4 70        12653 	.data.b	112
00000eb5 1c        12654 	.data.b	28
00000eb6 04        12655 	.data.b	4
00000eb7 03        12656 	.data.b	3
00000eb8 74        12657 	.data.b	116
00000eb9 1c        12658 	.data.b	28
00000eba 04        12659 	.data.b	4
00000ebb 03        12660 	.data.b	3
00000ebc 7c        12661 	.data.b	124
00000ebd 1c        12662 	.data.b	28

                                                                      Page 259
                                                              C:\Users\Fengyuan\AppData\Local\Temp\gh_0000sro1.s
00000ebe 04        12663 	.data.b	4
00000ebf 03        12664 	.data.b	3
00000ec0 0180      12665 	.data.b	128,1
00000ec2 1c        12666 	.data.b	28
00000ec3 04        12667 	.data.b	4
00000ec4 03        12668 	.data.b	3
00000ec5 0188      12669 	.data.b	136,1
00000ec7 1c        12670 	.data.b	28
00000ec8 04        12671 	.data.b	4
00000ec9 04        12672 	.data.b	4
00000eca 03        12673 	.data.b	3
00000ecb 2d        12674 	.data.b	45
00000ecc 1d        12675 	.data.b	29
00000ecd 01        12676 	.data.b	1
00000ece 21        12677 	.data.b	33
00000ecf 485f534f  12678 	.data.b	79,83,95,72,65,76,95,79,83,73,78,84,95,72,32,0
00000ed3 4f5f4c41 
00000ed7 544e4953 
00000edb 0020485f 
00000edf 03        12679 	.data.b	3
00000ee0 2a        12680 	.data.b	42
00000ee1 1a        12681 	.data.b	26
00000ee2 04        12682 	.data.b	4
00000ee3 03        12683 	.data.b	3
00000ee4 2d        12684 	.data.b	45
00000ee5 15        12685 	.data.b	21
00000ee6 04        12686 	.data.b	4
00000ee7 04        12687 	.data.b	4
00000ee8 03        12688 	.data.b	3
00000ee9 02e4      12689 	.data.b	228,2
00000eeb 1c        12690 	.data.b	28
00000eec 04        12691 	.data.b	4
00000eed 03        12692 	.data.b	3
00000eee 02fd      12693 	.data.b	253,2
00000ef0 1c        12694 	.data.b	28
00000ef1 04        12695 	.data.b	4
00000ef2 03        12696 	.data.b	3
00000ef3 03e0      12697 	.data.b	224,3
00000ef5 1c        12698 	.data.b	28
00000ef6 04        12699 	.data.b	4
00000ef7 03        12700 	.data.b	3
00000ef8 03f4      12701 	.data.b	244,3
00000efa 1c        12702 	.data.b	28
00000efb 04        12703 	.data.b	4
00000efc 04        12704 	.data.b	4
00000efd 03        12705 	.data.b	3
00000efe 0389      12706 	.data.b	137,3
00000f00 16        12707 	.data.b	22
00000f01 04        12708 	.data.b	4
00000f02 03        12709 	.data.b	3
00000f03 038a      12710 	.data.b	138,3
00000f05 19        12711 	.data.b	25
00000f06 04        12712 	.data.b	4
00000f07 03        12713 	.data.b	3
00000f08 038f      12714 	.data.b	143,3
00000f0a 1e        12715 	.data.b	30
00000f0b 03        12716 	.data.b	3
00000f0c 7b        12717 	.data.b	123
00000f0d 1d        12718 	.data.b	29
00000f0e 04        12719 	.data.b	4
00000f0f 03        12720 	.data.b	3

                                                                      Page 260
                                                              C:\Users\Fengyuan\AppData\Local\Temp\gh_0000sro1.s
00000f10 7e        12721 	.data.b	126
00000f11 15        12722 	.data.b	21
00000f12 04        12723 	.data.b	4
00000f13 04        12724 	.data.b	4
00000f14 01        12725 	.data.b	1
00000f15 03f7      12726 	.data.b	247,3
00000f17 535f534f  12727 	.data.b	79,83,95,83,84,65,82,84,95,83,69,67,95,67,79,68,69,32,0
00000f1b 54524154 
00000f1f 4345535f 
00000f23 444f435f 
00000f27 002045 
00000f2a 03        12728 	.data.b	3
00000f2b 03f8      12729 	.data.b	248,3
00000f2d 1f        12730 	.data.b	31
00000f2e 01        12731 	.data.b	1
00000f2f 24        12732 	.data.b	36
00000f30 4d4d454d  12733 	.data.b	77,69,77,77,65,80,95,69,82,82,79,82,32,0
00000f34 455f5041 
00000f38 524f5252 
00000f3c 0020 
00000f3e 03        12734 	.data.b	3
00000f3f 26        12735 	.data.b	38
00000f40 20        12736 	.data.b	32
00000f41 01        12737 	.data.b	1
00000f42 26        12738 	.data.b	38
00000f43 4d5f534f  12739 	.data.b	79,83,95,77,69,77,77,65,80,95,83,69,67,84,73,79,78,95,79,80,69,78,32,0
00000f47 414d4d45 
00000f4b 45535f50 
00000f4f 4f495443 
00000f53 504f5f4e 
00000f57 00204e45 
00000f5b 01        12740 	.data.b	1
00000f5c 27        12741 	.data.b	39
00000f5d 435f534f  12742 	.data.b	79,83,95,67,79,68,69,95,79,80,69,78,32,0
00000f61 5f45444f 
00000f65 4e45504f 
00000f69 0020 
00000f6b 04        12743 	.data.b	4
00000f6c 04        12744 	.data.b	4
00000f6d 01        12745 	.data.b	1
00000f6e 29d2      12746 	.data.b	210,41
00000f70 535f534f  12747 	.data.b	79,83,95,83,84,79,80,95,83,69,67,95,67,79,68,69,32,0
00000f74 5f504f54 
00000f78 5f434553 
00000f7c 45444f43 
00000f80 0020 
00000f82 03        12748 	.data.b	3
00000f83 29d3      12749 	.data.b	211,41
00000f85 1f        12750 	.data.b	31
00000f86 01        12751 	.data.b	1
00000f87 24        12752 	.data.b	36
00000f88 4d4d454d  12753 	.data.b	77,69,77,77,65,80,95,69,82,82,79,82,32,0
00000f8c 455f5041 
00000f90 524f5252 
00000f94 0020 
00000f96 03        12754 	.data.b	3
00000f97 26        12755 	.data.b	38
00000f98 20        12756 	.data.b	32
00000f99 04        12757 	.data.b	4
00000f9a 04        12758 	.data.b	4
00000f9b 04        12759 	.data.b	4

                                                                      Page 261
                                                              C:\Users\Fengyuan\AppData\Local\Temp\gh_0000sro1.s
00000f9c 01        12760 	.data.b	1
00000f9d 48        12761 	.data.b	72
00000f9e 5f4e4143  12762 	.data.b	67,65,78,95,68,85,77,77,89,95,83,84,65,84,69,77,69,78,84,40,118,41,32,40,118,41,61,40,118,41,0
00000fa2 4d4d5544 
00000fa6 54535f59 
00000faa 4d455441 
00000fae 28544e45 
00000fb2 28202976 
00000fb6 283d2976 
00000fba 002976 
00000fbd 01        12763 	.data.b	1
00000fbe 4b        12764 	.data.b	75
00000fbf 5f4e4143  12765 	.data.b	67,65,78,95,68,85,77,77,89,95,83,84,65,84,69,77,69,78,84,95,67,79,78,83,84,40,118,41,32,40,118,111,105,100,41,40,118,41,0
00000fc3 4d4d5544 
00000fc7 54535f59 
00000fcb 4d455441 
00000fcf 5f544e45 
00000fd3 534e4f43 
00000fd7 29762854 
00000fdb 6f762820 
00000fdf 28296469 
00000fe3 002976 
00000fe6 01        12766 	.data.b	1
00000fe7 6c        12767 	.data.b	108
00000fe8 5f4e4143  12768 	.data.b	67,65,78,95,80,79,83,84,66,85,73,76,68,95,86,65,82,73,65,78,84,95,83,85,80,80,79,82,84,32,83,84,68,95,79,70,70,0
00000fec 54534f50 
00000ff0 4c495542 
00000ff4 41565f44 
00000ff8 4e414952 
00000ffc 55535f54 
00001000 524f5050 
00001004 54532054 
00001008 464f5f44 
0000100c 0046 
0000100e 01        12769 	.data.b	1
0000100f 79        12770 	.data.b	121
00001010 5f4e4143  12771 	.data.b	67,65,78,95,71,69,78,95,67,79,77,95,83,84,65,67,75,95,76,73,66,32,0
00001014 5f4e4547 
00001018 5f4d4f43 
0000101c 43415453 
00001020 494c5f4b 
00001024 002042 
00001027 01        12772 	.data.b	1
00001028 7c        12773 	.data.b	124
00001029 534f5f56  12774 	.data.b	86,95,79,83,84,89,80,69,95,65,85,84,79,83,65,82,32,0
0000102d 45505954 
00001031 5455415f 
00001035 5241534f 
00001039 0020 
0000103b 01        12775 	.data.b	1
0000103c 019a      12776 	.data.b	154,1
0000103e 50435f43  12777 	.data.b	67,95,67,80,85,84,89,80,69,95,76,73,84,84,76,69,69,78,68,73,65,78,32,0
00001042 50595455 
00001046 494c5f45 
0000104a 454c5454 
0000104e 49444e45 
00001052 00204e41 
00001056 01        12778 	.data.b	1
00001057 01a7      12779 	.data.b	167,1
00001059 4e455f56  12780 	.data.b	86,95,69,78,65,66,76,69,95,85,83,69,95,68,85,77,77,89,95,83,84,65,84,69,77,69,78,84,32,0
0000105d 454c4241 

                                                                      Page 262
                                                              C:\Users\Fengyuan\AppData\Local\Temp\gh_0000sro1.s
00001061 4553555f 
00001065 4d55445f 
00001069 535f594d 
0000106d 45544154 
00001071 544e454d 
00001075 0020 
00001077 01        12781 	.data.b	1
00001078 01ab      12782 	.data.b	171,1
0000107a 50435f56  12783 	.data.b	86,95,67,80,85,95,83,51,50,32,0
0000107e 33535f55 
00001082 002032 
00001085 01        12784 	.data.b	1
00001086 01c9      12785 	.data.b	201,1
00001088 5f4e4143  12786 	.data.b	67,65,78,95,71,69,78,95,66,65,83,69,95,67,70,71,53,95,86,69,82,83,73,79,78,32,48,120,48,49,48,51,117,0
0000108c 5f4e4547 
00001090 45534142 
00001094 4746435f 
00001098 45565f35 
0000109c 4f495352 
000010a0 7830204e 
000010a4 33303130 
000010a8 0075 
000010aa 01        12787 	.data.b	1
000010ab 01cb      12788 	.data.b	203,1
000010ad 5f4e4143  12789 	.data.b	67,65,78,95,71,69,78,95,73,109,120,70,108,101,120,99,97,110,51,65,115,114,95,86,69,82,83,73,79,78,32,48,120,48,49,48,49,117,0
000010b1 5f4e4547 
000010b5 46786d49 
000010b9 6378656c 
000010bd 41336e61 
000010c1 565f7273 
000010c5 49535245 
000010c9 30204e4f 
000010cd 30313078 
000010d1 007531 
000010d4 01        12790 	.data.b	1
000010d5 01cc      12791 	.data.b	204,1
000010d7 5f4e4143  12792 	.data.b	67,65,78,95,77,73,67,82,79,83,65,82,95,86,69,82,83,73,79,78,32,67,65,78,95,77,83,82,52,48,51,0
000010db 5243494d 
000010df 5241534f 
000010e3 5245565f 
000010e7 4e4f4953 
000010eb 4e414320 
000010ef 52534d5f 
000010f3 00333034 
000010f7 01        12793 	.data.b	1
000010f8 01d2      12794 	.data.b	210,1
000010fa 5f4e4143  12795 	.data.b	67,65,78,95,73,78,83,84,65,78,67,69,95,73,68,32,48,0
000010fe 54534e49 
00001102 45434e41 
00001106 2044495f 
0000110a 0030 
0000110c 01        12796 	.data.b	1
0000110d 01d5      12797 	.data.b	213,1
0000110f 5f4e4143  12798 	.data.b	67,65,78,95,82,88,95,66,65,83,73,67,67,65,78,95,84,89,80,69,32,48,117,0
00001113 425f5852 
00001117 43495341 
0000111b 5f4e4143 
0000111f 45505954 
00001123 00753020 
00001127 01        12799 	.data.b	1
00001128 01d7      12800 	.data.b	215,1

                                                                      Page 263
                                                              C:\Users\Fengyuan\AppData\Local\Temp\gh_0000sro1.s
0000112a 5f4e4143  12801 	.data.b	67,65,78,95,84,88,95,66,65,83,73,67,67,65,78,95,84,89,80,69,32,50,117,0
0000112e 425f5854 
00001132 43495341 
00001136 5f4e4143 
0000113a 45505954 
0000113e 00753220 
00001142 01        12802 	.data.b	1
00001143 01dc      12803 	.data.b	220,1
00001145 5f4e4143  12804 	.data.b	67,65,78,95,84,88,95,66,65,83,73,67,67,65,78,95,77,85,88,95,84,89,80,69,32,53,117,0
00001149 425f5854 
0000114d 43495341 
00001151 5f4e4143 
00001155 5f58554d 
00001159 45505954 
0000115d 00753520 
00001161 01        12805 	.data.b	1
00001162 01df      12806 	.data.b	223,1
00001164 5f4e4143  12807 	.data.b	67,65,78,95,73,78,84,69,82,82,85,80,84,32,48,117,0
00001168 45544e49 
0000116c 50555252 
00001170 75302054 
00001174 00 
00001175 01        12808 	.data.b	1
00001176 01e0      12809 	.data.b	224,1
00001178 5f4e4143  12810 	.data.b	67,65,78,95,80,79,76,76,73,78,71,32,49,117,0
0000117c 4c4c4f50 
00001180 20474e49 
00001184 007531 
00001187 01        12811 	.data.b	1
00001188 01e2      12812 	.data.b	226,1
0000118a 6e61436b  12813 	.data.b	107,67,97,110,67,104,97,110,110,101,108,78,111,116,85,115,101,100,32,67,65,78,95,78,79,95,67,65,78,73,70,67,72,65,78,78,69,76,73,68,0
0000118e 6e616843 
00001192 4e6c656e 
00001196 7355746f 
0000119a 43206465 
0000119e 4e5f4e41 
000011a2 41435f4f 
000011a6 4346494e 
000011aa 4e4e4148 
000011ae 44494c45 
000011b2 00 
000011b3 01        12814 	.data.b	1
000011b4 01e4      12815 	.data.b	228,1
000011b6 5f4e4143  12816 	.data.b	67,65,78,95,78,79,78,69,32,48,117,0
000011ba 454e4f4e 
000011be 00753020 
000011c2 01        12817 	.data.b	1
000011c3 01e6      12818 	.data.b	230,1
000011c5 5f4e4143  12819 	.data.b	67,65,78,95,78,79,84,73,70,89,95,73,83,83,85,69,32,49,117,0
000011c9 49544f4e 
000011cd 495f5946 
000011d1 45555353 
000011d5 00753120 
000011d9 01        12820 	.data.b	1
000011da 01e7      12821 	.data.b	231,1
000011dc 5f4e4143  12822 	.data.b	67,65,78,95,78,79,84,73,70,89,95,77,65,73,76,66,79,88,32,50,117,0
000011e0 49544f4e 
000011e4 4d5f5946 
000011e8 424c4941 
000011ec 3220584f 
000011f0 0075 

                                                                      Page 264
                                                              C:\Users\Fengyuan\AppData\Local\Temp\gh_0000sro1.s
000011f2 01        12823 	.data.b	1
000011f3 01e8      12824 	.data.b	232,1
000011f5 5f4e4143  12825 	.data.b	67,65,78,95,69,88,84,69,78,68,69,68,32,51,117,0
000011f9 45545845 
000011fd 4445444e 
00001201 00753320 
00001205 01        12826 	.data.b	1
00001206 01ea      12827 	.data.b	234,1
00001208 5f4e4143  12828 	.data.b	67,65,78,95,68,82,73,86,69,82,32,49,117,0
0000120c 56495244 
00001210 31205245 
00001214 0075 
00001216 01        12829 	.data.b	1
00001217 01eb      12830 	.data.b	235,1
00001219 5f4e4143  12831 	.data.b	67,65,78,95,65,80,80,76,32,50,117,0
0000121d 4c505041 
00001221 00753220 
00001225 01        12832 	.data.b	1
00001226 01ec      12833 	.data.b	236,1
00001228 5f4e4143  12834 	.data.b	67,65,78,95,66,79,84,72,32,51,117,0
0000122c 48544f42 
00001230 00753320 
00001234 01        12835 	.data.b	1
00001235 01ee      12836 	.data.b	238,1
00001237 5f4e4143  12837 	.data.b	67,65,78,95,77,83,82,51,48,32,51,48,117,0
0000123b 3352534d 
0000123f 30332030 
00001243 0075 
00001245 01        12838 	.data.b	1
00001246 01ef      12839 	.data.b	239,1
00001248 5f4e4143  12840 	.data.b	67,65,78,95,77,83,82,52,48,32,52,48,117,0
0000124c 3452534d 
00001250 30342030 
00001254 0075 
00001256 01        12841 	.data.b	1
00001257 01f0      12842 	.data.b	240,1
00001259 5f4e4143  12843 	.data.b	67,65,78,95,77,83,82,52,48,51,32,52,48,51,117,0
0000125d 3452534d 
00001261 34203330 
00001265 00753330 
00001269 01        12844 	.data.b	1
0000126a 01f2      12845 	.data.b	242,1
0000126c 5f4e4143  12846 	.data.b	67,65,78,95,68,69,84,32,49,117,0
00001270 20544544 
00001274 007531 
00001277 01        12847 	.data.b	1
00001278 01f4      12848 	.data.b	244,1
0000127a 5f4e4143  12849 	.data.b	67,65,78,95,66,82,83,32,49,117,0
0000127e 20535242 
00001282 007531 
00001285 01        12850 	.data.b	1
00001286 01f5      12851 	.data.b	245,1
00001288 5f4e4143  12852 	.data.b	67,65,78,95,70,85,76,76,32,50,117,0
0000128c 4c4c5546 
00001290 00753220 
00001294 01        12853 	.data.b	1
00001295 01fb      12854 	.data.b	251,1
00001297 5f4e4143  12855 	.data.b	67,65,78,95,65,80,73,50,32,50,117,0
0000129b 32495041 
0000129f 00753220 
000012a3 01        12856 	.data.b	1

                                                                      Page 265
                                                              C:\Users\Fengyuan\AppData\Local\Temp\gh_0000sro1.s
000012a4 01fd      12857 	.data.b	253,1
000012a6 5f4e4143  12858 	.data.b	67,65,78,95,79,83,95,84,73,67,75,50,77,83,40,116,105,99,107,41,32,79,83,95,84,73,67,75,83,50,77,83,95,83,121,115,116,101,109,84,105,109,101,114,40,40,116,105,99,107,41,41,0
000012aa 545f534f 
000012ae 324b4349 
000012b2 7428534d 
000012b6 296b6369 
000012ba 5f534f20 
000012be 4b434954 
000012c2 534d3253 
000012c6 7379535f 
000012ca 546d6574 
000012ce 72656d69 
000012d2 69742828 
000012d6 29296b63 
000012da 00 
000012db 01        12859 	.data.b	1
000012dc 01fe      12860 	.data.b	254,1
000012de 5f4e4143  12861 	.data.b	67,65,78,95,79,83,95,67,79,85,78,84,69,82,95,73,68,32,83,121,115,116,101,109,84,105,109,101,114,0
000012e2 435f534f 
000012e6 544e554f 
000012ea 495f5245 
000012ee 79532044 
000012f2 6d657473 
000012f6 656d6954 
000012fa 0072 
000012fc 01        12862 	.data.b	1
000012fd 0285      12863 	.data.b	133,2
000012ff 5f4e4143  12864 	.data.b	67,65,78,95,86,69,82,83,73,79,78,95,73,78,70,79,95,65,80,73,32,83,84,68,95,79,70,70,0
00001303 53524556 
00001307 5f4e4f49 
0000130b 4f464e49 
0000130f 4950415f 
00001313 44545320 
00001317 46464f5f 
0000131b 00 
0000131c 01        12865 	.data.b	1
0000131d 0286      12866 	.data.b	134,2
0000131f 5f4e4143  12867 	.data.b	67,65,78,95,68,69,86,95,69,82,82,79,82,95,68,69,84,69,67,84,32,83,84,68,95,79,78,0
00001323 5f564544 
00001327 4f525245 
0000132b 45445f52 
0000132f 54434554 
00001333 44545320 
00001337 004e4f5f 
0000133b 01        12868 	.data.b	1
0000133c 0287      12869 	.data.b	135,2
0000133e 5f4e4143  12870 	.data.b	67,65,78,95,68,69,86,95,69,82,82,79,82,95,82,69,80,79,82,84,32,83,84,68,95,79,78,0
00001342 5f564544 
00001346 4f525245 
0000134a 45525f52 
0000134e 54524f50 
00001352 44545320 
00001356 004e4f5f 
0000135a 01        12871 	.data.b	1
0000135b 0289      12872 	.data.b	137,2
0000135d 5f4e4143  12873 	.data.b	67,65,78,95,68,69,86,95,84,73,77,69,79,85,84,95,68,69,84,69,67,84,32,83,84,68,95,79,70,70,0
00001361 5f564544 
00001365 454d4954 
00001369 5f54554f 
0000136d 45544544 
00001371 53205443 

                                                                      Page 266
                                                              C:\Users\Fengyuan\AppData\Local\Temp\gh_0000sro1.s
00001375 4f5f4454 
00001379 004646 
0000137c 01        12874 	.data.b	1
0000137d 028a      12875 	.data.b	138,2
0000137f 5f4e4143  12876 	.data.b	67,65,78,95,83,65,70,69,95,66,83,87,32,83,84,68,95,79,70,70,0
00001383 45464153 
00001387 5753425f 
0000138b 44545320 
0000138f 46464f5f 
00001393 00 
00001394 01        12877 	.data.b	1
00001395 028d      12878 	.data.b	141,2
00001397 5f4e4143  12879 	.data.b	67,65,78,95,84,88,95,80,82,79,67,69,83,83,73,78,71,32,67,65,78,95,73,78,84,69,82,82,85,80,84,0
0000139b 505f5854 
0000139f 45434f52 
000013a3 4e495353 
000013a7 41432047 
000013ab 4e495f4e 
000013af 52524554 
000013b3 00545055 
000013b7 01        12880 	.data.b	1
000013b8 028e      12881 	.data.b	142,2
000013ba 5f4e4143  12882 	.data.b	67,65,78,95,82,88,95,80,82,79,67,69,83,83,73,78,71,32,67,65,78,95,73,78,84,69,82,82,85,80,84,0
000013be 505f5852 
000013c2 45434f52 
000013c6 4e495353 
000013ca 41432047 
000013ce 4e495f4e 
000013d2 52524554 
000013d6 00545055 
000013da 01        12883 	.data.b	1
000013db 028f      12884 	.data.b	143,2
000013dd 5f4e4143  12885 	.data.b	67,65,78,95,66,85,83,79,70,70,95,80,82,79,67,69,83,83,73,78,71,32,67,65,78,95,73,78,84,69,82,82,85,80,84,0
000013e1 4f535542 
000013e5 505f4646 
000013e9 45434f52 
000013ed 4e495353 
000013f1 41432047 
000013f5 4e495f4e 
000013f9 52524554 
000013fd 00545055 
00001401 01        12886 	.data.b	1
00001402 0290      12887 	.data.b	144,2
00001404 5f4e4143  12888 	.data.b	67,65,78,95,87,65,75,69,85,80,95,80,82,79,67,69,83,83,73,78,71,32,67,65,78,95,73,78,84,69,82,82,85,80,84,0
00001408 454b4157 
0000140c 505f5055 
00001410 45434f52 
00001414 4e495353 
00001418 41432047 
0000141c 4e495f4e 
00001420 52524554 
00001424 00545055 
00001428 01        12889 	.data.b	1
00001429 0291      12890 	.data.b	145,2
0000142b 5f4e4143  12891 	.data.b	67,65,78,95,73,78,68,73,86,73,68,85,65,76,95,80,82,79,67,69,83,83,73,78,71,32,83,84,68,95,79,70,70,0
0000142f 49444e49 
00001433 55444956 
00001437 505f4c41 
0000143b 45434f52 
0000143f 4e495353 
00001443 54532047 

                                                                      Page 267
                                                              C:\Users\Fengyuan\AppData\Local\Temp\gh_0000sro1.s
00001447 464f5f44 
0000144b 0046 
0000144d 01        12892 	.data.b	1
0000144e 0294      12893 	.data.b	148,2
00001450 4e455f43  12894 	.data.b	67,95,69,78,65,66,76,69,95,79,83,69,75,95,79,83,95,73,78,84,67,65,84,50,32,0
00001454 454c4241 
00001458 45534f5f 
0000145c 534f5f4b 
00001460 544e495f 
00001464 32544143 
00001468 0020 
0000146a 01        12895 	.data.b	1
0000146b 0296      12896 	.data.b	150,2
0000146d 5f4e4143  12897 	.data.b	67,65,78,95,73,78,84,76,79,67,75,32,67,65,78,95,68,82,73,86,69,82,0
00001471 4c544e49 
00001475 204b434f 
00001479 5f4e4143 
0000147d 56495244 
00001481 005245 
00001484 01        12898 	.data.b	1
00001485 0299      12899 	.data.b	153,2
00001487 5f4e4143  12900 	.data.b	67,65,78,95,77,85,76,84,73,80,76,69,88,69,68,95,84,88,95,77,65,88,32,49,117,0
0000148b 544c554d 
0000148f 454c5049 
00001493 5f444558 
00001497 4d5f5854 
0000149b 31205841 
0000149f 0075 
000014a1 01        12901 	.data.b	1
000014a2 029a      12902 	.data.b	154,2
000014a4 5f4e4143  12903 	.data.b	67,65,78,95,67,65,78,67,69,76,95,83,85,80,80,79,82,84,95,65,80,73,32,83,84,68,95,79,70,70,0
000014a8 434e4143 
000014ac 535f4c45 
000014b0 4f505055 
000014b4 415f5452 
000014b8 53204950 
000014bc 4f5f4454 
000014c0 004646 
000014c3 01        12904 	.data.b	1
000014c4 029b      12905 	.data.b	155,2
000014c6 5f4e4143  12906 	.data.b	67,65,78,95,84,82,65,78,83,77,73,84,95,66,85,70,70,69,82,32,83,84,68,95,79,78,0
000014ca 4e415254 
000014ce 54494d53 
000014d2 4655425f 
000014d6 20524546 
000014da 5f445453 
000014de 004e4f 
000014e1 01        12907 	.data.b	1
000014e2 029c      12908 	.data.b	156,2
000014e4 5f4e4143  12909 	.data.b	67,65,78,95,77,85,76,84,73,80,76,69,88,69,68,95,84,82,65,78,83,77,73,83,83,73,79,78,32,83,84,68,95,79,70,70,0
000014e8 544c554d 
000014ec 454c5049 
000014f0 5f444558 
000014f4 4e415254 
000014f8 53494d53 
000014fc 4e4f4953 
00001500 44545320 
00001504 46464f5f 
00001508 00 
00001509 01        12910 	.data.b	1
0000150a 029d      12911 	.data.b	157,2

                                                                      Page 268
                                                              C:\Users\Fengyuan\AppData\Local\Temp\gh_0000sro1.s
0000150c 5f4e4143  12912 	.data.b	67,65,78,95,72,87,95,84,82,65,78,83,77,73,84,95,67,65,78,67,69,76,76,65,84,73,79,78,32,83,84,68,95,79,70,70,0
00001510 545f5748 
00001514 534e4152 
00001518 5f54494d 
0000151c 434e4143 
00001520 414c4c45 
00001524 4e4f4954 
00001528 44545320 
0000152c 46464f5f 
00001530 00 
00001531 01        12913 	.data.b	1
00001532 029f      12914 	.data.b	159,2
00001534 5f4e4143  12915 	.data.b	67,65,78,95,77,85,76,84,73,80,76,69,95,66,65,83,73,67,67,65,78,95,84,88,32,83,84,68,95,79,70,70,0
00001538 544c554d 
0000153c 454c5049 
00001540 5341425f 
00001544 41434349 
00001548 58545f4e 
0000154c 44545320 
00001550 46464f5f 
00001554 00 
00001555 01        12916 	.data.b	1
00001556 02a2      12917 	.data.b	162,2
00001558 5f4e4143  12918 	.data.b	67,65,78,95,77,85,76,84,73,80,76,69,95,66,65,83,73,67,67,65,78,32,83,84,68,95,79,70,70,0
0000155c 544c554d 
00001560 454c5049 
00001564 5341425f 
00001568 41434349 
0000156c 5453204e 
00001570 464f5f44 
00001574 0046 
00001576 01        12919 	.data.b	1
00001577 02a3      12920 	.data.b	163,2
00001579 5f4e4143  12921 	.data.b	67,65,78,95,82,88,95,81,85,69,85,69,32,83,84,68,95,79,70,70,0
0000157d 515f5852 
00001581 45554555 
00001585 44545320 
00001589 46464f5f 
0000158d 00 
0000158e 01        12922 	.data.b	1
0000158f 02a4      12923 	.data.b	164,2
00001591 5f4e4143  12924 	.data.b	67,65,78,95,79,86,69,82,82,85,78,95,78,79,84,73,70,73,67,65,84,73,79,78,32,67,65,78,95,68,69,84,0
00001595 5245564f 
00001599 5f4e5552 
0000159d 49544f4e 
000015a1 41434946 
000015a5 4e4f4954 
000015a9 4e414320 
000015ad 5445445f 
000015b1 00 
000015b2 01        12925 	.data.b	1
000015b3 02a7      12926 	.data.b	167,2
000015b5 5f4e4143  12927 	.data.b	67,65,78,95,83,76,69,69,80,95,83,85,80,80,79,82,84,32,83,84,68,95,79,70,70,0
000015b9 45454c53 
000015bd 55535f50 
000015c1 524f5050 
000015c5 54532054 
000015c9 464f5f44 
000015cd 0046 
000015cf 01        12928 	.data.b	1
000015d0 02a8      12929 	.data.b	168,2

                                                                      Page 269
                                                              C:\Users\Fengyuan\AppData\Local\Temp\gh_0000sro1.s
000015d2 5f4e4143  12930 	.data.b	67,65,78,95,87,65,75,69,85,80,95,83,85,80,80,79,82,84,32,83,84,68,95,79,70,70,0
000015d6 454b4157 
000015da 535f5055 
000015de 4f505055 
000015e2 53205452 
000015e6 4f5f4454 
000015ea 004646 
000015ed 01        12931 	.data.b	1
000015ee 02ab      12932 	.data.b	171,2
000015f0 5f4e4143  12933 	.data.b	67,65,78,95,72,65,82,68,87,65,82,69,95,67,65,78,67,69,76,76,65,84,73,79,78,32,83,84,68,95,79,70,70,0
000015f4 44524148 
000015f8 45524157 
000015fc 4e41435f 
00001600 4c4c4543 
00001604 4f495441 
00001608 5453204e 
0000160c 464f5f44 
00001610 0046 
00001612 01        12934 	.data.b	1
00001613 02ac      12935 	.data.b	172,2
00001615 5f4e4143  12936 	.data.b	67,65,78,95,84,73,77,69,79,85,84,95,68,85,82,65,84,73,79,78,32,54,53,117,76,0
00001619 454d4954 
0000161d 5f54554f 
00001621 41525544 
00001625 4e4f4954 
00001629 75353620 
0000162d 004c 
0000162f 01        12937 	.data.b	1
00001630 02ad      12938 	.data.b	173,2
00001632 5f4e4143  12939 	.data.b	67,65,78,95,76,79,79,80,95,77,65,88,32,53,117,0
00001636 504f4f4c 
0000163a 58414d5f 
0000163e 00753520 
00001642 01        12940 	.data.b	1
00001643 02b0      12941 	.data.b	176,2
00001645 5f4e4143  12942 	.data.b	67,65,78,95,69,88,84,69,78,68,69,68,95,83,84,65,84,69,95,77,65,67,72,73,78,69,32,83,84,68,95,79,70,70,0
00001649 45545845 
0000164d 4445444e 
00001651 4154535f 
00001655 4d5f4554 
00001659 49484341 
0000165d 5320454e 
00001661 4f5f4454 
00001665 004646 
00001668 01        12943 	.data.b	1
00001669 02b1      12944 	.data.b	177,2
0000166b 5f4e4143  12945 	.data.b	67,65,78,95,66,85,83,79,70,70,95,83,85,80,80,79,82,84,95,65,80,73,32,83,84,68,95,79,70,70,0
0000166f 4f535542 
00001673 535f4646 
00001677 4f505055 
0000167b 415f5452 
0000167f 53204950 
00001683 4f5f4454 
00001687 004646 
0000168a 01        12946 	.data.b	1
0000168b 02b2      12947 	.data.b	178,2
0000168d 5f4e4143  12948 	.data.b	67,65,78,95,72,87,95,76,79,79,80,95,83,85,80,80,79,82,84,95,65,80,73,32,83,84,68,95,79,70,70,0
00001691 4c5f5748 
00001695 5f504f4f 
00001699 50505553 
0000169d 5f54524f 

                                                                      Page 270
                                                              C:\Users\Fengyuan\AppData\Local\Temp\gh_0000sro1.s
000016a1 20495041 
000016a5 5f445453 
000016a9 0046464f 
000016ad 01        12949 	.data.b	1
000016ae 02b3      12950 	.data.b	179,2
000016b0 5f4e4143  12951 	.data.b	67,65,78,95,71,69,78,69,82,73,67,95,80,82,69,67,79,80,89,32,83,84,68,95,79,70,70,0
000016b4 454e4547 
000016b8 5f434952 
000016bc 43455250 
000016c0 2059504f 
000016c4 5f445453 
000016c8 0046464f 
000016cc 01        12952 	.data.b	1
000016cd 02b4      12953 	.data.b	180,2
000016cf 5f4e4143  12954 	.data.b	67,65,78,95,71,69,78,69,82,73,67,95,67,79,78,70,73,82,77,65,84,73,79,78,32,83,84,68,95,79,70,70,0
000016d3 454e4547 
000016d7 5f434952 
000016db 464e4f43 
000016df 414d5249 
000016e3 4e4f4954 
000016e7 44545320 
000016eb 46464f5f 
000016ef 00 
000016f0 01        12955 	.data.b	1
000016f1 02b5      12956 	.data.b	181,2
000016f3 5f4e4143  12957 	.data.b	67,65,78,95,71,69,78,69,82,73,67,95,80,82,69,84,82,65,78,83,77,73,84,32,83,84,68,95,79,70,70,0
000016f7 454e4547 
000016fb 5f434952 
000016ff 54455250 
00001703 534e4152 
00001707 2054494d 
0000170b 5f445453 
0000170f 0046464f 
00001713 01        12958 	.data.b	1
00001714 02b6      12959 	.data.b	182,2
00001716 5f4e4143  12960 	.data.b	67,65,78,95,85,83,69,95,79,83,95,73,78,84,69,82,82,85,80,84,95,67,79,78,84,82,79,76,32,83,84,68,95,79,78,0
0000171a 5f455355 
0000171e 495f534f 
00001722 5245544e 
00001726 54505552 
0000172a 4e4f435f 
0000172e 4c4f5254 
00001732 44545320 
00001736 004e4f5f 
0000173a 01        12961 	.data.b	1
0000173b 02b9      12962 	.data.b	185,2
0000173d 5f4e4143  12963 	.data.b	67,65,78,95,82,88,95,70,85,76,76,67,65,78,95,79,66,74,69,67,84,83,32,83,84,68,95,79,70,70,0
00001741 465f5852 
00001745 434c4c55 
00001749 4f5f4e41 
0000174d 43454a42 
00001751 53205354 
00001755 4f5f4454 
00001759 004646 
0000175c 01        12964 	.data.b	1
0000175d 02ba      12965 	.data.b	186,2
0000175f 5f4e4143  12966 	.data.b	67,65,78,95,84,88,95,70,85,76,76,67,65,78,95,79,66,74,69,67,84,83,32,83,84,68,95,79,70,70,0
00001763 465f5854 
00001767 434c4c55 
0000176b 4f5f4e41 
0000176f 43454a42 

                                                                      Page 271
                                                              C:\Users\Fengyuan\AppData\Local\Temp\gh_0000sro1.s
00001773 53205354 
00001777 4f5f4454 
0000177b 004646 
0000177e 01        12967 	.data.b	1
0000177f 02bb      12968 	.data.b	187,2
00001781 5f4e4143  12969 	.data.b	67,65,78,95,82,88,95,66,65,83,73,67,67,65,78,95,79,66,74,69,67,84,83,32,83,84,68,95,79,78,0
00001785 425f5852 
00001789 43495341 
0000178d 5f4e4143 
00001791 454a424f 
00001795 20535443 
00001799 5f445453 
0000179d 004e4f 
000017a0 01        12970 	.data.b	1
000017a1 02bc      12971 	.data.b	188,2
000017a3 5f4e4143  12972 	.data.b	67,65,78,95,69,88,84,69,78,68,69,68,95,73,68,32,83,84,68,95,79,70,70,0
000017a7 45545845 
000017ab 4445444e 
000017af 2044495f 
000017b3 5f445453 
000017b7 0046464f 
000017bb 01        12973 	.data.b	1
000017bc 02bd      12974 	.data.b	189,2
000017be 5f4e4143  12975 	.data.b	67,65,78,95,77,73,88,69,68,95,73,68,32,83,84,68,95,79,70,70,0
000017c2 4558494d 
000017c6 44495f44 
000017ca 44545320 
000017ce 46464f5f 
000017d2 00 
000017d3 01        12976 	.data.b	1
000017d4 02be      12977 	.data.b	190,2
000017d6 5f4e4143  12978 	.data.b	67,65,78,95,79,78,69,95,67,79,78,84,82,79,76,76,69,82,95,79,80,84,73,77,73,90,65,84,73,79,78,32,83,84,68,95,79,78,0
000017da 5f454e4f 
000017de 544e4f43 
000017e2 4c4c4f52 
000017e6 4f5f5245 
000017ea 4d495450 
000017ee 54415a49 
000017f2 204e4f49 
000017f6 5f445453 
000017fa 004e4f 
000017fd 01        12979 	.data.b	1
000017fe 02bf      12980 	.data.b	191,2
00001800 5f4e4143  12981 	.data.b	67,65,78,95,68,89,78,65,77,73,67,95,70,85,76,76,67,65,78,95,73,68,32,83,84,68,95,79,78,0
00001804 414e5944 
00001808 5f43494d 
0000180c 4c4c5546 
00001810 5f4e4143 
00001814 53204449 
00001818 4f5f4454 
0000181c 004e 
0000181e 01        12982 	.data.b	1
0000181f 02c0      12983 	.data.b	192,2
00001821 5f4e4143  12984 	.data.b	67,65,78,95,83,69,67,85,82,69,95,84,69,77,80,95,66,85,70,70,69,82,32,83,84,68,95,79,70,70,0
00001825 55434553 
00001829 545f4552 
0000182d 5f504d45 
00001831 46465542 
00001835 53205245 
00001839 4f5f4454 
0000183d 004646 

                                                                      Page 272
                                                              C:\Users\Fengyuan\AppData\Local\Temp\gh_0000sro1.s
00001840 01        12985 	.data.b	1
00001841 02c1      12986 	.data.b	193,2
00001843 4e455f43  12987 	.data.b	67,95,69,78,65,66,76,69,95,71,69,78,95,72,87,95,83,84,65,82,84,95,83,84,79,80,95,73,68,88,32,0
00001847 454c4241 
0000184b 4e45475f 
0000184f 5f57485f 
00001853 52415453 
00001857 54535f54 
0000185b 495f504f 
0000185f 00205844 
00001863 01        12988 	.data.b	1
00001864 02c2      12989 	.data.b	194,2
00001866 5f4e4143  12990 	.data.b	67,65,78,95,67,72,65,78,71,69,95,66,65,85,68,82,65,84,69,95,65,80,73,32,83,84,68,95,79,70,70,0
0000186a 4e414843 
0000186e 425f4547 
00001872 52445541 
00001876 5f455441 
0000187a 20495041 
0000187e 5f445453 
00001882 0046464f 
00001886 01        12991 	.data.b	1
00001887 02c5      12992 	.data.b	197,2
00001889 5f4e4143  12993 	.data.b	67,65,78,95,83,69,84,95,66,65,85,68,82,65,84,69,95,65,80,73,32,83,84,68,95,79,70,70,0
0000188d 5f544553 
00001891 44554142 
00001895 45544152 
00001899 4950415f 
0000189d 44545320 
000018a1 46464f5f 
000018a5 00 
000018a6 01        12994 	.data.b	1
000018a7 02c6      12995 	.data.b	198,2
000018a9 5f4e4143  12996 	.data.b	67,65,78,95,70,68,95,83,85,80,80,79,82,84,32,67,65,78,95,78,79,78,69,0
000018ad 535f4446 
000018b1 4f505055 
000018b5 43205452 
000018b9 4e5f4e41 
000018bd 00454e4f 
000018c1 01        12997 	.data.b	1
000018c2 02c9      12998 	.data.b	201,2
000018c4 5f4e4143  12999 	.data.b	67,65,78,95,77,85,76,84,73,95,69,67,85,95,67,79,78,70,73,71,32,83,84,68,95,79,70,70,0
000018c8 544c554d 
000018cc 43455f49 
000018d0 4f435f55 
000018d4 4749464e 
000018d8 44545320 
000018dc 46464f5f 
000018e0 00 
000018e1 01        13000 	.data.b	1
000018e2 02ca      13001 	.data.b	202,2
000018e4 5f4e4143  13002 	.data.b	67,65,78,95,67,79,77,77,79,78,95,67,65,78,32,83,84,68,95,79,70,70,0
000018e8 4d4d4f43 
000018ec 435f4e4f 
000018f0 53204e41 
000018f4 4f5f4454 
000018f8 004646 
000018fb 01        13003 	.data.b	1
000018fc 02cb      13004 	.data.b	203,2
000018fe 5f4e4143  13005 	.data.b	67,65,78,95,80,65,82,84,73,65,76,95,78,69,84,87,79,82,75,32,83,84,68,95,79,70,70,0
00001902 54524150 
00001906 5f4c4149 

                                                                      Page 273
                                                              C:\Users\Fengyuan\AppData\Local\Temp\gh_0000sro1.s
0000190a 5754454e 
0000190e 204b524f 
00001912 5f445453 
00001916 0046464f 
0000191a 01        13006 	.data.b	1
0000191b 02cc      13007 	.data.b	204,2
0000191d 5f4e4143  13008 	.data.b	67,65,78,95,82,65,77,95,67,72,69,67,75,32,67,65,78,95,78,79,78,69,0
00001921 5f4d4152 
00001925 43454843 
00001929 4143204b 
0000192d 4f4e5f4e 
00001931 00454e 
00001934 01        13009 	.data.b	1
00001935 02cd      13010 	.data.b	205,2
00001937 5f4e4143  13011 	.data.b	67,65,78,95,82,69,73,78,73,84,95,83,84,65,82,84,32,83,84,68,95,79,70,70,0
0000193b 4e494552 
0000193f 535f5449 
00001943 54524154 
00001947 44545320 
0000194b 46464f5f 
0000194f 00 
00001950 01        13012 	.data.b	1
00001951 02ce      13013 	.data.b	206,2
00001953 5f4e4143  13014 	.data.b	67,65,78,95,71,69,84,95,83,84,65,84,85,83,32,83,84,68,95,79,70,70,0
00001957 5f544547 
0000195b 54415453 
0000195f 53205355 
00001963 4f5f4454 
00001967 004646 
0000196a 01        13015 	.data.b	1
0000196b 02cf      13016 	.data.b	207,2
0000196d 5f4e4143  13017 	.data.b	67,65,78,95,82,85,78,84,73,77,69,95,77,69,65,83,85,82,69,77,69,78,84,95,83,85,80,80,79,82,84,32,83,84,68,95,79,70,70,0
00001971 544e5552 
00001975 5f454d49 
00001979 5341454d 
0000197d 4d455255 
00001981 5f544e45 
00001985 50505553 
00001989 2054524f 
0000198d 5f445453 
00001991 0046464f 
00001995 01        13018 	.data.b	1
00001996 02d0      13019 	.data.b	208,2
00001998 5f4e4143  13020 	.data.b	67,65,78,95,80,82,79,84,69,67,84,69,68,95,77,79,68,69,32,83,84,68,95,79,70,70,0
0000199c 544f5250 
000019a0 45544345 
000019a4 4f4d5f44 
000019a8 53204544 
000019ac 4f5f4454 
000019b0 004646 
000019b3 01        13021 	.data.b	1
000019b4 02d1      13022 	.data.b	209,2
000019b6 5f4e4143  13023 	.data.b	67,65,78,95,77,73,82,82,79,82,95,77,79,68,69,32,83,84,68,95,79,70,70,0
000019ba 5252494d 
000019be 4d5f524f 
000019c2 2045444f 
000019c6 5f445453 
000019ca 0046464f 
000019ce 01        13024 	.data.b	1
000019cf 02d2      13025 	.data.b	210,2
000019d1 5f4e4143  13026 	.data.b	67,65,78,95,83,73,76,69,78,84,95,77,79,68,69,32,83,84,68,95,79,70,70,0

                                                                      Page 274
                                                              C:\Users\Fengyuan\AppData\Local\Temp\gh_0000sro1.s
000019d5 454c4953 
000019d9 4d5f544e 
000019dd 2045444f 
000019e1 5f445453 
000019e5 0046464f 
000019e9 01        13027 	.data.b	1
000019ea 038d      13028 	.data.b	141,3
000019ec 4e455f43  13029 	.data.b	67,95,69,78,65,66,76,69,95,69,88,84,69,78,68,69,68,95,66,73,84,84,73,77,73,78,71,32,0
000019f0 454c4241 
000019f4 5458455f 
000019f8 45444e45 
000019fc 49425f44 
00001a00 4d495454 
00001a04 20474e49 
00001a08 00 
00001a09 01        13030 	.data.b	1
00001a0a 06c4      13031 	.data.b	196,6
00001a0c 5f4e4143  13032 	.data.b	67,65,78,95,85,83,69,95,69,67,85,77,95,66,83,87,95,69,82,82,79,82,95,72,79,79,75,32,83,84,68,95,79,70,70,0
00001a10 5f455355 
00001a14 4d554345 
00001a18 5753425f 
00001a1c 5252455f 
00001a20 485f524f 
00001a24 204b4f4f 
00001a28 5f445453 
00001a2c 0046464f 
00001a30 01        13033 	.data.b	1
00001a31 06c5      13034 	.data.b	197,6
00001a33 5f4e4143  13035 	.data.b	67,65,78,95,85,83,69,95,73,78,73,84,95,80,79,73,78,84,69,82,32,83,84,68,95,79,70,70,0
00001a37 5f455355 
00001a3b 54494e49 
00001a3f 494f505f 
00001a43 5245544e 
00001a47 44545320 
00001a4b 46464f5f 
00001a4f 00 
00001a50 01        13036 	.data.b	1
00001a51 06fe      13037 	.data.b	254,6
00001a53 5f6e6143  13038 	.data.b	67,97,110,95,71,101,116,65,99,116,105,118,101,83,101,110,100,79,98,106,101,99,116,79,102,80,67,67,111,110,102,105,103,40,41,32,67,97,110,95,65,99,116,105,118,101,83,101,110,100,79,98,106,101,99,116,0
00001a57 41746547 
00001a5b 76697463 
00001a5f 6e655365 
00001a63 6a624f64 
00001a67 4f746365 
00001a6b 43435066 
00001a6f 69666e6f 
00001a73 20292867 
00001a77 5f6e6143 
00001a7b 69746341 
00001a7f 65536576 
00001a83 624f646e 
00001a87 7463656a 
00001a8b 00 
00001a8c 01        13039 	.data.b	1
00001a8d 06ff      13040 	.data.b	255,6
00001a8f 5f6e6143  13041 	.data.b	67,97,110,95,71,101,116,66,97,115,101,68,108,108,95,71,101,110,101,114,97,116,111,114,86,101,114,115,105,111,110,79,102,80,67,67,111,110,102,105,103,40,41,32,48,120,48,49,48,51,117,0
00001a93 42746547 
00001a97 44657361 
00001a9b 475f6c6c 
00001a9f 72656e65 
00001aa3 726f7461 

                                                                      Page 275
                                                              C:\Users\Fengyuan\AppData\Local\Temp\gh_0000sro1.s
00001aa7 73726556 
00001aab 4f6e6f69 
00001aaf 43435066 
00001ab3 69666e6f 
00001ab7 20292867 
00001abb 31307830 
00001abf 00753330 
00001ac3 01        13042 	.data.b	1
00001ac4 0780      13043 	.data.b	128,7
00001ac6 5f6e6143  13044 	.data.b	67,97,110,95,71,101,116,67,97,110,73,102,67,104,97,110,110,101,108,73,100,79,102,80,67,67,111,110,102,105,103,40,41,32,67,97,110,95,67,97,110,73,102,67,104,97,110,110,101,108,73,100,0
00001aca 43746547 
00001ace 66496e61 
00001ad2 6e616843 
00001ad6 496c656e 
00001ada 50664f64 
00001ade 6e6f4343 
00001ae2 28676966 
00001ae6 61432029 
00001aea 61435f6e 
00001aee 4366496e 
00001af2 6e6e6168 
00001af6 64496c65 
00001afa 00 
00001afb 01        13045 	.data.b	1
00001afc 0781      13046 	.data.b	129,7
00001afe 5f6e6143  13047 	.data.b	67,97,110,95,71,101,116,67,111,110,116,114,111,108,108,101,114,67,111,110,102,105,103,79,102,80,67,67,111,110,102,105,103,40,41,32,67,97,110,95,67,111,110,116,114,111,108,108,101,114,67,111,110,102,105,103,0
00001b02 43746547 
00001b06 72746e6f 
00001b0a 656c6c6f 
00001b0e 6e6f4372 
00001b12 4f676966 
00001b16 43435066 
00001b1a 69666e6f 
00001b1e 20292867 
00001b22 5f6e6143 
00001b26 746e6f43 
00001b2a 6c6c6f72 
00001b2e 6f437265 
00001b32 6769666e 
00001b36 00 
00001b37 01        13048 	.data.b	1
00001b38 0782      13049 	.data.b	130,7
00001b3a 5f6e6143  13050 	.data.b	67,97,110,95,71,101,116,67,111,110,116,114,111,108,108,101,114,68,97,116,97,79,102,80,67,67,111,110,102,105,103,40,41,32,67,97,110,95,67,111,110,116,114,111,108,108,101,114,68,97,116,97,0
00001b3e 43746547 
00001b42 72746e6f 
00001b46 656c6c6f 
00001b4a 74614472 
00001b4e 50664f61 
00001b52 6e6f4343 
00001b56 28676966 
00001b5a 61432029 
00001b5e 6f435f6e 
00001b62 6f72746e 
00001b66 72656c6c 
00001b6a 61746144 
00001b6e 00 
00001b6f 01        13051 	.data.b	1
00001b70 0783      13052 	.data.b	131,7
00001b72 5f6e6143  13053 	.data.b	67,97,110,95,71,101,116,73,110,105,116,66,97,115,105,99,67,97,110,73,110,100,101,120,79,102,80,67,67,111,110,102,105,103,40,41,32,67,97,110,95,73,110,105,116,66,97,115,105,99,67,97,110,73,110,100,101,120,0
00001b76 49746547 
00001b7a 4274696e 

                                                                      Page 276
                                                              C:\Users\Fengyuan\AppData\Local\Temp\gh_0000sro1.s
00001b7e 63697361 
00001b82 496e6143 
00001b86 7865646e 
00001b8a 4350664f 
00001b8e 666e6f43 
00001b92 29286769 
00001b96 6e614320 
00001b9a 696e495f 
00001b9e 73614274 
00001ba2 61436369 
00001ba6 646e496e 
00001baa 007865 
00001bad 01        13054 	.data.b	1
00001bae 0784      13055 	.data.b	132,7
00001bb0 5f6e6143  13056 	.data.b	67,97,110,95,71,101,116,73,110,105,116,66,97,115,105,99,67,97,110,79,102,80,67,67,111,110,102,105,103,40,41,32,67,97,110,95,73,110,105,116,66,97,115,105,99,67,97,110,0
00001bb4 49746547 
00001bb8 4274696e 
00001bbc 63697361 
00001bc0 4f6e6143 
00001bc4 43435066 
00001bc8 69666e6f 
00001bcc 20292867 
00001bd0 5f6e6143 
00001bd4 74696e49 
00001bd8 69736142 
00001bdc 6e614363 
00001be0 00 
00001be1 01        13057 	.data.b	1
00001be2 0785      13058 	.data.b	133,7
00001be4 5f6e6143  13059 	.data.b	67,97,110,95,71,101,116,73,110,105,116,79,98,106,101,99,116,66,97,117,100,114,97,116,101,79,102,80,67,67,111,110,102,105,103,40,41,32,67,97,110,95,73,110,105,116,79,98,106,101,99,116,66,97,117,100,114,97,116,101
00001be8 49746547 
00001bec 4f74696e 
00001bf0 63656a62 
00001bf4 75614274 
00001bf8 74617264 
00001bfc 50664f65 
00001c00 6e6f4343 
00001c04 28676966 
00001c08 61432029 
00001c0c 6e495f6e 
00001c10 624f7469 
00001c14 7463656a 
00001c18 64756142 
00001c1c 65746172 
00001c20 00        13060 	.data.b	0
00001c21 01        13061 	.data.b	1
00001c22 0786      13062 	.data.b	134,7
00001c24 5f6e6143  13063 	.data.b	67,97,110,95,71,101,116,73,110,105,116,79,98,106,101,99,116,79,102,80,67,67,111,110,102,105,103,40,41,32,67,97,110,95,73,110,105,116,79,98,106,101,99,116,0
00001c28 49746547 
00001c2c 4f74696e 
00001c30 63656a62 
00001c34 50664f74 
00001c38 6e6f4343 
00001c3c 28676966 
00001c40 61432029 
00001c44 6e495f6e 
00001c48 624f7469 
00001c4c 7463656a 
00001c50 00 
00001c51 01        13064 	.data.b	1
00001c52 0787      13065 	.data.b	135,7

                                                                      Page 277
                                                              C:\Users\Fengyuan\AppData\Local\Temp\gh_0000sro1.s
00001c54 5f6e6143  13066 	.data.b	67,97,110,95,71,101,116,73,110,105,116,79,98,106,101,99,116,83,116,97,114,116,73,110,100,101,120,79,102,80,67,67,111,110,102,105,103,40,41,32,67,97,110,95,73,110,105,116,79,98,106,101,99,116,83,116,97,114,116,73
00001c58 49746547 
00001c5c 4f74696e 
00001c60 63656a62 
00001c64 61745374 
00001c68 6e497472 
00001c6c 4f786564 
00001c70 43435066 
00001c74 69666e6f 
00001c78 20292867 
00001c7c 5f6e6143 
00001c80 74696e49 
00001c84 656a624f 
00001c88 74537463 
00001c8c 49747261 
00001c90 7865646e  13067 	.data.b	110,100,101,120,0
00001c94 00 
00001c95 01        13068 	.data.b	1
00001c96 0788      13069 	.data.b	136,7
00001c98 5f6e6143  13070 	.data.b	67,97,110,95,71,101,116,77,97,105,108,98,111,120,79,102,80,67,67,111,110,102,105,103,40,41,32,67,97,110,95,77,97,105,108,98,111,120,0
00001c9c 4d746547 
00001ca0 626c6961 
00001ca4 664f786f 
00001ca8 6f434350 
00001cac 6769666e 
00001cb0 43202928 
00001cb4 4d5f6e61 
00001cb8 626c6961 
00001cbc 00786f 
00001cbf 01        13071 	.data.b	1
00001cc0 0789      13072 	.data.b	137,7
00001cc2 5f6e6143  13073 	.data.b	67,97,110,95,71,101,116,80,108,97,116,102,111,114,109,68,108,108,95,71,101,110,101,114,97,116,111,114,86,101,114,115,105,111,110,79,102,80,67,67,111,110,102,105,103,40,41,32,48,120,48,49,48,49,117,0
00001cc6 50746547 
00001cca 6674616c 
00001cce 446d726f 
00001cd2 475f6c6c 
00001cd6 72656e65 
00001cda 726f7461 
00001cde 73726556 
00001ce2 4f6e6f69 
00001ce6 43435066 
00001cea 69666e6f 
00001cee 20292867 
00001cf2 31307830 
00001cf6 00753130 
00001cfa 01        13074 	.data.b	1
00001cfb 0792      13075 	.data.b	146,7
00001cfd 5f6e6143  13076 	.data.b	67,97,110,95,71,101,116,83,105,122,101,79,102,77,97,105,108,98,111,120,79,102,80,67,67,111,110,102,105,103,40,41,32,51,117,0
00001d01 53746547 
00001d05 4f657a69 
00001d09 69614d66 
00001d0d 786f626c 
00001d11 4350664f 
00001d15 666e6f43 
00001d19 29286769 
00001d1d 00753320 
00001d21 01        13077 	.data.b	1
00001d22 0794      13078 	.data.b	148,7
00001d24 5f6e6143  13079 	.data.b	67,97,110,95,71,101,116,84,120,79,102,102,115,101,116,72,119,84,111,76,111,103,79,102,80,67,67,111,110,102,105,103,40,41,32,67,97,110,95,84,120,79,102,102,115,101,116,72,119,84,111,76,111,103,0
00001d28 54746547 
00001d2c 66664f78 

                                                                      Page 278
                                                              C:\Users\Fengyuan\AppData\Local\Temp\gh_0000sro1.s
00001d30 48746573 
00001d34 4c6f5477 
00001d38 664f676f 
00001d3c 6f434350 
00001d40 6769666e 
00001d44 43202928 
00001d48 545f6e61 
00001d4c 66664f78 
00001d50 48746573 
00001d54 4c6f5477 
00001d58 00676f 
00001d5b 01        13080 	.data.b	1
00001d5c 07a8      13081 	.data.b	168,7
00001d5e 5f6e6143  13082 	.data.b	67,97,110,95,71,101,116,80,100,117,79,102,65,99,116,105,118,101,83,101,110,100,79,98,106,101,99,116,40,73,110,100,101,120,41,32,40,67,97,110,95,71,101,116,65,99,116,105,118,101,83,101,110,100,79,98,106,101,99,116
00001d62 50746547 
00001d66 664f7564 
00001d6a 69746341 
00001d6e 65536576 
00001d72 624f646e 
00001d76 7463656a 
00001d7a 646e4928 
00001d7e 20297865 
00001d82 6e614328 
00001d86 7465475f 
00001d8a 69746341 
00001d8e 65536576 
00001d92 624f646e 
00001d96 7463656a 
00001d9a 4350664f  13083 	.data.b	79,102,80,67,67,111,110,102,105,103,40,41,91,40,73,110,100,101,120,41,93,46,80,100,117,79,102,65,99,116,105,118,101,83,101,110,100,79,98,106,101,99,116,41,0
00001d9e 666e6f43 
00001da2 29286769 
00001da6 6e49285b 
00001daa 29786564 
00001dae 64502e5d 
00001db2 41664f75 
00001db6 76697463 
00001dba 6e655365 
00001dbe 6a624f64 
00001dc2 29746365 
00001dc6 00 
00001dc7 01        13084 	.data.b	1
00001dc8 07a9      13085 	.data.b	169,7
00001dca 5f6e6143  13086 	.data.b	67,97,110,95,71,101,116,83,116,97,116,101,79,102,65,99,116,105,118,101,83,101,110,100,79,98,106,101,99,116,40,73,110,100,101,120,41,32,40,67,97,110,95,71,101,116,65,99,116,105,118,101,83,101,110,100,79,98,106,101
00001dce 53746547 
00001dd2 65746174 
00001dd6 6341664f 
00001dda 65766974 
00001dde 646e6553 
00001de2 656a624f 
00001de6 49287463 
00001dea 7865646e 
00001dee 43282029 
00001df2 475f6e61 
00001df6 63417465 
00001dfa 65766974 
00001dfe 646e6553 
00001e02 656a624f 
00001e06 664f7463  13087 	.data.b	99,116,79,102,80,67,67,111,110,102,105,103,40,41,91,40,73,110,100,101,120,41,93,46,83,116,97,116,101,79,102,65,99,116,105,118,101,83,101,110,100,79,98,106,101,99,116,41,0
00001e0a 6f434350 
00001e0e 6769666e 
00001e12 285b2928 

                                                                      Page 279
                                                              C:\Users\Fengyuan\AppData\Local\Temp\gh_0000sro1.s
00001e16 65646e49 
00001e1a 2e5d2978 
00001e1e 74617453 
00001e22 41664f65 
00001e26 76697463 
00001e2a 6e655365 
00001e2e 6a624f64 
00001e32 29746365 
00001e36 00 
00001e37 01        13088 	.data.b	1
00001e38 07aa      13089 	.data.b	170,7
00001e3a 5f6e6143  13090 	.data.b	67,97,110,95,71,101,116,67,97,110,73,102,67,104,97,110,110,101,108,73,100,40,73,110,100,101,120,41,32,40,67,97,110,95,71,101,116,67,97,110,73,102,67,104,97,110,110,101,108,73,100,79,102,80,67,67,111,110,102,105
00001e3e 43746547 
00001e42 66496e61 
00001e46 6e616843 
00001e4a 496c656e 
00001e4e 6e492864 
00001e52 29786564 
00001e56 61432820 
00001e5a 65475f6e 
00001e5e 6e614374 
00001e62 68436649 
00001e66 656e6e61 
00001e6a 4f64496c 
00001e6e 43435066 
00001e72 69666e6f 
00001e76 5b292867  13091 	.data.b	103,40,41,91,40,73,110,100,101,120,41,93,41,0
00001e7a 646e4928 
00001e7e 5d297865 
00001e82 0029 
00001e84 01        13092 	.data.b	1
00001e85 07ab      13093 	.data.b	171,7
00001e87 5f6e6143  13094 	.data.b	67,97,110,95,71,101,116,66,97,115,101,65,100,100,114,101,115,115,79,102,67,111,110,116,114,111,108,108,101,114,67,111,110,102,105,103,40,73,110,100,101,120,41,32,40,67,97,110,95,71,101,116,67,111,110,116,114,111,108,108
00001e8b 42746547 
00001e8f 41657361 
00001e93 65726464 
00001e97 664f7373 
00001e9b 746e6f43 
00001e9f 6c6c6f72 
00001ea3 6f437265 
00001ea7 6769666e 
00001eab 646e4928 
00001eaf 20297865 
00001eb3 6e614328 
00001eb7 7465475f 
00001ebb 746e6f43 
00001ebf 6c6c6f72 
00001ec3 6f437265  13095 	.data.b	101,114,67,111,110,102,105,103,79,102,80,67,67,111,110,102,105,103,40,41,91,40,73,110,100,101,120,41,93,46,66,97,115,101,65,100,100,114,101,115,115,79,102,67,111,110,116,114,111,108,108,101,114,67,111,110,102,105,103,41
00001ec7 6769666e 
00001ecb 4350664f 
00001ecf 666e6f43 
00001ed3 29286769 
00001ed7 6e49285b 
00001edb 29786564 
00001edf 61422e5d 
00001ee3 64416573 
00001ee7 73657264 
00001eeb 43664f73 
00001eef 72746e6f 
00001ef3 656c6c6f 
00001ef7 6e6f4372 

                                                                      Page 280
                                                              C:\Users\Fengyuan\AppData\Local\Temp\gh_0000sro1.s
00001efb 29676966 
00001eff 00        13096 	.data.b	0
00001f00 01        13097 	.data.b	1
00001f01 07ac      13098 	.data.b	172,7
00001f03 5f6e6143  13099 	.data.b	67,97,110,95,71,101,116,67,97,110,67,111,110,116,114,111,108,108,101,114,68,101,102,97,117,108,116,66,97,117,100,114,97,116,101,79,102,67,111,110,116,114,111,108,108,101,114,67,111,110,102,105,103,40,73,110,100,101,120,41
00001f07 43746547 
00001f0b 6f436e61 
00001f0f 6f72746e 
00001f13 72656c6c 
00001f17 61666544 
00001f1b 42746c75 
00001f1f 72647561 
00001f23 4f657461 
00001f27 6e6f4366 
00001f2b 6c6f7274 
00001f2f 4372656c 
00001f33 69666e6f 
00001f37 6e492867 
00001f3b 29786564 
00001f3f 61432820  13100 	.data.b	32,40,67,97,110,95,71,101,116,67,111,110,116,114,111,108,108,101,114,67,111,110,102,105,103,79,102,80,67,67,111,110,102,105,103,40,41,91,40,73,110,100,101,120,41,93,46,67,97,110,67,111,110,116,114,111,108,108,101,114
00001f43 65475f6e 
00001f47 6e6f4374 
00001f4b 6c6f7274 
00001f4f 4372656c 
00001f53 69666e6f 
00001f57 50664f67 
00001f5b 6e6f4343 
00001f5f 28676966 
00001f63 49285b29 
00001f67 7865646e 
00001f6b 432e5d29 
00001f6f 6f436e61 
00001f73 6f72746e 
00001f77 72656c6c 
00001f7b 61666544  13101 	.data.b	68,101,102,97,117,108,116,66,97,117,100,114,97,116,101,79,102,67,111,110,116,114,111,108,108,101,114,67,111,110,102,105,103,41,0
00001f7f 42746c75 
00001f83 72647561 
00001f87 4f657461 
00001f8b 6e6f4366 
00001f8f 6c6f7274 
00001f93 4372656c 
00001f97 69666e6f 
00001f9b 002967 
00001f9e 01        13102 	.data.b	1
00001f9f 07ad      13103 	.data.b	173,7
00001fa1 5f6e6143  13104 	.data.b	67,97,110,95,71,101,116,73,110,116,101,114,114,117,112,116,77,97,115,107,49,79,102,67,111,110,116,114,111,108,108,101,114,67,111,110,102,105,103,40,73,110,100,101,120,41,32,40,67,97,110,95,71,101,116,67,111,110,116,114
00001fa5 49746547 
00001fa9 7265746e 
00001fad 74707572 
00001fb1 6b73614d 
00001fb5 43664f31 
00001fb9 72746e6f 
00001fbd 656c6c6f 
00001fc1 6e6f4372 
00001fc5 28676966 
00001fc9 65646e49 
00001fcd 28202978 
00001fd1 5f6e6143 
00001fd5 43746547 
00001fd9 72746e6f 
00001fdd 656c6c6f  13105 	.data.b	111,108,108,101,114,67,111,110,102,105,103,79,102,80,67,67,111,110,102,105,103,40,41,91,40,73,110,100,101,120,41,93,46,73,110,116,101,114,114,117,112,116,77,97,115,107,49,79,102,67,111,110,116,114,111,108,108,101,114,67

                                                                      Page 281
                                                              C:\Users\Fengyuan\AppData\Local\Temp\gh_0000sro1.s
00001fe1 6e6f4372 
00001fe5 4f676966 
00001fe9 43435066 
00001fed 69666e6f 
00001ff1 5b292867 
00001ff5 646e4928 
00001ff9 5d297865 
00001ffd 746e492e 
00002001 75727265 
00002005 614d7470 
00002009 4f316b73 
0000200d 6e6f4366 
00002011 6c6f7274 
00002015 4372656c 
00002019 69666e6f  13106 	.data.b	111,110,102,105,103,41,0
0000201d 002967 
00002020 01        13107 	.data.b	1
00002021 07af      13108 	.data.b	175,7
00002023 5f6e6143  13109 	.data.b	67,97,110,95,71,101,116,77,97,105,108,98,111,120,82,120,66,97,115,105,99,69,110,100,73,100,120,79,102,67,111,110,116,114,111,108,108,101,114,67,111,110,102,105,103,40,73,110,100,101,120,41,32,40,67,97,110,95,71,101
00002027 4d746547 
0000202b 626c6961 
0000202f 7852786f 
00002033 69736142 
00002037 646e4563 
0000203b 4f786449 
0000203f 6e6f4366 
00002043 6c6f7274 
00002047 4372656c 
0000204b 69666e6f 
0000204f 6e492867 
00002053 29786564 
00002057 61432820 
0000205b 65475f6e 
0000205f 6e6f4374  13110 	.data.b	116,67,111,110,116,114,111,108,108,101,114,67,111,110,102,105,103,79,102,80,67,67,111,110,102,105,103,40,41,91,40,73,110,100,101,120,41,93,46,77,97,105,108,98,111,120,82,120,66,97,115,105,99,69,110,100,73,100,120,79
00002063 6c6f7274 
00002067 4372656c 
0000206b 69666e6f 
0000206f 50664f67 
00002073 6e6f4343 
00002077 28676966 
0000207b 49285b29 
0000207f 7865646e 
00002083 4d2e5d29 
00002087 626c6961 
0000208b 7852786f 
0000208f 69736142 
00002093 646e4563 
00002097 4f786449 
0000209b 6e6f4366  13111 	.data.b	102,67,111,110,116,114,111,108,108,101,114,67,111,110,102,105,103,41,0
0000209f 6c6f7274 
000020a3 4372656c 
000020a7 69666e6f 
000020ab 002967 
000020ae 01        13112 	.data.b	1
000020af 07b0      13113 	.data.b	176,7
000020b1 5f6e6143  13114 	.data.b	67,97,110,95,71,101,116,77,97,105,108,98,111,120,82,120,66,97,115,105,99,76,101,110,103,116,104,79,102,67,111,110,116,114,111,108,108,101,114,67,111,110,102,105,103,40,73,110,100,101,120,41,32,40,67,97,110,95,71,101
000020b5 4d746547 
000020b9 626c6961 
000020bd 7852786f 
000020c1 69736142 
000020c5 6e654c63 

                                                                      Page 282
                                                              C:\Users\Fengyuan\AppData\Local\Temp\gh_0000sro1.s
000020c9 4f687467 
000020cd 6e6f4366 
000020d1 6c6f7274 
000020d5 4372656c 
000020d9 69666e6f 
000020dd 6e492867 
000020e1 29786564 
000020e5 61432820 
000020e9 65475f6e 
000020ed 6e6f4374  13115 	.data.b	116,67,111,110,116,114,111,108,108,101,114,67,111,110,102,105,103,79,102,80,67,67,111,110,102,105,103,40,41,91,40,73,110,100,101,120,41,93,46,77,97,105,108,98,111,120,82,120,66,97,115,105,99,76,101,110,103,116,104,79
000020f1 6c6f7274 
000020f5 4372656c 
000020f9 69666e6f 
000020fd 50664f67 
00002101 6e6f4343 
00002105 28676966 
00002109 49285b29 
0000210d 7865646e 
00002111 4d2e5d29 
00002115 626c6961 
00002119 7852786f 
0000211d 69736142 
00002121 6e654c63 
00002125 4f687467 
00002129 6e6f4366  13116 	.data.b	102,67,111,110,116,114,111,108,108,101,114,67,111,110,102,105,103,41,0
0000212d 6c6f7274 
00002131 4372656c 
00002135 69666e6f 
00002139 002967 
0000213c 01        13117 	.data.b	1
0000213d 07b1      13118 	.data.b	177,7
0000213f 5f6e6143  13119 	.data.b	67,97,110,95,71,101,116,77,97,105,108,98,111,120,82,120,66,97,115,105,99,83,116,97,114,116,73,100,120,79,102,67,111,110,116,114,111,108,108,101,114,67,111,110,102,105,103,40,73,110,100,101,120,41,32,40,67,97,110,95
00002143 4d746547 
00002147 626c6961 
0000214b 7852786f 
0000214f 69736142 
00002153 61745363 
00002157 64497472 
0000215b 43664f78 
0000215f 72746e6f 
00002163 656c6c6f 
00002167 6e6f4372 
0000216b 28676966 
0000216f 65646e49 
00002173 28202978 
00002177 5f6e6143 
0000217b 43746547  13120 	.data.b	71,101,116,67,111,110,116,114,111,108,108,101,114,67,111,110,102,105,103,79,102,80,67,67,111,110,102,105,103,40,41,91,40,73,110,100,101,120,41,93,46,77,97,105,108,98,111,120,82,120,66,97,115,105,99,83,116,97,114,116
0000217f 72746e6f 
00002183 656c6c6f 
00002187 6e6f4372 
0000218b 4f676966 
0000218f 43435066 
00002193 69666e6f 
00002197 5b292867 
0000219b 646e4928 
0000219f 5d297865 
000021a3 69614d2e 
000021a7 786f626c 
000021ab 61427852 
000021af 53636973 
000021b3 74726174 

                                                                      Page 283
                                                              C:\Users\Fengyuan\AppData\Local\Temp\gh_0000sro1.s
000021b7 4f786449  13121 	.data.b	73,100,120,79,102,67,111,110,116,114,111,108,108,101,114,67,111,110,102,105,103,41,0
000021bb 6e6f4366 
000021bf 6c6f7274 
000021c3 4372656c 
000021c7 69666e6f 
000021cb 002967 
000021ce 01        13122 	.data.b	1
000021cf 07b3      13123 	.data.b	179,7
000021d1 5f6e6143  13124 	.data.b	67,97,110,95,71,101,116,77,97,105,108,98,111,120,84,120,66,97,115,105,99,76,101,110,103,116,104,79,102,67,111,110,116,114,111,108,108,101,114,67,111,110,102,105,103,40,73,110,100,101,120,41,32,40,67,97,110,95,71,101
000021d5 4d746547 
000021d9 626c6961 
000021dd 7854786f 
000021e1 69736142 
000021e5 6e654c63 
000021e9 4f687467 
000021ed 6e6f4366 
000021f1 6c6f7274 
000021f5 4372656c 
000021f9 69666e6f 
000021fd 6e492867 
00002201 29786564 
00002205 61432820 
00002209 65475f6e 
0000220d 6e6f4374  13125 	.data.b	116,67,111,110,116,114,111,108,108,101,114,67,111,110,102,105,103,79,102,80,67,67,111,110,102,105,103,40,41,91,40,73,110,100,101,120,41,93,46,77,97,105,108,98,111,120,84,120,66,97,115,105,99,76,101,110,103,116,104,79
00002211 6c6f7274 
00002215 4372656c 
00002219 69666e6f 
0000221d 50664f67 
00002221 6e6f4343 
00002225 28676966 
00002229 49285b29 
0000222d 7865646e 
00002231 4d2e5d29 
00002235 626c6961 
00002239 7854786f 
0000223d 69736142 
00002241 6e654c63 
00002245 4f687467 
00002249 6e6f4366  13126 	.data.b	102,67,111,110,116,114,111,108,108,101,114,67,111,110,102,105,103,41,0
0000224d 6c6f7274 
00002251 4372656c 
00002255 69666e6f 
00002259 002967 
0000225c 01        13127 	.data.b	1
0000225d 07b4      13128 	.data.b	180,7
0000225f 5f6e6143  13129 	.data.b	67,97,110,95,71,101,116,77,97,105,108,98,111,120,84,120,66,97,115,105,99,83,116,97,114,116,73,100,120,79,102,67,111,110,116,114,111,108,108,101,114,67,111,110,102,105,103,40,73,110,100,101,120,41,32,40,67,97,110,95
00002263 4d746547 
00002267 626c6961 
0000226b 7854786f 
0000226f 69736142 
00002273 61745363 
00002277 64497472 
0000227b 43664f78 
0000227f 72746e6f 
00002283 656c6c6f 
00002287 6e6f4372 
0000228b 28676966 
0000228f 65646e49 
00002293 28202978 
00002297 5f6e6143 
0000229b 43746547  13130 	.data.b	71,101,116,67,111,110,116,114,111,108,108,101,114,67,111,110,102,105,103,79,102,80,67,67,111,110,102,105,103,40,41,91,40,73,110,100,101,120,41,93,46,77,97,105,108,98,111,120,84,120,66,97,115,105,99,83,116,97,114,116

                                                                      Page 284
                                                              C:\Users\Fengyuan\AppData\Local\Temp\gh_0000sro1.s
0000229f 72746e6f 
000022a3 656c6c6f 
000022a7 6e6f4372 
000022ab 4f676966 
000022af 43435066 
000022b3 69666e6f 
000022b7 5b292867 
000022bb 646e4928 
000022bf 5d297865 
000022c3 69614d2e 
000022c7 786f626c 
000022cb 61427854 
000022cf 53636973 
000022d3 74726174 
000022d7 4f786449  13131 	.data.b	73,100,120,79,102,67,111,110,116,114,111,108,108,101,114,67,111,110,102,105,103,41,0
000022db 6e6f4366 
000022df 6c6f7274 
000022e3 4372656c 
000022e7 69666e6f 
000022eb 002967 
000022ee 01        13132 	.data.b	1
000022ef 07b6      13133 	.data.b	182,7
000022f1 5f6e6143  13134 	.data.b	67,97,110,95,71,101,116,77,97,105,108,98,111,120,85,110,117,115,101,100,76,101,110,103,116,104,79,102,67,111,110,116,114,111,108,108,101,114,67,111,110,102,105,103,40,73,110,100,101,120,41,32,40,67,97,110,95,71,101,116
000022f5 4d746547 
000022f9 626c6961 
000022fd 6e55786f 
00002301 64657375 
00002305 676e654c 
00002309 664f6874 
0000230d 746e6f43 
00002311 6c6c6f72 
00002315 6f437265 
00002319 6769666e 
0000231d 646e4928 
00002321 20297865 
00002325 6e614328 
00002329 7465475f 
0000232d 746e6f43  13135 	.data.b	67,111,110,116,114,111,108,108,101,114,67,111,110,102,105,103,79,102,80,67,67,111,110,102,105,103,40,41,91,40,73,110,100,101,120,41,93,46,77,97,105,108,98,111,120,85,110,117,115,101,100,76,101,110,103,116,104,79,102,67
00002331 6c6c6f72 
00002335 6f437265 
00002339 6769666e 
0000233d 4350664f 
00002341 666e6f43 
00002345 29286769 
00002349 6e49285b 
0000234d 29786564 
00002351 614d2e5d 
00002355 6f626c69 
00002359 756e5578 
0000235d 4c646573 
00002361 74676e65 
00002365 43664f68 
00002369 72746e6f  13136 	.data.b	111,110,116,114,111,108,108,101,114,67,111,110,102,105,103,41,0
0000236d 656c6c6f 
00002371 6e6f4372 
00002375 29676966 
00002379 00 
0000237a 01        13137 	.data.b	1
0000237b 07b8      13138 	.data.b	184,7
0000237d 5f6e6143  13139 	.data.b	67,97,110,95,71,101,116,78,117,109,98,101,114,79,102,70,105,108,116,101,114,115,79,102,67,111,110,116,114,111,108,108,101,114,67,111,110,102,105,103,40,73,110,100,101,120,41,32,40,67,97,110,95,71,101,116,67,111,110,116
00002381 4e746547 

                                                                      Page 285
                                                              C:\Users\Fengyuan\AppData\Local\Temp\gh_0000sro1.s
00002385 65626d75 
00002389 46664f72 
0000238d 65746c69 
00002391 664f7372 
00002395 746e6f43 
00002399 6c6c6f72 
0000239d 6f437265 
000023a1 6769666e 
000023a5 646e4928 
000023a9 20297865 
000023ad 6e614328 
000023b1 7465475f 
000023b5 746e6f43 
000023b9 6c6c6f72  13140 	.data.b	114,111,108,108,101,114,67,111,110,102,105,103,79,102,80,67,67,111,110,102,105,103,40,41,91,40,73,110,100,101,120,41,93,46,78,117,109,98,101,114,79,102,70,105,108,116,101,114,115,79,102,67,111,110,116,114,111,108,108,101
000023bd 6f437265 
000023c1 6769666e 
000023c5 4350664f 
000023c9 666e6f43 
000023cd 29286769 
000023d1 6e49285b 
000023d5 29786564 
000023d9 754e2e5d 
000023dd 7265626d 
000023e1 6946664f 
000023e5 7265746c 
000023e9 43664f73 
000023ed 72746e6f 
000023f1 656c6c6f 
000023f5 6e6f4372  13141 	.data.b	114,67,111,110,102,105,103,41,0
000023f9 29676966 
000023fd 00 
000023fe 01        13142 	.data.b	1
000023ff 07b9      13143 	.data.b	185,7
00002401 5f6e6143  13144 	.data.b	67,97,110,95,71,101,116,78,117,109,98,101,114,79,102,70,117,108,108,67,111,110,102,105,103,117,114,97,98,108,101,70,105,108,116,101,114,115,79,102,67,111,110,116,114,111,108,108,101,114,67,111,110,102,105,103,40,73,110,100
00002405 4e746547 
00002409 65626d75 
0000240d 46664f72 
00002411 436c6c75 
00002415 69666e6f 
00002419 61727567 
0000241d 46656c62 
00002421 65746c69 
00002425 664f7372 
00002429 746e6f43 
0000242d 6c6c6f72 
00002431 6f437265 
00002435 6769666e 
00002439 646e4928 
0000243d 20297865  13145 	.data.b	101,120,41,32,40,67,97,110,95,71,101,116,67,111,110,116,114,111,108,108,101,114,67,111,110,102,105,103,79,102,80,67,67,111,110,102,105,103,40,41,91,40,73,110,100,101,120,41,93,46,78,117,109,98,101,114,79,102,70,117
00002441 6e614328 
00002445 7465475f 
00002449 746e6f43 
0000244d 6c6c6f72 
00002451 6f437265 
00002455 6769666e 
00002459 4350664f 
0000245d 666e6f43 
00002461 29286769 
00002465 6e49285b 
00002469 29786564 
0000246d 754e2e5d 

                                                                      Page 286
                                                              C:\Users\Fengyuan\AppData\Local\Temp\gh_0000sro1.s
00002471 7265626d 
00002475 7546664f 
00002479 6f436c6c  13146 	.data.b	108,108,67,111,110,102,105,103,117,114,97,98,108,101,70,105,108,116,101,114,115,79,102,67,111,110,116,114,111,108,108,101,114,67,111,110,102,105,103,41,0
0000247d 6769666e 
00002481 62617275 
00002485 6946656c 
00002489 7265746c 
0000248d 43664f73 
00002491 72746e6f 
00002495 656c6c6f 
00002499 6e6f4372 
0000249d 29676966 
000024a1 00 
000024a2 01        13147 	.data.b	1
000024a3 07bb      13148 	.data.b	187,7
000024a5 5f6e6143  13149 	.data.b	67,97,110,95,71,101,116,82,70,70,78,79,102,67,111,110,116,114,111,108,108,101,114,67,111,110,102,105,103,40,73,110,100,101,120,41,32,40,67,97,110,95,71,101,116,67,111,110,116,114,111,108,108,101,114,67,111,110,102,105
000024a9 52746547 
000024ad 4f4e4646 
000024b1 6e6f4366 
000024b5 6c6f7274 
000024b9 4372656c 
000024bd 69666e6f 
000024c1 6e492867 
000024c5 29786564 
000024c9 61432820 
000024cd 65475f6e 
000024d1 6e6f4374 
000024d5 6c6f7274 
000024d9 4372656c 
000024dd 69666e6f 
000024e1 50664f67  13150 	.data.b	103,79,102,80,67,67,111,110,102,105,103,40,41,91,40,73,110,100,101,120,41,93,46,82,70,70,78,79,102,67,111,110,116,114,111,108,108,101,114,67,111,110,102,105,103,41,0
000024e5 6e6f4343 
000024e9 28676966 
000024ed 49285b29 
000024f1 7865646e 
000024f5 522e5d29 
000024f9 4f4e4646 
000024fd 6e6f4366 
00002501 6c6f7274 
00002505 4372656c 
00002509 69666e6f 
0000250d 002967 
00002510 01        13151 	.data.b	1
00002511 07bc      13152 	.data.b	188,7
00002513 5f6e6143  13153 	.data.b	67,97,110,95,71,101,116,82,120,66,97,115,105,99,72,119,83,116,97,114,116,79,102,67,111,110,116,114,111,108,108,101,114,67,111,110,102,105,103,40,73,110,100,101,120,41,32,40,67,97,110,95,71,101,116,67,111,110,116,114
00002517 52746547 
0000251b 73614278 
0000251f 77486369 
00002523 72617453 
00002527 43664f74 
0000252b 72746e6f 
0000252f 656c6c6f 
00002533 6e6f4372 
00002537 28676966 
0000253b 65646e49 
0000253f 28202978 
00002543 5f6e6143 
00002547 43746547 
0000254b 72746e6f 
0000254f 656c6c6f  13154 	.data.b	111,108,108,101,114,67,111,110,102,105,103,79,102,80,67,67,111,110,102,105,103,40,41,91,40,73,110,100,101,120,41,93,46,82,120,66,97,115,105,99,72,119,83,116,97,114,116,79,102,67,111,110,116,114,111,108,108,101,114,67
00002553 6e6f4372 

                                                                      Page 287
                                                              C:\Users\Fengyuan\AppData\Local\Temp\gh_0000sro1.s
00002557 4f676966 
0000255b 43435066 
0000255f 69666e6f 
00002563 5b292867 
00002567 646e4928 
0000256b 5d297865 
0000256f 4278522e 
00002573 63697361 
00002577 74537748 
0000257b 4f747261 
0000257f 6e6f4366 
00002583 6c6f7274 
00002587 4372656c 
0000258b 69666e6f  13155 	.data.b	111,110,102,105,103,41,0
0000258f 002967 
00002592 01        13156 	.data.b	1
00002593 07c0      13157 	.data.b	192,7
00002595 5f6e6143  13158 	.data.b	67,97,110,95,71,101,116,84,120,66,97,115,105,99,72,119,83,116,97,114,116,79,102,67,111,110,116,114,111,108,108,101,114,67,111,110,102,105,103,40,73,110,100,101,120,41,32,40,67,97,110,95,71,101,116,67,111,110,116,114
00002599 54746547 
0000259d 73614278 
000025a1 77486369 
000025a5 72617453 
000025a9 43664f74 
000025ad 72746e6f 
000025b1 656c6c6f 
000025b5 6e6f4372 
000025b9 28676966 
000025bd 65646e49 
000025c1 28202978 
000025c5 5f6e6143 
000025c9 43746547 
000025cd 72746e6f 
000025d1 656c6c6f  13159 	.data.b	111,108,108,101,114,67,111,110,102,105,103,79,102,80,67,67,111,110,102,105,103,40,41,91,40,73,110,100,101,120,41,93,46,84,120,66,97,115,105,99,72,119,83,116,97,114,116,79,102,67,111,110,116,114,111,108,108,101,114,67
000025d5 6e6f4372 
000025d9 4f676966 
000025dd 43435066 
000025e1 69666e6f 
000025e5 5b292867 
000025e9 646e4928 
000025ed 5d297865 
000025f1 4278542e 
000025f5 63697361 
000025f9 74537748 
000025fd 4f747261 
00002601 6e6f4366 
00002605 6c6f7274 
00002609 4372656c 
0000260d 69666e6f  13160 	.data.b	111,110,102,105,103,41,0
00002611 002967 
00002614 01        13161 	.data.b	1
00002615 07c3      13162 	.data.b	195,7
00002617 5f6e6143  13163 	.data.b	67,97,110,95,71,101,116,84,120,70,117,108,108,72,119,83,116,111,112,79,102,67,111,110,116,114,111,108,108,101,114,67,111,110,102,105,103,40,73,110,100,101,120,41,32,40,67,97,110,95,71,101,116,67,111,110,116,114,111,108
0000261b 54746547 
0000261f 6c754678 
00002623 5377486c 
00002627 4f706f74 
0000262b 6e6f4366 
0000262f 6c6f7274 
00002633 4372656c 
00002637 69666e6f 
0000263b 6e492867 

                                                                      Page 288
                                                              C:\Users\Fengyuan\AppData\Local\Temp\gh_0000sro1.s
0000263f 29786564 
00002643 61432820 
00002647 65475f6e 
0000264b 6e6f4374 
0000264f 6c6f7274 
00002653 4372656c  13164 	.data.b	108,101,114,67,111,110,102,105,103,79,102,80,67,67,111,110,102,105,103,40,41,91,40,73,110,100,101,120,41,93,46,84,120,70,117,108,108,72,119,83,116,111,112,79,102,67,111,110,116,114,111,108,108,101,114,67,111,110,102,105
00002657 69666e6f 
0000265b 50664f67 
0000265f 6e6f4343 
00002663 28676966 
00002667 49285b29 
0000266b 7865646e 
0000266f 542e5d29 
00002673 6c754678 
00002677 5377486c 
0000267b 4f706f74 
0000267f 6e6f4366 
00002683 6c6f7274 
00002687 4372656c 
0000268b 69666e6f 
0000268f 002967    13165 	.data.b	103,41,0
00002692 01        13166 	.data.b	1
00002693 07c6      13167 	.data.b	198,7
00002695 5f6e6143  13168 	.data.b	67,97,110,95,71,101,116,66,117,115,79,102,102,67,111,117,110,116,101,114,79,102,67,111,110,116,114,111,108,108,101,114,68,97,116,97,40,73,110,100,101,120,41,32,40,67,97,110,95,71,101,116,67,111,110,116,114,111,108,108
00002699 42746547 
0000269d 664f7375 
000026a1 756f4366 
000026a5 7265746e 
000026a9 6f43664f 
000026ad 6f72746e 
000026b1 72656c6c 
000026b5 61746144 
000026b9 646e4928 
000026bd 20297865 
000026c1 6e614328 
000026c5 7465475f 
000026c9 746e6f43 
000026cd 6c6c6f72 
000026d1 61447265  13169 	.data.b	101,114,68,97,116,97,79,102,80,67,67,111,110,102,105,103,40,41,91,40,73,110,100,101,120,41,93,46,66,117,115,79,102,102,67,111,117,110,116,101,114,79,102,67,111,110,116,114,111,108,108,101,114,68,97,116,97,41,0
000026d5 664f6174 
000026d9 6f434350 
000026dd 6769666e 
000026e1 285b2928 
000026e5 65646e49 
000026e9 2e5d2978 
000026ed 4f737542 
000026f1 6f436666 
000026f5 65746e75 
000026f9 43664f72 
000026fd 72746e6f 
00002701 656c6c6f 
00002705 74614472 
00002709 002961 
0000270c 01        13170 	.data.b	1
0000270d 07c7      13171 	.data.b	199,7
0000270f 5f6e6143  13172 	.data.b	67,97,110,95,71,101,116,67,97,110,73,110,116,101,114,114,117,112,116,67,111,117,110,116,101,114,79,102,67,111,110,116,114,111,108,108,101,114,68,97,116,97,40,73,110,100,101,120,41,32,40,67,97,110,95,71,101,116,67,111
00002713 43746547 
00002717 6e496e61 
0000271b 72726574 
0000271f 43747075 
00002723 746e756f 

                                                                      Page 289
                                                              C:\Users\Fengyuan\AppData\Local\Temp\gh_0000sro1.s
00002727 664f7265 
0000272b 746e6f43 
0000272f 6c6c6f72 
00002733 61447265 
00002737 49286174 
0000273b 7865646e 
0000273f 43282029 
00002743 475f6e61 
00002747 6f437465 
0000274b 6f72746e  13173 	.data.b	110,116,114,111,108,108,101,114,68,97,116,97,79,102,80,67,67,111,110,102,105,103,40,41,91,40,73,110,100,101,120,41,93,46,67,97,110,73,110,116,101,114,114,117,112,116,67,111,117,110,116,101,114,79,102,67,111,110,116,114
0000274f 72656c6c 
00002753 61746144 
00002757 4350664f 
0000275b 666e6f43 
0000275f 29286769 
00002763 6e49285b 
00002767 29786564 
0000276b 61432e5d 
0000276f 746e496e 
00002773 75727265 
00002777 6f437470 
0000277b 65746e75 
0000277f 43664f72 
00002783 72746e6f 
00002787 656c6c6f  13174 	.data.b	111,108,108,101,114,68,97,116,97,41,0
0000278b 74614472 
0000278f 002961 
00002792 01        13175 	.data.b	1
00002793 07c8      13176 	.data.b	200,7
00002795 5f6e6143  13177 	.data.b	67,97,110,95,71,101,116,67,97,110,73,110,116,101,114,114,117,112,116,79,108,100,83,116,97,116,117,115,79,102,67,111,110,116,114,111,108,108,101,114,68,97,116,97,40,73,110,100,101,120,41,32,40,67,97,110,95,71,101,116
00002799 43746547 
0000279d 6e496e61 
000027a1 72726574 
000027a5 4f747075 
000027a9 7453646c 
000027ad 73757461 
000027b1 6f43664f 
000027b5 6f72746e 
000027b9 72656c6c 
000027bd 61746144 
000027c1 646e4928 
000027c5 20297865 
000027c9 6e614328 
000027cd 7465475f 
000027d1 746e6f43  13178 	.data.b	67,111,110,116,114,111,108,108,101,114,68,97,116,97,79,102,80,67,67,111,110,102,105,103,40,41,91,40,73,110,100,101,120,41,93,46,67,97,110,73,110,116,101,114,114,117,112,116,79,108,100,83,116,97,116,117,115,79,102,67
000027d5 6c6c6f72 
000027d9 61447265 
000027dd 664f6174 
000027e1 6f434350 
000027e5 6769666e 
000027e9 285b2928 
000027ed 65646e49 
000027f1 2e5d2978 
000027f5 496e6143 
000027f9 7265746e 
000027fd 74707572 
00002801 53646c4f 
00002805 75746174 
00002809 43664f73 
0000280d 72746e6f  13179 	.data.b	111,110,116,114,111,108,108,101,114,68,97,116,97,41,0
00002811 656c6c6f 

                                                                      Page 290
                                                              C:\Users\Fengyuan\AppData\Local\Temp\gh_0000sro1.s
00002815 74614472 
00002819 002961 
0000281c 01        13180 	.data.b	1
0000281d 07c9      13181 	.data.b	201,7
0000281f 5f6e6143  13182 	.data.b	67,97,110,95,73,115,73,115,66,117,115,79,102,102,79,102,67,111,110,116,114,111,108,108,101,114,68,97,116,97,40,73,110,100,101,120,41,32,40,40,67,97,110,95,71,101,116,67,111,110,116,114,111,108,108,101,114,68,97,116
00002823 73497349 
00002827 4f737542 
0000282b 664f6666 
0000282f 746e6f43 
00002833 6c6c6f72 
00002837 61447265 
0000283b 49286174 
0000283f 7865646e 
00002843 28282029 
00002847 5f6e6143 
0000284b 43746547 
0000284f 72746e6f 
00002853 656c6c6f 
00002857 74614472 
0000285b 50664f61  13183 	.data.b	97,79,102,80,67,67,111,110,102,105,103,40,41,91,40,73,110,100,101,120,41,93,46,73,115,66,117,115,79,102,102,79,102,67,111,110,116,114,111,108,108,101,114,68,97,116,97,41,32,33,61,32,70,65,76,83,69,41,0
0000285f 6e6f4343 
00002863 28676966 
00002867 49285b29 
0000286b 7865646e 
0000286f 492e5d29 
00002873 73754273 
00002877 4f66664f 
0000287b 6e6f4366 
0000287f 6c6f7274 
00002883 4472656c 
00002887 29617461 
0000288b 203d2120 
0000288f 534c4146 
00002893 002945 
00002896 01        13184 	.data.b	1
00002897 07ca      13185 	.data.b	202,7
00002899 5f6e6143  13186 	.data.b	67,97,110,95,71,101,116,76,97,115,116,73,110,105,116,79,98,106,101,99,116,79,102,67,111,110,116,114,111,108,108,101,114,68,97,116,97,40,73,110,100,101,120,41,32,40,67,97,110,95,71,101,116,67,111,110,116,114,111,108
0000289d 4c746547 
000028a1 49747361 
000028a5 4f74696e 
000028a9 63656a62 
000028ad 43664f74 
000028b1 72746e6f 
000028b5 656c6c6f 
000028b9 74614472 
000028bd 6e492861 
000028c1 29786564 
000028c5 61432820 
000028c9 65475f6e 
000028cd 6e6f4374 
000028d1 6c6f7274 
000028d5 4472656c  13187 	.data.b	108,101,114,68,97,116,97,79,102,80,67,67,111,110,102,105,103,40,41,91,40,73,110,100,101,120,41,93,46,76,97,115,116,73,110,105,116,79,98,106,101,99,116,79,102,67,111,110,116,114,111,108,108,101,114,68,97,116,97,41
000028d9 4f617461 
000028dd 43435066 
000028e1 69666e6f 
000028e5 5b292867 
000028e9 646e4928 
000028ed 5d297865 
000028f1 73614c2e 
000028f5 696e4974 
000028f9 6a624f74 

                                                                      Page 291
                                                              C:\Users\Fengyuan\AppData\Local\Temp\gh_0000sro1.s
000028fd 4f746365 
00002901 6e6f4366 
00002905 6c6f7274 
00002909 4472656c 
0000290d 29617461 
00002911 00        13188 	.data.b	0
00002912 01        13189 	.data.b	1
00002913 07cb      13190 	.data.b	203,7
00002915 5f6e6143  13191 	.data.b	67,97,110,95,71,101,116,76,111,103,83,116,97,116,117,115,79,102,67,111,110,116,114,111,108,108,101,114,68,97,116,97,40,73,110,100,101,120,41,32,40,67,97,110,95,71,101,116,67,111,110,116,114,111,108,108,101,114,68,97
00002919 4c746547 
0000291d 7453676f 
00002921 73757461 
00002925 6f43664f 
00002929 6f72746e 
0000292d 72656c6c 
00002931 61746144 
00002935 646e4928 
00002939 20297865 
0000293d 6e614328 
00002941 7465475f 
00002945 746e6f43 
00002949 6c6c6f72 
0000294d 61447265 
00002951 664f6174  13192 	.data.b	116,97,79,102,80,67,67,111,110,102,105,103,40,41,91,40,73,110,100,101,120,41,93,46,76,111,103,83,116,97,116,117,115,79,102,67,111,110,116,114,111,108,108,101,114,68,97,116,97,41,0
00002955 6f434350 
00002959 6769666e 
0000295d 285b2928 
00002961 65646e49 
00002965 2e5d2978 
00002969 53676f4c 
0000296d 75746174 
00002971 43664f73 
00002975 72746e6f 
00002979 656c6c6f 
0000297d 74614472 
00002981 002961 
00002984 01        13193 	.data.b	1
00002985 07cc      13194 	.data.b	204,7
00002987 5f6e6143  13195 	.data.b	67,97,110,95,71,101,116,76,111,111,112,84,105,109,101,111,117,116,79,102,67,111,110,116,114,111,108,108,101,114,68,97,116,97,40,73,110,100,101,120,41,32,40,67,97,110,95,71,101,116,67,111,110,116,114,111,108,108,101,114
0000298b 4c746547 
0000298f 54706f6f 
00002993 6f656d69 
00002997 664f7475 
0000299b 746e6f43 
0000299f 6c6c6f72 
000029a3 61447265 
000029a7 49286174 
000029ab 7865646e 
000029af 43282029 
000029b3 475f6e61 
000029b7 6f437465 
000029bb 6f72746e 
000029bf 72656c6c 
000029c3 61746144  13196 	.data.b	68,97,116,97,79,102,80,67,67,111,110,102,105,103,40,41,91,40,73,110,100,101,120,41,93,46,76,111,111,112,84,105,109,101,111,117,116,79,102,67,111,110,116,114,111,108,108,101,114,68,97,116,97,41,0
000029c7 4350664f 
000029cb 666e6f43 
000029cf 29286769 
000029d3 6e49285b 
000029d7 29786564 
000029db 6f4c2e5d 
000029df 6954706f 

                                                                      Page 292
                                                              C:\Users\Fengyuan\AppData\Local\Temp\gh_0000sro1.s
000029e3 756f656d 
000029e7 43664f74 
000029eb 72746e6f 
000029ef 656c6c6f 
000029f3 74614472 
000029f7 002961 
000029fa 01        13197 	.data.b	1
000029fb 07cd      13198 	.data.b	205,7
000029fd 5f6e6143  13199 	.data.b	67,97,110,95,71,101,116,82,120,77,115,103,66,117,102,102,101,114,79,102,67,111,110,116,114,111,108,108,101,114,68,97,116,97,40,73,110,100,101,120,41,32,40,67,97,110,95,71,101,116,67,111,110,116,114,111,108,108,101,114
00002a01 52746547 
00002a05 67734d78 
00002a09 66667542 
00002a0d 664f7265 
00002a11 746e6f43 
00002a15 6c6c6f72 
00002a19 61447265 
00002a1d 49286174 
00002a21 7865646e 
00002a25 43282029 
00002a29 475f6e61 
00002a2d 6f437465 
00002a31 6f72746e 
00002a35 72656c6c 
00002a39 61746144  13200 	.data.b	68,97,116,97,79,102,80,67,67,111,110,102,105,103,40,41,91,40,73,110,100,101,120,41,93,46,82,120,77,115,103,66,117,102,102,101,114,79,102,67,111,110,116,114,111,108,108,101,114,68,97,116,97,41,0
00002a3d 4350664f 
00002a41 666e6f43 
00002a45 29286769 
00002a49 6e49285b 
00002a4d 29786564 
00002a51 78522e5d 
00002a55 4267734d 
00002a59 65666675 
00002a5d 43664f72 
00002a61 72746e6f 
00002a65 656c6c6f 
00002a69 74614472 
00002a6d 002961 
00002a70 01        13201 	.data.b	1
00002a71 07ce      13202 	.data.b	206,7
00002a73 5f6e6143  13203 	.data.b	67,97,110,95,73,115,83,116,97,114,116,77,111,100,101,82,101,113,117,101,115,116,101,100,79,102,67,111,110,116,114,111,108,108,101,114,68,97,116,97,40,73,110,100,101,120,41,32,40,40,67,97,110,95,71,101,116,67,111,110
00002a77 74537349 
00002a7b 4d747261 
00002a7f 5265646f 
00002a83 65757165 
00002a87 64657473 
00002a8b 6f43664f 
00002a8f 6f72746e 
00002a93 72656c6c 
00002a97 61746144 
00002a9b 646e4928 
00002a9f 20297865 
00002aa3 61432828 
00002aa7 65475f6e 
00002aab 6e6f4374 
00002aaf 6c6f7274  13204 	.data.b	116,114,111,108,108,101,114,68,97,116,97,79,102,80,67,67,111,110,102,105,103,40,41,91,40,73,110,100,101,120,41,93,46,83,116,97,114,116,77,111,100,101,82,101,113,117,101,115,116,101,100,79,102,67,111,110,116,114,111,108
00002ab3 4472656c 
00002ab7 4f617461 
00002abb 43435066 
00002abf 69666e6f 
00002ac3 5b292867 
00002ac7 646e4928 

                                                                      Page 293
                                                              C:\Users\Fengyuan\AppData\Local\Temp\gh_0000sro1.s
00002acb 5d297865 
00002acf 6174532e 
00002ad3 6f4d7472 
00002ad7 65526564 
00002adb 73657571 
00002adf 4f646574 
00002ae3 6e6f4366 
00002ae7 6c6f7274 
00002aeb 4472656c  13205 	.data.b	108,101,114,68,97,116,97,41,32,33,61,32,70,65,76,83,69,41,0
00002aef 29617461 
00002af3 203d2120 
00002af7 534c4146 
00002afb 002945 
00002afe 01        13206 	.data.b	1
00002aff 07cf      13207 	.data.b	207,7
00002b01 5f6e6143  13208 	.data.b	67,97,110,95,71,101,116,83,116,97,116,117,115,82,101,113,79,102,67,111,110,116,114,111,108,108,101,114,68,97,116,97,40,73,110,100,101,120,41,32,40,67,97,110,95,71,101,116,67,111,110,116,114,111,108,108,101,114,68,97
00002b05 53746547 
00002b09 75746174 
00002b0d 71655273 
00002b11 6f43664f 
00002b15 6f72746e 
00002b19 72656c6c 
00002b1d 61746144 
00002b21 646e4928 
00002b25 20297865 
00002b29 6e614328 
00002b2d 7465475f 
00002b31 746e6f43 
00002b35 6c6c6f72 
00002b39 61447265 
00002b3d 664f6174  13209 	.data.b	116,97,79,102,80,67,67,111,110,102,105,103,40,41,91,40,73,110,100,101,120,41,93,46,83,116,97,116,117,115,82,101,113,79,102,67,111,110,116,114,111,108,108,101,114,68,97,116,97,41,0
00002b41 6f434350 
00002b45 6769666e 
00002b49 285b2928 
00002b4d 65646e49 
00002b51 2e5d2978 
00002b55 74617453 
00002b59 65527375 
00002b5d 43664f71 
00002b61 72746e6f 
00002b65 656c6c6f 
00002b69 74614472 
00002b6d 002961 
00002b70 01        13210 	.data.b	1
00002b71 07d0      13211 	.data.b	208,7
00002b73 5f6e6143  13212 	.data.b	67,97,110,95,71,101,116,73,110,105,116,67,111,100,101,79,102,73,110,105,116,66,97,115,105,99,67,97,110,40,73,110,100,101,120,41,32,40,67,97,110,95,71,101,116,73,110,105,116,66,97,115,105,99,67,97,110,79,102,80
00002b77 49746547 
00002b7b 4374696e 
00002b7f 4f65646f 
00002b83 696e4966 
00002b87 73614274 
00002b8b 61436369 
00002b8f 6e49286e 
00002b93 29786564 
00002b97 61432820 
00002b9b 65475f6e 
00002b9f 696e4974 
00002ba3 73614274 
00002ba7 61436369 
00002bab 50664f6e 
00002baf 6e6f4343  13213 	.data.b	67,67,111,110,102,105,103,40,41,91,40,73,110,100,101,120,41,93,46,73,110,105,116,67,111,100,101,79,102,73,110,105,116,66,97,115,105,99,67,97,110,41,0

                                                                      Page 294
                                                              C:\Users\Fengyuan\AppData\Local\Temp\gh_0000sro1.s
00002bb3 28676966 
00002bb7 49285b29 
00002bbb 7865646e 
00002bbf 492e5d29 
00002bc3 4374696e 
00002bc7 4f65646f 
00002bcb 696e4966 
00002bcf 73614274 
00002bd3 61436369 
00002bd7 00296e 
00002bda 01        13214 	.data.b	1
00002bdb 07d1      13215 	.data.b	209,7
00002bdd 5f6e6143  13216 	.data.b	67,97,110,95,71,101,116,73,110,105,116,77,97,115,107,79,102,73,110,105,116,66,97,115,105,99,67,97,110,40,73,110,100,101,120,41,32,40,67,97,110,95,71,101,116,73,110,105,116,66,97,115,105,99,67,97,110,79,102,80
00002be1 49746547 
00002be5 4d74696e 
00002be9 4f6b7361 
00002bed 696e4966 
00002bf1 73614274 
00002bf5 61436369 
00002bf9 6e49286e 
00002bfd 29786564 
00002c01 61432820 
00002c05 65475f6e 
00002c09 696e4974 
00002c0d 73614274 
00002c11 61436369 
00002c15 50664f6e 
00002c19 6e6f4343  13217 	.data.b	67,67,111,110,102,105,103,40,41,91,40,73,110,100,101,120,41,93,46,73,110,105,116,77,97,115,107,79,102,73,110,105,116,66,97,115,105,99,67,97,110,41,0
00002c1d 28676966 
00002c21 49285b29 
00002c25 7865646e 
00002c29 492e5d29 
00002c2d 4d74696e 
00002c31 4f6b7361 
00002c35 696e4966 
00002c39 73614274 
00002c3d 61436369 
00002c41 00296e 
00002c44 01        13218 	.data.b	1
00002c45 07d2      13219 	.data.b	210,7
00002c47 5f6e6143  13220 	.data.b	67,97,110,95,71,101,116,73,110,105,116,66,97,115,105,99,67,97,110,73,110,100,101,120,40,73,110,100,101,120,41,32,40,67,97,110,95,71,101,116,73,110,105,116,66,97,115,105,99,67,97,110,73,110,100,101,120,79,102,80
00002c4b 49746547 
00002c4f 4274696e 
00002c53 63697361 
00002c57 496e6143 
00002c5b 7865646e 
00002c5f 646e4928 
00002c63 20297865 
00002c67 6e614328 
00002c6b 7465475f 
00002c6f 74696e49 
00002c73 69736142 
00002c77 6e614363 
00002c7b 65646e49 
00002c7f 50664f78 
00002c83 6e6f4343  13221 	.data.b	67,67,111,110,102,105,103,40,41,91,40,73,110,100,101,120,41,93,41,0
00002c87 28676966 
00002c8b 49285b29 
00002c8f 7865646e 
00002c93 00295d29 
00002c97 01        13222 	.data.b	1

                                                                      Page 295
                                                              C:\Users\Fengyuan\AppData\Local\Temp\gh_0000sro1.s
00002c98 07d3      13223 	.data.b	211,7
00002c9a 5f6e6143  13224 	.data.b	67,97,110,95,71,101,116,67,66,84,79,102,73,110,105,116,79,98,106,101,99,116,40,73,110,100,101,120,41,32,40,67,97,110,95,71,101,116,73,110,105,116,79,98,106,101,99,116,79,102,80,67,67,111,110,102,105,103,40,41
00002c9e 43746547 
00002ca2 664f5442 
00002ca6 74696e49 
00002caa 656a624f 
00002cae 49287463 
00002cb2 7865646e 
00002cb6 43282029 
00002cba 475f6e61 
00002cbe 6e497465 
00002cc2 624f7469 
00002cc6 7463656a 
00002cca 4350664f 
00002cce 666e6f43 
00002cd2 29286769 
00002cd6 6e49285b  13225 	.data.b	91,40,73,110,100,101,120,41,93,46,67,66,84,79,102,73,110,105,116,79,98,106,101,99,116,41,0
00002cda 29786564 
00002cde 42432e5d 
00002ce2 49664f54 
00002ce6 4f74696e 
00002cea 63656a62 
00002cee 002974 
00002cf1 01        13226 	.data.b	1
00002cf2 07d4      13227 	.data.b	212,7
00002cf4 5f6e6143  13228 	.data.b	67,97,110,95,71,101,116,67,111,110,116,114,111,108,49,79,102,73,110,105,116,79,98,106,101,99,116,40,73,110,100,101,120,41,32,40,67,97,110,95,71,101,116,73,110,105,116,79,98,106,101,99,116,79,102,80,67,67,111,110
00002cf8 43746547 
00002cfc 72746e6f 
00002d00 4f316c6f 
00002d04 696e4966 
00002d08 6a624f74 
00002d0c 28746365 
00002d10 65646e49 
00002d14 28202978 
00002d18 5f6e6143 
00002d1c 49746547 
00002d20 4f74696e 
00002d24 63656a62 
00002d28 50664f74 
00002d2c 6e6f4343 
00002d30 28676966  13229 	.data.b	102,105,103,40,41,91,40,73,110,100,101,120,41,93,46,67,111,110,116,114,111,108,49,79,102,73,110,105,116,79,98,106,101,99,116,41,0
00002d34 49285b29 
00002d38 7865646e 
00002d3c 432e5d29 
00002d40 72746e6f 
00002d44 4f316c6f 
00002d48 696e4966 
00002d4c 6a624f74 
00002d50 29746365 
00002d54 00 
00002d55 01        13230 	.data.b	1
00002d56 07d5      13231 	.data.b	213,7
00002d58 5f6e6143  13232 	.data.b	67,97,110,95,71,101,116,73,110,105,116,79,98,106,101,99,116,66,97,117,100,114,97,116,101,40,73,110,100,101,120,41,32,40,67,97,110,95,71,101,116,73,110,105,116,79,98,106,101,99,116,66,97,117,100,114,97,116,101,79
00002d5c 49746547 
00002d60 4f74696e 
00002d64 63656a62 
00002d68 75614274 
00002d6c 74617264 
00002d70 6e492865 
00002d74 29786564 
00002d78 61432820 

                                                                      Page 296
                                                              C:\Users\Fengyuan\AppData\Local\Temp\gh_0000sro1.s
00002d7c 65475f6e 
00002d80 696e4974 
00002d84 6a624f74 
00002d88 42746365 
00002d8c 72647561 
00002d90 4f657461 
00002d94 43435066  13233 	.data.b	102,80,67,67,111,110,102,105,103,40,41,91,40,73,110,100,101,120,41,93,41,0
00002d98 69666e6f 
00002d9c 5b292867 
00002da0 646e4928 
00002da4 5d297865 
00002da8 0029 
00002daa 01        13234 	.data.b	1
00002dab 07d6      13235 	.data.b	214,7
00002dad 5f6e6143  13236 	.data.b	67,97,110,95,71,101,116,73,110,105,116,79,98,106,101,99,116,83,116,97,114,116,73,110,100,101,120,40,73,110,100,101,120,41,32,40,67,97,110,95,71,101,116,73,110,105,116,79,98,106,101,99,116,83,116,97,114,116,73,110
00002db1 49746547 
00002db5 4f74696e 
00002db9 63656a62 
00002dbd 61745374 
00002dc1 6e497472 
00002dc5 28786564 
00002dc9 65646e49 
00002dcd 28202978 
00002dd1 5f6e6143 
00002dd5 49746547 
00002dd9 4f74696e 
00002ddd 63656a62 
00002de1 61745374 
00002de5 6e497472 
00002de9 4f786564  13237 	.data.b	100,101,120,79,102,80,67,67,111,110,102,105,103,40,41,91,40,73,110,100,101,120,41,93,41,0
00002ded 43435066 
00002df1 69666e6f 
00002df5 5b292867 
00002df9 646e4928 
00002dfd 5d297865 
00002e01 0029 
00002e03 01        13238 	.data.b	1
00002e04 07d8      13239 	.data.b	216,7
00002e06 5f6e6143  13240 	.data.b	67,97,110,95,71,101,116,68,76,67,95,70,73,70,79,79,102,77,97,105,108,98,111,120,40,73,110,100,101,120,41,32,40,67,97,110,95,71,101,116,77,97,105,108,98,111,120,79,102,80,67,67,111,110,102,105,103,40,41,91
00002e0a 44746547 
00002e0e 465f434c 
00002e12 4f4f4649 
00002e16 69614d66 
00002e1a 786f626c 
00002e1e 646e4928 
00002e22 20297865 
00002e26 6e614328 
00002e2a 7465475f 
00002e2e 6c69614d 
00002e32 4f786f62 
00002e36 43435066 
00002e3a 69666e6f 
00002e3e 5b292867 
00002e42 646e4928  13241 	.data.b	40,73,110,100,101,120,41,93,46,68,76,67,95,70,73,70,79,79,102,77,97,105,108,98,111,120,41,0
00002e46 5d297865 
00002e4a 434c442e 
00002e4e 4649465f 
00002e52 4d664f4f 
00002e56 626c6961 
00002e5a 0029786f 
00002e5e 01        13242 	.data.b	1

                                                                      Page 297
                                                              C:\Users\Fengyuan\AppData\Local\Temp\gh_0000sro1.s
00002e5f 07d9      13243 	.data.b	217,7
00002e61 5f6e6143  13244 	.data.b	67,97,110,95,71,101,116,72,119,72,97,110,100,108,101,79,102,77,97,105,108,98,111,120,40,73,110,100,101,120,41,32,40,67,97,110,95,71,101,116,77,97,105,108,98,111,120,79,102,80,67,67,111,110,102,105,103,40,41,91
00002e65 48746547 
00002e69 6e614877 
00002e6d 4f656c64 
00002e71 69614d66 
00002e75 786f626c 
00002e79 646e4928 
00002e7d 20297865 
00002e81 6e614328 
00002e85 7465475f 
00002e89 6c69614d 
00002e8d 4f786f62 
00002e91 43435066 
00002e95 69666e6f 
00002e99 5b292867 
00002e9d 646e4928  13245 	.data.b	40,73,110,100,101,120,41,93,46,72,119,72,97,110,100,108,101,79,102,77,97,105,108,98,111,120,41,0
00002ea1 5d297865 
00002ea5 4877482e 
00002ea9 6c646e61 
00002ead 4d664f65 
00002eb1 626c6961 
00002eb5 0029786f 
00002eb9 01        13246 	.data.b	1
00002eba 07db      13247 	.data.b	219,7
00002ebc 5f6e6143  13248 	.data.b	67,97,110,95,71,101,116,77,97,105,108,98,111,120,84,121,112,101,79,102,77,97,105,108,98,111,120,40,73,110,100,101,120,41,32,40,67,97,110,95,71,101,116,77,97,105,108,98,111,120,79,102,80,67,67,111,110,102,105,103
00002ec0 4d746547 
00002ec4 626c6961 
00002ec8 7954786f 
00002ecc 664f6570 
00002ed0 6c69614d 
00002ed4 28786f62 
00002ed8 65646e49 
00002edc 28202978 
00002ee0 5f6e6143 
00002ee4 4d746547 
00002ee8 626c6961 
00002eec 664f786f 
00002ef0 6f434350 
00002ef4 6769666e 
00002ef8 285b2928  13249 	.data.b	40,41,91,40,73,110,100,101,120,41,93,46,77,97,105,108,98,111,120,84,121,112,101,79,102,77,97,105,108,98,111,120,41,0
00002efc 65646e49 
00002f00 2e5d2978 
00002f04 6c69614d 
00002f08 54786f62 
00002f0c 4f657079 
00002f10 69614d66 
00002f14 786f626c 
00002f18 0029 
00002f1a 01        13250 	.data.b	1
00002f1b 07dd      13251 	.data.b	221,7
00002f1d 5f6e6143  13252 	.data.b	67,97,110,95,71,101,116,84,120,79,102,102,115,101,116,72,119,84,111,76,111,103,40,73,110,100,101,120,41,32,40,67,97,110,95,71,101,116,84,120,79,102,102,115,101,116,72,119,84,111,76,111,103,79,102,80,67,67,111,110
00002f21 54746547 
00002f25 66664f78 
00002f29 48746573 
00002f2d 4c6f5477 
00002f31 4928676f 
00002f35 7865646e 
00002f39 43282029 
00002f3d 475f6e61 
00002f41 78547465 

                                                                      Page 298
                                                              C:\Users\Fengyuan\AppData\Local\Temp\gh_0000sro1.s
00002f45 7366664f 
00002f49 77487465 
00002f4d 6f4c6f54 
00002f51 50664f67 
00002f55 6e6f4343 
00002f59 28676966  13253 	.data.b	102,105,103,40,41,91,40,73,110,100,101,120,41,93,41,0
00002f5d 49285b29 
00002f61 7865646e 
00002f65 00295d29 
00002f69 01        13254 	.data.b	1
00002f6a 07e7      13255 	.data.b	231,7
00002f6c 5f6e6143  13256 	.data.b	67,97,110,95,71,101,116,66,97,115,101,68,108,108,95,71,101,110,101,114,97,116,111,114,86,101,114,115,105,111,110,40,41,32,67,97,110,95,71,101,116,66,97,115,101,68,108,108,95,71,101,110,101,114,97,116,111,114,86,101
00002f70 42746547 
00002f74 44657361 
00002f78 475f6c6c 
00002f7c 72656e65 
00002f80 726f7461 
00002f84 73726556 
00002f88 286e6f69 
00002f8c 61432029 
00002f90 65475f6e 
00002f94 73614274 
00002f98 6c6c4465 
00002f9c 6e65475f 
00002fa0 74617265 
00002fa4 6556726f 
00002fa8 6f697372  13257 	.data.b	114,115,105,111,110,79,102,80,67,67,111,110,102,105,103,40,41,0
00002fac 50664f6e 
00002fb0 6e6f4343 
00002fb4 28676966 
00002fb8 0029 
00002fba 01        13258 	.data.b	1
00002fbb 07eb      13259 	.data.b	235,7
00002fbd 5f6e6143  13260 	.data.b	67,97,110,95,71,101,116,80,108,97,116,102,111,114,109,68,108,108,95,71,101,110,101,114,97,116,111,114,86,101,114,115,105,111,110,40,41,32,67,97,110,95,71,101,116,80,108,97,116,102,111,114,109,68,108,108,95,71,101,110
00002fc1 50746547 
00002fc5 6674616c 
00002fc9 446d726f 
00002fcd 475f6c6c 
00002fd1 72656e65 
00002fd5 726f7461 
00002fd9 73726556 
00002fdd 286e6f69 
00002fe1 61432029 
00002fe5 65475f6e 
00002fe9 616c5074 
00002fed 726f6674 
00002ff1 6c6c446d 
00002ff5 6e65475f 
00002ff9 74617265  13261 	.data.b	101,114,97,116,111,114,86,101,114,115,105,111,110,79,102,80,67,67,111,110,102,105,103,40,41,0
00002ffd 6556726f 
00003001 6f697372 
00003005 50664f6e 
00003009 6e6f4343 
0000300d 28676966 
00003011 0029 
00003013 01        13262 	.data.b	1
00003014 07f5      13263 	.data.b	245,7
00003016 5f6e6143  13264 	.data.b	67,97,110,95,71,101,116,83,105,122,101,79,102,77,97,105,108,98,111,120,40,41,32,67,97,110,95,71,101,116,83,105,122,101,79,102,77,97,105,108,98,111,120,79,102,80,67,67,111,110,102,105,103,40,41,0
0000301a 53746547 
0000301e 4f657a69 
00003022 69614d66 

                                                                      Page 299
                                                              C:\Users\Fengyuan\AppData\Local\Temp\gh_0000sro1.s
00003026 786f626c 
0000302a 43202928 
0000302e 475f6e61 
00003032 69537465 
00003036 664f657a 
0000303a 6c69614d 
0000303e 4f786f62 
00003042 43435066 
00003046 69666e6f 
0000304a 00292867 
0000304e 01        13265 	.data.b	1
0000304f 0880      13266 	.data.b	128,8
00003051 5f6e6143  13267 	.data.b	67,97,110,95,83,101,116,80,100,117,79,102,65,99,116,105,118,101,83,101,110,100,79,98,106,101,99,116,40,73,110,100,101,120,44,86,97,108,117,101,41,32,67,97,110,95,71,101,116,65,99,116,105,118,101,83,101,110,100,79
00003055 50746553 
00003059 664f7564 
0000305d 69746341 
00003061 65536576 
00003065 624f646e 
00003069 7463656a 
0000306d 646e4928 
00003071 562c7865 
00003075 65756c61 
00003079 61432029 
0000307d 65475f6e 
00003081 74634174 
00003085 53657669 
00003089 4f646e65 
0000308d 63656a62  13268 	.data.b	98,106,101,99,116,79,102,80,67,67,111,110,102,105,103,40,41,91,40,73,110,100,101,120,41,93,46,80,100,117,79,102,65,99,116,105,118,101,83,101,110,100,79,98,106,101,99,116,32,61,32,40,86,97,108,117,101,41,0
00003091 50664f74 
00003095 6e6f4343 
00003099 28676966 
0000309d 49285b29 
000030a1 7865646e 
000030a5 502e5d29 
000030a9 664f7564 
000030ad 69746341 
000030b1 65536576 
000030b5 624f646e 
000030b9 7463656a 
000030bd 28203d20 
000030c1 756c6156 
000030c5 002965 
000030c8 01        13269 	.data.b	1
000030c9 0881      13270 	.data.b	129,8
000030cb 5f6e6143  13271 	.data.b	67,97,110,95,83,101,116,83,116,97,116,101,79,102,65,99,116,105,118,101,83,101,110,100,79,98,106,101,99,116,40,73,110,100,101,120,44,86,97,108,117,101,41,32,67,97,110,95,71,101,116,65,99,116,105,118,101,83,101,110
000030cf 53746553 
000030d3 65746174 
000030d7 6341664f 
000030db 65766974 
000030df 646e6553 
000030e3 656a624f 
000030e7 49287463 
000030eb 7865646e 
000030ef 6c61562c 
000030f3 20296575 
000030f7 5f6e6143 
000030fb 41746547 
000030ff 76697463 
00003103 6e655365 
00003107 6a624f64  13272 	.data.b	100,79,98,106,101,99,116,79,102,80,67,67,111,110,102,105,103,40,41,91,40,73,110,100,101,120,41,93,46,83,116,97,116,101,79,102,65,99,116,105,118,101,83,101,110,100,79,98,106,101,99,116,32,61,32,40,86,97,108,117
0000310b 4f746365 

                                                                      Page 300
                                                              C:\Users\Fengyuan\AppData\Local\Temp\gh_0000sro1.s
0000310f 43435066 
00003113 69666e6f 
00003117 5b292867 
0000311b 646e4928 
0000311f 5d297865 
00003123 6174532e 
00003127 664f6574 
0000312b 69746341 
0000312f 65536576 
00003133 624f646e 
00003137 7463656a 
0000313b 28203d20 
0000313f 756c6156 
00003143 002965    13273 	.data.b	101,41,0
00003146 01        13274 	.data.b	1
00003147 0882      13275 	.data.b	130,8
00003149 5f6e6143  13276 	.data.b	67,97,110,95,83,101,116,66,117,115,79,102,102,67,111,117,110,116,101,114,79,102,67,111,110,116,114,111,108,108,101,114,68,97,116,97,40,73,110,100,101,120,44,86,97,108,117,101,41,32,67,97,110,95,71,101,116,67,111,110
0000314d 42746553 
00003151 664f7375 
00003155 756f4366 
00003159 7265746e 
0000315d 6f43664f 
00003161 6f72746e 
00003165 72656c6c 
00003169 61746144 
0000316d 646e4928 
00003171 562c7865 
00003175 65756c61 
00003179 61432029 
0000317d 65475f6e 
00003181 6e6f4374 
00003185 6c6f7274  13277 	.data.b	116,114,111,108,108,101,114,68,97,116,97,79,102,80,67,67,111,110,102,105,103,40,41,91,40,73,110,100,101,120,41,93,46,66,117,115,79,102,102,67,111,117,110,116,101,114,79,102,67,111,110,116,114,111,108,108,101,114,68,97
00003189 4472656c 
0000318d 4f617461 
00003191 43435066 
00003195 69666e6f 
00003199 5b292867 
0000319d 646e4928 
000031a1 5d297865 
000031a5 7375422e 
000031a9 4366664f 
000031ad 746e756f 
000031b1 664f7265 
000031b5 746e6f43 
000031b9 6c6c6f72 
000031bd 61447265 
000031c1 3d206174  13278 	.data.b	116,97,32,61,32,40,86,97,108,117,101,41,0
000031c5 61562820 
000031c9 2965756c 
000031cd 00 
000031ce 01        13279 	.data.b	1
000031cf 0883      13280 	.data.b	131,8
000031d1 5f6e6143  13281 	.data.b	67,97,110,95,83,101,116,67,97,110,73,110,116,101,114,114,117,112,116,67,111,117,110,116,101,114,79,102,67,111,110,116,114,111,108,108,101,114,68,97,116,97,40,73,110,100,101,120,44,86,97,108,117,101,41,32,67,97,110,95
000031d5 43746553 
000031d9 6e496e61 
000031dd 72726574 
000031e1 43747075 
000031e5 746e756f 
000031e9 664f7265 
000031ed 746e6f43 
000031f1 6c6c6f72 

                                                                      Page 301
                                                              C:\Users\Fengyuan\AppData\Local\Temp\gh_0000sro1.s
000031f5 61447265 
000031f9 49286174 
000031fd 7865646e 
00003201 6c61562c 
00003205 20296575 
00003209 5f6e6143 
0000320d 43746547  13282 	.data.b	71,101,116,67,111,110,116,114,111,108,108,101,114,68,97,116,97,79,102,80,67,67,111,110,102,105,103,40,41,91,40,73,110,100,101,120,41,93,46,67,97,110,73,110,116,101,114,114,117,112,116,67,111,117,110,116,101,114,79,102
00003211 72746e6f 
00003215 656c6c6f 
00003219 74614472 
0000321d 50664f61 
00003221 6e6f4343 
00003225 28676966 
00003229 49285b29 
0000322d 7865646e 
00003231 432e5d29 
00003235 6e496e61 
00003239 72726574 
0000323d 43747075 
00003241 746e756f 
00003245 664f7265 
00003249 746e6f43  13283 	.data.b	67,111,110,116,114,111,108,108,101,114,68,97,116,97,32,61,32,40,86,97,108,117,101,41,0
0000324d 6c6c6f72 
00003251 61447265 
00003255 3d206174 
00003259 61562820 
0000325d 2965756c 
00003261 00 
00003262 01        13284 	.data.b	1
00003263 0885      13285 	.data.b	133,8
00003265 5f6e6143  13286 	.data.b	67,97,110,95,83,101,116,73,115,66,117,115,79,102,102,79,102,67,111,110,116,114,111,108,108,101,114,68,97,116,97,40,73,110,100,101,120,44,86,97,108,117,101,41,32,67,97,110,95,71,101,116,67,111,110,116,114,111,108,108
00003269 49746553 
0000326d 73754273 
00003271 4f66664f 
00003275 6e6f4366 
00003279 6c6f7274 
0000327d 4472656c 
00003281 28617461 
00003285 65646e49 
00003289 61562c78 
0000328d 2965756c 
00003291 6e614320 
00003295 7465475f 
00003299 746e6f43 
0000329d 6c6c6f72 
000032a1 61447265  13287 	.data.b	101,114,68,97,116,97,79,102,80,67,67,111,110,102,105,103,40,41,91,40,73,110,100,101,120,41,93,46,73,115,66,117,115,79,102,102,79,102,67,111,110,116,114,111,108,108,101,114,68,97,116,97,32,61,32,40,86,97,108,117
000032a5 664f6174 
000032a9 6f434350 
000032ad 6769666e 
000032b1 285b2928 
000032b5 65646e49 
000032b9 2e5d2978 
000032bd 75427349 
000032c1 66664f73 
000032c5 6f43664f 
000032c9 6f72746e 
000032cd 72656c6c 
000032d1 61746144 
000032d5 28203d20 
000032d9 756c6156 
000032dd 002965    13288 	.data.b	101,41,0

                                                                      Page 302
                                                              C:\Users\Fengyuan\AppData\Local\Temp\gh_0000sro1.s
000032e0 01        13289 	.data.b	1
000032e1 0886      13290 	.data.b	134,8
000032e3 5f6e6143  13291 	.data.b	67,97,110,95,83,101,116,76,97,115,116,73,110,105,116,79,98,106,101,99,116,79,102,67,111,110,116,114,111,108,108,101,114,68,97,116,97,40,73,110,100,101,120,44,86,97,108,117,101,41,32,67,97,110,95,71,101,116,67,111
000032e7 4c746553 
000032eb 49747361 
000032ef 4f74696e 
000032f3 63656a62 
000032f7 43664f74 
000032fb 72746e6f 
000032ff 656c6c6f 
00003303 74614472 
00003307 6e492861 
0000330b 2c786564 
0000330f 756c6156 
00003313 43202965 
00003317 475f6e61 
0000331b 6f437465 
0000331f 6f72746e  13292 	.data.b	110,116,114,111,108,108,101,114,68,97,116,97,79,102,80,67,67,111,110,102,105,103,40,41,91,40,73,110,100,101,120,41,93,46,76,97,115,116,73,110,105,116,79,98,106,101,99,116,79,102,67,111,110,116,114,111,108,108,101,114
00003323 72656c6c 
00003327 61746144 
0000332b 4350664f 
0000332f 666e6f43 
00003333 29286769 
00003337 6e49285b 
0000333b 29786564 
0000333f 614c2e5d 
00003343 6e497473 
00003347 624f7469 
0000334b 7463656a 
0000334f 6f43664f 
00003353 6f72746e 
00003357 72656c6c 
0000335b 61746144  13293 	.data.b	68,97,116,97,32,61,32,40,86,97,108,117,101,41,0
0000335f 28203d20 
00003363 756c6156 
00003367 002965 
0000336a 01        13294 	.data.b	1
0000336b 0887      13295 	.data.b	135,8
0000336d 5f6e6143  13296 	.data.b	67,97,110,95,83,101,116,76,111,103,83,116,97,116,117,115,79,102,67,111,110,116,114,111,108,108,101,114,68,97,116,97,40,73,110,100,101,120,44,86,97,108,117,101,41,32,67,97,110,95,71,101,116,67,111,110,116,114,111,108
00003371 4c746553 
00003375 7453676f 
00003379 73757461 
0000337d 6f43664f 
00003381 6f72746e 
00003385 72656c6c 
00003389 61746144 
0000338d 646e4928 
00003391 562c7865 
00003395 65756c61 
00003399 61432029 
0000339d 65475f6e 
000033a1 6e6f4374 
000033a5 6c6f7274 
000033a9 4472656c  13297 	.data.b	108,101,114,68,97,116,97,79,102,80,67,67,111,110,102,105,103,40,41,91,40,73,110,100,101,120,41,93,46,76,111,103,83,116,97,116,117,115,79,102,67,111,110,116,114,111,108,108,101,114,68,97,116,97,32,61,32,40,86,97
000033ad 4f617461 
000033b1 43435066 
000033b5 69666e6f 
000033b9 5b292867 
000033bd 646e4928 
000033c1 5d297865 
000033c5 676f4c2e 

                                                                      Page 303
                                                              C:\Users\Fengyuan\AppData\Local\Temp\gh_0000sro1.s
000033c9 74617453 
000033cd 664f7375 
000033d1 746e6f43 
000033d5 6c6c6f72 
000033d9 61447265 
000033dd 3d206174 
000033e1 61562820 
000033e5 2965756c  13298 	.data.b	108,117,101,41,0
000033e9 00 
000033ea 01        13299 	.data.b	1
000033eb 088a      13300 	.data.b	138,8
000033ed 5f6e6143  13301 	.data.b	67,97,110,95,83,101,116,83,116,97,114,116,77,111,100,101,82,101,113,117,101,115,116,101,100,79,102,67,111,110,116,114,111,108,108,101,114,68,97,116,97,40,73,110,100,101,120,44,86,97,108,117,101,41,32,67,97,110,95,71
000033f1 53746553 
000033f5 74726174 
000033f9 65646f4d 
000033fd 75716552 
00003401 65747365 
00003405 43664f64 
00003409 72746e6f 
0000340d 656c6c6f 
00003411 74614472 
00003415 6e492861 
00003419 2c786564 
0000341d 756c6156 
00003421 43202965 
00003425 475f6e61 
00003429 6f437465  13302 	.data.b	101,116,67,111,110,116,114,111,108,108,101,114,68,97,116,97,79,102,80,67,67,111,110,102,105,103,40,41,91,40,73,110,100,101,120,41,93,46,83,116,97,114,116,77,111,100,101,82,101,113,117,101,115,116,101,100,79,102,67,111
0000342d 6f72746e 
00003431 72656c6c 
00003435 61746144 
00003439 4350664f 
0000343d 666e6f43 
00003441 29286769 
00003445 6e49285b 
00003449 29786564 
0000344d 74532e5d 
00003451 4d747261 
00003455 5265646f 
00003459 65757165 
0000345d 64657473 
00003461 6f43664f 
00003465 6f72746e  13303 	.data.b	110,116,114,111,108,108,101,114,68,97,116,97,32,61,32,40,86,97,108,117,101,41,0
00003469 72656c6c 
0000346d 61746144 
00003471 28203d20 
00003475 756c6156 
00003479 002965 
0000347c 01        13304 	.data.b	1
0000347d 088b      13305 	.data.b	139,8
0000347f 5f6e6143  13306 	.data.b	67,97,110,95,83,101,116,83,116,97,116,117,115,82,101,113,79,102,67,111,110,116,114,111,108,108,101,114,68,97,116,97,40,73,110,100,101,120,44,86,97,108,117,101,41,32,67,97,110,95,71,101,116,67,111,110,116,114,111,108
00003483 53746553 
00003487 75746174 
0000348b 71655273 
0000348f 6f43664f 
00003493 6f72746e 
00003497 72656c6c 
0000349b 61746144 
0000349f 646e4928 
000034a3 562c7865 
000034a7 65756c61 
000034ab 61432029 

                                                                      Page 304
                                                              C:\Users\Fengyuan\AppData\Local\Temp\gh_0000sro1.s
000034af 65475f6e 
000034b3 6e6f4374 
000034b7 6c6f7274 
000034bb 4472656c  13307 	.data.b	108,101,114,68,97,116,97,79,102,80,67,67,111,110,102,105,103,40,41,91,40,73,110,100,101,120,41,93,46,83,116,97,116,117,115,82,101,113,79,102,67,111,110,116,114,111,108,108,101,114,68,97,116,97,32,61,32,40,86,97
000034bf 4f617461 
000034c3 43435066 
000034c7 69666e6f 
000034cb 5b292867 
000034cf 646e4928 
000034d3 5d297865 
000034d7 6174532e 
000034db 52737574 
000034df 664f7165 
000034e3 746e6f43 
000034e7 6c6c6f72 
000034eb 61447265 
000034ef 3d206174 
000034f3 61562820 
000034f7 2965756c  13308 	.data.b	108,117,101,41,0
000034fb 00 
000034fc 01        13309 	.data.b	1
000034fd 0998      13310 	.data.b	152,9
000034ff 5f6e6143  13311 	.data.b	67,97,110,95,68,101,99,66,117,115,79,102,102,67,111,117,110,116,101,114,79,102,67,111,110,116,114,111,108,108,101,114,68,97,116,97,40,73,110,100,101,120,41,32,67,97,110,95,71,101,116,66,117,115,79,102,102,67,111,117
00003503 42636544 
00003507 664f7375 
0000350b 756f4366 
0000350f 7265746e 
00003513 6f43664f 
00003517 6f72746e 
0000351b 72656c6c 
0000351f 61746144 
00003523 646e4928 
00003527 20297865 
0000352b 5f6e6143 
0000352f 42746547 
00003533 664f7375 
00003537 756f4366 
0000353b 7265746e  13312 	.data.b	110,116,101,114,79,102,67,111,110,116,114,111,108,108,101,114,68,97,116,97,40,73,110,100,101,120,41,45,45,0
0000353f 6f43664f 
00003543 6f72746e 
00003547 72656c6c 
0000354b 61746144 
0000354f 646e4928 
00003553 2d297865 
00003557 002d 
00003559 03        13313 	.data.b	3
0000355a 0ce8      13314 	.data.b	232,12
0000355c 1c        13315 	.data.b	28
0000355d 04        13316 	.data.b	4
0000355e 03        13317 	.data.b	3
0000355f 0ced      13318 	.data.b	237,12
00003561 1c        13319 	.data.b	28
00003562 04        13320 	.data.b	4
00003563 03        13321 	.data.b	3
00003564 0d96      13322 	.data.b	150,13
00003566 1c        13323 	.data.b	28
00003567 04        13324 	.data.b	4
00003568 03        13325 	.data.b	3
00003569 0d9b      13326 	.data.b	155,13
0000356b 1c        13327 	.data.b	28
0000356c 04        13328 	.data.b	4

                                                                      Page 305
                                                              C:\Users\Fengyuan\AppData\Local\Temp\gh_0000sro1.s
0000356d 03        13329 	.data.b	3
0000356e 0dab      13330 	.data.b	171,13
00003570 1c        13331 	.data.b	28
00003571 04        13332 	.data.b	4
00003572 03        13333 	.data.b	3
00003573 0db0      13334 	.data.b	176,13
00003575 1c        13335 	.data.b	28
00003576 04        13336 	.data.b	4
00003577 03        13337 	.data.b	3
00003578 0dbc      13338 	.data.b	188,13
0000357a 1c        13339 	.data.b	28
0000357b 04        13340 	.data.b	4
0000357c 03        13341 	.data.b	3
0000357d 0dc1      13342 	.data.b	193,13
0000357f 1c        13343 	.data.b	28
00003580 04        13344 	.data.b	4
00003581 03        13345 	.data.b	3
00003582 0dd1      13346 	.data.b	209,13
00003584 1c        13347 	.data.b	28
00003585 04        13348 	.data.b	4
00003586 03        13349 	.data.b	3
00003587 0dd6      13350 	.data.b	214,13
00003589 1c        13351 	.data.b	28
0000358a 04        13352 	.data.b	4
0000358b 03        13353 	.data.b	3
0000358c 0de2      13354 	.data.b	226,13
0000358e 1c        13355 	.data.b	28
0000358f 04        13356 	.data.b	4
00003590 03        13357 	.data.b	3
00003591 0de7      13358 	.data.b	231,13
00003593 1c        13359 	.data.b	28
00003594 04        13360 	.data.b	4
00003595 03        13361 	.data.b	3
00003596 0df3      13362 	.data.b	243,13
00003598 1c        13363 	.data.b	28
00003599 04        13364 	.data.b	4
0000359a 03        13365 	.data.b	3
0000359b 0df8      13366 	.data.b	248,13
0000359d 1c        13367 	.data.b	28
0000359e 04        13368 	.data.b	4
0000359f 03        13369 	.data.b	3
000035a0 0e8c      13370 	.data.b	140,14
000035a2 1c        13371 	.data.b	28
000035a3 04        13372 	.data.b	4
000035a4 03        13373 	.data.b	3
000035a5 0e91      13374 	.data.b	145,14
000035a7 1c        13375 	.data.b	28
000035a8 04        13376 	.data.b	4
000035a9 03        13377 	.data.b	3
000035aa 0e9d      13378 	.data.b	157,14
000035ac 1c        13379 	.data.b	28
000035ad 04        13380 	.data.b	4
000035ae 03        13381 	.data.b	3
000035af 0ea2      13382 	.data.b	162,14
000035b1 1c        13383 	.data.b	28
000035b2 04        13384 	.data.b	4
000035b3 03        13385 	.data.b	3
000035b4 0eb2      13386 	.data.b	178,14
000035b6 1c        13387 	.data.b	28
000035b7 04        13388 	.data.b	4
000035b8 03        13389 	.data.b	3

                                                                      Page 306
                                                              C:\Users\Fengyuan\AppData\Local\Temp\gh_0000sro1.s
000035b9 0eb7      13390 	.data.b	183,14
000035bb 1c        13391 	.data.b	28
000035bc 04        13392 	.data.b	4
000035bd 03        13393 	.data.b	3
000035be 0ecf      13394 	.data.b	207,14
000035c0 1c        13395 	.data.b	28
000035c1 04        13396 	.data.b	4
000035c2 03        13397 	.data.b	3
000035c3 0ed4      13398 	.data.b	212,14
000035c5 1c        13399 	.data.b	28
000035c6 04        13400 	.data.b	4
000035c7 04        13401 	.data.b	4
000035c8 01        13402 	.data.b	1
000035c9 03f0      13403 	.data.b	240,3
000035cb 43565244  13404 	.data.b	68,82,86,67,65,78,95,73,77,88,70,76,69,88,67,65,78,51,65,83,82,95,86,69,82,83,73,79,78,32,48,120,48,53,48,52,117,0
000035cf 495f4e41 
000035d3 4c46584d 
000035d7 41435845 
000035db 5341334e 
000035df 45565f52 
000035e3 4f495352 
000035e7 7830204e 
000035eb 34303530 
000035ef 0075 
000035f1 01        13405 	.data.b	1
000035f2 03f1      13406 	.data.b	241,3
000035f4 43565244  13407 	.data.b	68,82,86,67,65,78,95,73,77,88,70,76,69,88,67,65,78,51,65,83,82,95,82,69,76,69,65,83,69,95,86,69,82,83,73,79,78,32,48,120,48,50,117,0
000035f8 495f4e41 
000035fc 4c46584d 
00003600 41435845 
00003604 5341334e 
00003608 45525f52 
0000360c 5341454c 
00003610 45565f45 
00003614 4f495352 
00003618 7830204e 
0000361c 00753230 
00003620 01        13408 	.data.b	1
00003621 03f4      13409 	.data.b	244,3
00003623 5f4e4143  13410 	.data.b	67,65,78,95,67,79,82,69,86,69,82,83,73,79,78,32,48,120,48,54,48,48,117,0
00003627 45524f43 
0000362b 53524556 
0000362f 204e4f49 
00003633 36307830 
00003637 00753030 
0000363b 01        13411 	.data.b	1
0000363c 03f5      13412 	.data.b	245,3
0000363e 5f4e4143  13413 	.data.b	67,65,78,95,82,69,76,69,65,83,69,95,67,79,82,69,86,69,82,83,73,79,78,32,48,120,48,48,117,0
00003642 454c4552 
00003646 5f455341 
0000364a 45524f43 
0000364e 53524556 
00003652 204e4f49 
00003656 30307830 
0000365a 0075 
0000365c 01        13414 	.data.b	1
0000365d 0487      13415 	.data.b	135,4
0000365f 5f4e4143  13416 	.data.b	67,65,78,95,69,78,65,66,76,69,95,77,73,67,82,79,83,65,82,95,86,69,82,83,73,79,78,95,77,83,82,52,48,51,32,0
00003663 42414e45 
00003667 4d5f454c 
0000366b 4f524349 

                                                                      Page 307
                                                              C:\Users\Fengyuan\AppData\Local\Temp\gh_0000sro1.s
0000366f 5f524153 
00003673 53524556 
00003677 5f4e4f49 
0000367b 3452534d 
0000367f 00203330 
00003683 01        13417 	.data.b	1
00003684 0488      13418 	.data.b	136,4
00003686 5f4e4143  13419 	.data.b	67,65,78,95,69,78,65,66,76,69,95,77,73,67,82,79,83,65,82,95,86,69,82,83,73,79,78,95,77,83,82,52,48,88,32,0
0000368a 42414e45 
0000368e 4d5f454c 
00003692 4f524349 
00003696 5f524153 
0000369a 53524556 
0000369e 5f4e4f49 
000036a2 3452534d 
000036a6 00205830 
000036aa 01        13420 	.data.b	1
000036ab 0492      13421 	.data.b	146,4
000036ad 5f4e4143  13422 	.data.b	67,65,78,95,83,87,95,77,65,74,79,82,95,86,69,82,83,73,79,78,32,40,40,68,82,86,67,65,78,95,73,77,88,70,76,69,88,67,65,78,51,65,83,82,95,86,69,82,83,73,79,78,32,38,32,48,120,70,70,48
000036b1 4d5f5753 
000036b5 524f4a41 
000036b9 5245565f 
000036bd 4e4f4953 
000036c1 44282820 
000036c5 41435652 
000036c9 4d495f4e 
000036cd 454c4658 
000036d1 4e414358 
000036d5 52534133 
000036d9 5245565f 
000036dd 4e4f4953 
000036e1 30202620 
000036e5 30464678 
000036e9 20297530  13423 	.data.b	48,117,41,32,62,62,32,56,41,0
000036ed 38203e3e 
000036f1 0029 
000036f3 01        13424 	.data.b	1
000036f4 0493      13425 	.data.b	147,4
000036f6 5f4e4143  13426 	.data.b	67,65,78,95,83,87,95,77,73,78,79,82,95,86,69,82,83,73,79,78,32,40,68,82,86,67,65,78,95,73,77,88,70,76,69,88,67,65,78,51,65,83,82,95,86,69,82,83,73,79,78,32,38,32,48,120,48,48,70,70
000036fa 4d5f5753 
000036fe 524f4e49 
00003702 5245565f 
00003706 4e4f4953 
0000370a 52442820 
0000370e 4e414356 
00003712 584d495f 
00003716 58454c46 
0000371a 334e4143 
0000371e 5f525341 
00003722 53524556 
00003726 204e4f49 
0000372a 78302026 
0000372e 46463030 
00003732 002975    13427 	.data.b	117,41,0
00003735 01        13428 	.data.b	1
00003736 0494      13429 	.data.b	148,4
00003738 5f4e4143  13430 	.data.b	67,65,78,95,83,87,95,80,65,84,67,72,95,86,69,82,83,73,79,78,32,40,68,82,86,67,65,78,95,73,77,88,70,76,69,88,67,65,78,51,65,83,82,95,82,69,76,69,65,83,69,95,86,69,82,83,73,79,78,32
0000373c 505f5753 
00003740 48435441 
00003744 5245565f 
00003748 4e4f4953 

                                                                      Page 308
                                                              C:\Users\Fengyuan\AppData\Local\Temp\gh_0000sro1.s
0000374c 52442820 
00003750 4e414356 
00003754 584d495f 
00003758 58454c46 
0000375c 334e4143 
00003760 5f525341 
00003764 454c4552 
00003768 5f455341 
0000376c 53524556 
00003770 204e4f49 
00003774 78302026  13431 	.data.b	38,32,48,120,70,70,117,41,0
00003778 29754646 
0000377c 00 
0000377d 01        13432 	.data.b	1
0000377e 049a      13433 	.data.b	154,4
00003780 5f4e4143  13434 	.data.b	67,65,78,95,77,79,68,85,76,69,95,73,68,32,56,48,117,0
00003784 55444f4d 
00003788 495f454c 
0000378c 30382044 
00003790 0075 
00003792 01        13435 	.data.b	1
00003793 04af      13436 	.data.b	175,4
00003795 5f4e4143  13437 	.data.b	67,65,78,95,70,82,69,69,32,67,65,78,95,79,75,0
00003799 45455246 
0000379d 4e414320 
000037a1 004b4f5f 
000037a5 01        13438 	.data.b	1
000037a6 04b0      13439 	.data.b	176,4
000037a8 5f4e4143  13440 	.data.b	67,65,78,95,66,85,83,89,32,67,65,78,95,78,79,84,95,83,85,80,80,79,82,84,69,68,0
000037ac 59535542 
000037b0 4e414320 
000037b4 544f4e5f 
000037b8 5055535f 
000037bc 54524f50 
000037c0 004445 
000037c3 01        13441 	.data.b	1
000037c4 04b8      13442 	.data.b	184,4
000037c6 5f4e4143  13443 	.data.b	67,65,78,95,73,78,73,84,95,73,68,32,48,120,48,48,0
000037ca 54494e49 
000037ce 2044495f 
000037d2 30307830 
000037d6 00 
000037d7 01        13444 	.data.b	1
000037d8 04b9      13445 	.data.b	185,4
000037da 5f4e4143  13446 	.data.b	67,65,78,95,73,78,73,84,67,84,82,95,73,68,32,48,120,48,50,0
000037de 54494e49 
000037e2 5f525443 
000037e6 30204449 
000037ea 00323078 
000037ee 01        13447 	.data.b	1
000037ef 04ba      13448 	.data.b	186,4
000037f1 5f4e4143  13449 	.data.b	67,65,78,95,83,69,84,67,84,82,95,73,68,32,48,120,48,51,0
000037f5 43544553 
000037f9 495f5254 
000037fd 78302044 
00003801 003330 
00003804 01        13450 	.data.b	1
00003805 04bb      13451 	.data.b	187,4
00003807 5f4e4143  13452 	.data.b	67,65,78,95,68,73,73,78,84,95,73,68,32,48,120,48,52,0
0000380b 4e494944 
0000380f 44495f54 

                                                                      Page 309
                                                              C:\Users\Fengyuan\AppData\Local\Temp\gh_0000sro1.s
00003813 30783020 
00003817 0034 
00003819 01        13453 	.data.b	1
0000381a 04bc      13454 	.data.b	188,4
0000381c 5f4e4143  13455 	.data.b	67,65,78,95,69,78,73,78,84,95,73,68,32,48,120,48,53,0
00003820 4e494e45 
00003824 44495f54 
00003828 30783020 
0000382c 0035 
0000382e 01        13456 	.data.b	1
0000382f 04bd      13457 	.data.b	189,4
00003831 5f4e4143  13458 	.data.b	67,65,78,95,87,82,73,84,69,95,73,68,32,48,120,48,54,0
00003835 54495257 
00003839 44495f45 
0000383d 30783020 
00003841 0036 
00003843 01        13459 	.data.b	1
00003844 04c0      13460 	.data.b	192,4
00003846 5f4e4143  13461 	.data.b	67,65,78,95,77,65,73,78,70,67,84,95,82,69,65,68,95,73,68,32,48,120,48,56,0
0000384a 4e49414d 
0000384e 5f544346 
00003852 44414552 
00003856 2044495f 
0000385a 38307830 
0000385e 00 
0000385f 01        13462 	.data.b	1
00003860 04c3      13463 	.data.b	195,4
00003862 5f4e4143  13464 	.data.b	67,65,78,95,77,65,73,78,70,67,84,95,77,79,68,69,95,73,68,32,48,120,48,67,0
00003866 4e49414d 
0000386a 5f544346 
0000386e 45444f4d 
00003872 2044495f 
00003876 43307830 
0000387a 00 
0000387b 01        13465 	.data.b	1
0000387c 04c5      13466 	.data.b	197,4
0000387e 5f4e4143  13467 	.data.b	67,65,78,95,67,72,65,78,71,69,95,66,82,95,73,68,32,48,120,48,68,0
00003882 4e414843 
00003886 425f4547 
0000388a 44495f52 
0000388e 30783020 
00003892 0044 
00003894 01        13468 	.data.b	1
00003895 04ca      13469 	.data.b	202,4
00003897 5f4e4143  13470 	.data.b	67,65,78,95,82,88,73,78,68,73,95,73,68,32,48,120,49,48,0
0000389b 4e495852 
0000389f 495f4944 
000038a3 78302044 
000038a7 003031 
000038aa 01        13471 	.data.b	1
000038ab 04cb      13472 	.data.b	203,4
000038ad 5f4e4143  13473 	.data.b	67,65,78,95,84,88,67,78,70,95,73,68,32,48,120,49,49,0
000038b1 4e435854 
000038b5 44495f46 
000038b9 31783020 
000038bd 0031 
000038bf 01        13474 	.data.b	1
000038c0 04cd      13475 	.data.b	205,4
000038c2 5f4e4143  13476 	.data.b	67,65,78,95,67,84,82,66,85,83,79,70,70,95,73,68,32,48,120,49,51,0
000038c6 42525443 
000038ca 464f5355 

                                                                      Page 310
                                                              C:\Users\Fengyuan\AppData\Local\Temp\gh_0000sro1.s
000038ce 44495f46 
000038d2 31783020 
000038d6 0033 
000038d8 01        13477 	.data.b	1
000038d9 04ce      13478 	.data.b	206,4
000038db 5f4e4143  13479 	.data.b	67,65,78,95,72,87,95,65,67,67,69,83,83,95,73,68,32,48,120,50,48,0
000038df 415f5748 
000038e3 53454343 
000038e7 44495f53 
000038eb 32783020 
000038ef 0030 
000038f1 01        13480 	.data.b	1
000038f2 04d2      13481 	.data.b	210,4
000038f4 5f4e4143  13482 	.data.b	67,65,78,95,69,95,78,79,95,69,82,82,79,82,32,40,117,105,110,116,56,41,48,120,48,48,0
000038f8 4f4e5f45 
000038fc 5252455f 
00003900 2820524f 
00003904 746e6975 
00003908 78302938 
0000390c 003030 
0000390f 01        13483 	.data.b	1
00003910 04d3      13484 	.data.b	211,4
00003912 5f4e4143  13485 	.data.b	67,65,78,95,69,95,80,65,82,65,77,95,80,79,73,78,84,69,82,32,40,117,105,110,116,56,41,48,120,48,49,0
00003916 41505f45 
0000391a 5f4d4152 
0000391e 4e494f50 
00003922 20524554 
00003926 6e697528 
0000392a 30293874 
0000392e 00313078 
00003932 01        13486 	.data.b	1
00003933 04d4      13487 	.data.b	212,4
00003935 5f4e4143  13488 	.data.b	67,65,78,95,69,95,80,65,82,65,77,95,72,65,78,68,76,69,32,40,117,105,110,116,56,41,48,120,48,50,0
00003939 41505f45 
0000393d 5f4d4152 
00003941 444e4148 
00003945 2820454c 
00003949 746e6975 
0000394d 78302938 
00003951 003230 
00003954 01        13489 	.data.b	1
00003955 04d5      13490 	.data.b	213,4
00003957 5f4e4143  13491 	.data.b	67,65,78,95,69,95,80,65,82,65,77,95,68,76,67,32,40,117,105,110,116,56,41,48,120,48,51,0
0000395b 41505f45 
0000395f 5f4d4152 
00003963 20434c44 
00003967 6e697528 
0000396b 30293874 
0000396f 00333078 
00003973 01        13492 	.data.b	1
00003974 04d7      13493 	.data.b	215,4
00003976 5f4e4143  13494 	.data.b	67,65,78,95,69,95,85,78,73,78,73,84,32,40,117,105,110,116,56,41,48,120,48,53,0
0000397a 4e555f45 
0000397e 54494e49 
00003982 69752820 
00003986 2938746e 
0000398a 35307830 
0000398e 00 
0000398f 01        13495 	.data.b	1
00003990 04d8      13496 	.data.b	216,4
00003992 5f4e4143  13497 	.data.b	67,65,78,95,69,95,84,82,65,78,83,73,84,73,79,78,32,40,117,105,110,116,56,41,48,120,48,54,0

                                                                      Page 311
                                                              C:\Users\Fengyuan\AppData\Local\Temp\gh_0000sro1.s
00003996 52545f45 
0000399a 49534e41 
0000399e 4e4f4954 
000039a2 69752820 
000039a6 2938746e 
000039aa 36307830 
000039ae 00 
000039af 01        13498 	.data.b	1
000039b0 04d9      13499 	.data.b	217,4
000039b2 5f4e4143  13500 	.data.b	67,65,78,95,69,95,68,65,84,65,76,79,83,84,32,40,117,105,110,116,56,41,48,120,48,55,0
000039b6 41445f45 
000039ba 4f4c4154 
000039be 28205453 
000039c2 746e6975 
000039c6 78302938 
000039ca 003730 
000039cd 01        13501 	.data.b	1
000039ce 04da      13502 	.data.b	218,4
000039d0 5f4e4143  13503 	.data.b	67,65,78,95,69,95,80,65,82,65,77,95,66,65,85,68,82,65,84,69,32,40,117,105,110,116,56,41,48,120,48,56,0
000039d4 41505f45 
000039d8 5f4d4152 
000039dc 44554142 
000039e0 45544152 
000039e4 69752820 
000039e8 2938746e 
000039ec 38307830 
000039f0 00 
000039f1 01        13504 	.data.b	1
000039f2 04dc      13505 	.data.b	220,4
000039f4 5f4e4143  13506 	.data.b	67,65,78,95,69,95,84,73,77,69,79,85,84,95,68,69,84,32,40,117,105,110,116,56,41,48,120,49,49,0
000039f8 49545f45 
000039fc 554f454d 
00003a00 45445f54 
00003a04 75282054 
00003a08 38746e69 
00003a0c 31783029 
00003a10 0031 
00003a12 01        13507 	.data.b	1
00003a13 04e0      13508 	.data.b	224,4
00003a15 5f4e4143  13509 	.data.b	67,65,78,95,83,84,65,84,85,83,95,85,78,73,78,73,84,32,40,40,117,105,110,116,56,41,48,120,48,48,41,0
00003a19 54415453 
00003a1d 555f5355 
00003a21 494e494e 
00003a25 28282054 
00003a29 746e6975 
00003a2d 78302938 
00003a31 00293030 
00003a35 01        13510 	.data.b	1
00003a36 04e1      13511 	.data.b	225,4
00003a38 5f4e4143  13512 	.data.b	67,65,78,95,83,84,65,84,85,83,95,83,84,65,82,84,32,40,40,117,105,110,116,56,41,48,120,48,49,41,0
00003a3c 54415453 
00003a40 535f5355 
00003a44 54524154 
00003a48 75282820 
00003a4c 38746e69 
00003a50 30783029 
00003a54 002931 
00003a57 01        13513 	.data.b	1
00003a58 04e2      13514 	.data.b	226,4
00003a5a 5f4e4143  13515 	.data.b	67,65,78,95,83,84,65,84,85,83,95,83,84,79,80,32,40,40,117,105,110,116,56,41,48,120,48,50,41,0
00003a5e 54415453 

                                                                      Page 312
                                                              C:\Users\Fengyuan\AppData\Local\Temp\gh_0000sro1.s
00003a62 535f5355 
00003a66 20504f54 
00003a6a 69752828 
00003a6e 2938746e 
00003a72 32307830 
00003a76 0029 
00003a78 01        13516 	.data.b	1
00003a79 04e3      13517 	.data.b	227,4
00003a7b 5f4e4143  13518 	.data.b	67,65,78,95,83,84,65,84,85,83,95,73,78,73,84,32,40,40,117,105,110,116,56,41,48,120,48,52,41,0
00003a7f 54415453 
00003a83 495f5355 
00003a87 2054494e 
00003a8b 69752828 
00003a8f 2938746e 
00003a93 34307830 
00003a97 0029 
00003a99 01        13519 	.data.b	1
00003a9a 04e4      13520 	.data.b	228,4
00003a9c 5f4e4143  13521 	.data.b	67,65,78,95,83,84,65,84,85,83,95,73,78,67,79,78,83,73,83,84,69,78,84,32,40,40,117,105,110,116,56,41,48,120,48,56,41,0
00003aa0 54415453 
00003aa4 495f5355 
00003aa8 4e4f434e 
00003aac 54534953 
00003ab0 20544e45 
00003ab4 69752828 
00003ab8 2938746e 
00003abc 38307830 
00003ac0 0029 
00003ac2 01        13522 	.data.b	1
00003ac3 04e7      13523 	.data.b	231,4
00003ac5 5f4e4143  13524 	.data.b	67,65,78,95,83,84,65,84,85,83,95,66,85,83,79,70,70,32,40,40,117,105,110,116,56,41,48,120,52,48,41,0
00003ac9 54415453 
00003acd 425f5355 
00003ad1 464f5355 
00003ad5 28282046 
00003ad9 746e6975 
00003add 78302938 
00003ae1 00293034 
00003ae5 01        13525 	.data.b	1
00003ae6 04e8      13526 	.data.b	232,4
00003ae8 5f4e4143  13527 	.data.b	67,65,78,95,83,84,65,84,85,83,95,83,76,69,69,80,32,40,40,117,105,110,116,56,41,48,120,56,48,41,0
00003aec 54415453 
00003af0 535f5355 
00003af4 5045454c 
00003af8 75282820 
00003afc 38746e69 
00003b00 38783029 
00003b04 002930 
00003b07 01        13528 	.data.b	1
00003b08 04e9      13529 	.data.b	233,4
00003b0a 5f4e4143  13530 	.data.b	67,65,78,95,83,84,65,84,85,83,95,77,65,83,75,95,78,79,77,79,68,69,32,40,40,117,105,110,116,56,41,48,120,48,67,41,0
00003b0e 54415453 
00003b12 4d5f5355 
00003b16 5f4b5341 
00003b1a 4f4d4f4e 
00003b1e 28204544 
00003b22 6e697528 
00003b26 30293874 
00003b2a 29433078 
00003b2e 00 
00003b2f 01        13531 	.data.b	1

                                                                      Page 313
                                                              C:\Users\Fengyuan\AppData\Local\Temp\gh_0000sro1.s
00003b30 04ec      13532 	.data.b	236,4
00003b32 5f4e4143  13533 	.data.b	67,65,78,95,82,69,81,95,78,79,78,69,32,40,40,117,105,110,116,56,41,48,120,48,48,41,0
00003b36 5f514552 
00003b3a 454e4f4e 
00003b3e 75282820 
00003b42 38746e69 
00003b46 30783029 
00003b4a 002930 
00003b4d 01        13534 	.data.b	1
00003b4e 04ed      13535 	.data.b	237,4
00003b50 5f4e4143  13536 	.data.b	67,65,78,95,82,69,81,95,83,84,65,82,84,32,40,40,117,105,110,116,56,41,48,120,48,49,41,0
00003b54 5f514552 
00003b58 52415453 
00003b5c 28282054 
00003b60 746e6975 
00003b64 78302938 
00003b68 00293130 
00003b6c 01        13537 	.data.b	1
00003b6d 04ee      13538 	.data.b	238,4
00003b6f 5f4e4143  13539 	.data.b	67,65,78,95,82,69,81,95,83,84,79,80,32,40,40,117,105,110,116,56,41,48,120,48,50,41,0
00003b73 5f514552 
00003b77 504f5453 
00003b7b 75282820 
00003b7f 38746e69 
00003b83 30783029 
00003b87 002932 
00003b8a 01        13540 	.data.b	1
00003b8b 04ef      13541 	.data.b	239,4
00003b8d 5f4e4143  13542 	.data.b	67,65,78,95,82,69,81,95,73,78,73,84,95,78,79,95,83,84,79,80,32,40,40,117,105,110,116,56,41,48,120,48,52,41,0
00003b91 5f514552 
00003b95 54494e49 
00003b99 5f4f4e5f 
00003b9d 504f5453 
00003ba1 75282820 
00003ba5 38746e69 
00003ba9 30783029 
00003bad 002934 
00003bb0 01        13543 	.data.b	1
00003bb1 04f2      13544 	.data.b	242,4
00003bb3 5f4e4143  13545 	.data.b	67,65,78,95,82,69,81,95,83,76,69,69,80,32,40,40,117,105,110,116,56,41,48,120,56,48,41,0
00003bb7 5f514552 
00003bbb 45454c53 
00003bbf 28282050 
00003bc3 746e6975 
00003bc7 78302938 
00003bcb 00293038 
00003bcf 01        13546 	.data.b	1
00003bd0 0583      13547 	.data.b	131,5
00003bd2 6e61436b  13548 	.data.b	107,67,97,110,76,111,111,112,83,116,97,114,116,32,40,40,117,105,110,116,56,41,67,65,78,95,76,79,79,80,95,77,65,88,41,0
00003bd6 706f6f4c 
00003bda 72617453 
00003bde 28282074 
00003be2 746e6975 
00003be6 41432938 
00003bea 4f4c5f4e 
00003bee 4d5f504f 
00003bf2 00295841 
00003bf6 01        13549 	.data.b	1
00003bf7 0584      13550 	.data.b	132,5
00003bf9 6e61436b  13551 	.data.b	107,67,97,110,76,111,111,112,83,116,111,112,32,40,40,117,105,110,116,56,41,67,65,78,95,76,79,79,80,95,77,65,88,41,0
00003bfd 706f6f4c 

                                                                      Page 314
                                                              C:\Users\Fengyuan\AppData\Local\Temp\gh_0000sro1.s
00003c01 706f7453 
00003c05 75282820 
00003c09 38746e69 
00003c0d 4e414329 
00003c11 4f4f4c5f 
00003c15 414d5f50 
00003c19 002958 
00003c1c 01        13552 	.data.b	1
00003c1d 0587      13553 	.data.b	135,5
00003c1f 5f4e4143  13554 	.data.b	67,65,78,95,76,79,79,80,95,65,77,79,85,78,84,32,40,40,117,105,110,116,56,41,40,67,65,78,95,76,79,79,80,95,77,65,88,32,43,32,49,117,41,41,0
00003c23 504f4f4c 
00003c27 4f4d415f 
00003c2b 20544e55 
00003c2f 69752828 
00003c33 2938746e 
00003c37 4e414328 
00003c3b 4f4f4c5f 
00003c3f 414d5f50 
00003c43 202b2058 
00003c47 29297531 
00003c4b 00 
00003c4c 01        13555 	.data.b	1
00003c4d 05b3      13556 	.data.b	179,5
00003c4f 5f4e4143  13557 	.data.b	67,65,78,95,68,69,65,67,84,73,86,65,84,69,95,67,79,78,84,82,79,76,76,69,82,32,67,65,78,95,83,84,65,84,85,83,95,73,78,67,79,78,83,73,83,84,69,78,84,0
00003c53 43414544 
00003c57 41564954 
00003c5b 435f4554 
00003c5f 52544e4f 
00003c63 454c4c4f 
00003c67 41432052 
00003c6b 54535f4e 
00003c6f 53555441 
00003c73 434e495f 
00003c77 49534e4f 
00003c7b 4e455453 
00003c7f 0054 
00003c81 01        13558 	.data.b	1
00003c82 05bc      13559 	.data.b	188,5
00003c84 4e455f43  13560 	.data.b	67,95,69,78,65,66,76,69,95,79,83,69,75,95,79,83,32,0
00003c88 454c4241 
00003c8c 45534f5f 
00003c90 534f5f4b 
00003c94 0020 
00003c96 01        13561 	.data.b	1
00003c97 05e4      13562 	.data.b	228,5
00003c99 4e455f43  13563 	.data.b	67,95,69,78,65,66,76,69,95,82,88,95,66,65,83,73,67,67,65,78,95,79,66,74,69,67,84,83,32,0
00003c9d 454c4241 
00003ca1 5f58525f 
00003ca5 49534142 
00003ca9 4e414343 
00003cad 4a424f5f 
00003cb1 53544345 
00003cb5 0020 
00003cb7 01        13564 	.data.b	1
00003cb8 0691      13565 	.data.b	145,6
00003cba 4e455f43  13566 	.data.b	67,95,69,78,65,66,76,69,95,79,86,69,82,82,85,78,32,0
00003cbe 454c4241 
00003cc2 45564f5f 
00003cc6 4e555252 
00003cca 0020 
00003ccc 01        13567 	.data.b	1

                                                                      Page 315
                                                              C:\Users\Fengyuan\AppData\Local\Temp\gh_0000sro1.s
00003ccd 06b4      13568 	.data.b	180,6
00003ccf 5f4e4143  13569 	.data.b	67,65,78,95,69,78,65,66,76,69,95,68,89,78,65,77,73,67,95,70,85,76,76,67,65,78,95,73,68,32,0
00003cd3 42414e45 
00003cd7 445f454c 
00003cdb 4d414e59 
00003cdf 465f4349 
00003ce3 434c4c55 
00003ce7 495f4e41 
00003ceb 002044 
00003cee 01        13570 	.data.b	1
00003cef 06bf      13571 	.data.b	191,6
00003cf1 49535f43  13572 	.data.b	67,95,83,73,78,71,76,69,95,82,69,67,69,73,86,69,95,67,72,65,78,78,69,76,32,0
00003cf5 454c474e 
00003cf9 4345525f 
00003cfd 45564945 
00003d01 4148435f 
00003d05 4c454e4e 
00003d09 0020 
00003d0b 01        13573 	.data.b	1
00003d0c 06c1      13574 	.data.b	193,6
00003d0e 5f4e4143  13575 	.data.b	67,65,78,95,67,72,65,78,78,69,76,95,67,65,78,84,89,80,69,95,79,78,76,89,32,118,111,105,100,0
00003d12 4e414843 
00003d16 5f4c454e 
00003d1a 544e4143 
00003d1e 5f455059 
00003d22 594c4e4f 
00003d26 696f7620 
00003d2a 0064 
00003d2c 01        13576 	.data.b	1
00003d2d 06c2      13577 	.data.b	194,6
00003d2f 5f4e4143  13578 	.data.b	67,65,78,95,67,72,65,78,78,69,76,95,67,65,78,84,89,80,69,95,70,73,82,83,84,32,0
00003d33 4e414843 
00003d37 5f4c454e 
00003d3b 544e4143 
00003d3f 5f455059 
00003d43 53524946 
00003d47 002054 
00003d4a 01        13579 	.data.b	1
00003d4b 06c3      13580 	.data.b	195,6
00003d4d 5f4e4143  13581 	.data.b	67,65,78,95,67,72,65,78,78,69,76,95,67,65,78,84,89,80,69,95,76,79,67,65,76,32,0
00003d51 4e414843 
00003d55 5f4c454e 
00003d59 544e4143 
00003d5d 5f455059 
00003d61 41434f4c 
00003d65 00204c 
00003d68 01        13582 	.data.b	1
00003d69 06c4      13583 	.data.b	196,6
00003d6b 5f4e4143  13584 	.data.b	67,65,78,95,67,72,65,78,78,69,76,95,67,65,78,80,65,82,65,95,79,78,76,89,32,0
00003d6f 4e414843 
00003d73 5f4c454e 
00003d77 504e4143 
00003d7b 5f415241 
00003d7f 594c4e4f 
00003d83 0020 
00003d85 01        13585 	.data.b	1
00003d86 06c5      13586 	.data.b	197,6
00003d88 5f4e4143  13587 	.data.b	67,65,78,95,67,72,65,78,78,69,76,95,67,65,78,80,65,82,65,95,70,73,82,83,84,32,0
00003d8c 4e414843 
00003d90 5f4c454e 
00003d94 504e4143 

                                                                      Page 316
                                                              C:\Users\Fengyuan\AppData\Local\Temp\gh_0000sro1.s
00003d98 5f415241 
00003d9c 53524946 
00003da0 002054 
00003da3 01        13588 	.data.b	1
00003da4 06c6      13589 	.data.b	198,6
00003da6 5f4e4143  13590 	.data.b	67,65,78,95,72,87,95,67,72,65,78,78,69,76,95,67,65,78,84,89,80,69,95,79,78,76,89,32,118,111,105,100,0
00003daa 435f5748 
00003dae 4e4e4148 
00003db2 435f4c45 
00003db6 59544e41 
00003dba 4f5f4550 
00003dbe 20594c4e 
00003dc2 64696f76 
00003dc6 00 
00003dc7 01        13591 	.data.b	1
00003dc8 06c7      13592 	.data.b	199,6
00003dca 5f4e4143  13593 	.data.b	67,65,78,95,72,87,95,67,72,65,78,78,69,76,95,67,65,78,84,89,80,69,95,70,73,82,83,84,32,0
00003dce 435f5748 
00003dd2 4e4e4148 
00003dd6 435f4c45 
00003dda 59544e41 
00003dde 465f4550 
00003de2 54535249 
00003de6 0020 
00003de8 01        13594 	.data.b	1
00003de9 06c9      13595 	.data.b	201,6
00003deb 5f4e4143  13596 	.data.b	67,65,78,95,72,87,95,67,72,65,78,78,69,76,95,67,65,78,80,65,82,65,95,79,78,76,89,32,0
00003def 435f5748 
00003df3 4e4e4148 
00003df7 435f4c45 
00003dfb 41504e41 
00003dff 4f5f4152 
00003e03 20594c4e 
00003e07 00 
00003e08 01        13597 	.data.b	1
00003e09 06ca      13598 	.data.b	202,6
00003e0b 5f4e4143  13599 	.data.b	67,65,78,95,72,87,95,67,72,65,78,78,69,76,95,67,65,78,80,65,82,65,95,70,73,82,83,84,32,0
00003e0f 435f5748 
00003e13 4e4e4148 
00003e17 435f4c45 
00003e1b 41504e41 
00003e1f 465f4152 
00003e23 54535249 
00003e27 0020 
00003e29 01        13600 	.data.b	1
00003e2a 07d8      13601 	.data.b	216,7
00003e2c 4f4e5f56  13602 	.data.b	86,95,78,79,78,69,32,0
00003e30 0020454e 
00003e34 01        13603 	.data.b	1
00003e35 07e0      13604 	.data.b	224,7
00003e37 5f4e4143  13605 	.data.b	67,65,78,95,83,84,65,84,73,67,32,115,116,97,116,105,99,0
00003e3b 54415453 
00003e3f 73204349 
00003e43 69746174 
00003e47 0063 
00003e49 01        13606 	.data.b	1
00003e4a 07e5      13607 	.data.b	229,7
00003e4c 5f4e4143  13608 	.data.b	67,65,78,95,76,79,67,65,76,95,73,78,76,73,78,69,32,76,79,67,65,76,95,73,78,76,73,78,69,0
00003e50 41434f4c 
00003e54 4e495f4c 
00003e58 454e494c 

                                                                      Page 317
                                                              C:\Users\Fengyuan\AppData\Local\Temp\gh_0000sro1.s
00003e5c 434f4c20 
00003e60 495f4c41 
00003e64 4e494c4e 
00003e68 0045 
00003e6a 01        13609 	.data.b	1
00003e6b 07eb      13610 	.data.b	235,7
00003e6d 45445f56  13611 	.data.b	86,95,68,69,70,95,86,65,82,40,115,116,111,114,97,103,101,44,118,97,114,116,121,112,101,44,109,101,109,99,108,97,115,115,41,32,115,116,111,114,97,103,101,32,86,65,82,40,118,97,114,116,121,112,101,44,32,67,65,78
00003e71 41565f46 
00003e75 74732852 
00003e79 6761726f 
00003e7d 61762c65 
00003e81 70797472 
00003e85 656d2c65 
00003e89 616c636d 
00003e8d 20297373 
00003e91 726f7473 
00003e95 20656761 
00003e99 28524156 
00003e9d 74726176 
00003ea1 2c657079 
00003ea5 4e414320 
00003ea9 2323205f  13612 	.data.b	95,32,35,35,32,109,101,109,99,108,97,115,115,41,0
00003ead 6d656d20 
00003eb1 73616c63 
00003eb5 002973 
00003eb8 01        13613 	.data.b	1
00003eb9 07ee      13614 	.data.b	238,7
00003ebb 45445f56  13615 	.data.b	86,95,68,69,70,95,86,65,82,95,84,89,80,69,40,115,116,111,114,97,103,101,44,118,97,114,116,121,112,101,41,32,116,121,112,101,100,101,102,32,115,116,111,114,97,103,101,32,86,65,82,40,118,97,114,116,121,112,101,44
00003ebf 41565f46 
00003ec3 59545f52 
00003ec7 73284550 
00003ecb 61726f74 
00003ecf 762c6567 
00003ed3 79747261 
00003ed7 20296570 
00003edb 65707974 
00003edf 20666564 
00003ee3 726f7473 
00003ee7 20656761 
00003eeb 28524156 
00003eef 74726176 
00003ef3 2c657079 
00003ef7 50595420  13616 	.data.b	32,84,89,80,69,68,69,70,41,0
00003efb 46454445 
00003eff 0029 
00003f01 01        13617 	.data.b	1
00003f02 07f0      13618 	.data.b	240,7
00003f04 45445f56  13619 	.data.b	86,95,68,69,70,95,80,50,86,65,82,95,84,89,80,69,40,115,116,111,114,97,103,101,44,112,116,114,116,121,112,101,44,112,116,114,99,108,97,115,115,41,32,116,121,112,101,100,101,102,32,115,116,111,114,97,103,101,32,80
00003f08 32505f46 
00003f0c 5f524156 
00003f10 45505954 
00003f14 6f747328 
00003f18 65676172 
00003f1c 7274702c 
00003f20 65707974 
00003f24 7274702c 
00003f28 73616c63 
00003f2c 74202973 
00003f30 64657079 
00003f34 73206665 
00003f38 61726f74 

                                                                      Page 318
                                                              C:\Users\Fengyuan\AppData\Local\Temp\gh_0000sro1.s
00003f3c 50206567 
00003f40 52415632  13620 	.data.b	50,86,65,82,40,112,116,114,116,121,112,101,44,32,84,89,80,69,68,69,70,44,32,67,65,78,95,32,35,35,32,112,116,114,99,108,97,115,115,32,41,0
00003f44 72747028 
00003f48 65707974 
00003f4c 5954202c 
00003f50 45444550 
00003f54 43202c46 
00003f58 205f4e41 
00003f5c 70202323 
00003f60 6c637274 
00003f64 20737361 
00003f68 0029 
00003f6a 01        13621 	.data.b	1
00003f6b 07f3      13622 	.data.b	243,7
00003f6d 45445f56  13623 	.data.b	86,95,68,69,70,95,80,50,83,70,82,95,67,65,78,95,84,89,80,69,40,115,116,111,114,97,103,101,44,112,116,114,116,121,112,101,41,32,116,121,112,101,100,101,102,32,115,116,111,114,97,103,101,32,80,50,86,65,82,40
00003f71 32505f46 
00003f75 5f524653 
00003f79 5f4e4143 
00003f7d 45505954 
00003f81 6f747328 
00003f85 65676172 
00003f89 7274702c 
00003f8d 65707974 
00003f91 79742029 
00003f95 65646570 
00003f99 74732066 
00003f9d 6761726f 
00003fa1 32502065 
00003fa5 28524156 
00003fa9 74727470  13624 	.data.b	112,116,114,116,121,112,101,44,32,84,89,80,69,68,69,70,44,32,67,65,78,95,82,69,71,95,67,65,78,67,69,76,76,41,0
00003fad 2c657079 
00003fb1 50595420 
00003fb5 46454445 
00003fb9 4143202c 
00003fbd 45525f4e 
00003fc1 41435f47 
00003fc5 4c45434e 
00003fc9 00294c 
00003fcc 01        13625 	.data.b	1
00003fcd 07f5      13626 	.data.b	245,7
00003fcf 45445f56  13627 	.data.b	86,95,68,69,70,95,67,79,78,83,84,40,115,116,111,114,97,103,101,44,116,121,112,101,44,109,101,109,99,108,97,115,115,41,32,115,116,111,114,97,103,101,32,67,79,78,83,84,40,116,121,112,101,44,32,67,65,78,95,32
00003fd3 4f435f46 
00003fd7 2854534e 
00003fdb 726f7473 
00003fdf 2c656761 
00003fe3 65707974 
00003fe7 6d656d2c 
00003feb 73616c63 
00003fef 73202973 
00003ff3 61726f74 
00003ff7 43206567 
00003ffb 54534e4f 
00003fff 70797428 
00004003 43202c65 
00004007 205f4e41 
0000400b 6d202323  13628 	.data.b	35,35,32,109,101,109,99,108,97,115,115,41,0
0000400f 6c636d65 
00004013 29737361 
00004017 00 
00004018 01        13629 	.data.b	1
00004019 07f8      13630 	.data.b	248,7

                                                                      Page 319
                                                              C:\Users\Fengyuan\AppData\Local\Temp\gh_0000sro1.s
0000401b 45445f56  13631 	.data.b	86,95,68,69,70,95,80,50,67,79,78,83,84,95,84,89,80,69,40,115,116,111,114,97,103,101,44,112,116,114,116,121,112,101,44,112,116,114,99,108,97,115,115,41,32,116,121,112,101,100,101,102,32,115,116,111,114,97,103,101
0000401f 32505f46 
00004023 534e4f43 
00004027 59545f54 
0000402b 73284550 
0000402f 61726f74 
00004033 702c6567 
00004037 79747274 
0000403b 702c6570 
0000403f 6c637274 
00004043 29737361 
00004047 70797420 
0000404b 66656465 
0000404f 6f747320 
00004053 65676172 
00004057 43325020  13632 	.data.b	32,80,50,67,79,78,83,84,40,112,116,114,116,121,112,101,44,32,84,89,80,69,68,69,70,44,32,67,65,78,95,32,35,35,32,112,116,114,99,108,97,115,115,41,0
0000405b 54534e4f 
0000405f 72747028 
00004063 65707974 
00004067 5954202c 
0000406b 45444550 
0000406f 43202c46 
00004073 205f4e41 
00004077 70202323 
0000407b 6c637274 
0000407f 29737361 
00004083 00 
00004084 01        13633 	.data.b	1
00004085 07fa      13634 	.data.b	250,7
00004087 45445f56  13635 	.data.b	86,95,68,69,70,95,67,79,78,83,84,80,50,67,79,78,83,84,40,115,116,111,114,97,103,101,44,112,116,114,116,121,112,101,44,109,101,109,99,108,97,115,115,44,112,116,114,99,108,97,115,115,41,32,115,116,111,114,97,103
0000408b 4f435f46 
0000408f 5054534e 
00004093 4e4f4332 
00004097 73285453 
0000409b 61726f74 
0000409f 702c6567 
000040a3 79747274 
000040a7 6d2c6570 
000040ab 6c636d65 
000040af 2c737361 
000040b3 63727470 
000040b7 7373616c 
000040bb 74732029 
000040bf 6761726f 
000040c3 4f432065  13636 	.data.b	101,32,67,79,78,83,84,80,50,67,79,78,83,84,40,112,116,114,116,121,112,101,44,32,67,65,78,95,32,35,35,32,109,101,109,99,108,97,115,115,44,32,67,65,78,95,32,35,35,32,112,116,114,99,108,97,115,115,41,0
000040c7 5054534e 
000040cb 4e4f4332 
000040cf 70285453 
000040d3 79747274 
000040d7 202c6570 
000040db 5f4e4143 
000040df 20232320 
000040e3 636d656d 
000040e7 7373616c 
000040eb 4143202c 
000040ef 23205f4e 
000040f3 74702023 
000040f7 616c6372 
000040fb 00297373 
000040ff 01        13637 	.data.b	1
00004100 07fc      13638 	.data.b	252,7

                                                                      Page 320
                                                              C:\Users\Fengyuan\AppData\Local\Temp\gh_0000sro1.s
00004102 45445f56  13639 	.data.b	86,95,68,69,70,95,70,85,78,67,40,115,116,111,114,97,103,101,44,114,101,116,116,121,112,101,44,109,101,109,99,108,97,115,115,41,32,115,116,111,114,97,103,101,32,70,85,78,67,40,114,101,116,116,121,112,101,44,32,67
00004106 55465f46 
0000410a 7328434e 
0000410e 61726f74 
00004112 722c6567 
00004116 79747465 
0000411a 6d2c6570 
0000411e 6c636d65 
00004122 29737361 
00004126 6f747320 
0000412a 65676172 
0000412e 4e554620 
00004132 65722843 
00004136 70797474 
0000413a 43202c65 
0000413e 205f4e41  13640 	.data.b	65,78,95,32,35,35,32,109,101,109,99,108,97,115,115,41,0
00004142 6d202323 
00004146 6c636d65 
0000414a 29737361 
0000414e 00 
0000414f 01        13641 	.data.b	1
00004150 07fd      13642 	.data.b	253,7
00004152 45445f56  13643 	.data.b	86,95,68,69,70,95,70,85,78,67,95,65,80,73,40,115,116,111,114,97,103,101,44,114,101,116,116,121,112,101,44,109,101,109,99,108,97,115,115,41,32,115,116,111,114,97,103,101,32,70,85,78,67,40,114,101,116,116,121,112
00004156 55465f46 
0000415a 415f434e 
0000415e 73284950 
00004162 61726f74 
00004166 722c6567 
0000416a 79747465 
0000416e 6d2c6570 
00004172 6c636d65 
00004176 29737361 
0000417a 6f747320 
0000417e 65676172 
00004182 4e554620 
00004186 65722843 
0000418a 70797474 
0000418e 43202c65  13644 	.data.b	101,44,32,67,65,78,95,32,35,35,32,109,101,109,99,108,97,115,115,41,0
00004192 205f4e41 
00004196 6d202323 
0000419a 6c636d65 
0000419e 29737361 
000041a2 00 
000041a3 01        13645 	.data.b	1
000041a4 0884      13646 	.data.b	132,8
000041a6 6e697576  13647 	.data.b	118,117,105,110,116,56,32,117,105,110,116,56,0
000041aa 75203874 
000041ae 38746e69 
000041b2 00 
000041b3 01        13648 	.data.b	1
000041b4 088a      13649 	.data.b	138,8
000041b6 6e697576  13650 	.data.b	118,117,105,110,116,49,54,32,117,105,110,116,49,54,0
000041ba 20363174 
000041be 746e6975 
000041c2 003631 
000041c5 01        13651 	.data.b	1
000041c6 0890      13652 	.data.b	144,8
000041c8 6e697576  13653 	.data.b	118,117,105,110,116,51,50,32,117,105,110,116,51,50,0
000041cc 20323374 
000041d0 746e6975 
000041d4 003233 

                                                                      Page 321
                                                              C:\Users\Fengyuan\AppData\Local\Temp\gh_0000sro1.s
000041d7 01        13654 	.data.b	1
000041d8 08af      13655 	.data.b	175,8
000041da 4e455f43  13656 	.data.b	67,95,69,78,65,66,76,69,95,67,65,78,95,66,85,83,79,70,70,95,73,78,84,69,82,82,85,80,84,32,0
000041de 454c4241 
000041e2 4e41435f 
000041e6 5355425f 
000041ea 5f46464f 
000041ee 45544e49 
000041f2 50555252 
000041f6 002054 
000041f9 01        13657 	.data.b	1
000041fa 08b5      13658 	.data.b	181,8
000041fc 4e455f43  13659 	.data.b	67,95,69,78,65,66,76,69,95,67,65,78,95,82,88,84,88,95,73,78,84,69,82,82,85,80,84,32,0
00004200 454c4241 
00004204 4e41435f 
00004208 5458525f 
0000420c 4e495f58 
00004210 52524554 
00004214 20545055 
00004218 00 
00004219 01        13660 	.data.b	1
0000421a 08c6      13661 	.data.b	198,8
0000421c 4f6e6143  13662 	.data.b	67,97,110,79,98,106,101,99,116,72,97,110,100,108,101,32,67,97,110,95,72,119,72,97,110,100,108,101,84,121,112,101,0
00004220 63656a62 
00004224 6e614874 
00004228 20656c64 
0000422c 5f6e6143 
00004230 61487748 
00004234 656c646e 
00004238 65707954 
0000423c 00 
0000423d 01        13663 	.data.b	1
0000423e 09cd      13664 	.data.b	205,9
00004240 656c4670  13665 	.data.b	112,70,108,101,120,67,65,78,40,120,41,32,40,40,116,70,108,101,120,67,65,78,80,116,114,41,40,40,118,117,105,110,116,51,50,41,67,97,110,95,71,101,116,66,97,115,101,65,100,100,114,101,115,115,79,102,67,111,110,116
00004244 4e414378 
00004248 20297828 
0000424c 46742828 
00004250 4378656c 
00004254 74504e41 
00004258 28282972 
0000425c 6e697576 
00004260 29323374 
00004264 5f6e6143 
00004268 42746547 
0000426c 41657361 
00004270 65726464 
00004274 664f7373 
00004278 746e6f43 
0000427c 6c6c6f72  13666 	.data.b	114,111,108,108,101,114,67,111,110,102,105,103,40,48,41,41,41,0
00004280 6f437265 
00004284 6769666e 
00004288 29293028 
0000428c 0029 
0000428e 01        13667 	.data.b	1
0000428f 0a99      13668 	.data.b	153,10
00004291 46585270  13669 	.data.b	112,82,88,70,73,70,79,40,120,41,32,40,40,116,82,88,70,73,70,79,80,116,114,41,40,40,118,117,105,110,116,51,50,41,67,97,110,95,71,101,116,66,97,115,101,65,100,100,114,101,115,115,79,102,67,111,110,116,114,111
00004295 284f4649 
00004299 28202978 
0000429d 58527428 
000042a1 4f464946 
000042a5 29727450 

                                                                      Page 322
                                                              C:\Users\Fengyuan\AppData\Local\Temp\gh_0000sro1.s
000042a9 75762828 
000042ad 33746e69 
000042b1 61432932 
000042b5 65475f6e 
000042b9 73614274 
000042bd 64644165 
000042c1 73736572 
000042c5 6f43664f 
000042c9 6f72746e 
000042cd 72656c6c  13670 	.data.b	108,108,101,114,67,111,110,102,105,103,40,48,41,32,43,32,40,118,117,105,110,116,51,50,41,48,120,48,48,56,48,41,41,0
000042d1 666e6f43 
000042d5 30286769 
000042d9 202b2029 
000042dd 69757628 
000042e1 3233746e 
000042e5 30783029 
000042e9 29303830 
000042ed 0029 
000042ef 01        13671 	.data.b	1
000042f0 0a9a      13672 	.data.b	154,10
000042f2 6e614370  13673 	.data.b	112,67,97,110,82,120,77,97,115,107,40,120,41,32,40,40,116,67,97,110,82,120,77,97,115,107,80,116,114,41,40,40,118,117,105,110,116,51,50,41,67,97,110,95,71,101,116,66,97,115,101,65,100,100,114,101,115,115,79,102
000042f6 614d7852 
000042fa 78286b73 
000042fe 28282029 
00004302 6e614374 
00004306 614d7852 
0000430a 74506b73 
0000430e 28282972 
00004312 6e697576 
00004316 29323374 
0000431a 5f6e6143 
0000431e 42746547 
00004322 41657361 
00004326 65726464 
0000432a 664f7373 
0000432e 746e6f43  13674 	.data.b	67,111,110,116,114,111,108,108,101,114,67,111,110,102,105,103,40,48,41,32,43,32,40,118,117,105,110,116,51,50,41,48,120,48,56,56,48,41,41,0
00004332 6c6c6f72 
00004336 6f437265 
0000433a 6769666e 
0000433e 20293028 
00004342 7628202b 
00004346 746e6975 
0000434a 30293233 
0000434e 38383078 
00004352 00292930 
00004356 01        13675 	.data.b	1
00004357 0ab3      13676 	.data.b	179,10
00004359 5f4e4143  13677 	.data.b	67,65,78,95,73,78,84,95,77,65,83,75,49,40,120,41,32,67,97,110,95,71,101,116,73,110,116,101,114,114,117,112,116,77,97,115,107,49,79,102,67,111,110,116,114,111,108,108,101,114,67,111,110,102,105,103,40,48,41,0
0000435d 5f544e49 
00004361 4b53414d 
00004365 29782831 
00004369 6e614320 
0000436d 7465475f 
00004371 65746e49 
00004375 70757272 
00004379 73614d74 
0000437d 664f316b 
00004381 746e6f43 
00004385 6c6c6f72 
00004389 6f437265 
0000438d 6769666e 

                                                                      Page 323
                                                              C:\Users\Fengyuan\AppData\Local\Temp\gh_0000sro1.s
00004391 00293028 
00004395 01        13678 	.data.b	1
00004396 0ae1      13679 	.data.b	225,10
00004398 4e464652  13680 	.data.b	82,70,70,78,95,86,65,76,85,69,40,120,41,32,67,97,110,95,71,101,116,82,70,70,78,79,102,67,111,110,116,114,111,108,108,101,114,67,111,110,102,105,103,40,48,41,0
0000439c 4c41565f 
000043a0 78284555 
000043a4 61432029 
000043a8 65475f6e 
000043ac 46465274 
000043b0 43664f4e 
000043b4 72746e6f 
000043b8 656c6c6f 
000043bc 6e6f4372 
000043c0 28676966 
000043c4 002930 
000043c7 01        13681 	.data.b	1
000043c8 0ae2      13682 	.data.b	226,10
000043ca 424d554e  13683 	.data.b	78,85,77,66,69,82,95,79,70,95,70,73,76,84,69,82,83,40,120,41,32,67,97,110,95,71,101,116,78,117,109,98,101,114,79,102,70,105,108,116,101,114,115,79,102,67,111,110,116,114,111,108,108,101,114,67,111,110,102,105
000043ce 4f5f5245 
000043d2 49465f46 
000043d6 5245544c 
000043da 29782853 
000043de 6e614320 
000043e2 7465475f 
000043e6 626d754e 
000043ea 664f7265 
000043ee 746c6946 
000043f2 4f737265 
000043f6 6e6f4366 
000043fa 6c6f7274 
000043fe 4372656c 
00004402 69666e6f 
00004406 29302867  13684 	.data.b	103,40,48,41,0
0000440a 00 
0000440b 01        13685 	.data.b	1
0000440c 0ae3      13686 	.data.b	227,10
0000440e 424d554e  13687 	.data.b	78,85,77,66,69,82,95,79,70,95,70,85,76,76,95,67,79,78,70,73,71,85,82,65,66,76,69,95,70,73,76,84,69,82,83,40,120,41,32,67,97,110,95,71,101,116,78,117,109,98,101,114,79,102,70,117,108,108,67,111
00004412 4f5f5245 
00004416 55465f46 
0000441a 435f4c4c 
0000441e 49464e4f 
00004422 41525547 
00004426 5f454c42 
0000442a 544c4946 
0000442e 28535245 
00004432 43202978 
00004436 475f6e61 
0000443a 754e7465 
0000443e 7265626d 
00004442 7546664f 
00004446 6f436c6c 
0000444a 6769666e  13688 	.data.b	110,102,105,103,117,114,97,98,108,101,70,105,108,116,101,114,115,79,102,67,111,110,116,114,111,108,108,101,114,67,111,110,102,105,103,40,48,41,0
0000444e 62617275 
00004452 6946656c 
00004456 7265746c 
0000445a 43664f73 
0000445e 72746e6f 
00004462 656c6c6f 
00004466 6e6f4372 
0000446a 28676966 
0000446e 002930 

                                                                      Page 324
                                                              C:\Users\Fengyuan\AppData\Local\Temp\gh_0000sro1.s
00004471 01        13689 	.data.b	1
00004472 0bb9      13690 	.data.b	185,11
00004474 41434f4c  13691 	.data.b	76,79,67,65,76,95,77,65,73,76,66,79,88,95,65,67,67,69,83,83,40,104,119,67,104,44,104,119,79,98,106,72,97,110,100,108,101,44,115,116,114,117,99,116,77,101,109,98,101,114,41,32,112,70,108,101,120,67,65,78
00004478 414d5f4c 
0000447c 4f424c49 
00004480 43415f58 
00004484 53534543 
00004488 43776828 
0000448c 77682c68 
00004490 486a624f 
00004494 6c646e61 
00004498 74732c65 
0000449c 74637572 
000044a0 626d654d 
000044a4 20297265 
000044a8 656c4670 
000044ac 4e414378 
000044b0 61636f4c  13692 	.data.b	76,111,99,97,108,45,62,99,97,110,79,98,106,101,99,116,91,40,104,119,79,98,106,72,97,110,100,108,101,41,93,46,115,116,114,117,99,116,77,101,109,98,101,114,0
000044b4 633e2d6c 
000044b8 624f6e61 
000044bc 7463656a 
000044c0 7768285b 
000044c4 486a624f 
000044c8 6c646e61 
000044cc 2e5d2965 
000044d0 75727473 
000044d4 654d7463 
000044d8 7265626d 
000044dc 00 
000044dd 01        13693 	.data.b	1
000044de 0bba      13694 	.data.b	186,11
000044e0 424f4c47  13695 	.data.b	71,76,79,66,65,76,95,77,65,73,76,66,79,88,95,65,67,67,69,83,83,40,104,119,67,104,44,104,119,79,98,106,72,97,110,100,108,101,44,115,116,114,117,99,116,77,101,109,98,101,114,41,32,112,70,108,101,120,67,65
000044e4 4d5f4c41 
000044e8 424c4941 
000044ec 415f584f 
000044f0 53454343 
000044f4 77682853 
000044f8 682c6843 
000044fc 6a624f77 
00004500 646e6148 
00004504 732c656c 
00004508 63757274 
0000450c 6d654d74 
00004510 29726562 
00004514 6c467020 
00004518 41437865 
0000451c 6828284e  13696 	.data.b	78,40,40,104,119,67,104,41,41,45,62,99,97,110,79,98,106,101,99,116,91,40,104,119,79,98,106,72,97,110,100,108,101,41,93,46,115,116,114,117,99,116,77,101,109,98,101,114,0
00004520 29684377 
00004524 633e2d29 
00004528 624f6e61 
0000452c 7463656a 
00004530 7768285b 
00004534 486a624f 
00004538 6c646e61 
0000453c 2e5d2965 
00004540 75727473 
00004544 654d7463 
00004548 7265626d 
0000454c 00 
0000454d 01        13697 	.data.b	1
0000454e 0bbf      13698 	.data.b	191,11

                                                                      Page 325
                                                              C:\Users\Fengyuan\AppData\Local\Temp\gh_0000sro1.s
00004550 534e4143  13699 	.data.b	67,65,78,83,70,82,95,84,89,80,69,32,118,117,105,110,116,51,50,0
00004554 545f5246 
00004558 20455059 
0000455c 6e697576 
00004560 00323374 
00004564 03        13700 	.data.b	3
00004565 0bc6      13701 	.data.b	198,11
00004567 1c        13702 	.data.b	28
00004568 04        13703 	.data.b	4
00004569 01        13704 	.data.b	1
0000456a 0fe6      13705 	.data.b	230,15
0000456c 4e455f43  13706 	.data.b	67,95,69,78,65,66,76,69,95,73,83,82,95,80,82,79,84,79,84,89,80,69,32,0
00004570 454c4241 
00004574 5253495f 
00004578 4f52505f 
0000457c 59544f54 
00004580 00204550 
00004584 01        13707 	.data.b	1
00004585 128d      13708 	.data.b	141,18
00004587 4e455f43  13709 	.data.b	67,95,69,78,65,66,76,69,95,80,82,79,84,69,67,84,69,68,95,82,88,95,80,82,79,67,69,83,83,32,0
0000458b 454c4241 
0000458f 4f52505f 
00004593 54434554 
00004597 525f4445 
0000459b 52505f58 
0000459f 5345434f 
000045a3 002053 
000045a6 03        13710 	.data.b	3
000045a7 1292      13711 	.data.b	146,18
000045a9 1c        13712 	.data.b	28
000045aa 04        13713 	.data.b	4
000045ab 03        13714 	.data.b	3
000045ac 1295      13715 	.data.b	149,18
000045ae 1c        13716 	.data.b	28
000045af 04        13717 	.data.b	4
000045b0 03        13718 	.data.b	3
000045b1 14e5      13719 	.data.b	229,20
000045b3 1c        13720 	.data.b	28
000045b4 04        13721 	.data.b	4
000045b5 04        13722 	.data.b	4
000045b6 01        13723 	.data.b	1
000045b7 45        13724 	.data.b	69
000045b8 494e4143  13725 	.data.b	67,65,78,73,70,95,84,82,65,78,83,77,73,84,95,66,85,70,70,69,82,95,80,82,73,79,95,66,89,95,67,65,78,73,68,32,83,84,68,95,79,78,0
000045bc 52545f46 
000045c0 4d534e41 
000045c4 425f5449 
000045c8 45464655 
000045cc 52505f52 
000045d0 425f4f49 
000045d4 41435f59 
000045d8 2044494e 
000045dc 5f445453 
000045e0 004e4f 
000045e3 01        13726 	.data.b	1
000045e4 46        13727 	.data.b	70
000045e5 494e4143  13728 	.data.b	67,65,78,73,70,95,84,82,65,78,83,77,73,84,95,66,85,70,70,69,82,95,70,73,70,79,32,83,84,68,95,79,70,70,0
000045e9 52545f46 
000045ed 4d534e41 
000045f1 425f5449 
000045f5 45464655 
000045f9 49465f52 

                                                                      Page 326
                                                              C:\Users\Fengyuan\AppData\Local\Temp\gh_0000sro1.s
000045fd 53204f46 
00004601 4f5f4454 
00004605 004646 
00004608 01        13729 	.data.b	1
00004609 48        13730 	.data.b	72
0000460a 494e4143  13731 	.data.b	67,65,78,73,70,95,83,84,65,84,73,67,95,70,68,95,84,88,81,85,69,85,69,32,83,84,68,95,79,70,70,0
0000460e 54535f46 
00004612 43495441 
00004616 5f44465f 
0000461a 55515854 
0000461e 20455545 
00004622 5f445453 
00004626 0046464f 
0000462a 01        13732 	.data.b	1
0000462b 49        13733 	.data.b	73
0000462c 494e4143  13734 	.data.b	67,65,78,73,70,95,87,65,75,69,85,80,95,83,85,80,80,79,82,84,32,83,84,68,95,79,70,70,0
00004630 41575f46 
00004634 5055454b 
00004638 5055535f 
0000463c 54524f50 
00004640 44545320 
00004644 46464f5f 
00004648 00 
00004649 01        13735 	.data.b	1
0000464a 4a        13736 	.data.b	74
0000464b 494e4143  13737 	.data.b	67,65,78,73,70,95,87,65,75,69,85,80,95,86,65,76,73,68,65,84,73,79,78,32,83,84,68,95,79,70,70,0
0000464f 41575f46 
00004653 5055454b 
00004657 4c41565f 
0000465b 54414449 
0000465f 204e4f49 
00004663 5f445453 
00004667 0046464f 
0000466b 01        13738 	.data.b	1
0000466c 4d        13739 	.data.b	77
0000466d 494e4143  13740 	.data.b	67,65,78,73,70,95,68,69,86,95,69,82,82,79,82,95,68,69,84,69,67,84,32,83,84,68,95,79,78,0
00004671 45445f46 
00004675 52455f56 
00004679 5f524f52 
0000467d 45544544 
00004681 53205443 
00004685 4f5f4454 
00004689 004e 
0000468b 01        13741 	.data.b	1
0000468c 4f        13742 	.data.b	79
0000468d 494e4143  13743 	.data.b	67,65,78,73,70,95,84,82,65,78,83,77,73,84,95,67,65,78,67,69,76,76,65,84,73,79,78,32,83,84,68,95,79,70,70,0
00004691 52545f46 
00004695 4d534e41 
00004699 435f5449 
0000469d 45434e41 
000046a1 54414c4c 
000046a5 204e4f49 
000046a9 5f445453 
000046ad 0046464f 
000046b1 01        13744 	.data.b	1
000046b2 50        13745 	.data.b	80
000046b3 494e4143  13746 	.data.b	67,65,78,73,70,95,67,65,78,67,69,76,95,83,85,80,80,79,82,84,95,65,80,73,32,83,84,68,95,79,70,70,0
000046b7 41435f46 
000046bb 4c45434e 
000046bf 5055535f 
000046c3 54524f50 

                                                                      Page 327
                                                              C:\Users\Fengyuan\AppData\Local\Temp\gh_0000sro1.s
000046c7 4950415f 
000046cb 44545320 
000046cf 46464f5f 
000046d3 00 
000046d4 01        13747 	.data.b	1
000046d5 51        13748 	.data.b	81
000046d6 494e4143  13749 	.data.b	67,65,78,73,70,95,86,69,82,83,73,79,78,95,73,78,70,79,95,65,80,73,32,83,84,68,95,79,70,70,0
000046da 45565f46 
000046de 4f495352 
000046e2 4e495f4e 
000046e6 415f4f46 
000046ea 53204950 
000046ee 4f5f4454 
000046f2 004646 
000046f5 01        13750 	.data.b	1
000046f6 54        13751 	.data.b	84
000046f7 494e4143  13752 	.data.b	67,65,78,73,70,95,84,82,67,86,95,72,65,78,68,76,73,78,71,32,83,84,68,95,79,70,70,0
000046fb 52545f46 
000046ff 485f5643 
00004703 4c444e41 
00004707 20474e49 
0000470b 5f445453 
0000470f 0046464f 
00004713 01        13753 	.data.b	1
00004714 56        13754 	.data.b	86
00004715 494e4143  13755 	.data.b	67,65,78,73,70,95,80,78,95,84,82,67,86,95,72,65,78,68,76,73,78,71,32,83,84,68,95,79,70,70,0
00004719 4e505f46 
0000471d 4352545f 
00004721 41485f56 
00004725 494c444e 
00004729 5320474e 
0000472d 4f5f4454 
00004731 004646 
00004734 01        13756 	.data.b	1
00004735 59        13757 	.data.b	89
00004736 494e4143  13758 	.data.b	67,65,78,73,70,95,83,69,84,68,89,78,65,77,73,67,84,88,73,68,95,65,80,73,32,83,84,68,95,79,70,70,0
0000473a 45535f46 
0000473e 4e594454 
00004742 43494d41 
00004746 44495854 
0000474a 4950415f 
0000474e 44545320 
00004752 46464f5f 
00004756 00 
00004757 01        13759 	.data.b	1
00004758 5a        13760 	.data.b	90
00004759 494e4143  13761 	.data.b	67,65,78,73,70,95,80,78,95,87,85,95,84,88,95,80,68,85,95,70,73,76,84,69,82,32,83,84,68,95,79,70,70,0
0000475d 4e505f46 
00004761 5f55575f 
00004765 505f5854 
00004769 465f5544 
0000476d 45544c49 
00004771 54532052 
00004775 464f5f44 
00004779 0046 
0000477b 01        13762 	.data.b	1
0000477c 5b        13763 	.data.b	91
0000477d 494e4143  13764 	.data.b	67,65,78,73,70,95,80,85,66,76,73,67,95,84,88,95,67,79,78,70,73,82,77,95,80,79,76,76,73,78,71,95,83,85,80,80,79,82,84,32,83,84,68,95,79,70,70,0
00004781 55505f46 
00004785 43494c42 
00004789 5f58545f 

                                                                      Page 328
                                                              C:\Users\Fengyuan\AppData\Local\Temp\gh_0000sro1.s
0000478d 464e4f43 
00004791 5f4d5249 
00004795 4c4c4f50 
00004799 5f474e49 
0000479d 50505553 
000047a1 2054524f 
000047a5 5f445453 
000047a9 0046464f 
000047ad 01        13765 	.data.b	1
000047ae 5e        13766 	.data.b	94
000047af 494e4143  13767 	.data.b	67,65,78,73,70,95,67,72,65,78,71,69,95,66,65,85,68,82,65,84,69,95,83,85,80,80,79,82,84,32,83,84,68,95,79,70,70,0
000047b3 48435f46 
000047b7 45474e41 
000047bb 5541425f 
000047bf 54415244 
000047c3 55535f45 
000047c7 524f5050 
000047cb 54532054 
000047cf 464f5f44 
000047d3 0046 
000047d5 01        13768 	.data.b	1
000047d6 5f        13769 	.data.b	95
000047d7 494e4143  13770 	.data.b	67,65,78,73,70,95,83,69,84,95,66,65,85,68,82,65,84,69,95,65,80,73,32,83,84,68,95,79,70,70,0
000047db 45535f46 
000047df 41425f54 
000047e3 41524455 
000047e7 415f4554 
000047eb 53204950 
000047ef 4f5f4454 
000047f3 004646 
000047f6 01        13771 	.data.b	1
000047f7 60        13772 	.data.b	96
000047f8 494e4143  13773 	.data.b	67,65,78,73,70,95,77,69,84,65,95,68,65,84,65,95,82,88,95,83,85,80,80,79,82,84,32,83,84,68,95,79,70,70,0
000047fc 454d5f46 
00004800 445f4154 
00004804 5f415441 
00004808 535f5852 
0000480c 4f505055 
00004810 53205452 
00004814 4f5f4454 
00004818 004646 
0000481b 01        13774 	.data.b	1
0000481c 61        13775 	.data.b	97
0000481d 494e4143  13776 	.data.b	67,65,78,73,70,95,77,69,84,65,95,68,65,84,65,95,84,88,95,83,85,80,80,79,82,84,32,83,84,68,95,79,70,70,0
00004821 454d5f46 
00004825 445f4154 
00004829 5f415441 
0000482d 535f5854 
00004831 4f505055 
00004835 53205452 
00004839 4f5f4454 
0000483d 004646 
00004840 01        13777 	.data.b	1
00004841 62        13778 	.data.b	98
00004842 494e4143  13779 	.data.b	67,65,78,73,70,95,74,49,57,51,57,95,68,89,78,95,65,68,68,82,95,83,85,80,80,79,82,84,32,67,65,78,73,70,95,74,49,57,51,57,95,68,89,78,95,65,68,68,82,95,68,73,83,65,66,76,69,68,0
00004846 314a5f46 
0000484a 5f393339 
0000484e 5f4e5944 
00004852 52444441 
00004856 5055535f 
0000485a 54524f50 

                                                                      Page 329
                                                              C:\Users\Fengyuan\AppData\Local\Temp\gh_0000sro1.s
0000485e 4e414320 
00004862 4a5f4649 
00004866 39333931 
0000486a 4e59445f 
0000486e 4444415f 
00004872 49445f52 
00004876 4c424153 
0000487a 004445 
0000487d 01        13780 	.data.b	1
0000487e 63        13781 	.data.b	99
0000487f 494e4143  13782 	.data.b	67,65,78,73,70,95,77,85,76,84,73,80,76,69,95,67,65,78,68,82,86,95,83,85,80,80,79,82,84,32,83,84,68,95,79,70,70,0
00004883 554d5f46 
00004887 5049544c 
0000488b 435f454c 
0000488f 52444e41 
00004893 55535f56 
00004897 524f5050 
0000489b 54532054 
0000489f 464f5f44 
000048a3 0046 
000048a5 01        13783 	.data.b	1
000048a6 64        13784 	.data.b	100
000048a7 494e4143  13785 	.data.b	67,65,78,73,70,95,82,88,95,83,69,65,82,67,72,95,67,79,78,83,73,68,69,82,95,77,83,71,95,84,89,80,69,32,83,84,68,95,79,70,70,0
000048ab 58525f46 
000048af 4145535f 
000048b3 5f484352 
000048b7 534e4f43 
000048bb 52454449 
000048bf 47534d5f 
000048c3 5059545f 
000048c7 54532045 
000048cb 464f5f44 
000048cf 0046 
000048d1 01        13786 	.data.b	1
000048d2 66        13787 	.data.b	102
000048d3 494e4143  13788 	.data.b	67,65,78,73,70,95,69,88,84,69,78,68,69,68,95,82,65,77,95,67,72,69,67,75,95,83,85,80,80,79,82,84,32,83,84,68,95,79,70,70,0
000048d7 58455f46 
000048db 444e4554 
000048df 525f4445 
000048e3 435f4d41 
000048e7 4b434548 
000048eb 5055535f 
000048ef 54524f50 
000048f3 44545320 
000048f7 46464f5f 
000048fb 00 
000048fc 01        13789 	.data.b	1
000048fd 67        13790 	.data.b	103
000048fe 494e4143  13791 	.data.b	67,65,78,73,70,95,68,65,84,65,95,67,72,69,67,75,83,85,77,95,82,88,95,83,85,80,80,79,82,84,32,83,84,68,95,79,70,70,0
00004902 41445f46 
00004906 435f4154 
0000490a 4b434548 
0000490e 5f4d5553 
00004912 535f5852 
00004916 4f505055 
0000491a 53205452 
0000491e 4f5f4454 
00004922 004646 
00004925 01        13792 	.data.b	1
00004926 68        13793 	.data.b	104
00004927 494e4143  13794 	.data.b	67,65,78,73,70,95,68,65,84,65,95,67,72,69,67,75,83,85,77,95,84,88,95,83,85,80,80,79,82,84,32,83,84,68,95,79,70,70,0

                                                                      Page 330
                                                              C:\Users\Fengyuan\AppData\Local\Temp\gh_0000sro1.s
0000492b 41445f46 
0000492f 435f4154 
00004933 4b434548 
00004937 5f4d5553 
0000493b 535f5854 
0000493f 4f505055 
00004943 53205452 
00004947 4f5f4454 
0000494b 004646 
0000494e 01        13795 	.data.b	1
0000494f 69        13796 	.data.b	105
00004950 494e4143  13797 	.data.b	67,65,78,73,70,95,83,69,84,95,80,68,85,95,82,69,67,69,80,84,73,79,78,95,77,79,68,69,95,83,85,80,80,79,82,84,32,83,84,68,95,79,70,70,0
00004954 45535f46 
00004958 44505f54 
0000495c 45525f55 
00004960 54504543 
00004964 5f4e4f49 
00004968 45444f4d 
0000496c 5055535f 
00004970 54524f50 
00004974 44545320 
00004978 46464f5f 
0000497c 00 
0000497d 01        13798 	.data.b	1
0000497e 019e      13799 	.data.b	158,1
00004980 494e4143  13800 	.data.b	67,65,78,73,70,95,83,69,65,82,67,72,95,65,76,71,79,82,73,84,72,77,32,67,65,78,73,70,95,76,73,78,69,65,82,0
00004984 45535f46 
00004988 48435241 
0000498c 474c415f 
00004990 5449524f 
00004994 43204d48 
00004998 46494e41 
0000499c 4e494c5f 
000049a0 00524145 
000049a4 01        13801 	.data.b	1
000049a5 01a4      13802 	.data.b	164,1
000049a7 494e4143  13803 	.data.b	67,65,78,73,70,95,67,79,78,70,73,71,95,86,65,82,73,65,78,84,32,67,65,78,73,70,95,67,70,71,86,65,82,95,80,82,69,67,79,77,80,73,76,69,84,73,77,69,0
000049ab 4f435f46 
000049af 4749464e 
000049b3 5241565f 
000049b7 544e4149 
000049bb 4e414320 
000049bf 435f4649 
000049c3 41564746 
000049c7 52505f52 
000049cb 4d4f4345 
000049cf 454c4950 
000049d3 454d4954 
000049d7 00 
000049d8 03        13804 	.data.b	3
000049d9 01b4      13805 	.data.b	180,1
000049db 21        13806 	.data.b	33
000049dc 01        13807 	.data.b	1
000049dd 49        13808 	.data.b	73
000049de 494e4143  13809 	.data.b	67,65,78,73,70,95,67,70,71,86,65,82,95,80,82,69,67,79,77,80,73,76,69,84,73,77,69,32,49,117,0
000049e2 46435f46 
000049e6 52415647 
000049ea 4552505f 
000049ee 504d4f43 
000049f2 54454c49 
000049f6 20454d49 

                                                                      Page 331
                                                              C:\Users\Fengyuan\AppData\Local\Temp\gh_0000sro1.s
000049fa 007531 
000049fd 01        13810 	.data.b	1
000049fe 4b        13811 	.data.b	75
000049ff 494e4143  13812 	.data.b	67,65,78,73,70,95,67,70,71,86,65,82,95,80,79,83,84,66,85,73,76,68,84,73,77,69,32,51,117,0
00004a03 46435f46 
00004a07 52415647 
00004a0b 534f505f 
00004a0f 49554254 
00004a13 4954444c 
00004a17 3320454d 
00004a1b 0075 
00004a1d 01        13813 	.data.b	1
00004a1e 7e        13814 	.data.b	126
00004a1f 494e4143  13815 	.data.b	67,65,78,73,70,95,86,69,78,68,79,82,95,73,68,32,48,120,48,48,49,69,117,0
00004a23 45565f46 
00004a27 524f444e 
00004a2b 2044495f 
00004a2f 30307830 
00004a33 00754531 
00004a37 01        13816 	.data.b	1
00004a38 01c8      13817 	.data.b	200,1
00004a3a 494e4143  13818 	.data.b	67,65,78,73,70,95,74,49,57,51,57,95,68,89,78,95,65,68,68,82,95,68,73,83,65,66,76,69,68,32,48,117,0
00004a3e 314a5f46 
00004a42 5f393339 
00004a46 5f4e5944 
00004a4a 52444441 
00004a4e 5349445f 
00004a52 454c4241 
00004a56 75302044 
00004a5a 00 
00004a5b 01        13819 	.data.b	1
00004a5c 01cd      13820 	.data.b	205,1
00004a5e 494e4143  13821 	.data.b	67,65,78,73,70,95,83,84,65,84,73,67,95,66,85,70,70,69,82,95,83,73,90,69,32,56,117,0
00004a62 54535f46 
00004a66 43495441 
00004a6a 4655425f 
00004a6e 5f524546 
00004a72 455a4953 
00004a76 00753820 
00004a7a 01        13822 	.data.b	1
00004a7b 02a0      13823 	.data.b	160,2
00004a7d 496e6143  13824 	.data.b	67,97,110,73,102,95,72,119,72,97,110,100,108,101,84,121,112,101,32,67,97,110,95,72,119,72,97,110,100,108,101,84,121,112,101,0
00004a81 77485f66 
00004a85 646e6148 
00004a89 7954656c 
00004a8d 43206570 
00004a91 485f6e61 
00004a95 6e614877 
00004a99 54656c64 
00004a9d 00657079 
00004aa1 04        13825 	.data.b	4
00004aa2 01        13826 	.data.b	1
00004aa3 028d      13827 	.data.b	141,2
00004aa5 496e6143  13828 	.data.b	67,97,110,73,102,95,82,120,73,110,100,105,99,97,116,105,111,110,40,72,114,104,44,67,97,110,73,100,44,67,97,110,68,108,99,44,67,97,110,83,100,117,80,116,114,41,32,67,97,110,73,102,95,82,120,73,110,100,105,99
00004aa9 78525f66 
00004aad 69646e49 
00004ab1 69746163 
00004ab5 48286e6f 
00004ab9 432c6872 
00004abd 64496e61 
00004ac1 6e61432c 

                                                                      Page 332
                                                              C:\Users\Fengyuan\AppData\Local\Temp\gh_0000sro1.s
00004ac5 2c636c44 
00004ac9 536e6143 
00004acd 74507564 
00004ad1 43202972 
00004ad5 66496e61 
00004ad9 4978525f 
00004add 6369646e 
00004ae1 6f697461  13829 	.data.b	97,116,105,111,110,65,115,114,52,48,51,40,40,72,114,104,41,44,32,40,67,97,110,73,100,41,44,32,40,67,97,110,68,108,99,41,44,32,40,67,97,110,83,100,117,80,116,114,41,41,0
00004ae5 7273416e 
00004ae9 28333034 
00004aed 68724828 
00004af1 28202c29 
00004af5 496e6143 
00004af9 202c2964 
00004afd 6e614328 
00004b01 29636c44 
00004b05 4328202c 
00004b09 64536e61 
00004b0d 72745075 
00004b11 002929 
00004b14 01        13830 	.data.b	1
00004b15 04e1      13831 	.data.b	225,4
00004b17 494e4143  13832 	.data.b	67,65,78,73,70,95,85,83,69,95,73,78,73,84,95,80,79,73,78,84,69,82,32,83,84,68,95,79,70,70,0
00004b1b 53555f46 
00004b1f 4e495f45 
00004b23 505f5449 
00004b27 544e494f 
00004b2b 53205245 
00004b2f 4f5f4454 
00004b33 004646 
00004b36 03        13833 	.data.b	3
00004b37 0ad0      13834 	.data.b	208,10
00004b39 1c        13835 	.data.b	28
00004b3a 04        13836 	.data.b	4
00004b3b 03        13837 	.data.b	3
00004b3c 0ad5      13838 	.data.b	213,10
00004b3e 1c        13839 	.data.b	28
00004b3f 04        13840 	.data.b	4
00004b40 03        13841 	.data.b	3
00004b41 0ae5      13842 	.data.b	229,10
00004b43 1c        13843 	.data.b	28
00004b44 04        13844 	.data.b	4
00004b45 03        13845 	.data.b	3
00004b46 0aea      13846 	.data.b	234,10
00004b48 1c        13847 	.data.b	28
00004b49 04        13848 	.data.b	4
00004b4a 03        13849 	.data.b	3
00004b4b 0af2      13850 	.data.b	242,10
00004b4d 1c        13851 	.data.b	28
00004b4e 04        13852 	.data.b	4
00004b4f 03        13853 	.data.b	3
00004b50 0af7      13854 	.data.b	247,10
00004b52 1c        13855 	.data.b	28
00004b53 04        13856 	.data.b	4
00004b54 03        13857 	.data.b	3
00004b55 0b8b      13858 	.data.b	139,11
00004b57 1c        13859 	.data.b	28
00004b58 04        13860 	.data.b	4
00004b59 03        13861 	.data.b	3
00004b5a 0b90      13862 	.data.b	144,11
00004b5c 1c        13863 	.data.b	28

                                                                      Page 333
                                                              C:\Users\Fengyuan\AppData\Local\Temp\gh_0000sro1.s
00004b5d 04        13864 	.data.b	4
00004b5e 03        13865 	.data.b	3
00004b5f 0b9f      13866 	.data.b	159,11
00004b61 1c        13867 	.data.b	28
00004b62 04        13868 	.data.b	4
00004b63 03        13869 	.data.b	3
00004b64 0ba4      13870 	.data.b	164,11
00004b66 1c        13871 	.data.b	28
00004b67 04        13872 	.data.b	4
00004b68 03        13873 	.data.b	3
00004b69 0bb4      13874 	.data.b	180,11
00004b6b 1c        13875 	.data.b	28
00004b6c 04        13876 	.data.b	4
00004b6d 03        13877 	.data.b	3
00004b6e 0bb9      13878 	.data.b	185,11
00004b70 1c        13879 	.data.b	28
00004b71 04        13880 	.data.b	4
00004b72 03        13881 	.data.b	3
00004b73 0bcc      13882 	.data.b	204,11
00004b75 1c        13883 	.data.b	28
00004b76 04        13884 	.data.b	4
00004b77 03        13885 	.data.b	3
00004b78 0bd1      13886 	.data.b	209,11
00004b7a 1c        13887 	.data.b	28
00004b7b 04        13888 	.data.b	4
00004b7c 03        13889 	.data.b	3
00004b7d 0be3      13890 	.data.b	227,11
00004b7f 1c        13891 	.data.b	28
00004b80 04        13892 	.data.b	4
00004b81 03        13893 	.data.b	3
00004b82 0be8      13894 	.data.b	232,11
00004b84 1c        13895 	.data.b	28
00004b85 04        13896 	.data.b	4
00004b86 03        13897 	.data.b	3
00004b87 0bf7      13898 	.data.b	247,11
00004b89 1c        13899 	.data.b	28
00004b8a 04        13900 	.data.b	4
00004b8b 03        13901 	.data.b	3
00004b8c 0bfc      13902 	.data.b	252,11
00004b8e 1c        13903 	.data.b	28
00004b8f 04        13904 	.data.b	4
00004b90 03        13905 	.data.b	3
00004b91 0c88      13906 	.data.b	136,12
00004b93 1c        13907 	.data.b	28
00004b94 04        13908 	.data.b	4
00004b95 03        13909 	.data.b	3
00004b96 0c8d      13910 	.data.b	141,12
00004b98 1c        13911 	.data.b	28
00004b99 04        13912 	.data.b	4
00004b9a 03        13913 	.data.b	3
00004b9b 0ca1      13914 	.data.b	161,12
00004b9d 1c        13915 	.data.b	28
00004b9e 04        13916 	.data.b	4
00004b9f 03        13917 	.data.b	3
00004ba0 0ca6      13918 	.data.b	166,12
00004ba2 1c        13919 	.data.b	28
00004ba3 04        13920 	.data.b	4
00004ba4 03        13921 	.data.b	3
00004ba5 0cb5      13922 	.data.b	181,12
00004ba7 1c        13923 	.data.b	28
00004ba8 04        13924 	.data.b	4

                                                                      Page 334
                                                              C:\Users\Fengyuan\AppData\Local\Temp\gh_0000sro1.s
00004ba9 03        13925 	.data.b	3
00004baa 0cba      13926 	.data.b	186,12
00004bac 1c        13927 	.data.b	28
00004bad 04        13928 	.data.b	4
00004bae 03        13929 	.data.b	3
00004baf 0cc9      13930 	.data.b	201,12
00004bb1 1c        13931 	.data.b	28
00004bb2 04        13932 	.data.b	4
00004bb3 03        13933 	.data.b	3
00004bb4 0cce      13934 	.data.b	206,12
00004bb6 1c        13935 	.data.b	28
00004bb7 04        13936 	.data.b	4
00004bb8 03        13937 	.data.b	3
00004bb9 0cda      13938 	.data.b	218,12
00004bbb 1c        13939 	.data.b	28
00004bbc 04        13940 	.data.b	4
00004bbd 03        13941 	.data.b	3
00004bbe 0cdf      13942 	.data.b	223,12
00004bc0 1c        13943 	.data.b	28
00004bc1 04        13944 	.data.b	4
00004bc2 03        13945 	.data.b	3
00004bc3 0ceb      13946 	.data.b	235,12
00004bc5 1c        13947 	.data.b	28
00004bc6 04        13948 	.data.b	4
00004bc7 03        13949 	.data.b	3
00004bc8 0cf0      13950 	.data.b	240,12
00004bca 1c        13951 	.data.b	28
00004bcb 04        13952 	.data.b	4
00004bcc 04        13953 	.data.b	4
00004bcd 03        13954 	.data.b	3
00004bce 33        13955 	.data.b	51
00004bcf 1c        13956 	.data.b	28
00004bd0 04        13957 	.data.b	4
00004bd1 03        13958 	.data.b	3
00004bd2 0197      13959 	.data.b	151,1
00004bd4 1c        13960 	.data.b	28
00004bd5 04        13961 	.data.b	4
00004bd6 04        13962 	.data.b	4
00004bd7 03        13963 	.data.b	3
00004bd8 018b      13964 	.data.b	139,1
00004bda 22        13965 	.data.b	34
00004bdb 01        13966 	.data.b	1
00004bdc 01b7      13967 	.data.b	183,1
00004bde 415f4649  13968 	.data.b	73,70,95,65,83,82,73,70,67,65,78,95,86,69,82,83,73,79,78,32,48,120,48,54,49,55,117,0
00004be2 46495253 
00004be6 5f4e4143 
00004bea 53524556 
00004bee 204e4f49 
00004bf2 36307830 
00004bf6 00753731 
00004bfa 03        13969 	.data.b	3
00004bfb 01e6      13970 	.data.b	230,1
00004bfd 1c        13971 	.data.b	28
00004bfe 04        13972 	.data.b	4
00004bff 03        13973 	.data.b	3
00004c00 06ed      13974 	.data.b	237,6
00004c02 1c        13975 	.data.b	28
00004c03 04        13976 	.data.b	4
00004c04 03        13977 	.data.b	3
00004c05 06f3      13978 	.data.b	243,6
00004c07 1c        13979 	.data.b	28

                                                                      Page 335
                                                              C:\Users\Fengyuan\AppData\Local\Temp\gh_0000sro1.s
00004c08 04        13980 	.data.b	4
00004c09 03        13981 	.data.b	3
00004c0a 06fa      13982 	.data.b	250,6
00004c0c 1c        13983 	.data.b	28
00004c0d 04        13984 	.data.b	4
00004c0e 04        13985 	.data.b	4
00004c0f 03        13986 	.data.b	3
00004c10 018c      13987 	.data.b	140,1
00004c12 23        13988 	.data.b	35
00004c13 03        13989 	.data.b	3
00004c14 7a        13990 	.data.b	122
00004c15 24        13991 	.data.b	36
00004c16 03        13992 	.data.b	3
00004c17 1c        13993 	.data.b	28
00004c18 25        13994 	.data.b	37
00004c19 03        13995 	.data.b	3
00004c1a 1c        13996 	.data.b	28
00004c1b 26        13997 	.data.b	38
00004c1c 03        13998 	.data.b	3
00004c1d 1a        13999 	.data.b	26
00004c1e 27        14000 	.data.b	39
00004c1f 03        14001 	.data.b	3
00004c20 28        14002 	.data.b	40
00004c21 28        14003 	.data.b	40
00004c22 04        14004 	.data.b	4
00004c23 04        14005 	.data.b	4
00004c24 03        14006 	.data.b	3
00004c25 01c4      14007 	.data.b	196,1
00004c27 29        14008 	.data.b	41
00004c28 04        14009 	.data.b	4
00004c29 04        14010 	.data.b	4
00004c2a 04        14011 	.data.b	4
00004c2b 03        14012 	.data.b	3
00004c2c 1e        14013 	.data.b	30
00004c2d 13        14014 	.data.b	19
00004c2e 04        14015 	.data.b	4
00004c2f 03        14016 	.data.b	3
00004c30 21        14017 	.data.b	33
00004c31 1c        14018 	.data.b	28
00004c32 04        14019 	.data.b	4
00004c33 03        14020 	.data.b	3
00004c34 28        14021 	.data.b	40
00004c35 1c        14022 	.data.b	28
00004c36 04        14023 	.data.b	4
00004c37 01        14024 	.data.b	1
00004c38 2e        14025 	.data.b	46
00004c39 4d686353  14026 	.data.b	83,99,104,77,95,69,110,116,101,114,95,67,97,110,95,67,65,78,95,69,88,67,76,85,83,73,86,69,95,65,82,69,65,95,49,40,41,32,83,117,115,112,101,110,100,65,108,108,73,110,116,101,114,114,117,112,116,115,40,41
00004c3d 746e455f 
00004c41 435f7265 
00004c45 435f6e61 
00004c49 455f4e41 
00004c4d 554c4358 
00004c51 45564953 
00004c55 4552415f 
00004c59 28315f41 
00004c5d 75532029 
00004c61 6e657073 
00004c65 6c6c4164 
00004c69 65746e49 
00004c6d 70757272 
00004c71 29287374 

                                                                      Page 336
                                                              C:\Users\Fengyuan\AppData\Local\Temp\gh_0000sro1.s
00004c75 00        14027 	.data.b	0
00004c76 01        14028 	.data.b	1
00004c77 30        14029 	.data.b	48
00004c78 4d686353  14030 	.data.b	83,99,104,77,95,69,120,105,116,95,67,97,110,95,67,65,78,95,69,88,67,76,85,83,73,86,69,95,65,82,69,65,95,49,40,41,32,82,101,115,117,109,101,65,108,108,73,110,116,101,114,114,117,112,116,115,40,41,0
00004c7c 6978455f 
00004c80 61435f74 
00004c84 41435f6e 
00004c88 58455f4e 
00004c8c 53554c43 
00004c90 5f455649 
00004c94 41455241 
00004c98 2928315f 
00004c9c 73655220 
00004ca0 41656d75 
00004ca4 6e496c6c 
00004ca8 72726574 
00004cac 73747075 
00004cb0 002928 
00004cb3 03        14031 	.data.b	3
00004cb4 43        14032 	.data.b	67
00004cb5 1c        14033 	.data.b	28
00004cb6 04        14034 	.data.b	4
00004cb7 03        14035 	.data.b	3
00004cb8 49        14036 	.data.b	73
00004cb9 1c        14037 	.data.b	28
00004cba 04        14038 	.data.b	4
00004cbb 04        14039 	.data.b	4
00004cbc 01        14040 	.data.b	1
00004cbd 01a0      14041 	.data.b	160,1
00004cbf 5f4e4143  14042 	.data.b	67,65,78,95,73,68,95,70,68,95,77,65,83,75,32,48,120,52,48,48,48,85,0
00004cc3 465f4449 
00004cc7 414d5f44 
00004ccb 30204b53 
00004ccf 30303478 
00004cd3 005530 
00004cd6 01        14043 	.data.b	1
00004cd7 01a3      14044 	.data.b	163,1
00004cd9 5f4e4143  14045 	.data.b	67,65,78,95,73,68,95,85,78,85,83,69,68,95,77,65,83,75,32,48,120,51,56,48,48,85,0
00004cdd 555f4449 
00004ce1 4553554e 
00004ce5 414d5f44 
00004ce9 30204b53 
00004ced 30383378 
00004cf1 005530 
00004cf4 01        14046 	.data.b	1
00004cf5 01c2      14047 	.data.b	194,1
00004cf7 6e616863  14048 	.data.b	99,104,97,110,110,101,108,32,40,40,67,97,110,67,104,97,110,110,101,108,72,97,110,100,108,101,41,48,41,0
00004cfb 206c656e 
00004cff 61432828 
00004d03 6168436e 
00004d07 6c656e6e 
00004d0b 646e6148 
00004d0f 3029656c 
00004d13 0029 
00004d15 01        14049 	.data.b	1
00004d16 01c3      14050 	.data.b	195,1
00004d18 486e6163  14051 	.data.b	99,97,110,72,119,67,104,97,110,110,101,108,32,40,40,67,97,110,67,104,97,110,110,101,108,72,97,110,100,108,101,41,48,41,0
00004d1c 61684377 
00004d20 6c656e6e 
00004d24 43282820 
00004d28 68436e61 

                                                                      Page 337
                                                              C:\Users\Fengyuan\AppData\Local\Temp\gh_0000sro1.s
00004d2c 656e6e61 
00004d30 6e61486c 
00004d34 29656c64 
00004d38 002930 
00004d3b 01        14052 	.data.b	1
00004d3c 01c4      14053 	.data.b	196,1
00004d3e 5f4e4143  14054 	.data.b	67,65,78,95,72,76,95,72,87,95,67,72,65,78,78,69,76,95,83,84,65,82,84,73,78,68,69,88,40,99,104,41,32,40,40,67,97,110,67,104,97,110,110,101,108,72,97,110,100,108,101,41,48,41,0
00004d42 485f4c48 
00004d46 48435f57 
00004d4a 454e4e41 
00004d4e 54535f4c 
00004d52 49545241 
00004d56 5845444e 
00004d5a 29686328 
00004d5e 43282820 
00004d62 68436e61 
00004d66 656e6e61 
00004d6a 6e61486c 
00004d6e 29656c64 
00004d72 002930 
00004d75 01        14055 	.data.b	1
00004d76 01cf      14056 	.data.b	207,1
00004d78 5f4e4143  14057 	.data.b	67,65,78,95,69,77,85,76,65,84,69,95,83,76,69,69,80,32,83,84,68,95,79,78,0
00004d7c 4c554d45 
00004d80 5f455441 
00004d84 45454c53 
00004d88 54532050 
00004d8c 4e4f5f44 
00004d90 00 
00004d91 01        14058 	.data.b	1
00004d92 01d2      14059 	.data.b	210,1
00004d94 5f4e4143  14060 	.data.b	67,65,78,95,84,82,65,78,83,73,84,73,79,78,95,67,72,69,67,75,32,83,84,68,95,79,78,0
00004d98 4e415254 
00004d9c 49544953 
00004da0 435f4e4f 
00004da4 4b434548 
00004da8 44545320 
00004dac 004e4f5f 
00004db0 01        14061 	.data.b	1
00004db1 01ff      14062 	.data.b	255,1
00004db3 4e455f43  14063 	.data.b	67,95,69,78,65,66,76,69,95,66,85,83,79,70,70,95,82,69,67,79,86,69,82,89,95,67,79,77,80,76,73,65,78,84,32,0
00004db7 454c4241 
00004dbb 5355425f 
00004dbf 5f46464f 
00004dc3 4f434552 
00004dc7 59524556 
00004dcb 4d4f435f 
00004dcf 41494c50 
00004dd3 0020544e 
00004dd7 01        14064 	.data.b	1
00004dd8 028c      14065 	.data.b	140,2
00004dda 5f4e4143  14066 	.data.b	67,65,78,95,70,82,69,69,95,79,66,74,32,40,117,105,110,116,56,41,48,120,70,70,0
00004dde 45455246 
00004de2 4a424f5f 
00004de6 69752820 
00004dea 2938746e 
00004dee 46467830 
00004df2 00 
00004df3 01        14067 	.data.b	1
00004df4 0291      14068 	.data.b	145,2
00004df6 5f4e4143  14069 	.data.b	67,65,78,95,83,69,78,68,95,79,66,74,32,40,117,105,110,116,56,41,48,120,48,49,0

                                                                      Page 338
                                                              C:\Users\Fengyuan\AppData\Local\Temp\gh_0000sro1.s
00004dfa 444e4553 
00004dfe 4a424f5f 
00004e02 69752820 
00004e06 2938746e 
00004e0a 31307830 
00004e0e 00 
00004e0f 01        14070 	.data.b	1
00004e10 029a      14071 	.data.b	154,2
00004e12 6e61436b  14072 	.data.b	107,67,97,110,70,97,105,108,101,100,32,67,65,78,95,78,79,84,95,79,75,0
00004e16 6c696146 
00004e1a 43206465 
00004e1e 4e5f4e41 
00004e22 4f5f544f 
00004e26 004b 
00004e28 01        14073 	.data.b	1
00004e29 029b      14074 	.data.b	155,2
00004e2b 6e61436b  14075 	.data.b	107,67,97,110,79,107,32,67,65,78,95,79,75,0
00004e2f 43206b4f 
00004e33 4f5f4e41 
00004e37 004b 
00004e39 01        14076 	.data.b	1
00004e3a 029d      14077 	.data.b	157,2
00004e3c 6e61436b  14078 	.data.b	107,67,97,110,82,101,113,117,101,115,116,101,100,32,67,65,78,95,82,69,81,85,69,83,84,69,68,0
00004e40 75716552 
00004e44 65747365 
00004e48 41432064 
00004e4c 45525f4e 
00004e50 53455551 
00004e54 00444554 
00004e58 01        14079 	.data.b	1
00004e59 02a0      14080 	.data.b	160,2
00004e5b 6e61436b  14081 	.data.b	107,67,97,110,70,97,108,115,101,32,48,120,48,48,0
00004e5f 736c6146 
00004e63 78302065 
00004e67 003030 
00004e6a 01        14082 	.data.b	1
00004e6b 02a5      14083 	.data.b	165,2
00004e6d 5f6e6143  14084 	.data.b	67,97,110,95,71,101,116,67,97,110,67,111,110,116,114,111,108,108,101,114,68,101,102,97,117,108,116,66,97,117,100,114,97,116,101,40,73,110,100,101,120,41,32,67,97,110,95,71,101,116,67,97,110,67,111,110,116,114,111,108
00004e71 43746547 
00004e75 6f436e61 
00004e79 6f72746e 
00004e7d 72656c6c 
00004e81 61666544 
00004e85 42746c75 
00004e89 72647561 
00004e8d 28657461 
00004e91 65646e49 
00004e95 43202978 
00004e99 475f6e61 
00004e9d 61437465 
00004ea1 6e6f436e 
00004ea5 6c6f7274 
00004ea9 4472656c  14085 	.data.b	108,101,114,68,101,102,97,117,108,116,66,97,117,100,114,97,116,101,79,102,67,111,110,116,114,111,108,108,101,114,67,111,110,102,105,103,40,73,110,100,101,120,41,0
00004ead 75616665 
00004eb1 6142746c 
00004eb5 61726475 
00004eb9 664f6574 
00004ebd 746e6f43 
00004ec1 6c6c6f72 
00004ec5 6f437265 
00004ec9 6769666e 

                                                                      Page 339
                                                              C:\Users\Fengyuan\AppData\Local\Temp\gh_0000sro1.s
00004ecd 646e4928 
00004ed1 00297865 
00004ed5 01        14086 	.data.b	1
00004ed6 02ad      14087 	.data.b	173,2
00004ed8 5f6e6143  14088 	.data.b	67,97,110,95,71,101,116,82,120,66,97,115,105,99,72,97,110,100,108,101,83,116,97,114,116,40,73,110,100,101,120,41,32,40,67,97,110,95,72,119,72,97,110,100,108,101,84,121,112,101,41,67,97,110,95,71,101,116,77,97
00004edc 52746547 
00004ee0 73614278 
00004ee4 61486369 
00004ee8 656c646e 
00004eec 72617453 
00004ef0 6e492874 
00004ef4 29786564 
00004ef8 61432820 
00004efc 77485f6e 
00004f00 646e6148 
00004f04 7954656c 
00004f08 43296570 
00004f0c 475f6e61 
00004f10 614d7465 
00004f14 6f626c69  14089 	.data.b	105,108,98,111,120,82,120,66,97,115,105,99,83,116,97,114,116,73,100,120,79,102,67,111,110,116,114,111,108,108,101,114,67,111,110,102,105,103,40,73,110,100,101,120,41,0
00004f18 42785278 
00004f1c 63697361 
00004f20 72617453 
00004f24 78644974 
00004f28 6f43664f 
00004f2c 6f72746e 
00004f30 72656c6c 
00004f34 666e6f43 
00004f38 49286769 
00004f3c 7865646e 
00004f40 0029 
00004f42 01        14090 	.data.b	1
00004f43 02ae      14091 	.data.b	174,2
00004f45 5f6e6143  14092 	.data.b	67,97,110,95,71,101,116,82,120,66,97,115,105,99,72,97,110,100,108,101,83,116,111,112,40,73,110,100,101,120,41,32,40,67,97,110,95,72,119,72,97,110,100,108,101,84,121,112,101,41,67,97,110,95,71,101,116,77,97,105
00004f49 52746547 
00004f4d 73614278 
00004f51 61486369 
00004f55 656c646e 
00004f59 706f7453 
00004f5d 646e4928 
00004f61 20297865 
00004f65 6e614328 
00004f69 4877485f 
00004f6d 6c646e61 
00004f71 70795465 
00004f75 61432965 
00004f79 65475f6e 
00004f7d 69614d74 
00004f81 786f626c  14093 	.data.b	108,98,111,120,82,120,66,97,115,105,99,69,110,100,73,100,120,79,102,67,111,110,116,114,111,108,108,101,114,67,111,110,102,105,103,40,73,110,100,101,120,41,0
00004f85 61427852 
00004f89 45636973 
00004f8d 6449646e 
00004f91 43664f78 
00004f95 72746e6f 
00004f99 656c6c6f 
00004f9d 6e6f4372 
00004fa1 28676966 
00004fa5 65646e49 
00004fa9 002978 
00004fac 01        14094 	.data.b	1
00004fad 02af      14095 	.data.b	175,2

                                                                      Page 340
                                                              C:\Users\Fengyuan\AppData\Local\Temp\gh_0000sro1.s
00004faf 5f6e6143  14096 	.data.b	67,97,110,95,71,101,116,82,120,66,97,115,105,99,72,119,83,116,97,114,116,40,73,110,100,101,120,41,32,67,97,110,95,71,101,116,82,120,66,97,115,105,99,72,119,83,116,97,114,116,79,102,67,111,110,116,114,111,108,108
00004fb3 52746547 
00004fb7 73614278 
00004fbb 77486369 
00004fbf 72617453 
00004fc3 6e492874 
00004fc7 29786564 
00004fcb 6e614320 
00004fcf 7465475f 
00004fd3 61427852 
00004fd7 48636973 
00004fdb 61745377 
00004fdf 664f7472 
00004fe3 746e6f43 
00004fe7 6c6c6f72 
00004feb 6f437265  14097 	.data.b	101,114,67,111,110,102,105,103,40,73,110,100,101,120,41,0
00004fef 6769666e 
00004ff3 646e4928 
00004ff7 00297865 
00004ffb 01        14098 	.data.b	1
00004ffc 02c1      14099 	.data.b	193,2
00004ffe 5f6e6143  14100 	.data.b	67,97,110,95,71,101,116,84,120,66,97,115,105,99,72,97,110,100,108,101,83,116,97,114,116,40,73,110,100,101,120,41,32,40,67,97,110,95,72,119,72,97,110,100,108,101,84,121,112,101,41,67,97,110,95,71,101,116,77,97
00005002 54746547 
00005006 73614278 
0000500a 61486369 
0000500e 656c646e 
00005012 72617453 
00005016 6e492874 
0000501a 29786564 
0000501e 61432820 
00005022 77485f6e 
00005026 646e6148 
0000502a 7954656c 
0000502e 43296570 
00005032 475f6e61 
00005036 614d7465 
0000503a 6f626c69  14101 	.data.b	105,108,98,111,120,84,120,66,97,115,105,99,83,116,97,114,116,73,100,120,79,102,67,111,110,116,114,111,108,108,101,114,67,111,110,102,105,103,40,73,110,100,101,120,41,0
0000503e 42785478 
00005042 63697361 
00005046 72617453 
0000504a 78644974 
0000504e 6f43664f 
00005052 6f72746e 
00005056 72656c6c 
0000505a 666e6f43 
0000505e 49286769 
00005062 7865646e 
00005066 0029 
00005068 01        14102 	.data.b	1
00005069 02c3      14103 	.data.b	195,2
0000506b 5f6e6143  14104 	.data.b	67,97,110,95,71,101,116,84,120,66,97,115,105,99,72,119,83,116,97,114,116,40,73,110,100,101,120,41,32,67,97,110,95,71,101,116,84,120,66,97,115,105,99,72,119,83,116,97,114,116,79,102,67,111,110,116,114,111,108,108
0000506f 54746547 
00005073 73614278 
00005077 77486369 
0000507b 72617453 
0000507f 6e492874 
00005083 29786564 
00005087 6e614320 
0000508b 7465475f 
0000508f 61427854 
00005093 48636973 

                                                                      Page 341
                                                              C:\Users\Fengyuan\AppData\Local\Temp\gh_0000sro1.s
00005097 61745377 
0000509b 664f7472 
0000509f 746e6f43 
000050a3 6c6c6f72 
000050a7 6f437265  14105 	.data.b	101,114,67,111,110,102,105,103,40,73,110,100,101,120,41,0
000050ab 6769666e 
000050af 646e4928 
000050b3 00297865 
000050b7 01        14106 	.data.b	1
000050b8 02ce      14107 	.data.b	206,2
000050ba 5f6e6143  14108 	.data.b	67,97,110,95,71,101,116,84,120,70,117,108,108,72,119,83,116,111,112,40,73,110,100,101,120,41,32,67,97,110,95,71,101,116,84,120,70,117,108,108,72,119,83,116,111,112,79,102,67,111,110,116,114,111,108,108,101,114,67,111
000050be 54746547 
000050c2 6c754678 
000050c6 5377486c 
000050ca 28706f74 
000050ce 65646e49 
000050d2 43202978 
000050d6 475f6e61 
000050da 78547465 
000050de 6c6c7546 
000050e2 74537748 
000050e6 664f706f 
000050ea 746e6f43 
000050ee 6c6c6f72 
000050f2 6f437265 
000050f6 6769666e  14109 	.data.b	110,102,105,103,40,73,110,100,101,120,41,0
000050fa 646e4928 
000050fe 00297865 
00005102 01        14110 	.data.b	1
00005103 02da      14111 	.data.b	218,2
00005105 5f6e6143  14112 	.data.b	67,97,110,95,71,101,116,68,76,67,95,70,73,70,79,40,73,110,100,101,120,41,32,67,97,110,95,71,101,116,68,76,67,95,70,73,70,79,79,102,77,97,105,108,98,111,120,40,73,110,100,101,120,41,0
00005109 44746547 
0000510d 465f434c 
00005111 284f4649 
00005115 65646e49 
00005119 43202978 
0000511d 475f6e61 
00005121 4c447465 
00005125 49465f43 
00005129 664f4f46 
0000512d 6c69614d 
00005131 28786f62 
00005135 65646e49 
00005139 002978 
0000513c 01        14113 	.data.b	1
0000513d 02db      14114 	.data.b	219,2
0000513f 5f6e6143  14115 	.data.b	67,97,110,95,71,101,116,72,119,72,97,110,100,108,101,40,73,110,100,101,120,41,32,67,97,110,95,71,101,116,72,119,72,97,110,100,108,101,79,102,77,97,105,108,98,111,120,40,73,110,100,101,120,41,0
00005143 48746547 
00005147 6e614877 
0000514b 28656c64 
0000514f 65646e49 
00005153 43202978 
00005157 475f6e61 
0000515b 77487465 
0000515f 646e6148 
00005163 664f656c 
00005167 6c69614d 
0000516b 28786f62 
0000516f 65646e49 
00005173 002978 
00005176 01        14116 	.data.b	1

                                                                      Page 342
                                                              C:\Users\Fengyuan\AppData\Local\Temp\gh_0000sro1.s
00005177 02dd      14117 	.data.b	221,2
00005179 5f6e6143  14118 	.data.b	67,97,110,95,71,101,116,77,97,105,108,98,111,120,84,121,112,101,40,73,110,100,101,120,41,32,67,97,110,95,71,101,116,77,97,105,108,98,111,120,84,121,112,101,79,102,77,97,105,108,98,111,120,40,73,110,100,101,120,41
0000517d 4d746547 
00005181 626c6961 
00005185 7954786f 
00005189 49286570 
0000518d 7865646e 
00005191 61432029 
00005195 65475f6e 
00005199 69614d74 
0000519d 786f626c 
000051a1 65707954 
000051a5 614d664f 
000051a9 6f626c69 
000051ad 6e492878 
000051b1 29786564 
000051b5 00        14119 	.data.b	0
000051b6 01        14120 	.data.b	1
000051b7 02e8      14121 	.data.b	232,2
000051b9 5f6e6143  14122 	.data.b	67,97,110,95,71,101,116,67,97,110,84,111,67,97,110,73,102,67,104,97,110,110,101,108,77,97,112,112,105,110,103,40,73,110,100,101,120,41,32,67,97,110,95,71,101,116,67,97,110,73,102,67,104,97,110,110,101,108,73,100
000051bd 43746547 
000051c1 6f546e61 
000051c5 496e6143 
000051c9 61684366 
000051cd 6c656e6e 
000051d1 7070614d 
000051d5 28676e69 
000051d9 65646e49 
000051dd 43202978 
000051e1 475f6e61 
000051e5 61437465 
000051e9 4366496e 
000051ed 6e6e6168 
000051f1 64496c65 
000051f5 6e492828  14123 	.data.b	40,40,73,110,100,101,120,41,41,0
000051f9 29786564 
000051fd 0029 
000051ff 01        14124 	.data.b	1
00005200 02eb      14125 	.data.b	235,2
00005202 5f6e6143  14126 	.data.b	67,97,110,95,71,101,116,76,97,115,116,73,110,105,116,79,98,106,101,99,116,40,73,110,100,101,120,41,32,67,97,110,95,71,101,116,76,97,115,116,73,110,105,116,79,98,106,101,99,116,79,102,67,111,110,116,114,111,108,108
00005206 4c746547 
0000520a 49747361 
0000520e 4f74696e 
00005212 63656a62 
00005216 6e492874 
0000521a 29786564 
0000521e 6e614320 
00005222 7465475f 
00005226 7473614c 
0000522a 74696e49 
0000522e 656a624f 
00005232 664f7463 
00005236 746e6f43 
0000523a 6c6c6f72 
0000523e 61447265  14127 	.data.b	101,114,68,97,116,97,40,73,110,100,101,120,41,0
00005242 49286174 
00005246 7865646e 
0000524a 0029 
0000524c 01        14128 	.data.b	1
0000524d 02ec      14129 	.data.b	236,2
0000524f 5f6e6143  14130 	.data.b	67,97,110,95,83,101,116,76,97,115,116,73,110,105,116,79,98,106,101,99,116,40,73,110,100,101,120,44,86,97,108,117,101,41,32,67,97,110,95,83,101,116,76,97,115,116,73,110,105,116,79,98,106,101,99,116,79,102,67,111

                                                                      Page 343
                                                              C:\Users\Fengyuan\AppData\Local\Temp\gh_0000sro1.s
00005253 4c746553 
00005257 49747361 
0000525b 4f74696e 
0000525f 63656a62 
00005263 6e492874 
00005267 2c786564 
0000526b 756c6156 
0000526f 43202965 
00005273 535f6e61 
00005277 614c7465 
0000527b 6e497473 
0000527f 624f7469 
00005283 7463656a 
00005287 6f43664f 
0000528b 6f72746e  14131 	.data.b	110,116,114,111,108,108,101,114,68,97,116,97,40,73,110,100,101,120,44,86,97,108,117,101,41,0
0000528f 72656c6c 
00005293 61746144 
00005297 646e4928 
0000529b 562c7865 
0000529f 65756c61 
000052a3 0029 
000052a5 01        14132 	.data.b	1
000052a6 02ed      14133 	.data.b	237,2
000052a8 5f6e6143  14134 	.data.b	67,97,110,95,71,101,116,67,97,110,73,110,116,101,114,114,117,112,116,79,108,100,83,116,97,116,117,115,40,73,110,100,101,120,41,32,67,97,110,95,71,101,116,67,97,110,73,110,116,101,114,114,117,112,116,79,108,100,83,116
000052ac 43746547 
000052b0 6e496e61 
000052b4 72726574 
000052b8 4f747075 
000052bc 7453646c 
000052c0 73757461 
000052c4 646e4928 
000052c8 20297865 
000052cc 5f6e6143 
000052d0 43746547 
000052d4 6e496e61 
000052d8 72726574 
000052dc 4f747075 
000052e0 7453646c 
000052e4 73757461  14135 	.data.b	97,116,117,115,79,102,67,111,110,116,114,111,108,108,101,114,68,97,116,97,40,73,110,100,101,120,41,0
000052e8 6f43664f 
000052ec 6f72746e 
000052f0 72656c6c 
000052f4 61746144 
000052f8 646e4928 
000052fc 00297865 
00005300 01        14136 	.data.b	1
00005301 02ef      14137 	.data.b	239,2
00005303 5f6e6143  14138 	.data.b	67,97,110,95,71,101,116,67,97,110,73,110,116,101,114,114,117,112,116,67,111,117,110,116,101,114,40,73,110,100,101,120,41,32,67,97,110,95,71,101,116,67,97,110,73,110,116,101,114,114,117,112,116,67,111,117,110,116,101,114
00005307 43746547 
0000530b 6e496e61 
0000530f 72726574 
00005313 43747075 
00005317 746e756f 
0000531b 49287265 
0000531f 7865646e 
00005323 61432029 
00005327 65475f6e 
0000532b 6e614374 
0000532f 65746e49 
00005333 70757272 
00005337 756f4374 

                                                                      Page 344
                                                              C:\Users\Fengyuan\AppData\Local\Temp\gh_0000sro1.s
0000533b 7265746e 
0000533f 6f43664f  14139 	.data.b	79,102,67,111,110,116,114,111,108,108,101,114,68,97,116,97,40,73,110,100,101,120,41,0
00005343 6f72746e 
00005347 72656c6c 
0000534b 61746144 
0000534f 646e4928 
00005353 00297865 
00005357 01        14140 	.data.b	1
00005358 02f0      14141 	.data.b	240,2
0000535a 5f6e6143  14142 	.data.b	67,97,110,95,83,101,116,67,97,110,73,110,116,101,114,114,117,112,116,67,111,117,110,116,101,114,40,73,110,100,101,120,44,86,97,108,117,101,41,32,67,97,110,95,83,101,116,67,97,110,73,110,116,101,114,114,117,112,116,67
0000535e 43746553 
00005362 6e496e61 
00005366 72726574 
0000536a 43747075 
0000536e 746e756f 
00005372 49287265 
00005376 7865646e 
0000537a 6c61562c 
0000537e 20296575 
00005382 5f6e6143 
00005386 43746553 
0000538a 6e496e61 
0000538e 72726574 
00005392 43747075 
00005396 746e756f  14143 	.data.b	111,117,110,116,101,114,79,102,67,111,110,116,114,111,108,108,101,114,68,97,116,97,40,73,110,100,101,120,44,86,97,108,117,101,41,0
0000539a 664f7265 
0000539e 746e6f43 
000053a2 6c6c6f72 
000053a6 61447265 
000053aa 49286174 
000053ae 7865646e 
000053b2 6c61562c 
000053b6 00296575 
000053ba 01        14144 	.data.b	1
000053bb 02f3      14145 	.data.b	243,2
000053bd 5f6e6143  14146 	.data.b	67,97,110,95,73,115,73,115,66,117,115,79,102,102,40,73,110,100,101,120,41,32,67,97,110,95,73,115,73,115,66,117,115,79,102,102,79,102,67,111,110,116,114,111,108,108,101,114,68,97,116,97,40,73,110,100,101,120,41,0
000053c1 73497349 
000053c5 4f737542 
000053c9 49286666 
000053cd 7865646e 
000053d1 61432029 
000053d5 73495f6e 
000053d9 75427349 
000053dd 66664f73 
000053e1 6f43664f 
000053e5 6f72746e 
000053e9 72656c6c 
000053ed 61746144 
000053f1 646e4928 
000053f5 00297865 
000053f9 01        14147 	.data.b	1
000053fa 02f4      14148 	.data.b	244,2
000053fc 5f6e6143  14149 	.data.b	67,97,110,95,83,101,116,73,115,66,117,115,79,102,102,40,73,110,100,101,120,44,86,97,108,117,101,41,32,67,97,110,95,83,101,116,73,115,66,117,115,79,102,102,79,102,67,111,110,116,114,111,108,108,101,114,68,97,116,97
00005400 49746553 
00005404 73754273 
00005408 2866664f 
0000540c 65646e49 
00005410 61562c78 
00005414 2965756c 
00005418 6e614320 
0000541c 7465535f 

                                                                      Page 345
                                                              C:\Users\Fengyuan\AppData\Local\Temp\gh_0000sro1.s
00005420 75427349 
00005424 66664f73 
00005428 6f43664f 
0000542c 6f72746e 
00005430 72656c6c 
00005434 61746144 
00005438 646e4928  14150 	.data.b	40,73,110,100,101,120,44,86,97,108,117,101,41,0
0000543c 562c7865 
00005440 65756c61 
00005444 0029 
00005446 01        14151 	.data.b	1
00005447 02f6      14152 	.data.b	246,2
00005449 5f6e6143  14153 	.data.b	67,97,110,95,71,101,116,66,117,115,79,102,102,67,111,117,110,116,101,114,40,73,110,100,101,120,41,32,67,97,110,95,71,101,116,66,117,115,79,102,102,67,111,117,110,116,101,114,79,102,67,111,110,116,114,111,108,108,101,114
0000544d 42746547 
00005451 664f7375 
00005455 756f4366 
00005459 7265746e 
0000545d 646e4928 
00005461 20297865 
00005465 5f6e6143 
00005469 42746547 
0000546d 664f7375 
00005471 756f4366 
00005475 7265746e 
00005479 6f43664f 
0000547d 6f72746e 
00005481 72656c6c 
00005485 61746144  14154 	.data.b	68,97,116,97,40,73,110,100,101,120,41,0
00005489 646e4928 
0000548d 00297865 
00005491 01        14155 	.data.b	1
00005492 02f7      14156 	.data.b	247,2
00005494 5f6e6143  14157 	.data.b	67,97,110,95,83,101,116,66,117,115,79,102,102,67,111,117,110,116,101,114,40,73,110,100,101,120,44,86,97,108,117,101,41,32,67,97,110,95,83,101,116,66,117,115,79,102,102,67,111,117,110,116,101,114,79,102,67,111,110,116
00005498 42746553 
0000549c 664f7375 
000054a0 756f4366 
000054a4 7265746e 
000054a8 646e4928 
000054ac 562c7865 
000054b0 65756c61 
000054b4 61432029 
000054b8 65535f6e 
000054bc 73754274 
000054c0 4366664f 
000054c4 746e756f 
000054c8 664f7265 
000054cc 746e6f43 
000054d0 6c6c6f72  14158 	.data.b	114,111,108,108,101,114,68,97,116,97,40,73,110,100,101,120,44,86,97,108,117,101,41,0
000054d4 61447265 
000054d8 49286174 
000054dc 7865646e 
000054e0 6c61562c 
000054e4 00296575 
000054e8 01        14159 	.data.b	1
000054e9 02f8      14160 	.data.b	248,2
000054eb 5f6e6143  14161 	.data.b	67,97,110,95,68,101,99,66,117,115,79,102,102,67,111,117,110,116,101,114,40,73,110,100,101,120,41,32,67,97,110,95,68,101,99,66,117,115,79,102,102,67,111,117,110,116,101,114,79,102,67,111,110,116,114,111,108,108,101,114
000054ef 42636544 
000054f3 664f7375 
000054f7 756f4366 
000054fb 7265746e 
000054ff 646e4928 

                                                                      Page 346
                                                              C:\Users\Fengyuan\AppData\Local\Temp\gh_0000sro1.s
00005503 20297865 
00005507 5f6e6143 
0000550b 42636544 
0000550f 664f7375 
00005513 756f4366 
00005517 7265746e 
0000551b 6f43664f 
0000551f 6f72746e 
00005523 72656c6c 
00005527 61746144  14162 	.data.b	68,97,116,97,40,73,110,100,101,120,41,0
0000552b 646e4928 
0000552f 00297865 
00005533 01        14163 	.data.b	1
00005534 02fa      14164 	.data.b	250,2
00005536 5f6e6143  14165 	.data.b	67,97,110,95,71,101,116,83,116,97,116,117,115,82,101,113,40,73,110,100,101,120,41,32,67,97,110,95,71,101,116,83,116,97,116,117,115,82,101,113,79,102,67,111,110,116,114,111,108,108,101,114,68,97,116,97,40,73,110,100
0000553a 53746547 
0000553e 75746174 
00005542 71655273 
00005546 646e4928 
0000554a 20297865 
0000554e 5f6e6143 
00005552 53746547 
00005556 75746174 
0000555a 71655273 
0000555e 6f43664f 
00005562 6f72746e 
00005566 72656c6c 
0000556a 61746144 
0000556e 646e4928 
00005572 00297865  14166 	.data.b	101,120,41,0
00005576 01        14167 	.data.b	1
00005577 02fb      14168 	.data.b	251,2
00005579 5f6e6143  14169 	.data.b	67,97,110,95,83,101,116,83,116,97,116,117,115,82,101,113,40,73,110,100,101,120,44,86,97,108,117,101,41,32,67,97,110,95,83,101,116,83,116,97,116,117,115,82,101,113,79,102,67,111,110,116,114,111,108,108,101,114,68,97
0000557d 53746553 
00005581 75746174 
00005585 71655273 
00005589 646e4928 
0000558d 562c7865 
00005591 65756c61 
00005595 61432029 
00005599 65535f6e 
0000559d 61745374 
000055a1 52737574 
000055a5 664f7165 
000055a9 746e6f43 
000055ad 6c6c6f72 
000055b1 61447265 
000055b5 49286174  14170 	.data.b	116,97,40,73,110,100,101,120,44,86,97,108,117,101,41,0
000055b9 7865646e 
000055bd 6c61562c 
000055c1 00296575 
000055c5 01        14171 	.data.b	1
000055c6 02fc      14172 	.data.b	252,2
000055c8 5f6e6143  14173 	.data.b	67,97,110,95,71,101,116,76,111,103,83,116,97,116,117,115,40,73,110,100,101,120,41,32,67,97,110,95,71,101,116,76,111,103,83,116,97,116,117,115,79,102,67,111,110,116,114,111,108,108,101,114,68,97,116,97,40,73,110,100
000055cc 4c746547 
000055d0 7453676f 
000055d4 73757461 
000055d8 646e4928 
000055dc 20297865 
000055e0 5f6e6143 
000055e4 4c746547 

                                                                      Page 347
                                                              C:\Users\Fengyuan\AppData\Local\Temp\gh_0000sro1.s
000055e8 7453676f 
000055ec 73757461 
000055f0 6f43664f 
000055f4 6f72746e 
000055f8 72656c6c 
000055fc 61746144 
00005600 646e4928 
00005604 00297865  14174 	.data.b	101,120,41,0
00005608 01        14175 	.data.b	1
00005609 02fd      14176 	.data.b	253,2
0000560b 5f6e6143  14177 	.data.b	67,97,110,95,83,101,116,76,111,103,83,116,97,116,117,115,40,73,110,100,101,120,44,86,97,108,117,101,41,32,67,97,110,95,83,101,116,76,111,103,83,116,97,116,117,115,79,102,67,111,110,116,114,111,108,108,101,114,68,97
0000560f 4c746553 
00005613 7453676f 
00005617 73757461 
0000561b 646e4928 
0000561f 562c7865 
00005623 65756c61 
00005627 61432029 
0000562b 65535f6e 
0000562f 676f4c74 
00005633 74617453 
00005637 664f7375 
0000563b 746e6f43 
0000563f 6c6c6f72 
00005643 61447265 
00005647 49286174  14178 	.data.b	116,97,40,73,110,100,101,120,44,86,97,108,117,101,41,0
0000564b 7865646e 
0000564f 6c61562c 
00005653 00296575 
00005657 01        14179 	.data.b	1
00005658 02fe      14180 	.data.b	254,2
0000565a 5f6e6143  14181 	.data.b	67,97,110,95,71,101,116,67,97,110,76,111,111,112,84,105,109,101,111,117,116,40,99,104,44,73,110,100,101,120,41,32,40,67,97,110,95,71,101,116,76,111,111,112,84,105,109,101,111,117,116,79,102,67,111,110,116,114,111,108
0000565e 43746547 
00005662 6f4c6e61 
00005666 6954706f 
0000566a 756f656d 
0000566e 68632874 
00005672 646e492c 
00005676 20297865 
0000567a 6e614328 
0000567e 7465475f 
00005682 706f6f4c 
00005686 656d6954 
0000568a 4f74756f 
0000568e 6e6f4366 
00005692 6c6f7274 
00005696 4472656c  14182 	.data.b	108,101,114,68,97,116,97,40,99,104,41,41,91,40,73,110,100,101,120,41,93,0
0000569a 28617461 
0000569e 29296863 
000056a2 6e49285b 
000056a6 29786564 
000056aa 005d 
000056ac 01        14183 	.data.b	1
000056ad 0388      14184 	.data.b	136,3
000056af 5f6e6143  14185 	.data.b	67,97,110,95,71,101,116,65,99,116,105,118,101,83,101,110,100,80,100,117,40,73,110,100,101,120,41,32,67,97,110,95,71,101,116,80,100,117,79,102,65,99,116,105,118,101,83,101,110,100,79,98,106,101,99,116,40,73,110,100
000056b3 41746547 
000056b7 76697463 
000056bb 6e655365 
000056bf 75645064 
000056c3 646e4928 
000056c7 20297865 

                                                                      Page 348
                                                              C:\Users\Fengyuan\AppData\Local\Temp\gh_0000sro1.s
000056cb 5f6e6143 
000056cf 50746547 
000056d3 664f7564 
000056d7 69746341 
000056db 65536576 
000056df 624f646e 
000056e3 7463656a 
000056e7 646e4928 
000056eb 00297865  14186 	.data.b	101,120,41,0
000056ef 01        14187 	.data.b	1
000056f0 0389      14188 	.data.b	137,3
000056f2 5f6e6143  14189 	.data.b	67,97,110,95,83,101,116,65,99,116,105,118,101,83,101,110,100,80,100,117,40,73,110,100,101,120,44,86,97,108,117,101,41,32,67,97,110,95,83,101,116,80,100,117,79,102,65,99,116,105,118,101,83,101,110,100,79,98,106,101
000056f6 41746553 
000056fa 76697463 
000056fe 6e655365 
00005702 75645064 
00005706 646e4928 
0000570a 562c7865 
0000570e 65756c61 
00005712 61432029 
00005716 65535f6e 
0000571a 75645074 
0000571e 6341664f 
00005722 65766974 
00005726 646e6553 
0000572a 656a624f 
0000572e 49287463  14190 	.data.b	99,116,40,73,110,100,101,120,44,86,97,108,117,101,41,0
00005732 7865646e 
00005736 6c61562c 
0000573a 00296575 
0000573e 01        14191 	.data.b	1
0000573f 038a      14192 	.data.b	138,3
00005741 5f6e6143  14193 	.data.b	67,97,110,95,71,101,116,65,99,116,105,118,101,83,101,110,100,83,116,97,116,101,40,73,110,100,101,120,41,32,67,97,110,95,71,101,116,83,116,97,116,101,79,102,65,99,116,105,118,101,83,101,110,100,79,98,106,101,99,116
00005745 41746547 
00005749 76697463 
0000574d 6e655365 
00005751 61745364 
00005755 49286574 
00005759 7865646e 
0000575d 61432029 
00005761 65475f6e 
00005765 61745374 
00005769 664f6574 
0000576d 69746341 
00005771 65536576 
00005775 624f646e 
00005779 7463656a 
0000577d 646e4928  14194 	.data.b	40,73,110,100,101,120,41,0
00005781 00297865 
00005785 01        14195 	.data.b	1
00005786 038b      14196 	.data.b	139,3
00005788 5f6e6143  14197 	.data.b	67,97,110,95,83,101,116,65,99,116,105,118,101,83,101,110,100,83,116,97,116,101,40,73,110,100,101,120,44,86,97,108,117,101,41,32,67,97,110,95,83,101,116,83,116,97,116,101,79,102,65,99,116,105,118,101,83,101,110,100
0000578c 41746553 
00005790 76697463 
00005794 6e655365 
00005798 61745364 
0000579c 49286574 
000057a0 7865646e 
000057a4 6c61562c 
000057a8 20296575 
000057ac 5f6e6143 

                                                                      Page 349
                                                              C:\Users\Fengyuan\AppData\Local\Temp\gh_0000sro1.s
000057b0 53746553 
000057b4 65746174 
000057b8 6341664f 
000057bc 65766974 
000057c0 646e6553 
000057c4 656a624f  14198 	.data.b	79,98,106,101,99,116,40,73,110,100,101,120,44,86,97,108,117,101,41,0
000057c8 49287463 
000057cc 7865646e 
000057d0 6c61562c 
000057d4 00296575 
000057d8 01        14199 	.data.b	1
000057d9 04ee      14200 	.data.b	238,4
000057db 5f4e4143  14201 	.data.b	67,65,78,95,72,76,95,72,87,95,76,65,89,79,85,84,95,84,88,66,65,83,73,67,95,70,73,82,83,84,32,0
000057df 485f4c48 
000057e3 414c5f57 
000057e7 54554f59 
000057eb 4258545f 
000057ef 43495341 
000057f3 5249465f 
000057f7 00205453 
000057fb 01        14202 	.data.b	1
000057fc 05c9      14203 	.data.b	201,5
000057fe 535f4b4d  14204 	.data.b	77,75,95,83,84,68,73,68,48,40,105,100,41,32,40,40,118,117,105,110,116,49,54,41,40,40,40,118,117,105,110,116,49,54,41,40,105,100,41,32,38,32,40,118,117,105,110,116,49,54,41,48,120,48,55,70,70,41,32,60
00005802 44494454 
00005806 64692830 
0000580a 28282029 
0000580e 6e697576 
00005812 29363174 
00005816 76282828 
0000581a 746e6975 
0000581e 28293631 
00005822 20296469 
00005826 76282026 
0000582a 746e6975 
0000582e 30293631 
00005832 46373078 
00005836 3c202946 
0000583a 2932203c  14205 	.data.b	60,32,50,41,41,0
0000583e 0029 
00005840 01        14206 	.data.b	1
00005841 05e1      14207 	.data.b	225,5
00005843 545f4b4d  14208 	.data.b	77,75,95,84,88,95,68,76,67,40,100,108,99,41,32,40,40,118,117,105,110,116,56,41,40,40,118,117,105,110,116,56,41,40,100,108,99,41,32,38,32,40,118,117,105,110,116,56,41,48,120,48,70,41,41,0
00005847 4c445f58 
0000584b 6c642843 
0000584f 28202963 
00005853 69757628 
00005857 2938746e 
0000585b 75762828 
0000585f 38746e69 
00005863 6c642829 
00005867 26202963 
0000586b 75762820 
0000586f 38746e69 
00005873 30783029 
00005877 00292946 
0000587b 01        14209 	.data.b	1
0000587c 05eb      14210 	.data.b	235,5
0000587e 526e6143  14211 	.data.b	67,97,110,82,101,115,101,116,66,117,115,79,102,102,83,116,97,114,116,40,120,41,32,0
00005882 74657365 
00005886 4f737542 
0000588a 74536666 

                                                                      Page 350
                                                              C:\Users\Fengyuan\AppData\Local\Temp\gh_0000sro1.s
0000588e 28747261 
00005892 00202978 
00005896 01        14212 	.data.b	1
00005897 0688      14213 	.data.b	136,6
00005899 526e6143  14214 	.data.b	67,97,110,82,120,65,99,116,117,97,108,73,100,82,97,119,48,40,114,120,83,116,114,117,99,116,41,32,40,40,118,117,105,110,116,49,54,41,40,40,40,40,116,67,97,110,82,120,77,115,103,66,117,102,102,101,114,80,116,114
0000589d 74634178 
000058a1 496c6175 
000058a5 77615264 
000058a9 78722830 
000058ad 75727453 
000058b1 20297463 
000058b5 75762828 
000058b9 31746e69 
000058bd 28282936 
000058c1 43742828 
000058c5 78526e61 
000058c9 4267734d 
000058cd 65666675 
000058d1 72745072 
000058d5 72282829  14215 	.data.b	41,40,40,114,120,83,116,114,117,99,116,41,45,62,112,67,104,105,112,77,115,103,79,98,106,41,41,45,62,109,115,103,73,68,41,32,62,62,32,49,54,41,32,38,32,40,118,117,105,110,116,49,54,41,48,120,49,70,70,70
000058d9 72745378 
000058dd 29746375 
000058e1 43703e2d 
000058e5 4d706968 
000058e9 624f6773 
000058ed 2d29296a 
000058f1 67736d3e 
000058f5 20294449 
000058f9 31203e3e 
000058fd 26202936 
00005901 75762820 
00005905 31746e69 
00005909 78302936 
0000590d 46464631 
00005911 0029      14216 	.data.b	41,0
00005913 01        14217 	.data.b	1
00005914 0696      14218 	.data.b	150,6
00005916 495f5458  14219 	.data.b	88,84,95,73,68,40,105,100,41,32,40,40,118,117,105,110,116,49,54,41,40,40,40,118,117,105,110,116,49,54,41,40,105,100,41,32,38,32,48,120,49,70,70,67,41,32,62,62,32,50,41,41,0
0000591a 64692844 
0000591e 28282029 
00005922 6e697576 
00005926 29363174 
0000592a 76282828 
0000592e 746e6975 
00005932 28293631 
00005936 20296469 
0000593a 78302026 
0000593e 43464631 
00005942 3e3e2029 
00005946 29293220 
0000594a 00 
0000594b 01        14220 	.data.b	1
0000594c 069b      14221 	.data.b	155,6
0000594e 526e6143  14222 	.data.b	67,97,110,82,120,65,99,116,117,97,108,83,116,100,73,100,40,114,120,83,116,114,117,99,116,41,32,40,88,84,95,73,68,40,67,97,110,82,120,65,99,116,117,97,108,73,100,82,97,119,48,40,114,120,83,116,114,117,99,116
00005952 74634178 
00005956 536c6175 
0000595a 64496474 
0000595e 53787228 
00005962 63757274 
00005966 28202974 
0000596a 495f5458 

                                                                      Page 351
                                                              C:\Users\Fengyuan\AppData\Local\Temp\gh_0000sro1.s
0000596e 61432844 
00005972 4178526e 
00005976 61757463 
0000597a 5264496c 
0000597e 28307761 
00005982 74537872 
00005986 74637572 
0000598a 00292929  14223 	.data.b	41,41,41,0
0000598e 01        14224 	.data.b	1
0000598f 069e      14225 	.data.b	158,6
00005991 526e6143  14226 	.data.b	67,97,110,82,120,65,99,116,117,97,108,68,76,67,40,114,120,83,116,114,117,99,116,41,32,40,40,118,117,105,110,116,56,41,40,40,40,116,67,97,110,82,120,77,115,103,66,117,102,102,101,114,80,116,114,41,40,40,114,120
00005995 74634178 
00005999 446c6175 
0000599d 7228434c 
000059a1 72745378 
000059a5 29746375 
000059a9 76282820 
000059ad 746e6975 
000059b1 28282938 
000059b5 61437428 
000059b9 4d78526e 
000059bd 75426773 
000059c1 72656666 
000059c5 29727450 
000059c9 78722828 
000059cd 75727453  14227 	.data.b	83,116,114,117,99,116,41,45,62,112,67,104,105,112,77,115,103,79,98,106,41,41,45,62,99,111,110,116,114,111,108,41,32,38,32,40,118,117,105,110,116,56,41,48,120,48,70,41,0
000059d1 2d297463 
000059d5 6843703e 
000059d9 734d7069 
000059dd 6a624f67 
000059e1 3e2d2929 
000059e5 746e6f63 
000059e9 296c6f72 
000059ed 28202620 
000059f1 6e697576 
000059f5 30293874 
000059f9 29463078 
000059fd 00 
000059fe 01        14228 	.data.b	1
000059ff 06df      14229 	.data.b	223,6
00005a01 436e6143  14230 	.data.b	67,97,110,67,111,112,121,68,97,116,97,66,121,116,101,115,50,85,105,110,116,51,50,40,100,115,116,44,115,114,99,41,32,40,100,115,116,41,91,48,93,32,61,32,40,40,40,40,118,117,105,110,116,51,50,41,40,40,115,114
00005a05 4479706f 
00005a09 42617461 
00005a0d 73657479 
00005a11 6e695532 
00005a15 28323374 
00005a19 2c747364 
00005a1d 29637273 
00005a21 73642820 
00005a25 305b2974 
00005a29 203d205d 
00005a2d 28282828 
00005a31 6e697576 
00005a35 29323374 
00005a39 72732828 
00005a3d 305b2963  14231 	.data.b	99,41,91,48,93,41,41,32,60,60,32,50,52,41,32,38,32,40,118,117,105,110,116,51,50,41,48,120,70,70,48,48,48,48,48,48,117,41,32,124,32,40,40,40,40,118,117,105,110,116,51,50,41,40,40,115,114,99,41,91
00005a41 2029295d 
00005a45 32203c3c 
00005a49 26202934 
00005a4d 75762820 
00005a51 33746e69 

                                                                      Page 352
                                                              C:\Users\Fengyuan\AppData\Local\Temp\gh_0000sro1.s
00005a55 78302932 
00005a59 30304646 
00005a5d 30303030 
00005a61 7c202975 
00005a65 28282820 
00005a69 69757628 
00005a6d 3233746e 
00005a71 73282829 
00005a75 5b296372 
00005a79 29295d31  14232 	.data.b	49,93,41,41,32,60,60,32,49,54,41,32,38,32,40,118,117,105,110,116,51,50,41,48,120,48,48,70,70,48,48,48,48,117,41,32,124,32,40,40,40,40,118,117,105,110,116,51,50,41,40,40,115,114,99,41,91,50,93,41
00005a7d 203c3c20 
00005a81 20293631 
00005a85 76282026 
00005a89 746e6975 
00005a8d 30293233 
00005a91 46303078 
00005a95 30303046 
00005a99 20297530 
00005a9d 2828207c 
00005aa1 75762828 
00005aa5 33746e69 
00005aa9 28282932 
00005aad 29637273 
00005ab1 295d325b 
00005ab5 3c3c2029  14233 	.data.b	41,32,60,60,32,56,41,32,38,32,40,118,117,105,110,116,51,50,41,48,120,48,48,48,48,70,70,48,48,117,41,32,124,32,40,40,40,118,117,105,110,116,51,50,41,40,40,115,114,99,41,91,51,93,41,41,32,38,32,40
00005ab9 20293820 
00005abd 76282026 
00005ac1 746e6975 
00005ac5 30293233 
00005ac9 30303078 
00005acd 30464630 
00005ad1 20297530 
00005ad5 2828207c 
00005ad9 69757628 
00005add 3233746e 
00005ae1 73282829 
00005ae5 5b296372 
00005ae9 29295d33 
00005aed 28202620 
00005af1 6e697576  14234 	.data.b	118,117,105,110,116,51,50,41,48,120,48,48,48,48,48,48,70,70,117,41,59,32,40,100,115,116,41,91,49,93,32,61,32,40,40,40,40,118,117,105,110,116,51,50,41,40,40,115,114,99,41,91,52,93,41,41,32,60,60,32
00005af5 29323374 
00005af9 30307830 
00005afd 30303030 
00005b01 29754646 
00005b05 6428203b 
00005b09 5b297473 
00005b0d 3d205d31 
00005b11 28282820 
00005b15 69757628 
00005b19 3233746e 
00005b1d 73282829 
00005b21 5b296372 
00005b25 29295d34 
00005b29 203c3c20 
00005b2d 20293432  14235 	.data.b	50,52,41,32,38,32,40,118,117,105,110,116,51,50,41,48,120,70,70,48,48,48,48,48,48,117,41,32,124,32,40,40,40,40,118,117,105,110,116,51,50,41,40,40,115,114,99,41,91,53,93,41,41,32,60,60,32,49,54,41
00005b31 76282026 
00005b35 746e6975 
00005b39 30293233 
00005b3d 30464678 
00005b41 30303030 
00005b45 20297530 

                                                                      Page 353
                                                              C:\Users\Fengyuan\AppData\Local\Temp\gh_0000sro1.s
00005b49 2828207c 
00005b4d 75762828 
00005b51 33746e69 
00005b55 28282932 
00005b59 29637273 
00005b5d 295d355b 
00005b61 3c3c2029 
00005b65 29363120 
00005b69 28202620  14236 	.data.b	32,38,32,40,118,117,105,110,116,51,50,41,48,120,48,48,70,70,48,48,48,48,117,41,32,124,32,40,40,40,40,118,117,105,110,116,51,50,41,40,40,115,114,99,41,91,54,93,41,41,32,60,60,32,56,41,32,38,32,40
00005b6d 6e697576 
00005b71 29323374 
00005b75 30307830 
00005b79 30304646 
00005b7d 29753030 
00005b81 28207c20 
00005b85 76282828 
00005b89 746e6975 
00005b8d 28293233 
00005b91 63727328 
00005b95 5d365b29 
00005b99 3c202929 
00005b9d 2938203c 
00005ba1 28202620 
00005ba5 6e697576  14237 	.data.b	118,117,105,110,116,51,50,41,48,120,48,48,48,48,70,70,48,48,117,41,32,124,32,40,40,40,118,117,105,110,116,51,50,41,40,40,115,114,99,41,91,55,93,41,41,32,38,32,40,118,117,105,110,116,51,50,41,48,120,48
00005ba9 29323374 
00005bad 30307830 
00005bb1 46463030 
00005bb5 29753030 
00005bb9 28207c20 
00005bbd 75762828 
00005bc1 33746e69 
00005bc5 28282932 
00005bc9 29637273 
00005bcd 295d375b 
00005bd1 20262029 
00005bd5 69757628 
00005bd9 3233746e 
00005bdd 30783029 
00005be1 30303030  14238 	.data.b	48,48,48,48,48,70,70,117,41,59,0
00005be5 75464630 
00005be9 003b29 
00005bec 01        14239 	.data.b	1
00005bed 0793      14240 	.data.b	147,7
00005bef 5f6e6143  14241 	.data.b	67,97,110,95,67,97,108,108,68,101,116,82,101,112,111,114,116,69,114,114,111,114,40,97,112,105,44,101,114,114,41,32,40,40,118,111,105,100,41,32,68,101,116,95,82,101,112,111,114,116,69,114,114,111,114,40,67,65,78,95
00005bf3 6c6c6143 
00005bf7 52746544 
00005bfb 726f7065 
00005bff 72724574 
00005c03 6128726f 
00005c07 652c6970 
00005c0b 20297272 
00005c0f 6f762828 
00005c13 20296469 
00005c17 5f746544 
00005c1b 6f706552 
00005c1f 72457472 
00005c23 28726f72 
00005c27 5f4e4143 
00005c2b 55444f4d  14242 	.data.b	77,79,68,85,76,69,95,73,68,44,32,67,65,78,95,73,78,83,84,65,78,67,69,95,73,68,44,32,40,97,112,105,41,44,32,40,101,114,114,41,41,41,0
00005c2f 495f454c 
00005c33 43202c44 

                                                                      Page 354
                                                              C:\Users\Fengyuan\AppData\Local\Temp\gh_0000sro1.s
00005c37 495f4e41 
00005c3b 4154534e 
00005c3f 5f45434e 
00005c43 202c4449 
00005c47 69706128 
00005c4b 28202c29 
00005c4f 29727265 
00005c53 002929 
00005c56 01        14243 	.data.b	1
00005c57 07a7      14244 	.data.b	167,7
00005c59 5f4e4143  14245 	.data.b	67,65,78,95,73,83,95,78,79,95,69,82,82,79,82,40,101,114,114,111,114,73,100,41,32,105,102,32,40,40,101,114,114,111,114,73,100,41,32,61,61,32,67,65,78,95,69,95,78,79,95,69,82,82,79,82,41,0
00005c5d 4e5f5349 
00005c61 52455f4f 
00005c65 28524f52 
00005c69 6f727265 
00005c6d 29644972 
00005c71 20666920 
00005c75 72652828 
00005c79 49726f72 
00005c7d 3d202964 
00005c81 4143203d 
00005c85 5f455f4e 
00005c89 455f4f4e 
00005c8d 524f5252 
00005c91 0029 
00005c93 01        14246 	.data.b	1
00005c94 07af      14247 	.data.b	175,7
00005c96 5f6e6143  14248 	.data.b	67,97,110,95,69,110,116,101,114,67,114,105,116,105,99,97,108,40,97,114,101,97,41,32,83,99,104,77,95,69,110,116,101,114,95,67,97,110,95,32,35,35,32,97,114,101,97,40,41,0
00005c9a 65746e45 
00005c9e 69724372 
00005ca2 61636974 
00005ca6 7261286c 
00005caa 20296165 
00005cae 4d686353 
00005cb2 746e455f 
00005cb6 435f7265 
00005cba 205f6e61 
00005cbe 61202323 
00005cc2 28616572 
00005cc6 0029 
00005cc8 01        14249 	.data.b	1
00005cc9 07b0      14250 	.data.b	176,7
00005ccb 5f6e6143  14251 	.data.b	67,97,110,95,76,101,97,118,101,67,114,105,116,105,99,97,108,40,97,114,101,97,41,32,83,99,104,77,95,69,120,105,116,95,67,97,110,95,32,35,35,32,97,114,101,97,40,41,0
00005ccf 7661654c 
00005cd3 69724365 
00005cd7 61636974 
00005cdb 7261286c 
00005cdf 20296165 
00005ce3 4d686353 
00005ce7 6978455f 
00005ceb 61435f74 
00005cef 23205f6e 
00005cf3 72612023 
00005cf7 29286165 
00005cfb 00 
00005cfc 01        14252 	.data.b	1
00005cfd 07b6      14253 	.data.b	182,7
00005cff 446e6143  14254 	.data.b	67,97,110,68,101,99,108,97,114,101,71,108,111,98,97,108,73,110,116,101,114,114,117,112,116,79,108,100,83,116,97,116,117,115,32,0
00005d03 616c6365 
00005d07 6c476572 
00005d0b 6c61626f 

                                                                      Page 355
                                                              C:\Users\Fengyuan\AppData\Local\Temp\gh_0000sro1.s
00005d0f 65746e49 
00005d13 70757272 
00005d17 646c4f74 
00005d1b 74617453 
00005d1f 00207375 
00005d23 01        14255 	.data.b	1
00005d24 07e6      14256 	.data.b	230,7
00005d26 5f4e4143  14257 	.data.b	67,65,78,95,87,82,73,84,69,95,80,82,79,84,69,67,84,69,68,95,82,69,71,49,54,40,97,114,101,97,44,114,101,103,80,116,114,44,118,97,108,41,32,42,40,114,101,103,80,116,114,41,32,61,32,40,118,97,108,41
00005d2a 54495257 
00005d2e 52505f45 
00005d32 4345544f 
00005d36 5f444554 
00005d3a 31474552 
00005d3e 72612836 
00005d42 722c6165 
00005d46 74506765 
00005d4a 61762c72 
00005d4e 2a20296c 
00005d52 67657228 
00005d56 29727450 
00005d5a 28203d20 
00005d5e 296c6176 
00005d62 00        14258 	.data.b	0
00005d63 01        14259 	.data.b	1
00005d64 08a7      14260 	.data.b	167,8
00005d66 5f4e4143  14261 	.data.b	67,65,78,95,72,76,95,73,78,70,79,95,73,78,73,84,95,80,84,82,40,109,101,109,98,101,114,41,32,40,105,110,105,116,73,110,102,111,45,62,109,101,109,98,101,114,41,0
00005d6a 495f4c48 
00005d6e 5f4f464e 
00005d72 54494e49 
00005d76 5254505f 
00005d7a 6d656d28 
00005d7e 29726562 
00005d82 6e692820 
00005d86 6e497469 
00005d8a 3e2d6f66 
00005d8e 626d656d 
00005d92 00297265 
00005d96 01        14262 	.data.b	1
00005d97 08b9      14263 	.data.b	185,8
00005d99 5f4e4143  14264 	.data.b	67,65,78,95,72,76,95,73,78,70,79,95,82,88,66,65,83,73,67,40,109,101,109,98,101,114,41,32,40,114,120,66,97,115,105,99,73,110,102,111,46,109,101,109,98,101,114,41,0
00005d9d 495f4c48 
00005da1 5f4f464e 
00005da5 41425852 
00005da9 28434953 
00005dad 626d656d 
00005db1 20297265 
00005db5 42787228 
00005db9 63697361 
00005dbd 6f666e49 
00005dc1 6d656d2e 
00005dc5 29726562 
00005dc9 00 
00005dca 03        14265 	.data.b	3
00005dcb 08d3      14266 	.data.b	211,8
00005dcd 1c        14267 	.data.b	28
00005dce 04        14268 	.data.b	4
00005dcf 03        14269 	.data.b	3
00005dd0 08d7      14270 	.data.b	215,8
00005dd2 1c        14271 	.data.b	28
00005dd3 04        14272 	.data.b	4
00005dd4 03        14273 	.data.b	3

                                                                      Page 356
                                                              C:\Users\Fengyuan\AppData\Local\Temp\gh_0000sro1.s
00005dd5 08dd      14274 	.data.b	221,8
00005dd7 1c        14275 	.data.b	28
00005dd8 04        14276 	.data.b	4
00005dd9 03        14277 	.data.b	3
00005dda 1195      14278 	.data.b	149,17
00005ddc 1c        14279 	.data.b	28
00005ddd 04        14280 	.data.b	4
00005dde 03        14281 	.data.b	3
00005ddf 1198      14282 	.data.b	152,17
00005de1 1c        14283 	.data.b	28
00005de2 04        14284 	.data.b	4
00005de3 03        14285 	.data.b	3
00005de4 11af      14286 	.data.b	175,17
00005de6 1c        14287 	.data.b	28
00005de7 04        14288 	.data.b	4
00005de8 04        14289 	.data.b	4
00005de9 03        14290 	.data.b	3
00005dea 0191      14291 	.data.b	145,1
00005dec 2a        14292 	.data.b	42
00005ded 03        14293 	.data.b	3
00005dee 4e        14294 	.data.b	78
00005def 2b        14295 	.data.b	43
00005df0 01        14296 	.data.b	1
00005df1 2b        14297 	.data.b	43
00005df2 5f544544  14298 	.data.b	68,69,84,95,69,78,65,66,76,69,68,32,83,84,68,95,79,78,0
00005df6 42414e45 
00005dfa 2044454c 
00005dfe 5f445453 
00005e02 004e4f 
00005e05 01        14299 	.data.b	1
00005e06 2c        14300 	.data.b	44
00005e07 5f544544  14301 	.data.b	68,69,84,95,86,69,82,83,73,79,78,95,73,78,70,79,95,65,80,73,32,83,84,68,95,79,70,70,0
00005e0b 53524556 
00005e0f 5f4e4f49 
00005e13 4f464e49 
00005e17 4950415f 
00005e1b 44545320 
00005e1f 46464f5f 
00005e23 00 
00005e24 01        14302 	.data.b	1
00005e25 2d        14303 	.data.b	45
00005e26 5f544544  14304 	.data.b	68,69,84,95,68,69,66,85,71,95,69,78,65,66,76,69,68,32,83,84,68,95,79,70,70,0
00005e2a 55424544 
00005e2e 4e455f47 
00005e32 454c4241 
00005e36 54532044 
00005e3a 464f5f44 
00005e3e 0046 
00005e40 03        14305 	.data.b	3
00005e41 0288      14306 	.data.b	136,2
00005e43 1c        14307 	.data.b	28
00005e44 04        14308 	.data.b	4
00005e45 03        14309 	.data.b	3
00005e46 028e      14310 	.data.b	142,2
00005e48 1c        14311 	.data.b	28
00005e49 04        14312 	.data.b	4
00005e4a 04        14313 	.data.b	4
00005e4b 03        14314 	.data.b	3
00005e4c 01d5      14315 	.data.b	213,1
00005e4e 1c        14316 	.data.b	28
00005e4f 04        14317 	.data.b	4

                                                                      Page 357
                                                              C:\Users\Fengyuan\AppData\Local\Temp\gh_0000sro1.s
00005e50 03        14318 	.data.b	3
00005e51 02d3      14319 	.data.b	211,2
00005e53 1c        14320 	.data.b	28
00005e54 04        14321 	.data.b	4
00005e55 04        14322 	.data.b	4
00005e56 01        14323 	.data.b	1
00005e57 019a      14324 	.data.b	154,1
00005e59 5f4e4143  14325 	.data.b	67,65,78,95,65,77,68,95,82,85,78,84,73,77,69,95,77,69,65,83,85,82,69,77,69,78,84,32,83,84,68,95,79,70,70,0
00005e5d 5f444d41 
00005e61 544e5552 
00005e65 5f454d49 
00005e69 5341454d 
00005e6d 4d455255 
00005e71 20544e45 
00005e75 5f445453 
00005e79 0046464f 
00005e7d 01        14326 	.data.b	1
00005e7e 01c1      14327 	.data.b	193,1
00005e80 5f4e4143  14328 	.data.b	67,65,78,95,71,69,78,95,66,65,83,69,95,86,69,82,83,73,79,78,32,67,65,78,95,71,69,78,95,66,65,83,69,95,67,70,71,53,95,86,69,82,83,73,79,78,0
00005e84 5f4e4547 
00005e88 45534142 
00005e8c 5245565f 
00005e90 4e4f4953 
00005e94 4e414320 
00005e98 4e45475f 
00005e9c 5341425f 
00005ea0 46435f45 
00005ea4 565f3547 
00005ea8 49535245 
00005eac 004e4f 
00005eaf 01        14329 	.data.b	1
00005eb0 01e7      14330 	.data.b	231,1
00005eb2 5f4e4143  14331 	.data.b	67,65,78,95,85,83,69,95,86,69,67,84,79,82,95,73,70,32,0
00005eb6 5f455355 
00005eba 54434556 
00005ebe 495f524f 
00005ec2 002046 
00005ec5 01        14332 	.data.b	1
00005ec6 0282      14333 	.data.b	130,2
00005ec8 486e6143  14334 	.data.b	67,97,110,72,111,111,107,66,101,103,105,110,95,67,97,110,95,73,110,105,116,40,41,32,0
00005ecc 426b6f6f 
00005ed0 6e696765 
00005ed4 6e61435f 
00005ed8 696e495f 
00005edc 20292874 
00005ee0 00 
00005ee1 01        14335 	.data.b	1
00005ee2 0283      14336 	.data.b	131,2
00005ee4 486e6143  14337 	.data.b	67,97,110,72,111,111,107,69,110,100,95,67,97,110,95,73,110,105,116,40,41,32,0
00005ee8 456b6f6f 
00005eec 435f646e 
00005ef0 495f6e61 
00005ef4 2874696e 
00005ef8 002029 
00005efb 01        14338 	.data.b	1
00005efc 0284      14339 	.data.b	132,2
00005efe 486e6143  14340 	.data.b	67,97,110,72,111,111,107,66,101,103,105,110,95,67,97,110,95,73,110,105,116,67,111,110,116,114,111,108,108,101,114,40,41,32,0
00005f02 426b6f6f 
00005f06 6e696765 
00005f0a 6e61435f 
00005f0e 696e495f 

                                                                      Page 358
                                                              C:\Users\Fengyuan\AppData\Local\Temp\gh_0000sro1.s
00005f12 6e6f4374 
00005f16 6c6f7274 
00005f1a 2872656c 
00005f1e 002029 
00005f21 01        14341 	.data.b	1
00005f22 0286      14342 	.data.b	134,2
00005f24 486e6143  14343 	.data.b	67,97,110,72,111,111,107,69,110,100,95,67,97,110,95,73,110,105,116,67,111,110,116,114,111,108,108,101,114,40,41,32,0
00005f28 456b6f6f 
00005f2c 435f646e 
00005f30 495f6e61 
00005f34 4374696e 
00005f38 72746e6f 
00005f3c 656c6c6f 
00005f40 20292872 
00005f44 00 
00005f45 01        14344 	.data.b	1
00005f46 0288      14345 	.data.b	136,2
00005f48 486e6143  14346 	.data.b	67,97,110,72,111,111,107,66,101,103,105,110,95,67,97,110,95,83,101,116,67,111,110,116,114,111,108,108,101,114,77,111,100,101,40,41,32,0
00005f4c 426b6f6f 
00005f50 6e696765 
00005f54 6e61435f 
00005f58 7465535f 
00005f5c 746e6f43 
00005f60 6c6c6f72 
00005f64 6f4d7265 
00005f68 29286564 
00005f6c 0020 
00005f6e 01        14347 	.data.b	1
00005f6f 028a      14348 	.data.b	138,2
00005f71 486e6143  14349 	.data.b	67,97,110,72,111,111,107,69,110,100,95,67,97,110,95,83,101,116,67,111,110,116,114,111,108,108,101,114,77,111,100,101,40,41,32,0
00005f75 456b6f6f 
00005f79 435f646e 
00005f7d 535f6e61 
00005f81 6f437465 
00005f85 6f72746e 
00005f89 72656c6c 
00005f8d 65646f4d 
00005f91 00202928 
00005f95 01        14350 	.data.b	1
00005f96 028c      14351 	.data.b	140,2
00005f98 486e6143  14352 	.data.b	67,97,110,72,111,111,107,66,101,103,105,110,95,67,97,110,95,87,114,105,116,101,40,41,32,0
00005f9c 426b6f6f 
00005fa0 6e696765 
00005fa4 6e61435f 
00005fa8 6972575f 
00005fac 29286574 
00005fb0 0020 
00005fb2 01        14353 	.data.b	1
00005fb3 028e      14354 	.data.b	142,2
00005fb5 486e6143  14355 	.data.b	67,97,110,72,111,111,107,69,110,100,95,67,97,110,95,87,114,105,116,101,40,41,32,0
00005fb9 456b6f6f 
00005fbd 435f646e 
00005fc1 575f6e61 
00005fc5 65746972 
00005fc9 00202928 
00005fcd 01        14356 	.data.b	1
00005fce 0292      14357 	.data.b	146,2
00005fd0 486e6143  14358 	.data.b	67,97,110,72,111,111,107,66,101,103,105,110,95,67,97,110,72,76,95,84,120,67,111,110,102,105,114,109,97,116,105,111,110,40,41,32,0
00005fd4 426b6f6f 
00005fd8 6e696765 
00005fdc 6e61435f 

                                                                      Page 359
                                                              C:\Users\Fengyuan\AppData\Local\Temp\gh_0000sro1.s
00005fe0 545f4c48 
00005fe4 6e6f4378 
00005fe8 6d726966 
00005fec 6f697461 
00005ff0 2029286e 
00005ff4 00 
00005ff5 01        14359 	.data.b	1
00005ff6 0294      14360 	.data.b	148,2
00005ff8 486e6143  14361 	.data.b	67,97,110,72,111,111,107,69,110,100,95,67,97,110,72,76,95,84,120,67,111,110,102,105,114,109,97,116,105,111,110,40,41,32,0
00005ffc 456b6f6f 
00006000 435f646e 
00006004 4c486e61 
00006008 4378545f 
0000600c 69666e6f 
00006010 74616d72 
00006014 286e6f69 
00006018 002029 
0000601b 01        14362 	.data.b	1
0000601c 0296      14363 	.data.b	150,2
0000601e 486e6143  14364 	.data.b	67,97,110,72,111,111,107,66,101,103,105,110,95,67,97,110,66,97,115,105,99,67,97,110,77,115,103,82,101,99,101,105,118,101,100,40,41,32,0
00006022 426b6f6f 
00006026 6e696765 
0000602a 6e61435f 
0000602e 69736142 
00006032 6e614363 
00006036 5267734d 
0000603a 69656365 
0000603e 28646576 
00006042 002029 
00006045 01        14365 	.data.b	1
00006046 0298      14366 	.data.b	152,2
00006048 486e6143  14367 	.data.b	67,97,110,72,111,111,107,69,110,100,95,67,97,110,66,97,115,105,99,67,97,110,77,115,103,82,101,99,101,105,118,101,100,40,41,32,0
0000604c 456b6f6f 
00006050 435f646e 
00006054 61426e61 
00006058 43636973 
0000605c 734d6e61 
00006060 63655267 
00006064 65766965 
00006068 20292864 
0000606c 00 
0000606d 01        14368 	.data.b	1
0000606e 029e      14369 	.data.b	158,2
00006070 486e6143  14370 	.data.b	67,97,110,72,111,111,107,66,101,103,105,110,95,67,97,110,95,77,97,105,110,70,117,110,99,116,105,111,110,95,87,114,105,116,101,40,41,32,0
00006074 426b6f6f 
00006078 6e696765 
0000607c 6e61435f 
00006080 69614d5f 
00006084 6e75466e 
00006088 6f697463 
0000608c 72575f6e 
00006090 28657469 
00006094 002029 
00006097 01        14371 	.data.b	1
00006098 02a0      14372 	.data.b	160,2
0000609a 486e6143  14373 	.data.b	67,97,110,72,111,111,107,69,110,100,95,67,97,110,95,77,97,105,110,70,117,110,99,116,105,111,110,95,87,114,105,116,101,40,41,32,0
0000609e 456b6f6f 
000060a2 435f646e 
000060a6 4d5f6e61 
000060aa 466e6961 
000060ae 74636e75 

                                                                      Page 360
                                                              C:\Users\Fengyuan\AppData\Local\Temp\gh_0000sro1.s
000060b2 5f6e6f69 
000060b6 74697257 
000060ba 20292865 
000060be 00 
000060bf 01        14374 	.data.b	1
000060c0 02a2      14375 	.data.b	162,2
000060c2 486e6143  14376 	.data.b	67,97,110,72,111,111,107,66,101,103,105,110,95,67,97,110,95,77,97,105,110,70,117,110,99,116,105,111,110,95,82,101,97,100,40,41,32,0
000060c6 426b6f6f 
000060ca 6e696765 
000060ce 6e61435f 
000060d2 69614d5f 
000060d6 6e75466e 
000060da 6f697463 
000060de 65525f6e 
000060e2 29286461 
000060e6 0020 
000060e8 01        14377 	.data.b	1
000060e9 02a4      14378 	.data.b	164,2
000060eb 486e6143  14379 	.data.b	67,97,110,72,111,111,107,69,110,100,95,67,97,110,95,77,97,105,110,70,117,110,99,116,105,111,110,95,82,101,97,100,40,41,32,0
000060ef 456b6f6f 
000060f3 435f646e 
000060f7 4d5f6e61 
000060fb 466e6961 
000060ff 74636e75 
00006103 5f6e6f69 
00006107 64616552 
0000610b 00202928 
0000610f 01        14380 	.data.b	1
00006110 02d1      14381 	.data.b	209,2
00006112 656c466b  14382 	.data.b	107,70,108,101,120,67,65,78,95,77,68,73,83,32,40,40,118,117,105,110,116,49,54,41,48,120,56,48,48,48,117,41,0
00006116 4e414378 
0000611a 49444d5f 
0000611e 28282053 
00006122 6e697576 
00006126 29363174 
0000612a 30387830 
0000612e 29753030 
00006132 00 
00006133 01        14383 	.data.b	1
00006134 02d2      14384 	.data.b	210,2
00006136 656c466b  14385 	.data.b	107,70,108,101,120,67,65,78,95,70,82,90,32,40,40,118,117,105,110,116,49,54,41,48,120,52,48,48,48,117,41,0
0000613a 4e414378 
0000613e 5a52465f 
00006142 76282820 
00006146 746e6975 
0000614a 30293631 
0000614e 30303478 
00006152 00297530 
00006156 01        14386 	.data.b	1
00006157 02d3      14387 	.data.b	211,2
00006159 656c466b  14388 	.data.b	107,70,108,101,120,67,65,78,95,70,69,78,32,40,40,118,117,105,110,116,49,54,41,48,120,50,48,48,48,117,41,0
0000615d 4e414378 
00006161 4e45465f 
00006165 76282820 
00006169 746e6975 
0000616d 30293631 
00006171 30303278 
00006175 00297530 
00006179 01        14389 	.data.b	1
0000617a 02d4      14390 	.data.b	212,2
0000617c 656c466b  14391 	.data.b	107,70,108,101,120,67,65,78,95,72,65,76,84,32,40,40,118,117,105,110,116,49,54,41,48,120,49,48,48,48,117,41,0

                                                                      Page 361
                                                              C:\Users\Fengyuan\AppData\Local\Temp\gh_0000sro1.s
00006180 4e414378 
00006184 4c41485f 
00006188 28282054 
0000618c 6e697576 
00006190 29363174 
00006194 30317830 
00006198 29753030 
0000619c 00 
0000619d 01        14392 	.data.b	1
0000619e 02d5      14393 	.data.b	213,2
000061a0 656c466b  14394 	.data.b	107,70,108,101,120,67,65,78,95,78,79,84,95,82,68,89,32,40,40,118,117,105,110,116,49,54,41,48,120,48,56,48,48,117,41,0
000061a4 4e414378 
000061a8 544f4e5f 
000061ac 5944525f 
000061b0 76282820 
000061b4 746e6975 
000061b8 30293631 
000061bc 30383078 
000061c0 00297530 
000061c4 01        14395 	.data.b	1
000061c5 02d7      14396 	.data.b	215,2
000061c7 656c466b  14397 	.data.b	107,70,108,101,120,67,65,78,95,83,79,70,84,95,82,83,84,32,40,40,118,117,105,110,116,49,54,41,48,120,48,50,48,48,117,41,0
000061cb 4e414378 
000061cf 464f535f 
000061d3 53525f54 
000061d7 28282054 
000061db 6e697576 
000061df 29363174 
000061e3 32307830 
000061e7 29753030 
000061eb 00 
000061ec 01        14398 	.data.b	1
000061ed 02d8      14399 	.data.b	216,2
000061ef 656c466b  14400 	.data.b	107,70,108,101,120,67,65,78,95,70,82,90,95,65,67,75,32,40,40,118,117,105,110,116,49,54,41,48,120,48,49,48,48,117,41,0
000061f3 4e414378 
000061f7 5a52465f 
000061fb 4b43415f 
000061ff 76282820 
00006203 746e6975 
00006207 30293631 
0000620b 30313078 
0000620f 00297530 
00006213 01        14401 	.data.b	1
00006214 02d9      14402 	.data.b	217,2
00006216 656c466b  14403 	.data.b	107,70,108,101,120,67,65,78,95,83,85,80,86,32,40,40,118,117,105,110,116,49,54,41,48,120,48,48,56,48,117,41,0
0000621a 4e414378 
0000621e 5055535f 
00006222 28282056 
00006226 6e697576 
0000622a 29363174 
0000622e 30307830 
00006232 29753038 
00006236 00 
00006237 01        14404 	.data.b	1
00006238 02dc      14405 	.data.b	220,2
0000623a 656c466b  14406 	.data.b	107,70,108,101,120,67,65,78,95,76,80,77,95,65,67,75,32,40,40,118,117,105,110,116,49,54,41,48,120,48,48,49,48,117,41,0
0000623e 4e414378 
00006242 4d504c5f 
00006246 4b43415f 
0000624a 76282820 
0000624e 746e6975 

                                                                      Page 362
                                                              C:\Users\Fengyuan\AppData\Local\Temp\gh_0000sro1.s
00006252 30293631 
00006256 31303078 
0000625a 00297530 
0000625e 01        14407 	.data.b	1
0000625f 02e0      14408 	.data.b	224,2
00006261 656c466b  14409 	.data.b	107,70,108,101,120,67,65,78,95,83,82,88,95,68,73,83,32,40,40,118,117,105,110,116,49,54,41,48,120,48,48,48,50,117,41,0
00006265 4e414378 
00006269 5852535f 
0000626d 5349445f 
00006271 76282820 
00006275 746e6975 
00006279 30293631 
0000627d 30303078 
00006281 00297532 
00006285 01        14410 	.data.b	1
00006286 02e1      14411 	.data.b	225,2
00006288 656c466b  14412 	.data.b	107,70,108,101,120,67,65,78,95,73,82,77,81,32,40,40,118,117,105,110,116,49,54,41,48,120,48,48,48,49,117,41,0
0000628c 4e414378 
00006290 4d52495f 
00006294 28282051 
00006298 6e697576 
0000629c 29363174 
000062a0 30307830 
000062a4 29753130 
000062a8 00 
000062a9 01        14413 	.data.b	1
000062aa 02ea      14414 	.data.b	234,2
000062ac 656c466b  14415 	.data.b	107,70,108,101,120,67,65,78,95,66,79,70,70,95,77,83,75,32,40,40,118,117,105,110,116,51,50,41,48,120,48,48,48,48,56,48,48,48,117,41,0
000062b0 4e414378 
000062b4 464f425f 
000062b8 534d5f46 
000062bc 2828204b 
000062c0 6e697576 
000062c4 29323374 
000062c8 30307830 
000062cc 30383030 
000062d0 29753030 
000062d4 00 
000062d5 01        14416 	.data.b	1
000062d6 02ec      14417 	.data.b	236,2
000062d8 656c466b  14418 	.data.b	107,70,108,101,120,67,65,78,95,67,76,75,95,83,82,67,32,40,40,118,117,105,110,116,51,50,41,48,120,48,48,48,48,50,48,48,48,117,41,0
000062dc 4e414378 
000062e0 4b4c435f 
000062e4 4352535f 
000062e8 76282820 
000062ec 746e6975 
000062f0 30293233 
000062f4 30303078 
000062f8 30303230 
000062fc 00297530 
00006300 01        14419 	.data.b	1
00006301 02ed      14420 	.data.b	237,2
00006303 656c466b  14421 	.data.b	107,70,108,101,120,67,65,78,95,66,79,70,70,95,82,69,67,32,40,40,118,117,105,110,116,51,50,41,48,120,48,48,48,48,48,48,52,48,117,41,0
00006307 4e414378 
0000630b 464f425f 
0000630f 45525f46 
00006313 28282043 
00006317 6e697576 
0000631b 29323374 
0000631f 30307830 
00006323 30303030 

                                                                      Page 363
                                                              C:\Users\Fengyuan\AppData\Local\Temp\gh_0000sro1.s
00006327 29753034 
0000632b 00 
0000632c 01        14422 	.data.b	1
0000632d 02f1      14423 	.data.b	241,2
0000632f 656c466b  14424 	.data.b	107,70,108,101,120,67,65,78,95,87,65,75,69,95,73,78,84,32,40,118,117,105,110,116,51,50,41,48,120,48,48,48,48,48,48,48,49,117,0
00006333 4e414378 
00006337 4b41575f 
0000633b 4e495f45 
0000633f 76282054 
00006343 746e6975 
00006347 30293233 
0000634b 30303078 
0000634f 30303030 
00006353 007531 
00006356 01        14425 	.data.b	1
00006357 02f2      14426 	.data.b	242,2
00006359 656c466b  14427 	.data.b	107,70,108,101,120,67,65,78,95,69,82,82,95,73,78,84,32,40,118,117,105,110,116,51,50,41,48,120,48,48,48,48,48,48,48,50,117,0
0000635d 4e414378 
00006361 5252455f 
00006365 544e495f 
00006369 75762820 
0000636d 33746e69 
00006371 78302932 
00006375 30303030 
00006379 32303030 
0000637d 0075 
0000637f 01        14428 	.data.b	1
00006380 02f3      14429 	.data.b	243,2
00006382 656c466b  14430 	.data.b	107,70,108,101,120,67,65,78,95,66,79,70,70,95,73,78,84,32,40,118,117,105,110,116,51,50,41,48,120,48,48,48,48,48,48,48,52,117,0
00006386 4e414378 
0000638a 464f425f 
0000638e 4e495f46 
00006392 76282054 
00006396 746e6975 
0000639a 30293233 
0000639e 30303078 
000063a2 30303030 
000063a6 007534 
000063a9 01        14431 	.data.b	1
000063aa 02f4      14432 	.data.b	244,2
000063ac 656c466b  14433 	.data.b	107,70,108,101,120,67,65,78,95,70,67,83,95,66,79,70,70,32,40,118,117,105,110,116,51,50,41,48,120,48,48,48,48,48,48,50,48,117,0
000063b0 4e414378 
000063b4 5343465f 
000063b8 464f425f 
000063bc 76282046 
000063c0 746e6975 
000063c4 30293233 
000063c8 30303078 
000063cc 32303030 
000063d0 007530 
000063d3 01        14434 	.data.b	1
000063d4 02f8      14435 	.data.b	248,2
000063d6 656c466b  14436 	.data.b	107,70,108,101,120,67,65,78,95,83,84,65,84,85,83,95,73,78,84,32,40,107,70,108,101,120,67,65,78,95,66,79,70,70,95,73,78,84,32,124,32,107,70,108,101,120,67,65,78,95,69,82,82,95,73,78,84,32,124,32
000063da 4e414378 
000063de 4154535f 
000063e2 5f535554 
000063e6 20544e49 
000063ea 6c466b28 
000063ee 41437865 
000063f2 4f425f4e 
000063f6 495f4646 

                                                                      Page 364
                                                              C:\Users\Fengyuan\AppData\Local\Temp\gh_0000sro1.s
000063fa 7c20544e 
000063fe 6c466b20 
00006402 41437865 
00006406 52455f4e 
0000640a 4e495f52 
0000640e 207c2054 
00006412 656c466b  14437 	.data.b	107,70,108,101,120,67,65,78,95,87,65,75,69,95,73,78,84,41,0
00006416 4e414378 
0000641a 4b41575f 
0000641e 4e495f45 
00006422 002954 
00006425 01        14438 	.data.b	1
00006426 02fa      14439 	.data.b	250,2
00006428 656c466b  14440 	.data.b	107,70,108,101,120,67,65,78,95,77,67,82,32,40,107,70,108,101,120,67,65,78,95,77,68,73,83,32,124,32,107,70,108,101,120,67,65,78,95,70,82,90,32,124,32,107,70,108,101,120,67,65,78,95,72,65,76,84,32,124
0000642c 4e414378 
00006430 52434d5f 
00006434 466b2820 
00006438 4378656c 
0000643c 4d5f4e41 
00006440 20534944 
00006444 466b207c 
00006448 4378656c 
0000644c 465f4e41 
00006450 7c205a52 
00006454 6c466b20 
00006458 41437865 
0000645c 41485f4e 
00006460 7c20544c 
00006464 6c466b20  14441 	.data.b	32,107,70,108,101,120,67,65,78,95,78,79,84,95,82,68,89,32,124,32,107,70,108,101,120,67,65,78,95,70,82,90,95,65,67,75,32,124,32,107,70,108,101,120,67,65,78,95,76,80,77,95,65,67,75,41,0
00006468 41437865 
0000646c 4f4e5f4e 
00006470 44525f54 
00006474 207c2059 
00006478 656c466b 
0000647c 4e414378 
00006480 5a52465f 
00006484 4b43415f 
00006488 6b207c20 
0000648c 78656c46 
00006490 5f4e4143 
00006494 5f4d504c 
00006498 294b4341 
0000649c 00 
0000649d 01        14442 	.data.b	1
0000649e 02fb      14443 	.data.b	251,2
000064a0 656c466b  14444 	.data.b	107,70,108,101,120,67,65,78,95,70,82,69,69,90,69,95,77,79,68,69,32,40,107,70,108,101,120,67,65,78,95,70,82,90,32,124,32,107,70,108,101,120,67,65,78,95,72,65,76,84,32,124,32,107,70,108,101,120,67,65
000064a4 4e414378 
000064a8 4552465f 
000064ac 5f455a45 
000064b0 45444f4d 
000064b4 466b2820 
000064b8 4378656c 
000064bc 465f4e41 
000064c0 7c205a52 
000064c4 6c466b20 
000064c8 41437865 
000064cc 41485f4e 
000064d0 7c20544c 
000064d4 6c466b20 
000064d8 41437865 
000064dc 4f4e5f4e  14445 	.data.b	78,95,78,79,84,95,82,68,89,32,124,32,107,70,108,101,120,67,65,78,95,70,82,90,95,65,67,75,41,0

                                                                      Page 365
                                                              C:\Users\Fengyuan\AppData\Local\Temp\gh_0000sro1.s
000064e0 44525f54 
000064e4 207c2059 
000064e8 656c466b 
000064ec 4e414378 
000064f0 5a52465f 
000064f4 4b43415f 
000064f8 0029 
000064fa 01        14446 	.data.b	1
000064fb 02fd      14447 	.data.b	253,2
000064fd 656c466b  14448 	.data.b	107,70,108,101,120,67,65,78,95,68,73,83,65,66,76,69,95,77,79,68,69,32,40,107,70,108,101,120,67,65,78,95,77,68,73,83,32,124,32,107,70,108,101,120,67,65,78,95,78,79,84,95,82,68,89,32,124,32,107,70
00006501 4e414378 
00006505 5349445f 
00006509 454c4241 
0000650d 444f4d5f 
00006511 6b282045 
00006515 78656c46 
00006519 5f4e4143 
0000651d 5349444d 
00006521 6b207c20 
00006525 78656c46 
00006529 5f4e4143 
0000652d 5f544f4e 
00006531 20594452 
00006535 466b207c 
00006539 4378656c  14449 	.data.b	108,101,120,67,65,78,95,76,80,77,95,65,67,75,41,0
0000653d 4c5f4e41 
00006541 415f4d50 
00006545 00294b43 
00006549 01        14450 	.data.b	1
0000654a 02fe      14451 	.data.b	254,2
0000654c 656c466b  14452 	.data.b	107,70,108,101,120,67,65,78,95,78,79,82,77,65,76,95,77,79,68,69,32,40,40,118,117,105,110,116,49,54,41,48,120,48,48,48,48,117,41,0
00006550 4e414378 
00006554 524f4e5f 
00006558 5f4c414d 
0000655c 45444f4d 
00006560 76282820 
00006564 746e6975 
00006568 30293631 
0000656c 30303078 
00006570 00297530 
00006574 01        14453 	.data.b	1
00006575 0383      14454 	.data.b	131,3
00006577 656c466b  14455 	.data.b	107,70,108,101,120,67,65,78,95,68,73,83,65,66,76,69,95,79,78,76,89,95,66,73,84,83,32,40,107,70,108,101,120,67,65,78,95,77,68,73,83,32,124,32,107,70,108,101,120,67,65,78,95,76,80,77,95,65,67,75
0000657b 4e414378 
0000657f 5349445f 
00006583 454c4241 
00006587 4c4e4f5f 
0000658b 49425f59 
0000658f 28205354 
00006593 656c466b 
00006597 4e414378 
0000659b 49444d5f 
0000659f 207c2053 
000065a3 656c466b 
000065a7 4e414378 
000065ab 4d504c5f 
000065af 4b43415f 
000065b3 0029      14456 	.data.b	41,0
000065b5 01        14457 	.data.b	1
000065b6 0384      14458 	.data.b	132,3
000065b8 746f4e6b  14459 	.data.b	107,78,111,116,70,108,101,120,67,65,78,95,77,67,82,95,67,70,71,95,66,84,73,83,32,40,107,70,108,101,120,67,65,78,95,77,67,82,32,124,32,107,70,108,101,120,67,65,78,95,83,79,70,84,95,82,83,84,32,124

                                                                      Page 366
                                                              C:\Users\Fengyuan\AppData\Local\Temp\gh_0000sro1.s
000065bc 78656c46 
000065c0 5f4e4143 
000065c4 5f52434d 
000065c8 5f474643 
000065cc 53495442 
000065d0 466b2820 
000065d4 4378656c 
000065d8 4d5f4e41 
000065dc 7c205243 
000065e0 6c466b20 
000065e4 41437865 
000065e8 4f535f4e 
000065ec 525f5446 
000065f0 7c205453 
000065f4 6c466b20  14460 	.data.b	32,107,70,108,101,120,67,65,78,95,83,85,80,86,41,0
000065f8 41437865 
000065fc 55535f4e 
00006600 00295650 
00006604 01        14461 	.data.b	1
00006605 0387      14462 	.data.b	135,3
00006607 746f4e6b  14463 	.data.b	107,78,111,116,70,108,101,120,67,65,78,69,114,114,66,111,102,102,32,40,40,118,117,105,110,116,51,50,41,48,120,70,70,70,70,51,70,70,70,117,41,0
0000660b 78656c46 
0000660f 454e4143 
00006613 6f427272 
00006617 28206666 
0000661b 69757628 
0000661f 3233746e 
00006623 46783029 
00006627 33464646 
0000662b 75464646 
0000662f 0029 
00006631 01        14464 	.data.b	1
00006632 038a      14465 	.data.b	138,3
00006634 534e4143  14466 	.data.b	67,65,78,83,70,82,95,83,69,84,32,40,40,118,117,105,110,116,51,50,41,48,120,70,70,70,70,70,70,70,70,117,41,0
00006638 535f5246 
0000663c 28205445 
00006640 69757628 
00006644 3233746e 
00006648 46783029 
0000664c 46464646 
00006650 75464646 
00006654 0029 
00006656 01        14467 	.data.b	1
00006657 0398      14468 	.data.b	152,3
00006659 4378546b  14469 	.data.b	107,84,120,67,111,100,101,84,114,97,110,115,109,105,116,32,40,40,118,117,105,110,116,49,54,41,48,120,48,67,52,48,117,41,0
0000665d 5465646f 
00006661 736e6172 
00006665 2074696d 
00006669 75762828 
0000666d 31746e69 
00006671 78302936 
00006675 30344330 
00006679 002975 
0000667c 01        14470 	.data.b	1
0000667d 039b      14471 	.data.b	155,3
0000667f 4478546b  14472 	.data.b	107,84,120,68,108,99,77,97,115,107,32,40,40,118,117,105,110,116,49,54,41,48,120,48,48,54,70,117,41,0
00006683 614d636c 
00006687 28206b73 
0000668b 69757628 
0000668f 3631746e 
00006693 30783029 

                                                                      Page 367
                                                              C:\Users\Fengyuan\AppData\Local\Temp\gh_0000sro1.s
00006697 75463630 
0000669b 0029 
0000669d 01        14473 	.data.b	1
0000669e 039c      14474 	.data.b	156,3
000066a0 4378546b  14475 	.data.b	107,84,120,67,111,100,101,70,114,101,101,32,40,40,118,117,105,110,116,49,54,41,48,120,48,56,48,48,117,41,0
000066a4 4665646f 
000066a8 20656572 
000066ac 75762828 
000066b0 31746e69 
000066b4 78302936 
000066b8 30303830 
000066bc 002975 
000066bf 01        14476 	.data.b	1
000066c0 03a2      14477 	.data.b	162,3
000066c2 4378546b  14478 	.data.b	107,84,120,67,111,100,101,73,110,97,99,116,105,118,101,32,40,40,118,117,105,110,116,49,54,41,48,120,48,56,48,48,117,41,0
000066c6 4965646f 
000066ca 7463616e 
000066ce 20657669 
000066d2 75762828 
000066d6 31746e69 
000066da 78302936 
000066de 30303830 
000066e2 002975 
000066e5 01        14479 	.data.b	1
000066e6 03a6      14480 	.data.b	166,3
000066e8 4678526b  14481 	.data.b	107,82,120,70,73,70,79,95,79,86,69,82,82,85,78,32,40,118,117,105,110,116,51,50,41,48,120,48,48,48,48,48,48,56,48,117,0
000066ec 5f4f4649 
000066f0 5245564f 
000066f4 204e5552 
000066f8 69757628 
000066fc 3233746e 
00006700 30783029 
00006704 30303030 
00006708 75303830 
0000670c 00 
0000670d 01        14482 	.data.b	1
0000670e 03a7      14483 	.data.b	167,3
00006710 4678526b  14484 	.data.b	107,82,120,70,73,70,79,95,87,65,82,78,32,40,118,117,105,110,116,51,50,41,48,120,48,48,48,48,48,48,52,48,117,0
00006714 5f4f4649 
00006718 4e524157 
0000671c 75762820 
00006720 33746e69 
00006724 78302932 
00006728 30303030 
0000672c 30343030 
00006730 0075 
00006732 01        14485 	.data.b	1
00006733 03a8      14486 	.data.b	168,3
00006735 4678526b  14487 	.data.b	107,82,120,70,73,70,79,95,78,69,87,77,83,71,32,40,118,117,105,110,116,51,50,41,48,120,48,48,48,48,48,48,50,48,117,0
00006739 5f4f4649 
0000673d 4d57454e 
00006741 28204753 
00006745 6e697576 
00006749 29323374 
0000674d 30307830 
00006751 30303030 
00006755 00753032 
00006759 01        14488 	.data.b	1
0000675a 03a9      14489 	.data.b	169,3
0000675c 4678526b  14490 	.data.b	107,82,120,70,73,70,79,95,69,88,84,32,40,118,117,105,110,116,51,50,41,48,120,52,48,48,48,48,48,48,48,117,0
00006760 5f4f4649 

                                                                      Page 368
                                                              C:\Users\Fengyuan\AppData\Local\Temp\gh_0000sro1.s
00006764 20545845 
00006768 69757628 
0000676c 3233746e 
00006770 34783029 
00006774 30303030 
00006778 75303030 
0000677c 00 
0000677d 01        14491 	.data.b	1
0000677e 03ab      14492 	.data.b	171,3
00006780 4678526b  14493 	.data.b	107,82,120,70,73,70,79,95,77,65,83,75,32,40,118,117,105,110,116,51,50,41,48,120,67,48,48,48,48,48,48,48,117,0
00006784 5f4f4649 
00006788 4b53414d 
0000678c 75762820 
00006790 33746e69 
00006794 78302932 
00006798 30303043 
0000679c 30303030 
000067a0 0075 
000067a2 01        14494 	.data.b	1
000067a3 03ad      14495 	.data.b	173,3
000067a5 4c465f43  14496 	.data.b	67,95,70,76,69,88,67,65,78,95,82,88,70,73,70,79,95,77,65,88,76,79,79,80,32,54,0
000067a9 41435845 
000067ad 58525f4e 
000067b1 4f464946 
000067b5 58414d5f 
000067b9 504f4f4c 
000067bd 003620 
000067c0 01        14497 	.data.b	1
000067c1 03b2      14498 	.data.b	178,3
000067c3 656c466b  14499 	.data.b	107,70,108,101,120,67,65,78,95,77,82,80,32,40,118,117,105,110,116,51,50,41,48,120,48,48,48,52,48,48,48,48,117,0
000067c7 4e414378 
000067cb 50524d5f 
000067cf 75762820 
000067d3 33746e69 
000067d7 78302932 
000067db 34303030 
000067df 30303030 
000067e3 0075 
000067e5 01        14500 	.data.b	1
000067e6 03b3      14501 	.data.b	179,3
000067e8 656c466b  14502 	.data.b	107,70,108,101,120,67,65,78,95,82,82,83,32,40,118,117,105,110,116,51,50,41,48,120,48,48,48,50,48,48,48,48,117,0
000067ec 4e414378 
000067f0 5352525f 
000067f4 75762820 
000067f8 33746e69 
000067fc 78302932 
00006800 32303030 
00006804 30303030 
00006808 0075 
0000680a 01        14503 	.data.b	1
0000680b 03b4      14504 	.data.b	180,3
0000680d 656c466b  14505 	.data.b	107,70,108,101,120,67,65,78,95,69,65,67,69,78,32,40,118,117,105,110,116,51,50,41,48,120,48,48,48,49,48,48,48,48,117,0
00006811 4e414378 
00006815 4341455f 
00006819 28204e45 
0000681d 6e697576 
00006821 29323374 
00006825 30307830 
00006829 30303130 
0000682d 00753030 
00006831 01        14506 	.data.b	1

                                                                      Page 369
                                                              C:\Users\Fengyuan\AppData\Local\Temp\gh_0000sro1.s
00006832 03b5      14507 	.data.b	181,3
00006834 656c466b  14508 	.data.b	107,70,108,101,120,67,65,78,95,84,65,83,68,95,68,69,70,65,85,76,84,32,40,118,117,105,110,116,51,50,41,48,120,48,48,56,48,48,48,48,48,117,0
00006838 4e414378 
0000683c 5341545f 
00006840 45445f44 
00006844 4c554146 
00006848 76282054 
0000684c 746e6975 
00006850 30293233 
00006854 38303078 
00006858 30303030 
0000685c 007530 
0000685f 01        14509 	.data.b	1
00006860 03bb      14510 	.data.b	187,3
00006862 7478456b  14511 	.data.b	107,69,120,116,73,68,66,105,116,32,40,118,117,105,110,116,51,50,41,48,120,56,48,48,48,48,48,48,48,117,0
00006866 69424449 
0000686a 76282074 
0000686e 746e6975 
00006872 30293233 
00006876 30303878 
0000687a 30303030 
0000687e 007530 
00006881 01        14512 	.data.b	1
00006882 03cc      14513 	.data.b	204,3
00006884 6e61436b  14514 	.data.b	107,67,97,110,82,120,70,105,102,111,73,110,116,85,110,109,97,115,107,32,40,40,118,117,105,110,116,51,50,41,48,120,70,70,70,70,70,70,48,48,117,41,0
00006888 69467852 
0000688c 6e496f66 
00006890 6d6e5574 
00006894 206b7361 
00006898 75762828 
0000689c 33746e69 
000068a0 78302932 
000068a4 46464646 
000068a8 30304646 
000068ac 002975 
000068af 01        14515 	.data.b	1
000068b0 03ce      14516 	.data.b	206,3
000068b2 6e61436b  14517 	.data.b	107,67,97,110,77,97,115,107,65,108,108,51,50,32,48,120,70,70,70,70,70,70,70,70,85,76,0
000068b6 6b73614d 
000068ba 336c6c41 
000068be 78302032 
000068c2 46464646 
000068c6 46464646 
000068ca 004c55 
000068cd 01        14518 	.data.b	1
000068ce 03d2      14519 	.data.b	210,3
000068d0 6e61436b  14520 	.data.b	107,67,97,110,82,97,109,67,104,101,99,107,77,97,115,107,77,67,82,32,48,120,50,52,69,66,117,0
000068d4 436d6152 
000068d8 6b636568 
000068dc 6b73614d 
000068e0 2052434d 
000068e4 34327830 
000068e8 00754245 
000068ec 01        14521 	.data.b	1
000068ed 03d7      14522 	.data.b	215,3
000068ef 6d78616d  14523 	.data.b	109,97,120,109,98,77,97,115,107,32,48,120,48,48,51,70,117,0
000068f3 73614d62 
000068f7 7830206b 
000068fb 46333030 
000068ff 0075 
00006901 01        14524 	.data.b	1

                                                                      Page 370
                                                              C:\Users\Fengyuan\AppData\Local\Temp\gh_0000sro1.s
00006902 03de      14525 	.data.b	222,3
00006904 6e61436b  14526 	.data.b	107,67,97,110,82,97,109,67,104,101,99,107,77,97,115,107,77,65,88,77,66,32,40,48,120,51,51,48,48,117,32,124,32,109,97,120,109,98,77,97,115,107,41,0
00006908 436d6152 
0000690c 6b636568 
00006910 6b73614d 
00006914 4d58414d 
00006918 30282042 
0000691c 30333378 
00006920 7c207530 
00006924 78616d20 
00006928 614d626d 
0000692c 00296b73 
00006930 01        14527 	.data.b	1
00006931 03e1      14528 	.data.b	225,3
00006933 6e61436b  14529 	.data.b	107,67,97,110,82,97,109,67,104,101,99,107,77,97,105,108,98,111,120,67,111,110,116,114,111,108,32,48,120,48,70,55,70,117,0
00006937 436d6152 
0000693b 6b636568 
0000693f 6c69614d 
00006943 43786f62 
00006947 72746e6f 
0000694b 30206c6f 
0000694f 37463078 
00006953 007546 
00006956 01        14530 	.data.b	1
00006957 048f      14531 	.data.b	143,4
00006959 426e6143  14532 	.data.b	67,97,110,66,115,119,97,112,51,50,40,120,41,32,40,118,117,105,110,116,51,50,41,32,40,40,32,40,40,118,117,105,110,116,51,50,41,40,40,120,41,32,38,32,48,120,70,70,48,48,48,48,48,48,85,76,41,41,32,62
0000695d 70617773 
00006961 78283233 
00006965 76282029 
00006969 746e6975 
0000696d 20293233 
00006971 28202828 
00006975 69757628 
00006979 3233746e 
0000697d 78282829 
00006981 20262029 
00006985 46467830 
00006989 30303030 
0000698d 4c553030 
00006991 3e202929 
00006995 3432203e  14533 	.data.b	62,32,50,52,41,32,124,32,40,32,40,40,118,117,105,110,116,51,50,41,40,40,120,41,32,38,32,48,120,48,48,70,70,48,48,48,48,85,76,41,41,32,62,62,32,56,41,32,124,32,40,32,40,40,118,117,105,110,116,51
00006999 207c2029 
0000699d 28282028 
000069a1 6e697576 
000069a5 29323374 
000069a9 29782828 
000069ad 30202620 
000069b1 46303078 
000069b5 30303046 
000069b9 294c5530 
000069bd 3e3e2029 
000069c1 20293820 
000069c5 2028207c 
000069c9 75762828 
000069cd 33746e69 
000069d1 28282932  14534 	.data.b	50,41,40,40,120,41,32,38,32,48,120,48,48,48,48,70,70,48,48,85,76,41,41,32,60,60,32,56,41,32,124,32,40,32,40,40,118,117,105,110,116,51,50,41,40,40,120,41,32,38,32,48,120,48,48,48,48,48,48,70
000069d5 26202978 
000069d9 30783020 
000069dd 46303030 
000069e1 55303046 
000069e5 2029294c 

                                                                      Page 371
                                                              C:\Users\Fengyuan\AppData\Local\Temp\gh_0000sro1.s
000069e9 38203c3c 
000069ed 207c2029 
000069f1 28282028 
000069f5 6e697576 
000069f9 29323374 
000069fd 29782828 
00006a01 30202620 
00006a05 30303078 
00006a09 46303030 
00006a0d 294c5546  14535 	.data.b	70,85,76,41,41,32,60,60,32,50,52,41,41,0
00006a11 3c3c2029 
00006a15 29343220 
00006a19 0029 
00006a1b 01        14536 	.data.b	1
00006a1c 04a1      14537 	.data.b	161,4
00006a1e 5f4e4143  14538 	.data.b	67,65,78,95,72,76,95,72,87,95,84,88,95,83,84,65,82,84,73,78,68,69,88,40,104,119,99,104,41,32,40,67,97,110,95,71,101,116,84,120,66,97,115,105,99,72,119,83,116,97,114,116,40,104,119,99,104,41,41,0
00006a22 485f4c48 
00006a26 58545f57 
00006a2a 4154535f 
00006a2e 4e495452 
00006a32 28584544 
00006a36 68637768 
00006a3a 43282029 
00006a3e 475f6e61 
00006a42 78547465 
00006a46 69736142 
00006a4a 53774863 
00006a4e 74726174 
00006a52 63776828 
00006a56 00292968 
00006a5a 01        14539 	.data.b	1
00006a5b 04a8      14540 	.data.b	168,4
00006a5d 5f4e4143  14541 	.data.b	67,65,78,95,72,76,95,72,87,95,82,88,95,66,65,83,73,67,95,83,84,65,82,84,73,78,68,69,88,40,104,119,99,104,41,32,40,67,97,110,95,71,101,116,82,120,66,97,115,105,99,72,119,83,116,97,114,116,40,104
00006a61 485f4c48 
00006a65 58525f57 
00006a69 5341425f 
00006a6d 535f4349 
00006a71 54524154 
00006a75 45444e49 
00006a79 77682858 
00006a7d 20296863 
00006a81 6e614328 
00006a85 7465475f 
00006a89 61427852 
00006a8d 48636973 
00006a91 61745377 
00006a95 68287472 
00006a99 29686377  14542 	.data.b	119,99,104,41,41,0
00006a9d 0029 
00006a9f 01        14543 	.data.b	1
00006aa0 04aa      14544 	.data.b	170,4
00006aa2 5f4e4143  14545 	.data.b	67,65,78,95,72,76,95,72,87,95,84,88,95,83,84,79,80,73,78,68,69,88,40,104,119,99,104,41,32,40,67,97,110,95,71,101,116,84,120,70,117,108,108,72,119,83,116,111,112,40,104,119,99,104,41,41,0
00006aa6 485f4c48 
00006aaa 58545f57 
00006aae 4f54535f 
00006ab2 444e4950 
00006ab6 68285845 
00006aba 29686377 
00006abe 61432820 
00006ac2 65475f6e 
00006ac6 46785474 

                                                                      Page 372
                                                              C:\Users\Fengyuan\AppData\Local\Temp\gh_0000sro1.s
00006aca 486c6c75 
00006ace 6f745377 
00006ad2 77682870 
00006ad6 29296863 
00006ada 00 
00006adb 01        14546 	.data.b	1
00006adc 0597      14547 	.data.b	151,5
00006ade 486e6143  14548 	.data.b	67,97,110,72,76,95,73,115,83,108,101,101,112,40,99,104,41,32,40,40,67,97,110,95,71,101,116,76,111,103,83,116,97,116,117,115,40,99,104,41,32,38,32,67,65,78,95,83,84,65,84,85,83,95,83,76,69,69,80,41
00006ae2 73495f4c 
00006ae6 65656c53 
00006aea 68632870 
00006aee 28282029 
00006af2 5f6e6143 
00006af6 4c746547 
00006afa 7453676f 
00006afe 73757461 
00006b02 29686328 
00006b06 43202620 
00006b0a 535f4e41 
00006b0e 55544154 
00006b12 4c535f53 
00006b16 29504545 
00006b1a 203d3d20  14549 	.data.b	32,61,61,32,67,65,78,95,83,84,65,84,85,83,95,83,76,69,69,80,41,0
00006b1e 5f4e4143 
00006b22 54415453 
00006b26 535f5355 
00006b2a 5045454c 
00006b2e 0029 
00006b30 01        14550 	.data.b	1
00006b31 0598      14551 	.data.b	152,5
00006b33 486e6143  14552 	.data.b	67,97,110,72,76,95,73,115,83,116,111,112,40,99,104,41,32,40,40,67,97,110,95,71,101,116,76,111,103,83,116,97,116,117,115,40,99,104,41,32,38,32,67,65,78,95,83,84,65,84,85,83,95,83,84,79,80,41,32,61
00006b37 73495f4c 
00006b3b 706f7453 
00006b3f 29686328 
00006b43 43282820 
00006b47 475f6e61 
00006b4b 6f4c7465 
00006b4f 61745367 
00006b53 28737574 
00006b57 20296863 
00006b5b 41432026 
00006b5f 54535f4e 
00006b63 53555441 
00006b67 4f54535f 
00006b6b 3d202950 
00006b6f 4143203d  14553 	.data.b	61,32,67,65,78,95,83,84,65,84,85,83,95,83,84,79,80,41,0
00006b73 54535f4e 
00006b77 53555441 
00006b7b 4f54535f 
00006b7f 002950 
00006b82 01        14554 	.data.b	1
00006b83 059a      14555 	.data.b	154,5
00006b85 486e6143  14556 	.data.b	67,97,110,72,76,95,73,115,67,111,110,116,114,111,108,108,101,114,73,110,105,116,40,99,104,41,32,40,40,67,97,110,95,71,101,116,76,111,103,83,116,97,116,117,115,40,99,104,41,32,38,32,67,65,78,95,83,84,65,84
00006b89 73495f4c 
00006b8d 746e6f43 
00006b91 6c6c6f72 
00006b95 6e497265 
00006b99 63287469 
00006b9d 28202968 
00006ba1 6e614328 
00006ba5 7465475f 

                                                                      Page 373
                                                              C:\Users\Fengyuan\AppData\Local\Temp\gh_0000sro1.s
00006ba9 53676f4c 
00006bad 75746174 
00006bb1 68632873 
00006bb5 20262029 
00006bb9 5f4e4143 
00006bbd 54415453 
00006bc1 495f5355  14557 	.data.b	85,83,95,73,78,73,84,41,32,61,61,32,67,65,78,95,83,84,65,84,85,83,95,73,78,73,84,41,0
00006bc5 2954494e 
00006bc9 203d3d20 
00006bcd 5f4e4143 
00006bd1 54415453 
00006bd5 495f5355 
00006bd9 2954494e 
00006bdd 00 
00006bde 01        14558 	.data.b	1
00006bdf 05b0      14559 	.data.b	176,5
00006be1 49554450  14560 	.data.b	80,68,85,73,78,70,79,95,80,84,82,32,80,100,117,73,110,102,111,0
00006be5 5f4f464e 
00006be9 20525450 
00006bed 49756450 
00006bf1 006f666e 
00006bf5 01        14561 	.data.b	1
00006bf6 05b6      14562 	.data.b	182,5
00006bf8 49554450  14563 	.data.b	80,68,85,73,78,70,79,95,73,68,32,80,68,85,73,78,70,79,95,80,84,82,45,62,105,100,0
00006bfc 5f4f464e 
00006c00 50204449 
00006c04 4e495544 
00006c08 505f4f46 
00006c0c 3e2d5254 
00006c10 006469 
00006c13 01        14564 	.data.b	1
00006c14 05b7      14565 	.data.b	183,5
00006c16 49554450  14566 	.data.b	80,68,85,73,78,70,79,95,68,76,67,32,80,68,85,73,78,70,79,95,80,84,82,45,62,108,101,110,103,116,104,0
00006c1a 5f4f464e 
00006c1e 20434c44 
00006c22 49554450 
00006c26 5f4f464e 
00006c2a 2d525450 
00006c2e 6e656c3e 
00006c32 00687467 
00006c36 01        14567 	.data.b	1
00006c37 05bb      14568 	.data.b	187,5
00006c39 5f4e4143  14569 	.data.b	67,65,78,95,65,80,80,76,73,67,65,84,73,79,78,95,68,69,77,95,82,69,80,79,82,84,69,82,82,79,82,32,83,84,68,95,79,70,70,0
00006c3d 4c505041 
00006c41 54414349 
00006c45 5f4e4f49 
00006c49 5f4d4544 
00006c4d 4f504552 
00006c51 52455452 
00006c55 20524f52 
00006c59 5f445453 
00006c5d 0046464f 
00006c61 01        14570 	.data.b	1
00006c62 05c5      14571 	.data.b	197,5
00006c64 5f4e4143  14572 	.data.b	67,65,78,95,68,69,67,79,68,69,95,68,76,73,40,100,108,99,41,32,40,100,108,99,41,0
00006c68 4f434544 
00006c6c 445f4544 
00006c70 6428494c 
00006c74 2029636c 
00006c78 636c6428 
00006c7c 0029 

                                                                      Page 374
                                                              C:\Users\Fengyuan\AppData\Local\Temp\gh_0000sro1.s
00006c7e 01        14573 	.data.b	1
00006c7f 05cf      14574 	.data.b	207,5
00006c81 5f4e4143  14575 	.data.b	67,65,78,95,77,65,88,95,68,65,84,65,76,69,78,95,79,66,74,40,73,110,100,101,120,41,32,56,117,0
00006c85 5f58414d 
00006c89 41544144 
00006c8d 5f4e454c 
00006c91 284a424f 
00006c95 65646e49 
00006c99 38202978 
00006c9d 0075 
00006c9f 01        14576 	.data.b	1
00006ca0 05d1      14577 	.data.b	209,5
00006ca2 486e6143  14578 	.data.b	67,97,110,72,76,95,73,115,70,100,77,101,115,115,97,103,101,40,105,100,41,32,40,40,40,105,100,41,32,38,32,40,67,97,110,95,73,100,84,121,112,101,41,67,65,78,95,73,68,95,70,68,95,77,65,83,75,41,32,61
00006ca6 73495f4c 
00006caa 654d6446 
00006cae 67617373 
00006cb2 64692865 
00006cb6 28282029 
00006cba 29646928 
00006cbe 28202620 
00006cc2 5f6e6143 
00006cc6 79546449 
00006cca 43296570 
00006cce 495f4e41 
00006cd2 44465f44 
00006cd6 53414d5f 
00006cda 3d20294b 
00006cde 4328203d  14579 	.data.b	61,32,40,67,97,110,95,73,100,84,121,112,101,41,67,65,78,95,73,68,95,70,68,95,77,65,83,75,41,0
00006ce2 495f6e61 
00006ce6 70795464 
00006cea 41432965 
00006cee 44495f4e 
00006cf2 5f44465f 
00006cf6 4b53414d 
00006cfa 0029 
00006cfc 01        14580 	.data.b	1
00006cfd 05e6      14581 	.data.b	230,5
00006cff 4c505041  14582 	.data.b	65,80,80,76,67,65,78,84,73,77,69,82,83,84,65,82,84,40,120,41,32,0
00006d03 544e4143 
00006d07 52454d49 
00006d0b 52415453 
00006d0f 29782854 
00006d13 0020 
00006d15 01        14583 	.data.b	1
00006d16 05e7      14584 	.data.b	231,5
00006d18 4c505041  14585 	.data.b	65,80,80,76,67,65,78,84,73,77,69,82,76,79,79,80,40,120,41,32,40,118,117,105,110,116,56,41,40,49,41,0
00006d1c 544e4143 
00006d20 52454d49 
00006d24 504f4f4c 
00006d28 20297828 
00006d2c 69757628 
00006d30 2938746e 
00006d34 00293128 
00006d38 01        14586 	.data.b	1
00006d39 05e8      14587 	.data.b	232,5
00006d3b 4c505041  14588 	.data.b	65,80,80,76,67,65,78,84,73,77,69,82,69,78,68,40,120,41,32,0
00006d3f 544e4143 
00006d43 52454d49 
00006d47 28444e45 
00006d4b 00202978 
00006d4f 01        14589 	.data.b	1

                                                                      Page 375
                                                              C:\Users\Fengyuan\AppData\Local\Temp\gh_0000sro1.s
00006d50 05fd      14590 	.data.b	253,5
00006d52 5f4e4143  14591 	.data.b	67,65,78,95,87,82,73,84,69,95,80,82,79,84,69,67,84,69,68,95,82,69,71,40,114,101,103,44,118,97,108,41,32,40,114,101,103,41,32,61,32,40,118,97,108,41,0
00006d56 54495257 
00006d5a 52505f45 
00006d5e 4345544f 
00006d62 5f444554 
00006d66 28474552 
00006d6a 2c676572 
00006d6e 296c6176 
00006d72 65722820 
00006d76 3d202967 
00006d7a 61762820 
00006d7e 00296c 
00006d81 01        14592 	.data.b	1
00006d82 05fe      14593 	.data.b	254,5
00006d84 5f4e4143  14594 	.data.b	67,65,78,95,87,82,73,84,69,95,80,82,79,84,69,67,84,69,68,95,82,69,71,95,82,69,83,69,84,40,114,101,103,44,98,105,116,115,41,32,40,114,101,103,41,32,38,61,32,40,118,117,105,110,116,49,54,41,40,126
00006d88 54495257 
00006d8c 52505f45 
00006d90 4345544f 
00006d94 5f444554 
00006d98 5f474552 
00006d9c 45534552 
00006da0 65722854 
00006da4 69622c67 
00006da8 20297374 
00006dac 67657228 
00006db0 3d262029 
00006db4 75762820 
00006db8 31746e69 
00006dbc 7e282936 
00006dc0 74696228  14595 	.data.b	40,98,105,116,115,41,41,0
00006dc4 00292973 
00006dc8 01        14596 	.data.b	1
00006dc9 05ff      14597 	.data.b	255,5
00006dcb 5f4e4143  14598 	.data.b	67,65,78,95,87,82,73,84,69,95,80,82,79,84,69,67,84,69,68,95,82,69,71,95,83,69,84,40,114,101,103,44,98,105,116,115,41,32,40,114,101,103,41,32,124,61,32,40,98,105,116,115,41,0
00006dcf 54495257 
00006dd3 52505f45 
00006dd7 4345544f 
00006ddb 5f444554 
00006ddf 5f474552 
00006de3 28544553 
00006de7 2c676572 
00006deb 73746962 
00006def 72282029 
00006df3 20296765 
00006df7 28203d7c 
00006dfb 73746962 
00006dff 0029 
00006e01 01        14599 	.data.b	1
00006e02 0680      14600 	.data.b	128,6
00006e04 5f4e4143  14601 	.data.b	67,65,78,95,82,69,65,68,95,80,82,79,84,69,67,84,69,68,95,82,69,71,40,114,101,103,41,32,40,114,101,103,41,0
00006e08 44414552 
00006e0c 4f52505f 
00006e10 54434554 
00006e14 525f4445 
00006e18 72284745 
00006e1c 20296765 
00006e20 67657228 
00006e24 0029 
00006e26 01        14602 	.data.b	1
00006e27 0681      14603 	.data.b	129,6

                                                                      Page 376
                                                              C:\Users\Fengyuan\AppData\Local\Temp\gh_0000sro1.s
00006e29 5f4e4143  14604 	.data.b	67,65,78,95,87,82,73,84,69,95,80,82,79,84,69,67,84,69,68,95,82,69,71,95,82,69,83,69,84,95,51,50,66,73,84,40,114,101,103,44,98,105,116,115,41,32,40,114,101,103,41,32,38,61,32,40,118,117,105,110
00006e2d 54495257 
00006e31 52505f45 
00006e35 4345544f 
00006e39 5f444554 
00006e3d 5f474552 
00006e41 45534552 
00006e45 32335f54 
00006e49 28544942 
00006e4d 2c676572 
00006e51 73746962 
00006e55 72282029 
00006e59 20296765 
00006e5d 28203d26 
00006e61 6e697576 
00006e65 29323374  14605 	.data.b	116,51,50,41,40,126,40,98,105,116,115,41,41,0
00006e69 62287e28 
00006e6d 29737469 
00006e71 0029 
00006e73 01        14606 	.data.b	1
00006e74 0682      14607 	.data.b	130,6
00006e76 5f4e4143  14608 	.data.b	67,65,78,95,87,82,73,84,69,95,80,82,79,84,69,67,84,69,68,95,82,69,71,95,83,69,84,95,51,50,66,73,84,40,114,101,103,44,98,105,116,115,41,32,40,114,101,103,41,32,124,61,32,40,98,105,116,115,41,0
00006e7a 54495257 
00006e7e 52505f45 
00006e82 4345544f 
00006e86 5f444554 
00006e8a 5f474552 
00006e8e 5f544553 
00006e92 49423233 
00006e96 65722854 
00006e9a 69622c67 
00006e9e 20297374 
00006ea2 67657228 
00006ea6 3d7c2029 
00006eaa 69622820 
00006eae 00297374 
00006eb2 01        14609 	.data.b	1
00006eb3 0683      14610 	.data.b	131,6
00006eb5 5f4e4143  14611 	.data.b	67,65,78,95,82,69,65,68,95,80,82,79,84,69,67,84,69,68,95,82,69,71,95,51,50,66,73,84,40,114,101,103,41,32,40,114,101,103,41,0
00006eb9 44414552 
00006ebd 4f52505f 
00006ec1 54434554 
00006ec5 525f4445 
00006ec9 335f4745 
00006ecd 54494232 
00006ed1 67657228 
00006ed5 72282029 
00006ed9 00296765 
00006edd 01        14612 	.data.b	1
00006ede 068a      14613 	.data.b	138,6
00006ee0 5f4e4143  14614 	.data.b	67,65,78,95,65,82,69,65,40,99,104,41,32,48,0
00006ee4 41455241 
00006ee8 29686328 
00006eec 003020 
00006eef 01        14615 	.data.b	1
00006ef0 0690      14616 	.data.b	144,6
00006ef2 5f4e4143  14617 	.data.b	67,65,78,95,68,73,83,65,66,76,69,95,82,88,84,88,95,73,78,84,69,82,82,85,80,84,95,48,84,79,51,49,40,99,97,110,70,108,97,103,80,116,114,41,32,40,99,97,110,70,108,97,103,80,116,114,41,45,62,102
00006ef6 41534944 
00006efa 5f454c42 
00006efe 58545852 
00006f02 544e495f 

                                                                      Page 377
                                                              C:\Users\Fengyuan\AppData\Local\Temp\gh_0000sro1.s
00006f06 55525245 
00006f0a 305f5450 
00006f0e 31334f54 
00006f12 6e616328 
00006f16 67616c46 
00006f1a 29727450 
00006f1e 61632820 
00006f22 616c466e 
00006f26 72745067 
00006f2a 663e2d29 
00006f2e 7367616c  14618 	.data.b	108,97,103,115,49,32,61,32,112,70,108,101,120,99,97,110,45,62,105,109,97,115,107,49,59,32,112,70,108,101,120,99,97,110,45,62,105,109,97,115,107,49,32,61,32,48,0
00006f32 203d2031 
00006f36 656c4670 
00006f3a 6e616378 
00006f3e 6d693e2d 
00006f42 316b7361 
00006f46 4670203b 
00006f4a 6378656c 
00006f4e 3e2d6e61 
00006f52 73616d69 
00006f56 3d20316b 
00006f5a 003020 
00006f5d 01        14619 	.data.b	1
00006f5e 0691      14620 	.data.b	145,6
00006f60 5f4e4143  14621 	.data.b	67,65,78,95,82,69,83,84,79,82,69,95,82,88,84,88,95,73,78,84,69,82,82,85,80,84,95,48,84,79,51,49,40,99,97,110,70,108,97,103,41,32,112,70,108,101,120,99,97,110,45,62,105,109,97,115,107,49,32,61
00006f64 54534552 
00006f68 5f45524f 
00006f6c 58545852 
00006f70 544e495f 
00006f74 55525245 
00006f78 305f5450 
00006f7c 31334f54 
00006f80 6e616328 
00006f84 67616c46 
00006f88 46702029 
00006f8c 6378656c 
00006f90 3e2d6e61 
00006f94 73616d69 
00006f98 3d20316b 
00006f9c 61632820  14622 	.data.b	32,40,99,97,110,70,108,97,103,41,46,102,108,97,103,115,49,0
00006fa0 616c466e 
00006fa4 662e2967 
00006fa8 7367616c 
00006fac 0031 
00006fae 01        14623 	.data.b	1
00006faf 0697      14624 	.data.b	151,6
00006fb1 5f4e4143  14625 	.data.b	67,65,78,95,68,73,83,65,66,76,69,95,82,88,84,88,95,73,78,84,69,82,82,85,80,84,95,51,50,84,79,54,51,40,99,97,110,70,108,97,103,80,116,114,41,32,0
00006fb5 41534944 
00006fb9 5f454c42 
00006fbd 58545852 
00006fc1 544e495f 
00006fc5 55525245 
00006fc9 335f5450 
00006fcd 364f5432 
00006fd1 61632833 
00006fd5 616c466e 
00006fd9 72745067 
00006fdd 002029 
00006fe0 01        14626 	.data.b	1
00006fe1 0698      14627 	.data.b	152,6
00006fe3 5f4e4143  14628 	.data.b	67,65,78,95,82,69,83,84,79,82,69,95,82,88,84,88,95,73,78,84,69,82,82,85,80,84,95,51,50,84,79,54,51,40,99,97,110,70,108,97,103,41,32,0

                                                                      Page 378
                                                              C:\Users\Fengyuan\AppData\Local\Temp\gh_0000sro1.s
00006fe7 54534552 
00006feb 5f45524f 
00006fef 58545852 
00006ff3 544e495f 
00006ff7 55525245 
00006ffb 335f5450 
00006fff 364f5432 
00007003 61632833 
00007007 616c466e 
0000700b 00202967 
0000700f 01        14629 	.data.b	1
00007010 069f      14630 	.data.b	159,6
00007012 5f4e4143  14631 	.data.b	67,65,78,95,68,73,83,65,66,76,69,95,82,88,84,88,95,73,78,84,69,82,82,85,80,84,95,54,52,84,79,57,53,40,99,97,110,70,108,97,103,80,116,114,41,32,0
00007016 41534944 
0000701a 5f454c42 
0000701e 58545852 
00007022 544e495f 
00007026 55525245 
0000702a 365f5450 
0000702e 394f5434 
00007032 61632835 
00007036 616c466e 
0000703a 72745067 
0000703e 002029 
00007041 01        14632 	.data.b	1
00007042 06a0      14633 	.data.b	160,6
00007044 5f4e4143  14634 	.data.b	67,65,78,95,82,69,83,84,79,82,69,95,82,88,84,88,95,73,78,84,69,82,82,85,80,84,95,54,52,84,79,57,53,40,99,97,110,70,108,97,103,41,32,0
00007048 54534552 
0000704c 5f45524f 
00007050 58545852 
00007054 544e495f 
00007058 55525245 
0000705c 365f5450 
00007060 394f5434 
00007064 61632835 
00007068 616c466e 
0000706c 00202967 
00007070 01        14635 	.data.b	1
00007071 06a7      14636 	.data.b	167,6
00007073 5f4e4143  14637 	.data.b	67,65,78,95,68,73,83,65,66,76,69,95,82,88,84,88,95,73,78,84,69,82,82,85,80,84,95,57,54,84,79,49,50,55,40,99,97,110,70,108,97,103,80,116,114,41,32,0
00007077 41534944 
0000707b 5f454c42 
0000707f 58545852 
00007083 544e495f 
00007087 55525245 
0000708b 395f5450 
0000708f 314f5436 
00007093 63283732 
00007097 6c466e61 
0000709b 74506761 
0000709f 00202972 
000070a3 01        14638 	.data.b	1
000070a4 06a8      14639 	.data.b	168,6
000070a6 5f4e4143  14640 	.data.b	67,65,78,95,82,69,83,84,79,82,69,95,82,88,84,88,95,73,78,84,69,82,82,85,80,84,95,57,54,84,79,49,50,55,40,99,97,110,70,108,97,103,41,32,0
000070aa 54534552 
000070ae 5f45524f 
000070b2 58545852 
000070b6 544e495f 
000070ba 55525245 
000070be 395f5450 
000070c2 314f5436 

                                                                      Page 379
                                                              C:\Users\Fengyuan\AppData\Local\Temp\gh_0000sro1.s
000070c6 63283732 
000070ca 6c466e61 
000070ce 20296761 
000070d2 00 
000070d3 01        14641 	.data.b	1
000070d4 06b6      14642 	.data.b	182,6
000070d6 5f4e4143  14643 	.data.b	67,65,78,95,68,73,83,65,66,76,69,95,66,85,83,79,70,70,95,73,78,84,69,82,82,85,80,84,40,99,97,110,70,108,97,103,80,116,114,41,32,40,99,97,110,70,108,97,103,80,116,114,41,45,62,99,97,110,99,116
000070da 41534944 
000070de 5f454c42 
000070e2 4f535542 
000070e6 495f4646 
000070ea 5245544e 
000070ee 54505552 
000070f2 6e616328 
000070f6 67616c46 
000070fa 29727450 
000070fe 61632820 
00007102 616c466e 
00007106 72745067 
0000710a 633e2d29 
0000710e 74636e61 
00007112 20316c72  14644 	.data.b	114,108,49,32,61,32,112,70,108,101,120,99,97,110,45,62,99,111,110,116,114,111,108,49,59,32,112,70,108,101,120,99,97,110,45,62,99,111,110,116,114,111,108,49,32,38,61,32,107,78,111,116,70,108,101,120,67,65,78,69
00007116 4670203d 
0000711a 6378656c 
0000711e 3e2d6e61 
00007122 746e6f63 
00007126 316c6f72 
0000712a 4670203b 
0000712e 6378656c 
00007132 3e2d6e61 
00007136 746e6f63 
0000713a 316c6f72 
0000713e 203d2620 
00007142 746f4e6b 
00007146 78656c46 
0000714a 454e4143 
0000714e 6f427272  14645 	.data.b	114,114,66,111,102,102,0
00007152 006666 
00007155 01        14646 	.data.b	1
00007156 06b7      14647 	.data.b	183,6
00007158 5f4e4143  14648 	.data.b	67,65,78,95,82,69,83,84,79,82,69,95,66,85,83,79,70,70,95,73,78,84,69,82,82,85,80,84,40,99,97,110,70,108,97,103,41,32,112,70,108,101,120,99,97,110,45,62,99,111,110,116,114,111,108,49,32,124,61,32
0000715c 54534552 
00007160 5f45524f 
00007164 4f535542 
00007168 495f4646 
0000716c 5245544e 
00007170 54505552 
00007174 6e616328 
00007178 67616c46 
0000717c 46702029 
00007180 6378656c 
00007184 3e2d6e61 
00007188 746e6f63 
0000718c 316c6f72 
00007190 203d7c20 
00007194 69757628  14649 	.data.b	40,118,117,105,110,116,51,50,41,40,40,99,97,110,70,108,97,103,41,46,99,97,110,99,116,114,108,49,32,38,32,40,118,117,105,110,116,51,50,41,40,126,107,78,111,116,70,108,101,120,67,65,78,69,114,114,66,111,102,102
00007198 3233746e 
0000719c 63282829 
000071a0 6c466e61 
000071a4 2e296761 
000071a8 636e6163 

                                                                      Page 380
                                                              C:\Users\Fengyuan\AppData\Local\Temp\gh_0000sro1.s
000071ac 316c7274 
000071b0 28202620 
000071b4 6e697576 
000071b8 29323374 
000071bc 4e6b7e28 
000071c0 6c46746f 
000071c4 41437865 
000071c8 7272454e 
000071cc 66666f42 
000071d0 002929    14650 	.data.b	41,41,0
000071d3 01        14651 	.data.b	1
000071d4 06c1      14652 	.data.b	193,6
000071d6 5f4e4143  14653 	.data.b	67,65,78,95,68,73,83,65,66,76,69,95,87,65,75,69,85,80,95,73,78,84,69,82,82,85,80,84,40,99,97,110,70,108,97,103,80,116,114,41,32,0
000071da 41534944 
000071de 5f454c42 
000071e2 454b4157 
000071e6 495f5055 
000071ea 5245544e 
000071ee 54505552 
000071f2 6e616328 
000071f6 67616c46 
000071fa 29727450 
000071fe 0020 
00007200 01        14654 	.data.b	1
00007201 06c2      14655 	.data.b	194,6
00007203 5f4e4143  14656 	.data.b	67,65,78,95,82,69,83,84,79,82,69,95,87,65,75,69,85,80,95,73,78,84,69,82,82,85,80,84,40,99,97,110,70,108,97,103,41,32,0
00007207 54534552 
0000720b 5f45524f 
0000720f 454b4157 
00007213 495f5055 
00007217 5245544e 
0000721b 54505552 
0000721f 6e616328 
00007223 67616c46 
00007227 002029 
0000722a 01        14657 	.data.b	1
0000722b 06d3      14658 	.data.b	211,6
0000722d 4c6e6143  14659 	.data.b	67,97,110,76,76,95,72,119,73,115,66,117,115,79,102,102,40,67,65,78,95,72,87,95,67,72,65,78,78,69,76,95,67,65,78,80,65,82,65,95,79,78,76,89,41,32,40,40,40,112,70,108,101,120,67,65,78,40,99,97
00007231 77485f4c 
00007235 75427349 
00007239 66664f73 
0000723d 4e414328 
00007241 5f57485f 
00007245 4e414843 
00007249 5f4c454e 
0000724d 504e4143 
00007251 5f415241 
00007255 594c4e4f 
00007259 28282029 
0000725d 6c467028 
00007261 41437865 
00007265 6163284e 
00007269 4377486e  14660 	.data.b	110,72,119,67,104,97,110,110,101,108,41,41,45,62,101,115,116,97,116,32,38,32,107,70,108,101,120,67,65,78,95,70,67,83,95,66,79,70,70,41,32,33,61,32,48,41,0
0000726d 6e6e6168 
00007271 29296c65 
00007275 73653e2d 
00007279 20746174 
0000727d 466b2026 
00007281 4378656c 
00007285 465f4e41 
00007289 425f5343 

                                                                      Page 381
                                                              C:\Users\Fengyuan\AppData\Local\Temp\gh_0000sro1.s
0000728d 2946464f 
00007291 203d2120 
00007295 002930 
00007298 03        14661 	.data.b	3
00007299 06e0      14662 	.data.b	224,6
0000729b 1c        14663 	.data.b	28
0000729c 04        14664 	.data.b	4
0000729d 01        14665 	.data.b	1
0000729e 06ff      14666 	.data.b	255,6
000072a0 426e6143  14667 	.data.b	67,97,110,66,105,116,77,97,115,107,40,120,41,32,40,40,118,117,105,110,116,51,50,41,40,40,118,117,105,110,116,51,50,41,48,120,48,49,32,60,60,32,40,40,120,41,32,38,32,40,48,120,49,70,41,41,41,41,0
000072a4 614d7469 
000072a8 78286b73 
000072ac 28282029 
000072b0 6e697576 
000072b4 29323374 
000072b8 75762828 
000072bc 33746e69 
000072c0 78302932 
000072c4 3c203130 
000072c8 2828203c 
000072cc 26202978 
000072d0 78302820 
000072d4 29294631 
000072d8 002929 
000072db 03        14668 	.data.b	3
000072dc 0794      14669 	.data.b	148,7
000072de 1c        14670 	.data.b	28
000072df 04        14671 	.data.b	4
000072e0 03        14672 	.data.b	3
000072e1 079e      14673 	.data.b	158,7
000072e3 1c        14674 	.data.b	28
000072e4 04        14675 	.data.b	4
000072e5 03        14676 	.data.b	3
000072e6 07c8      14677 	.data.b	200,7
000072e8 1c        14678 	.data.b	28
000072e9 04        14679 	.data.b	4
000072ea 03        14680 	.data.b	3
000072eb 07cb      14681 	.data.b	203,7
000072ed 1c        14682 	.data.b	28
000072ee 04        14683 	.data.b	4
000072ef 03        14684 	.data.b	3
000072f0 07cf      14685 	.data.b	207,7
000072f2 1c        14686 	.data.b	28
000072f3 04        14687 	.data.b	4
000072f4 03        14688 	.data.b	3
000072f5 07dc      14689 	.data.b	220,7
000072f7 1c        14690 	.data.b	28
000072f8 04        14691 	.data.b	4
000072f9 03        14692 	.data.b	3
000072fa 07e5      14693 	.data.b	229,7
000072fc 1c        14694 	.data.b	28
000072fd 04        14695 	.data.b	4
000072fe 03        14696 	.data.b	3
000072ff 08dc      14697 	.data.b	220,8
00007301 1c        14698 	.data.b	28
00007302 04        14699 	.data.b	4
00007303 01        14700 	.data.b	1
00007304 08e7      14701 	.data.b	231,8
00007306 486e6143  14702 	.data.b	67,97,110,72,76,95,65,112,112,108,67,97,110,84,105,109,101,114,83,116,97,114,116,40,116,105,109,101,114,73,100,120,41,32,65,112,112,108,67,97,110,84,105,109,101,114,83,116,97,114,116,40,32,116,105,109,101,114,73,100
0000730a 70415f4c 
0000730e 61436c70 

                                                                      Page 382
                                                              C:\Users\Fengyuan\AppData\Local\Temp\gh_0000sro1.s
00007312 6d69546e 
00007316 74537265 
0000731a 28747261 
0000731e 656d6974 
00007322 78644972 
00007326 70412029 
0000732a 61436c70 
0000732e 6d69546e 
00007332 74537265 
00007336 28747261 
0000733a 6d697420 
0000733e 64497265 
00007342 3b292078  14703 	.data.b	120,32,41,59,0
00007346 00 
00007347 01        14704 	.data.b	1
00007348 08e8      14705 	.data.b	232,8
0000734a 486e6143  14706 	.data.b	67,97,110,72,76,95,65,112,112,108,67,97,110,84,105,109,101,114,69,110,100,40,116,105,109,101,114,73,100,120,41,32,65,112,112,108,67,97,110,84,105,109,101,114,69,110,100,40,32,116,105,109,101,114,73,100,120,32,41,59
0000734e 70415f4c 
00007352 61436c70 
00007356 6d69546e 
0000735a 6e457265 
0000735e 69742864 
00007362 4972656d 
00007366 20297864 
0000736a 6c707041 
0000736e 546e6143 
00007372 72656d69 
00007376 28646e45 
0000737a 6d697420 
0000737e 64497265 
00007382 3b292078 
00007386 00        14707 	.data.b	0
00007387 01        14708 	.data.b	1
00007388 08ed      14709 	.data.b	237,8
0000738a 486e6143  14710 	.data.b	67,97,110,72,76,95,65,112,112,108,67,97,110,84,105,109,101,114,76,111,111,112,40,116,105,109,101,114,73,100,120,41,32,105,102,32,40,65,112,112,108,67,97,110,84,105,109,101,114,76,111,111,112,40,32,67,65,78,95,67
0000738e 70415f4c 
00007392 61436c70 
00007396 6d69546e 
0000739a 6f4c7265 
0000739e 7428706f 
000073a2 72656d69 
000073a6 29786449 
000073aa 20666920 
000073ae 70704128 
000073b2 6e61436c 
000073b6 656d6954 
000073ba 6f6f4c72 
000073be 43202870 
000073c2 435f4e41 
000073c6 4e4e4148  14711 	.data.b	72,65,78,78,69,76,95,67,65,78,80,65,82,65,95,70,73,82,83,84,32,40,116,105,109,101,114,73,100,120,41,32,41,32,33,61,32,67,65,78,95,79,75,41,32,123,32,98,114,101,97,107,59,32,125,0
000073ca 435f4c45 
000073ce 41504e41 
000073d2 465f4152 
000073d6 54535249 
000073da 69742820 
000073de 4972656d 
000073e2 20297864 
000073e6 3d212029 
000073ea 4e414320 
000073ee 294b4f5f 
000073f2 62207b20 

                                                                      Page 383
                                                              C:\Users\Fengyuan\AppData\Local\Temp\gh_0000sro1.s
000073f6 6b616572 
000073fa 007d203b 
000073fe 01        14712 	.data.b	1
000073ff 08fb      14713 	.data.b	251,8
00007401 6c707041  14714 	.data.b	65,112,112,108,67,97,110,84,105,109,101,114,83,116,97,114,116,40,115,111,117,114,99,101,41,32,40,40,118,111,105,100,41,71,101,116,67,111,117,110,116,101,114,86,97,108,117,101,40,32,67,65,78,95,79,83,95,67,79,85
00007405 546e6143 
00007409 72656d69 
0000740d 72617453 
00007411 6f732874 
00007415 65637275 
00007419 28282029 
0000741d 64696f76 
00007421 74654729 
00007425 6e756f43 
00007429 56726574 
0000742d 65756c61 
00007431 41432028 
00007435 534f5f4e 
00007439 554f435f 
0000743d 5245544e  14715 	.data.b	78,84,69,82,95,73,68,44,32,38,67,97,110,95,71,101,116,67,97,110,76,111,111,112,84,105,109,101,111,117,116,40,48,44,40,115,111,117,114,99,101,41,41,41,41,0
00007441 2c44495f 
00007445 61432620 
00007449 65475f6e 
0000744d 6e614374 
00007451 706f6f4c 
00007455 656d6954 
00007459 2874756f 
0000745d 73282c30 
00007461 6372756f 
00007465 29292965 
00007469 0029 
0000746b 01        14716 	.data.b	1
0000746c 0a96      14717 	.data.b	150,10
0000746e 6c707041  14718 	.data.b	65,112,112,108,67,97,110,84,105,109,101,114,69,110,100,32,65,112,112,108,67,97,110,84,105,109,101,114,83,116,97,114,116,0
00007472 546e6143 
00007476 72656d69 
0000747a 20646e45 
0000747e 6c707041 
00007482 546e6143 
00007486 72656d69 
0000748a 72617453 
0000748e 0074 
00007490 03        14719 	.data.b	3
00007491 2f9e      14720 	.data.b	158,47
00007493 1c        14721 	.data.b	28
00007494 04        14722 	.data.b	4
00007495 03        14723 	.data.b	3
00007496 2fa2      14724 	.data.b	162,47
00007498 1c        14725 	.data.b	28
00007499 04        14726 	.data.b	4
0000749a 03        14727 	.data.b	3
0000749b 3284      14728 	.data.b	132,50
0000749d 1c        14729 	.data.b	28
0000749e 04        14730 	.data.b	4
0000749f 03        14731 	.data.b	3
000074a0 3288      14732 	.data.b	136,50
000074a2 1c        14733 	.data.b	28
000074a3 04        14734 	.data.b	4
000074a4 03        14735 	.data.b	3
000074a5 3880      14736 	.data.b	128,56
000074a7 1c        14737 	.data.b	28

                                                                      Page 384
                                                              C:\Users\Fengyuan\AppData\Local\Temp\gh_0000sro1.s
000074a8 04        14738 	.data.b	4
000074a9 03        14739 	.data.b	3
000074aa 3884      14740 	.data.b	132,56
000074ac 1c        14741 	.data.b	28
000074ad 04        14742 	.data.b	4
000074ae 03        14743 	.data.b	3
000074af 4ee9      14744 	.data.b	233,78
000074b1 1c        14745 	.data.b	28
000074b2 04        14746 	.data.b	4
000074b3 04        14747 	.data.b	4
000074b4 00        14748 	.data.b	0
                   14749 	.section	.debug_abbrev
000001bd 00        14750 	.data.b	0
                   14751 	.section	.debug_info
                   14752 .Ldw_end:
