                                                                      Page 1
                                                              C:\Users\Fengyuan\AppData\Local\Temp\gh_0000kos1.s
Command Line: C:\ghs\comp_201714\asarm.exe -elf -b0 -I../../../bsw/../thirdparty/mcal_s32k/supply/s32k14x_mcal4_2_rtm_hf3_1_0_1/eclipse/plugins/base_ts_t40d2m10i1r0/include -I../../../bsw/../thirdparty/mcal_s32k/supply/s32k14x_mcal4_2_rtm_hf3_1_0_1/eclipse/plugins/dio_ts_t40d2m10i1r0/include -I../../../bsw/../thirdparty/mcal_s32k/supply/s32k14x_mcal4_2_rtm_hf3_1_0_1/eclipse/plugins/mcu_ts_t40d2m10i1r0/include -I../../../bsw/../thirdparty/mcal_s32k/supply/s32k14x_mcal4_2_rtm_hf3_1_0_1/eclipse/plugins/port_ts_t40d2m10i1r0/include -I../../../bsw/../thirdparty/mcal_s32k/supply/s32k14x_mcal4_2_rtm_hf3_1_0_1/eclipse/plugins/spi_ts_t40d2m10i1r0/include -I../../../bsw/_common -I../../../bsw/bswm -I../../../bsw/can -I../../../bsw/canif -I../../../bsw/cansm -I../../../bsw/cantp -I../../../bsw/com -I../../../bsw/comm -I../../../bsw/dcm -I../../../bsw/dem -I../../../bsw/det -I../../../bsw/ecum -I../../../bsw/gendata -I../../../bsw/iohwab -I../../../bsw/mcal_s32k -I../../../bsw/os -I../../../bsw/pdur -I../../../bsw/vstdlib -I./shared/zbrs_armcommon -I./shared/zbrs_asrembeddedruntimesystemcfg5 -I./shared/zbrs_s32arm -Ic:/ghs/comp_201714/ansi -Ic:/ghs/comp_201714/include/arm -Igendata -Igendata/components -Igendata/include -Iinclude -IC:\ghs\comp_201714\lib\thumb2 -cpu=cortexm4 -fpu=soft -patch_dbo=C:\Vector\CBD1800257_D01_S32K1xx\Applications\S32K144_Start_new\Appl\obj\CanTp.dbo -source=CanTp.c -o obj\gh_0000kos1.o -list=lst/CanTp.lst C:\Users\Fengyuan\AppData\Local\Temp\gh_0000kos1.s 
Original File: C:\Users\Fengyuan\AppData\Local\Temp\gh_0000kos1.s
Source File: CanTp.c
Directory: C:\Vector\CBD1800257_D01_S32K1xx\Applications\S32K144_Start_new\Appl
Host OS: Windows
EASE: Copyright (C) 1983-2016 Green Hills Software.  All Rights Reserved.
Release: Compiler v2017.1.4
Build Directory: [Directory] COMP-VAL-WIN47:l:/compiler/release-branch-2017-1-comp/build/v2017.1-2017-04-09/win32-comp-ecom
Revision: [VCInfo] http://toolsvc/branches/release-branch-2017-1-comp/src@589570 (built by auto-compiler)
Revision Date: Mon Apr 10 10:52:57 2017

Release Date: Mon Apr 10 08:00:05 2017

                       1 ;Driver Command: ccarm -DBRS_DERIVATIVE_S32K144 -DBRS_OSC_CLK=8
                       2 ;		-DBRS_TIMEBASE_CLOCK=96 -DBRS_OS_USECASE_OSGEN7 -DBRS_EVA_BOARD_
                       3 ;		-DBRS_PROGRAM_CODE_LOCATION_FLASH
                       4 ;		-DBRS_VECTOR_TABLE_LOCATION_FLASH -DBRS_CPU_CORE_CORTEX_M4
                       5 ;		-DBRS_STACK_SIZE=0xC800 -DBRS_PLATFORM_ARM -DBRS_COMP_GHS
                       6 ;		-DBRS_INSTRUCTION_SET_ARM -DBRS_OPTIONBYTES_ADR=1
                       7 ;		-DBRS_RAM_ETH_SIZE=0 -DBRS_RAM_ETH_MAPPING=0
                       8 ;		-DBRS_RAM_SIZE=0x0000F000 -DBRS_RAM_MAPPING=0x1FFF8000 -c
                       9 ;		-object_dir=obj -list=lst/CanTp.lst --diag_suppress=1
                      10 ;		-cpu=cortexm4 -noobj --long_long -g -dual_debug -farcalls -dwarf2
                      11 ;		-no_misalign_pack -nostartfiles -act_like=2015.1
                      12 ;		-pragma_asm_inline -thumb -thumb_lib -Osize -object_dir= -e
                      13 ;		Startup_Handler
                      14 ;		-I../../../bsw/../thirdparty/mcal_s32k/supply/s32k14x_mcal4_2_rtm_hf3_1_0_1/eclipse/plugins/base_ts_t40d2m10i1r0/include
                      15 ;		-I../../../bsw/../thirdparty/mcal_s32k/supply/s32k14x_mcal4_2_rtm_hf3_1_0_1/eclipse/plugins/dio_ts_t40d2m10i1r0/include
                      16 ;		-I../../../bsw/../thirdparty/mcal_s32k/supply/s32k14x_mcal4_2_rtm_hf3_1_0_1/eclipse/plugins/mcu_ts_t40d2m10i1r0/include
                      17 ;		-I../../../bsw/../thirdparty/mcal_s32k/supply/s32k14x_mcal4_2_rtm_hf3_1_0_1/eclipse/plugins/port_ts_t40d2m10i1r0/include
                      18 ;		-I../../../bsw/../thirdparty/mcal_s32k/supply/s32k14x_mcal4_2_rtm_hf3_1_0_1/eclipse/plugins/spi_ts_t40d2m10i1r0/include
                      19 ;		-I../../../bsw/_common -I../../../bsw/bswm -I../../../bsw/can
                      20 ;		-I../../../bsw/canif -I../../../bsw/cansm -I../../../bsw/cantp
                      21 ;		-I../../../bsw/com -I../../../bsw/comm -I../../../bsw/dcm
                      22 ;		-I../../../bsw/dem -I../../../bsw/det -I../../../bsw/ecum
                      23 ;		-I../../../bsw/gendata -I../../../bsw/iohwab
                      24 ;		-I../../../bsw/mcal_s32k -I../../../bsw/os -I../../../bsw/pdur
                      25 ;		-I../../../bsw/vstdlib -I./shared/zbrs_armcommon
                      26 ;		-I./shared/zbrs_asrembeddedruntimesystemcfg5
                      27 ;		-I./shared/zbrs_s32arm -Ic:/ghs/comp_201714/ansi
                      28 ;		-Ic:/ghs/comp_201714/include/arm -Igendata -Igendata/components
                      29 ;		-Igendata/include -Iinclude ../../../BSW/CanTp/CanTp.c
                      30 ;Source File:   ../../../BSW/CanTp/CanTp.c
                      31 ;Directory:     
                      32 ;		C:\Vector\CBD1800257_D01_S32K1xx\Applications\S32K144_Start_new\Appl
                      33 ;Compile Date:  Fri Jun 18 09:57:02 2021
                      34 ;Host OS:       Win32
                      35 ;Version:       C-ARM 2017.1.4 RELEASE VERSION
                      36 ;Release:       Compiler v2017.1.4
                      37 ;Revision Date: Tue Apr 11 01:37:22 2017
                      38 ;Release Date:  Mon Apr 10 08:00:05 2017
                      39 ; ecom  -g -w -OMS
                      40 	.text
                      41 ..bof.C.3A.5CVector.5CCBD1800257_D01_S32K1xx.5CApplications.5CS32K144_Start_new.5CAppl.5Cobj.5CCanTp...43.3A.5CVector.5CCBD1800257_D01_S32K1xx.5CApplications.5CS32K144_Start_new.5CAppl..60CBFD6E..0::
                      42 	.align	2
                      43 ..gh.f.a.1.e.0:
                      44 	.endo	..gh.f.a.1.e.0
                      45 	.thumb2
                      46 	.global	CanTp_CanIfRxIndication..C.3A.5CVector.5CCBD1800257_D01_S32K1xx.5CApplications.5CS32K144_Start_new.5CAppl.5Cobj.5CCanTp.
                      47 CanTp_CanIfRxIndication..C.3A.5CVector.5CCBD1800257_D01_S32K1xx.5CApplications.5CS32K144_Start_new.5CAppl.5Cobj.5CCanTp.:
                      48 CanTp_CanIfRxIndication:
00000000 b5f0         49 	push	{r4-r7,lr}
00000002 b081         50 	sub	sp,4

                                                                      Page 2
                                                              C:\Users\Fengyuan\AppData\Local\Temp\gh_0000kos1.s
00000004 4607         51 	cpy	r7,r0
00000006 460e         52 	cpy	r6,r1
00000008 4615         53 	cpy	r5,r2
                      54 .LDW01:
0000000a 8891         55 	ldrh	r1,[r2,4]
0000000c 7912         56 	ldrb	r2,[r2,4]
0000000e 2000         57 	movs	r0,0
00000010 2e30         58 	cmp	r6,48
00000012 f0008131*    59 	beq	.L932
                      60 .LDW11:
                      61 
                      62 ;line2894
                      63 ..lin.f47d2a15..82260a87.0_1::
                      64 .LDWlin1:
00000016 2a08         65 	cmp	r2,8
00000018 d800*        66 	bhi	.L827
0000001a 2008         67 	movs	r0,8
                      68 .L827:
                      69 ;line2895
                      70 ..lin.f47d2a15..82260a87.0_2::
                      71 .LDWlin2:
0000001c 4281         72 	cmp	r1,r0
0000001e f0408130*    73 	bne	.L939
                      74 .LDW21:
                      75 
                      76 ;line2903
                      77 ..lin.f47d2a15..82260a87.0_3::
                      78 .LDWlin3:
00000022 48c1*        79 	ldr	r0,.L6749
00000024 4780         80 	blx	r0
00000026 49c1*        81 	ldr	r1,.L6750
00000028 201c         82 	movs	r0,28
0000002a fb071400     83 	mla	r4,r7,r0,r1
0000002e 7860         84 	ldrb	r0,[r4,1]
00000030 b100*        85 	cbz	r0,.L845
00000032 b944*        86 	cbnz	r4,.L856
                      87 .L845:
00000034 b116*        88 	cbz	r6,.L851
00000036 2e10         89 	cmp	r6,16
00000038 f0408172*    90 	bne	.L947
                      91 .L851:
                      92 ;line2922
                      93 ..lin.f47d2a15..82260a87.0_4::
                      94 .LDWlin4:
0000003c 7860         95 	ldrb	r0,[r4,1]
0000003e 2800         96 	cmp	r0,0
00000040 f040816e*    97 	bne	.L947
00000044 72a7         98 	strb	r7,[r4,10]
                      99 .L856:
                     100 ;line2931
                     101 ..lin.f47d2a15..82260a87.0_5::
                     102 .LDWlin5:
00000046 b12e*       103 	cbz	r6,.L865
00000048 2e10        104 	cmp	r6,16
0000004a d044*       105 	beq	.L884
0000004c 2e20        106 	cmp	r6,32
0000004e f00080bf*   107 	beq	.L906
00000052 e165*       108 	b	.L947
                     109 .L865:
                     110 ;line2934
                     111 ..lin.f47d2a15..82260a87.0_6::

                                                                      Page 3
                                                              C:\Users\Fengyuan\AppData\Local\Temp\gh_0000kos1.s
                     112 .LDWlin6:
00000054 6828        113 	ldr	r0,[r5]
00000056 7800        114 	ldrb	r0,[r0]
00000058 0707        115 	lsls	r7,r0,28
0000005a 0f3f        116 	lsrs	r7,r7,28
0000005c f00080a9*   117 	beq	.L1182
00000060 2f07        118 	cmp	r7,7
00000062 f20080a6*   119 	bhi	.L1182
00000066 88a9        120 	ldrh	r1,[r5,4]
00000068 1c78        121 	adds	r0,r7,1
0000006a 4281        122 	cmp	r1,r0
0000006c f0c080a1*   123 	blo	.L1182
00000070 7860        124 	ldrb	r0,[r4,1]
00000072 b128*       125 	cbz	r0,.L870
00000074 4620        126 	cpy	r0,r4
00000076 4633        127 	cpy	r3,r6
00000078 4ead*       128 	ldr	r6,.L6751
0000007a 22c6        129 	movs	r2,198
0000007c 2101        130 	movs	r1,1
0000007e 47b0        131 	blx	r6
                     132 .L870:
00000080 463a        133 	cpy	r2,r7
00000082 2000        134 	movs	r0,0
00000084 7020        135 	strb	r0,[r4]
00000086 80a7        136 	strh	r7,[r4,4]
00000088 4638        137 	cpy	r0,r7
0000008a 6829        138 	ldr	r1,[r5]
0000008c 75e7        139 	strb	r7,[r4,23]
0000008e 3101        140 	adds	r1,1
00000090 e004*       141 	b	.L873
                     142 .L872:
00000092 3801        143 	subs	r0,1
00000094 b280        144 	uxth	r0,r0
00000096 1903        145 	adds	r3,r0,r4
00000098 5c0d        146 	ldrb	r5,[r1,r0]
0000009a 741d        147 	strb	r5,[r3,16]
                     148 .L873:
0000009c 2800        149 	cmp	r0,0
0000009e d1f8*       150 	bne	.L872
000000a0 8120        151 	strh	r0,[r4,8]
000000a2 7aa0        152 	ldrb	r0,[r4,10]
000000a4 49a3*       153 	ldr	r1,.L6752
000000a6 f1140308    154 	adds	r3,r4,8
000000aa eb1000c0    155 	adds	r0,r0,r0 lsl 3
000000ae 1840        156 	adds	r0,r0,r1
000000b0 4da1*       157 	ldr	r5,.L6753
000000b2 7840        158 	ldrb	r0,[r0,1]
000000b4 2100        159 	movs	r1,0
000000b6 47a8        160 	blx	r5
000000b8 73a0        161 	strb	r0,[r4,14]
000000ba 7ba0        162 	ldrb	r0,[r4,14]
000000bc b108*       163 	cbz	r0,.L876
000000be 2802        164 	cmp	r0,2
000000c0 d15f*       165 	bne	.L900
                     166 .L876:
000000c2 2015        167 	movs	r0,21
000000c4 8060        168 	strh	r0,[r4,2]
000000c6 2041        169 	movs	r0,65
000000c8 7060        170 	strb	r0,[r4,1]
000000ca 2001        171 	movs	r0,1
000000cc 76a0        172 	strb	r0,[r4,26]

                                                                      Page 4
                                                              C:\Users\Fengyuan\AppData\Local\Temp\gh_0000kos1.s
                     173 .L6659:
                     174 
                     175 .L6660:
                     176 
000000ce 499b*       177 	ldr	r1,.L6754
000000d0 4620        178 	cpy	r0,r4
                     179 .L6665:
                     180 
                     181 .L6666:
                     182 
000000d2 4788        183 	blx	r1
000000d4 e124*       184 	b	.L947
                     185 .L884:
                     186 ;line2938
                     187 ..lin.f47d2a15..82260a87.0_7::
                     188 .LDWlin7:
000000d6 7aa0        189 	ldrb	r0,[r4,10]
000000d8 4e96*       190 	ldr	r6,.L6752
000000da eb1000c0    191 	adds	r0,r0,r0 lsl 3
000000de 1980        192 	adds	r0,r0,r6
000000e0 7980        193 	ldrb	r0,[r0,6]
000000e2 2801        194 	cmp	r0,1
000000e4 d101*       195 	bne	.L886
000000e6 2290        196 	movs	r2,144
000000e8 e06e*       197 	b	.L6658
                     198 .L886:
000000ea 6829        199 	ldr	r1,[r5]
000000ec 7808        200 	ldrb	r0,[r1]
000000ee 0700        201 	lsls	r0,r0,28
000000f0 7849        202 	ldrb	r1,[r1,1]
000000f2 ea515710    203 	orrs	r7,r1,r0 lsr 20
000000f6 2f07        204 	cmp	r7,7
000000f8 d95b*       205 	bls	.L1182
000000fa 88a8        206 	ldrh	r0,[r5,4]
000000fc 3808        207 	subs	r0,8
000000fe d158*       208 	bne	.L1182
00000100 7860        209 	ldrb	r0,[r4,1]
00000102 b148*       210 	cbz	r0,.L891
00000104 4620        211 	cpy	r0,r4
00000106 22c6        212 	movs	r2,198
00000108 2300        213 	movs	r3,0
0000010a 2101        214 	movs	r1,1
0000010c b402        215 	push	{r1}
0000010e 4988*       216 	ldr	r1,.L6751
00000110 468c        217 	mov	r12,r1
00000112 9101        218 	str	r1,[sp,4]
00000114 bc02        219 	pop	{r1}
00000116 47e0        220 	blx	r12
                     221 .L891:
00000118 2001        222 	movs	r0,1
0000011a 7020        223 	strb	r0,[r4]
0000011c 7660        224 	strb	r0,[r4,25]
0000011e 2000        225 	movs	r0,0
00000120 80e0        226 	strh	r0,[r4,6]
00000122 80a7        227 	strh	r7,[r4,4]
00000124 200f        228 	movs	r0,15
00000126 81a0        229 	strh	r0,[r4,12]
00000128 88a9        230 	ldrh	r1,[r5,4]
0000012a 463a        231 	cpy	r2,r7
0000012c 1e88        232 	subs	r0,r1,2
0000012e 75e0        233 	strb	r0,[r4,23]

                                                                      Page 5
                                                              C:\Users\Fengyuan\AppData\Local\Temp\gh_0000kos1.s
00000130 7621        234 	strb	r1,[r4,24]
00000132 6829        235 	ldr	r1,[r5]
00000134 7de0        236 	ldrb	r0,[r4,23]
00000136 3102        237 	adds	r1,2
00000138 e004*       238 	b	.L894
                     239 .L893:
0000013a 3801        240 	subs	r0,1
0000013c b280        241 	uxth	r0,r0
0000013e 1903        242 	adds	r3,r0,r4
00000140 5c0d        243 	ldrb	r5,[r1,r0]
00000142 741d        244 	strb	r5,[r3,16]
                     245 .L894:
00000144 2800        246 	cmp	r0,0
00000146 d1f8*       247 	bne	.L893
00000148 8120        248 	strh	r0,[r4,8]
0000014a 7aa0        249 	ldrb	r0,[r4,10]
0000014c f1140308    250 	adds	r3,r4,8
00000150 eb1000c0    251 	adds	r0,r0,r0 lsl 3
00000154 1980        252 	adds	r0,r0,r6
00000156 4d78*       253 	ldr	r5,.L6753
00000158 7840        254 	ldrb	r0,[r0,1]
0000015a 2100        255 	movs	r1,0
0000015c 47a8        256 	blx	r5
0000015e 73a0        257 	strb	r0,[r4,14]
00000160 7ba0        258 	ldrb	r0,[r4,14]
00000162 b180*       259 	cbz	r0,.L897
00000164 2802        260 	cmp	r0,2
00000166 d019*       261 	beq	.L898
00000168 2803        262 	cmp	r0,3
0000016a d10a*       263 	bne	.L900
                     264 .L899:
0000016c 7aa0        265 	ldrb	r0,[r4,10]
0000016e eb1000c0    266 	adds	r0,r0,r0 lsl 3
00000172 1980        267 	adds	r0,r0,r6
00000174 7900        268 	ldrb	r0,[r0,4]
00000176 8060        269 	strh	r0,[r4,2]
00000178 2013        270 	movs	r0,19
0000017a 7060        271 	strb	r0,[r4,1]
                     272 .L6661:
                     273 
0000017c 4620        274 	cpy	r0,r4
0000017e 4970*       275 	ldr	r1,.L6755
00000180 e7a7*       276 	b	.L6666
                     277 .L900:
00000182 2260        278 	movs	r2,96
00000184 e056*       279 	b	.L6657
                     280 .L897:
00000186 2015        281 	movs	r0,21
00000188 8060        282 	strh	r0,[r4,2]
0000018a 2042        283 	movs	r0,66
0000018c 7060        284 	strb	r0,[r4,1]
0000018e 2001        285 	movs	r0,1
00000190 76a0        286 	strb	r0,[r4,26]
00000192 486c*       287 	ldr	r0,.L6756
00000194 7aa1        288 	ldrb	r1,[r4,10]
00000196 2200        289 	movs	r2,0
00000198 5442        290 	strb	r2,[r0,r1]
0000019a e798*       291 	b	.L6660
                     292 .L898:
0000019c 7aa0        293 	ldrb	r0,[r4,10]
0000019e eb1000c0    294 	adds	r0,r0,r0 lsl 3

                                                                      Page 6
                                                              C:\Users\Fengyuan\AppData\Local\Temp\gh_0000kos1.s
000001a2 1980        295 	adds	r0,r0,r6
000001a4 7900        296 	ldrb	r0,[r0,4]
000001a6 8060        297 	strh	r0,[r4,2]
000001a8 2012        298 	movs	r0,18
000001aa 7060        299 	strb	r0,[r4,1]
000001ac 2001        300 	movs	r0,1
000001ae 76a0        301 	strb	r0,[r4,26]
000001b0 e7e4*       302 	b	.L6661
                     303 .L1182:
000001b2 2380        304 	movs	r3,128
000001b4 2023        305 	movs	r0,35
000001b6 4d64*       306 	ldr	r5,.L6757
000001b8 2204        307 	movs	r2,4
000001ba 2100        308 	movs	r1,0
000001bc 47a8        309 	blx	r5
000001be 7860        310 	ldrb	r0,[r4,1]
000001c0 2800        311 	cmp	r0,0
000001c2 f04080ad*   312 	bne	.L947
                     313 .L902:
000001c6 22ff        314 	movs	r2,255
                     315 .L6658:
                     316 
000001c8 4620        317 	cpy	r0,r4
000001ca 2180        318 	movs	r1,128
000001cc 2301        319 	movs	r3,1
000001ce e034*       320 	b	.L6663
                     321 .L906:
                     322 ;line2942
                     323 ..lin.f47d2a15..82260a87.0_8::
                     324 .LDWlin8:
000001d0 7860        325 	ldrb	r0,[r4,1]
000001d2 2821        326 	cmp	r0,33
000001d4 d107*       327 	bne	.L908
000001d6 485d*       328 	ldr	r0,.L6758
000001d8 21ff        329 	movs	r1,255
000001da 7001        330 	strb	r1,[r0]
000001dc 2101        331 	movs	r1,1
000001de 7041        332 	strb	r1,[r0,1]
000001e0 495b*       333 	ldr	r1,.L6759
000001e2 4620        334 	cpy	r0,r4
000001e4 4788        335 	blx	r1
                     336 .L908:
000001e6 7860        337 	ldrb	r0,[r4,1]
000001e8 2801        338 	cmp	r0,1
000001ea f0408099*   339 	bne	.L947
000001ee 6829        340 	ldr	r1,[r5]
000001f0 2002        341 	movs	r0,2
000001f2 7020        342 	strb	r0,[r4]
000001f4 7808        343 	ldrb	r0,[r1]
000001f6 7e23        344 	ldrb	r3,[r4,24]
000001f8 f000060f    345 	and	r6,r0,15
000001fc 1e58        346 	subs	r0,r3,1
000001fe 75e0        347 	strb	r0,[r4,23]
00000200 88e7        348 	ldrh	r7,[r4,6]
00000202 88a2        349 	ldrh	r2,[r4,4]
00000204 7de0        350 	ldrb	r0,[r4,23]
00000206 1bd2        351 	subs	r2,r2,r7
00000208 4290        352 	cmp	r0,r2
0000020a dc09*       353 	bgt	.L912
0000020c 88aa        354 	ldrh	r2,[r5,4]
0000020e 429a        355 	cmp	r2,r3

                                                                      Page 7
                                                              C:\Users\Fengyuan\AppData\Local\Temp\gh_0000kos1.s
00000210 d00c*       356 	beq	.L916
                     357 .L969:
00000212 2380        358 	movs	r3,128
00000214 2023        359 	movs	r0,35
00000216 2204        360 	movs	r2,4
00000218 4c4b*       361 	ldr	r4,.L6757
0000021a 2100        362 	movs	r1,0
                     363 .L6664:
                     364 
0000021c 47a0        365 	blx	r4
0000021e e07f*       366 	b	.L947
                     367 .L912:
00000220 b2d0        368 	uxtb	r0,r2
00000222 75e0        369 	strb	r0,[r4,23]
00000224 88ab        370 	ldrh	r3,[r5,4]
00000226 1c42        371 	adds	r2,r0,1
00000228 4293        372 	cmp	r3,r2
0000022a d3f2*       373 	blo	.L969
                     374 .L916:
0000022c 7e62        375 	ldrb	r2,[r4,25]
0000022e 4296        376 	cmp	r6,r2
00000230 d005*       377 	beq	.L918
                     378 .L917:
00000232 22c4        379 	movs	r2,196
                     380 .L6657:
                     381 
00000234 4620        382 	cpy	r0,r4
00000236 2301        383 	movs	r3,1
00000238 4619        384 	cpy	r1,r3
                     385 .L6663:
                     386 
0000023a 4c3d*       387 	ldr	r4,.L6751
0000023c e7ee*       388 	b	.L6664
                     389 .L918:
0000023e 3201        390 	adds	r2,1
00000240 f002020f    391 	and	r2,r2,15
00000244 7662        392 	strb	r2,[r4,25]
00000246 1c4b        393 	adds	r3,r1,1
00000248 4601        394 	cpy	r1,r0
0000024a e004*       395 	b	.L921
                     396 .L920:
0000024c 3901        397 	subs	r1,1
0000024e b289        398 	uxth	r1,r1
00000250 190a        399 	adds	r2,r1,r4
00000252 5c5d        400 	ldrb	r5,[r3,r1]
00000254 7415        401 	strb	r5,[r2,16]
                     402 .L921:
00000256 2900        403 	cmp	r1,0
00000258 d1f8*       404 	bne	.L920
0000025a 8922        405 	ldrh	r2,[r4,8]
0000025c 4282        406 	cmp	r2,r0
0000025e d200*       407 	bhs	.L926
00000260 2102        408 	movs	r1,2
                     409 .L926:
00000262 73a1        410 	strb	r1,[r4,14]
00000264 7aa0        411 	ldrb	r0,[r4,10]
00000266 4933*       412 	ldr	r1,.L6752
00000268 eb1000c0    413 	adds	r0,r0,r0 lsl 3
0000026c 1840        414 	adds	r0,r0,r1
0000026e 7940        415 	ldrb	r0,[r0,5]
00000270 8060        416 	strh	r0,[r4,2]

                                                                      Page 8
                                                              C:\Users\Fengyuan\AppData\Local\Temp\gh_0000kos1.s
00000272 2043        417 	movs	r0,67
00000274 7060        418 	strb	r0,[r4,1]
00000276 e72a*       419 	b	.L6659
                     420 .L932:
                     421 .LDW31:
                     422 
                     423 .LDW41:
                     424 
                     425 .LDW51:
                     426 
                     427 ;line2965
                     428 ..lin.f47d2a15..82260a87.0_9::
                     429 .LDWlin9:
00000278 2a08        430 	cmp	r2,8
0000027a d800*       431 	bhi	.L930
0000027c 2008        432 	movs	r0,8
                     433 .L930:
                     434 ;line2966
                     435 ..lin.f47d2a15..82260a87.0_10::
                     436 .LDWlin10:
0000027e 4281        437 	cmp	r1,r0
00000280 d006*       438 	beq	.L938
                     439 .L939:
                     440 ;line2969
                     441 ..lin.f47d2a15..82260a87.0_11::
                     442 .LDWlin11:
00000282 2023        443 	movs	r0,35
00000284 2301        444 	movs	r3,1
00000286 4c30*       445 	ldr	r4,.L6757
00000288 2204        446 	movs	r2,4
0000028a 2100        447 	movs	r1,0
0000028c 47a0        448 	blx	r4
0000028e e049*       449 	b	.L823
                     450 .L938:
                     451 .LDW61:
                     452 
                     453 ;line2977
                     454 ..lin.f47d2a15..82260a87.0_12::
                     455 .LDWlin12:
00000290 4825*       456 	ldr	r0,.L6749
00000292 4780        457 	blx	r0
00000294 482f*       458 	ldr	r0,.L6760
00000296 79c1        459 	ldrb	r1,[r0,7]
00000298 2900        460 	cmp	r1,0
0000029a d041*       461 	beq	.L947
0000029c 211c        462 	movs	r1,28
0000029e 4379        463 	muls	r1,r7
000002a0 1840        464 	adds	r0,r0,r1
                     465 ;line2981
                     466 ..lin.f47d2a15..82260a87.0_13::
                     467 .LDWlin13:
000002a2 d03d*       468 	beq	.L947
                     469 ;line2983
                     470 ..lin.f47d2a15..82260a87.0_14::
                     471 .LDWlin14:
000002a4 79c1        472 	ldrb	r1,[r0,7]
000002a6 2922        473 	cmp	r1,34
000002a8 d005*       474 	beq	.L954
000002aa 79c1        475 	ldrb	r1,[r0,7]
000002ac 2923        476 	cmp	r1,35
000002ae d122*       477 	bne	.L959

                                                                      Page 9
                                                              C:\Users\Fengyuan\AppData\Local\Temp\gh_0000kos1.s
000002b0 7ac1        478 	ldrb	r1,[r0,11]
000002b2 2901        479 	cmp	r1,1
000002b4 d11f*       480 	bne	.L959
                     481 .L954:
000002b6 2103        482 	movs	r1,3
000002b8 75c1        483 	strb	r1,[r0,23]
000002ba 682b        484 	ldr	r3,[r5]
                     485 .L957:
000002bc 3901        486 	subs	r1,1
000002be b289        487 	uxth	r1,r1
000002c0 180a        488 	adds	r2,r1,r0
000002c2 5c5c        489 	ldrb	r4,[r3,r1]
000002c4 7614        490 	strb	r4,[r2,24]
000002c6 2900        491 	cmp	r1,0
000002c8 d1f8*       492 	bne	.L957
000002ca e029*       493 	b	.L947
                     494 .L962:
000002cc 7d82        495 	ldrb	r2,[r0,22]
000002ce 2a01        496 	cmp	r2,1
000002d0 d101*       497 	bne	.L964
000002d2 7b01        498 	ldrb	r1,[r0,12]
000002d4 e005*       499 	b	.L965
                     500 .L964:
000002d6 788a        501 	ldrb	r2,[r1,2]
000002d8 7242        502 	strb	r2,[r0,9]
000002da 7849        503 	ldrb	r1,[r1,1]
000002dc 7301        504 	strb	r1,[r0,12]
000002de 2201        505 	movs	r2,1
000002e0 7582        506 	strb	r2,[r0,22]
                     507 .L965:
000002e2 72c1        508 	strb	r1,[r0,11]
000002e4 2129        509 	movs	r1,41
000002e6 8001        510 	strh	r1,[r0]
000002e8 2143        511 	movs	r1,67
000002ea 71c1        512 	strb	r1,[r0,7]
000002ec 491a*       513 	ldr	r1,.L6761
000002ee e6f0*       514 	b	.L6665
                     515 .L966:
000002f0 2165        516 	movs	r1,101
000002f2 8001        517 	strh	r1,[r0]
000002f4 e014*       518 	b	.L947
                     519 .L959:
000002f6 79c1        520 	ldrb	r1,[r0,7]
000002f8 2901        521 	cmp	r1,1
000002fa d111*       522 	bne	.L947
000002fc 88a9        523 	ldrh	r1,[r5,4]
000002fe 2903        524 	cmp	r1,3
00000300 d387*       525 	blo	.L969
00000302 6829        526 	ldr	r1,[r5]
00000304 780a        527 	ldrb	r2,[r1]
00000306 f002020f    528 	and	r2,r2,15
0000030a 2a01        529 	cmp	r2,1
0000030c d3de*       530 	blo	.L962
0000030e d0ef*       531 	beq	.L966
00000310 2101        532 	movs	r1,1
00000312 2a02        533 	cmp	r2,2
00000314 d001*       534 	beq	.L967
00000316 22d5        535 	movs	r2,213
00000318 e000*       536 	b	.L6662
                     537 .L967:
0000031a 22d4        538 	movs	r2,212

                                                                      Page 10
                                                              C:\Users\Fengyuan\AppData\Local\Temp\gh_0000kos1.s
                     539 .L6662:
                     540 
0000031c 4b0f*       541 	ldr	r3,.L6762
0000031e 4798        542 	blx	r3
                     543 .L947:
                     544 .LDW71:
                     545 
                     546 ;line2987
                     547 ..lin.f47d2a15..82260a87.0_15::
                     548 .LDWlin15:
00000320 480f*       549 	ldr	r0,.L6763
00000322 4780        550 	blx	r0
                     551 .L823:
                     552 .LDW81:
                     553 
                     554 .LDW91:
00000324 b001        555 	add	sp,4
00000326 bdf0        556 	pop	{r4-r7,pc}
                     557 __ghs_eofn_CanTp_CanIfRxIndication:
                     558 	.endf	CanTp_CanIfRxIndication
                     559 	.endf	CanTp_CanIfRxIndication..C.3A.5CVector.5CCBD1800257_D01_S32K1xx.5CApplications.5CS32K144_Start_new.5CAppl.5Cobj.5CCanTp.
                     560 	.align	4
00000328 00000000*   561 .L6749:	.data.w	SuspendAllInterrupts
                     562 	.endo	.L6749
                     563 
0000032c 00000000*   564 .L6750:	.data.w	CanTp_RxState
                     565 	.endo	.L6750
                     566 
00000330 00000000*   567 .L6751:	.data.w	CanTp_RxInit
                     568 	.endo	.L6751
                     569 
00000334 00000000*   570 .L6752:	.data.w	CanTp_RxSduCfg
                     571 	.endo	.L6752
                     572 
00000338 00000000*   573 .L6753:	.data.w	PduR_CanTpStartOfReception
                     574 	.endo	.L6753
                     575 
0000033c 00000000*   576 .L6754:	.data.w	CanTp_RxGetBuffer
                     577 	.endo	.L6754
                     578 
00000340 00000000*   579 .L6755:	.data.w	CanTp_RxTransmitFrame
                     580 	.endo	.L6755
                     581 
00000344 00000000*   582 .L6756:	.data.w	CanTp_CalcBS
                     583 	.endo	.L6756
                     584 
00000348 00000000*   585 .L6757:	.data.w	Det_ReportError
                     586 	.endo	.L6757
                     587 
0000034c 00000000*   588 .L6758:	.data.w	CanTp_TxSemaphores
                     589 	.endo	.L6758
                     590 
00000350 00000000*   591 .L6759:	.data.w	CanTp_CanIfTxConfirmationFC
                     592 	.endo	.L6759
                     593 
00000354 00000000*   594 .L6760:	.data.w	CanTp_TxState
                     595 	.endo	.L6760
                     596 
00000358 00000000*   597 .L6761:	.data.w	CanTp_TxGetBuffer
                     598 	.endo	.L6761
                     599 

                                                                      Page 11
                                                              C:\Users\Fengyuan\AppData\Local\Temp\gh_0000kos1.s
0000035c 00000000*   600 .L6762:	.data.w	CanTp_TxInit
                     601 	.endo	.L6762
                     602 
00000360 00000000*   603 .L6763:	.data.w	ResumeAllInterrupts
                     604 	.endo	.L6763
                     605 
                     606 ;lPaddedLength	r0	local
                     607 ;pTpRxState	r4	local
                     608 ;lReceivedDataLength	r7	local
                     609 ;pSrc	r1	local
                     610 ;Count	r0	local
                     611 ;lReceivedDataLength	r7	local
                     612 ;pSrc	r1	local
                     613 ;Count	r0	local
                     614 ;lSNinFrame	r6	local
                     615 ;pSrc	r3	local
                     616 ;Count	r1	local
                     617 ;lPaddedLength	r0	local
                     618 ;pTpTxState	r0	local
                     619 ;pSrc	r3	local
                     620 ;Count	r1	local
                     621 
                     622 ;SduHdl	r7	param
                     623 ;FrameType	r6	param
                     624 ;pPduInfo	r5	param
                     625 
                     626 	.section ".bss","awb"
                     627 .L5961:
                     628 	.endo	.L5961
                     629 	.text
                     630 ..gh.f.a.1.e.1:
                     631 	.endo	..gh.f.a.1.e.1
                     632 	.global	CanTp_CanIfTxConfirmation..C.3A.5CVector.5CCBD1800257_D01_S32K1xx.5CApplications.5CS32K144_Start_new.5CAppl.5Cobj.5CCanTp.
                     633 CanTp_CanIfTxConfirmation..C.3A.5CVector.5CCBD1800257_D01_S32K1xx.5CApplications.5CS32K144_Start_new.5CAppl.5Cobj.5CCanTp.:
                     634 CanTp_CanIfTxConfirmation:
00000364 b530        635 	push	{r4-r5,lr}
00000366 4604        636 	cpy	r4,r0
                     637 .LDW02:
00000368 79c0        638 	ldrb	r0,[r0,7]
0000036a 2821        639 	cmp	r0,33
0000036c d303*       640 	blo	.L6770
0000036e d040*       641 	beq	.L6773
00000370 2823        642 	cmp	r0,35
00000372 d307*       643 	blo	.L6768
00000374 d00c*       644 	beq	.L6769
                     645 .L6770:
                     646 ;line3111
                     647 ..lin.f47d2a15..da36f5d0.0_16::
                     648 .LDWlin16:
00000376 23b2        649 	movs	r3,178
00000378 2023        650 	movs	r0,35
0000037a 4dc7*       651 	ldr	r5,.L9426
0000037c 2205        652 	movs	r2,5
0000037e 2100        653 	movs	r1,0
00000380 47a8        654 	blx	r5
00000382 e03b*       655 	b	.L6772
                     656 .L6768:
                     657 ;line3029
                     658 ..lin.f47d2a15..da36f5d0.0_17::
                     659 .LDWlin17:
00000384 2000        660 	movs	r0,0

                                                                      Page 12
                                                              C:\Users\Fengyuan\AppData\Local\Temp\gh_0000kos1.s
00000386 75a0        661 	strb	r0,[r4,22]
00000388 2065        662 	movs	r0,101
0000038a 8020        663 	strh	r0,[r4]
0000038c 2001        664 	movs	r0,1
0000038e e02e*       665 	b	.L9388
                     666 .L6769:
                     667 ;line3037
                     668 ..lin.f47d2a15..da36f5d0.0_18::
                     669 .LDWlin18:
00000390 88a0        670 	ldrh	r0,[r4,4]
00000392 8861        671 	ldrh	r1,[r4,2]
00000394 4288        672 	cmp	r0,r1
00000396 d22c*       673 	bhs	.L6773
                     674 ;line3041
                     675 ..lin.f47d2a15..da36f5d0.0_19::
                     676 .LDWlin19:
00000398 7d60        677 	ldrb	r0,[r4,21]
0000039a 3001        678 	adds	r0,1
0000039c f000000f    679 	and	r0,r0,15
000003a0 7560        680 	strb	r0,[r4,21]
000003a2 7ae0        681 	ldrb	r0,[r4,11]
000003a4 3801        682 	subs	r0,1
000003a6 d306*       683 	blo	.L6775
                     684 ;line3047
                     685 ..lin.f47d2a15..da36f5d0.0_20::
                     686 .LDWlin20:
000003a8 72e0        687 	strb	r0,[r4,11]
000003aa 0600        688 	lsls	r0,r0,24
000003ac d103*       689 	bne	.L6775
                     690 ;line3051
                     691 ..lin.f47d2a15..da36f5d0.0_21::
                     692 .LDWlin21:
000003ae 2065        693 	movs	r0,101
000003b0 8020        694 	strh	r0,[r4]
000003b2 2001        695 	movs	r0,1
000003b4 71e0        696 	strb	r0,[r4,7]
                     697 .L6775:
000003b6 79e0        698 	ldrb	r0,[r4,7]
000003b8 2801        699 	cmp	r0,1
000003ba d01f*       700 	beq	.L6772
                     701 ;line3063
                     702 ..lin.f47d2a15..da36f5d0.0_22::
                     703 .LDWlin22:
000003bc 2029        704 	movs	r0,41
000003be 7a61        705 	ldrb	r1,[r4,9]
000003c0 8020        706 	strh	r0,[r4]
000003c2 b929*       707 	cbnz	r1,.L6786
000003c4 2043        708 	movs	r0,67
000003c6 71e0        709 	strb	r0,[r4,7]
000003c8 49b4*       710 	ldr	r1,.L9427
000003ca 4620        711 	cpy	r0,r4
000003cc 4788        712 	blx	r1
000003ce e015*       713 	b	.L6772
                     714 .L6786:
                     715 ;line3092
                     716 ..lin.f47d2a15..da36f5d0.0_23::
                     717 .LDWlin23:
000003d0 297f        718 	cmp	r1,127
000003d2 d905*       719 	bls	.L6792
000003d4 39f1        720 	subs	r1,241
000003d6 2909        721 	cmp	r1,9

                                                                      Page 13
                                                              C:\Users\Fengyuan\AppData\Local\Temp\gh_0000kos1.s
000003d8 d201*       722 	bhs	.L6790
000003da 2001        723 	movs	r0,1
000003dc e005*       724 	b	.L6784
                     725 .L6790:
000003de 217f        726 	movs	r1,127
                     727 .L6792:
000003e0 1d08        728 	adds	r0,r1,4
000003e2 2105        729 	movs	r1,5
000003e4 fbb0f0f1    730 	udiv	r0,r0,r1
000003e8 3001        731 	adds	r0,1
                     732 .L6784:
000003ea 72a0        733 	strb	r0,[r4,10]
                     734 ;line3093
                     735 ..lin.f47d2a15..da36f5d0.0_24::
                     736 .LDWlin24:
000003ec 2002        737 	movs	r0,2
                     738 .L9388:
                     739 
000003ee 71e0        740 	strb	r0,[r4,7]
000003f0 e004*       741 	b	.L6772
                     742 .L6773:
                     743 ;line3105
                     744 ..lin.f47d2a15..da36f5d0.0_25::
                     745 .LDWlin25:
000003f2 4620        746 	cpy	r0,r4
000003f4 4baa*       747 	ldr	r3,.L9428
000003f6 22ff        748 	movs	r2,255
000003f8 2100        749 	movs	r1,0
000003fa 4798        750 	blx	r3
                     751 .L6772:
000003fc 7de2        752 	ldrb	r2,[r4,23]
000003fe 2a00        753 	cmp	r2,0
00000400 d048*       754 	beq	.L6764
                     755 .LDW12:
                     756 
                     757 ;line3121
                     758 ..lin.f47d2a15..da36f5d0.0_26::
                     759 .LDWlin26:
00000402 f1140018    760 	adds	r0,r4,24
00000406 2300        761 	movs	r3,0
00000408 75e3        762 	strb	r3,[r4,23]
0000040a 79e3        763 	ldrb	r3,[r4,7]
0000040c 4601        764 	cpy	r1,r0
0000040e 2b22        765 	cmp	r3,34
00000410 d005*       766 	beq	.L6803
00000412 79e3        767 	ldrb	r3,[r4,7]
00000414 2b23        768 	cmp	r3,35
00000416 d10b*       769 	bne	.L6808
00000418 7ae3        770 	ldrb	r3,[r4,11]
0000041a 2b01        771 	cmp	r3,1
0000041c d108*       772 	bne	.L6808
                     773 .L6803:
0000041e 2203        774 	movs	r2,3
00000420 75e2        775 	strb	r2,[r4,23]
                     776 .L6806:
00000422 3a01        777 	subs	r2,1
00000424 b292        778 	uxth	r2,r2
00000426 5c8b        779 	ldrb	r3,[r1,r2]
00000428 5483        780 	strb	r3,[r0,r2]
0000042a 2a00        781 	cmp	r2,0
0000042c d1f9*       782 	bne	.L6806

                                                                      Page 14
                                                              C:\Users\Fengyuan\AppData\Local\Temp\gh_0000kos1.s
0000042e e031*       783 	b	.L6764
                     784 .L6808:
00000430 79e0        785 	ldrb	r0,[r4,7]
00000432 2801        786 	cmp	r0,1
00000434 d12e*       787 	bne	.L6764
00000436 2a03        788 	cmp	r2,3
00000438 d326*       789 	blo	.L6818
0000043a 7808        790 	ldrb	r0,[r1]
0000043c f000000f    791 	and	r0,r0,15
00000440 2801        792 	cmp	r0,1
00000442 d308*       793 	blo	.L6811
00000444 d01b*       794 	beq	.L6815
00000446 2802        795 	cmp	r0,2
00000448 4620        796 	cpy	r0,r4
0000044a d01b*       797 	beq	.L6816
                     798 .L9066:
0000044c 22d5        799 	movs	r2,213
                     800 .L9387:
                     801 
0000044e 4b94*       802 	ldr	r3,.L9428
00000450 2101        803 	movs	r1,1
00000452 4798        804 	blx	r3
00000454 e01e*       805 	b	.L6764
                     806 .L6811:
00000456 7da0        807 	ldrb	r0,[r4,22]
00000458 2801        808 	cmp	r0,1
0000045a d101*       809 	bne	.L6813
0000045c 7b20        810 	ldrb	r0,[r4,12]
0000045e e005*       811 	b	.L6814
                     812 .L6813:
00000460 7888        813 	ldrb	r0,[r1,2]
00000462 7260        814 	strb	r0,[r4,9]
00000464 7848        815 	ldrb	r0,[r1,1]
00000466 7320        816 	strb	r0,[r4,12]
00000468 2101        817 	movs	r1,1
0000046a 75a1        818 	strb	r1,[r4,22]
                     819 .L6814:
0000046c 72e0        820 	strb	r0,[r4,11]
0000046e 2029        821 	movs	r0,41
00000470 8020        822 	strh	r0,[r4]
00000472 2043        823 	movs	r0,67
00000474 71e0        824 	strb	r0,[r4,7]
00000476 4989*       825 	ldr	r1,.L9427
00000478 4620        826 	cpy	r0,r4
0000047a 4788        827 	blx	r1
0000047c e00a*       828 	b	.L6764
                     829 .L6815:
0000047e 2065        830 	movs	r0,101
00000480 8020        831 	strh	r0,[r4]
00000482 e007*       832 	b	.L6764
                     833 .L6816:
00000484 22d4        834 	movs	r2,212
00000486 e7e2*       835 	b	.L9387
                     836 .L6818:
00000488 2380        837 	movs	r3,128
0000048a 2023        838 	movs	r0,35
0000048c 4c82*       839 	ldr	r4,.L9426
0000048e 2204        840 	movs	r2,4
00000490 2100        841 	movs	r1,0
00000492 47a0        842 	blx	r4
                     843 .L6764:

                                                                      Page 15
                                                              C:\Users\Fengyuan\AppData\Local\Temp\gh_0000kos1.s
                     844 .LDW22:
                     845 
                     846 .LDW32:
                     847 ;line3126
                     848 ..lin.f47d2a15..da36f5d0.0_27::
                     849 .LDWlin27:
00000494 bd30        850 	pop	{r4-r5,pc}
                     851 __ghs_eofn_CanTp_CanIfTxConfirmation:
                     852 	.endf	CanTp_CanIfTxConfirmation
                     853 	.endf	CanTp_CanIfTxConfirmation..C.3A.5CVector.5CCBD1800257_D01_S32K1xx.5CApplications.5CS32K144_Start_new.5CAppl.5Cobj.5CCanTp.
                     854 ;lTaskCycles	r0	local
                     855 ;lSTminTemp	r1	local
                     856 ;pSrc	r1	local
                     857 ;Count	r2	local
                     858 
                     859 ;pTpTxState	r4	param
                     860 
                     861 	.section ".bss","awb"
                     862 .L9062:
                     863 	.endo	.L9062
                     864 	.text
                     865 ..gh.f.a.1.e.2:
                     866 	.endo	..gh.f.a.1.e.2
                     867 	.global	CanTp_CanIfTxConfirmationFC..C.3A.5CVector.5CCBD1800257_D01_S32K1xx.5CApplications.5CS32K144_Start_new.5CAppl.5Cobj.5CCanTp.
                     868 CanTp_CanIfTxConfirmationFC..C.3A.5CVector.5CCBD1800257_D01_S32K1xx.5CApplications.5CS32K144_Start_new.5CAppl.5Cobj.5CCanTp.:
                     869 CanTp_CanIfTxConfirmationFC:
00000496 b530        870 	push	{r4-r5,lr}
00000498 4604        871 	cpy	r4,r0
                     872 .LDW42:
0000049a 7840        873 	ldrb	r0,[r0,1]
0000049c 2821        874 	cmp	r0,33
0000049e d309*       875 	blo	.L9435
000004a0 d00f*       876 	beq	.L9432
000004a2 2823        877 	cmp	r0,35
000004a4 d318*       878 	blo	.L9433
000004a6 d105*       879 	bne	.L9435
                     880 ;line3172
                     881 ..lin.f47d2a15..43cbb319.0_28::
                     882 .LDWlin28:
000004a8 2260        883 	movs	r2,96
000004aa 2301        884 	movs	r3,1
000004ac 4619        885 	cpy	r1,r3
000004ae 4620        886 	cpy	r0,r4
000004b0 4c7c*       887 	ldr	r4,.L9585
000004b2 e004*       888 	b	.L9574
                     889 .L9435:
                     890 ;line3177
                     891 ..lin.f47d2a15..43cbb319.0_29::
                     892 .LDWlin29:
000004b4 23b1        893 	movs	r3,177
000004b6 2023        894 	movs	r0,35
000004b8 2205        895 	movs	r2,5
000004ba 4c77*       896 	ldr	r4,.L9426
000004bc 2100        897 	movs	r1,0
                     898 .L9574:
                     899 
000004be 47a0        900 	blx	r4
000004c0 e01b*       901 	b	.L9429
                     902 .L9432:
                     903 ;line3154
                     904 ..lin.f47d2a15..43cbb319.0_30::

                                                                      Page 16
                                                              C:\Users\Fengyuan\AppData\Local\Temp\gh_0000kos1.s
                     905 .LDWlin30:
000004c2 200f        906 	movs	r0,15
000004c4 81a0        907 	strh	r0,[r4,12]
000004c6 7aa1        908 	ldrb	r1,[r4,10]
000004c8 4877*       909 	ldr	r0,.L9586
000004ca eb1101c1    910 	adds	r1,r1,r1 lsl 3
000004ce 1840        911 	adds	r0,r0,r1
000004d0 7940        912 	ldrb	r0,[r0,5]
000004d2 8060        913 	strh	r0,[r4,2]
000004d4 2001        914 	movs	r0,1
000004d6 e00f*       915 	b	.L9575
                     916 .L9433:
                     917 ;line3162
                     918 ..lin.f47d2a15..43cbb319.0_31::
                     919 .LDWlin31:
000004d8 89a0        920 	ldrh	r0,[r4,12]
000004da b928*       921 	cbnz	r0,.L9438
000004dc 2023        922 	movs	r0,35
000004de 2301        923 	movs	r3,1
000004e0 4d6d*       924 	ldr	r5,.L9426
000004e2 2205        925 	movs	r2,5
000004e4 2100        926 	movs	r1,0
000004e6 47a8        927 	blx	r5
                     928 .L9438:
000004e8 89a0        929 	ldrh	r0,[r4,12]
000004ea 3801        930 	subs	r0,1
000004ec 81a0        931 	strh	r0,[r4,12]
000004ee 2002        932 	movs	r0,2
000004f0 73a0        933 	strb	r0,[r4,14]
000004f2 2015        934 	movs	r0,21
000004f4 8060        935 	strh	r0,[r4,2]
000004f6 2002        936 	movs	r0,2
                     937 .L9575:
                     938 
000004f8 7060        939 	strb	r0,[r4,1]
                     940 .L9429:
                     941 .LDW52:
000004fa bd30        942 	pop	{r4-r5,pc}
                     943 __ghs_eofn_CanTp_CanIfTxConfirmationFC:
                     944 	.endf	CanTp_CanIfTxConfirmationFC
                     945 	.endf	CanTp_CanIfTxConfirmationFC..C.3A.5CVector.5CCBD1800257_D01_S32K1xx.5CApplications.5CS32K144_Start_new.5CAppl.5Cobj.5CCanTp.
                     946 
                     947 ;pTpRxState	r4	param
                     948 
                     949 	.section ".bss","awb"
                     950 .L9487:
                     951 	.endo	.L9487
                     952 	.text
                     953 ..gh.f.a.1.e.3:
                     954 	.endo	..gh.f.a.1.e.3
                     955 	.global	CanTp_CanIfTransmitFrame..C.3A.5CVector.5CCBD1800257_D01_S32K1xx.5CApplications.5CS32K144_Start_new.5CAppl.5Cobj.5CCanTp.
                     956 CanTp_CanIfTransmitFrame..C.3A.5CVector.5CCBD1800257_D01_S32K1xx.5CApplications.5CS32K144_Start_new.5CAppl.5Cobj.5CCanTp.:
                     957 CanTp_CanIfTransmitFrame:
000004fc b530        958 	push	{r4-r5,lr}
000004fe 4604        959 	cpy	r4,r0
                     960 .LDW62:
00000500 7900        961 	ldrb	r0,[r0,4]
00000502 4d6a*       962 	ldr	r5,.L9695
00000504 8088        963 	strh	r0,[r1,4]
00000506 7828        964 	ldrb	r0,[r5]
00000508 28ff        965 	cmp	r0,255

                                                                      Page 17
                                                              C:\Users\Fengyuan\AppData\Local\Temp\gh_0000kos1.s
0000050a d108*       966 	bne	.L9589
                     967 ;line3223
                     968 ..lin.f47d2a15..3be7ec38.0_32::
                     969 .LDWlin32:
0000050c 4a68*       970 	ldr	r2,.L9696
0000050e 78a0        971 	ldrb	r0,[r4,2]
00000510 4790        972 	blx	r2
00000512 b928*       973 	cbnz	r0,.L9587
00000514 7821        974 	ldrb	r1,[r4]
00000516 7069        975 	strb	r1,[r5,1]
00000518 7861        976 	ldrb	r1,[r4,1]
0000051a 7029        977 	strb	r1,[r5]
0000051c e000*       978 	b	.L9587
                     979 .L9589:
                     980 ;line3238
                     981 ..lin.f47d2a15..3be7ec38.0_33::
                     982 .LDWlin33:
0000051e 200f        983 	movs	r0,15
                     984 .L9587:
                     985 .LDW72:
00000520 bd30        986 	pop	{r4-r5,pc}
                     987 __ghs_eofn_CanTp_CanIfTransmitFrame:
                     988 	.endf	CanTp_CanIfTransmitFrame
                     989 	.endf	CanTp_CanIfTransmitFrame..C.3A.5CVector.5CCBD1800257_D01_S32K1xx.5CApplications.5CS32K144_Start_new.5CAppl.5Cobj.5CCanTp.
                     990 ;lCanIfResult	r0	local
                     991 
                     992 ;pPduTxData	r4	param
                     993 ;pTpData	r1	param
                     994 
                     995 	.section ".bss","awb"
                     996 .L9637:
                     997 	.endo	.L9637
                     998 	.text
                     999 ..gh.f.a.1.e.4:
                    1000 	.endo	..gh.f.a.1.e.4
                    1001 	.global	CanTp_RxInit..C.3A.5CVector.5CCBD1800257_D01_S32K1xx.5CApplications.5CS32K144_Start_new.5CAppl.5Cobj.5CCanTp.
                    1002 CanTp_RxInit..C.3A.5CVector.5CCBD1800257_D01_S32K1xx.5CApplications.5CS32K144_Start_new.5CAppl.5Cobj.5CCanTp.:
                    1003 CanTp_RxInit:
00000522 b5f0       1004 	push	{r4-r7,lr}
00000524 b083       1005 	sub	sp,12
00000526 4604       1006 	cpy	r4,r0
00000528 460e       1007 	cpy	r6,r1
0000052a 9302       1008 	str	r3,[sp,8]
0000052c 4617       1009 	cpy	r7,r2
                    1010 .LDW82:
0000052e 2500       1011 	movs	r5,0
00000530 9501       1012 	str	r5,[sp,4]
00000532 7a83       1013 	ldrb	r3,[r0,10]
00000534 7841       1014 	ldrb	r1,[r0,1]
00000536 9300       1015 	str	r3,[sp]
00000538 20ff       1016 	movs	r0,255
0000053a 0689       1017 	lsls	r1,r1,26
0000053c d503*      1018 	bpl	.L9699
                    1019 ;line3292
                    1020 ..lin.f47d2a15..5b6a6ab8.0_34::
                    1021 .LDWlin34:
0000053e 495b*      1022 	ldr	r1,.L9695
00000540 2201       1023 	movs	r2,1
00000542 7008       1024 	strb	r0,[r1]
00000544 704a       1025 	strb	r2,[r1,1]
                    1026 .L9699:

                                                                      Page 18
                                                              C:\Users\Fengyuan\AppData\Local\Temp\gh_0000kos1.s
00000546 2e80       1027 	cmp	r6,128
00000548 d003*      1028 	beq	.L9707
                    1029 ;line3304
                    1030 ..lin.f47d2a15..5b6a6ab8.0_35::
                    1031 .LDWlin35:
0000054a 7ea1       1032 	ldrb	r1,[r4,26]
0000054c 2901       1033 	cmp	r1,1
0000054e d100*      1034 	bne	.L9707
                    1035 ;line3307
                    1036 ..lin.f47d2a15..5b6a6ab8.0_36::
                    1037 .LDWlin36:
00000550 9101       1038 	str	r1,[sp,4]
                    1039 .L9707:
00000552 72a0       1040 	strb	r0,[r4,10]
00000554 2004       1041 	movs	r0,4
00000556 7065       1042 	strb	r5,[r4,1]
00000558 7020       1043 	strb	r0,[r4]
0000055a 4d56*      1044 	ldr	r5,.L9935
0000055c 2108       1045 	movs	r1,8
0000055e 1ca0       1046 	adds	r0,r4,2
00000560 47a8       1047 	blx	r5
00000562 2000       1048 	movs	r0,0
00000564 81a0       1049 	strh	r0,[r4,12]
00000566 73a0       1050 	strb	r0,[r4,14]
00000568 73e0       1051 	strb	r0,[r4,15]
0000056a f1140017   1052 	adds	r0,r4,23
0000056e 2104       1053 	movs	r1,4
00000570 47a8       1054 	blx	r5
00000572 9a02       1055 	ldr	r2,[sp,8]
00000574 b90a*      1056 	cbnz	r2,.L9709
00000576 9800       1057 	ldr	r0,[sp]
00000578 72a0       1058 	strb	r0,[r4,10]
                    1059 .L9709:
0000057a 9801       1060 	ldr	r0,[sp,4]
0000057c b140*      1061 	cbz	r0,.L9711
0000057e 9800       1062 	ldr	r0,[sp]
00000580 4a49*      1063 	ldr	r2,.L9586
00000582 eb1000c0   1064 	adds	r0,r0,r0 lsl 3
00000586 1880       1065 	adds	r0,r0,r2
00000588 4a4b*      1066 	ldr	r2,.L9936
0000058a 7840       1067 	ldrb	r0,[r0,1]
0000058c 4631       1068 	cpy	r1,r6
0000058e 4790       1069 	blx	r2
                    1070 .L9711:
00000590 2fff       1071 	cmp	r7,255
00000592 d005*      1072 	beq	.L9697
                    1073 ;line3339
                    1074 ..lin.f47d2a15..5b6a6ab8.0_37::
                    1075 .LDWlin37:
00000594 463b       1076 	cpy	r3,r7
00000596 2234       1077 	movs	r2,52
00000598 4c3f*      1078 	ldr	r4,.L9426
0000059a 2023       1079 	movs	r0,35
0000059c 2100       1080 	movs	r1,0
0000059e 47a0       1081 	blx	r4
                    1082 .L9697:
                    1083 .LDW92:
000005a0 b003       1084 	add	sp,12
000005a2 bdf0       1085 	pop	{r4-r7,pc}
                    1086 __ghs_eofn_CanTp_RxInit:
                    1087 	.endf	CanTp_RxInit

                                                                      Page 19
                                                              C:\Users\Fengyuan\AppData\Local\Temp\gh_0000kos1.s
                    1088 	.endf	CanTp_RxInit..C.3A.5CVector.5CCBD1800257_D01_S32K1xx.5CApplications.5CS32K144_Start_new.5CAppl.5Cobj.5CCanTp.
                    1089 ;lIndicationPduR	[sp,4]	local
                    1090 ;lRxHdl	[sp]	local
                    1091 
                    1092 ;pTpRxState	r4	param
                    1093 ;NotifyCode	r6	param
                    1094 ;DetError	r7	param
                    1095 ;ResetRequest	[sp,8]	param
                    1096 
                    1097 	.section ".bss","awb"
                    1098 .L9821:
                    1099 	.endo	.L9821
                    1100 	.text
                    1101 ..gh.f.a.1.e.5:
                    1102 	.endo	..gh.f.a.1.e.5
                    1103 	.global	CanTp_TxInit..C.3A.5CVector.5CCBD1800257_D01_S32K1xx.5CApplications.5CS32K144_Start_new.5CAppl.5Cobj.5CCanTp.
                    1104 CanTp_TxInit..C.3A.5CVector.5CCBD1800257_D01_S32K1xx.5CApplications.5CS32K144_Start_new.5CAppl.5Cobj.5CCanTp.:
                    1105 CanTp_TxInit:
000005a4 b570       1106 	push	{r4-r6,lr}
000005a6 4604       1107 	cpy	r4,r0
000005a8 460e       1108 	cpy	r6,r1
000005aa 4615       1109 	cpy	r5,r2
                    1110 .LDW03:
000005ac 79c1       1111 	ldrb	r1,[r0,7]
000005ae 20ff       1112 	movs	r0,255
000005b0 0689       1113 	lsls	r1,r1,26
000005b2 d503*      1114 	bpl	.L9943
                    1115 ;line3380
                    1116 ..lin.f47d2a15..6014bbfa.0_38::
                    1117 .LDWlin38:
000005b4 493d*      1118 	ldr	r1,.L9695
000005b6 2201       1119 	movs	r2,1
000005b8 7008       1120 	strb	r0,[r1]
000005ba 704a       1121 	strb	r2,[r1,1]
                    1122 .L9943:
000005bc 71a0       1123 	strb	r0,[r4,6]
000005be 2000       1124 	movs	r0,0
000005c0 71e0       1125 	strb	r0,[r4,7]
000005c2 8020       1126 	strh	r0,[r4]
000005c4 8060       1127 	strh	r0,[r4,2]
000005c6 80a0       1128 	strh	r0,[r4,4]
000005c8 4a3a*      1129 	ldr	r2,.L9935
000005ca f1140008   1130 	adds	r0,r4,8
000005ce 2104       1131 	movs	r1,4
000005d0 4790       1132 	blx	r2
000005d2 2000       1133 	movs	r0,0
000005d4 7520       1134 	strb	r0,[r4,20]
000005d6 7560       1135 	strb	r0,[r4,21]
000005d8 7320       1136 	strb	r0,[r4,12]
000005da 75a0       1137 	strb	r0,[r4,22]
000005dc 4a37*      1138 	ldr	r2,.L10029
000005de 75e0       1139 	strb	r0,[r4,23]
000005e0 4631       1140 	cpy	r1,r6
000005e2 4790       1141 	blx	r2
000005e4 2dff       1142 	cmp	r5,255
000005e6 d005*      1143 	beq	.L9937
                    1144 ;line3402
                    1145 ..lin.f47d2a15..6014bbfa.0_39::
                    1146 .LDWlin39:
000005e8 462b       1147 	cpy	r3,r5
000005ea 2235       1148 	movs	r2,53

                                                                      Page 20
                                                              C:\Users\Fengyuan\AppData\Local\Temp\gh_0000kos1.s
000005ec 4c2a*      1149 	ldr	r4,.L9426
000005ee 2023       1150 	movs	r0,35
000005f0 2100       1151 	movs	r1,0
000005f2 47a0       1152 	blx	r4
                    1153 .L9937:
                    1154 .LDW13:
000005f4 bd70       1155 	pop	{r4-r6,pc}
                    1156 __ghs_eofn_CanTp_TxInit:
                    1157 	.endf	CanTp_TxInit
                    1158 	.endf	CanTp_TxInit..C.3A.5CVector.5CCBD1800257_D01_S32K1xx.5CApplications.5CS32K144_Start_new.5CAppl.5Cobj.5CCanTp.
                    1159 
                    1160 ;pTpTxState	r4	param
                    1161 ;NotifyCode	r6	param
                    1162 ;DetError	r5	param
                    1163 
                    1164 	.section ".bss","awb"
                    1165 .L9978:
                    1166 	.endo	.L9978
                    1167 	.text
                    1168 ..gh.f.a.1.e.6:
                    1169 	.endo	..gh.f.a.1.e.6
                    1170 	.global	CanTp_ResetChannels..C.3A.5CVector.5CCBD1800257_D01_S32K1xx.5CApplications.5CS32K144_Start_new.5CAppl.5Cobj.5CCanTp.
                    1171 CanTp_ResetChannels..C.3A.5CVector.5CCBD1800257_D01_S32K1xx.5CApplications.5CS32K144_Start_new.5CAppl.5Cobj.5CCanTp.:
                    1172 CanTp_ResetChannels:
                    1173 .LDW23:
                    1174 .LDW33:
                    1175 
000005f6 2002       1176 	movs	r0,2
                    1177 .L10146:
000005f8 3801       1178 	subs	r0,1
000005fa d1fd*      1179 	bne	.L10146
                    1180 .LDW43:
                    1181 
                    1182 .LDW53:
                    1183 
                    1184 .L10040:
                    1185 ;line3469
                    1186 ..lin.f47d2a15..4517a489.0_40::
                    1187 .LDWlin40:
000005fc 4a30*      1188 	ldr	r2,.L10324
000005fe 211c       1189 	movs	r1,28
00000600 fb002101   1190 	mla	r1,r0,r1,r2
00000604 22ff       1191 	movs	r2,255
00000606 2304       1192 	movs	r3,4
00000608 700b       1193 	strb	r3,[r1]
0000060a 728a       1194 	strb	r2,[r1,10]
0000060c 2300       1195 	movs	r3,0
0000060e 704b       1196 	strb	r3,[r1,1]
00000610 804b       1197 	strh	r3,[r1,2]
00000612 808b       1198 	strh	r3,[r1,4]
00000614 80cb       1199 	strh	r3,[r1,6]
00000616 810b       1200 	strh	r3,[r1,8]
00000618 818b       1201 	strh	r3,[r1,12]
0000061a 81cb       1202 	strh	r3,[r1,14]
0000061c 75cb       1203 	strb	r3,[r1,23]
0000061e 830b       1204 	strh	r3,[r1,24]
00000620 768b       1205 	strb	r3,[r1,26]
00000622 3001       1206 	adds	r0,1
00000624 2802       1207 	cmp	r0,2
00000626 d3e9*      1208 	blo	.L10040
                    1209 ;line3475

                                                                      Page 21
                                                              C:\Users\Fengyuan\AppData\Local\Temp\gh_0000kos1.s
                    1210 ..lin.f47d2a15..4517a489.0_41::
                    1211 .LDWlin41:
00000628 4826*      1212 	ldr	r0,.L10325
0000062a 7182       1213 	strb	r2,[r0,6]
0000062c 71c3       1214 	strb	r3,[r0,7]
0000062e 8003       1215 	strh	r3,[r0]
00000630 8043       1216 	strh	r3,[r0,2]
00000632 8083       1217 	strh	r3,[r0,4]
00000634 8103       1218 	strh	r3,[r0,8]
00000636 8143       1219 	strh	r3,[r0,10]
00000638 8283       1220 	strh	r3,[r0,20]
0000063a 7303       1221 	strb	r3,[r0,12]
0000063c 82c3       1222 	strh	r3,[r0,22]
                    1223 .LDW63:
                    1224 
                    1225 .LDW73:
                    1226 
0000063e 481b*      1227 	ldr	r0,.L9695
00000640 2101       1228 	movs	r1,1
00000642 7002       1229 	strb	r2,[r0]
00000644 7041       1230 	strb	r1,[r0,1]
                    1231 .LDW83:
                    1232 
                    1233 .LDW93:
00000646 4770       1234 	ret
                    1235 __ghs_eofn_CanTp_ResetChannels:
                    1236 	.endf	CanTp_ResetChannels
                    1237 	.endf	CanTp_ResetChannels..C.3A.5CVector.5CCBD1800257_D01_S32K1xx.5CApplications.5CS32K144_Start_new.5CAppl.5Cobj.5CCanTp.
                    1238 
                    1239 	.section ".bss","awb"
                    1240 .L10269:
                    1241 	.endo	.L10269
                    1242 	.text
                    1243 ..gh.f.a.1.e.7:
                    1244 	.endo	..gh.f.a.1.e.7
                    1245 	.global	CanTp_RxGetBuffer..C.3A.5CVector.5CCBD1800257_D01_S32K1xx.5CApplications.5CS32K144_Start_new.5CAppl.5Cobj.5CCanTp.
                    1246 CanTp_RxGetBuffer..C.3A.5CVector.5CCBD1800257_D01_S32K1xx.5CApplications.5CS32K144_Start_new.5CAppl.5Cobj.5CCanTp.:
                    1247 CanTp_RxGetBuffer:
00000648 b570       1248 	push	{r4-r6,lr}
0000064a b08a       1249 	sub	sp,40
0000064c 4605       1250 	cpy	r5,r0
                    1251 .LDW04:
0000064e 7b80       1252 	ldrb	r0,[r0,14]
00000650 4e15*      1253 	ldr	r6,.L9586
00000652 2802       1254 	cmp	r0,2
00000654 d10e*      1255 	bne	.L10328
                    1256 ;line3532
                    1257 ..lin.f47d2a15..a9060d9e.0_42::
                    1258 .LDWlin42:
00000656 ab09       1259 	add	r3,sp,36
00000658 2000       1260 	movs	r0,0
0000065a 8018       1261 	strh	r0,[r3]
0000065c 7aa8       1262 	ldrb	r0,[r5,10]
0000065e f1150208   1263 	adds	r2,r5,8
00000662 1f19       1264 	subs	r1,r3,4
00000664 eb1000c0   1265 	adds	r0,r0,r0 lsl 3
00000668 1830       1266 	adds	r0,r6,r0
0000066a 4b17*      1267 	ldr	r3,.L11557
0000066c 7840       1268 	ldrb	r0,[r0,1]
0000066e 4798       1269 	blx	r3
00000670 73a8       1270 	strb	r0,[r5,14]

                                                                      Page 22
                                                              C:\Users\Fengyuan\AppData\Local\Temp\gh_0000kos1.s
00000672 7ba8       1271 	ldrb	r0,[r5,14]
                    1272 .L10328:
00000674 7869       1273 	ldrb	r1,[r5,1]
00000676 2902       1274 	cmp	r1,2
00000678 f000810b*  1275 	beq	.L10402
0000067c 2941       1276 	cmp	r1,65
0000067e d304*      1277 	blo	.L10335
00000680 d024*      1278 	beq	.L10339
00000682 2943       1279 	cmp	r1,67
00000684 d342*      1280 	blo	.L10350
00000686 f000808a*  1281 	beq	.L10370
                    1282 .L10335:
                    1283 ;line3564
                    1284 ..lin.f47d2a15..a9060d9e.0_43::
                    1285 .LDWlin43:
0000068a 23b1       1286 	movs	r3,177
0000068c 2230       1287 	movs	r2,48
0000068e 2023       1288 	movs	r0,35
00000690 4c01*      1289 	ldr	r4,.L9426
00000692 2100       1290 	movs	r1,0
                    1291 .L11489:
                    1292 
00000694 47a0       1293 	blx	r4
00000696 e13e*      1294 	b	.L10326
                    1295 ;line3565
                    1296 ..lin.f47d2a15..a9060d9e.0_44::
                    1297 .LDWlin44:
                    1298 	.align	4
00000698 00000000*  1299 .L9426:	.data.w	Det_ReportError
                    1300 	.endo	.L9426
                    1301 
0000069c 00000000*  1302 .L9427:	.data.w	CanTp_TxGetBuffer
                    1303 	.endo	.L9427
                    1304 
000006a0 00000000*  1305 .L9428:	.data.w	CanTp_TxInit
                    1306 	.endo	.L9428
                    1307 
000006a4 00000000*  1308 .L9585:	.data.w	CanTp_RxInit
                    1309 	.endo	.L9585
                    1310 
000006a8 00000000*  1311 .L9586:	.data.w	CanTp_RxSduCfg
                    1312 	.endo	.L9586
                    1313 
000006ac 00000000*  1314 .L9695:	.data.w	CanTp_TxSemaphores
                    1315 	.endo	.L9695
                    1316 
000006b0 00000000*  1317 .L9696:	.data.w	CanIf_Transmit
                    1318 	.endo	.L9696
                    1319 
000006b4 00000000*  1320 .L9935:	.data.w	__gh_memclr
                    1321 	.endo	.L9935
                    1322 
000006b8 00000000*  1323 .L9936:	.data.w	PduR_CanTpRxIndication
                    1324 	.endo	.L9936
                    1325 
000006bc 00000000*  1326 .L10029:	.data.w	PduR_CanTpTxConfirmation
                    1327 	.endo	.L10029
                    1328 
000006c0 00000000*  1329 .L10324:	.data.w	CanTp_RxState
                    1330 	.endo	.L10324
                    1331 

                                                                      Page 23
                                                              C:\Users\Fengyuan\AppData\Local\Temp\gh_0000kos1.s
000006c4 00000000*  1332 .L10325:	.data.w	CanTp_TxState
                    1333 	.endo	.L10325
                    1334 
000006c8 00000000*  1335 .L11557:	.data.w	PduR_CanTpCopyRxData
                    1336 	.endo	.L11557
                    1337 
                    1338 .L10339:
                    1339 ;line3544
                    1340 ..lin.f47d2a15..a9060d9e.0_45::
                    1341 .LDWlin45:
000006cc b9d0*      1342 	cbnz	r0,.L10344
000006ce 7de9       1343 	ldrb	r1,[r5,23]
000006d0 892a       1344 	ldrh	r2,[r5,8]
000006d2 428a       1345 	cmp	r2,r1
000006d4 d316*      1346 	blo	.L10344
000006d6 ab07       1347 	add	r3,sp,28
000006d8 8019       1348 	strh	r1,[r3]
000006da f1150010   1349 	adds	r0,r5,16
000006de 9006       1350 	str	r0,[sp,24]
000006e0 f1b00208   1351 	subs	r2,r0,8
000006e4 7aa8       1352 	ldrb	r0,[r5,10]
000006e6 1f19       1353 	subs	r1,r3,4
000006e8 eb1000c0   1354 	adds	r0,r0,r0 lsl 3
000006ec 1830       1355 	adds	r0,r6,r0
000006ee 4bd1*      1356 	ldr	r3,.L11558
000006f0 7840       1357 	ldrb	r0,[r0,1]
000006f2 4798       1358 	blx	r3
000006f4 73a8       1359 	strb	r0,[r5,14]
000006f6 0600       1360 	lsls	r0,r0,24
000006f8 d12e*      1361 	bne	.L10420
                    1362 .L10409:
000006fa 4628       1363 	cpy	r0,r5
000006fc 22ff       1364 	movs	r2,255
000006fe 2301       1365 	movs	r3,1
00000700 2100       1366 	movs	r1,0
00000702 e02d*      1367 	b	.L11488
                    1368 .L10344:
00000704 2802       1369 	cmp	r0,2
00000706 f0008106*  1370 	beq	.L10326
0000070a e025*      1371 	b	.L10420
                    1372 .L10350:
                    1373 ;line3549
                    1374 ..lin.f47d2a15..a9060d9e.0_46::
                    1375 .LDWlin46:
0000070c 7de9       1376 	ldrb	r1,[r5,23]
0000070e 8928       1377 	ldrh	r0,[r5,8]
00000710 4288       1378 	cmp	r0,r1
00000712 d30f*      1379 	blo	.L10352
00000714 ab05       1380 	add	r3,sp,20
00000716 8019       1381 	strh	r1,[r3]
00000718 f1150010   1382 	adds	r0,r5,16
0000071c 9004       1383 	str	r0,[sp,16]
0000071e f1b00208   1384 	subs	r2,r0,8
00000722 7aa8       1385 	ldrb	r0,[r5,10]
00000724 1f19       1386 	subs	r1,r3,4
00000726 eb1000c0   1387 	adds	r0,r0,r0 lsl 3
0000072a 1830       1388 	adds	r0,r6,r0
0000072c 4bc1*      1389 	ldr	r3,.L11558
0000072e 7840       1390 	ldrb	r0,[r0,1]
00000730 4798       1391 	blx	r3
00000732 e000*      1392 	b	.L10353

                                                                      Page 24
                                                              C:\Users\Fengyuan\AppData\Local\Temp\gh_0000kos1.s
                    1393 .L10352:
00000734 2001       1394 	movs	r0,1
                    1395 .L10353:
00000736 73a8       1396 	strb	r0,[r5,14]
00000738 7ba8       1397 	ldrb	r0,[r5,14]
0000073a b198*      1398 	cbz	r0,.L10354
0000073c 2802       1399 	cmp	r0,2
0000073e f00080a0*  1400 	beq	.L10396
00000742 2803       1401 	cmp	r0,3
00000744 d108*      1402 	bne	.L10420
                    1403 .L10365:
00000746 7aa8       1404 	ldrb	r0,[r5,10]
00000748 eb1000c0   1405 	adds	r0,r0,r0 lsl 3
0000074c 1830       1406 	adds	r0,r6,r0
0000074e 7900       1407 	ldrb	r0,[r0,4]
00000750 8068       1408 	strh	r0,[r5,2]
00000752 2013       1409 	movs	r0,19
                    1410 .L11485:
                    1411 
                    1412 .L11486:
                    1413 
00000754 7068       1414 	strb	r0,[r5,1]
00000756 e08c*      1415 	b	.L11487
                    1416 .L10420:
00000758 4628       1417 	cpy	r0,r5
0000075a 2260       1418 	movs	r2,96
0000075c 2301       1419 	movs	r3,1
0000075e 4619       1420 	cpy	r1,r3
                    1421 .L11488:
                    1422 
00000760 4cb5*      1423 	ldr	r4,.L11559
00000762 e797*      1424 	b	.L11489
                    1425 .L10354:
00000764 88e9       1426 	ldrh	r1,[r5,6]
00000766 7de8       1427 	ldrb	r0,[r5,23]
00000768 1809       1428 	adds	r1,r1,r0
0000076a 80e9       1429 	strh	r1,[r5,6]
0000076c 88e9       1430 	ldrh	r1,[r5,6]
0000076e 2000       1431 	movs	r0,0
00000770 75e8       1432 	strb	r0,[r5,23]
00000772 782a       1433 	ldrb	r2,[r5]
00000774 2007       1434 	movs	r0,7
00000776 2a01       1435 	cmp	r2,1
00000778 d005*      1436 	beq	.L10357
0000077a 48b0*      1437 	ldr	r0,.L11560
0000077c 7aaa       1438 	ldrb	r2,[r5,10]
0000077e 5c80       1439 	ldrb	r0,[r0,r2]
00000780 ebd000c0   1440 	rsbs	r0,r0,r0 lsl 3
00000784 b280       1441 	uxth	r0,r0
                    1442 .L10357:
00000786 88aa       1443 	ldrh	r2,[r5,4]
00000788 1a51       1444 	subs	r1,r2,r1
0000078a 4288       1445 	cmp	r0,r1
0000078c dd00*      1446 	ble	.L10360
0000078e b288       1447 	uxth	r0,r1
                    1448 .L10360:
00000790 892a       1449 	ldrh	r2,[r5,8]
00000792 2111       1450 	movs	r1,17
00000794 4282       1451 	cmp	r2,r0
00000796 d200*      1452 	bhs	.L10585
00000798 2112       1453 	movs	r1,18

                                                                      Page 25
                                                              C:\Users\Fengyuan\AppData\Local\Temp\gh_0000kos1.s
                    1454 .L10585:
0000079a 7069       1455 	strb	r1,[r5,1]
0000079c e063*      1456 	b	.L10393
                    1457 .L10370:
                    1458 ;line3554
                    1459 ..lin.f47d2a15..a9060d9e.0_47::
                    1460 .LDWlin47:
0000079e b9b0*      1461 	cbnz	r0,.L10374
000007a0 7de9       1462 	ldrb	r1,[r5,23]
000007a2 8928       1463 	ldrh	r0,[r5,8]
000007a4 4288       1464 	cmp	r0,r1
000007a6 d30f*      1465 	blo	.L10373
000007a8 ab03       1466 	add	r3,sp,12
000007aa 8019       1467 	strh	r1,[r3]
000007ac f1150010   1468 	adds	r0,r5,16
000007b0 9002       1469 	str	r0,[sp,8]
000007b2 f1b00208   1470 	subs	r2,r0,8
000007b6 7aa8       1471 	ldrb	r0,[r5,10]
000007b8 1f19       1472 	subs	r1,r3,4
000007ba eb1000c0   1473 	adds	r0,r0,r0 lsl 3
000007be 1830       1474 	adds	r0,r6,r0
000007c0 4b9c*      1475 	ldr	r3,.L11558
000007c2 7840       1476 	ldrb	r0,[r0,1]
000007c4 4798       1477 	blx	r3
000007c6 e000*      1478 	b	.L10584
                    1479 .L10373:
000007c8 2001       1480 	movs	r0,1
                    1481 .L10584:
000007ca 73a8       1482 	strb	r0,[r5,14]
000007cc 7ba8       1483 	ldrb	r0,[r5,14]
                    1484 .L10374:
000007ce b110*      1485 	cbz	r0,.L10375
000007d0 2802       1486 	cmp	r0,2
000007d2 d1c1*      1487 	bne	.L10420
000007d4 e051*      1488 	b	.L10395
                    1489 .L10375:
000007d6 7de8       1490 	ldrb	r0,[r5,23]
000007d8 88e9       1491 	ldrh	r1,[r5,6]
000007da 1809       1492 	adds	r1,r1,r0
000007dc 80e9       1493 	strh	r1,[r5,6]
000007de 88e9       1494 	ldrh	r1,[r5,6]
000007e0 2000       1495 	movs	r0,0
000007e2 88aa       1496 	ldrh	r2,[r5,4]
000007e4 75e8       1497 	strb	r0,[r5,23]
000007e6 4291       1498 	cmp	r1,r2
000007e8 d287*      1499 	bhs	.L10409
000007ea 2001       1500 	movs	r0,1
000007ec 7068       1501 	strb	r0,[r5,1]
000007ee 7be8       1502 	ldrb	r0,[r5,15]
000007f0 3801       1503 	subs	r0,1
000007f2 f0c08090*  1504 	blo	.L10326
000007f6 73e8       1505 	strb	r0,[r5,15]
000007f8 0600       1506 	lsls	r0,r0,24
000007fa f040808c*  1507 	bne	.L10326
000007fe 7828       1508 	ldrb	r0,[r5]
00000800 2407       1509 	movs	r4,7
00000802 2801       1510 	cmp	r0,1
00000804 d005*      1511 	beq	.L10382
00000806 488d*      1512 	ldr	r0,.L11560
00000808 7aac       1513 	ldrb	r4,[r5,10]
0000080a 5d04       1514 	ldrb	r4,[r0,r4]

                                                                      Page 26
                                                              C:\Users\Fengyuan\AppData\Local\Temp\gh_0000kos1.s
0000080c ebd404c4   1515 	rsbs	r4,r4,r4 lsl 3
00000810 b2a4       1516 	uxth	r4,r4
                    1517 .L10382:
00000812 1a51       1518 	subs	r1,r2,r1
00000814 428c       1519 	cmp	r4,r1
00000816 dd00*      1520 	ble	.L10385
00000818 b28c       1521 	uxth	r4,r1
                    1522 .L10385:
0000081a 8928       1523 	ldrh	r0,[r5,8]
0000081c 42a0       1524 	cmp	r0,r4
0000081e d214*      1525 	bhs	.L10389
00000820 ab03       1526 	add	r3,sp,12
00000822 2000       1527 	movs	r0,0
00000824 8018       1528 	strh	r0,[r3]
00000826 7aa8       1529 	ldrb	r0,[r5,10]
00000828 f1150208   1530 	adds	r2,r5,8
0000082c 1f19       1531 	subs	r1,r3,4
0000082e eb1000c0   1532 	adds	r0,r0,r0 lsl 3
00000832 1830       1533 	adds	r0,r6,r0
00000834 4b7f*      1534 	ldr	r3,.L11558
00000836 7840       1535 	ldrb	r0,[r0,1]
00000838 4798       1536 	blx	r3
0000083a 73a8       1537 	strb	r0,[r5,14]
0000083c 7ba8       1538 	ldrb	r0,[r5,14]
0000083e 2112       1539 	movs	r1,18
00000840 7069       1540 	strb	r1,[r5,1]
00000842 b928*      1541 	cbnz	r0,.L10390
00000844 8928       1542 	ldrh	r0,[r5,8]
00000846 42a0       1543 	cmp	r0,r4
00000848 d30a*      1544 	blo	.L10392
                    1545 .L10389:
0000084a 2011       1546 	movs	r0,17
0000084c 7068       1547 	strb	r0,[r5,1]
0000084e e007*      1548 	b	.L10392
                    1549 .L10390:
00000850 2802       1550 	cmp	r0,2
00000852 d005*      1551 	beq	.L10392
00000854 4628       1552 	cpy	r0,r5
00000856 2260       1553 	movs	r2,96
00000858 4c77*      1554 	ldr	r4,.L11559
0000085a 2301       1555 	movs	r3,1
0000085c 4619       1556 	cpy	r1,r3
0000085e 47a0       1557 	blx	r4
                    1558 .L10392:
00000860 7868       1559 	ldrb	r0,[r5,1]
00000862 2800       1560 	cmp	r0,0
00000864 d057*      1561 	beq	.L10326
                    1562 .L10393:
00000866 7aa8       1563 	ldrb	r0,[r5,10]
00000868 eb1000c0   1564 	adds	r0,r0,r0 lsl 3
0000086c 1830       1565 	adds	r0,r6,r0
0000086e 7900       1566 	ldrb	r0,[r0,4]
00000870 8068       1567 	strh	r0,[r5,2]
                    1568 .L11487:
                    1569 
00000872 4973*      1570 	ldr	r1,.L11561
00000874 4628       1571 	cpy	r0,r5
00000876 4788       1572 	blx	r1
00000878 e04d*      1573 	b	.L10326
                    1574 .L10395:
0000087a 7be8       1575 	ldrb	r0,[r5,15]

                                                                      Page 27
                                                              C:\Users\Fengyuan\AppData\Local\Temp\gh_0000kos1.s
0000087c 2801       1576 	cmp	r0,1
0000087e f47faf6b*  1577 	bne	.L10420
                    1578 .L10396:
00000882 7aa8       1579 	ldrb	r0,[r5,10]
00000884 eb1000c0   1580 	adds	r0,r0,r0 lsl 3
00000888 1830       1581 	adds	r0,r6,r0
0000088a 7900       1582 	ldrb	r0,[r0,4]
0000088c 8068       1583 	strh	r0,[r5,2]
0000088e 2012       1584 	movs	r0,18
00000890 e760*      1585 	b	.L11486
                    1586 .L10402:
                    1587 ;line3559
                    1588 ..lin.f47d2a15..a9060d9e.0_48::
                    1589 .LDWlin48:
00000892 b9b8*      1590 	cbnz	r0,.L10407
00000894 7de9       1591 	ldrb	r1,[r5,23]
00000896 b1a9*      1592 	cbz	r1,.L10407
00000898 8928       1593 	ldrh	r0,[r5,8]
0000089a 4288       1594 	cmp	r0,r1
0000089c d30f*      1595 	blo	.L10406
0000089e f8ad1004   1596 	strh	r1,[sp,4]
000008a2 f1150010   1597 	adds	r0,r5,16
000008a6 9000       1598 	str	r0,[sp]
000008a8 f1b00208   1599 	subs	r2,r0,8
000008ac 7aa8       1600 	ldrb	r0,[r5,10]
000008ae 4b61*      1601 	ldr	r3,.L11558
000008b0 eb1000c0   1602 	adds	r0,r0,r0 lsl 3
000008b4 1830       1603 	adds	r0,r6,r0
000008b6 7840       1604 	ldrb	r0,[r0,1]
000008b8 4669       1605 	mov	r1,sp
000008ba 4798       1606 	blx	r3
000008bc e000*      1607 	b	.L10586
                    1608 .L10406:
000008be 2002       1609 	movs	r0,2
                    1610 .L10586:
000008c0 73a8       1611 	strb	r0,[r5,14]
000008c2 7ba8       1612 	ldrb	r0,[r5,14]
                    1613 .L10407:
000008c4 2800       1614 	cmp	r0,0
000008c6 f47faf1d*  1615 	bne	.L10344
                    1616 .L10408:
000008ca 7de8       1617 	ldrb	r0,[r5,23]
000008cc 88e9       1618 	ldrh	r1,[r5,6]
000008ce 1809       1619 	adds	r1,r1,r0
000008d0 80e9       1620 	strh	r1,[r5,6]
000008d2 88e9       1621 	ldrh	r1,[r5,6]
000008d4 2000       1622 	movs	r0,0
000008d6 88aa       1623 	ldrh	r2,[r5,4]
000008d8 75e8       1624 	strb	r0,[r5,23]
000008da 4291       1625 	cmp	r1,r2
000008dc f4bfaf0d*  1626 	bhs	.L10409
000008e0 782b       1627 	ldrb	r3,[r5]
000008e2 2007       1628 	movs	r0,7
000008e4 2b01       1629 	cmp	r3,1
000008e6 d005*      1630 	beq	.L10413
000008e8 4854*      1631 	ldr	r0,.L11560
000008ea 7aab       1632 	ldrb	r3,[r5,10]
000008ec 5cc0       1633 	ldrb	r0,[r0,r3]
000008ee ebd000c0   1634 	rsbs	r0,r0,r0 lsl 3
000008f2 b280       1635 	uxth	r0,r0
                    1636 .L10413:

                                                                      Page 28
                                                              C:\Users\Fengyuan\AppData\Local\Temp\gh_0000kos1.s
000008f4 1a51       1637 	subs	r1,r2,r1
000008f6 4288       1638 	cmp	r0,r1
000008f8 dd00*      1639 	ble	.L10416
000008fa b288       1640 	uxth	r0,r1
                    1641 .L10416:
000008fc 8929       1642 	ldrh	r1,[r5,8]
000008fe 4281       1643 	cmp	r1,r0
00000900 d307*      1644 	blo	.L10418
00000902 7aa8       1645 	ldrb	r0,[r5,10]
00000904 eb1000c0   1646 	adds	r0,r0,r0 lsl 3
00000908 1830       1647 	adds	r0,r6,r0
0000090a 7900       1648 	ldrb	r0,[r0,4]
0000090c 8068       1649 	strh	r0,[r5,2]
0000090e 2011       1650 	movs	r0,17
00000910 e720*      1651 	b	.L11485
                    1652 .L10418:
00000912 2002       1653 	movs	r0,2
00000914 73a8       1654 	strb	r0,[r5,14]
                    1655 .L10326:
                    1656 .LDW14:
                    1657 ;line3567
                    1658 ..lin.f47d2a15..a9060d9e.0_49::
                    1659 .LDWlin49:
00000916 b00a       1660 	add	sp,40
00000918 bd70       1661 	pop	{r4-r6,pc}
                    1662 __ghs_eofn_CanTp_RxGetBuffer:
                    1663 	.endf	CanTp_RxGetBuffer
                    1664 	.endf	CanTp_RxGetBuffer..C.3A.5CVector.5CCBD1800257_D01_S32K1xx.5CApplications.5CS32K144_Start_new.5CAppl.5Cobj.5CCanTp.
                    1665 ;lPduInfo	[sp,32]	local
                    1666 ;lPduInfo	[sp,24]	local
                    1667 ;lPduInfo	[sp,16]	local
                    1668 ;lBytesPerBlock	r0	local
                    1669 ;lPduInfo	[sp,8]	local
                    1670 ;lBytesPerBlock	r4	local
                    1671 ;lBytesPerBlock	r4	local
                    1672 ;lPduInfo	[sp]	local
                    1673 ;lBytesPerBlock	r0	local
                    1674 
                    1675 ;pTpRxState	r5	param
                    1676 
                    1677 	.section ".bss","awb"
                    1678 .L10902:
                    1679 	.endo	.L10902
                    1680 	.text
                    1681 ..gh.f.a.1.e.8:
                    1682 	.endo	..gh.f.a.1.e.8
                    1683 	.global	CanTp_TxGetBuffer..C.3A.5CVector.5CCBD1800257_D01_S32K1xx.5CApplications.5CS32K144_Start_new.5CAppl.5Cobj.5CCanTp.
                    1684 CanTp_TxGetBuffer..C.3A.5CVector.5CCBD1800257_D01_S32K1xx.5CApplications.5CS32K144_Start_new.5CAppl.5Cobj.5CCanTp.:
                    1685 CanTp_TxGetBuffer:
0000091a b570       1686 	push	{r4-r6,lr}
0000091c b083       1687 	sub	sp,12
0000091e 4604       1688 	cpy	r4,r0
                    1689 .LDW24:
00000920 79c0       1690 	ldrb	r0,[r0,7]
00000922 2841       1691 	cmp	r0,65
00000924 d303*      1692 	blo	.L11568
00000926 d009*      1693 	beq	.L11565
00000928 2843       1694 	cmp	r0,67
0000092a d30b*      1695 	blo	.L11566
0000092c d00e*      1696 	beq	.L11567
                    1697 .L11568:

                                                                      Page 29
                                                              C:\Users\Fengyuan\AppData\Local\Temp\gh_0000kos1.s
                    1698 ;line3634
                    1699 ..lin.f47d2a15..b3bf7820.0_50::
                    1700 .LDWlin50:
0000092e 23b2       1701 	movs	r3,178
00000930 2231       1702 	movs	r2,49
00000932 4c44*      1703 	ldr	r4,.L11757
00000934 2023       1704 	movs	r0,35
00000936 2100       1705 	movs	r1,0
00000938 47a0       1706 	blx	r4
0000093a e02e*      1707 	b	.L11562
                    1708 .L11565:
                    1709 ;line3600
                    1710 ..lin.f47d2a15..b3bf7820.0_51::
                    1711 .LDWlin51:
0000093c 78a0       1712 	ldrb	r0,[r4,2]
0000093e 7520       1713 	strb	r0,[r4,20]
00000940 2511       1714 	movs	r5,17
00000942 e00e*      1715 	b	.L11570
                    1716 .L11566:
                    1717 ;line3615
                    1718 ..lin.f47d2a15..b3bf7820.0_52::
                    1719 .LDWlin52:
00000944 2006       1720 	movs	r0,6
00000946 7520       1721 	strb	r0,[r4,20]
00000948 2512       1722 	movs	r5,18
0000094a e00a*      1723 	b	.L11570
                    1724 .L11567:
                    1725 ;line3622
                    1726 ..lin.f47d2a15..b3bf7820.0_53::
                    1727 .LDWlin53:
0000094c 2007       1728 	movs	r0,7
0000094e 7520       1729 	strb	r0,[r4,20]
00000950 2513       1730 	movs	r5,19
00000952 88a1       1731 	ldrh	r1,[r4,4]
00000954 8862       1732 	ldrh	r2,[r4,2]
00000956 1dcb       1733 	adds	r3,r1,7
00000958 4293       1734 	cmp	r3,r2
0000095a dd02*      1735 	ble	.L11570
                    1736 ;line3628
                    1737 ..lin.f47d2a15..b3bf7820.0_54::
                    1738 .LDWlin54:
0000095c 1a50       1739 	subs	r0,r2,r1
0000095e 7520       1740 	strb	r0,[r4,20]
00000960 7d20       1741 	ldrb	r0,[r4,20]
                    1742 .L11570:
00000962 f114010d   1743 	adds	r1,r4,13
00000966 aa02       1744 	add	r2,sp,8
00000968 9101       1745 	str	r1,[sp,4]
0000096a 8010       1746 	strh	r0,[r2]
0000096c 1f93       1747 	subs	r3,r2,6
0000096e 1f11       1748 	subs	r1,r2,4
00000970 4e35*      1749 	ldr	r6,.L11758
00000972 2200       1750 	movs	r2,0
00000974 4610       1751 	cpy	r0,r2
00000976 47b0       1752 	blx	r6
00000978 7220       1753 	strb	r0,[r4,8]
0000097a 7a20       1754 	ldrb	r0,[r4,8]
0000097c b930*      1755 	cbnz	r0,.L11574
0000097e 2015       1756 	movs	r0,21
00000980 8020       1757 	strh	r0,[r4]
00000982 4932*      1758 	ldr	r1,.L11759

                                                                      Page 30
                                                              C:\Users\Fengyuan\AppData\Local\Temp\gh_0000kos1.s
00000984 71e5       1759 	strb	r5,[r4,7]
00000986 4620       1760 	cpy	r0,r4
00000988 4788       1761 	blx	r1
0000098a e006*      1762 	b	.L11562
                    1763 .L11574:
                    1764 ;line3656
                    1765 ..lin.f47d2a15..b3bf7820.0_55::
                    1766 .LDWlin55:
0000098c 2802       1767 	cmp	r0,2
0000098e d004*      1768 	beq	.L11562
                    1769 ;line3659
                    1770 ..lin.f47d2a15..b3bf7820.0_56::
                    1771 .LDWlin56:
00000990 4620       1772 	cpy	r0,r4
00000992 4b2f*      1773 	ldr	r3,.L11760
00000994 2250       1774 	movs	r2,80
00000996 2101       1775 	movs	r1,1
00000998 4798       1776 	blx	r3
                    1777 .L11562:
                    1778 .LDW34:
0000099a b003       1779 	add	sp,12
0000099c bd70       1780 	pop	{r4-r6,pc}
                    1781 __ghs_eofn_CanTp_TxGetBuffer:
                    1782 	.endf	CanTp_TxGetBuffer
                    1783 	.endf	CanTp_TxGetBuffer..C.3A.5CVector.5CCBD1800257_D01_S32K1xx.5CApplications.5CS32K144_Start_new.5CAppl.5Cobj.5CCanTp.
                    1784 ;lPduInfo	[sp,4]	local
                    1785 ;lNewChannelState	r5	local
                    1786 ;lRemainingBufferSize	[sp,2]	local
                    1787 
                    1788 ;pTpTxState	r4	param
                    1789 
                    1790 	.section ".bss","awb"
                    1791 .L11634:
                    1792 	.endo	.L11634
                    1793 	.text
                    1794 ..gh.f.a.1.e.9:
                    1795 	.endo	..gh.f.a.1.e.9
                    1796 	.global	CanTp_RxTransmitFrame..C.3A.5CVector.5CCBD1800257_D01_S32K1xx.5CApplications.5CS32K144_Start_new.5CAppl.5Cobj.5CCanTp.
                    1797 CanTp_RxTransmitFrame..C.3A.5CVector.5CCBD1800257_D01_S32K1xx.5CApplications.5CS32K144_Start_new.5CAppl.5Cobj.5CCanTp.:
                    1798 CanTp_RxTransmitFrame:
0000099e b5f0       1799 	push	{r4-r7,lr}
000009a0 b086       1800 	sub	sp,24
000009a2 4604       1801 	cpy	r4,r0
                    1802 .LDW44:
000009a4 a802       1803 	add	r0,sp,8
000009a6 9004       1804 	str	r0,[sp,16]
000009a8 2000       1805 	movs	r0,0
000009aa f8ad0014   1806 	strh	r0,[sp,20]
000009ae 7860       1807 	ldrb	r0,[r4,1]
000009b0 2508       1808 	movs	r5,8
000009b2 2811       1809 	cmp	r0,17
000009b4 d307*      1810 	blo	.L11767
000009b6 d00c*      1811 	beq	.L11770
000009b8 2813       1812 	cmp	r0,19
000009ba d36f*      1813 	blo	.L11765
000009bc d103*      1814 	bne	.L11767
                    1815 .L11766:
                    1816 ;line3799
                    1817 ..lin.f47d2a15..967263e1.0_57::
                    1818 .LDWlin57:
000009be 2032       1819 	movs	r0,50

                                                                      Page 31
                                                              C:\Users\Fengyuan\AppData\Local\Temp\gh_0000kos1.s
                    1820 .L12254:
                    1821 
000009c0 f88d0008   1822 	strb	r0,[sp,8]
000009c4 e026*      1823 	b	.L11784
                    1824 .L11767:
                    1825 ;line3805
                    1826 ..lin.f47d2a15..967263e1.0_58::
                    1827 .LDWlin58:
000009c6 23b1       1828 	movs	r3,177
000009c8 2232       1829 	movs	r2,50
000009ca 2023       1830 	movs	r0,35
000009cc 2100       1831 	movs	r1,0
000009ce 4c1d*      1832 	ldr	r4,.L11757
000009d0 e071*      1833 	b	.L12253
                    1834 .L11770:
                    1835 ;line3740
                    1836 ..lin.f47d2a15..967263e1.0_59::
                    1837 .LDWlin59:
000009d2 4e1a*      1838 	ldr	r6,.L11560
000009d4 7aa0       1839 	ldrb	r0,[r4,10]
000009d6 5c30       1840 	ldrb	r0,[r6,r0]
000009d8 b108*      1841 	cbz	r0,.L11771
000009da 4605       1842 	cpy	r5,r0
000009dc e014*      1843 	b	.L11769
                    1844 .L11771:
                    1845 .LDW54:
                    1846 
                    1847 ;line3752
                    1848 ..lin.f47d2a15..967263e1.0_60::
                    1849 .LDWlin60:
000009de 8920       1850 	ldrh	r0,[r4,8]
000009e0 2838       1851 	cmp	r0,56
000009e2 d20f*      1852 	bhs	.L11774
000009e4 88a1       1853 	ldrh	r1,[r4,4]
000009e6 88e2       1854 	ldrh	r2,[r4,6]
000009e8 1a89       1855 	subs	r1,r1,r2
000009ea 4288       1856 	cmp	r0,r1
000009ec da0a*      1857 	bge	.L11774
                    1858 ;line3756
                    1859 ..lin.f47d2a15..967263e1.0_61::
                    1860 .LDWlin61:
000009ee 2107       1861 	movs	r1,7
000009f0 fb90f5f1   1862 	sdiv	r5,r0,r1
000009f4 b2ed       1863 	uxtb	r5,r5
000009f6 0029       1864 	movs	r1,r5
000009f8 d104*      1865 	bne	.L11774
                    1866 ;line3760
                    1867 ..lin.f47d2a15..967263e1.0_62::
                    1868 .LDWlin62:
000009fa 2360       1869 	movs	r3,96
000009fc 4f11*      1870 	ldr	r7,.L11757
000009fe 2232       1871 	movs	r2,50
00000a00 2023       1872 	movs	r0,35
00000a02 47b8       1873 	blx	r7
                    1874 .L11774:
                    1875 .LDW64:
                    1876 
00000a04 7aa0       1877 	ldrb	r0,[r4,10]
00000a06 5435       1878 	strb	r5,[r6,r0]
                    1879 .L11769:
00000a08 9804       1880 	ldr	r0,[sp,16]

                                                                      Page 32
                                                              C:\Users\Fengyuan\AppData\Local\Temp\gh_0000kos1.s
00000a0a f8bd1014   1881 	ldrh	r1,[sp,20]
00000a0e 2230       1882 	movs	r2,48
00000a10 5442       1883 	strb	r2,[r0,r1]
00000a12 73e5       1884 	strb	r5,[r4,15]
                    1885 .L11784:
                    1886 .LDW74:
                    1887 
00000a14 ab05       1888 	add	r3,sp,20
00000a16 8818       1889 	ldrh	r0,[r3]
00000a18 9904       1890 	ldr	r1,[sp,16]
00000a1a 1840       1891 	adds	r0,r0,r1
00000a1c 7045       1892 	strb	r5,[r0,1]
00000a1e 8818       1893 	ldrh	r0,[r3]
00000a20 9904       1894 	ldr	r1,[sp,16]
00000a22 1841       1895 	adds	r1,r0,r1
00000a24 7aa0       1896 	ldrb	r0,[r4,10]
00000a26 4a0b*      1897 	ldr	r2,.L12277
00000a28 eb1000c0   1898 	adds	r0,r0,r0 lsl 3
00000a2c 1810       1899 	adds	r0,r2,r0
00000a2e 79c0       1900 	ldrb	r0,[r0,7]
00000a30 7088       1901 	strb	r0,[r1,2]
00000a32 e011*      1902 	b	.L12278
                    1903 ;line3818
                    1904 ..lin.f47d2a15..967263e1.0_63::
                    1905 .LDWlin63:
                    1906 	.align	4
00000a34 00000000*  1907 .L11558:	.data.w	PduR_CanTpCopyRxData
                    1908 	.endo	.L11558
                    1909 
00000a38 00000000*  1910 .L11559:	.data.w	CanTp_RxInit
                    1911 	.endo	.L11559
                    1912 
00000a3c 00000000*  1913 .L11560:	.data.w	CanTp_CalcBS
                    1914 	.endo	.L11560
                    1915 
00000a40 00000000*  1916 .L11561:	.data.w	CanTp_RxTransmitFrame
                    1917 	.endo	.L11561
                    1918 
00000a44 00000000*  1919 .L11757:	.data.w	Det_ReportError
                    1920 	.endo	.L11757
                    1921 
00000a48 00000000*  1922 .L11758:	.data.w	PduR_CanTpCopyTxData
                    1923 	.endo	.L11758
                    1924 
00000a4c 00000000*  1925 .L11759:	.data.w	CanTp_TxTransmitFrame
                    1926 	.endo	.L11759
                    1927 
00000a50 00000000*  1928 .L11760:	.data.w	CanTp_TxInit
                    1929 	.endo	.L11760
                    1930 
00000a54 00000000*  1931 .L12277:	.data.w	CanTp_RxSduCfg
                    1932 	.endo	.L12277
                    1933 
                    1934 .L12278:
                    1935 
                    1936 ;line3819
                    1937 ..lin.f47d2a15..967263e1.0_64::
                    1938 .LDWlin64:
00000a58 8819       1939 	ldrh	r1,[r3]
00000a5a 3103       1940 	adds	r1,3
00000a5c 8019       1941 	strh	r1,[r3]

                                                                      Page 33
                                                              C:\Users\Fengyuan\AppData\Local\Temp\gh_0000kos1.s
00000a5e 466e       1942 	mov	r6,sp
00000a60 2003       1943 	movs	r0,3
00000a62 7030       1944 	strb	r0,[r6]
00000a64 7aa0       1945 	ldrb	r0,[r4,10]
00000a66 7070       1946 	strb	r0,[r6,1]
00000a68 eb1000c0   1947 	adds	r0,r0,r0 lsl 3
00000a6c 5c13       1948 	ldrb	r3,[r2,r0]
00000a6e 1880       1949 	adds	r0,r0,r2
00000a70 70b3       1950 	strb	r3,[r6,2]
00000a72 78c0       1951 	ldrb	r0,[r0,3]
00000a74 70f0       1952 	strb	r0,[r6,3]
00000a76 2000       1953 	movs	r0,0
00000a78 b2c9       1954 	uxtb	r1,r1
00000a7a 2908       1955 	cmp	r1,8
00000a7c d800*      1956 	bhi	.L11785
00000a7e 2008       1957 	movs	r0,8
                    1958 .L11785:
00000a80 4ab7*      1959 	ldr	r2,.L12279
                    1960 ;line3830
                    1961 ..lin.f47d2a15..967263e1.0_65::
                    1962 .LDWlin65:
00000a82 f88d0004   1963 	strb	r0,[sp,4]
00000a86 a904       1964 	add	r1,sp,16
00000a88 4668       1965 	mov	r0,sp
00000a8a 4790       1966 	blx	r2
00000a8c b960*      1967 	cbnz	r0,.L11793
00000a8e 7860       1968 	ldrb	r0,[r4,1]
00000a90 f00000ef   1969 	and	r0,r0,239
00000a94 f0500020   1970 	orrs	r0,r0,32
00000a98 7060       1971 	strb	r0,[r4,1]
00000a9a e00d*      1972 	b	.L11761
                    1973 .L11765:
                    1974 ;line3782
                    1975 ..lin.f47d2a15..967263e1.0_66::
                    1976 .LDWlin66:
00000a9c 89a0       1977 	ldrh	r0,[r4,12]
00000a9e b108*      1978 	cbz	r0,.L11780
00000aa0 2031       1979 	movs	r0,49
00000aa2 e78d*      1980 	b	.L12254
                    1981 .L11780:
                    1982 ;line3791
                    1983 ..lin.f47d2a15..967263e1.0_67::
                    1984 .LDWlin67:
00000aa4 22c5       1985 	movs	r2,197
00000aa6 e002*      1986 	b	.L12252
                    1987 .L11793:
                    1988 ;line3840
                    1989 ..lin.f47d2a15..967263e1.0_68::
                    1990 .LDWlin68:
00000aa8 2801       1991 	cmp	r0,1
00000aaa d105*      1992 	bne	.L11761
                    1993 .L11797:
                    1994 ;line3843
                    1995 ..lin.f47d2a15..967263e1.0_69::
                    1996 .LDWlin69:
00000aac 22c7       1997 	movs	r2,199
                    1998 .L12252:
                    1999 
00000aae 2301       2000 	movs	r3,1
00000ab0 4620       2001 	cpy	r0,r4
00000ab2 4cac*      2002 	ldr	r4,.L12280

                                                                      Page 34
                                                              C:\Users\Fengyuan\AppData\Local\Temp\gh_0000kos1.s
00000ab4 4619       2003 	cpy	r1,r3
                    2004 .L12253:
                    2005 
00000ab6 47a0       2006 	blx	r4
                    2007 .L11761:
                    2008 .LDW84:
                    2009 
                    2010 .LDW94:
00000ab8 b006       2011 	add	sp,24
00000aba bdf0       2012 	pop	{r4-r7,pc}
                    2013 __ghs_eofn_CanTp_RxTransmitFrame:
                    2014 	.endf	CanTp_RxTransmitFrame
                    2015 	.endf	CanTp_RxTransmitFrame..C.3A.5CVector.5CCBD1800257_D01_S32K1xx.5CApplications.5CS32K144_Start_new.5CAppl.5Cobj.5CCanTp.
                    2016 ;lTxResult	r0	local
                    2017 ;lFCFrameData	[sp,16]	local
                    2018 ;lFCBuffer	[sp,8]	local
                    2019 ;lBlockSizeValue	r5	local
                    2020 ;lPduTxInfo	[sp]	local
                    2021 ;lPaddedLength	r0	local
                    2022 
                    2023 ;pTpRxState	r4	param
                    2024 
                    2025 	.section ".bss","awb"
                    2026 .L12058:
                    2027 	.endo	.L12058
                    2028 	.text
                    2029 ..gh.f.a.1.e.10:
                    2030 	.endo	..gh.f.a.1.e.10
                    2031 	.global	CanTp_TxTransmitFrame..C.3A.5CVector.5CCBD1800257_D01_S32K1xx.5CApplications.5CS32K144_Start_new.5CAppl.5Cobj.5CCanTp.
                    2032 CanTp_TxTransmitFrame..C.3A.5CVector.5CCBD1800257_D01_S32K1xx.5CApplications.5CS32K144_Start_new.5CAppl.5Cobj.5CCanTp.:
                    2033 CanTp_TxTransmitFrame:
00000abc b510       2034 	push	{r4,lr}
00000abe b086       2035 	sub	sp,24
00000ac0 4604       2036 	cpy	r4,r0
                    2037 .LDW05:
00000ac2 aa02       2038 	add	r2,sp,8
00000ac4 9204       2039 	str	r2,[sp,16]
00000ac6 2000       2040 	movs	r0,0
00000ac8 f8ad0014   2041 	strh	r0,[sp,20]
00000acc 79e0       2042 	ldrb	r0,[r4,7]
00000ace 2811       2043 	cmp	r0,17
00000ad0 d30f*      2044 	blo	.L12287
00000ad2 d015*      2045 	beq	.L12284
00000ad4 4613       2046 	cpy	r3,r2
00000ad6 2813       2047 	cmp	r0,19
00000ad8 d316*      2048 	blo	.L12285
00000ada d10a*      2049 	bne	.L12287
                    2050 .L12286:
                    2051 ;line3964
                    2052 ..lin.f47d2a15..dd013f63.0_70::
                    2053 .LDWlin70:
00000adc 7d60       2054 	ldrb	r0,[r4,21]
00000ade f0500020   2055 	orrs	r0,r0,32
                    2056 .L12582:
                    2057 
00000ae2 7010       2058 	strb	r0,[r2]
00000ae4 2101       2059 	movs	r1,1
                    2060 .L12289:
00000ae6 f8ad1014   2061 	strh	r1,[sp,20]
00000aea 4469       2062 	add	r1,sp
00000aec 7d20       2063 	ldrb	r0,[r4,20]

                                                                      Page 35
                                                              C:\Users\Fengyuan\AppData\Local\Temp\gh_0000kos1.s
00000aee 3108       2064 	adds	r1,8
00000af0 e01c*      2065 	b	.L12295
                    2066 .L12287:
                    2067 ;line3971
                    2068 ..lin.f47d2a15..dd013f63.0_71::
                    2069 .LDWlin71:
00000af2 23b2       2070 	movs	r3,178
00000af4 2233       2071 	movs	r2,51
00000af6 4c9c*      2072 	ldr	r4,.L12599
00000af8 2023       2073 	movs	r0,35
00000afa 2100       2074 	movs	r1,0
00000afc 47a0       2075 	blx	r4
00000afe e041*      2076 	b	.L12281
                    2077 .L12284:
                    2078 ;line3916
                    2079 ..lin.f47d2a15..dd013f63.0_72::
                    2080 .LDWlin72:
00000b00 8860       2081 	ldrh	r0,[r4,2]
00000b02 f000000f   2082 	and	r0,r0,15
00000b06 e7ec*      2083 	b	.L12582
                    2084 .L12285:
                    2085 ;line3950
                    2086 ..lin.f47d2a15..dd013f63.0_73::
                    2087 .LDWlin73:
00000b08 8860       2088 	ldrh	r0,[r4,2]
00000b0a f3c02103   2089 	ubfx	r1,r0,8,4
00000b0e f0510110   2090 	orrs	r1,r1,16
00000b12 7019       2091 	strb	r1,[r3]
00000b14 7058       2092 	strb	r0,[r3,1]
00000b16 2102       2093 	movs	r1,2
00000b18 2001       2094 	movs	r0,1
00000b1a 7560       2095 	strb	r0,[r4,21]
00000b1c 2000       2096 	movs	r0,0
00000b1e 72e0       2097 	strb	r0,[r4,11]
00000b20 80a0       2098 	strh	r0,[r4,4]
00000b22 e7e0*      2099 	b	.L12289
                    2100 .L12294:
00000b24 b280       2101 	uxth	r0,r0
00000b26 1902       2102 	adds	r2,r0,r4
00000b28 7b52       2103 	ldrb	r2,[r2,13]
00000b2a 540a       2104 	strb	r2,[r1,r0]
                    2105 .L12295:
00000b2c 3801       2106 	subs	r0,1
00000b2e d2f9*      2107 	bhs	.L12294
                    2108 ;line3980
                    2109 ..lin.f47d2a15..dd013f63.0_74::
                    2110 .LDWlin74:
00000b30 aa05       2111 	add	r2,sp,20
00000b32 8811       2112 	ldrh	r1,[r2]
00000b34 7d20       2113 	ldrb	r0,[r4,20]
00000b36 1809       2114 	adds	r1,r1,r0
00000b38 8011       2115 	strh	r1,[r2]
00000b3a 466a       2116 	mov	r2,sp
00000b3c 2002       2117 	movs	r0,2
00000b3e 7010       2118 	strb	r0,[r2]
00000b40 79a0       2119 	ldrb	r0,[r4,6]
00000b42 7050       2120 	strb	r0,[r2,1]
00000b44 2000       2121 	movs	r0,0
00000b46 7090       2122 	strb	r0,[r2,2]
00000b48 70d0       2123 	strb	r0,[r2,3]
00000b4a b2c9       2124 	uxtb	r1,r1

                                                                      Page 36
                                                              C:\Users\Fengyuan\AppData\Local\Temp\gh_0000kos1.s
00000b4c 2908       2125 	cmp	r1,8
00000b4e d800*      2126 	bhi	.L12297
00000b50 2008       2127 	movs	r0,8
                    2128 .L12297:
00000b52 4a83*      2129 	ldr	r2,.L12279
                    2130 ;line3994
                    2131 ..lin.f47d2a15..dd013f63.0_75::
                    2132 .LDWlin75:
00000b54 f88d0004   2133 	strb	r0,[sp,4]
00000b58 a904       2134 	add	r1,sp,16
00000b5a 4668       2135 	mov	r0,sp
00000b5c 4790       2136 	blx	r2
00000b5e b950*      2137 	cbnz	r0,.L12305
00000b60 79e0       2138 	ldrb	r0,[r4,7]
00000b62 f00000ef   2139 	and	r0,r0,239
00000b66 f0500020   2140 	orrs	r0,r0,32
00000b6a 71e0       2141 	strb	r0,[r4,7]
00000b6c 88a1       2142 	ldrh	r1,[r4,4]
00000b6e 7d20       2143 	ldrb	r0,[r4,20]
00000b70 1809       2144 	adds	r1,r1,r0
00000b72 80a1       2145 	strh	r1,[r4,4]
00000b74 e006*      2146 	b	.L12281
                    2147 .L12305:
                    2148 ;line4005
                    2149 ..lin.f47d2a15..dd013f63.0_76::
                    2150 .LDWlin76:
00000b76 2801       2151 	cmp	r0,1
00000b78 d104*      2152 	bne	.L12281
                    2153 ;line4008
                    2154 ..lin.f47d2a15..dd013f63.0_77::
                    2155 .LDWlin77:
00000b7a 4620       2156 	cpy	r0,r4
00000b7c 4b7b*      2157 	ldr	r3,.L12600
00000b7e 22d7       2158 	movs	r2,215
00000b80 2101       2159 	movs	r1,1
00000b82 4798       2160 	blx	r3
                    2161 .L12281:
                    2162 .LDW15:
00000b84 b006       2163 	add	sp,24
00000b86 bd10       2164 	pop	{r4,pc}
                    2165 __ghs_eofn_CanTp_TxTransmitFrame:
                    2166 	.endf	CanTp_TxTransmitFrame
                    2167 	.endf	CanTp_TxTransmitFrame..C.3A.5CVector.5CCBD1800257_D01_S32K1xx.5CApplications.5CS32K144_Start_new.5CAppl.5Cobj.5CCanTp.
                    2168 ;lTxFrameData	[sp,16]	local
                    2169 ;lTxFrameDataBuffer	[sp,8]	local
                    2170 ;lPduTxInfo	[sp]	local
                    2171 ;lTxResult	r0	local
                    2172 ;pDest	r1	local
                    2173 ;Count	r0	local
                    2174 ;lPaddedLength	r0	local
                    2175 
                    2176 ;pTpTxState	r4	param
                    2177 
                    2178 	.section ".bss","awb"
                    2179 .L12439:
                    2180 	.endo	.L12439
                    2181 	.text
                    2182 ..gh.f.a.1.e.11:
                    2183 	.endo	..gh.f.a.1.e.11
                    2184 CanTp_Init::
00000b88 b5f0       2185 	push	{r4-r7,lr}

                                                                      Page 37
                                                              C:\Users\Fengyuan\AppData\Local\Temp\gh_0000kos1.s
                    2186 .LDW25:
00000b8a 2401       2187 	movs	r4,1
00000b8c 2500       2188 	movs	r5,0
                    2189 .L12613:
00000b8e 4878*      2190 	ldr	r0,.L12983
00000b90 5d40       2191 	ldrb	r0,[r0,r5]
00000b92 4978*      2192 	ldr	r1,.L12984
00000b94 eb1000c0   2193 	adds	r0,r0,r0 lsl 3
00000b98 1840       2194 	adds	r0,r0,r1
00000b9a 7981       2195 	ldrb	r1,[r0,6]
00000b9c b949*      2196 	cbnz	r1,.L12620
00000b9e 78c0       2197 	ldrb	r0,[r0,3]
00000ba0 2601       2198 	movs	r6,1
00000ba2 b128*      2199 	cbz	r0,.L12619
00000ba4 460e       2200 	cpy	r6,r1
00000ba6 2023       2201 	movs	r0,35
00000ba8 4f6f*      2202 	ldr	r7,.L12599
00000baa 2301       2203 	movs	r3,1
00000bac 461a       2204 	cpy	r2,r3
00000bae 47b8       2205 	blx	r7
                    2206 .L12619:
00000bb0 4034       2207 	ands	r4,r6
                    2208 .L12620:
00000bb2 3501       2209 	adds	r5,1
00000bb4 2d02       2210 	cmp	r5,2
00000bb6 d3ea*      2211 	blo	.L12613
00000bb8 b124*      2212 	cbz	r4,.L12601
                    2213 ;line4317
                    2214 ..lin.f47d2a15..3a20dc2e.0_78::
                    2215 .LDWlin78:
00000bba 486f*      2216 	ldr	r0,.L12985
00000bbc 4780       2217 	blx	r0
00000bbe 496f*      2218 	ldr	r1,.L12986
00000bc0 2001       2219 	movs	r0,1
00000bc2 7008       2220 	strb	r0,[r1]
                    2221 .L12601:
                    2222 .LDW35:
00000bc4 bdf0       2223 	pop	{r4-r7,pc}
                    2224 __ghs_eofn_CanTp_Init::
                    2225 	.endf	CanTp_Init
                    2226 ;lResult	r4	local
                    2227 ;lSduHdl	r0	local
                    2228 ;lResult	r6	local
                    2229 
                    2230 ;CfgPtr	none	param
                    2231 
                    2232 	.section ".bss","awb"
                    2233 CanTp_InitState..C.3A.5CVector.5CCBD1800257_D01_S32K1xx.5CApplications.5CS32K144_Start_new.5CAppl.5Cobj.5CCanTp.::
00000000 00         2234 CanTp_InitState:	.space	1
                    2235 	.endo	CanTp_InitState..C.3A.5CVector.5CCBD1800257_D01_S32K1xx.5CApplications.5CS32K144_Start_new.5CAppl.5Cobj.5CCanTp.
                    2236 	.endo	CanTp_InitState
                    2237 	.text
                    2238 ..gh.f.a.1.e.12:
                    2239 	.endo	..gh.f.a.1.e.12
                    2240 CanTp_InitMemory::
                    2241 .LDW45:
00000bc6 496d*      2242 	ldr	r1,.L12986
00000bc8 2000       2243 	movs	r0,0
00000bca 7008       2244 	strb	r0,[r1]
                    2245 .LDW55:
00000bcc 4770       2246 	ret

                                                                      Page 38
                                                              C:\Users\Fengyuan\AppData\Local\Temp\gh_0000kos1.s
                    2247 __ghs_eofn_CanTp_InitMemory::
                    2248 	.endf	CanTp_InitMemory
                    2249 
                    2250 	.assert 0x0 + (CanTp_InitState - CanTp_InitState) +0 == 0
                    2251 ..gh.f.a.1.e.13:
                    2252 	.endo	..gh.f.a.1.e.13
                    2253 CanTp_Shutdown::
00000bce b510       2254 	push	{r4,lr}
00000bd0 4c6a*      2255 	ldr	r4,.L12986
                    2256 .LDW65:
00000bd2 7820       2257 	ldrb	r0,[r4]
00000bd4 2801       2258 	cmp	r0,1
00000bd6 d104*      2259 	bne	.L13029
                    2260 ;line4382
                    2261 ..lin.f47d2a15..635accd6.0_79::
                    2262 .LDWlin79:
00000bd8 4867*      2263 	ldr	r0,.L12985
00000bda 4780       2264 	blx	r0
00000bdc 2000       2265 	movs	r0,0
00000bde 7020       2266 	strb	r0,[r4]
00000be0 e005*      2267 	b	.L13023
                    2268 .L13029:
                    2269 ;line4390
                    2270 ..lin.f47d2a15..635accd6.0_80::
                    2271 .LDWlin80:
00000be2 2320       2272 	movs	r3,32
00000be4 2023       2273 	movs	r0,35
00000be6 4c60*      2274 	ldr	r4,.L12599
00000be8 2202       2275 	movs	r2,2
00000bea 2100       2276 	movs	r1,0
00000bec 47a0       2277 	blx	r4
                    2278 .L13023:
                    2279 .LDW75:
00000bee bd10       2280 	pop	{r4,pc}
                    2281 __ghs_eofn_CanTp_Shutdown::
                    2282 	.endf	CanTp_Shutdown
                    2283 
                    2284 ..gh.f.a.1.e.14:
                    2285 	.endo	..gh.f.a.1.e.14
                    2286 CanTp_MainFunction::
00000bf0 b500       2287 	push	{lr}
                    2288 .LDW85:
00000bf2 4863*      2289 	ldr	r0,.L13158
00000bf4 4780       2290 	blx	r0
00000bf6 4863*      2291 	ldr	r0,.L13159
00000bf8 4780       2292 	blx	r0
                    2293 .LDW95:
00000bfa bd00       2294 	pop	{pc}
                    2295 __ghs_eofn_CanTp_MainFunction::
                    2296 	.endf	CanTp_MainFunction
                    2297 
                    2298 	.section ".bss","awb"
                    2299 .L13134:
                    2300 	.endo	.L13134
                    2301 	.text
                    2302 ..gh.f.a.1.e.15:
                    2303 	.endo	..gh.f.a.1.e.15
                    2304 CanTp_MainFunctionRx::
00000bfc b530       2305 	push	{r4-r5,lr}
                    2306 .LDW06:
00000bfe 495f*      2307 	ldr	r1,.L12986

                                                                      Page 39
                                                              C:\Users\Fengyuan\AppData\Local\Temp\gh_0000kos1.s
00000c00 7808       2308 	ldrb	r0,[r1]
00000c02 2801       2309 	cmp	r0,1
00000c04 d156*      2310 	bne	.L13160
                    2311 ;line4505
                    2312 ..lin.f47d2a15..80a117cf.0_81::
                    2313 .LDWlin81:
00000c06 2500       2314 	movs	r5,0
                    2315 .L13166:
00000c08 495f*      2316 	ldr	r1,.L14379
00000c0a 201c       2317 	movs	r0,28
00000c0c fb051400   2318 	mla	r4,r5,r0,r1
00000c10 7aa0       2319 	ldrb	r0,[r4,10]
00000c12 28ff       2320 	cmp	r0,255
00000c14 d04b*      2321 	beq	.L13167
                    2322 ;line4511
                    2323 ..lin.f47d2a15..80a117cf.0_82::
                    2324 .LDWlin82:
00000c16 485d*      2325 	ldr	r0,.L14380
00000c18 4780       2326 	blx	r0
00000c1a 7aa0       2327 	ldrb	r0,[r4,10]
00000c1c 28ff       2328 	cmp	r0,255
00000c1e d044*      2329 	beq	.L13169
                    2330 ;line4517
                    2331 ..lin.f47d2a15..80a117cf.0_83::
                    2332 .LDWlin83:
00000c20 8861       2333 	ldrh	r1,[r4,2]
00000c22 3901       2334 	subs	r1,1
00000c24 8061       2335 	strh	r1,[r4,2]
00000c26 8861       2336 	ldrh	r1,[r4,2]
00000c28 7862       2337 	ldrb	r2,[r4,1]
00000c2a bb81*      2338 	cbnz	r1,.L13171
00000c2c 2a01       2339 	cmp	r2,1
00000c2e d017*      2340 	beq	.L13174
00000c30 2a02       2341 	cmp	r2,2
00000c32 d023*      2342 	beq	.L13178
00000c34 2a11       2343 	cmp	r2,17
00000c36 d30b*      2344 	blo	.L13179
00000c38 2a13       2345 	cmp	r2,19
00000c3a d30f*      2346 	blo	.L13175
00000c3c d01c*      2347 	beq	.L13183
00000c3e 2a21       2348 	cmp	r2,33
00000c40 d306*      2349 	blo	.L13179
00000c42 2a23       2350 	cmp	r2,35
00000c44 d30a*      2351 	blo	.L13175
00000c46 d017*      2352 	beq	.L13183
00000c48 2a41       2353 	cmp	r2,65
00000c4a d301*      2354 	blo	.L13179
00000c4c 2a43       2355 	cmp	r2,67
00000c4e d90d*      2356 	bls	.L13177
                    2357 .L13179:
                    2358 ;line4568
                    2359 ..lin.f47d2a15..80a117cf.0_84::
                    2360 .LDWlin84:
00000c50 23b1       2361 	movs	r3,177
00000c52 2220       2362 	movs	r2,32
00000c54 4c44*      2363 	ldr	r4,.L12599
00000c56 2023       2364 	movs	r0,35
                    2365 .L14351:
                    2366 
00000c58 47a0       2367 	blx	r4
00000c5a e026*      2368 	b	.L13169

                                                                      Page 40
                                                              C:\Users\Fengyuan\AppData\Local\Temp\gh_0000kos1.s
                    2369 .L13175:
                    2370 ;line4534
                    2371 ..lin.f47d2a15..80a117cf.0_85::
                    2372 .LDWlin85:
00000c5c 22c1       2373 	movs	r2,193
00000c5e e000*      2374 	b	.L14350
                    2375 .L13174:
                    2376 ;line4526
                    2377 ..lin.f47d2a15..80a117cf.0_86::
                    2378 .LDWlin86:
00000c60 22c3       2379 	movs	r2,195
                    2380 .L14349:
                    2381 
                    2382 .L14350:
                    2383 
00000c62 2301       2384 	movs	r3,1
00000c64 4619       2385 	cpy	r1,r3
00000c66 4620       2386 	cpy	r0,r4
00000c68 4c3e*      2387 	ldr	r4,.L12280
00000c6a e7f5*      2388 	b	.L14351
                    2389 .L13177:
                    2390 ;line4549
                    2391 ..lin.f47d2a15..80a117cf.0_87::
                    2392 .LDWlin87:
00000c6c 4948*      2393 	ldr	r1,.L14381
00000c6e 4620       2394 	cpy	r0,r4
00000c70 4788       2395 	blx	r1
00000c72 7ba0       2396 	ldrb	r0,[r4,14]
00000c74 2802       2397 	cmp	r0,2
00000c76 d118*      2398 	bne	.L13169
                    2399 .L13183:
                    2400 ;line4554
                    2401 ..lin.f47d2a15..80a117cf.0_88::
                    2402 .LDWlin88:
00000c78 2260       2403 	movs	r2,96
00000c7a e7f2*      2404 	b	.L14349
                    2405 .L13178:
                    2406 ;line4561
                    2407 ..lin.f47d2a15..80a117cf.0_89::
                    2408 .LDWlin89:
00000c7c 493d*      2409 	ldr	r1,.L12984
00000c7e eb1000c0   2410 	adds	r0,r0,r0 lsl 3
00000c82 1840       2411 	adds	r0,r0,r1
00000c84 7900       2412 	ldrb	r0,[r0,4]
00000c86 8060       2413 	strh	r0,[r4,2]
00000c88 2012       2414 	movs	r0,18
00000c8a 7060       2415 	strb	r0,[r4,1]
00000c8c e00a*      2416 	b	.L13189
                    2417 .L13171:
                    2418 ;line4588
                    2419 ..lin.f47d2a15..80a117cf.0_90::
                    2420 .LDWlin90:
00000c8e 0650       2421 	lsls	r0,r2,25
00000c90 d402*      2422 	bmi	.L13186
00000c92 7860       2423 	ldrb	r0,[r4,1]
00000c94 2802       2424 	cmp	r0,2
00000c96 d102*      2425 	bne	.L13185
                    2426 .L13186:
                    2427 ;line4591
                    2428 ..lin.f47d2a15..80a117cf.0_91::
                    2429 .LDWlin91:

                                                                      Page 41
                                                              C:\Users\Fengyuan\AppData\Local\Temp\gh_0000kos1.s
00000c98 493d*      2430 	ldr	r1,.L14381
00000c9a 4620       2431 	cpy	r0,r4
00000c9c 4788       2432 	blx	r1
                    2433 .L13185:
00000c9e 7860       2434 	ldrb	r0,[r4,1]
00000ca0 06c0       2435 	lsls	r0,r0,27
00000ca2 d502*      2436 	bpl	.L13169
                    2437 .L13189:
                    2438 ;line4597
                    2439 ..lin.f47d2a15..80a117cf.0_92::
                    2440 .LDWlin92:
00000ca4 493b*      2441 	ldr	r1,.L14382
00000ca6 4620       2442 	cpy	r0,r4
00000ca8 4788       2443 	blx	r1
                    2444 .L13169:
00000caa 483b*      2445 	ldr	r0,.L14383
00000cac 4780       2446 	blx	r0
                    2447 .L13167:
00000cae 3501       2448 	adds	r5,1
00000cb0 2d02       2449 	cmp	r5,2
00000cb2 d3a9*      2450 	blo	.L13166
                    2451 .L13160:
                    2452 .LDW16:
                    2453 ;line4609
                    2454 ..lin.f47d2a15..80a117cf.0_93::
                    2455 .LDWlin93:
00000cb4 bd30       2456 	pop	{r4-r5,pc}
                    2457 __ghs_eofn_CanTp_MainFunctionRx::
                    2458 	.endf	CanTp_MainFunctionRx
                    2459 ;pTpRxState	r4	local
                    2460 
                    2461 ..gh.f.a.1.e.16:
                    2462 	.endo	..gh.f.a.1.e.16
                    2463 CanTp_MainFunctionTx::
00000cb6 b510       2464 	push	{r4,lr}
                    2465 .LDW26:
00000cb8 4930*      2466 	ldr	r1,.L12986
00000cba 7808       2467 	ldrb	r0,[r1]
00000cbc 2801       2468 	cmp	r0,1
00000cbe d14e*      2469 	bne	.L14384
                    2470 ;line4652
                    2471 ..lin.f47d2a15..80a11811.0_94::
                    2472 .LDWlin94:
00000cc0 4c36*      2473 	ldr	r4,.L15463
00000cc2 79a0       2474 	ldrb	r0,[r4,6]
00000cc4 28ff       2475 	cmp	r0,255
00000cc6 d04a*      2476 	beq	.L14384
                    2477 ;line4654
                    2478 ..lin.f47d2a15..80a11811.0_95::
                    2479 .LDWlin95:
00000cc8 4830*      2480 	ldr	r0,.L14380
00000cca 4780       2481 	blx	r0
00000ccc 79a0       2482 	ldrb	r0,[r4,6]
00000cce 28ff       2483 	cmp	r0,255
00000cd0 d043*      2484 	beq	.L14393
                    2485 ;line4660
                    2486 ..lin.f47d2a15..80a11811.0_96::
                    2487 .LDWlin96:
00000cd2 7aa0       2488 	ldrb	r0,[r4,10]
00000cd4 3801       2489 	subs	r0,1
00000cd6 d304*      2490 	blo	.L14395

                                                                      Page 42
                                                              C:\Users\Fengyuan\AppData\Local\Temp\gh_0000kos1.s
                    2491 ;line4662
                    2492 ..lin.f47d2a15..80a11811.0_97::
                    2493 .LDWlin97:
00000cd8 72a0       2494 	strb	r0,[r4,10]
00000cda 0600       2495 	lsls	r0,r0,24
00000cdc d101*      2496 	bne	.L14395
                    2497 ;line4668
                    2498 ..lin.f47d2a15..80a11811.0_98::
                    2499 .LDWlin98:
00000cde 2043       2500 	movs	r0,67
00000ce0 71e0       2501 	strb	r0,[r4,7]
                    2502 .L14395:
00000ce2 8820       2503 	ldrh	r0,[r4]
00000ce4 3801       2504 	subs	r0,1
00000ce6 8020       2505 	strh	r0,[r4]
00000ce8 8820       2506 	ldrh	r0,[r4]
00000cea 79e1       2507 	ldrb	r1,[r4,7]
00000cec bb50*      2508 	cbnz	r0,.L14399
00000cee 2901       2509 	cmp	r1,1
00000cf0 d014*      2510 	beq	.L14402
00000cf2 2902       2511 	cmp	r1,2
00000cf4 d015*      2512 	beq	.L14403
00000cf6 2911       2513 	cmp	r1,17
00000cf8 d309*      2514 	blo	.L14406
00000cfa 2913       2515 	cmp	r1,19
00000cfc d91c*      2516 	bls	.L14405
00000cfe 2921       2517 	cmp	r1,33
00000d00 d305*      2518 	blo	.L14406
00000d02 2923       2519 	cmp	r1,35
00000d04 d918*      2520 	bls	.L14405
00000d06 2941       2521 	cmp	r1,65
00000d08 d301*      2522 	blo	.L14406
00000d0a 2943       2523 	cmp	r1,67
00000d0c d90c*      2524 	bls	.L14404
                    2525 .L14406:
                    2526 ;line4719
                    2527 ..lin.f47d2a15..80a11811.0_99::
                    2528 .LDWlin99:
00000d0e 23b2       2529 	movs	r3,178
00000d10 2221       2530 	movs	r2,33
00000d12 4c15*      2531 	ldr	r4,.L12599
00000d14 2023       2532 	movs	r0,35
00000d16 2100       2533 	movs	r1,0
00000d18 47a0       2534 	blx	r4
00000d1a e01e*      2535 	b	.L14393
                    2536 .L14402:
                    2537 ;line4681
                    2538 ..lin.f47d2a15..80a11811.0_100::
                    2539 .LDWlin100:
00000d1c 22d2       2540 	movs	r2,210
00000d1e 4620       2541 	cpy	r0,r4
00000d20 e00d*      2542 	b	.L15435
                    2543 .L14403:
                    2544 ;line4690
                    2545 ..lin.f47d2a15..80a11811.0_101::
                    2546 .LDWlin101:
00000d22 72a0       2547 	strb	r0,[r4,10]
00000d24 2043       2548 	movs	r0,67
00000d26 71e0       2549 	strb	r0,[r4,7]
                    2550 .L14404:
00000d28 491d*      2551 	ldr	r1,.L15464

                                                                      Page 43
                                                              C:\Users\Fengyuan\AppData\Local\Temp\gh_0000kos1.s
00000d2a 4620       2552 	cpy	r0,r4
00000d2c 4788       2553 	blx	r1
00000d2e 7a20       2554 	ldrb	r0,[r4,8]
00000d30 2802       2555 	cmp	r0,2
00000d32 d112*      2556 	bne	.L14393
                    2557 ;line4703
                    2558 ..lin.f47d2a15..80a11811.0_102::
                    2559 .LDWlin102:
00000d34 22d3       2560 	movs	r2,211
00000d36 e000*      2561 	b	.L15434
                    2562 .L14405:
                    2563 ;line4714
                    2564 ..lin.f47d2a15..80a11811.0_103::
                    2565 .LDWlin103:
00000d38 22d1       2566 	movs	r2,209
                    2567 .L15434:
                    2568 
00000d3a 4620       2569 	cpy	r0,r4
00000d3c 2101       2570 	movs	r1,1
                    2571 .L15435:
                    2572 
00000d3e 4b0b*      2573 	ldr	r3,.L12600
00000d40 4798       2574 	blx	r3
00000d42 e00a*      2575 	b	.L14393
                    2576 .L14399:
                    2577 ;line4738
                    2578 ..lin.f47d2a15..80a11811.0_104::
                    2579 .LDWlin104:
00000d44 0648       2580 	lsls	r0,r1,25
00000d46 d502*      2581 	bpl	.L14412
                    2582 ;line4740
                    2583 ..lin.f47d2a15..80a11811.0_105::
                    2584 .LDWlin105:
00000d48 4915*      2585 	ldr	r1,.L15464
00000d4a 4620       2586 	cpy	r0,r4
00000d4c 4788       2587 	blx	r1
                    2588 .L14412:
00000d4e 79e0       2589 	ldrb	r0,[r4,7]
00000d50 06c0       2590 	lsls	r0,r0,27
00000d52 d502*      2591 	bpl	.L14393
                    2592 ;line4746
                    2593 ..lin.f47d2a15..80a11811.0_106::
                    2594 .LDWlin106:
00000d54 4913*      2595 	ldr	r1,.L15465
00000d56 4620       2596 	cpy	r0,r4
00000d58 4788       2597 	blx	r1
                    2598 .L14393:
00000d5a 480f*      2599 	ldr	r0,.L14383
00000d5c 4780       2600 	blx	r0
                    2601 .L14384:
                    2602 .LDW36:
00000d5e bd10       2603 	pop	{r4,pc}
                    2604 __ghs_eofn_CanTp_MainFunctionTx::
                    2605 	.endf	CanTp_MainFunctionTx
                    2606 	.align	4
00000d60 00000000*  2607 .L12279:	.data.w	CanTp_CanIfTransmitFrame
                    2608 	.endo	.L12279
                    2609 
00000d64 00000000*  2610 .L12280:	.data.w	CanTp_RxInit
                    2611 	.endo	.L12280
                    2612 

                                                                      Page 44
                                                              C:\Users\Fengyuan\AppData\Local\Temp\gh_0000kos1.s
00000d68 00000000*  2613 .L12599:	.data.w	Det_ReportError
                    2614 	.endo	.L12599
                    2615 
00000d6c 00000000*  2616 .L12600:	.data.w	CanTp_TxInit
                    2617 	.endo	.L12600
                    2618 
00000d70 00000000*  2619 .L12983:	.data.w	CanTp_RxSduSnv2Hdl
                    2620 	.endo	.L12983
                    2621 
00000d74 00000000*  2622 .L12984:	.data.w	CanTp_RxSduCfg
                    2623 	.endo	.L12984
                    2624 
00000d78 00000000*  2625 .L12985:	.data.w	CanTp_ResetChannels
                    2626 	.endo	.L12985
                    2627 
00000d7c 00000000*  2628 .L12986:	.data.w	CanTp_InitState
                    2629 	.endo	.L12986
                    2630 
00000d80 00000000*  2631 .L13158:	.data.w	CanTp_MainFunctionRx
                    2632 	.endo	.L13158
                    2633 
00000d84 00000000*  2634 .L13159:	.data.w	CanTp_MainFunctionTx
                    2635 	.endo	.L13159
                    2636 
00000d88 00000000*  2637 .L14379:	.data.w	CanTp_RxState
                    2638 	.endo	.L14379
                    2639 
00000d8c 00000000*  2640 .L14380:	.data.w	SuspendAllInterrupts
                    2641 	.endo	.L14380
                    2642 
00000d90 00000000*  2643 .L14381:	.data.w	CanTp_RxGetBuffer
                    2644 	.endo	.L14381
                    2645 
00000d94 00000000*  2646 .L14382:	.data.w	CanTp_RxTransmitFrame
                    2647 	.endo	.L14382
                    2648 
00000d98 00000000*  2649 .L14383:	.data.w	ResumeAllInterrupts
                    2650 	.endo	.L14383
                    2651 
00000d9c 00000000*  2652 .L15463:	.data.w	CanTp_TxState
                    2653 	.endo	.L15463
                    2654 
00000da0 00000000*  2655 .L15464:	.data.w	CanTp_TxGetBuffer
                    2656 	.endo	.L15464
                    2657 
00000da4 00000000*  2658 .L15465:	.data.w	CanTp_TxTransmitFrame
                    2659 	.endo	.L15465
                    2660 
                    2661 
                    2662 ..gh.f.a.1.e.17:
                    2663 	.endo	..gh.f.a.1.e.17
                    2664 CanTp_Transmit::
00000da8 b530       2665 	push	{r4-r5,lr}
00000daa 460d       2666 	cpy	r5,r1
                    2667 .LDW46:
00000dac 4a4a*      2668 	ldr	r2,.L16096
00000dae 2401       2669 	movs	r4,1
00000db0 2320       2670 	movs	r3,32
00000db2 7811       2671 	ldrb	r1,[r2]
00000db4 2901       2672 	cmp	r1,1
00000db6 d11e*      2673 	bne	.L15499

                                                                      Page 45
                                                              C:\Users\Fengyuan\AppData\Local\Temp\gh_0000kos1.s
                    2674 ;line4792
                    2675 ..lin.f47d2a15..2257710c.0_107::
                    2676 .LDWlin107:
00000db8 2330       2677 	movs	r3,48
00000dba b9e0*      2678 	cbnz	r0,.L15499
00000dbc 2303       2679 	movs	r3,3
00000dbe b1d5*      2680 	cbz	r5,.L15499
00000dc0 f64071ff   2681 	mov	r1,0x0fff
00000dc4 88a8       2682 	ldrh	r0,[r5,4]
00000dc6 2370       2683 	movs	r3,112
00000dc8 4288       2684 	cmp	r0,r1
00000dca d814*      2685 	bhi	.L15499
                    2686 .LDW56:
                    2687 
                    2688 ;line4824
                    2689 ..lin.f47d2a15..2257710c.0_108::
                    2690 .LDWlin108:
00000dcc b1c0*      2691 	cbz	r0,.L15498
00000dce 4843*      2692 	ldr	r0,.L16098
00000dd0 4780       2693 	blx	r0
00000dd2 4a43*      2694 	ldr	r2,.L16099
00000dd4 88a9       2695 	ldrh	r1,[r5,4]
00000dd6 79d0       2696 	ldrb	r0,[r2,7]
00000dd8 b950*      2697 	cbnz	r0,.L15482
00000dda 7190       2698 	strb	r0,[r2,6]
00000ddc 4604       2699 	cpy	r4,r0
00000dde 2042       2700 	movs	r0,66
00000de0 2907       2701 	cmp	r1,7
00000de2 d800*      2702 	bhi	.L15489
00000de4 2041       2703 	movs	r0,65
                    2704 .L15489:
00000de6 8094       2705 	strh	r4,[r2,4]
00000de8 71d0       2706 	strb	r0,[r2,7]
00000dea 8051       2707 	strh	r1,[r2,2]
00000dec 2029       2708 	movs	r0,41
00000dee 8010       2709 	strh	r0,[r2]
                    2710 .L15482:
                    2711 ;line4839
                    2712 ..lin.f47d2a15..2257710c.0_109::
                    2713 .LDWlin109:
00000df0 483c*      2714 	ldr	r0,.L16100
00000df2 4780       2715 	blx	r0
00000df4 e004*      2716 	b	.L15498
                    2717 .L15499:
                    2718 .LDW66:
                    2719 
                    2720 ;line4848
                    2721 ..lin.f47d2a15..2257710c.0_110::
                    2722 .LDWlin110:
00000df6 2023       2723 	movs	r0,35
00000df8 4d3b*      2724 	ldr	r5,.L16101
00000dfa 2203       2725 	movs	r2,3
00000dfc 2100       2726 	movs	r1,0
00000dfe 47a8       2727 	blx	r5
                    2728 .L15498:
00000e00 4620       2729 	cpy	r0,r4
                    2730 .LDW76:
00000e02 bd30       2731 	pop	{r4-r5,pc}
                    2732 __ghs_eofn_CanTp_Transmit::
                    2733 	.endf	CanTp_Transmit
                    2734 ;lErrorId	r3	local

                                                                      Page 46
                                                              C:\Users\Fengyuan\AppData\Local\Temp\gh_0000kos1.s
                    2735 ;lReturnValue	r4	local
                    2736 ;SduLength	r1	local
                    2737 ;lReturnValue	r4	local
                    2738 
                    2739 ;CanTpTxSduId	r0	param
                    2740 ;CanTpTxInfoPtr	r5	param
                    2741 
                    2742 ..gh.f.a.1.e.18:
                    2743 	.endo	..gh.f.a.1.e.18
                    2744 CanTp_RxIndication::
00000e04 b510       2745 	push	{r4,lr}
                    2746 .LDW86:
00000e06 4b34*      2747 	ldr	r3,.L16096
00000e08 781a       2748 	ldrb	r2,[r3]
00000e0a 2a01       2749 	cmp	r2,1
00000e0c d006*      2750 	beq	.L16104
                    2751 ;line4886
                    2752 ..lin.f47d2a15..b5ef3886.0_111::
                    2753 .LDWlin111:
00000e0e 2320       2754 	movs	r3,32
                    2755 .L16128:
                    2756 .LDW96:
                    2757 
00000e10 2023       2758 	movs	r0,35
00000e12 4c35*      2759 	ldr	r4,.L16101
00000e14 2204       2760 	movs	r2,4
00000e16 2100       2761 	movs	r1,0
00000e18 47a0       2762 	blx	r4
00000e1a e020*      2763 	b	.L16102
                    2764 .L16104:
                    2765 ;line4889
                    2766 ..lin.f47d2a15..b5ef3886.0_112::
                    2767 .LDWlin112:
00000e1c 2802       2768 	cmp	r0,2
00000e1e d301*      2769 	blo	.L16107
                    2770 ;line4891
                    2771 ..lin.f47d2a15..b5ef3886.0_113::
                    2772 .LDWlin113:
00000e20 2340       2773 	movs	r3,64
00000e22 e7f5*      2774 	b	.L16128
                    2775 .L16107:
                    2776 ;line4893
                    2777 ..lin.f47d2a15..b5ef3886.0_114::
                    2778 .LDWlin114:
00000e24 b109*      2779 	cbz	r1,.L16114
00000e26 680a       2780 	ldr	r2,[r1]
00000e28 b90a*      2781 	cbnz	r2,.L16113
                    2782 .L16114:
00000e2a 2303       2783 	movs	r3,3
00000e2c e7f0*      2784 	b	.L16128
                    2785 .L16113:
                    2786 .LDW07:
                    2787 
                    2788 ;line4941
                    2789 ..lin.f47d2a15..b5ef3886.0_115::
                    2790 .LDWlin115:
00000e2e 7812       2791 	ldrb	r2,[r2]
00000e30 f00203f0   2792 	and	r3,r2,240
00000e34 4a2d*      2793 	ldr	r2,.L16438
00000e36 eb120080   2794 	adds	r0,r2,r0 lsl 2
00000e3a 2b30       2795 	cmp	r3,48

                                                                      Page 47
                                                              C:\Users\Fengyuan\AppData\Local\Temp\gh_0000kos1.s
00000e3c d105*      2796 	bne	.L16122
00000e3e 78c0       2797 	ldrb	r0,[r0,3]
00000e40 22ff       2798 	movs	r2,255
00000e42 28ff       2799 	cmp	r0,255
00000e44 d004*      2800 	beq	.L16116
00000e46 2200       2801 	movs	r2,0
00000e48 e002*      2802 	b	.L16116
                    2803 .L16122:
00000e4a 4a29*      2804 	ldr	r2,.L16439
00000e4c 7840       2805 	ldrb	r0,[r0,1]
00000e4e 5c12       2806 	ldrb	r2,[r2,r0]
                    2807 .L16116:
00000e50 4610       2808 	cpy	r0,r2
                    2809 ;line4963
                    2810 ..lin.f47d2a15..b5ef3886.0_116::
                    2811 .LDWlin116:
00000e52 2aff       2812 	cmp	r2,255
00000e54 d003*      2813 	beq	.L16102
                    2814 ;line4965
                    2815 ..lin.f47d2a15..b5ef3886.0_117::
                    2816 .LDWlin117:
00000e56 460a       2817 	cpy	r2,r1
00000e58 4619       2818 	cpy	r1,r3
00000e5a 4b26*      2819 	ldr	r3,.L16440
00000e5c 4798       2820 	blx	r3
                    2821 .L16102:
                    2822 .LDW17:
00000e5e bd10       2823 	pop	{r4,pc}
                    2824 __ghs_eofn_CanTp_RxIndication::
                    2825 	.endf	CanTp_RxIndication
                    2826 ;lSduHdl	r0	local
                    2827 ;lReceivedFrameType	r3	local
                    2828 ;lSduHdl	r2	local
                    2829 
                    2830 ;RxPduId	r0	param
                    2831 ;PduInfoPtr	r1	param
                    2832 
                    2833 ..gh.f.a.1.e.19:
                    2834 	.endo	..gh.f.a.1.e.19
                    2835 CanTp_TxConfirmation::
00000e60 b530       2836 	push	{r4-r5,lr}
                    2837 .LDW27:
00000e62 4a1d*      2838 	ldr	r2,.L16096
00000e64 2320       2839 	movs	r3,32
00000e66 7811       2840 	ldrb	r1,[r2]
00000e68 2901       2841 	cmp	r1,1
00000e6a d12f*      2842 	bne	.L16475
                    2843 ;line5020
                    2844 ..lin.f47d2a15..25039f8f.0_118::
                    2845 .LDWlin118:
00000e6c 2330       2846 	movs	r3,48
00000e6e bb68*      2847 	cbnz	r0,.L16475
                    2848 .LDW37:
                    2849 
00000e70 481a*      2850 	ldr	r0,.L16098
00000e72 4780       2851 	blx	r0
00000e74 4820*      2852 	ldr	r0,.L16887
00000e76 21ff       2853 	movs	r1,255
00000e78 7804       2854 	ldrb	r4,[r0]
00000e7a 7845       2855 	ldrb	r5,[r0,1]
00000e7c 7001       2856 	strb	r1,[r0]

                                                                      Page 48
                                                              C:\Users\Fengyuan\AppData\Local\Temp\gh_0000kos1.s
00000e7e 2101       2857 	movs	r1,1
00000e80 7041       2858 	strb	r1,[r0,1]
00000e82 4818*      2859 	ldr	r0,.L16100
00000e84 4780       2860 	blx	r0
00000e86 2cff       2861 	cmp	r4,255
00000e88 d025*      2862 	beq	.L16441
                    2863 ;line5056
                    2864 ..lin.f47d2a15..25039f8f.0_119::
                    2865 .LDWlin119:
00000e8a 2d02       2866 	cmp	r5,2
00000e8c d10a*      2867 	bne	.L16451
                    2868 .LDW47:
                    2869 
                    2870 ;line5063
                    2871 ..lin.f47d2a15..25039f8f.0_120::
                    2872 .LDWlin120:
00000e8e 4813*      2873 	ldr	r0,.L16098
00000e90 4780       2874 	blx	r0
00000e92 4813*      2875 	ldr	r0,.L16099
00000e94 79c1       2876 	ldrb	r1,[r0,7]
00000e96 b1b1*      2877 	cbz	r1,.L16472
00000e98 211c       2878 	movs	r1,28
00000e9a 4361       2879 	muls	r1,r4
00000e9c 1808       2880 	adds	r0,r1,r0
00000e9e d012*      2881 	beq	.L16472
                    2882 ;line5070
                    2883 ..lin.f47d2a15..25039f8f.0_121::
                    2884 .LDWlin121:
00000ea0 4916*      2885 	ldr	r1,.L16888
00000ea2 e00f*      2886 	b	.L16872
                    2887 .L16451:
                    2888 .LDW57:
                    2889 
                    2890 ;line5084
                    2891 ..lin.f47d2a15..25039f8f.0_122::
                    2892 .LDWlin122:
00000ea4 4916*      2893 	ldr	r1,.L16889
00000ea6 eb1400c4   2894 	adds	r0,r4,r4 lsl 3
00000eaa 1840       2895 	adds	r0,r0,r1
00000eac 78c0       2896 	ldrb	r0,[r0,3]
00000eae b990*      2897 	cbnz	r0,.L16441
                    2898 .LDW67:
                    2899 
00000eb0 480a*      2900 	ldr	r0,.L16098
00000eb2 4780       2901 	blx	r0
00000eb4 4913*      2902 	ldr	r1,.L16890
00000eb6 201c       2903 	movs	r0,28
00000eb8 fb041000   2904 	mla	r0,r4,r0,r1
00000ebc 7841       2905 	ldrb	r1,[r0,1]
00000ebe b111*      2906 	cbz	r1,.L16472
00000ec0 b108*      2907 	cbz	r0,.L16472
                    2908 .L16473:
00000ec2 4911*      2909 	ldr	r1,.L16891
                    2910 .L16872:
                    2911 
00000ec4 4788       2912 	blx	r1
                    2913 .L16472:
                    2914 .LDW77:
                    2915 
00000ec6 4807*      2916 	ldr	r0,.L16100
00000ec8 4780       2917 	blx	r0

                                                                      Page 49
                                                              C:\Users\Fengyuan\AppData\Local\Temp\gh_0000kos1.s
00000eca e004*      2918 	b	.L16441
                    2919 .L16475:
                    2920 .LDW87:
                    2921 
                    2922 ;line5112
                    2923 ..lin.f47d2a15..25039f8f.0_123::
                    2924 .LDWlin123:
00000ecc 2023       2925 	movs	r0,35
00000ece 4c06*      2926 	ldr	r4,.L16101
00000ed0 2205       2927 	movs	r2,5
00000ed2 2100       2928 	movs	r1,0
00000ed4 47a0       2929 	blx	r4
                    2930 .L16441:
                    2931 .LDW97:
00000ed6 bd30       2932 	pop	{r4-r5,pc}
                    2933 __ghs_eofn_CanTp_TxConfirmation::
                    2934 	.endf	CanTp_TxConfirmation
                    2935 ;lErrorId	r3	local
                    2936 ;lSduHdl	r4	local
                    2937 ;lSduDir	r5	local
                    2938 ;pTpTxState	r0	local
                    2939 ;pTpRxState	r0	local
                    2940 
                    2941 ;TxPduId	r0	param
                    2942 
                    2943 	.align	4
00000ed8 00000000*  2944 .L16096:	.data.w	CanTp_InitState
                    2945 	.endo	.L16096
                    2946 
00000edc 00000000*  2947 .L16098:	.data.w	SuspendAllInterrupts
                    2948 	.endo	.L16098
                    2949 
00000ee0 00000000*  2950 .L16099:	.data.w	CanTp_TxState
                    2951 	.endo	.L16099
                    2952 
00000ee4 00000000*  2953 .L16100:	.data.w	ResumeAllInterrupts
                    2954 	.endo	.L16100
                    2955 
00000ee8 00000000*  2956 .L16101:	.data.w	Det_ReportError
                    2957 	.endo	.L16101
                    2958 
00000eec 00000000*  2959 .L16438:	.data.w	CanTp_RxPduMap
                    2960 	.endo	.L16438
                    2961 
00000ef0 00000000*  2962 .L16439:	.data.w	CanTp_RxSduCfgInd
                    2963 	.endo	.L16439
                    2964 
00000ef4 00000000*  2965 .L16440:	.data.w	CanTp_CanIfRxIndication
                    2966 	.endo	.L16440
                    2967 
00000ef8 00000000*  2968 .L16887:	.data.w	CanTp_TxSemaphores
                    2969 	.endo	.L16887
                    2970 
00000efc 00000000*  2971 .L16888:	.data.w	CanTp_CanIfTxConfirmation
                    2972 	.endo	.L16888
                    2973 
00000f00 00000000*  2974 .L16889:	.data.w	CanTp_RxSduCfg
                    2975 	.endo	.L16889
                    2976 
00000f04 00000000*  2977 .L16890:	.data.w	CanTp_RxState
                    2978 	.endo	.L16890

                                                                      Page 50
                                                              C:\Users\Fengyuan\AppData\Local\Temp\gh_0000kos1.s
                    2979 
00000f08 00000000*  2980 .L16891:	.data.w	CanTp_CanIfTxConfirmationFC
                    2981 	.endo	.L16891
                    2982 
                    2983 ;CanTp_RxPduMap	CanTp_RxPduMap	import
                    2984 ;CanTp_RxSduCfg	CanTp_RxSduCfg	import
                    2985 ;CanTp_RxSduCfgInd	CanTp_RxSduCfgInd	import
                    2986 ;CanTp_RxSduSnv2Hdl	CanTp_RxSduSnv2Hdl	import
                    2987 ;CanTp_CalcBS	CanTp_CalcBS	import
                    2988 ;CanTp_RxState	CanTp_RxState	import
                    2989 ;CanTp_TxSemaphores	CanTp_TxSemaphores	import
                    2990 ;CanTp_TxState	CanTp_TxState	import
                    2991 ;CanTp_InitState	CanTp_InitState	static
                    2992 
                    2993 	.ghsnote info, 19, 3, 640
                    2994 	.align	2
                    2995 ..eof.C.3A.5CVector.5CCBD1800257_D01_S32K1xx.5CApplications.5CS32K144_Start_new.5CAppl.5Cobj.5CCanTp...43.3A.5CVector.5CCBD1800257_D01_S32K1xx.5CApplications.5CS32K144_Start_new.5CAppl..60CBFD6E..0::
                    2996 	.section	.debug_info
                    2997 .Ldw_begin:
00000000 00000000*  2998 	.data.w	.Ldw_end-.Ldw_begin-4
00000004 0002       2999 	.data.b	2,0
00000006 00000000*  3000 	.data.w	.Ldw_abbr_begin
0000000a 04         3001 	.data.b	4
                    3002 	.section	.debug_abbrev
                    3003 .Ldw_abbr_begin:
                    3004 	.section	.debug_info
0000000b 01         3005 	.data.b	1
0000000c 00000000*  3006 	.data.w	..bof.C.3A.5CVector.5CCBD1800257_D01_S32K1xx.5CApplications.5CS32K144_Start_new.5CAppl.5Cobj.5CCanTp...43.3A.5CVector.5CCBD1800257_D01_S32K1xx.5CApplications.5CS32K144_Start_new.5CAppl..60CBFD6E..0
00000010 00000000*  3007 	.data.w	..eof.C.3A.5CVector.5CCBD1800257_D01_S32K1xx.5CApplications.5CS32K144_Start_new.5CAppl.5Cobj.5CCanTp...43.3A.5CVector.5CCBD1800257_D01_S32K1xx.5CApplications.5CS32K144_Start_new.5CAppl..60CBFD6E..0
00000014 2e2f2e2e   3008 	.data.b	46,46,47,46,46,47,46,46,47,66,83,87,47,67,97,110,84,112,47,67,97,110,84,112,46,99,0
00000018 2e2e2f2e 
0000001c 5753422f 
00000020 6e61432f 
00000024 432f7054 
00000028 70546e61 
0000002c 00632e 
0000002f 565c3a43   3009 	.data.b	67,58,92,86,101,99,116,111,114,92,67,66,68,49,56,48,48,50,53,55,95,68,48,49,95,83,51,50,75,49,120,120,92,65,112,112,108,105,99,97,116,105,111,110,115,92,83,51,50,75,49,52,52,95,83,116,97,114,116,95
00000033 6f746365 
00000037 42435c72 
0000003b 30383144 
0000003f 37353230 
00000043 3130445f 
00000047 3233535f 
0000004b 7878314b 
0000004f 7070415c 
00000053 6163696c 
00000057 6e6f6974 
0000005b 33535c73 
0000005f 34314b32 
00000063 74535f34 
00000067 5f747261 
0000006b 5c77656e   3010 	.data.b	110,101,119,92,65,112,112,108,0
0000006f 6c707041 
00000073 00 
00000074 20534847   3011 	.data.b	71,72,83,32,67,32,50,48,49,55,46,49,46,52,32,91,100,117,97,108,93,0
00000078 30322043 
0000007c 312e3731 
00000080 5b20342e 
00000084 6c617564 
00000088 005d 
0000008a 0001       3012 	.data.b	1,0

                                                                      Page 51
                                                              C:\Users\Fengyuan\AppData\Local\Temp\gh_0000kos1.s
0000008c 00000000*  3013 	.data.w	.Ldw_line_begin
00000090 00000000*  3014 	.data.w	.Ldw_macinfo_begin
00000094 00         3015 	.data.b	0
                    3016 
                    3017 	.section	.debug_abbrev
00000000 01         3018 	.data.b	1
00000001 11         3019 	.data.b	17
00000002 01         3020 	.data.b	1
00000003 0111       3021 	.data.b	17,1
00000005 0112       3022 	.data.b	18,1
00000007 0803       3023 	.data.b	3,8
00000009 081b       3024 	.data.b	27,8
0000000b 0825       3025 	.data.b	37,8
0000000d 0513       3026 	.data.b	19,5
0000000f 0610       3027 	.data.b	16,6
00000011 0643       3028 	.data.b	67,6
00000013 0b42       3029 	.data.b	66,11
00000015 0000       3030 	.data.b	0,0
                    3031 
                    3032 	.section	.debug_line
                    3033 .Ldw_line_begin:
00000000 00000000*  3034 	.data.w	.Ldw_line_end-.Ldw_line_begin-4
00000004 0002       3035 	.data.b	2,0
00000006 00000000*  3036 	.data.w	.Ldw_lpro_end-.Ldw_lpro_begin
                    3037 .Ldw_lpro_begin:
0000000a 01         3038 	.data.b	1
0000000b 00         3039 	.data.b	0
0000000c 00         3040 	.data.b	0
0000000d 04         3041 	.data.b	4
0000000e 0a         3042 	.data.b	10
0000000f 010100     3043 	.data.b	0,1,1
00000012 000101     3044 	.data.b	1,1,0
00000015 010000     3045 	.data.b	0,0,1
00000018 00         3046 	.data.b	0
00000019 2e2f2e2e   3047 	.data.b	46,46,47,46,46,47,46,46,47,66,83,87,47,67,97,110,84,112,47,67,97,110,84,112,46,99,0
0000001d 2e2e2f2e 
00000021 5753422f 
00000025 6e61432f 
00000029 432f7054 
0000002d 70546e61 
00000031 00632e 
00000034 000000     3048 	.data.b	0,0,0
00000037 2e2f2e2e   3049 	.data.b	46,46,47,46,46,47,46,46,47,66,83,87,47,67,97,110,84,112,47,67,97,110,84,112,46,104,0
0000003b 2e2e2f2e 
0000003f 5753422f 
00000043 6e61432f 
00000047 432f7054 
0000004b 70546e61 
0000004f 00682e 
00000052 000000     3050 	.data.b	0,0,0
00000055 2e2f2e2e   3051 	.data.b	46,46,47,46,46,47,46,46,47,66,83,87,47,67,97,110,84,112,47,67,97,110,84,112,95,84,121,112,101,115,46,104,0
00000059 2e2e2f2e 
0000005d 5753422f 
00000061 6e61432f 
00000065 432f7054 
00000069 70546e61 
0000006d 7079545f 
00000071 682e7365 
00000075 00 
00000076 000000     3052 	.data.b	0,0,0
00000079 2e2f2e2e   3053 	.data.b	46,46,47,46,46,47,46,46,47,98,115,119,47,95,99,111,109,109,111,110,47,67,111,109,83,116,97,99,107,95,84,121,112,101,115,46,104,0

                                                                      Page 52
                                                              C:\Users\Fengyuan\AppData\Local\Temp\gh_0000kos1.s
0000007d 2e2e2f2e 
00000081 7773622f 
00000085 6f635f2f 
00000089 6e6f6d6d 
0000008d 6d6f432f 
00000091 63617453 
00000095 79545f6b 
00000099 2e736570 
0000009d 0068 
0000009f 000000     3054 	.data.b	0,0,0
000000a2 2e2f2e2e   3055 	.data.b	46,46,47,46,46,47,46,46,47,98,115,119,47,95,99,111,109,109,111,110,47,83,116,100,95,84,121,112,101,115,46,104,0
000000a6 2e2e2f2e 
000000aa 7773622f 
000000ae 6f635f2f 
000000b2 6e6f6d6d 
000000b6 6474532f 
000000ba 7079545f 
000000be 682e7365 
000000c2 00 
000000c3 000000     3056 	.data.b	0,0,0
000000c6 2e2f2e2e   3057 	.data.b	46,46,47,46,46,47,46,46,47,98,115,119,47,95,99,111,109,109,111,110,47,80,108,97,116,102,111,114,109,95,84,121,112,101,115,46,104,0
000000ca 2e2e2f2e 
000000ce 7773622f 
000000d2 6f635f2f 
000000d6 6e6f6d6d 
000000da 616c502f 
000000de 726f6674 
000000e2 79545f6d 
000000e6 2e736570 
000000ea 0068 
000000ec 000000     3058 	.data.b	0,0,0
000000ef 2e2f2e2e   3059 	.data.b	46,46,47,46,46,47,46,46,47,98,115,119,47,95,99,111,109,109,111,110,47,67,111,109,112,105,108,101,114,46,104,0
000000f3 2e2e2f2e 
000000f7 7773622f 
000000fb 6f635f2f 
000000ff 6e6f6d6d 
00000103 6d6f432f 
00000107 656c6970 
0000010b 00682e72 
0000010f 000000     3060 	.data.b	0,0,0
00000112 6c636e69   3061 	.data.b	105,110,99,108,117,100,101,92,67,111,109,112,105,108,101,114,95,67,102,103,46,104,0
00000116 5c656475 
0000011a 706d6f43 
0000011e 72656c69 
00000122 6766435f 
00000126 00682e 
00000129 000000     3062 	.data.b	0,0,0
0000012c 646e6567   3063 	.data.b	103,101,110,100,97,116,97,92,82,116,101,95,67,111,109,112,105,108,101,114,95,67,102,103,46,104,0
00000130 5c617461 
00000134 5f657452 
00000138 706d6f43 
0000013c 72656c69 
00000140 6766435f 
00000144 00682e 
00000147 000000     3064 	.data.b	0,0,0
0000014a 6c636e69   3065 	.data.b	105,110,99,108,117,100,101,92,67,100,100,95,84,112,95,67,111,109,112,105,108,101,114,95,67,102,103,46,104,0
0000014e 5c656475 
00000152 5f646443 
00000156 435f7054 
0000015a 69706d6f 
0000015e 5f72656c 

                                                                      Page 53
                                                              C:\Users\Fengyuan\AppData\Local\Temp\gh_0000kos1.s
00000162 2e676643 
00000166 0068 
00000168 000000     3066 	.data.b	0,0,0
0000016b 6c636e69   3067 	.data.b	105,110,99,108,117,100,101,92,67,100,100,95,67,111,109,95,67,111,109,112,105,108,101,114,95,67,102,103,46,104,0
0000016f 5c656475 
00000173 5f646443 
00000177 5f6d6f43 
0000017b 706d6f43 
0000017f 72656c69 
00000183 6766435f 
00000187 00682e 
0000018a 000000     3068 	.data.b	0,0,0
0000018d 646e6567   3069 	.data.b	103,101,110,100,97,116,97,92,79,115,95,67,111,109,112,105,108,101,114,95,67,102,103,46,104,0
00000191 5c617461 
00000195 435f734f 
00000199 69706d6f 
0000019d 5f72656c 
000001a1 2e676643 
000001a5 0068 
000001a7 000000     3070 	.data.b	0,0,0
000001aa 646e6567   3071 	.data.b	103,101,110,100,97,116,97,92,67,111,109,83,116,97,99,107,95,67,102,103,46,104,0
000001ae 5c617461 
000001b2 536d6f43 
000001b6 6b636174 
000001ba 6766435f 
000001be 00682e 
000001c1 000000     3072 	.data.b	0,0,0
000001c4 646e6567   3073 	.data.b	103,101,110,100,97,116,97,92,67,97,110,84,112,95,67,102,103,46,104,0
000001c8 5c617461 
000001cc 546e6143 
000001d0 66435f70 
000001d4 00682e67 
000001d8 000000     3074 	.data.b	0,0,0
000001db 646e6567   3075 	.data.b	103,101,110,100,97,116,97,92,67,97,110,84,112,95,76,99,102,103,46,104,0
000001df 5c617461 
000001e3 546e6143 
000001e7 634c5f70 
000001eb 682e6766 
000001ef 00 
000001f0 000000     3076 	.data.b	0,0,0
000001f3 6c636e69   3077 	.data.b	105,110,99,108,117,100,101,92,77,101,109,77,97,112,46,104,0
000001f7 5c656475 
000001fb 4d6d654d 
000001ff 682e7061 
00000203 00 
00000204 000000     3078 	.data.b	0,0,0
00000207 646e6567   3079 	.data.b	103,101,110,100,97,116,97,92,67,97,110,84,112,95,80,66,99,102,103,46,104,0
0000020b 5c617461 
0000020f 546e6143 
00000213 42505f70 
00000217 2e676663 
0000021b 0068 
0000021d 000000     3080 	.data.b	0,0,0
00000220 2e2f2e2e   3081 	.data.b	46,46,47,46,46,47,46,46,47,66,83,87,47,67,97,110,84,112,47,67,97,110,84,112,95,67,98,107,46,104,0
00000224 2e2e2f2e 
00000228 5753422f 
0000022c 6e61432f 
00000230 432f7054 
00000234 70546e61 
00000238 6b62435f 
0000023c 00682e 

                                                                      Page 54
                                                              C:\Users\Fengyuan\AppData\Local\Temp\gh_0000kos1.s
0000023f 000000     3082 	.data.b	0,0,0
00000242 646e6567   3083 	.data.b	103,101,110,100,97,116,97,92,80,100,117,82,95,67,97,110,84,112,46,104,0
00000246 5c617461 
0000024a 52756450 
0000024e 6e61435f 
00000252 682e7054 
00000256 00 
00000257 000000     3084 	.data.b	0,0,0
0000025a 646e6567   3085 	.data.b	103,101,110,100,97,116,97,92,80,100,117,82,95,67,102,103,46,104,0
0000025e 5c617461 
00000262 52756450 
00000266 6766435f 
0000026a 00682e 
0000026d 000000     3086 	.data.b	0,0,0
00000270 646e6567   3087 	.data.b	103,101,110,100,97,116,97,92,80,100,117,82,95,84,121,112,101,115,46,104,0
00000274 5c617461 
00000278 52756450 
0000027c 7079545f 
00000280 682e7365 
00000284 00 
00000285 000000     3088 	.data.b	0,0,0
00000288 2e2f2e2e   3089 	.data.b	46,46,47,46,46,47,46,46,47,98,115,119,47,99,97,110,105,102,47,67,97,110,73,102,46,104,0
0000028c 2e2e2f2e 
00000290 7773622f 
00000294 6e61632f 
00000298 432f6669 
0000029c 66496e61 
000002a0 00682e 
000002a3 000000     3090 	.data.b	0,0,0
000002a6 646e6567   3091 	.data.b	103,101,110,100,97,116,97,92,67,97,110,73,102,95,67,102,103,46,104,0
000002aa 5c617461 
000002ae 496e6143 
000002b2 66435f66 
000002b6 00682e67 
000002ba 000000     3092 	.data.b	0,0,0
000002bd 2e2f2e2e   3093 	.data.b	46,46,47,46,46,47,46,46,47,98,115,119,47,99,97,110,47,67,97,110,46,104,0
000002c1 2e2e2f2e 
000002c5 7773622f 
000002c9 6e61632f 
000002cd 6e61432f 
000002d1 00682e 
000002d4 000000     3094 	.data.b	0,0,0
000002d7 646e6567   3095 	.data.b	103,101,110,100,97,116,97,92,67,97,110,95,67,102,103,46,104,0
000002db 5c617461 
000002df 5f6e6143 
000002e3 2e676643 
000002e7 0068 
000002e9 000000     3096 	.data.b	0,0,0
000002ec 2e2f2e2e   3097 	.data.b	46,46,47,46,46,47,46,46,47,98,115,119,47,95,99,111,109,109,111,110,47,67,97,110,95,71,101,110,101,114,97,108,84,121,112,101,115,46,104,0
000002f0 2e2e2f2e 
000002f4 7773622f 
000002f8 6f635f2f 
000002fc 6e6f6d6d 
00000300 6e61432f 
00000304 6e65475f 
00000308 6c617265 
0000030c 65707954 
00000310 00682e73 
00000314 000000     3098 	.data.b	0,0,0
00000317 646e6567   3099 	.data.b	103,101,110,100,97,116,97,92,67,97,110,95,68,114,118,71,101,110,101,114,97,108,84,121,112,101,115,46,104,0
0000031b 5c617461 

                                                                      Page 55
                                                              C:\Users\Fengyuan\AppData\Local\Temp\gh_0000kos1.s
0000031f 5f6e6143 
00000323 47767244 
00000327 72656e65 
0000032b 79546c61 
0000032f 2e736570 
00000333 0068 
00000335 000000     3100 	.data.b	0,0,0
00000338 2e2f2e2e   3101 	.data.b	46,46,47,46,46,47,46,46,47,98,115,119,47,99,97,110,105,102,47,67,97,110,73,102,95,71,101,110,101,114,97,108,84,121,112,101,115,46,104,0
0000033c 2e2e2f2e 
00000340 7773622f 
00000344 6e61632f 
00000348 432f6669 
0000034c 66496e61 
00000350 6e65475f 
00000354 6c617265 
00000358 65707954 
0000035c 00682e73 
00000360 000000     3102 	.data.b	0,0,0
00000363 2e2f2e2e   3103 	.data.b	46,46,47,46,46,47,46,46,47,98,115,119,47,99,97,110,105,102,47,67,97,110,73,102,95,84,121,112,101,115,46,104,0
00000367 2e2e2f2e 
0000036b 7773622f 
0000036f 6e61632f 
00000373 432f6669 
00000377 66496e61 
0000037b 7079545f 
0000037f 682e7365 
00000383 00 
00000384 000000     3104 	.data.b	0,0,0
00000387 646e6567   3105 	.data.b	103,101,110,100,97,116,97,92,83,99,104,77,95,67,97,110,84,112,46,104,0
0000038b 5c617461 
0000038f 4d686353 
00000393 6e61435f 
00000397 682e7054 
0000039b 00 
0000039c 000000     3106 	.data.b	0,0,0
0000039f 646e6567   3107 	.data.b	103,101,110,100,97,116,97,92,83,99,104,77,95,67,97,110,84,112,95,84,121,112,101,46,104,0
000003a3 5c617461 
000003a7 4d686353 
000003ab 6e61435f 
000003af 545f7054 
000003b3 2e657079 
000003b7 0068 
000003b9 000000     3108 	.data.b	0,0,0
000003bc 646e6567   3109 	.data.b	103,101,110,100,97,116,97,92,82,116,101,95,84,121,112,101,46,104,0
000003c0 5c617461 
000003c4 5f657452 
000003c8 65707954 
000003cc 00682e 
000003cf 000000     3110 	.data.b	0,0,0
000003d2 646e6567   3111 	.data.b	103,101,110,100,97,116,97,92,82,116,101,46,104,0
000003d6 5c617461 
000003da 2e657452 
000003de 0068 
000003e0 000000     3112 	.data.b	0,0,0
000003e3 646e6567   3113 	.data.b	103,101,110,100,97,116,97,92,82,116,101,95,85,115,101,114,84,121,112,101,115,46,104,0
000003e7 5c617461 
000003eb 5f657452 
000003ef 72657355 
000003f3 65707954 
000003f7 00682e73 
000003fb 000000     3114 	.data.b	0,0,0

                                                                      Page 56
                                                              C:\Users\Fengyuan\AppData\Local\Temp\gh_0000kos1.s
000003fe 646e6567   3115 	.data.b	103,101,110,100,97,116,97,92,82,116,101,95,68,97,116,97,72,97,110,100,108,101,84,121,112,101,46,104,0
00000402 5c617461 
00000406 5f657452 
0000040a 61746144 
0000040e 646e6148 
00000412 7954656c 
00000416 682e6570 
0000041a 00 
0000041b 000000     3116 	.data.b	0,0,0
0000041e 2e2f2e2e   3117 	.data.b	46,46,47,46,46,47,46,46,47,98,115,119,47,111,115,47,79,115,46,104,0
00000422 2e2e2f2e 
00000426 7773622f 
0000042a 2f736f2f 
0000042e 682e734f 
00000432 00 
00000433 000000     3118 	.data.b	0,0,0
00000436 2e2f2e2e   3119 	.data.b	46,46,47,46,46,47,46,46,47,98,115,119,47,111,115,47,79,115,73,110,116,46,104,0
0000043a 2e2e2f2e 
0000043e 7773622f 
00000442 2f736f2f 
00000446 6e49734f 
0000044a 00682e74 
0000044e 000000     3120 	.data.b	0,0,0
00000451 646e6567   3121 	.data.b	103,101,110,100,97,116,97,92,79,115,95,76,99,102,103,46,104,0
00000455 5c617461 
00000459 4c5f734f 
0000045d 2e676663 
00000461 0068 
00000463 000000     3122 	.data.b	0,0,0
00000466 646e6567   3123 	.data.b	103,101,110,100,97,116,97,92,79,115,95,67,102,103,46,104,0
0000046a 5c617461 
0000046e 435f734f 
00000472 682e6766 
00000476 00 
00000477 000000     3124 	.data.b	0,0,0
0000047a 646e6567   3125 	.data.b	103,101,110,100,97,116,97,92,79,115,95,72,97,108,95,67,102,103,46,104,0
0000047e 5c617461 
00000482 485f734f 
00000486 435f6c61 
0000048a 682e6766 
0000048e 00 
0000048f 000000     3126 	.data.b	0,0,0
00000492 2e2f2e2e   3127 	.data.b	46,46,47,46,46,47,46,46,47,98,115,119,47,111,115,47,79,115,95,84,121,112,101,115,46,104,0
00000496 2e2e2f2e 
0000049a 7773622f 
0000049e 2f736f2f 
000004a2 545f734f 
000004a6 73657079 
000004aa 00682e 
000004ad 000000     3128 	.data.b	0,0,0
000004b0 646e6567   3129 	.data.b	103,101,110,100,97,116,97,92,79,115,95,84,121,112,101,115,95,76,99,102,103,46,104,0
000004b4 5c617461 
000004b8 545f734f 
000004bc 73657079 
000004c0 66634c5f 
000004c4 00682e67 
000004c8 000000     3130 	.data.b	0,0,0
000004cb 2e2f2e2e   3131 	.data.b	46,46,47,46,46,47,46,46,47,98,115,119,47,111,115,47,79,115,95,72,97,108,95,79,115,95,84,121,112,101,115,46,104,0
000004cf 2e2e2f2e 
000004d3 7773622f 
000004d7 2f736f2f 

                                                                      Page 57
                                                              C:\Users\Fengyuan\AppData\Local\Temp\gh_0000kos1.s
000004db 485f734f 
000004df 4f5f6c61 
000004e3 79545f73 
000004e7 2e736570 
000004eb 0068 
000004ed 000000     3132 	.data.b	0,0,0
000004f0 646e6567   3133 	.data.b	103,101,110,100,97,116,97,92,79,115,95,72,97,108,95,76,99,102,103,46,104,0
000004f4 5c617461 
000004f8 485f734f 
000004fc 4c5f6c61 
00000500 2e676663 
00000504 0068 
00000506 000000     3134 	.data.b	0,0,0
00000509 2e2f2e2e   3135 	.data.b	46,46,47,46,46,47,46,46,47,98,115,119,47,111,115,47,79,115,95,72,97,108,95,79,115,73,110,116,46,104,0
0000050d 2e2e2f2e 
00000511 7773622f 
00000515 2f736f2f 
00000519 485f734f 
0000051d 4f5f6c61 
00000521 746e4973 
00000525 00682e 
00000528 000000     3136 	.data.b	0,0,0
0000052b 2e2f2e2e   3137 	.data.b	46,46,47,46,46,47,46,46,47,98,115,119,47,111,115,47,79,115,95,72,97,108,95,79,115,46,104,0
0000052f 2e2e2f2e 
00000533 7773622f 
00000537 2f736f2f 
0000053b 485f734f 
0000053f 4f5f6c61 
00000543 00682e73 
00000547 000000     3138 	.data.b	0,0,0
0000054a 2e2f2e2e   3139 	.data.b	46,46,47,46,46,47,46,46,47,98,115,119,47,111,115,47,79,115,95,77,101,109,77,97,112,95,79,115,67,111,100,101,46,104,0
0000054e 2e2e2f2e 
00000552 7773622f 
00000556 2f736f2f 
0000055a 4d5f734f 
0000055e 614d6d65 
00000562 734f5f70 
00000566 65646f43 
0000056a 00682e 
0000056d 000000     3140 	.data.b	0,0,0
00000570 646e6567   3141 	.data.b	103,101,110,100,97,116,97,92,79,115,95,77,101,109,77,97,112,95,79,115,67,111,100,101,73,110,116,46,104,0
00000574 5c617461 
00000578 4d5f734f 
0000057c 614d6d65 
00000580 734f5f70 
00000584 65646f43 
00000588 2e746e49 
0000058c 0068 
0000058e 000000     3142 	.data.b	0,0,0
00000591 2e2f2e2e   3143 	.data.b	46,46,47,46,46,47,46,46,47,98,115,119,47,100,101,116,47,68,101,116,46,104,0
00000595 2e2e2f2e 
00000599 7773622f 
0000059d 7465642f 
000005a1 7465442f 
000005a5 00682e 
000005a8 000000     3144 	.data.b	0,0,0
000005ab 646e6567   3145 	.data.b	103,101,110,100,97,116,97,92,68,101,116,95,67,102,103,46,104,0
000005af 5c617461 
000005b3 5f746544 
000005b7 2e676643 
000005bb 0068 

                                                                      Page 58
                                                              C:\Users\Fengyuan\AppData\Local\Temp\gh_0000kos1.s
000005bd 000000     3146 	.data.b	0,0,0
000005c0 2e2f2e2e   3147 	.data.b	46,46,47,46,46,47,46,46,47,66,83,87,47,67,97,110,84,112,47,67,97,110,84,112,95,80,114,105,118,46,104,0
000005c4 2e2e2f2e 
000005c8 5753422f 
000005cc 6e61432f 
000005d0 432f7054 
000005d4 70546e61 
000005d8 6972505f 
000005dc 00682e76 
000005e0 000000     3148 	.data.b	0,0,0
000005e3 00         3149 	.data.b	0
                    3150 .Ldw_lpro_end:
                    3151 	.section	.debug_macinfo
                    3152 .Ldw_macinfo_begin:
                    3153 	.section	.debug_frame
                    3154 .LDW_5fd7438:
00000000 00000000*  3155 	.data.w	.LDW_unq_2-.LDW_unq_1
                    3156 .LDW_unq_1:
00000004 ffffffff   3157 	.data.b	255,255,255,255
00000008 01         3158 	.data.b	1
00000009 00         3159 	.data.b	0
0000000a 01         3160 	.data.b	1
0000000b 01         3161 	.data.b	1
0000000c 00         3162 	.data.b	0
0000000d 0c         3163 	.data.b	12
0000000e 0d         3164 	.data.b	13
0000000f 00         3165 	.data.b	0
00000010 07         3166 	.data.b	7
00000011 00         3167 	.data.b	0
00000012 07         3168 	.data.b	7
00000013 01         3169 	.data.b	1
00000014 07         3170 	.data.b	7
00000015 02         3171 	.data.b	2
00000016 07         3172 	.data.b	7
00000017 03         3173 	.data.b	3
00000018 07         3174 	.data.b	7
00000019 04         3175 	.data.b	4
0000001a 07         3176 	.data.b	7
0000001b 05         3177 	.data.b	5
0000001c 07         3178 	.data.b	7
0000001d 06         3179 	.data.b	6
0000001e 07         3180 	.data.b	7
0000001f 07         3181 	.data.b	7
00000020 07         3182 	.data.b	7
00000021 08         3183 	.data.b	8
00000022 07         3184 	.data.b	7
00000023 09         3185 	.data.b	9
00000024 07         3186 	.data.b	7
00000025 0a         3187 	.data.b	10
00000026 07         3188 	.data.b	7
00000027 0b         3189 	.data.b	11
00000028 07         3190 	.data.b	7
00000029 0c         3191 	.data.b	12
0000002a 07         3192 	.data.b	7
0000002b 0d         3193 	.data.b	13
0000002c 07         3194 	.data.b	7
0000002d 0e         3195 	.data.b	14
0000002e 07         3196 	.data.b	7
0000002f 0f         3197 	.data.b	15
00000030 07         3198 	.data.b	7
00000031 10         3199 	.data.b	16

                                                                      Page 59
                                                              C:\Users\Fengyuan\AppData\Local\Temp\gh_0000kos1.s
00000032 07         3200 	.data.b	7
00000033 11         3201 	.data.b	17
00000034 07         3202 	.data.b	7
00000035 12         3203 	.data.b	18
00000036 07         3204 	.data.b	7
00000037 13         3205 	.data.b	19
00000038 07         3206 	.data.b	7
00000039 14         3207 	.data.b	20
0000003a 07         3208 	.data.b	7
0000003b 15         3209 	.data.b	21
0000003c 07         3210 	.data.b	7
0000003d 16         3211 	.data.b	22
0000003e 07         3212 	.data.b	7
0000003f 17         3213 	.data.b	23
00000040 07         3214 	.data.b	7
00000041 18         3215 	.data.b	24
00000042 07         3216 	.data.b	7
00000043 19         3217 	.data.b	25
00000044 07         3218 	.data.b	7
00000045 1a         3219 	.data.b	26
00000046 07         3220 	.data.b	7
00000047 1b         3221 	.data.b	27
00000048 07         3222 	.data.b	7
00000049 1c         3223 	.data.b	28
0000004a 07         3224 	.data.b	7
0000004b 1d         3225 	.data.b	29
0000004c 07         3226 	.data.b	7
0000004d 1e         3227 	.data.b	30
0000004e 07         3228 	.data.b	7
0000004f 1f         3229 	.data.b	31
00000050 07         3230 	.data.b	7
00000051 20         3231 	.data.b	32
00000052 07         3232 	.data.b	7
00000053 21         3233 	.data.b	33
00000054 07         3234 	.data.b	7
00000055 22         3235 	.data.b	34
00000056 07         3236 	.data.b	7
00000057 23         3237 	.data.b	35
00000058 07         3238 	.data.b	7
00000059 24         3239 	.data.b	36
0000005a 07         3240 	.data.b	7
0000005b 25         3241 	.data.b	37
0000005c 07         3242 	.data.b	7
0000005d 26         3243 	.data.b	38
0000005e 07         3244 	.data.b	7
0000005f 27         3245 	.data.b	39
00000060 07         3246 	.data.b	7
00000061 28         3247 	.data.b	40
00000062 07         3248 	.data.b	7
00000063 29         3249 	.data.b	41
00000064 07         3250 	.data.b	7
00000065 2a         3251 	.data.b	42
00000066 07         3252 	.data.b	7
00000067 2b         3253 	.data.b	43
00000068 07         3254 	.data.b	7
00000069 2c         3255 	.data.b	44
0000006a 07         3256 	.data.b	7
0000006b 2d         3257 	.data.b	45
0000006c 07         3258 	.data.b	7
0000006d 2e         3259 	.data.b	46
0000006e 07         3260 	.data.b	7

                                                                      Page 60
                                                              C:\Users\Fengyuan\AppData\Local\Temp\gh_0000kos1.s
0000006f 2f         3261 	.data.b	47
00000070 07         3262 	.data.b	7
00000071 30         3263 	.data.b	48
00000072 07         3264 	.data.b	7
00000073 31         3265 	.data.b	49
00000074 07         3266 	.data.b	7
00000075 32         3267 	.data.b	50
00000076 07         3268 	.data.b	7
00000077 33         3269 	.data.b	51
00000078 07         3270 	.data.b	7
00000079 34         3271 	.data.b	52
0000007a 07         3272 	.data.b	7
0000007b 35         3273 	.data.b	53
0000007c 07         3274 	.data.b	7
0000007d 36         3275 	.data.b	54
0000007e 07         3276 	.data.b	7
0000007f 37         3277 	.data.b	55
00000080 07         3278 	.data.b	7
00000081 38         3279 	.data.b	56
00000082 07         3280 	.data.b	7
00000083 39         3281 	.data.b	57
00000084 07         3282 	.data.b	7
00000085 3a         3283 	.data.b	58
00000086 07         3284 	.data.b	7
00000087 3b         3285 	.data.b	59
00000088 07         3286 	.data.b	7
00000089 3c         3287 	.data.b	60
0000008a 07         3288 	.data.b	7
0000008b 3d         3289 	.data.b	61
0000008c 07         3290 	.data.b	7
0000008d 3e         3291 	.data.b	62
0000008e 07         3292 	.data.b	7
0000008f 3f         3293 	.data.b	63
                    3294 .LDW_unq_2:
                    3295 	.section	.debug_info
                    3296 .LDW_4b4d7b8:
00000095 27         3297 	.data.b	39
00000096 69736e75   3298 	.data.b	117,110,115,105,103,110,101,100,32,99,104,97,114,0
0000009a 64656e67 
0000009e 61686320 
000000a2 0072 
000000a4 08         3299 	.data.b	8
000000a5 01         3300 	.data.b	1
                    3301 
                    3302 	.section	.debug_abbrev
00000017 27         3303 	.data.b	39
00000018 24         3304 	.data.b	36
00000019 00         3305 	.data.b	0
0000001a 0803       3306 	.data.b	3,8
0000001c 0b3e       3307 	.data.b	62,11
0000001e 0b0b       3308 	.data.b	11,11
00000020 0000       3309 	.data.b	0,0
                    3310 
                    3311 	.section	.debug_info
                    3312 .LDW_4b4d128:
000000a6 31         3313 	.data.b	49
000000a7 00000000*  3314 	.data.w	.LDW_4b7ea10
                    3315 
                    3316 	.section	.debug_abbrev
00000022 31         3317 	.data.b	49
00000023 0f         3318 	.data.b	15

                                                                      Page 61
                                                              C:\Users\Fengyuan\AppData\Local\Temp\gh_0000kos1.s
00000024 00         3319 	.data.b	0
00000025 1049       3320 	.data.b	73,16
00000027 0000       3321 	.data.b	0,0
                    3322 
                    3323 	.section	.debug_info
                    3324 .LDW_4b7ef78:
000000ab 2b         3325 	.data.b	43
000000ac 00000000*  3326 	.data.w	.LDW_4b7ea10
                    3327 
                    3328 	.section	.debug_abbrev
00000029 2b         3329 	.data.b	43
0000002a 26         3330 	.data.b	38
0000002b 00         3331 	.data.b	0
0000002c 1049       3332 	.data.b	73,16
0000002e 0000       3333 	.data.b	0,0
                    3334 
                    3335 	.section	.debug_info
                    3336 .LDW_4b4d160:
000000b0 31         3337 	.data.b	49
000000b1 00000000*  3338 	.data.w	.LDW_4b7ef78
                    3339 
                    3340 .LDW_4b4d668:
000000b5 27         3341 	.data.b	39
000000b6 69736e75   3342 	.data.b	117,110,115,105,103,110,101,100,32,115,104,111,114,116,0
000000ba 64656e67 
000000be 6f687320 
000000c2 007472 
000000c5 07         3343 	.data.b	7
000000c6 02         3344 	.data.b	2
                    3345 
                    3346 .LDW_4b4d5f8:
000000c7 47         3347 	.data.b	71
000000c8 01         3348 	.data.b	1
                    3349 
                    3350 	.section	.debug_abbrev
00000030 47         3351 	.data.b	71
00000031 15         3352 	.data.b	21
00000032 01         3353 	.data.b	1
00000033 0c27       3354 	.data.b	39,12
00000035 0000       3355 	.data.b	0,0
                    3356 
                    3357 	.section	.debug_info
                    3358 .LDW_4b305e8:
000000c9 14         3359 	.data.b	20
000000ca 00000000*  3360 	.data.w	.LDW_4b4d128
000000ce 00         3361 	.data.b	0
                    3362 
                    3363 	.section	.debug_abbrev
00000037 14         3364 	.data.b	20
00000038 05         3365 	.data.b	5
00000039 00         3366 	.data.b	0
0000003a 1049       3367 	.data.b	73,16
0000003c 0c4b       3368 	.data.b	75,12
0000003e 0000       3369 	.data.b	0,0
                    3370 
                    3371 	.section	.debug_info
                    3372 .LDW_4b30558:
000000cf 14         3373 	.data.b	20
000000d0 00000000*  3374 	.data.w	.LDW_4b4d160
000000d4 00         3375 	.data.b	0
                    3376 

                                                                      Page 62
                                                              C:\Users\Fengyuan\AppData\Local\Temp\gh_0000kos1.s
                    3377 .LDW_4b30588:
000000d5 14         3378 	.data.b	20
000000d6 00000000*  3379 	.data.w	.LDW_4b7a120
000000da 00         3380 	.data.b	0
                    3381 
000000db 00         3382 	.data.b	0
                    3383 
                    3384 .LDW_4b4d3c8:
000000dc 27         3385 	.data.b	39
000000dd 69736e75   3386 	.data.b	117,110,115,105,103,110,101,100,32,108,111,110,103,0
000000e1 64656e67 
000000e5 6e6f6c20 
000000e9 0067 
000000eb 07         3387 	.data.b	7
000000ec 04         3388 	.data.b	4
                    3389 
                    3390 .LDW_4b4d6a0:
000000ed 46         3391 	.data.b	70
000000ee 00000000*  3392 	.data.w	.LDW_4b7a318
000000f2 01         3393 	.data.b	1
                    3394 
                    3395 	.section	.debug_abbrev
00000040 46         3396 	.data.b	70
00000041 15         3397 	.data.b	21
00000042 01         3398 	.data.b	1
00000043 1049       3399 	.data.b	73,16
00000045 0c27       3400 	.data.b	39,12
00000047 0000       3401 	.data.b	0,0
                    3402 
                    3403 	.section	.debug_info
                    3404 .LDW_4b30528:
000000f3 14         3405 	.data.b	20
000000f4 00000000*  3406 	.data.w	.LDW_4b7a370
000000f8 00         3407 	.data.b	0
                    3408 
                    3409 .LDW_4b30678:
000000f9 14         3410 	.data.b	20
000000fa 00000000*  3411 	.data.w	.LDW_4b7a370
000000fe 00         3412 	.data.b	0
                    3413 
000000ff 00         3414 	.data.b	0
                    3415 
                    3416 .LDW_4b4d470:
00000100 46         3417 	.data.b	70
00000101 00000000*  3418 	.data.w	.LDW_4b7a318
00000105 01         3419 	.data.b	1
                    3420 
00000106 00         3421 	.data.b	0
                    3422 
                    3423 .LDW_4b4d400:
00000107 46         3424 	.data.b	70
00000108 00000000*  3425 	.data.w	.LDW_4b7ea10
0000010c 01         3426 	.data.b	1
                    3427 
                    3428 .LDW_5c65288:
0000010d 14         3429 	.data.b	20
0000010e 00000000*  3430 	.data.w	.LDW_4b7ea10
00000112 00         3431 	.data.b	0
                    3432 
                    3433 .LDW_5c655b8:
00000113 14         3434 	.data.b	20

                                                                      Page 63
                                                              C:\Users\Fengyuan\AppData\Local\Temp\gh_0000kos1.s
00000114 00000000*  3435 	.data.w	.LDW_4b7a318
00000118 00         3436 	.data.b	0
                    3437 
                    3438 .LDW_5c65588:
00000119 14         3439 	.data.b	20
0000011a 00000000*  3440 	.data.w	.LDW_5d78bd0
0000011e 00         3441 	.data.b	0
                    3442 
0000011f 00         3443 	.data.b	0
                    3444 
                    3445 .LDW_4b4d320:
00000120 46         3446 	.data.b	70
00000121 00000000*  3447 	.data.w	.LDW_4b7ea10
00000125 01         3448 	.data.b	1
                    3449 
                    3450 .LDW_5c65168:
00000126 14         3451 	.data.b	20
00000127 00000000*  3452 	.data.w	.LDW_4b7ea10
0000012b 00         3453 	.data.b	0
                    3454 
0000012c 00         3455 	.data.b	0
                    3456 
                    3457 .LDW_4b4d208:
0000012d 31         3458 	.data.b	49
0000012e 00000000*  3459 	.data.w	.LDW_5d78b20
                    3460 
                    3461 .LDW_5d789c0:
00000132 2b         3462 	.data.b	43
00000133 00000000*  3463 	.data.w	.LDW_5d78d30
                    3464 
                    3465 .LDW_4b4d240:
00000137 31         3466 	.data.b	49
00000138 00000000*  3467 	.data.w	.LDW_5d789c0
                    3468 
                    3469 .LDW_4b4d1d0:
0000013c 47         3470 	.data.b	71
0000013d 01         3471 	.data.b	1
                    3472 
                    3473 .LDW_5c65498:
0000013e 14         3474 	.data.b	20
0000013f 00000000*  3475 	.data.w	.LDW_5d787b0
00000143 00         3476 	.data.b	0
                    3477 
                    3478 .LDW_5c653a8:
00000144 14         3479 	.data.b	20
00000145 00000000*  3480 	.data.w	.LDW_4b4d240
00000149 00         3481 	.data.b	0
                    3482 
0000014a 00         3483 	.data.b	0
                    3484 
                    3485 .LDW_4b4d2b0:
0000014b 47         3486 	.data.b	71
0000014c 01         3487 	.data.b	1
                    3488 
                    3489 .LDW_5c65018:
0000014d 14         3490 	.data.b	20
0000014e 00000000*  3491 	.data.w	.LDW_5d787b0
00000152 00         3492 	.data.b	0
                    3493 
                    3494 .LDW_5c65318:
00000153 14         3495 	.data.b	20

                                                                      Page 64
                                                              C:\Users\Fengyuan\AppData\Local\Temp\gh_0000kos1.s
00000154 00000000*  3496 	.data.w	.LDW_4b4d240
00000158 00         3497 	.data.b	0
                    3498 
00000159 00         3499 	.data.b	0
                    3500 
                    3501 .LDW_4b4d2e8:
0000015a 47         3502 	.data.b	71
0000015b 01         3503 	.data.b	1
                    3504 
                    3505 .LDW_5c65528:
0000015c 14         3506 	.data.b	20
0000015d 00000000*  3507 	.data.w	.LDW_5d787b0
00000161 00         3508 	.data.b	0
                    3509 
                    3510 .LDW_5c650d8:
00000162 14         3511 	.data.b	20
00000163 00000000*  3512 	.data.w	.LDW_4b4d240
00000167 00         3513 	.data.b	0
                    3514 
00000168 00         3515 	.data.b	0
                    3516 
                    3517 .LDW_4b4d4a8:
00000169 31         3518 	.data.b	49
0000016a 00000000*  3519 	.data.w	.LDW_5ed0710
                    3520 
                    3521 .LDW_4b4d358:
0000016e 47         3522 	.data.b	71
0000016f 01         3523 	.data.b	1
                    3524 
                    3525 .LDW_5c654f8:
00000170 14         3526 	.data.b	20
00000171 00000000*  3527 	.data.w	.LDW_5ed03f8
00000175 00         3528 	.data.b	0
                    3529 
                    3530 .LDW_5c65558:
00000176 14         3531 	.data.b	20
00000177 00000000*  3532 	.data.w	.LDW_4b4d240
0000017b 00         3533 	.data.b	0
                    3534 
0000017c 00         3535 	.data.b	0
                    3536 
                    3537 .LDW_4b4d390:
0000017d 46         3538 	.data.b	70
0000017e 00000000*  3539 	.data.w	.LDW_5ed0768
00000182 01         3540 	.data.b	1
                    3541 
                    3542 .LDW_5c652b8:
00000183 14         3543 	.data.b	20
00000184 00000000*  3544 	.data.w	.LDW_5d78d88
00000188 00         3545 	.data.b	0
                    3546 
                    3547 .LDW_5c65468:
00000189 14         3548 	.data.b	20
0000018a 00000000*  3549 	.data.w	.LDW_5d78d88
0000018e 00         3550 	.data.b	0
                    3551 
                    3552 .LDW_5c65108:
0000018f 14         3553 	.data.b	20
00000190 00000000*  3554 	.data.w	.LDW_5ed05b0
00000194 00         3555 	.data.b	0
                    3556 

                                                                      Page 65
                                                              C:\Users\Fengyuan\AppData\Local\Temp\gh_0000kos1.s
00000195 00         3557 	.data.b	0
                    3558 
                    3559 .LDW_4b4d438:
00000196 46         3560 	.data.b	70
00000197 00000000*  3561 	.data.w	.LDW_5ed05b0
0000019b 01         3562 	.data.b	1
                    3563 
                    3564 .LDW_5c65348:
0000019c 14         3565 	.data.b	20
0000019d 00000000*  3566 	.data.w	.LDW_5d787b0
000001a1 00         3567 	.data.b	0
                    3568 
000001a2 00         3569 	.data.b	0
                    3570 
                    3571 .LDW_4b4d4e0:
000001a3 47         3572 	.data.b	71
000001a4 01         3573 	.data.b	1
                    3574 
                    3575 .LDW_5c65138:
000001a5 14         3576 	.data.b	20
000001a6 00000000*  3577 	.data.w	.LDW_5d787b0
000001aa 00         3578 	.data.b	0
                    3579 
000001ab 00         3580 	.data.b	0
                    3581 
                    3582 .LDW_4b4d860:
000001ac 47         3583 	.data.b	71
000001ad 01         3584 	.data.b	1
                    3585 
                    3586 .LDW_5c65198:
000001ae 14         3587 	.data.b	20
000001af 00000000*  3588 	.data.w	.LDW_5d787b0
000001b3 00         3589 	.data.b	0
                    3590 
000001b4 00         3591 	.data.b	0
                    3592 
                    3593 .LDW_4b4d898:
000001b5 47         3594 	.data.b	71
000001b6 01         3595 	.data.b	1
                    3596 
                    3597 .LDW_5c65798:
000001b7 14         3598 	.data.b	20
000001b8 00000000*  3599 	.data.w	.LDW_5d787b0
000001bc 00         3600 	.data.b	0
                    3601 
000001bd 00         3602 	.data.b	0
                    3603 
                    3604 .LDW_4b4d828:
000001be 47         3605 	.data.b	71
000001bf 01         3606 	.data.b	1
                    3607 
                    3608 .LDW_5c65648:
000001c0 14         3609 	.data.b	20
000001c1 00000000*  3610 	.data.w	.LDW_5d787b0
000001c5 00         3611 	.data.b	0
                    3612 
000001c6 00         3613 	.data.b	0
                    3614 
                    3615 .LDW_5e1d938:
000001c7 46         3616 	.data.b	70
000001c8 00000000*  3617 	.data.w	.LDW_5d78d88

                                                                      Page 66
                                                              C:\Users\Fengyuan\AppData\Local\Temp\gh_0000kos1.s
000001cc 01         3618 	.data.b	1
                    3619 
                    3620 .LDW_5c656d8:
000001cd 14         3621 	.data.b	20
000001ce 00000000*  3622 	.data.w	.LDW_5d78d88
000001d2 00         3623 	.data.b	0
                    3624 
                    3625 .LDW_5c65708:
000001d3 14         3626 	.data.b	20
000001d4 00000000*  3627 	.data.w	.LDW_4b7ea10
000001d8 00         3628 	.data.b	0
                    3629 
000001d9 00         3630 	.data.b	0
                    3631 
                    3632 .LDW_5e1dcb8:
000001da 47         3633 	.data.b	71
000001db 01         3634 	.data.b	1
                    3635 
                    3636 .LDW_5e1e2d8:
000001dc 14         3637 	.data.b	20
000001dd 00000000*  3638 	.data.w	.LDW_5d787b0
000001e1 00         3639 	.data.b	0
                    3640 
000001e2 00         3641 	.data.b	0
                    3642 
                    3643 .LDW_5e1dd28:
000001e3 47         3644 	.data.b	71
000001e4 01         3645 	.data.b	1
                    3646 
                    3647 .LDW_5e1e128:
000001e5 14         3648 	.data.b	20
000001e6 00000000*  3649 	.data.w	.LDW_5ed03f8
000001ea 00         3650 	.data.b	0
                    3651 
000001eb 00         3652 	.data.b	0
                    3653 
                    3654 .LDW_5e1d858:
000001ec 46         3655 	.data.b	70
000001ed 00000000*  3656 	.data.w	.LDW_5d787b0
000001f1 01         3657 	.data.b	1
                    3658 
                    3659 .LDW_5e1e458:
000001f2 14         3660 	.data.b	20
000001f3 00000000*  3661 	.data.w	.LDW_5d78d88
000001f7 00         3662 	.data.b	0
                    3663 
000001f8 00         3664 	.data.b	0
                    3665 
                    3666 .LDW_5e1d778:
000001f9 46         3667 	.data.b	70
000001fa 00000000*  3668 	.data.w	.LDW_5d787b0
000001fe 01         3669 	.data.b	1
                    3670 
                    3671 .LDW_5e1e4e8:
000001ff 14         3672 	.data.b	20
00000200 00000000*  3673 	.data.w	.LDW_5d78d88
00000204 00         3674 	.data.b	0
                    3675 
00000205 00         3676 	.data.b	0
                    3677 
                    3678 .LDW_5e1ddd0:

                                                                      Page 67
                                                              C:\Users\Fengyuan\AppData\Local\Temp\gh_0000kos1.s
00000206 46         3679 	.data.b	70
00000207 00000000*  3680 	.data.w	.LDW_5ed03f8
0000020b 01         3681 	.data.b	1
                    3682 
                    3683 .LDW_5e1e008:
0000020c 14         3684 	.data.b	20
0000020d 00000000*  3685 	.data.w	.LDW_5d78d88
00000211 00         3686 	.data.b	0
                    3687 
00000212 00         3688 	.data.b	0
                    3689 
                    3690 .LDW_5e1dba0:
00000213 46         3691 	.data.b	70
00000214 00000000*  3692 	.data.w	.LDW_5ed03f8
00000218 01         3693 	.data.b	1
                    3694 
                    3695 .LDW_5e1e488:
00000219 14         3696 	.data.b	20
0000021a 00000000*  3697 	.data.w	.LDW_5d78d88
0000021e 00         3698 	.data.b	0
                    3699 
0000021f 00         3700 	.data.b	0
                    3701 
                    3702 .LDW_5e1dbd8:
00000220 47         3703 	.data.b	71
00000221 01         3704 	.data.b	1
                    3705 
                    3706 .LDW_5e1e3c8:
00000222 14         3707 	.data.b	20
00000223 00000000*  3708 	.data.w	.LDW_5d78d88
00000227 00         3709 	.data.b	0
                    3710 
                    3711 .LDW_5e1e2a8:
00000228 14         3712 	.data.b	20
00000229 00000000*  3713 	.data.w	.LDW_4b7ea10
0000022d 00         3714 	.data.b	0
                    3715 
                    3716 .LDW_5e1e338:
0000022e 14         3717 	.data.b	20
0000022f 00000000*  3718 	.data.w	.LDW_4b4d240
00000233 00         3719 	.data.b	0
                    3720 
00000234 00         3721 	.data.b	0
                    3722 
                    3723 .LDW_5e1d820:
00000235 47         3724 	.data.b	71
00000236 01         3725 	.data.b	1
                    3726 
                    3727 .LDW_5e1e1b8:
00000237 14         3728 	.data.b	20
00000238 00000000*  3729 	.data.w	.LDW_5ed03f8
0000023c 00         3730 	.data.b	0
                    3731 
0000023d 00         3732 	.data.b	0
                    3733 
                    3734 .LDW_5e1dc10:
0000023e 47         3735 	.data.b	71
0000023f 01         3736 	.data.b	1
                    3737 
                    3738 .LDW_5e1e038:
00000240 14         3739 	.data.b	20

                                                                      Page 68
                                                              C:\Users\Fengyuan\AppData\Local\Temp\gh_0000kos1.s
00000241 00000000*  3740 	.data.w	.LDW_5d787b0
00000245 00         3741 	.data.b	0
                    3742 
00000246 00         3743 	.data.b	0
                    3744 
                    3745 .LDW_60703b0:
00000247 2b         3746 	.data.b	43
00000248 00000000*  3747 	.data.w	.LDW_60707d0
                    3748 
                    3749 .LDW_5e1d890:
0000024c 31         3750 	.data.b	49
0000024d 00000000*  3751 	.data.w	.LDW_60703b0
                    3752 
                    3753 .LDW_5e1d7b0:
00000251 31         3754 	.data.b	49
00000252 00000000*  3755 	.data.w	.LDW_5d78d30
                    3756 
                    3757 .LDW_5e1dc48:
00000256 46         3758 	.data.b	70
00000257 00000000*  3759 	.data.w	.LDW_6070300
0000025b 01         3760 	.data.b	1
                    3761 
                    3762 .LDW_5e1dfd8:
0000025c 14         3763 	.data.b	20
0000025d 00000000*  3764 	.data.w	.LDW_5e1d890
00000261 00         3765 	.data.b	0
                    3766 
                    3767 .LDW_5e1e068:
00000262 14         3768 	.data.b	20
00000263 00000000*  3769 	.data.w	.LDW_5e1d7b0
00000267 00         3770 	.data.b	0
                    3771 
00000268 00         3772 	.data.b	0
                    3773 
                    3774 .LDW_5e1d970:
00000269 47         3775 	.data.b	71
0000026a 01         3776 	.data.b	1
                    3777 
                    3778 .LDW_5e1e158:
0000026b 14         3779 	.data.b	20
0000026c 00000000*  3780 	.data.w	.LDW_5d787b0
00000270 00         3781 	.data.b	0
                    3782 
                    3783 .LDW_5e1e188:
00000271 14         3784 	.data.b	20
00000272 00000000*  3785 	.data.w	.LDW_6070778
00000276 00         3786 	.data.b	0
                    3787 
                    3788 .LDW_5e1e248:
00000277 14         3789 	.data.b	20
00000278 00000000*  3790 	.data.w	.LDW_4b7ea10
0000027c 00         3791 	.data.b	0
                    3792 
                    3793 .LDW_5e1e278:
0000027d 14         3794 	.data.b	20
0000027e 00000000*  3795 	.data.w	.LDW_6070098
00000282 00         3796 	.data.b	0
                    3797 
00000283 00         3798 	.data.b	0
                    3799 
                    3800 .LDW_5e1d7e8:

                                                                      Page 69
                                                              C:\Users\Fengyuan\AppData\Local\Temp\gh_0000kos1.s
00000284 47         3801 	.data.b	71
00000285 01         3802 	.data.b	1
                    3803 
                    3804 .LDW_5e1e638:
00000286 14         3805 	.data.b	20
00000287 00000000*  3806 	.data.w	.LDW_5ed03f8
0000028b 00         3807 	.data.b	0
                    3808 
                    3809 .LDW_5e1e698:
0000028c 14         3810 	.data.b	20
0000028d 00000000*  3811 	.data.w	.LDW_6070778
00000291 00         3812 	.data.b	0
                    3813 
                    3814 .LDW_5e1e5d8:
00000292 14         3815 	.data.b	20
00000293 00000000*  3816 	.data.w	.LDW_4b7ea10
00000297 00         3817 	.data.b	0
                    3818 
00000298 00         3819 	.data.b	0
                    3820 
                    3821 .LDW_5e1d9e0:
00000299 47         3822 	.data.b	71
0000029a 01         3823 	.data.b	1
                    3824 
0000029b 00         3825 	.data.b	0
                    3826 
                    3827 .LDW_5e1db68:
0000029c 47         3828 	.data.b	71
0000029d 01         3829 	.data.b	1
                    3830 
                    3831 .LDW_5e1e840:
0000029e 14         3832 	.data.b	20
0000029f 00000000*  3833 	.data.w	.LDW_5d787b0
000002a3 00         3834 	.data.b	0
                    3835 
000002a4 00         3836 	.data.b	0
                    3837 
                    3838 .LDW_5e1d8c8:
000002a5 47         3839 	.data.b	71
000002a6 01         3840 	.data.b	1
                    3841 
                    3842 .LDW_5e1e870:
000002a7 14         3843 	.data.b	20
000002a8 00000000*  3844 	.data.w	.LDW_5ed03f8
000002ac 00         3845 	.data.b	0
                    3846 
000002ad 00         3847 	.data.b	0
                    3848 
                    3849 .LDW_5e1dc80:
000002ae 47         3850 	.data.b	71
000002af 01         3851 	.data.b	1
                    3852 
                    3853 .LDW_5e1ec30:
000002b0 14         3854 	.data.b	20
000002b1 00000000*  3855 	.data.w	.LDW_5d787b0
000002b5 00         3856 	.data.b	0
                    3857 
000002b6 00         3858 	.data.b	0
                    3859 
                    3860 .LDW_5e1da50:
000002b7 27         3861 	.data.b	39

                                                                      Page 70
                                                              C:\Users\Fengyuan\AppData\Local\Temp\gh_0000kos1.s
000002b8 00746e69   3862 	.data.b	105,110,116,0
000002bc 05         3863 	.data.b	5
000002bd 04         3864 	.data.b	4
                    3865 
                    3866 .LDW_5e1ef28:
000002be 3c         3867 	.data.b	60
000002bf 00         3868 	.data.b	0
000002c0 08         3869 	.data.b	8
000002c1 00000000*  3870 	.data.w	.LDW_4b7ea10
                    3871 
                    3872 	.section	.debug_abbrev
00000049 3c         3873 	.data.b	60
0000004a 01         3874 	.data.b	1
0000004b 01         3875 	.data.b	1
0000004c 0b09       3876 	.data.b	9,11
0000004e 0f0b       3877 	.data.b	11,15
00000050 1049       3878 	.data.b	73,16
00000052 0000       3879 	.data.b	0,0
                    3880 
                    3881 	.section	.debug_info
000002c5 34         3882 	.data.b	52
000002c6 00000000*  3883 	.data.w	.LDW_5e1da50
000002ca 04         3884 	.data.b	4
000002cb 00         3885 	.data.b	0
000002cc 07         3886 	.data.b	7
                    3887 
                    3888 	.section	.debug_abbrev
00000054 34         3889 	.data.b	52
00000055 21         3890 	.data.b	33
00000056 00         3891 	.data.b	0
00000057 1049       3892 	.data.b	73,16
00000059 0f0b       3893 	.data.b	11,15
0000005b 0d22       3894 	.data.b	34,13
0000005d 0d2f       3895 	.data.b	47,13
0000005f 0000       3896 	.data.b	0,0
                    3897 
                    3898 	.section	.debug_info
000002cd 00         3899 	.data.b	0
                    3900 
                    3901 .LDW_5e1dd98:
000002ce 47         3902 	.data.b	71
000002cf 01         3903 	.data.b	1
                    3904 
                    3905 .LDW_5e1eba0:
000002d0 14         3906 	.data.b	20
000002d1 00000000*  3907 	.data.w	.LDW_5ed03f8
000002d5 00         3908 	.data.b	0
                    3909 
000002d6 00         3910 	.data.b	0
                    3911 
                    3912 .LDW_5c65920:
000002d7 3c         3913 	.data.b	60
000002d8 00         3914 	.data.b	0
000002d9 08         3915 	.data.b	8
000002da 00000000*  3916 	.data.w	.LDW_4b7ea10
                    3917 
000002de 34         3918 	.data.b	52
000002df 00000000*  3919 	.data.w	.LDW_5e1da50
000002e3 04         3920 	.data.b	4
000002e4 00         3921 	.data.b	0
000002e5 07         3922 	.data.b	7

                                                                      Page 71
                                                              C:\Users\Fengyuan\AppData\Local\Temp\gh_0000kos1.s
                    3923 
000002e6 00         3924 	.data.b	0
                    3925 
                    3926 .LDW_60a1b60:
000002e7 2b         3927 	.data.b	43
000002e8 00000000*  3928 	.data.w	.LDW_60a1a58
                    3929 
                    3930 .LDW_5e1d900:
000002ec 31         3931 	.data.b	49
000002ed 00000000*  3932 	.data.w	.LDW_60a1b60
                    3933 
                    3934 .LDW_5e1da88:
000002f1 47         3935 	.data.b	71
000002f2 01         3936 	.data.b	1
                    3937 
                    3938 .LDW_5e1ec60:
000002f3 14         3939 	.data.b	20
000002f4 00000000*  3940 	.data.w	.LDW_5e1d900
000002f8 00         3941 	.data.b	0
                    3942 
000002f9 00         3943 	.data.b	0
                    3944 
                    3945 .LDW_5e1dcf0:
000002fa 47         3946 	.data.b	71
000002fb 01         3947 	.data.b	1
                    3948 
000002fc 00         3949 	.data.b	0
                    3950 
                    3951 .LDW_5e1dd60:
000002fd 47         3952 	.data.b	71
000002fe 01         3953 	.data.b	1
                    3954 
000002ff 00         3955 	.data.b	0
                    3956 
                    3957 .LDW_5e1d9a8:
00000300 47         3958 	.data.b	71
00000301 01         3959 	.data.b	1
                    3960 
00000302 00         3961 	.data.b	0
                    3962 
                    3963 .LDW_5e1da18:
00000303 47         3964 	.data.b	71
00000304 01         3965 	.data.b	1
                    3966 
00000305 00         3967 	.data.b	0
                    3968 
                    3969 .LDW_5e1de08:
00000306 47         3970 	.data.b	71
00000307 01         3971 	.data.b	1
                    3972 
00000308 00         3973 	.data.b	0
                    3974 
                    3975 .LDW_5e1d740:
00000309 46         3976 	.data.b	70
0000030a 00000000*  3977 	.data.w	.LDW_5ed0768
0000030e 01         3978 	.data.b	1
                    3979 
                    3980 .LDW_5e1e930:
0000030f 14         3981 	.data.b	20
00000310 00000000*  3982 	.data.w	.LDW_5d78d88
00000314 00         3983 	.data.b	0

                                                                      Page 72
                                                              C:\Users\Fengyuan\AppData\Local\Temp\gh_0000kos1.s
                    3984 
                    3985 .LDW_5e1e7e0:
00000315 14         3986 	.data.b	20
00000316 00000000*  3987 	.data.w	.LDW_4b4d240
0000031a 00         3988 	.data.b	0
                    3989 
0000031b 00         3990 	.data.b	0
                    3991 
                    3992 .LDW_60a1690:
0000031c 2b         3993 	.data.b	43
0000031d 00000000*  3994 	.data.w	.LDW_5d78d88
                    3995 
                    3996 .LDW_5e1dac0:
00000321 47         3997 	.data.b	71
00000322 01         3998 	.data.b	1
                    3999 
                    4000 .LDW_5e1e960:
00000323 14         4001 	.data.b	20
00000324 00000000*  4002 	.data.w	.LDW_5d78d88
00000328 00         4003 	.data.b	0
                    4004 
                    4005 .LDW_5e1ecc0:
00000329 14         4006 	.data.b	20
0000032a 00000000*  4007 	.data.w	.LDW_4b4d240
0000032e 00         4008 	.data.b	0
                    4009 
0000032f 00         4010 	.data.b	0
                    4011 
                    4012 .LDW_5e1daf8:
00000330 47         4013 	.data.b	71
00000331 01         4014 	.data.b	1
                    4015 
                    4016 .LDW_5e1e9f0:
00000332 14         4017 	.data.b	20
00000333 00000000*  4018 	.data.w	.LDW_5d78d88
00000337 00         4019 	.data.b	0
                    4020 
00000338 00         4021 	.data.b	0
                    4022 
                    4023 .LDW_5c63470:
00000339 27         4024 	.data.b	39
0000033a 69736e75   4025 	.data.b	117,110,115,105,103,110,101,100,32,105,110,116,0
0000033e 64656e67 
00000342 746e6920 
00000346 00 
00000347 07         4026 	.data.b	7
00000348 04         4027 	.data.b	4
                    4028 
                    4029 .LDW_60e3000:
00000349 2d         4030 	.data.b	45
0000034a 00000000*  4031 	.data.w	.LDW_60e2608
                    4032 
                    4033 	.section	.debug_abbrev
00000061 2d         4034 	.data.b	45
00000062 35         4035 	.data.b	53
00000063 00         4036 	.data.b	0
00000064 1049       4037 	.data.b	73,16
00000066 0000       4038 	.data.b	0,0
                    4039 
                    4040 	.section	.debug_info
                    4041 .LDW_5c65ba8:

                                                                      Page 73
                                                              C:\Users\Fengyuan\AppData\Local\Temp\gh_0000kos1.s
0000034e 3c         4042 	.data.b	60
0000034f 00         4043 	.data.b	0
00000350 07         4044 	.data.b	7
00000351 00000000*  4045 	.data.w	.LDW_4b7ea10
                    4046 
00000355 34         4047 	.data.b	52
00000356 00000000*  4048 	.data.w	.LDW_5e1da50
0000035a 04         4049 	.data.b	4
0000035b 00         4050 	.data.b	0
0000035c 06         4051 	.data.b	6
                    4052 
0000035d 00         4053 	.data.b	0
                    4054 
                    4055 .LDW_60e2e48:
0000035e 2d         4056 	.data.b	45
0000035f 00000000*  4057 	.data.w	.LDW_6070f08
                    4058 
                    4059 .LDW_5c65c30:
00000363 3c         4060 	.data.b	60
00000364 00         4061 	.data.b	0
00000365 07         4062 	.data.b	7
00000366 00000000*  4063 	.data.w	.LDW_4b7ea10
                    4064 
0000036a 34         4065 	.data.b	52
0000036b 00000000*  4066 	.data.w	.LDW_5e1da50
0000036f 04         4067 	.data.b	4
00000370 00         4068 	.data.b	0
00000371 06         4069 	.data.b	6
                    4070 
00000372 00         4071 	.data.b	0
                    4072 
                    4073 .LDW_5c65cb8:
00000373 3c         4074 	.data.b	60
00000374 00         4075 	.data.b	0
00000375 04         4076 	.data.b	4
00000376 00000000*  4077 	.data.w	.LDW_4b7ea10
                    4078 
0000037a 34         4079 	.data.b	52
0000037b 00000000*  4080 	.data.w	.LDW_5e1da50
0000037f 04         4081 	.data.b	4
00000380 00         4082 	.data.b	0
00000381 03         4083 	.data.b	3
                    4084 
00000382 00         4085 	.data.b	0
                    4086 
                    4087 .LDW_60fe9b8:
00000383 2b         4088 	.data.b	43
00000384 00000000*  4089 	.data.w	.LDW_60e56d0
                    4090 
                    4091 .LDW_60ed120:
00000388 3c         4092 	.data.b	60
00000389 00         4093 	.data.b	0
0000038a 08         4094 	.data.b	8
0000038b 00000000*  4095 	.data.w	.LDW_60fe9b8
                    4096 
0000038f 34         4097 	.data.b	52
00000390 00000000*  4098 	.data.w	.LDW_5e1da50
00000394 04         4099 	.data.b	4
00000395 00         4100 	.data.b	0
00000396 01         4101 	.data.b	1
                    4102 

                                                                      Page 74
                                                              C:\Users\Fengyuan\AppData\Local\Temp\gh_0000kos1.s
00000397 00         4103 	.data.b	0
                    4104 
                    4105 .LDW_60fe800:
00000398 2b         4106 	.data.b	43
00000399 00000000*  4107 	.data.w	.LDW_60e5830
                    4108 
                    4109 .LDW_60ed450:
0000039d 3c         4110 	.data.b	60
0000039e 00         4111 	.data.b	0
0000039f 12         4112 	.data.b	18
000003a0 00000000*  4113 	.data.w	.LDW_60fe800
                    4114 
000003a4 34         4115 	.data.b	52
000003a5 00000000*  4116 	.data.w	.LDW_5e1da50
000003a9 04         4117 	.data.b	4
000003aa 00         4118 	.data.b	0
000003ab 01         4119 	.data.b	1
                    4120 
000003ac 00         4121 	.data.b	0
                    4122 
                    4123 .LDW_60fefe8:
000003ad 2b         4124 	.data.b	43
000003ae 00000000*  4125 	.data.w	.LDW_60e4ae8
                    4126 
                    4127 .LDW_60ecac0:
000003b2 3c         4128 	.data.b	60
000003b3 00         4129 	.data.b	0
000003b4 02         4130 	.data.b	2
000003b5 00000000*  4131 	.data.w	.LDW_60fefe8
                    4132 
000003b9 34         4133 	.data.b	52
000003ba 00000000*  4134 	.data.w	.LDW_5e1da50
000003be 04         4135 	.data.b	4
000003bf 00         4136 	.data.b	0
000003c0 01         4137 	.data.b	1
                    4138 
000003c1 00         4139 	.data.b	0
                    4140 
                    4141 .LDW_60fe8b0:
000003c2 2b         4142 	.data.b	43
000003c3 00000000*  4143 	.data.w	.LDW_60e5990
                    4144 
                    4145 .LDW_60ecb48:
000003c7 3c         4146 	.data.b	60
000003c8 00         4147 	.data.b	0
000003c9 02         4148 	.data.b	2
000003ca 00000000*  4149 	.data.w	.LDW_60fe8b0
                    4150 
000003ce 34         4151 	.data.b	52
000003cf 00000000*  4152 	.data.w	.LDW_5e1da50
000003d3 04         4153 	.data.b	4
000003d4 00         4154 	.data.b	0
000003d5 01         4155 	.data.b	1
                    4156 
000003d6 00         4157 	.data.b	0
                    4158 
                    4159 .LDW_60ed1a8:
000003d7 3c         4160 	.data.b	60
000003d8 00         4161 	.data.b	0
000003d9 02         4162 	.data.b	2
000003da 00000000*  4163 	.data.w	.LDW_60e4c48

                                                                      Page 75
                                                              C:\Users\Fengyuan\AppData\Local\Temp\gh_0000kos1.s
                    4164 
000003de 34         4165 	.data.b	52
000003df 00000000*  4166 	.data.w	.LDW_5e1da50
000003e3 04         4167 	.data.b	4
000003e4 00         4168 	.data.b	0
000003e5 01         4169 	.data.b	1
                    4170 
000003e6 00         4171 	.data.b	0
                    4172 
                    4173 .LDW_60ed230:
000003e7 3c         4174 	.data.b	60
000003e8 00         4175 	.data.b	0
000003e9 38         4176 	.data.b	56
000003ea 00000000*  4177 	.data.w	.LDW_5d78b20
                    4178 
000003ee 34         4179 	.data.b	52
000003ef 00000000*  4180 	.data.w	.LDW_5e1da50
000003f3 04         4181 	.data.b	4
000003f4 00         4182 	.data.b	0
000003f5 01         4183 	.data.b	1
                    4184 
000003f6 00         4185 	.data.b	0
                    4186 
                    4187 .LDW_60ed560:
000003f7 3c         4188 	.data.b	60
000003f8 00         4189 	.data.b	0
000003f9 02         4190 	.data.b	2
000003fa 00000000*  4191 	.data.w	.LDW_60e2d98
                    4192 
000003fe 34         4193 	.data.b	52
000003ff 00000000*  4194 	.data.w	.LDW_5e1da50
00000403 04         4195 	.data.b	4
00000404 00         4196 	.data.b	0
00000405 00         4197 	.data.b	0
                    4198 
00000406 00         4199 	.data.b	0
                    4200 
                    4201 .LDW_6109ef0:
00000407 3c         4202 	.data.b	60
00000408 00         4203 	.data.b	0
00000409 1c         4204 	.data.b	28
0000040a 00000000*  4205 	.data.w	.LDW_5ed0710
                    4206 
0000040e 34         4207 	.data.b	52
0000040f 00000000*  4208 	.data.w	.LDW_5e1da50
00000413 04         4209 	.data.b	4
00000414 00         4210 	.data.b	0
00000415 00         4211 	.data.b	0
                    4212 
00000416 00         4213 	.data.b	0
                    4214 
                    4215 .LDW_60f2fe8:
00000417 47         4216 	.data.b	71
00000418 01         4217 	.data.b	1
                    4218 
                    4219 .LDW_60f1b30:
00000419 14         4220 	.data.b	20
0000041a 00000000*  4221 	.data.w	.LDW_5d78d88
0000041e 00         4222 	.data.b	0
                    4223 
                    4224 .LDW_60f1da0:

                                                                      Page 76
                                                              C:\Users\Fengyuan\AppData\Local\Temp\gh_0000kos1.s
0000041f 14         4225 	.data.b	20
00000420 00000000*  4226 	.data.w	.LDW_5ed0768
00000424 00         4227 	.data.b	0
                    4228 
00000425 00         4229 	.data.b	0
                    4230 
                    4231 .LDW_60f3020:
00000426 47         4232 	.data.b	71
00000427 01         4233 	.data.b	1
                    4234 
                    4235 .LDW_60f1d10:
00000428 14         4236 	.data.b	20
00000429 00000000*  4237 	.data.w	.LDW_5d78d88
0000042d 00         4238 	.data.b	0
                    4239 
                    4240 .LDW_60f1c80:
0000042e 14         4241 	.data.b	20
0000042f 00000000*  4242 	.data.w	.LDW_5ed0768
00000433 00         4243 	.data.b	0
                    4244 
00000434 00         4245 	.data.b	0
                    4246 
                    4247 .LDW_60f2958:
00000435 31         4248 	.data.b	49
00000436 00000000*  4249 	.data.w	.LDW_5ed05b0
                    4250 
                    4251 .LDW_60f2c30:
0000043a 46         4252 	.data.b	70
0000043b 00000000*  4253 	.data.w	.LDW_60e26b8
0000043f 01         4254 	.data.b	1
                    4255 
                    4256 .LDW_60f1ad0:
00000440 14         4257 	.data.b	20
00000441 00000000*  4258 	.data.w	.LDW_5d78d88
00000445 00         4259 	.data.b	0
                    4260 
                    4261 .LDW_60f1b90:
00000446 14         4262 	.data.b	20
00000447 00000000*  4263 	.data.w	.LDW_5e1d7b0
0000044b 00         4264 	.data.b	0
                    4265 
                    4266 .LDW_60f1bf0:
0000044c 14         4267 	.data.b	20
0000044d 00000000*  4268 	.data.w	.LDW_5ed05b0
00000451 00         4269 	.data.b	0
                    4270 
                    4271 .LDW_60f19e0:
00000452 14         4272 	.data.b	20
00000453 00000000*  4273 	.data.w	.LDW_60f2958
00000457 00         4274 	.data.b	0
                    4275 
00000458 00         4276 	.data.b	0
                    4277 
                    4278 .LDW_60f2aa8:
00000459 46         4279 	.data.b	70
0000045a 00000000*  4280 	.data.w	.LDW_60e26b8
0000045e 01         4281 	.data.b	1
                    4282 
                    4283 .LDW_60f1ec0:
0000045f 14         4284 	.data.b	20
00000460 00000000*  4285 	.data.w	.LDW_5d78d88

                                                                      Page 77
                                                              C:\Users\Fengyuan\AppData\Local\Temp\gh_0000kos1.s
00000464 00         4286 	.data.b	0
                    4287 
                    4288 .LDW_60f1ef0:
00000465 14         4289 	.data.b	20
00000466 00000000*  4290 	.data.w	.LDW_5e1d7b0
0000046a 00         4291 	.data.b	0
                    4292 
                    4293 .LDW_60f1950:
0000046b 14         4294 	.data.b	20
0000046c 00000000*  4295 	.data.w	.LDW_60f2958
00000470 00         4296 	.data.b	0
                    4297 
00000471 00         4298 	.data.b	0
                    4299 
                    4300 .LDW_60f2d10:
00000472 31         4301 	.data.b	49
00000473 00000000*  4302 	.data.w	.LDW_60e2348
                    4303 
                    4304 .LDW_60f2cd8:
00000477 46         4305 	.data.b	70
00000478 00000000*  4306 	.data.w	.LDW_60e26b8
0000047c 01         4307 	.data.b	1
                    4308 
                    4309 .LDW_60f1d70:
0000047d 14         4310 	.data.b	20
0000047e 00000000*  4311 	.data.w	.LDW_5d78d88
00000482 00         4312 	.data.b	0
                    4313 
                    4314 .LDW_60f1e00:
00000483 14         4315 	.data.b	20
00000484 00000000*  4316 	.data.w	.LDW_5e1d7b0
00000488 00         4317 	.data.b	0
                    4318 
                    4319 .LDW_60f1c20:
00000489 14         4320 	.data.b	20
0000048a 00000000*  4321 	.data.w	.LDW_60f2d10
0000048e 00         4322 	.data.b	0
                    4323 
                    4324 .LDW_60f1dd0:
0000048f 14         4325 	.data.b	20
00000490 00000000*  4326 	.data.w	.LDW_60f2958
00000494 00         4327 	.data.b	0
                    4328 
00000495 00         4329 	.data.b	0
                    4330 
                    4331 .LDW_610d298:
00000496 46         4332 	.data.b	70
00000497 00000000*  4333 	.data.w	.LDW_5ed0768
0000049b 01         4334 	.data.b	1
                    4335 
                    4336 .LDW_60f1fe0:
0000049c 14         4337 	.data.b	20
0000049d 00000000*  4338 	.data.w	.LDW_5d78d88
000004a1 00         4339 	.data.b	0
                    4340 
                    4341 .LDW_60f24f0:
000004a2 14         4342 	.data.b	20
000004a3 00000000*  4343 	.data.w	.LDW_4b4d240
000004a7 00         4344 	.data.b	0
                    4345 
000004a8 00         4346 	.data.b	0

                                                                      Page 78
                                                              C:\Users\Fengyuan\AppData\Local\Temp\gh_0000kos1.s
                    4347 
                    4348 .LDW_610dfa8:
000004a9 47         4349 	.data.b	71
000004aa 01         4350 	.data.b	1
                    4351 
000004ab 00         4352 	.data.b	0
                    4353 
                    4354 .LDW_610dd08:
000004ac 47         4355 	.data.b	71
000004ad 01         4356 	.data.b	1
                    4357 
000004ae 00         4358 	.data.b	0
                    4359 
                    4360 .LDW_6118918:
000004af 46         4361 	.data.b	70
000004b0 00000000*  4362 	.data.w	.LDW_5ed0768
000004b4 01         4363 	.data.b	1
                    4364 
                    4365 .LDW_61158c0:
000004b5 14         4366 	.data.b	20
000004b6 00000000*  4367 	.data.w	.LDW_4b7a120
000004ba 00         4368 	.data.b	0
                    4369 
                    4370 .LDW_6115800:
000004bb 14         4371 	.data.b	20
000004bc 00000000*  4372 	.data.w	.LDW_4b7ea10
000004c0 00         4373 	.data.b	0
                    4374 
                    4375 .LDW_61157a0:
000004c1 14         4376 	.data.b	20
000004c2 00000000*  4377 	.data.w	.LDW_4b7ea10
000004c6 00         4378 	.data.b	0
                    4379 
                    4380 .LDW_6115920:
000004c7 14         4381 	.data.b	20
000004c8 00000000*  4382 	.data.w	.LDW_4b7ea10
000004cc 00         4383 	.data.b	0
                    4384 
000004cd 00         4385 	.data.b	0
                    4386 
                    4387 .LDW_4b7a318:
000004ce 2a         4388 	.data.b	42
000004cf 6c6f6f62   4389 	.data.b	98,111,111,108,101,97,110,0
000004d3 006e6165 
000004d7 7a         4390 	.data.b	122
000004d8 1d         4391 	.data.b	29
000004d9 06         4392 	.data.b	6
000004da 00000000*  4393 	.data.w	.LDW_4b4d7b8
                    4394 
                    4395 	.section	.debug_abbrev
00000068 2a         4396 	.data.b	42
00000069 16         4397 	.data.b	22
0000006a 00         4398 	.data.b	0
0000006b 0803       4399 	.data.b	3,8
0000006d 0f3b       4400 	.data.b	59,15
0000006f 0f39       4401 	.data.b	57,15
00000071 0f3a       4402 	.data.b	58,15
00000073 1049       4403 	.data.b	73,16
00000075 0000       4404 	.data.b	0,0
                    4405 
                    4406 	.section	.debug_info

                                                                      Page 79
                                                              C:\Users\Fengyuan\AppData\Local\Temp\gh_0000kos1.s
                    4407 .LDW_4b7ea10:
000004de 2a         4408 	.data.b	42
000004df 746e6975   4409 	.data.b	117,105,110,116,56,0
000004e3 0038 
000004e5 7d         4410 	.data.b	125
000004e6 1d         4411 	.data.b	29
000004e7 06         4412 	.data.b	6
000004e8 00000000*  4413 	.data.w	.LDW_4b4d7b8
                    4414 
                    4415 .LDW_4b7a120:
000004ec 2a         4416 	.data.b	42
000004ed 746e6975   4417 	.data.b	117,105,110,116,49,54,0
000004f1 003631 
000004f4 7f         4418 	.data.b	127
000004f5 1d         4419 	.data.b	29
000004f6 06         4420 	.data.b	6
000004f7 00000000*  4421 	.data.w	.LDW_4b4d668
                    4422 
                    4423 .LDW_4b7a370:
000004fb 2a         4424 	.data.b	42
000004fc 746e6975   4425 	.data.b	117,105,110,116,51,50,0
00000500 003233 
00000503 0181       4426 	.data.b	129,1
00000505 1d         4427 	.data.b	29
00000506 06         4428 	.data.b	6
00000507 00000000*  4429 	.data.w	.LDW_4b4d3c8
                    4430 
                    4431 .LDW_5ed0768:
0000050b 2a         4432 	.data.b	42
0000050c 5f647453   4433 	.data.b	83,116,100,95,82,101,116,117,114,110,84,121,112,101,0
00000510 75746552 
00000514 79546e72 
00000518 006570 
0000051b 0184       4434 	.data.b	132,1
0000051d 0f         4435 	.data.b	15
0000051e 05         4436 	.data.b	5
0000051f 00000000*  4437 	.data.w	.LDW_4b7ea10
                    4438 
                    4439 .LDW_5d78d88:
00000523 2a         4440 	.data.b	42
00000524 49756450   4441 	.data.b	80,100,117,73,100,84,121,112,101,0
00000528 70795464 
0000052c 0065 
0000052e 33         4442 	.data.b	51
0000052f 0f         4443 	.data.b	15
00000530 0d         4444 	.data.b	13
00000531 00000000*  4445 	.data.w	.LDW_4b7ea10
                    4446 
                    4447 .LDW_5ed05b0:
00000535 2a         4448 	.data.b	42
00000536 4c756450   4449 	.data.b	80,100,117,76,101,110,103,116,104,84,121,112,101,0
0000053a 74676e65 
0000053e 70795468 
00000542 0065 
00000544 35         4450 	.data.b	53
00000545 10         4451 	.data.b	16
00000546 0d         4452 	.data.b	13
00000547 00000000*  4453 	.data.w	.LDW_4b7a120
                    4454 
                    4455 .LDW_60e2190:
0000054b 2a         4456 	.data.b	42

                                                                      Page 80
                                                              C:\Users\Fengyuan\AppData\Local\Temp\gh_0000kos1.s
0000054c 44756453   4457 	.data.b	83,100,117,68,97,116,97,80,116,114,84,121,112,101,0
00000550 50617461 
00000554 79547274 
00000558 006570 
0000055b 01c2       4458 	.data.b	194,1
0000055d 36         4459 	.data.b	54
0000055e 04         4460 	.data.b	4
0000055f 00000000*  4461 	.data.w	.LDW_4b4d128
                    4462 
                    4463 .LDW_5d78cd8:
00000563 43         4464 	.data.b	67
00000564 01c4       4465 	.data.b	196,1
00000566 01         4466 	.data.b	1
00000567 04         4467 	.data.b	4
00000568 08         4468 	.data.b	8
00000569 01         4469 	.data.b	1
                    4470 
                    4471 	.section	.debug_abbrev
00000077 43         4472 	.data.b	67
00000078 13         4473 	.data.b	19
00000079 01         4474 	.data.b	1
0000007a 0f3b       4475 	.data.b	59,15
0000007c 0f39       4476 	.data.b	57,15
0000007e 0f3a       4477 	.data.b	58,15
00000080 0f0b       4478 	.data.b	11,15
00000082 0b32       4479 	.data.b	50,11
00000084 0000       4480 	.data.b	0,0
                    4481 
                    4482 	.section	.debug_info
                    4483 .LDW_60e3688:
0000056a 25         4484 	.data.b	37
0000056b 44756453   4485 	.data.b	83,100,117,68,97,116,97,80,116,114,0
0000056f 50617461 
00000573 007274 
00000576 01c5       4486 	.data.b	197,1
00000578 12         4487 	.data.b	18
00000579 04         4488 	.data.b	4
0000057a 00000000*  4489 	.data.w	.LDW_60e2190
0000057e 2302       4490 	.data.b	2,35
00000580 00         4491 	.data.b	0
00000581 01         4492 	.data.b	1
                    4493 
                    4494 	.section	.debug_abbrev
00000086 25         4495 	.data.b	37
00000087 0d         4496 	.data.b	13
00000088 00         4497 	.data.b	0
00000089 0803       4498 	.data.b	3,8
0000008b 0f3b       4499 	.data.b	59,15
0000008d 0f39       4500 	.data.b	57,15
0000008f 0f3a       4501 	.data.b	58,15
00000091 1049       4502 	.data.b	73,16
00000093 0a38       4503 	.data.b	56,10
00000095 0b32       4504 	.data.b	50,11
00000097 0000       4505 	.data.b	0,0
                    4506 
                    4507 	.section	.debug_info
                    4508 .LDW_60e3760:
00000582 25         4509 	.data.b	37
00000583 4c756453   4510 	.data.b	83,100,117,76,101,110,103,116,104,0
00000587 74676e65 
0000058b 0068 

                                                                      Page 81
                                                              C:\Users\Fengyuan\AppData\Local\Temp\gh_0000kos1.s
0000058d 01c6       4511 	.data.b	198,1
0000058f 11         4512 	.data.b	17
00000590 04         4513 	.data.b	4
00000591 00000000*  4514 	.data.w	.LDW_5ed05b0
00000595 2302       4515 	.data.b	2,35
00000597 04         4516 	.data.b	4
00000598 01         4517 	.data.b	1
                    4518 
00000599 00         4519 	.data.b	0
                    4520 
                    4521 .LDW_5d78d30:
0000059a 2a         4522 	.data.b	42
0000059b 49756450   4523 	.data.b	80,100,117,73,110,102,111,84,121,112,101,0
0000059f 546f666e 
000005a3 00657079 
000005a7 01c7       4524 	.data.b	199,1
000005a9 03         4525 	.data.b	3
000005aa 04         4526 	.data.b	4
000005ab 00000000*  4527 	.data.w	.LDW_5d78cd8
                    4528 
                    4529 .LDW_60e2b30:
000005af 30         4530 	.data.b	48
000005b0 00         4531 	.data.b	0
000005b1 01ca       4532 	.data.b	202,1
000005b3 01         4533 	.data.b	1
000005b4 04         4534 	.data.b	4
000005b5 04         4535 	.data.b	4
000005b6 01         4536 	.data.b	1
                    4537 
                    4538 	.section	.debug_abbrev
00000099 30         4539 	.data.b	48
0000009a 04         4540 	.data.b	4
0000009b 01         4541 	.data.b	1
0000009c 0803       4542 	.data.b	3,8
0000009e 0f3b       4543 	.data.b	59,15
000000a0 0f39       4544 	.data.b	57,15
000000a2 0f3a       4545 	.data.b	58,15
000000a4 0f0b       4546 	.data.b	11,15
000000a6 0b32       4547 	.data.b	50,11
000000a8 0000       4548 	.data.b	0,0
                    4549 
                    4550 	.section	.debug_info
                    4551 .LDW_5d5c628:
000005b7 2f         4552 	.data.b	47
000005b8 52465542   4553 	.data.b	66,85,70,82,69,81,95,79,75,0
000005bc 4f5f5145 
000005c0 004b 
000005c2 01cb       4554 	.data.b	203,1
000005c4 03         4555 	.data.b	3
000005c5 04         4556 	.data.b	4
000005c6 00         4557 	.data.b	0
                    4558 
                    4559 	.section	.debug_abbrev
000000aa 2f         4560 	.data.b	47
000000ab 28         4561 	.data.b	40
000000ac 00         4562 	.data.b	0
000000ad 0803       4563 	.data.b	3,8
000000af 0f3b       4564 	.data.b	59,15
000000b1 0f39       4565 	.data.b	57,15
000000b3 0f3a       4566 	.data.b	58,15
000000b5 0d1c       4567 	.data.b	28,13

                                                                      Page 82
                                                              C:\Users\Fengyuan\AppData\Local\Temp\gh_0000kos1.s
000000b7 0000       4568 	.data.b	0,0
                    4569 
                    4570 	.section	.debug_info
                    4571 .LDW_5d79618:
000005c7 2f         4572 	.data.b	47
000005c8 52465542   4573 	.data.b	66,85,70,82,69,81,95,69,95,78,79,84,95,79,75,0
000005cc 455f5145 
000005d0 544f4e5f 
000005d4 004b4f5f 
000005d8 01cc       4574 	.data.b	204,1
000005da 03         4575 	.data.b	3
000005db 04         4576 	.data.b	4
000005dc 01         4577 	.data.b	1
                    4578 
                    4579 .LDW_5c659a8:
000005dd 2f         4580 	.data.b	47
000005de 52465542   4581 	.data.b	66,85,70,82,69,81,95,69,95,66,85,83,89,0
000005e2 455f5145 
000005e6 5355425f 
000005ea 0059 
000005ec 01cd       4582 	.data.b	205,1
000005ee 03         4583 	.data.b	3
000005ef 04         4584 	.data.b	4
000005f0 02         4585 	.data.b	2
                    4586 
                    4587 .LDW_5c659e8:
000005f1 2f         4588 	.data.b	47
000005f2 52465542   4589 	.data.b	66,85,70,82,69,81,95,69,95,79,86,70,76,0
000005f6 455f5145 
000005fa 46564f5f 
000005fe 004c 
00000600 01ce       4590 	.data.b	206,1
00000602 03         4591 	.data.b	3
00000603 04         4592 	.data.b	4
00000604 03         4593 	.data.b	3
                    4594 
00000605 00         4595 	.data.b	0
                    4596 
                    4597 .LDW_60e26b8:
00000606 2a         4598 	.data.b	42
00000607 52667542   4599 	.data.b	66,117,102,82,101,113,95,82,101,116,117,114,110,84,121,112,101,0
0000060b 525f7165 
0000060f 72757465 
00000613 7079546e 
00000617 0065 
00000619 01cf       4600 	.data.b	207,1
0000061b 03         4601 	.data.b	3
0000061c 04         4602 	.data.b	4
0000061d 00000000*  4603 	.data.w	.LDW_60e2b30
                    4604 
                    4605 .LDW_60e2a28:
00000621 30         4606 	.data.b	48
00000622 00         4607 	.data.b	0
00000623 01da       4608 	.data.b	218,1
00000625 01         4609 	.data.b	1
00000626 04         4610 	.data.b	4
00000627 04         4611 	.data.b	4
00000628 01         4612 	.data.b	1
                    4613 
                    4614 .LDW_5c65a28:
00000629 2f         4615 	.data.b	47

                                                                      Page 83
                                                              C:\Users\Fengyuan\AppData\Local\Temp\gh_0000kos1.s
0000062a 445f5054   4616 	.data.b	84,80,95,68,65,84,65,67,79,78,70,0
0000062e 43415441 
00000632 00464e4f 
00000636 01db       4617 	.data.b	219,1
00000638 03         4618 	.data.b	3
00000639 04         4619 	.data.b	4
0000063a 00         4620 	.data.b	0
                    4621 
                    4622 .LDW_5c65a68:
0000063b 2f         4623 	.data.b	47
0000063c 445f5054   4624 	.data.b	84,80,95,68,65,84,65,82,69,84,82,89,0
00000640 52415441 
00000644 59525445 
00000648 00 
00000649 01dd       4625 	.data.b	221,1
0000064b 03         4626 	.data.b	3
0000064c 04         4627 	.data.b	4
0000064d 01         4628 	.data.b	1
                    4629 
                    4630 .LDW_5c65aa8:
0000064e 2f         4631 	.data.b	47
0000064f 435f5054   4632 	.data.b	84,80,95,67,79,78,70,80,69,78,68,73,78,71,0
00000653 50464e4f 
00000657 49444e45 
0000065b 00474e 
0000065e 01df       4633 	.data.b	223,1
00000660 03         4634 	.data.b	3
00000661 04         4635 	.data.b	4
00000662 02         4636 	.data.b	2
                    4637 
00000663 00         4638 	.data.b	0
                    4639 
                    4640 .LDW_60e2ad8:
00000664 2a         4641 	.data.b	42
00000665 61447054   4642 	.data.b	84,112,68,97,116,97,83,116,97,116,101,84,121,112,101,0
00000669 74536174 
0000066d 54657461 
00000671 00657079 
00000675 01e0       4643 	.data.b	224,1
00000677 03         4644 	.data.b	3
00000678 04         4645 	.data.b	4
00000679 00000000*  4646 	.data.w	.LDW_60e2a28
                    4647 
                    4648 .LDW_60e22f0:
0000067d 43         4649 	.data.b	67
0000067e 01e3       4650 	.data.b	227,1
00000680 01         4651 	.data.b	1
00000681 04         4652 	.data.b	4
00000682 08         4653 	.data.b	8
00000683 01         4654 	.data.b	1
                    4655 
                    4656 .LDW_60e3250:
00000684 25         4657 	.data.b	37
00000685 61447054   4658 	.data.b	84,112,68,97,116,97,83,116,97,116,101,0
00000689 74536174 
0000068d 00657461 
00000691 01e4       4659 	.data.b	228,1
00000693 13         4660 	.data.b	19
00000694 04         4661 	.data.b	4
00000695 00000000*  4662 	.data.w	.LDW_60e2ad8
00000699 2302       4663 	.data.b	2,35

                                                                      Page 84
                                                              C:\Users\Fengyuan\AppData\Local\Temp\gh_0000kos1.s
0000069b 00         4664 	.data.b	0
0000069c 01         4665 	.data.b	1
                    4666 
                    4667 .LDW_60e3640:
0000069d 25         4668 	.data.b	37
0000069e 70547854   4669 	.data.b	84,120,84,112,68,97,116,97,67,110,116,0
000006a2 61746144 
000006a6 00746e43 
000006aa 01e5       4670 	.data.b	229,1
000006ac 11         4671 	.data.b	17
000006ad 04         4672 	.data.b	4
000006ae 00000000*  4673 	.data.w	.LDW_5ed05b0
000006b2 2302       4674 	.data.b	2,35
000006b4 04         4675 	.data.b	4
000006b5 01         4676 	.data.b	1
                    4677 
000006b6 00         4678 	.data.b	0
                    4679 
                    4680 .LDW_60e2348:
000006b7 2a         4681 	.data.b	42
000006b8 72746552   4682 	.data.b	82,101,116,114,121,73,110,102,111,84,121,112,101,0
000006bc 666e4979 
000006c0 7079546f 
000006c4 0065 
000006c6 01e6       4683 	.data.b	230,1
000006c8 03         4684 	.data.b	3
000006c9 04         4685 	.data.b	4
000006ca 00000000*  4686 	.data.w	.LDW_60e22f0
                    4687 
                    4688 .LDW_60e2558:
000006ce 2a         4689 	.data.b	42
000006cf 546e6143   4690 	.data.b	67,97,110,84,112,95,70,114,97,109,101,84,121,112,101,0
000006d3 72465f70 
000006d7 54656d61 
000006db 00657079 
000006df 58         4691 	.data.b	88
000006e0 32         4692 	.data.b	50
000006e1 03         4693 	.data.b	3
000006e2 00000000*  4694 	.data.w	.LDW_4b7ea10
                    4695 
                    4696 .LDW_60e25b0:
000006e6 2a         4697 	.data.b	42
000006e7 546e6143   4698 	.data.b	67,97,110,84,112,95,73,110,105,116,83,116,97,116,117,115,84,121,112,101,0
000006eb 6e495f70 
000006ef 74537469 
000006f3 73757461 
000006f7 65707954 
000006fb 00 
000006fc 60         4699 	.data.b	96
000006fd 32         4700 	.data.b	50
000006fe 03         4701 	.data.b	3
000006ff 00000000*  4702 	.data.w	.LDW_4b7ea10
                    4703 
                    4704 .LDW_6070f08:
00000703 2a         4705 	.data.b	42
00000704 546e6143   4706 	.data.b	67,97,110,84,112,95,84,120,67,104,97,110,110,101,108,83,116,97,116,101,84,121,112,101,0
00000708 78545f70 
0000070c 6e616843 
00000710 536c656e 
00000714 65746174 
00000718 65707954 

                                                                      Page 85
                                                              C:\Users\Fengyuan\AppData\Local\Temp\gh_0000kos1.s
0000071c 00 
0000071d 66         4707 	.data.b	102
0000071e 32         4708 	.data.b	50
0000071f 03         4709 	.data.b	3
00000720 00000000*  4710 	.data.w	.LDW_4b7ea10
                    4711 
                    4712 .LDW_60e2608:
00000724 2a         4713 	.data.b	42
00000725 546e6143   4714 	.data.b	67,97,110,84,112,95,82,120,67,104,97,110,110,101,108,83,116,97,116,101,84,121,112,101,0
00000729 78525f70 
0000072d 6e616843 
00000731 536c656e 
00000735 65746174 
00000739 65707954 
0000073d 00 
0000073e 7a         4715 	.data.b	122
0000073f 32         4716 	.data.b	50
00000740 03         4717 	.data.b	3
00000741 00000000*  4718 	.data.w	.LDW_4b7ea10
                    4719 
                    4720 .LDW_60a1d18:
00000745 2a         4721 	.data.b	42
00000746 546e6143   4722 	.data.b	67,97,110,84,112,95,68,105,114,101,99,116,105,111,110,84,121,112,101,0
0000074a 69445f70 
0000074e 74636572 
00000752 546e6f69 
00000756 00657079 
0000075a 018d       4723 	.data.b	141,1
0000075c 32         4724 	.data.b	50
0000075d 03         4725 	.data.b	3
0000075e 00000000*  4726 	.data.w	.LDW_4b7ea10
                    4727 
                    4728 .LDW_6070778:
00000762 2a         4729 	.data.b	42
00000763 546e6143   4730 	.data.b	67,97,110,84,112,95,78,111,116,105,102,105,99,97,116,105,111,110,84,121,112,101,0
00000767 6f4e5f70 
0000076b 69666974 
0000076f 69746163 
00000773 79546e6f 
00000777 006570 
0000077a 01a3       4731 	.data.b	163,1
0000077c 32         4732 	.data.b	50
0000077d 03         4733 	.data.b	3
0000077e 00000000*  4734 	.data.w	.LDW_5ed0768
                    4735 
                    4736 .LDW_60e2660:
00000782 2a         4737 	.data.b	42
00000783 546e6143   4738 	.data.b	67,97,110,84,112,95,66,117,102,102,101,114,83,116,97,116,101,84,121,112,101,0
00000787 75425f70 
0000078b 72656666 
0000078f 74617453 
00000793 70795465 
00000797 0065 
00000799 01b4       4739 	.data.b	180,1
0000079b 32         4740 	.data.b	50
0000079c 03         4741 	.data.b	3
0000079d 00000000*  4742 	.data.w	.LDW_4b7ea10
                    4743 
                    4744 .LDW_60e27c0:
000007a1 2a         4745 	.data.b	42
000007a2 546e6143   4746 	.data.b	67,97,110,84,112,95,87,70,84,109,97,120,84,121,112,101,0

                                                                      Page 86
                                                              C:\Users\Fengyuan\AppData\Local\Temp\gh_0000kos1.s
000007a6 46575f70 
000007aa 78616d54 
000007ae 65707954 
000007b2 00 
000007b3 01be       4747 	.data.b	190,1
000007b5 19         4748 	.data.b	25
000007b6 03         4749 	.data.b	3
000007b7 00000000*  4750 	.data.w	.LDW_4b7a120
                    4751 
                    4752 .LDW_60e2818:
000007bb 2a         4753 	.data.b	42
000007bc 546e6143   4754 	.data.b	67,97,110,84,112,95,84,105,109,101,114,84,121,112,101,0
000007c0 69545f70 
000007c4 5472656d 
000007c8 00657079 
000007cc 01bf       4755 	.data.b	191,1
000007ce 19         4756 	.data.b	25
000007cf 03         4757 	.data.b	3
000007d0 00000000*  4758 	.data.w	.LDW_4b7a120
                    4759 
                    4760 .LDW_5d78860:
000007d4 42         4761 	.data.b	66
000007d5 6e614373   4762 	.data.b	115,67,97,110,84,112,95,82,120,83,116,97,116,101,84,121,112,101,0
000007d9 525f7054 
000007dd 61745378 
000007e1 79546574 
000007e5 006570 
000007e8 01c5       4763 	.data.b	197,1
000007ea 10         4764 	.data.b	16
000007eb 03         4765 	.data.b	3
000007ec 1c         4766 	.data.b	28
000007ed 01         4767 	.data.b	1
                    4768 
                    4769 	.section	.debug_abbrev
000000b9 42         4770 	.data.b	66
000000ba 13         4771 	.data.b	19
000000bb 01         4772 	.data.b	1
000000bc 0803       4773 	.data.b	3,8
000000be 0f3b       4774 	.data.b	59,15
000000c0 0f39       4775 	.data.b	57,15
000000c2 0f3a       4776 	.data.b	58,15
000000c4 0f0b       4777 	.data.b	11,15
000000c6 0b32       4778 	.data.b	50,11
000000c8 0000       4779 	.data.b	0,0
                    4780 
                    4781 	.section	.debug_info
                    4782 .LDW_60e36d0:
000007ee 25         4783 	.data.b	37
000007ef 6d617246   4784 	.data.b	70,114,97,109,101,84,121,112,101,0
000007f3 70795465 
000007f7 0065 
000007f9 01c7       4785 	.data.b	199,1
000007fb 25         4786 	.data.b	37
000007fc 03         4787 	.data.b	3
000007fd 00000000*  4788 	.data.w	.LDW_60e2558
00000801 2302       4789 	.data.b	2,35
00000803 00         4790 	.data.b	0
00000804 01         4791 	.data.b	1
                    4792 
                    4793 .LDW_60e3298:
00000805 25         4794 	.data.b	37

                                                                      Page 87
                                                              C:\Users\Fengyuan\AppData\Local\Temp\gh_0000kos1.s
00000806 6e616843   4795 	.data.b	67,104,97,110,110,101,108,83,116,97,116,101,0
0000080a 536c656e 
0000080e 65746174 
00000812 00 
00000813 01c8       4796 	.data.b	200,1
00000815 25         4797 	.data.b	37
00000816 03         4798 	.data.b	3
00000817 00000000*  4799 	.data.w	.LDW_60e3000
0000081b 2302       4800 	.data.b	2,35
0000081d 01         4801 	.data.b	1
0000081e 01         4802 	.data.b	1
                    4803 
                    4804 .LDW_60e3448:
0000081f 25         4805 	.data.b	37
00000820 656d6954   4806 	.data.b	84,105,109,101,114,0
00000824 0072 
00000826 01c9       4807 	.data.b	201,1
00000828 25         4808 	.data.b	37
00000829 03         4809 	.data.b	3
0000082a 00000000*  4810 	.data.w	.LDW_60e2818
0000082e 2302       4811 	.data.b	2,35
00000830 02         4812 	.data.b	2
00000831 01         4813 	.data.b	1
                    4814 
                    4815 .LDW_60e34d8:
00000832 25         4816 	.data.b	37
00000833 61746144   4817 	.data.b	68,97,116,97,76,101,110,103,116,104,0
00000837 676e654c 
0000083b 006874 
0000083e 01ca       4818 	.data.b	202,1
00000840 25         4819 	.data.b	37
00000841 03         4820 	.data.b	3
00000842 00000000*  4821 	.data.w	.LDW_5ed05b0
00000846 2302       4822 	.data.b	2,35
00000848 04         4823 	.data.b	4
00000849 01         4824 	.data.b	1
                    4825 
                    4826 .LDW_60e3880:
0000084a 25         4827 	.data.b	37
0000084b 61746144   4828 	.data.b	68,97,116,97,73,110,100,101,120,0
0000084f 65646e49 
00000853 0078 
00000855 01cb       4829 	.data.b	203,1
00000857 25         4830 	.data.b	37
00000858 03         4831 	.data.b	3
00000859 00000000*  4832 	.data.w	.LDW_5ed05b0
0000085d 2302       4833 	.data.b	2,35
0000085f 06         4834 	.data.b	6
00000860 01         4835 	.data.b	1
                    4836 
                    4837 .LDW_60e31c0:
00000861 25         4838 	.data.b	37
00000862 766f7250   4839 	.data.b	80,114,111,118,105,100,101,100,66,117,102,102,101,114,83,105,122,101,0
00000866 64656469 
0000086a 66667542 
0000086e 69537265 
00000872 00657a 
00000875 01cc       4840 	.data.b	204,1
00000877 25         4841 	.data.b	37
00000878 03         4842 	.data.b	3
00000879 00000000*  4843 	.data.w	.LDW_5ed05b0

                                                                      Page 88
                                                              C:\Users\Fengyuan\AppData\Local\Temp\gh_0000kos1.s
0000087d 2302       4844 	.data.b	2,35
0000087f 08         4845 	.data.b	8
00000880 01         4846 	.data.b	1
                    4847 
                    4848 .LDW_60e3520:
00000881 25         4849 	.data.b	37
00000882 64487852   4850 	.data.b	82,120,72,100,108,0
00000886 006c 
00000888 01cd       4851 	.data.b	205,1
0000088a 25         4852 	.data.b	37
0000088b 03         4853 	.data.b	3
0000088c 00000000*  4854 	.data.w	.LDW_5d78d88
00000890 2302       4855 	.data.b	2,35
00000892 0a         4856 	.data.b	10
00000893 01         4857 	.data.b	1
                    4858 
                    4859 .LDW_60e32e0:
00000894 25         4860 	.data.b	37
00000895 43544657   4861 	.data.b	87,70,84,67,111,117,110,116,101,114,0
00000899 746e756f 
0000089d 007265 
000008a0 01ce       4862 	.data.b	206,1
000008a2 25         4863 	.data.b	37
000008a3 03         4864 	.data.b	3
000008a4 00000000*  4865 	.data.w	.LDW_60e27c0
000008a8 2302       4866 	.data.b	2,35
000008aa 0c         4867 	.data.b	12
000008ab 01         4868 	.data.b	1
                    4869 
                    4870 .LDW_60e38c8:
000008ac 25         4871 	.data.b	37
000008ad 66667542   4872 	.data.b	66,117,102,102,101,114,83,116,97,116,101,0
000008b1 74537265 
000008b5 00657461 
000008b9 01cf       4873 	.data.b	207,1
000008bb 25         4874 	.data.b	37
000008bc 03         4875 	.data.b	3
000008bd 00000000*  4876 	.data.w	.LDW_60e2660
000008c1 2302       4877 	.data.b	2,35
000008c3 0e         4878 	.data.b	14
000008c4 01         4879 	.data.b	1
                    4880 
                    4881 .LDW_60e3910:
000008c5 25         4882 	.data.b	37
000008c6 636f6c42   4883 	.data.b	66,108,111,99,107,115,105,122,101,67,111,117,110,116,101,114,0
000008ca 7a69736b 
000008ce 756f4365 
000008d2 7265746e 
000008d6 00 
000008d7 01d0       4884 	.data.b	208,1
000008d9 25         4885 	.data.b	37
000008da 03         4886 	.data.b	3
000008db 00000000*  4887 	.data.w	.LDW_4b7ea10
000008df 2302       4888 	.data.b	2,35
000008e1 0f         4889 	.data.b	15
000008e2 01         4890 	.data.b	1
                    4891 
                    4892 .LDW_60e3178:
000008e3 25         4893 	.data.b	37
000008e4 6c796150   4894 	.data.b	80,97,121,108,111,97,100,0
000008e8 0064616f 

                                                                      Page 89
                                                              C:\Users\Fengyuan\AppData\Local\Temp\gh_0000kos1.s
000008ec 01d1       4895 	.data.b	209,1
000008ee 25         4896 	.data.b	37
000008ef 03         4897 	.data.b	3
000008f0 00000000*  4898 	.data.w	.LDW_5c65ba8
000008f4 2302       4899 	.data.b	2,35
000008f6 10         4900 	.data.b	16
000008f7 01         4901 	.data.b	1
                    4902 
                    4903 .LDW_60e3568:
000008f8 25         4904 	.data.b	37
000008f9 6c796150   4905 	.data.b	80,97,121,108,111,97,100,76,101,110,103,116,104,0
000008fd 4c64616f 
00000901 74676e65 
00000905 0068 
00000907 01d2       4906 	.data.b	210,1
00000909 25         4907 	.data.b	37
0000090a 03         4908 	.data.b	3
0000090b 00000000*  4909 	.data.w	.LDW_4b7ea10
0000090f 2302       4910 	.data.b	2,35
00000911 17         4911 	.data.b	23
00000912 01         4912 	.data.b	1
                    4913 
                    4914 .LDW_60e37f0:
00000913 25         4915 	.data.b	37
00000914 74696e49   4916 	.data.b	73,110,105,116,97,108,68,76,67,0
00000918 4c446c61 
0000091c 0043 
0000091e 01d3       4917 	.data.b	211,1
00000920 25         4918 	.data.b	37
00000921 03         4919 	.data.b	3
00000922 00000000*  4920 	.data.w	.LDW_4b7ea10
00000926 2302       4921 	.data.b	2,35
00000928 18         4922 	.data.b	24
00000929 01         4923 	.data.b	1
                    4924 
                    4925 .LDW_60e3328:
0000092a 25         4926 	.data.b	37
0000092b 65707845   4927 	.data.b	69,120,112,101,99,116,101,100,83,78,0
0000092f 64657463 
00000933 004e53 
00000936 01d4       4928 	.data.b	212,1
00000938 25         4929 	.data.b	37
00000939 03         4930 	.data.b	3
0000093a 00000000*  4931 	.data.w	.LDW_4b7ea10
0000093e 2302       4932 	.data.b	2,35
00000940 19         4933 	.data.b	25
00000941 01         4934 	.data.b	1
                    4935 
                    4936 .LDW_60e33b8:
00000942 25         4937 	.data.b	37
00000943 6c707041   4938 	.data.b	65,112,112,108,83,116,97,116,101,0
00000947 74617453 
0000094b 0065 
0000094d 01d6       4939 	.data.b	214,1
0000094f 25         4940 	.data.b	37
00000950 03         4941 	.data.b	3
00000951 00000000*  4942 	.data.w	.LDW_4b7ea10
00000955 2302       4943 	.data.b	2,35
00000957 1a         4944 	.data.b	26
00000958 01         4945 	.data.b	1
                    4946 

                                                                      Page 90
                                                              C:\Users\Fengyuan\AppData\Local\Temp\gh_0000kos1.s
00000959 00         4947 	.data.b	0
                    4948 
                    4949 .LDW_5d78b20:
0000095a 2a         4950 	.data.b	42
0000095b 546e6143   4951 	.data.b	67,97,110,84,112,95,82,120,83,116,97,116,101,84,121,112,101,0
0000095f 78525f70 
00000963 74617453 
00000967 70795465 
0000096b 0065 
0000096d 01d8       4952 	.data.b	216,1
0000096f 03         4953 	.data.b	3
00000970 03         4954 	.data.b	3
00000971 00000000*  4955 	.data.w	.LDW_5d78860
                    4956 
                    4957 .LDW_5ed0558:
00000975 42         4958 	.data.b	66
00000976 6e614373   4959 	.data.b	115,67,97,110,84,112,95,84,120,83,116,97,116,101,84,121,112,101,0
0000097a 545f7054 
0000097e 61745378 
00000982 79546574 
00000986 006570 
00000989 01dc       4960 	.data.b	220,1
0000098b 10         4961 	.data.b	16
0000098c 03         4962 	.data.b	3
0000098d 1c         4963 	.data.b	28
0000098e 01         4964 	.data.b	1
                    4965 
                    4966 .LDW_60e37a8:
0000098f 25         4967 	.data.b	37
00000990 656d6954   4968 	.data.b	84,105,109,101,114,0
00000994 0072 
00000996 01de       4969 	.data.b	222,1
00000998 25         4970 	.data.b	37
00000999 03         4971 	.data.b	3
0000099a 00000000*  4972 	.data.w	.LDW_60e2818
0000099e 2302       4973 	.data.b	2,35
000009a0 00         4974 	.data.b	0
000009a1 01         4975 	.data.b	1
                    4976 
                    4977 .LDW_60e3130:
000009a2 25         4978 	.data.b	37
000009a3 61746144   4979 	.data.b	68,97,116,97,76,101,110,103,116,104,0
000009a7 676e654c 
000009ab 006874 
000009ae 01df       4980 	.data.b	223,1
000009b0 25         4981 	.data.b	37
000009b1 03         4982 	.data.b	3
000009b2 00000000*  4983 	.data.w	.LDW_5ed05b0
000009b6 2302       4984 	.data.b	2,35
000009b8 02         4985 	.data.b	2
000009b9 01         4986 	.data.b	1
                    4987 
                    4988 .LDW_60e35b0:
000009ba 25         4989 	.data.b	37
000009bb 61746144   4990 	.data.b	68,97,116,97,73,110,100,101,120,0
000009bf 65646e49 
000009c3 0078 
000009c5 01e0       4991 	.data.b	224,1
000009c7 25         4992 	.data.b	37
000009c8 03         4993 	.data.b	3
000009c9 00000000*  4994 	.data.w	.LDW_5ed05b0

                                                                      Page 91
                                                              C:\Users\Fengyuan\AppData\Local\Temp\gh_0000kos1.s
000009cd 2302       4995 	.data.b	2,35
000009cf 04         4996 	.data.b	4
000009d0 01         4997 	.data.b	1
                    4998 
                    4999 .LDW_60e3958:
000009d1 25         5000 	.data.b	37
000009d2 64487854   5001 	.data.b	84,120,72,100,108,0
000009d6 006c 
000009d8 01e1       5002 	.data.b	225,1
000009da 25         5003 	.data.b	37
000009db 03         5004 	.data.b	3
000009dc 00000000*  5005 	.data.w	.LDW_5d78d88
000009e0 2302       5006 	.data.b	2,35
000009e2 06         5007 	.data.b	6
000009e3 01         5008 	.data.b	1
                    5009 
                    5010 .LDW_60e3400:
000009e4 25         5011 	.data.b	37
000009e5 6e616843   5012 	.data.b	67,104,97,110,110,101,108,83,116,97,116,101,0
000009e9 536c656e 
000009ed 65746174 
000009f1 00 
000009f2 01e5       5013 	.data.b	229,1
000009f4 25         5014 	.data.b	37
000009f5 03         5015 	.data.b	3
000009f6 00000000*  5016 	.data.w	.LDW_60e2e48
000009fa 2302       5017 	.data.b	2,35
000009fc 07         5018 	.data.b	7
000009fd 01         5019 	.data.b	1
                    5020 
                    5021 .LDW_60e3490:
000009fe 25         5022 	.data.b	37
000009ff 66667542   5023 	.data.b	66,117,102,102,101,114,83,116,97,116,101,0
00000a03 74537265 
00000a07 00657461 
00000a0b 01e6       5024 	.data.b	230,1
00000a0d 25         5025 	.data.b	37
00000a0e 03         5026 	.data.b	3
00000a0f 00000000*  5027 	.data.w	.LDW_60e2660
00000a13 2302       5028 	.data.b	2,35
00000a15 08         5029 	.data.b	8
00000a16 01         5030 	.data.b	1
                    5031 
                    5032 .LDW_60e3718:
00000a17 25         5033 	.data.b	37
00000a18 696d5453   5034 	.data.b	83,84,109,105,110,0
00000a1c 006e 
00000a1e 01e7       5035 	.data.b	231,1
00000a20 25         5036 	.data.b	37
00000a21 03         5037 	.data.b	3
00000a22 00000000*  5038 	.data.w	.LDW_4b7ea10
00000a26 2302       5039 	.data.b	2,35
00000a28 09         5040 	.data.b	9
00000a29 01         5041 	.data.b	1
                    5042 
                    5043 .LDW_60e3208:
00000a2a 25         5044 	.data.b	37
00000a2b 696d5453   5045 	.data.b	83,84,109,105,110,84,105,109,101,114,0
00000a2f 6d69546e 
00000a33 007265 
00000a36 01e8       5046 	.data.b	232,1

                                                                      Page 92
                                                              C:\Users\Fengyuan\AppData\Local\Temp\gh_0000kos1.s
00000a38 25         5047 	.data.b	37
00000a39 03         5048 	.data.b	3
00000a3a 00000000*  5049 	.data.w	.LDW_4b7ea10
00000a3e 2302       5050 	.data.b	2,35
00000a40 0a         5051 	.data.b	10
00000a41 01         5052 	.data.b	1
                    5053 
                    5054 .LDW_60e35f8:
00000a42 25         5055 	.data.b	37
00000a43 636f6c42   5056 	.data.b	66,108,111,99,107,115,105,122,101,67,111,117,110,116,101,114,0
00000a47 7a69736b 
00000a4b 756f4365 
00000a4f 7265746e 
00000a53 00 
00000a54 01e9       5057 	.data.b	233,1
00000a56 25         5058 	.data.b	37
00000a57 03         5059 	.data.b	3
00000a58 00000000*  5060 	.data.w	.LDW_4b7ea10
00000a5c 2302       5061 	.data.b	2,35
00000a5e 0b         5062 	.data.b	11
00000a5f 01         5063 	.data.b	1
                    5064 
                    5065 .LDW_60e3838:
00000a60 25         5066 	.data.b	37
00000a61 005342     5067 	.data.b	66,83,0
00000a64 01eb       5068 	.data.b	235,1
00000a66 25         5069 	.data.b	37
00000a67 03         5070 	.data.b	3
00000a68 00000000*  5071 	.data.w	.LDW_4b7ea10
00000a6c 2302       5072 	.data.b	2,35
00000a6e 0c         5073 	.data.b	12
00000a6f 01         5074 	.data.b	1
                    5075 
                    5076 .LDW_60e39a0:
00000a70 25         5077 	.data.b	37
00000a71 6c796150   5078 	.data.b	80,97,121,108,111,97,100,0
00000a75 0064616f 
00000a79 01ed       5079 	.data.b	237,1
00000a7b 25         5080 	.data.b	37
00000a7c 03         5081 	.data.b	3
00000a7d 00000000*  5082 	.data.w	.LDW_5c65c30
00000a81 2302       5083 	.data.b	2,35
00000a83 0d         5084 	.data.b	13
00000a84 01         5085 	.data.b	1
                    5086 
                    5087 .LDW_60e30e8:
00000a85 25         5088 	.data.b	37
00000a86 6c796150   5089 	.data.b	80,97,121,108,111,97,100,76,101,110,103,116,104,0
00000a8a 4c64616f 
00000a8e 74676e65 
00000a92 0068 
00000a94 01ee       5090 	.data.b	238,1
00000a96 25         5091 	.data.b	37
00000a97 03         5092 	.data.b	3
00000a98 00000000*  5093 	.data.w	.LDW_4b7ea10
00000a9c 2302       5094 	.data.b	2,35
00000a9e 14         5095 	.data.b	20
00000a9f 01         5096 	.data.b	1
                    5097 
                    5098 .LDW_60e3ac0:
00000aa0 25         5099 	.data.b	37

                                                                      Page 93
                                                              C:\Users\Fengyuan\AppData\Local\Temp\gh_0000kos1.s
00000aa1 4e716553   5100 	.data.b	83,101,113,78,117,109,98,101,114,0
00000aa5 65626d75 
00000aa9 0072 
00000aab 01ef       5101 	.data.b	239,1
00000aad 25         5102 	.data.b	37
00000aae 03         5103 	.data.b	3
00000aaf 00000000*  5104 	.data.w	.LDW_4b7ea10
00000ab3 2302       5105 	.data.b	2,35
00000ab5 15         5106 	.data.b	21
00000ab6 01         5107 	.data.b	1
                    5108 
                    5109 .LDW_60e4060:
00000ab7 25         5110 	.data.b	37
00000ab8 73726946   5111 	.data.b	70,105,114,115,116,70,67,82,101,99,101,105,118,101,100,0
00000abc 52434674 
00000ac0 69656365 
00000ac4 00646576 
00000ac8 01f1       5112 	.data.b	241,1
00000aca 25         5113 	.data.b	37
00000acb 03         5114 	.data.b	3
00000acc 00000000*  5115 	.data.w	.LDW_4b7a318
00000ad0 2302       5116 	.data.b	2,35
00000ad2 16         5117 	.data.b	22
00000ad3 01         5118 	.data.b	1
                    5119 
                    5120 .LDW_60e3b50:
00000ad4 25         5121 	.data.b	37
00000ad5 654c4346   5122 	.data.b	70,67,76,101,110,103,116,104,0
00000ad9 6874676e 
00000add 00 
00000ade 01f3       5123 	.data.b	243,1
00000ae0 25         5124 	.data.b	37
00000ae1 03         5125 	.data.b	3
00000ae2 00000000*  5126 	.data.w	.LDW_4b7ea10
00000ae6 2302       5127 	.data.b	2,35
00000ae8 17         5128 	.data.b	23
00000ae9 01         5129 	.data.b	1
                    5130 
                    5131 .LDW_60e39e8:
00000aea 25         5132 	.data.b	37
00000aeb 61444346   5133 	.data.b	70,67,68,97,116,97,0
00000aef 006174 
00000af2 01f4       5134 	.data.b	244,1
00000af4 25         5135 	.data.b	37
00000af5 03         5136 	.data.b	3
00000af6 00000000*  5137 	.data.w	.LDW_5c65cb8
00000afa 2302       5138 	.data.b	2,35
00000afc 18         5139 	.data.b	24
00000afd 01         5140 	.data.b	1
                    5141 
00000afe 00         5142 	.data.b	0
                    5143 
                    5144 .LDW_5ed0710:
00000aff 2a         5145 	.data.b	42
00000b00 546e6143   5146 	.data.b	67,97,110,84,112,95,84,120,83,116,97,116,101,84,121,112,101,0
00000b04 78545f70 
00000b08 74617453 
00000b0c 70795465 
00000b10 0065 
00000b12 01f5       5147 	.data.b	245,1
00000b14 03         5148 	.data.b	3

                                                                      Page 94
                                                              C:\Users\Fengyuan\AppData\Local\Temp\gh_0000kos1.s
00000b15 03         5149 	.data.b	3
00000b16 00000000*  5150 	.data.w	.LDW_5ed0558
                    5151 
                    5152 .LDW_60e2f50:
00000b1a 42         5153 	.data.b	66
00000b1b 53785473   5154 	.data.b	115,84,120,83,101,109,97,112,104,111,114,101,84,121,112,101,0
00000b1f 70616d65 
00000b23 65726f68 
00000b27 65707954 
00000b2b 00 
00000b2c 0281       5155 	.data.b	129,2
00000b2e 10         5156 	.data.b	16
00000b2f 03         5157 	.data.b	3
00000b30 02         5158 	.data.b	2
00000b31 01         5159 	.data.b	1
                    5160 
                    5161 .LDW_60e3a30:
00000b32 25         5162 	.data.b	37
00000b33 646e6148   5163 	.data.b	72,97,110,100,108,101,0
00000b37 00656c 
00000b3a 0283       5164 	.data.b	131,2
00000b3c 18         5165 	.data.b	24
00000b3d 03         5166 	.data.b	3
00000b3e 00000000*  5167 	.data.w	.LDW_5d78d88
00000b42 2302       5168 	.data.b	2,35
00000b44 00         5169 	.data.b	0
00000b45 01         5170 	.data.b	1
                    5171 
                    5172 .LDW_60e3be0:
00000b46 25         5173 	.data.b	37
00000b47 65726944   5174 	.data.b	68,105,114,101,99,116,105,111,110,0
00000b4b 6f697463 
00000b4f 006e 
00000b51 0284       5175 	.data.b	132,2
00000b53 18         5176 	.data.b	24
00000b54 03         5177 	.data.b	3
00000b55 00000000*  5178 	.data.w	.LDW_60a1d18
00000b59 2302       5179 	.data.b	2,35
00000b5b 01         5180 	.data.b	1
00000b5c 01         5181 	.data.b	1
                    5182 
00000b5d 00         5183 	.data.b	0
                    5184 
                    5185 .LDW_60e2d98:
00000b5e 2a         5186 	.data.b	42
00000b5f 546e6143   5187 	.data.b	67,97,110,84,112,95,84,120,83,101,109,97,112,104,111,114,101,84,121,112,101,0
00000b63 78545f70 
00000b67 616d6553 
00000b6b 726f6870 
00000b6f 70795465 
00000b73 0065 
00000b75 0285       5188 	.data.b	133,2
00000b77 03         5189 	.data.b	3
00000b78 03         5190 	.data.b	3
00000b79 00000000*  5191 	.data.w	.LDW_60e2f50
                    5192 
                    5193 .LDW_5ed03f8:
00000b7d 2a         5194 	.data.b	42
00000b7e 546e6143   5195 	.data.b	67,97,110,84,112,95,84,120,83,116,97,116,101,80,116,114,84,121,112,101,0
00000b82 78545f70 
00000b86 74617453 

                                                                      Page 95
                                                              C:\Users\Fengyuan\AppData\Local\Temp\gh_0000kos1.s
00000b8a 72745065 
00000b8e 65707954 
00000b92 00 
00000b93 02a0       5196 	.data.b	160,2
00000b95 41         5197 	.data.b	65
00000b96 03         5198 	.data.b	3
00000b97 00000000*  5199 	.data.w	.LDW_4b4d4a8
                    5200 
                    5201 .LDW_5d787b0:
00000b9b 2a         5202 	.data.b	42
00000b9c 546e6143   5203 	.data.b	67,97,110,84,112,95,82,120,83,116,97,116,101,80,116,114,84,121,112,101,0
00000ba0 78525f70 
00000ba4 74617453 
00000ba8 72745065 
00000bac 65707954 
00000bb0 00 
00000bb1 02a1       5204 	.data.b	161,2
00000bb3 41         5205 	.data.b	65
00000bb4 03         5206 	.data.b	3
00000bb5 00000000*  5207 	.data.w	.LDW_4b4d208
                    5208 
                    5209 .LDW_60e4c48:
00000bb9 2a         5210 	.data.b	42
00000bba 546e6143   5211 	.data.b	67,97,110,84,112,95,67,97,108,99,66,83,84,121,112,101,0
00000bbe 61435f70 
00000bc2 5342636c 
00000bc6 65707954 
00000bca 00 
00000bcb 70         5212 	.data.b	112
00000bcc 0f         5213 	.data.b	15
00000bcd 0f         5214 	.data.b	15
00000bce 00000000*  5215 	.data.w	.LDW_4b7ea10
                    5216 
                    5217 .LDW_60e4fb8:
00000bd2 2a         5218 	.data.b	42
00000bd3 546e6143   5219 	.data.b	67,97,110,84,112,95,82,120,83,100,117,67,102,103,73,110,100,69,110,100,73,100,120,79,102,82,120,80,100,117,77,97,112,84,121,112,101,0
00000bd7 78525f70 
00000bdb 43756453 
00000bdf 6e496766 
00000be3 646e4564 
00000be7 4f786449 
00000beb 50785266 
00000bef 614d7564 
00000bf3 70795470 
00000bf7 0065 
00000bf9 79         5220 	.data.b	121
00000bfa 0f         5221 	.data.b	15
00000bfb 0f         5222 	.data.b	15
00000bfc 00000000*  5223 	.data.w	.LDW_4b7ea10
                    5224 
                    5225 .LDW_60e5010:
00000c00 2a         5226 	.data.b	42
00000c01 546e6143   5227 	.data.b	67,97,110,84,112,95,82,120,83,100,117,67,102,103,73,110,100,83,116,97,114,116,73,100,120,79,102,82,120,80,100,117,77,97,112,84,121,112,101,0
00000c05 78525f70 
00000c09 43756453 
00000c0d 6e496766 
00000c11 61745364 
00000c15 64497472 
00000c19 52664f78 
00000c1d 75645078 
00000c21 5470614d 

                                                                      Page 96
                                                              C:\Users\Fengyuan\AppData\Local\Temp\gh_0000kos1.s
00000c25 00657079 
00000c29 7c         5228 	.data.b	124
00000c2a 0f         5229 	.data.b	15
00000c2b 0f         5230 	.data.b	15
00000c2c 00000000*  5231 	.data.w	.LDW_4b7ea10
                    5232 
                    5233 .LDW_60e4b40:
00000c30 2a         5234 	.data.b	42
00000c31 546e6143   5235 	.data.b	67,97,110,84,112,95,84,120,83,100,117,67,102,103,73,110,100,69,110,100,73,100,120,79,102,82,120,80,100,117,77,97,112,84,121,112,101,0
00000c35 78545f70 
00000c39 43756453 
00000c3d 6e496766 
00000c41 646e4564 
00000c45 4f786449 
00000c49 50785266 
00000c4d 614d7564 
00000c51 70795470 
00000c55 0065 
00000c57 0182       5236 	.data.b	130,1
00000c59 0f         5237 	.data.b	15
00000c5a 0f         5238 	.data.b	15
00000c5b 00000000*  5239 	.data.w	.LDW_4b7ea10
                    5240 
                    5241 .LDW_60e47d0:
00000c5f 2a         5242 	.data.b	42
00000c60 546e6143   5243 	.data.b	67,97,110,84,112,95,84,120,83,100,117,67,102,103,73,110,100,83,116,97,114,116,73,100,120,79,102,82,120,80,100,117,77,97,112,84,121,112,101,0
00000c64 78545f70 
00000c68 43756453 
00000c6c 6e496766 
00000c70 61745364 
00000c74 64497472 
00000c78 52664f78 
00000c7c 75645078 
00000c80 5470614d 
00000c84 00657079 
00000c88 0185       5244 	.data.b	133,1
00000c8a 0f         5245 	.data.b	15
00000c8b 0f         5246 	.data.b	15
00000c8c 00000000*  5247 	.data.w	.LDW_4b7ea10
                    5248 
                    5249 .LDW_60e4148:
00000c90 2a         5250 	.data.b	42
00000c91 546e6143   5251 	.data.b	67,97,110,84,112,95,67,97,110,73,102,84,120,70,99,80,100,117,73,100,79,102,82,120,83,100,117,67,102,103,84,121,112,101,0
00000c95 61435f70 
00000c99 5466496e 
00000c9d 50634678 
00000ca1 64497564 
00000ca5 7852664f 
00000ca9 43756453 
00000cad 79546766 
00000cb1 006570 
00000cb4 018e       5252 	.data.b	142,1
00000cb6 13         5253 	.data.b	19
00000cb7 0f         5254 	.data.b	15
00000cb8 00000000*  5255 	.data.w	.LDW_5d78d88
                    5256 
                    5257 .LDW_60e4b98:
00000cbc 2a         5258 	.data.b	42
00000cbd 546e6143   5259 	.data.b	67,97,110,84,112,95,78,65,114,79,102,82,120,83,100,117,67,102,103,84,121,112,101,0
00000cc1 414e5f70 
00000cc5 52664f72 

                                                                      Page 97
                                                              C:\Users\Fengyuan\AppData\Local\Temp\gh_0000kos1.s
00000cc9 75645378 
00000ccd 54676643 
00000cd1 00657079 
00000cd5 0197       5260 	.data.b	151,1
00000cd7 0f         5261 	.data.b	15
00000cd8 0f         5262 	.data.b	15
00000cd9 00000000*  5263 	.data.w	.LDW_4b7ea10
                    5264 
                    5265 .LDW_60e4510:
00000cdd 2a         5266 	.data.b	42
00000cde 546e6143   5267 	.data.b	67,97,110,84,112,95,78,67,114,79,102,82,120,83,100,117,67,102,103,84,121,112,101,0
00000ce2 434e5f70 
00000ce6 52664f72 
00000cea 75645378 
00000cee 54676643 
00000cf2 00657079 
00000cf6 019d       5268 	.data.b	157,1
00000cf8 0f         5269 	.data.b	15
00000cf9 0f         5270 	.data.b	15
00000cfa 00000000*  5271 	.data.w	.LDW_4b7ea10
                    5272 
                    5273 .LDW_60e4930:
00000cfe 2a         5274 	.data.b	42
00000cff 546e6143   5275 	.data.b	67,97,110,84,112,95,80,100,117,82,82,120,83,100,117,73,100,79,102,82,120,83,100,117,67,102,103,84,121,112,101,0
00000d03 64505f70 
00000d07 78525275 
00000d0b 49756453 
00000d0f 52664f64 
00000d13 75645378 
00000d17 54676643 
00000d1b 00657079 
00000d1f 01a0       5276 	.data.b	160,1
00000d21 13         5277 	.data.b	19
00000d22 0f         5278 	.data.b	15
00000d23 00000000*  5279 	.data.w	.LDW_5d78d88
                    5280 
                    5281 .LDW_60e46c8:
00000d27 2a         5282 	.data.b	42
00000d28 546e6143   5283 	.data.b	67,97,110,84,112,95,82,120,80,100,117,73,100,79,102,82,120,83,100,117,67,102,103,84,121,112,101,0
00000d2c 78525f70 
00000d30 49756450 
00000d34 52664f64 
00000d38 75645378 
00000d3c 54676643 
00000d40 00657079 
00000d44 01af       5284 	.data.b	175,1
00000d46 13         5285 	.data.b	19
00000d47 0f         5286 	.data.b	15
00000d48 00000000*  5287 	.data.w	.LDW_5d78d88
                    5288 
                    5289 .LDW_60e4880:
00000d4c 2a         5290 	.data.b	42
00000d4d 546e6143   5291 	.data.b	67,97,110,84,112,95,82,120,84,97,84,121,112,101,79,102,82,120,83,100,117,67,102,103,84,121,112,101,0
00000d51 78525f70 
00000d55 79546154 
00000d59 664f6570 
00000d5d 64537852 
00000d61 67664375 
00000d65 65707954 
00000d69 00 
00000d6a 01b2       5292 	.data.b	178,1

                                                                      Page 98
                                                              C:\Users\Fengyuan\AppData\Local\Temp\gh_0000kos1.s
00000d6c 0f         5293 	.data.b	15
00000d6d 0f         5294 	.data.b	15
00000d6e 00000000*  5295 	.data.w	.LDW_4b7ea10
                    5296 
                    5297 .LDW_60e4720:
00000d72 2a         5298 	.data.b	42
00000d73 546e6143   5299 	.data.b	67,97,110,84,112,95,83,84,109,105,110,79,102,82,120,83,100,117,67,102,103,84,121,112,101,0
00000d77 54535f70 
00000d7b 4f6e696d 
00000d7f 53785266 
00000d83 66437564 
00000d87 70795467 
00000d8b 0065 
00000d8d 01b8       5300 	.data.b	184,1
00000d8f 0f         5301 	.data.b	15
00000d90 0f         5302 	.data.b	15
00000d91 00000000*  5303 	.data.w	.LDW_4b7ea10
                    5304 
                    5305 .LDW_60e4460:
00000d95 2a         5306 	.data.b	42
00000d96 546e6143   5307 	.data.b	67,97,110,84,112,95,84,120,70,99,80,100,117,67,111,110,102,105,114,109,97,116,105,111,110,80,100,117,73,100,79,102,82,120,83,100,117,67,102,103,84,121,112,101,0
00000d9a 78545f70 
00000d9e 64506346 
00000da2 6e6f4375 
00000da6 6d726966 
00000daa 6f697461 
00000dae 7564506e 
00000db2 664f6449 
00000db6 64537852 
00000dba 67664375 
00000dbe 65707954 
00000dc2 00 
00000dc3 01be       5308 	.data.b	190,1
00000dc5 13         5309 	.data.b	19
00000dc6 0f         5310 	.data.b	15
00000dc7 00000000*  5311 	.data.w	.LDW_5d78d88
                    5312 
                    5313 .LDW_60e4a38:
00000dcb 2a         5314 	.data.b	42
00000dcc 546e6143   5315 	.data.b	67,97,110,84,112,95,84,120,83,100,117,67,102,103,73,100,120,79,102,82,120,83,100,117,67,102,103,84,121,112,101,0
00000dd0 78545f70 
00000dd4 43756453 
00000dd8 64496766 
00000ddc 52664f78 
00000de0 75645378 
00000de4 54676643 
00000de8 00657079 
00000dec 01c1       5316 	.data.b	193,1
00000dee 0f         5317 	.data.b	15
00000def 0f         5318 	.data.b	15
00000df0 00000000*  5319 	.data.w	.LDW_4b7ea10
                    5320 
                    5321 .LDW_60e4ae8:
00000df4 2a         5322 	.data.b	42
00000df5 546e6143   5323 	.data.b	67,97,110,84,112,95,82,120,83,100,117,67,102,103,73,110,100,84,121,112,101,0
00000df9 78525f70 
00000dfd 43756453 
00000e01 6e496766 
00000e05 70795464 
00000e09 0065 
00000e0b 01c7       5324 	.data.b	199,1

                                                                      Page 99
                                                              C:\Users\Fengyuan\AppData\Local\Temp\gh_0000kos1.s
00000e0d 0f         5325 	.data.b	15
00000e0e 0f         5326 	.data.b	15
00000e0f 00000000*  5327 	.data.w	.LDW_4b7ea10
                    5328 
                    5329 .LDW_60e4358:
00000e13 2a         5330 	.data.b	42
00000e14 546e6143   5331 	.data.b	67,97,110,84,112,95,82,120,83,100,117,67,102,103,73,100,120,79,102,82,120,83,100,117,83,110,118,50,72,100,108,84,121,112,101,0
00000e18 78525f70 
00000e1c 43756453 
00000e20 64496766 
00000e24 52664f78 
00000e28 75645378 
00000e2c 32766e53 
00000e30 546c6448 
00000e34 00657079 
00000e38 01ca       5332 	.data.b	202,1
00000e3a 0f         5333 	.data.b	15
00000e3b 0f         5334 	.data.b	15
00000e3c 00000000*  5335 	.data.w	.LDW_4b7ea10
                    5336 
                    5337 .LDW_60e5360:
00000e40 42         5338 	.data.b	66
00000e41 6e614373   5339 	.data.b	115,67,97,110,84,112,95,82,120,80,100,117,77,97,112,84,121,112,101,0
00000e45 525f7054 
00000e49 75645078 
00000e4d 5470614d 
00000e51 00657079 
00000e55 02b9       5340 	.data.b	185,2
00000e57 10         5341 	.data.b	16
00000e58 0f         5342 	.data.b	15
00000e59 04         5343 	.data.b	4
00000e5a 01         5344 	.data.b	1
                    5345 
                    5346 .LDW_60e3cb8:
00000e5b 25         5347 	.data.b	37
00000e5c 64537852   5348 	.data.b	82,120,83,100,117,67,102,103,73,110,100,69,110,100,73,100,120,79,102,82,120,80,100,117,77,97,112,0
00000e60 67664375 
00000e64 45646e49 
00000e68 6449646e 
00000e6c 52664f78 
00000e70 75645078 
00000e74 0070614d 
00000e78 02bb       5349 	.data.b	187,2
00000e7a 29         5350 	.data.b	41
00000e7b 0f         5351 	.data.b	15
00000e7c 00000000*  5352 	.data.w	.LDW_60e4fb8
00000e80 2302       5353 	.data.b	2,35
00000e82 00         5354 	.data.b	0
00000e83 01         5355 	.data.b	1
                    5356 
                    5357 .LDW_60e3d00:
00000e84 25         5358 	.data.b	37
00000e85 64537852   5359 	.data.b	82,120,83,100,117,67,102,103,73,110,100,83,116,97,114,116,73,100,120,79,102,82,120,80,100,117,77,97,112,0
00000e89 67664375 
00000e8d 53646e49 
00000e91 74726174 
00000e95 4f786449 
00000e99 50785266 
00000e9d 614d7564 
00000ea1 0070 
00000ea3 02bc       5360 	.data.b	188,2

                                                                      Page 100
                                                              C:\Users\Fengyuan\AppData\Local\Temp\gh_0000kos1.s
00000ea5 2b         5361 	.data.b	43
00000ea6 0f         5362 	.data.b	15
00000ea7 00000000*  5363 	.data.w	.LDW_60e5010
00000eab 2302       5364 	.data.b	2,35
00000ead 01         5365 	.data.b	1
00000eae 01         5366 	.data.b	1
                    5367 
                    5368 .LDW_60e3dd8:
00000eaf 25         5369 	.data.b	37
00000eb0 64537854   5370 	.data.b	84,120,83,100,117,67,102,103,73,110,100,69,110,100,73,100,120,79,102,82,120,80,100,117,77,97,112,0
00000eb4 67664375 
00000eb8 45646e49 
00000ebc 6449646e 
00000ec0 52664f78 
00000ec4 75645078 
00000ec8 0070614d 
00000ecc 02bd       5371 	.data.b	189,2
00000ece 29         5372 	.data.b	41
00000ecf 0f         5373 	.data.b	15
00000ed0 00000000*  5374 	.data.w	.LDW_60e4b40
00000ed4 2302       5375 	.data.b	2,35
00000ed6 02         5376 	.data.b	2
00000ed7 01         5377 	.data.b	1
                    5378 
                    5379 .LDW_60e3e20:
00000ed8 25         5380 	.data.b	37
00000ed9 64537854   5381 	.data.b	84,120,83,100,117,67,102,103,73,110,100,83,116,97,114,116,73,100,120,79,102,82,120,80,100,117,77,97,112,0
00000edd 67664375 
00000ee1 53646e49 
00000ee5 74726174 
00000ee9 4f786449 
00000eed 50785266 
00000ef1 614d7564 
00000ef5 0070 
00000ef7 02be       5382 	.data.b	190,2
00000ef9 2b         5383 	.data.b	43
00000efa 0f         5384 	.data.b	15
00000efb 00000000*  5385 	.data.w	.LDW_60e47d0
00000eff 2302       5386 	.data.b	2,35
00000f01 03         5387 	.data.b	3
00000f02 01         5388 	.data.b	1
                    5389 
00000f03 00         5390 	.data.b	0
                    5391 
                    5392 .LDW_60e56d0:
00000f04 2a         5393 	.data.b	42
00000f05 546e6143   5394 	.data.b	67,97,110,84,112,95,82,120,80,100,117,77,97,112,84,121,112,101,0
00000f09 78525f70 
00000f0d 4d756450 
00000f11 79547061 
00000f15 006570 
00000f18 02bf       5395 	.data.b	191,2
00000f1a 03         5396 	.data.b	3
00000f1b 0f         5397 	.data.b	15
00000f1c 00000000*  5398 	.data.w	.LDW_60e5360
                    5399 
                    5400 .LDW_60e5518:
00000f20 42         5401 	.data.b	66
00000f21 6e614373   5402 	.data.b	115,67,97,110,84,112,95,82,120,83,100,117,67,102,103,84,121,112,101,0
00000f25 525f7054 
00000f29 75645378 

                                                                      Page 101
                                                              C:\Users\Fengyuan\AppData\Local\Temp\gh_0000kos1.s
00000f2d 54676643 
00000f31 00657079 
00000f35 02c2       5403 	.data.b	194,2
00000f37 10         5404 	.data.b	16
00000f38 0f         5405 	.data.b	15
00000f39 09         5406 	.data.b	9
00000f3a 01         5407 	.data.b	1
                    5408 
                    5409 .LDW_60e3e68:
00000f3b 25         5410 	.data.b	37
00000f3c 496e6143   5411 	.data.b	67,97,110,73,102,84,120,70,99,80,100,117,73,100,79,102,82,120,83,100,117,67,102,103,0
00000f40 46785466 
00000f44 75645063 
00000f48 664f6449 
00000f4c 64537852 
00000f50 67664375 
00000f54 00 
00000f55 02c4       5412 	.data.b	196,2
00000f57 26         5413 	.data.b	38
00000f58 0f         5414 	.data.b	15
00000f59 00000000*  5415 	.data.w	.LDW_60e4148
00000f5d 2302       5416 	.data.b	2,35
00000f5f 00         5417 	.data.b	0
00000f60 01         5418 	.data.b	1
                    5419 
                    5420 .LDW_60e3eb0:
00000f61 25         5421 	.data.b	37
00000f62 52756450   5422 	.data.b	80,100,117,82,82,120,83,100,117,73,100,79,102,82,120,83,100,117,67,102,103,0
00000f66 64537852 
00000f6a 4f644975 
00000f6e 53785266 
00000f72 66437564 
00000f76 0067 
00000f78 02c5       5423 	.data.b	197,2
00000f7a 23         5424 	.data.b	35
00000f7b 0f         5425 	.data.b	15
00000f7c 00000000*  5426 	.data.w	.LDW_60e4930
00000f80 2302       5427 	.data.b	2,35
00000f82 01         5428 	.data.b	1
00000f83 01         5429 	.data.b	1
                    5430 
                    5431 .LDW_60e3f40:
00000f84 25         5432 	.data.b	37
00000f85 64507852   5433 	.data.b	82,120,80,100,117,73,100,79,102,82,120,83,100,117,67,102,103,0
00000f89 4f644975 
00000f8d 53785266 
00000f91 66437564 
00000f95 0067 
00000f97 02c6       5434 	.data.b	198,2
00000f99 1f         5435 	.data.b	31
00000f9a 0f         5436 	.data.b	15
00000f9b 00000000*  5437 	.data.w	.LDW_60e46c8
00000f9f 2302       5438 	.data.b	2,35
00000fa1 02         5439 	.data.b	2
00000fa2 01         5440 	.data.b	1
                    5441 
                    5442 .LDW_60e3f88:
00000fa3 25         5443 	.data.b	37
00000fa4 63467854   5444 	.data.b	84,120,70,99,80,100,117,67,111,110,102,105,114,109,97,116,105,111,110,80,100,117,73,100,79,102,82,120,83,100,117,67,102,103,0
00000fa8 43756450 
00000fac 69666e6f 

                                                                      Page 102
                                                              C:\Users\Fengyuan\AppData\Local\Temp\gh_0000kos1.s
00000fb0 74616d72 
00000fb4 506e6f69 
00000fb8 64497564 
00000fbc 7852664f 
00000fc0 43756453 
00000fc4 006766 
00000fc7 02c7       5445 	.data.b	199,2
00000fc9 30         5446 	.data.b	48
00000fca 0f         5447 	.data.b	15
00000fcb 00000000*  5448 	.data.w	.LDW_60e4460
00000fcf 2302       5449 	.data.b	2,35
00000fd1 03         5450 	.data.b	3
00000fd2 01         5451 	.data.b	1
                    5452 
                    5453 .LDW_60e6f10:
00000fd3 25         5454 	.data.b	37
00000fd4 4f72414e   5455 	.data.b	78,65,114,79,102,82,120,83,100,117,67,102,103,0
00000fd8 53785266 
00000fdc 66437564 
00000fe0 0067 
00000fe2 02c8       5456 	.data.b	200,2
00000fe4 1b         5457 	.data.b	27
00000fe5 0f         5458 	.data.b	15
00000fe6 00000000*  5459 	.data.w	.LDW_60e4b98
00000fea 2302       5460 	.data.b	2,35
00000fec 04         5461 	.data.b	4
00000fed 01         5462 	.data.b	1
                    5463 
                    5464 .LDW_60e6d60:
00000fee 25         5465 	.data.b	37
00000fef 4f72434e   5466 	.data.b	78,67,114,79,102,82,120,83,100,117,67,102,103,0
00000ff3 53785266 
00000ff7 66437564 
00000ffb 0067 
00000ffd 02c9       5467 	.data.b	201,2
00000fff 1b         5468 	.data.b	27
00001000 0f         5469 	.data.b	15
00001001 00000000*  5470 	.data.w	.LDW_60e4510
00001005 2302       5471 	.data.b	2,35
00001007 05         5472 	.data.b	5
00001008 01         5473 	.data.b	1
                    5474 
                    5475 .LDW_60e6da8:
00001009 25         5476 	.data.b	37
0000100a 61547852   5477 	.data.b	82,120,84,97,84,121,112,101,79,102,82,120,83,100,117,67,102,103,0
0000100e 65707954 
00001012 7852664f 
00001016 43756453 
0000101a 006766 
0000101d 02ca       5478 	.data.b	202,2
0000101f 20         5479 	.data.b	32
00001020 0f         5480 	.data.b	15
00001021 00000000*  5481 	.data.w	.LDW_60e4880
00001025 2302       5482 	.data.b	2,35
00001027 06         5483 	.data.b	6
00001028 01         5484 	.data.b	1
                    5485 
                    5486 .LDW_60e6b20:
00001029 25         5487 	.data.b	37
0000102a 696d5453   5488 	.data.b	83,84,109,105,110,79,102,82,120,83,100,117,67,102,103,0
0000102e 52664f6e 

                                                                      Page 103
                                                              C:\Users\Fengyuan\AppData\Local\Temp\gh_0000kos1.s
00001032 75645378 
00001036 00676643 
0000103a 02cb       5489 	.data.b	203,2
0000103c 1d         5490 	.data.b	29
0000103d 0f         5491 	.data.b	15
0000103e 00000000*  5492 	.data.w	.LDW_60e4720
00001042 2302       5493 	.data.b	2,35
00001044 07         5494 	.data.b	7
00001045 01         5495 	.data.b	1
                    5496 
                    5497 .LDW_60e6cd0:
00001046 25         5498 	.data.b	37
00001047 64537854   5499 	.data.b	84,120,83,100,117,67,102,103,73,100,120,79,102,82,120,83,100,117,67,102,103,0
0000104b 67664375 
0000104f 4f786449 
00001053 53785266 
00001057 66437564 
0000105b 0067 
0000105d 02cc       5500 	.data.b	204,2
0000105f 23         5501 	.data.b	35
00001060 0f         5502 	.data.b	15
00001061 00000000*  5503 	.data.w	.LDW_60e4a38
00001065 2302       5504 	.data.b	2,35
00001067 08         5505 	.data.b	8
00001068 01         5506 	.data.b	1
                    5507 
00001069 00         5508 	.data.b	0
                    5509 
                    5510 .LDW_60e5830:
0000106a 2a         5511 	.data.b	42
0000106b 546e6143   5512 	.data.b	67,97,110,84,112,95,82,120,83,100,117,67,102,103,84,121,112,101,0
0000106f 78525f70 
00001073 43756453 
00001077 79546766 
0000107b 006570 
0000107e 02cd       5513 	.data.b	205,2
00001080 03         5514 	.data.b	3
00001081 0f         5515 	.data.b	15
00001082 00000000*  5516 	.data.w	.LDW_60e5518
                    5517 
                    5518 .LDW_60e5938:
00001086 42         5519 	.data.b	66
00001087 6e614373   5520 	.data.b	115,67,97,110,84,112,95,82,120,83,100,117,83,110,118,50,72,100,108,84,121,112,101,0
0000108b 525f7054 
0000108f 75645378 
00001093 32766e53 
00001097 546c6448 
0000109b 00657079 
0000109f 02d0       5521 	.data.b	208,2
000010a1 10         5522 	.data.b	16
000010a2 0f         5523 	.data.b	15
000010a3 01         5524 	.data.b	1
000010a4 01         5525 	.data.b	1
                    5526 
                    5527 .LDW_60e7078:
000010a5 25         5528 	.data.b	37
000010a6 64537852   5529 	.data.b	82,120,83,100,117,67,102,103,73,100,120,79,102,82,120,83,100,117,83,110,118,50,72,100,108,0
000010aa 67664375 
000010ae 4f786449 
000010b2 53785266 
000010b6 6e537564 

                                                                      Page 104
                                                              C:\Users\Fengyuan\AppData\Local\Temp\gh_0000kos1.s
000010ba 64483276 
000010be 006c 
000010c0 02d2       5530 	.data.b	210,2
000010c2 27         5531 	.data.b	39
000010c3 0f         5532 	.data.b	15
000010c4 00000000*  5533 	.data.w	.LDW_60e4358
000010c8 2302       5534 	.data.b	2,35
000010ca 00         5535 	.data.b	0
000010cb 01         5536 	.data.b	1
                    5537 
000010cc 00         5538 	.data.b	0
                    5539 
                    5540 .LDW_60e5990:
000010cd 2a         5541 	.data.b	42
000010ce 546e6143   5542 	.data.b	67,97,110,84,112,95,82,120,83,100,117,83,110,118,50,72,100,108,84,121,112,101,0
000010d2 78525f70 
000010d6 53756453 
000010da 4832766e 
000010de 79546c64 
000010e2 006570 
000010e5 02d3       5543 	.data.b	211,2
000010e7 03         5544 	.data.b	3
000010e8 0f         5545 	.data.b	15
000010e9 00000000*  5546 	.data.w	.LDW_60e5938
                    5547 
                    5548 .LDW_60a1428:
000010ed 42         5549 	.data.b	66
000010ee 6e614373   5550 	.data.b	115,67,97,110,84,112,95,80,67,67,111,110,102,105,103,84,121,112,101,0
000010f2 505f7054 
000010f6 6e6f4343 
000010fa 54676966 
000010fe 00657079 
00001102 02eb       5551 	.data.b	235,2
00001104 10         5552 	.data.b	16
00001105 0f         5553 	.data.b	15
00001106 01         5554 	.data.b	1
00001107 01         5555 	.data.b	1
                    5556 
                    5557 .LDW_60e6df0:
00001108 25         5558 	.data.b	37
00001109 546e6143   5559 	.data.b	67,97,110,84,112,95,80,67,67,111,110,102,105,103,78,101,118,101,114,85,115,101,100,0
0000110d 43505f70 
00001111 666e6f43 
00001115 654e6769 
00001119 55726576 
0000111d 00646573 
00001121 02ed       5560 	.data.b	237,2
00001123 09         5561 	.data.b	9
00001124 0f         5562 	.data.b	15
00001125 00000000*  5563 	.data.w	.LDW_4b7ea10
00001129 2302       5564 	.data.b	2,35
0000112b 00         5565 	.data.b	0
0000112c 01         5566 	.data.b	1
                    5567 
0000112d 00         5568 	.data.b	0
                    5569 
                    5570 .LDW_60a19a8:
0000112e 2a         5571 	.data.b	42
0000112f 546e6143   5572 	.data.b	67,97,110,84,112,95,80,67,67,111,110,102,105,103,84,121,112,101,0
00001133 43505f70 
00001137 666e6f43 

                                                                      Page 105
                                                              C:\Users\Fengyuan\AppData\Local\Temp\gh_0000kos1.s
0000113b 79546769 
0000113f 006570 
00001142 02ee       5573 	.data.b	238,2
00001144 03         5574 	.data.b	3
00001145 0f         5575 	.data.b	15
00001146 00000000*  5576 	.data.w	.LDW_60a1428
                    5577 
                    5578 .LDW_60a1a58:
0000114a 2a         5579 	.data.b	42
0000114b 546e6143   5580 	.data.b	67,97,110,84,112,95,67,111,110,102,105,103,84,121,112,101,0
0000114f 6f435f70 
00001153 6769666e 
00001157 65707954 
0000115b 00 
0000115c 02f0       5581 	.data.b	240,2
0000115e 1c         5582 	.data.b	28
0000115f 0f         5583 	.data.b	15
00001160 00000000*  5584 	.data.w	.LDW_60a19a8
                    5585 
                    5586 .LDW_60f7a60:
00001164 30         5587 	.data.b	48
00001165 00         5588 	.data.b	0
00001166 6c         5589 	.data.b	108
00001167 01         5590 	.data.b	1
00001168 2a         5591 	.data.b	42
00001169 04         5592 	.data.b	4
0000116a 01         5593 	.data.b	1
                    5594 
                    5595 .LDW_60eedc0:
0000116b 2f         5596 	.data.b	47
0000116c 74737953   5597 	.data.b	83,121,115,116,101,109,65,112,112,108,105,99,97,116,105,111,110,95,79,115,67,111,114,101,48,0
00001170 70416d65 
00001174 63696c70 
00001178 6f697461 
0000117c 734f5f6e 
00001180 65726f43 
00001184 0030 
00001186 6d         5598 	.data.b	109
00001187 03         5599 	.data.b	3
00001188 2a         5600 	.data.b	42
00001189 00         5601 	.data.b	0
                    5602 
                    5603 .LDW_60ef000:
0000118a 2f         5604 	.data.b	47
0000118b 415f534f   5605 	.data.b	79,83,95,65,80,80,73,68,95,67,79,85,78,84,0
0000118f 44495050 
00001193 554f435f 
00001197 00544e 
0000119a 6e         5606 	.data.b	110
0000119b 03         5607 	.data.b	3
0000119c 2a         5608 	.data.b	42
0000119d 01         5609 	.data.b	1
                    5610 
                    5611 .LDW_60eee40:
0000119e 2f         5612 	.data.b	47
0000119f 41564e49   5613 	.data.b	73,78,86,65,76,73,68,95,79,83,65,80,80,76,73,67,65,84,73,79,78,0
000011a3 5f44494c 
000011a7 5041534f 
000011ab 43494c50 
000011af 4f495441 
000011b3 004e 

                                                                      Page 106
                                                              C:\Users\Fengyuan\AppData\Local\Temp\gh_0000kos1.s
000011b5 6f         5614 	.data.b	111
000011b6 03         5615 	.data.b	3
000011b7 2a         5616 	.data.b	42
000011b8 01         5617 	.data.b	1
                    5618 
000011b9 00         5619 	.data.b	0
                    5620 
                    5621 .LDW_60f7ab8:
000011ba 2a         5622 	.data.b	42
000011bb 6c707041   5623 	.data.b	65,112,112,108,105,99,97,116,105,111,110,84,121,112,101,0
000011bf 74616369 
000011c3 546e6f69 
000011c7 00657079 
000011cb 70         5624 	.data.b	112
000011cc 03         5625 	.data.b	3
000011cd 2a         5626 	.data.b	42
000011ce 00000000*  5627 	.data.w	.LDW_60f7a60
                    5628 
                    5629 .LDW_60f7a08:
000011d2 30         5630 	.data.b	48
000011d3 00         5631 	.data.b	0
000011d4 0186       5632 	.data.b	134,1
000011d6 01         5633 	.data.b	1
000011d7 2a         5634 	.data.b	42
000011d8 04         5635 	.data.b	4
000011d9 01         5636 	.data.b	1
                    5637 
                    5638 .LDW_60eec80:
000011da 2f         5639 	.data.b	47
000011db 61666544   5640 	.data.b	68,101,102,97,117,108,116,95,73,110,105,116,95,84,97,115,107,0
000011df 5f746c75 
000011e3 74696e49 
000011e7 7361545f 
000011eb 006b 
000011ed 0187       5641 	.data.b	135,1
000011ef 03         5642 	.data.b	3
000011f0 2a         5643 	.data.b	42
000011f1 00         5644 	.data.b	0
                    5645 
                    5646 .LDW_60eec00:
000011f2 2f         5647 	.data.b	47
000011f3 656c6449   5648 	.data.b	73,100,108,101,84,97,115,107,95,79,115,67,111,114,101,48,0
000011f7 6b736154 
000011fb 43734f5f 
000011ff 3065726f 
00001203 00 
00001204 0188       5649 	.data.b	136,1
00001206 03         5650 	.data.b	3
00001207 2a         5651 	.data.b	42
00001208 01         5652 	.data.b	1
                    5653 
                    5654 .LDW_60eeb40:
00001209 2f         5655 	.data.b	47
0000120a 6154734f   5656 	.data.b	79,115,84,97,115,107,95,65,80,80,0
0000120e 415f6b73 
00001212 005050 
00001215 0189       5657 	.data.b	137,1
00001217 03         5658 	.data.b	3
00001218 2a         5659 	.data.b	42
00001219 02         5660 	.data.b	2
                    5661 

                                                                      Page 107
                                                              C:\Users\Fengyuan\AppData\Local\Temp\gh_0000kos1.s
                    5662 .LDW_60eed00:
0000121a 2f         5663 	.data.b	47
0000121b 6154734f   5664 	.data.b	79,115,84,97,115,107,95,66,83,87,95,83,67,72,77,0
0000121f 425f6b73 
00001223 535f5753 
00001227 004d4843 
0000122b 018a       5665 	.data.b	138,1
0000122d 03         5666 	.data.b	3
0000122e 2a         5667 	.data.b	42
0000122f 03         5668 	.data.b	3
                    5669 
                    5670 .LDW_60eed40:
00001230 2f         5671 	.data.b	47
00001231 545f534f   5672 	.data.b	79,83,95,84,65,83,75,73,68,95,67,79,85,78,84,0
00001235 494b5341 
00001239 4f435f44 
0000123d 00544e55 
00001241 018b       5673 	.data.b	139,1
00001243 03         5674 	.data.b	3
00001244 2a         5675 	.data.b	42
00001245 04         5676 	.data.b	4
                    5677 
                    5678 .LDW_60eef40:
00001246 2f         5679 	.data.b	47
00001247 41564e49   5680 	.data.b	73,78,86,65,76,73,68,95,84,65,83,75,0
0000124b 5f44494c 
0000124f 4b534154 
00001253 00 
00001254 018c       5681 	.data.b	140,1
00001256 03         5682 	.data.b	3
00001257 2a         5683 	.data.b	42
00001258 04         5684 	.data.b	4
                    5685 
00001259 00         5686 	.data.b	0
                    5687 
                    5688 .LDW_60f77f8:
0000125a 2a         5689 	.data.b	42
0000125b 6b736154   5690 	.data.b	84,97,115,107,84,121,112,101,0
0000125f 65707954 
00001263 00 
00001264 018d       5691 	.data.b	141,1
00001266 03         5692 	.data.b	3
00001267 2a         5693 	.data.b	42
00001268 00000000*  5694 	.data.w	.LDW_60f7a08
                    5695 
                    5696 .LDW_60f7380:
0000126c 30         5697 	.data.b	48
0000126d 00         5698 	.data.b	0
0000126e 0191       5699 	.data.b	145,1
00001270 01         5700 	.data.b	1
00001271 2a         5701 	.data.b	42
00001272 04         5702 	.data.b	4
00001273 01         5703 	.data.b	1
                    5704 
                    5705 .LDW_60eed80:
00001274 2f         5706 	.data.b	47
00001275 496e6143   5707 	.data.b	67,97,110,73,115,114,95,48,95,66,117,115,79,102,102,0
00001279 305f7273 
0000127d 7375425f 
00001281 0066664f 
00001285 0192       5708 	.data.b	146,1

                                                                      Page 108
                                                              C:\Users\Fengyuan\AppData\Local\Temp\gh_0000kos1.s
00001287 03         5709 	.data.b	3
00001288 2a         5710 	.data.b	42
00001289 00         5711 	.data.b	0
                    5712 
                    5713 .LDW_60eee00:
0000128a 2f         5714 	.data.b	47
0000128b 496e6143   5715 	.data.b	67,97,110,73,115,114,95,48,95,77,66,48,48,84,111,49,53,0
0000128f 305f7273 
00001293 30424d5f 
00001297 316f5430 
0000129b 0035 
0000129d 0193       5716 	.data.b	147,1
0000129f 03         5717 	.data.b	3
000012a0 2a         5718 	.data.b	42
000012a1 01         5719 	.data.b	1
                    5720 
                    5721 .LDW_60eee80:
000012a2 2f         5722 	.data.b	47
000012a3 496e6143   5723 	.data.b	67,97,110,73,115,114,95,48,95,77,66,49,54,84,111,51,49,0
000012a7 305f7273 
000012ab 31424d5f 
000012af 336f5436 
000012b3 0031 
000012b5 0194       5724 	.data.b	148,1
000012b7 03         5725 	.data.b	3
000012b8 2a         5726 	.data.b	42
000012b9 02         5727 	.data.b	2
                    5728 
                    5729 .LDW_60eeb80:
000012ba 2f         5730 	.data.b	47
000012bb 6e756f43   5731 	.data.b	67,111,117,110,116,101,114,73,115,114,95,83,121,115,116,101,109,84,105,109,101,114,0
000012bf 49726574 
000012c3 535f7273 
000012c7 65747379 
000012cb 6d69546d 
000012cf 007265 
000012d2 0195       5732 	.data.b	149,1
000012d4 03         5733 	.data.b	3
000012d5 2a         5734 	.data.b	42
000012d6 03         5735 	.data.b	3
                    5736 
                    5737 .LDW_60eea80:
000012d7 2f         5738 	.data.b	47
000012d8 495f534f   5739 	.data.b	79,83,95,73,83,82,73,68,95,67,79,85,78,84,0
000012dc 44495253 
000012e0 554f435f 
000012e4 00544e 
000012e7 0196       5740 	.data.b	150,1
000012e9 03         5741 	.data.b	3
000012ea 2a         5742 	.data.b	42
000012eb 04         5743 	.data.b	4
                    5744 
                    5745 .LDW_60eeec0:
000012ec 2f         5746 	.data.b	47
000012ed 41564e49   5747 	.data.b	73,78,86,65,76,73,68,95,73,83,82,0
000012f1 5f44494c 
000012f5 00525349 
000012f9 0197       5748 	.data.b	151,1
000012fb 03         5749 	.data.b	3
000012fc 2a         5750 	.data.b	42
000012fd 04         5751 	.data.b	4

                                                                      Page 109
                                                              C:\Users\Fengyuan\AppData\Local\Temp\gh_0000kos1.s
                    5752 
000012fe 00         5753 	.data.b	0
                    5754 
                    5755 .LDW_60f73d8:
000012ff 2a         5756 	.data.b	42
00001300 54525349   5757 	.data.b	73,83,82,84,121,112,101,0
00001304 00657079 
00001308 0198       5758 	.data.b	152,1
0000130a 03         5759 	.data.b	3
0000130b 2a         5760 	.data.b	42
0000130c 00000000*  5761 	.data.w	.LDW_60f7380
                    5762 
                    5763 .LDW_60f7748:
00001310 30         5764 	.data.b	48
00001311 00         5765 	.data.b	0
00001312 01bb       5766 	.data.b	187,1
00001314 01         5767 	.data.b	1
00001315 2a         5768 	.data.b	42
00001316 04         5769 	.data.b	4
00001317 01         5770 	.data.b	1
                    5771 
                    5772 .LDW_60ee980:
00001318 2f         5773 	.data.b	47
00001319 535f534f   5774 	.data.b	79,83,95,83,80,73,78,76,79,67,75,73,68,95,67,79,85,78,84,0
0000131d 4c4e4950 
00001321 494b434f 
00001325 4f435f44 
00001329 00544e55 
0000132d 01bc       5775 	.data.b	188,1
0000132f 03         5776 	.data.b	3
00001330 2a         5777 	.data.b	42
00001331 00         5778 	.data.b	0
                    5779 
                    5780 .LDW_60eec40:
00001332 2f         5781 	.data.b	47
00001333 41564e49   5782 	.data.b	73,78,86,65,76,73,68,95,83,80,73,78,76,79,67,75,0
00001337 5f44494c 
0000133b 4e495053 
0000133f 4b434f4c 
00001343 00 
00001344 01bd       5783 	.data.b	189,1
00001346 03         5784 	.data.b	3
00001347 2a         5785 	.data.b	42
00001348 00         5786 	.data.b	0
                    5787 
00001349 00         5788 	.data.b	0
                    5789 
                    5790 .LDW_60f76f0:
0000134a 2a         5791 	.data.b	42
0000134b 6e697053   5792 	.data.b	83,112,105,110,108,111,99,107,73,100,84,121,112,101,0
0000134f 6b636f6c 
00001353 79546449 
00001357 006570 
0000135a 01be       5793 	.data.b	190,1
0000135c 03         5794 	.data.b	3
0000135d 2a         5795 	.data.b	42
0000135e 00000000*  5796 	.data.w	.LDW_60f7748
                    5797 
                    5798 .LDW_60f79b0:
00001362 30         5799 	.data.b	48
00001363 00         5800 	.data.b	0

                                                                      Page 110
                                                              C:\Users\Fengyuan\AppData\Local\Temp\gh_0000kos1.s
00001364 01ce       5801 	.data.b	206,1
00001366 01         5802 	.data.b	1
00001367 2a         5803 	.data.b	42
00001368 04         5804 	.data.b	4
00001369 01         5805 	.data.b	1
                    5806 
                    5807 .LDW_60f97f8:
0000136a 2f         5808 	.data.b	47
0000136b 545f534f   5809 	.data.b	79,83,95,84,82,65,67,69,95,84,72,82,69,65,68,73,68,95,67,79,85,78,84,0
0000136f 45434152 
00001373 5248545f 
00001377 49444145 
0000137b 4f435f44 
0000137f 00544e55 
00001383 01cf       5810 	.data.b	207,1
00001385 03         5811 	.data.b	3
00001386 2a         5812 	.data.b	42
00001387 00         5813 	.data.b	0
                    5814 
                    5815 .LDW_60f95b8:
00001388 2f         5816 	.data.b	47
00001389 545f534f   5817 	.data.b	79,83,95,84,82,65,67,69,95,73,78,86,65,76,73,68,95,84,72,82,69,65,68,0
0000138d 45434152 
00001391 564e495f 
00001395 44494c41 
00001399 5248545f 
0000139d 00444145 
000013a1 01d0       5818 	.data.b	208,1
000013a3 03         5819 	.data.b	3
000013a4 2a         5820 	.data.b	42
000013a5 01         5821 	.data.b	1
                    5822 
000013a6 00         5823 	.data.b	0
                    5824 
                    5825 .LDW_60f71c8:
000013a7 2a         5826 	.data.b	42
000013a8 545f734f   5827 	.data.b	79,115,95,84,114,97,99,101,84,104,114,101,97,100,73,100,84,121,112,101,0
000013ac 65636172 
000013b0 65726854 
000013b4 64496461 
000013b8 65707954 
000013bc 00 
000013bd 01d1       5828 	.data.b	209,1
000013bf 03         5829 	.data.b	3
000013c0 2a         5830 	.data.b	42
000013c1 00000000*  5831 	.data.w	.LDW_60f79b0
                    5832 
                    5833 .LDW_60f7220:
000013c5 30         5834 	.data.b	48
000013c6 00         5835 	.data.b	0
000013c7 01d5       5836 	.data.b	213,1
000013c9 01         5837 	.data.b	1
000013ca 2a         5838 	.data.b	42
000013cb 04         5839 	.data.b	4
000013cc 01         5840 	.data.b	1
                    5841 
                    5842 .LDW_60f9578:
000013cd 2f         5843 	.data.b	47
000013ce 545f534f   5844 	.data.b	79,83,95,84,82,65,67,69,95,78,85,77,66,69,82,95,79,70,95,67,79,78,70,73,71,85,82,69,68,95,83,80,73,78,76,79,67,75,83,0
000013d2 45434152 
000013d6 4d554e5f 

                                                                      Page 111
                                                              C:\Users\Fengyuan\AppData\Local\Temp\gh_0000kos1.s
000013da 5f524542 
000013de 435f464f 
000013e2 49464e4f 
000013e6 45525547 
000013ea 50535f44 
000013ee 4f4c4e49 
000013f2 00534b43 
000013f6 01d6       5845 	.data.b	214,1
000013f8 03         5846 	.data.b	3
000013f9 2a         5847 	.data.b	42
000013fa 00         5848 	.data.b	0
                    5849 
                    5850 .LDW_60f9838:
000013fb 2f         5851 	.data.b	47
000013fc 545f534f   5852 	.data.b	79,83,95,84,82,65,67,69,95,78,85,77,66,69,82,95,79,70,95,65,76,76,95,83,80,73,78,76,79,67,75,83,0
00001400 45434152 
00001404 4d554e5f 
00001408 5f524542 
0000140c 415f464f 
00001410 535f4c4c 
00001414 4c4e4950 
00001418 534b434f 
0000141c 00 
0000141d 01d7       5853 	.data.b	215,1
0000141f 03         5854 	.data.b	3
00001420 2a         5855 	.data.b	42
00001421 00         5856 	.data.b	0
                    5857 
                    5858 .LDW_60f9878:
00001422 2f         5859 	.data.b	47
00001423 545f534f   5860 	.data.b	79,83,95,84,82,65,67,69,95,73,78,86,65,76,73,68,95,83,80,73,78,76,79,67,75,0
00001427 45434152 
0000142b 564e495f 
0000142f 44494c41 
00001433 4950535f 
00001437 434f4c4e 
0000143b 004b 
0000143d 01d8       5861 	.data.b	216,1
0000143f 03         5862 	.data.b	3
00001440 2a         5863 	.data.b	42
00001441 01         5864 	.data.b	1
                    5865 
00001442 00         5866 	.data.b	0
                    5867 
                    5868 .LDW_60f7278:
00001443 2a         5869 	.data.b	42
00001444 545f734f   5870 	.data.b	79,115,95,84,114,97,99,101,83,112,105,110,108,111,99,107,73,100,84,121,112,101,0
00001448 65636172 
0000144c 6e697053 
00001450 6b636f6c 
00001454 79546449 
00001458 006570 
0000145b 01d9       5871 	.data.b	217,1
0000145d 03         5872 	.data.b	3
0000145e 2a         5873 	.data.b	42
0000145f 00000000*  5874 	.data.w	.LDW_60f7220
                    5875 
                    5876 .LDW_5d78bd0:
00001463 2a         5877 	.data.b	42
00001464 546e6143   5878 	.data.b	67,97,110,84,112,95,67,97,110,84,121,112,101,0
00001468 61435f70 

                                                                      Page 112
                                                              C:\Users\Fengyuan\AppData\Local\Temp\gh_0000kos1.s
0000146c 7079546e 
00001470 0065 
00001472 04b3       5879 	.data.b	179,4
00001474 32         5880 	.data.b	50
00001475 33         5881 	.data.b	51
00001476 00000000*  5882 	.data.w	.LDW_4b7ea10
                    5883 
                    5884 .LDW_6070300:
0000147a 2a         5885 	.data.b	42
0000147b 546e6143   5886 	.data.b	67,97,110,84,112,95,84,120,82,101,115,117,108,116,84,121,112,101,0
0000147f 78545f70 
00001483 75736552 
00001487 7954746c 
0000148b 006570 
0000148e 04b6       5887 	.data.b	182,4
00001490 32         5888 	.data.b	50
00001491 33         5889 	.data.b	51
00001492 00000000*  5890 	.data.w	.LDW_4b7ea10
                    5891 
                    5892 .LDW_6070098:
00001496 2a         5893 	.data.b	42
00001497 546e6143   5894 	.data.b	67,97,110,84,112,95,82,101,115,101,116,67,111,110,116,114,111,108,84,121,112,101,0
0000149b 65525f70 
0000149f 43746573 
000014a3 72746e6f 
000014a7 79546c6f 
000014ab 006570 
000014ae 04bc       5895 	.data.b	188,4
000014b0 32         5896 	.data.b	50
000014b1 33         5897 	.data.b	51
000014b2 00000000*  5898 	.data.w	.LDW_4b7ea10
                    5899 
                    5900 .LDW_6070a38:
000014b6 42         5901 	.data.b	66
000014b7 6e614373   5902 	.data.b	115,67,97,110,84,112,95,80,100,117,84,120,73,110,102,111,84,121,112,101,0
000014bb 505f7054 
000014bf 78547564 
000014c3 6f666e49 
000014c7 65707954 
000014cb 00 
000014cc 04c1       5903 	.data.b	193,4
000014ce 10         5904 	.data.b	16
000014cf 33         5905 	.data.b	51
000014d0 05         5906 	.data.b	5
000014d1 01         5907 	.data.b	1
                    5908 
                    5909 .LDW_60f5ef0:
000014d2 25         5910 	.data.b	37
000014d3 44756453   5911 	.data.b	83,100,117,68,105,114,101,99,116,105,111,110,0
000014d7 63657269 
000014db 6e6f6974 
000014df 00 
000014e0 04c3       5912 	.data.b	195,4
000014e2 1a         5913 	.data.b	26
000014e3 33         5914 	.data.b	51
000014e4 00000000*  5915 	.data.w	.LDW_60a1d18
000014e8 2302       5916 	.data.b	2,35
000014ea 00         5917 	.data.b	0
000014eb 01         5918 	.data.b	1
                    5919 
                    5920 .LDW_60f6058:

                                                                      Page 113
                                                              C:\Users\Fengyuan\AppData\Local\Temp\gh_0000kos1.s
000014ec 25         5921 	.data.b	37
000014ed 48756453   5922 	.data.b	83,100,117,72,100,108,0
000014f1 006c64 
000014f4 04c4       5923 	.data.b	196,4
000014f6 1a         5924 	.data.b	26
000014f7 33         5925 	.data.b	51
000014f8 00000000*  5926 	.data.w	.LDW_5d78d88
000014fc 2302       5927 	.data.b	2,35
000014fe 01         5928 	.data.b	1
000014ff 01         5929 	.data.b	1
                    5930 
                    5931 .LDW_60f60a0:
00001500 25         5932 	.data.b	37
00001501 64507854   5933 	.data.b	84,120,80,100,117,73,100,0
00001505 00644975 
00001509 04c5       5934 	.data.b	197,4
0000150b 1a         5935 	.data.b	26
0000150c 33         5936 	.data.b	51
0000150d 00000000*  5937 	.data.w	.LDW_5d78d88
00001511 2302       5938 	.data.b	2,35
00001513 02         5939 	.data.b	2
00001514 01         5940 	.data.b	1
                    5941 
                    5942 .LDW_60f6718:
00001515 25         5943 	.data.b	37
00001516 6f437854   5944 	.data.b	84,120,67,111,110,102,80,100,117,73,100,0
0000151a 6450666e 
0000151e 00644975 
00001522 04c6       5945 	.data.b	198,4
00001524 1a         5946 	.data.b	26
00001525 33         5947 	.data.b	51
00001526 00000000*  5948 	.data.w	.LDW_5d78d88
0000152a 2302       5949 	.data.b	2,35
0000152c 03         5950 	.data.b	3
0000152d 01         5951 	.data.b	1
                    5952 
                    5953 .LDW_60f6a78:
0000152e 25         5954 	.data.b	37
0000152f 64646150   5955 	.data.b	80,97,100,100,105,110,103,76,101,110,103,116,104,0
00001533 4c676e69 
00001537 74676e65 
0000153b 0068 
0000153d 04c8       5956 	.data.b	200,4
0000153f 1a         5957 	.data.b	26
00001540 33         5958 	.data.b	51
00001541 00000000*  5959 	.data.w	.LDW_4b7ea10
00001545 2302       5960 	.data.b	2,35
00001547 04         5961 	.data.b	4
00001548 01         5962 	.data.b	1
                    5963 
00001549 00         5964 	.data.b	0
                    5965 
                    5966 .LDW_60707d0:
0000154a 2a         5967 	.data.b	42
0000154b 546e6143   5968 	.data.b	67,97,110,84,112,95,80,100,117,84,120,73,110,102,111,84,121,112,101,0
0000154f 64505f70 
00001553 49785475 
00001557 546f666e 
0000155b 00657079 
0000155f 04ca       5969 	.data.b	202,4
00001561 03         5970 	.data.b	3

                                                                      Page 114
                                                              C:\Users\Fengyuan\AppData\Local\Temp\gh_0000kos1.s
00001562 33         5971 	.data.b	51
00001563 00000000*  5972 	.data.w	.LDW_6070a38
                    5973 
                    5974 .LDW_60fef38:
00001567 07         5975 	.data.b	7
00001568 546e6143   5976 	.data.b	67,97,110,84,112,95,82,120,80,100,117,77,97,112,0
0000156c 78525f70 
00001570 4d756450 
00001574 007061 
00001577 0394       5977 	.data.b	148,3
00001579 2f         5978 	.data.b	47
0000157a 0f         5979 	.data.b	15
0000157b 00000000*  5980 	.data.w	.LDW_60ed120
0000157f 01         5981 	.data.b	1
00001580 01         5982 	.data.b	1
                    5983 
                    5984 	.section	.debug_abbrev
000000ca 07         5985 	.data.b	7
000000cb 34         5986 	.data.b	52
000000cc 00         5987 	.data.b	0
000000cd 0803       5988 	.data.b	3,8
000000cf 0f3b       5989 	.data.b	59,15
000000d1 0f39       5990 	.data.b	57,15
000000d3 0f3a       5991 	.data.b	58,15
000000d5 1049       5992 	.data.b	73,16
000000d7 0c3f       5993 	.data.b	63,12
000000d9 0c3c       5994 	.data.b	60,12
000000db 0000       5995 	.data.b	0,0
                    5996 
                    5997 	.section	.debug_info
                    5998 .LDW_60fe858:
00001581 07         5999 	.data.b	7
00001582 546e6143   6000 	.data.b	67,97,110,84,112,95,82,120,83,100,117,67,102,103,0
00001586 78525f70 
0000158a 43756453 
0000158e 006766 
00001591 03af       6001 	.data.b	175,3
00001593 2f         6002 	.data.b	47
00001594 0f         6003 	.data.b	15
00001595 00000000*  6004 	.data.w	.LDW_60ed450
00001599 01         6005 	.data.b	1
0000159a 01         6006 	.data.b	1
                    6007 
                    6008 .LDW_60fef90:
0000159b 07         6009 	.data.b	7
0000159c 546e6143   6010 	.data.b	67,97,110,84,112,95,82,120,83,100,117,67,102,103,73,110,100,0
000015a0 78525f70 
000015a4 43756453 
000015a8 6e496766 
000015ac 0064 
000015ae 03c0       6011 	.data.b	192,3
000015b0 32         6012 	.data.b	50
000015b1 0f         6013 	.data.b	15
000015b2 00000000*  6014 	.data.w	.LDW_60ecac0
000015b6 01         6015 	.data.b	1
000015b7 01         6016 	.data.b	1
                    6017 
                    6018 .LDW_60febc8:
000015b8 07         6019 	.data.b	7
000015b9 546e6143   6020 	.data.b	67,97,110,84,112,95,82,120,83,100,117,83,110,118,50,72,100,108,0
000015bd 78525f70 

                                                                      Page 115
                                                              C:\Users\Fengyuan\AppData\Local\Temp\gh_0000kos1.s
000015c1 53756453 
000015c5 4832766e 
000015c9 006c64 
000015cc 03d3       6021 	.data.b	211,3
000015ce 33         6022 	.data.b	51
000015cf 0f         6023 	.data.b	15
000015d0 00000000*  6024 	.data.w	.LDW_60ecb48
000015d4 01         6025 	.data.b	1
000015d5 01         6026 	.data.b	1
                    6027 
                    6028 .LDW_60fec20:
000015d6 07         6029 	.data.b	7
000015d7 546e6143   6030 	.data.b	67,97,110,84,112,95,67,97,108,99,66,83,0
000015db 61435f70 
000015df 5342636c 
000015e3 00 
000015e4 03e0       6031 	.data.b	224,3
000015e6 30         6032 	.data.b	48
000015e7 0f         6033 	.data.b	15
000015e8 00000000*  6034 	.data.w	.LDW_60ed1a8
000015ec 01         6035 	.data.b	1
000015ed 01         6036 	.data.b	1
                    6037 
                    6038 .LDW_60fecd0:
000015ee 07         6039 	.data.b	7
000015ef 546e6143   6040 	.data.b	67,97,110,84,112,95,82,120,83,116,97,116,101,0
000015f3 78525f70 
000015f7 74617453 
000015fb 0065 
000015fd 03ed       6041 	.data.b	237,3
000015ff 31         6042 	.data.b	49
00001600 0f         6043 	.data.b	15
00001601 00000000*  6044 	.data.w	.LDW_60ed230
00001605 01         6045 	.data.b	1
00001606 01         6046 	.data.b	1
                    6047 
                    6048 .LDW_60feee0:
00001607 07         6049 	.data.b	7
00001608 546e6143   6050 	.data.b	67,97,110,84,112,95,84,120,83,101,109,97,112,104,111,114,101,115,0
0000160c 78545f70 
00001610 616d6553 
00001614 726f6870 
00001618 007365 
0000161b 03fa       6051 	.data.b	250,3
0000161d 35         6052 	.data.b	53
0000161e 0f         6053 	.data.b	15
0000161f 00000000*  6054 	.data.w	.LDW_60ed560
00001623 01         6055 	.data.b	1
00001624 01         6056 	.data.b	1
                    6057 
                    6058 .LDW_60ff040:
00001625 07         6059 	.data.b	7
00001626 546e6143   6060 	.data.b	67,97,110,84,112,95,84,120,83,116,97,116,101,0
0000162a 78545f70 
0000162e 74617453 
00001632 0065 
00001634 0487       6061 	.data.b	135,4
00001636 31         6062 	.data.b	49
00001637 0f         6063 	.data.b	15
00001638 00000000*  6064 	.data.w	.LDW_6109ef0
0000163c 01         6065 	.data.b	1

                                                                      Page 116
                                                              C:\Users\Fengyuan\AppData\Local\Temp\gh_0000kos1.s
0000163d 01         6066 	.data.b	1
                    6067 
                    6068 .LDW_6100698:
0000163e 06         6069 	.data.b	6
0000163f 546e6143   6070 	.data.b	67,97,110,84,112,95,73,110,105,116,83,116,97,116,101,0
00001643 6e495f70 
00001647 74537469 
0000164b 00657461 
0000164f 02c1       6071 	.data.b	193,2
00001651 37         6072 	.data.b	55
00001652 01         6073 	.data.b	1
00001653 00000000*  6074 	.data.w	.LDW_60e25b0
00001657 00         6075 	.data.b	0
00001658 00         6076 	.data.b	0
00001659 0305       6077 	.data.b	5,3
0000165b 00000000*  6078 	.data.w	CanTp_InitState..C.3A.5CVector.5CCBD1800257_D01_S32K1xx.5CApplications.5CS32K144_Start_new.5CAppl.5Cobj.5CCanTp.
                    6079 
                    6080 	.section	.debug_abbrev
000000dd 06         6081 	.data.b	6
000000de 34         6082 	.data.b	52
000000df 00         6083 	.data.b	0
000000e0 0803       6084 	.data.b	3,8
000000e2 0f3b       6085 	.data.b	59,15
000000e4 0f39       6086 	.data.b	57,15
000000e6 0f3a       6087 	.data.b	58,15
000000e8 1049       6088 	.data.b	73,16
000000ea 0c3f       6089 	.data.b	63,12
000000ec 0c3c       6090 	.data.b	60,12
000000ee 0a02       6091 	.data.b	2,10
000000f0 0000       6092 	.data.b	0,0
                    6093 
                    6094 	.section	.debug_info
                    6095 .LDW_606f5e0:
0000165f 17         6096 	.data.b	23
00001660 52756450   6097 	.data.b	80,100,117,82,95,67,97,110,84,112,82,120,73,110,100,105,99,97,116,105,111,110,0
00001664 6e61435f 
00001668 78527054 
0000166c 69646e49 
00001670 69746163 
00001674 006e6f 
00001677 59         6098 	.data.b	89
00001678 17         6099 	.data.b	23
00001679 13         6100 	.data.b	19
0000167a 01         6101 	.data.b	1
0000167b 00         6102 	.data.b	0
0000167c 01         6103 	.data.b	1
0000167d 01         6104 	.data.b	1
0000167e 00         6105 	.data.b	0
0000167f 01         6106 	.data.b	1
                    6107 
                    6108 	.section	.debug_abbrev
000000f2 17         6109 	.data.b	23
000000f3 2e         6110 	.data.b	46
000000f4 01         6111 	.data.b	1
000000f5 0803       6112 	.data.b	3,8
000000f7 0f3b       6113 	.data.b	59,15
000000f9 0f39       6114 	.data.b	57,15
000000fb 0f3a       6115 	.data.b	58,15
000000fd 0c3c       6116 	.data.b	60,12
000000ff 0b20       6117 	.data.b	32,11
00000101 0c3f       6118 	.data.b	63,12

                                                                      Page 117
                                                              C:\Users\Fengyuan\AppData\Local\Temp\gh_0000kos1.s
00000103 0b32       6119 	.data.b	50,11
00000105 0b4c       6120 	.data.b	76,11
00000107 0c27       6121 	.data.b	39,12
00000109 0000       6122 	.data.b	0,0
                    6123 
                    6124 	.section	.debug_info
00001680 00         6125 	.data.b	0
                    6126 
                    6127 .LDW_610c4b0:
00001681 17         6128 	.data.b	23
00001682 52756450   6129 	.data.b	80,100,117,82,95,67,97,110,84,112,84,120,67,111,110,102,105,114,109,97,116,105,111,110,0
00001686 6e61435f 
0000168a 78547054 
0000168e 666e6f43 
00001692 616d7269 
00001696 6e6f6974 
0000169a 00 
0000169b 72         6130 	.data.b	114
0000169c 17         6131 	.data.b	23
0000169d 13         6132 	.data.b	19
0000169e 01         6133 	.data.b	1
0000169f 00         6134 	.data.b	0
000016a0 01         6135 	.data.b	1
000016a1 01         6136 	.data.b	1
000016a2 00         6137 	.data.b	0
000016a3 01         6138 	.data.b	1
                    6139 
000016a4 00         6140 	.data.b	0
                    6141 
                    6142 .LDW_610caa0:
000016a5 18         6143 	.data.b	24
000016a6 52756450   6144 	.data.b	80,100,117,82,95,67,97,110,84,112,83,116,97,114,116,79,102,82,101,99,101,112,116,105,111,110,0
000016aa 6e61435f 
000016ae 74537054 
000016b2 4f747261 
000016b6 63655266 
000016ba 69747065 
000016be 006e6f 
000016c1 0192       6145 	.data.b	146,1
000016c3 24         6146 	.data.b	36
000016c4 13         6147 	.data.b	19
000016c5 00000000*  6148 	.data.w	.LDW_60e26b8
000016c9 01         6149 	.data.b	1
000016ca 00         6150 	.data.b	0
000016cb 01         6151 	.data.b	1
000016cc 01         6152 	.data.b	1
000016cd 00         6153 	.data.b	0
000016ce 01         6154 	.data.b	1
                    6155 
                    6156 	.section	.debug_abbrev
0000010b 18         6157 	.data.b	24
0000010c 2e         6158 	.data.b	46
0000010d 01         6159 	.data.b	1
0000010e 0803       6160 	.data.b	3,8
00000110 0f3b       6161 	.data.b	59,15
00000112 0f39       6162 	.data.b	57,15
00000114 0f3a       6163 	.data.b	58,15
00000116 1049       6164 	.data.b	73,16
00000118 0c3c       6165 	.data.b	60,12
0000011a 0b20       6166 	.data.b	32,11
0000011c 0c3f       6167 	.data.b	63,12

                                                                      Page 118
                                                              C:\Users\Fengyuan\AppData\Local\Temp\gh_0000kos1.s
0000011e 0b32       6168 	.data.b	50,11
00000120 0b4c       6169 	.data.b	76,11
00000122 0c27       6170 	.data.b	39,12
00000124 0000       6171 	.data.b	0,0
                    6172 
                    6173 	.section	.debug_info
000016cf 00         6174 	.data.b	0
                    6175 
                    6176 .LDW_610cf60:
000016d0 18         6177 	.data.b	24
000016d1 52756450   6178 	.data.b	80,100,117,82,95,67,97,110,84,112,67,111,112,121,82,120,68,97,116,97,0
000016d5 6e61435f 
000016d9 6f437054 
000016dd 78527970 
000016e1 61746144 
000016e5 00 
000016e6 01b5       6179 	.data.b	181,1
000016e8 24         6180 	.data.b	36
000016e9 13         6181 	.data.b	19
000016ea 00000000*  6182 	.data.w	.LDW_60e26b8
000016ee 01         6183 	.data.b	1
000016ef 00         6184 	.data.b	0
000016f0 01         6185 	.data.b	1
000016f1 01         6186 	.data.b	1
000016f2 00         6187 	.data.b	0
000016f3 01         6188 	.data.b	1
                    6189 
000016f4 00         6190 	.data.b	0
                    6191 
                    6192 .LDW_610c8d8:
000016f5 18         6193 	.data.b	24
000016f6 52756450   6194 	.data.b	80,100,117,82,95,67,97,110,84,112,67,111,112,121,84,120,68,97,116,97,0
000016fa 6e61435f 
000016fe 6f437054 
00001702 78547970 
00001706 61746144 
0000170a 00 
0000170b 01db       6195 	.data.b	219,1
0000170d 24         6196 	.data.b	36
0000170e 13         6197 	.data.b	19
0000170f 00000000*  6198 	.data.w	.LDW_60e26b8
00001713 01         6199 	.data.b	1
00001714 00         6200 	.data.b	0
00001715 01         6201 	.data.b	1
00001716 01         6202 	.data.b	1
00001717 00         6203 	.data.b	0
00001718 01         6204 	.data.b	1
                    6205 
00001719 00         6206 	.data.b	0
                    6207 
                    6208 .LDW_610c380:
0000171a 18         6209 	.data.b	24
0000171b 496e6143   6210 	.data.b	67,97,110,73,102,95,84,114,97,110,115,109,105,116,0
0000171f 72545f66 
00001723 6d736e61 
00001727 007469 
0000172a 02bd       6211 	.data.b	189,2
0000172c 22         6212 	.data.b	34
0000172d 16         6213 	.data.b	22
0000172e 00000000*  6214 	.data.w	.LDW_5ed0768
00001732 01         6215 	.data.b	1

                                                                      Page 119
                                                              C:\Users\Fengyuan\AppData\Local\Temp\gh_0000kos1.s
00001733 00         6216 	.data.b	0
00001734 01         6217 	.data.b	1
00001735 01         6218 	.data.b	1
00001736 00         6219 	.data.b	0
00001737 01         6220 	.data.b	1
                    6221 
00001738 00         6222 	.data.b	0
                    6223 
                    6224 .LDW_610f7c0:
00001739 17         6225 	.data.b	23
0000173a 70737553   6226 	.data.b	83,117,115,112,101,110,100,65,108,108,73,110,116,101,114,114,117,112,116,115,0
0000173e 41646e65 
00001742 6e496c6c 
00001746 72726574 
0000174a 73747075 
0000174e 00 
0000174f 0a97       6227 	.data.b	151,10
00001751 15         6228 	.data.b	21
00001752 24         6229 	.data.b	36
00001753 01         6230 	.data.b	1
00001754 00         6231 	.data.b	0
00001755 01         6232 	.data.b	1
00001756 01         6233 	.data.b	1
00001757 00         6234 	.data.b	0
00001758 01         6235 	.data.b	1
                    6236 
00001759 00         6237 	.data.b	0
                    6238 
                    6239 .LDW_610f858:
0000175a 17         6240 	.data.b	23
0000175b 75736552   6241 	.data.b	82,101,115,117,109,101,65,108,108,73,110,116,101,114,114,117,112,116,115,0
0000175f 6c41656d 
00001763 746e496c 
00001767 75727265 
0000176b 00737470 
0000176f 0aaa       6242 	.data.b	170,10
00001771 15         6243 	.data.b	21
00001772 24         6244 	.data.b	36
00001773 01         6245 	.data.b	1
00001774 00         6246 	.data.b	0
00001775 01         6247 	.data.b	1
00001776 01         6248 	.data.b	1
00001777 00         6249 	.data.b	0
00001778 01         6250 	.data.b	1
                    6251 
00001779 00         6252 	.data.b	0
                    6253 
                    6254 .LDW_6118d98:
0000177a 18         6255 	.data.b	24
0000177b 5f746544   6256 	.data.b	68,101,116,95,82,101,112,111,114,116,69,114,114,111,114,0
0000177f 6f706552 
00001783 72457472 
00001787 00726f72 
0000178b 0296       6257 	.data.b	150,2
0000178d 20         6258 	.data.b	32
0000178e 31         6259 	.data.b	49
0000178f 00000000*  6260 	.data.w	.LDW_5ed0768
00001793 01         6261 	.data.b	1
00001794 00         6262 	.data.b	0
00001795 01         6263 	.data.b	1
00001796 01         6264 	.data.b	1

                                                                      Page 120
                                                              C:\Users\Fengyuan\AppData\Local\Temp\gh_0000kos1.s
00001797 00         6265 	.data.b	0
00001798 01         6266 	.data.b	1
                    6267 
00001799 00         6268 	.data.b	0
                    6269 
                    6270 .LDW_4b7a178:
0000179a 17         6271 	.data.b	23
0000179b 546e6143   6272 	.data.b	67,97,110,84,112,95,85,116,105,108,95,77,101,109,67,112,121,0
0000179f 74555f70 
000017a3 4d5f6c69 
000017a7 70436d65 
000017ab 0079 
000017ad 0881       6273 	.data.b	129,8
000017af 2b         6274 	.data.b	43
000017b0 01         6275 	.data.b	1
000017b1 00         6276 	.data.b	0
000017b2 03         6277 	.data.b	3
000017b3 00         6278 	.data.b	0
000017b4 01         6279 	.data.b	1
000017b5 00         6280 	.data.b	0
000017b6 01         6281 	.data.b	1
                    6282 
                    6283 .LDW_4b7a210:
000017b7 12         6284 	.data.b	18
000017b8 73654470   6285 	.data.b	112,68,101,115,116,0
000017bc 0074 
000017be 0881       6286 	.data.b	129,8
000017c0 66         6287 	.data.b	102
000017c1 01         6288 	.data.b	1
000017c2 00000000*  6289 	.data.w	.LDW_4b4d128
000017c6 00         6290 	.data.b	0
                    6291 
                    6292 	.section	.debug_abbrev
00000126 12         6293 	.data.b	18
00000127 05         6294 	.data.b	5
00000128 00         6295 	.data.b	0
00000129 0803       6296 	.data.b	3,8
0000012b 0f3b       6297 	.data.b	59,15
0000012d 0f39       6298 	.data.b	57,15
0000012f 0f3a       6299 	.data.b	58,15
00000131 1049       6300 	.data.b	73,16
00000133 0c4b       6301 	.data.b	75,12
00000135 0000       6302 	.data.b	0,0
                    6303 
                    6304 	.section	.debug_info
                    6305 .LDW_4b7a268:
000017c7 12         6306 	.data.b	18
000017c8 63725370   6307 	.data.b	112,83,114,99,0
000017cc 00 
000017cd 0882       6308 	.data.b	130,8
000017cf 68         6309 	.data.b	104
000017d0 01         6310 	.data.b	1
000017d1 00000000*  6311 	.data.w	.LDW_4b4d160
000017d5 00         6312 	.data.b	0
                    6313 
                    6314 .LDW_4b7a2c0:
000017d6 12         6315 	.data.b	18
000017d7 6e756f43   6316 	.data.b	67,111,117,110,116,0
000017db 0074 
000017dd 0883       6317 	.data.b	131,8
000017df 44         6318 	.data.b	68

                                                                      Page 121
                                                              C:\Users\Fengyuan\AppData\Local\Temp\gh_0000kos1.s
000017e0 01         6319 	.data.b	1
000017e1 00000000*  6320 	.data.w	.LDW_4b7a120
000017e5 00         6321 	.data.b	0
                    6322 
                    6323 .LDW_4b30648:
000017e6 22         6324 	.data.b	34
                    6325 
                    6326 	.section	.debug_abbrev
00000137 22         6327 	.data.b	34
00000138 0b         6328 	.data.b	11
00000139 01         6329 	.data.b	1
0000013a 0000       6330 	.data.b	0,0
                    6331 
                    6332 	.section	.debug_info
000017e7 00         6333 	.data.b	0
                    6334 
000017e8 00         6335 	.data.b	0
                    6336 
                    6337 .LDW_4b7a3c8:
000017e9 18         6338 	.data.b	24
000017ea 546e6143   6339 	.data.b	67,97,110,84,112,95,85,116,105,108,95,65,115,115,101,114,116,76,101,115,115,69,113,117,97,108,0
000017ee 74555f70 
000017f2 415f6c69 
000017f6 72657373 
000017fa 73654c74 
000017fe 75714573 
00001802 006c61 
00001805 089b       6340 	.data.b	155,8
00001807 2e         6341 	.data.b	46
00001808 01         6342 	.data.b	1
00001809 00000000*  6343 	.data.w	.LDW_4b7a318
0000180d 00         6344 	.data.b	0
0000180e 03         6345 	.data.b	3
0000180f 00         6346 	.data.b	0
00001810 01         6347 	.data.b	1
00001811 00         6348 	.data.b	0
00001812 01         6349 	.data.b	1
                    6350 
                    6351 .LDW_4b7a460:
00001813 12         6352 	.data.b	18
00001814 72727543   6353 	.data.b	67,117,114,114,101,110,116,86,97,108,117,101,0
00001818 56746e65 
0000181c 65756c61 
00001820 00 
00001821 089b       6354 	.data.b	155,8
00001823 51         6355 	.data.b	81
00001824 01         6356 	.data.b	1
00001825 00000000*  6357 	.data.w	.LDW_4b7a370
00001829 00         6358 	.data.b	0
                    6359 
                    6360 .LDW_4b7a4b8:
0000182a 12         6361 	.data.b	18
0000182b 65707055   6362 	.data.b	85,112,112,101,114,76,105,109,105,116,0
0000182f 6d694c72 
00001833 007469 
00001836 089b       6363 	.data.b	155,8
00001838 66         6364 	.data.b	102
00001839 01         6365 	.data.b	1
0000183a 00000000*  6366 	.data.w	.LDW_4b7a370
0000183e 00         6367 	.data.b	0
                    6368 

                                                                      Page 122
                                                              C:\Users\Fengyuan\AppData\Local\Temp\gh_0000kos1.s
                    6369 .LDW_5c652e8:
0000183f 22         6370 	.data.b	34
                    6371 
                    6372 .LDW_4b7a510:
00001840 07         6373 	.data.b	7
00001841 7365526c   6374 	.data.b	108,82,101,115,117,108,116,0
00001845 00746c75 
00001849 089d       6375 	.data.b	157,8
0000184b 0b         6376 	.data.b	11
0000184c 01         6377 	.data.b	1
0000184d 00000000*  6378 	.data.w	.LDW_4b7a318
00001851 00         6379 	.data.b	0
00001852 00         6380 	.data.b	0
                    6381 
00001853 00         6382 	.data.b	0
                    6383 
00001854 00         6384 	.data.b	0
                    6385 
                    6386 .LDW_5d5c1a8:
00001855 18         6387 	.data.b	24
00001856 546e6143   6388 	.data.b	67,97,110,84,112,95,85,116,105,108,95,67,104,101,99,107,67,111,110,102,105,103,86,97,108,105,100,105,116,121,0
0000185a 74555f70 
0000185e 435f6c69 
00001862 6b636568 
00001866 666e6f43 
0000186a 61566769 
0000186e 6964696c 
00001872 007974 
00001875 08c0       6389 	.data.b	192,8
00001877 2e         6390 	.data.b	46
00001878 01         6391 	.data.b	1
00001879 00000000*  6392 	.data.w	.LDW_4b7a318
0000187d 00         6393 	.data.b	0
0000187e 03         6394 	.data.b	3
0000187f 00         6395 	.data.b	0
00001880 01         6396 	.data.b	1
00001881 00         6397 	.data.b	0
00001882 01         6398 	.data.b	1
                    6399 
                    6400 .LDW_5c651c8:
00001883 22         6401 	.data.b	34
                    6402 
                    6403 .LDW_5d5c240:
00001884 07         6404 	.data.b	7
00001885 7365526c   6405 	.data.b	108,82,101,115,117,108,116,0
00001889 00746c75 
0000188d 08c2       6406 	.data.b	194,8
0000188f 0b         6407 	.data.b	11
00001890 01         6408 	.data.b	1
00001891 00000000*  6409 	.data.w	.LDW_4b7a318
00001895 00         6410 	.data.b	0
00001896 00         6411 	.data.b	0
                    6412 
                    6413 .LDW_5d786a8:
00001897 07         6414 	.data.b	7
00001898 7564536c   6415 	.data.b	108,83,100,117,73,100,0
0000189c 006449 
0000189f 08c4       6416 	.data.b	196,8
000018a1 0d         6417 	.data.b	13
000018a2 01         6418 	.data.b	1
000018a3 00000000*  6419 	.data.w	.LDW_5d78d88

                                                                      Page 123
                                                              C:\Users\Fengyuan\AppData\Local\Temp\gh_0000kos1.s
000018a7 00         6420 	.data.b	0
000018a8 00         6421 	.data.b	0
                    6422 
                    6423 .LDW_5d78a70:
000018a9 07         6424 	.data.b	7
000018aa 7564536c   6425 	.data.b	108,83,100,117,72,100,108,0
000018ae 006c6448 
000018b2 08c5       6426 	.data.b	197,8
000018b4 0d         6427 	.data.b	13
000018b5 01         6428 	.data.b	1
000018b6 00000000*  6429 	.data.w	.LDW_5d78d88
000018ba 00         6430 	.data.b	0
000018bb 00         6431 	.data.b	0
                    6432 
000018bc 00         6433 	.data.b	0
                    6434 
000018bd 00         6435 	.data.b	0
                    6436 
                    6437 .LDW_5d5c298:
000018be 18         6438 	.data.b	24
000018bf 546e6143   6439 	.data.b	67,97,110,84,112,95,85,116,105,108,95,71,101,116,80,97,100,100,105,110,103,76,101,110,103,116,104,0
000018c3 74555f70 
000018c7 475f6c69 
000018cb 61507465 
000018cf 6e696464 
000018d3 6e654c67 
000018d7 00687467 
000018db 09b7       6440 	.data.b	183,9
000018dd 2c         6441 	.data.b	44
000018de 01         6442 	.data.b	1
000018df 00000000*  6443 	.data.w	.LDW_4b7ea10
000018e3 00         6444 	.data.b	0
000018e4 03         6445 	.data.b	3
000018e5 00         6446 	.data.b	0
000018e6 01         6447 	.data.b	1
000018e7 00         6448 	.data.b	0
000018e8 01         6449 	.data.b	1
                    6450 
                    6451 .LDW_5d78910:
000018e9 12         6452 	.data.b	18
000018ea 72727543   6453 	.data.b	67,117,114,114,101,110,116,76,101,110,103,116,104,0
000018ee 4c746e65 
000018f2 74676e65 
000018f6 0068 
000018f8 09b7       6454 	.data.b	183,9
000018fa 4e         6455 	.data.b	78
000018fb 01         6456 	.data.b	1
000018fc 00000000*  6457 	.data.w	.LDW_4b7ea10
00001900 00         6458 	.data.b	0
                    6459 
                    6460 .LDW_5d788b8:
00001901 12         6461 	.data.b	18
00001902 64646150   6462 	.data.b	80,97,100,100,105,110,103,65,99,116,105,118,97,116,105,111,110,0
00001906 41676e69 
0000190a 76697463 
0000190e 6f697461 
00001912 006e 
00001914 09b7       6463 	.data.b	183,9
00001916 65         6464 	.data.b	101
00001917 01         6465 	.data.b	1
00001918 00000000*  6466 	.data.w	.LDW_4b7a318

                                                                      Page 124
                                                              C:\Users\Fengyuan\AppData\Local\Temp\gh_0000kos1.s
0000191c 00         6467 	.data.b	0
                    6468 
                    6469 .LDW_5d78808:
0000191d 12         6470 	.data.b	18
0000191e 546e6143   6471 	.data.b	67,97,110,84,121,112,101,0
00001922 00657079 
00001926 09b7       6472 	.data.b	183,9
00001928 0186       6473 	.data.b	134,1
0000192a 01         6474 	.data.b	1
0000192b 00000000*  6475 	.data.w	.LDW_5d78bd0
0000192f 00         6476 	.data.b	0
                    6477 
                    6478 .LDW_5c65438:
00001930 22         6479 	.data.b	34
                    6480 
                    6481 .LDW_5d78ac8:
00001931 07         6482 	.data.b	7
00001932 6461506c   6483 	.data.b	108,80,97,100,100,101,100,76,101,110,103,116,104,0
00001936 4c646564 
0000193a 74676e65 
0000193e 0068 
00001940 09b9       6484 	.data.b	185,9
00001942 09         6485 	.data.b	9
00001943 01         6486 	.data.b	1
00001944 00000000*  6487 	.data.w	.LDW_4b7ea10
00001948 00         6488 	.data.b	0
00001949 00         6489 	.data.b	0
                    6490 
0000194a 00         6491 	.data.b	0
                    6492 
0000194b 00         6493 	.data.b	0
                    6494 
                    6495 .LDW_5d5c330:
0000194c 18         6496 	.data.b	24
0000194d 546e6143   6497 	.data.b	67,97,110,84,112,95,84,120,71,101,116,83,116,109,105,110,84,105,109,101,114,70,114,111,109,83,116,109,105,110,86,97,108,117,101,0
00001951 78545f70 
00001955 53746547 
00001959 6e696d74 
0000195d 656d6954 
00001961 6f724672 
00001965 6d74536d 
00001969 61566e69 
0000196d 0065756c 
00001971 0a90       6498 	.data.b	144,10
00001973 2c         6499 	.data.b	44
00001974 01         6500 	.data.b	1
00001975 00000000*  6501 	.data.w	.LDW_4b7ea10
00001979 00         6502 	.data.b	0
0000197a 03         6503 	.data.b	3
0000197b 00         6504 	.data.b	0
0000197c 01         6505 	.data.b	1
0000197d 00         6506 	.data.b	0
0000197e 01         6507 	.data.b	1
                    6508 
                    6509 .LDW_5d78758:
0000197f 12         6510 	.data.b	18
00001980 696d5453   6511 	.data.b	83,84,109,105,110,86,97,108,117,101,0
00001984 6c61566e 
00001988 006575 
0000198b 0a90       6512 	.data.b	144,10
0000198d 56         6513 	.data.b	86

                                                                      Page 125
                                                              C:\Users\Fengyuan\AppData\Local\Temp\gh_0000kos1.s
0000198e 01         6514 	.data.b	1
0000198f 00000000*  6515 	.data.w	.LDW_4b7ea10
00001993 00         6516 	.data.b	0
                    6517 
                    6518 .LDW_5c651f8:
00001994 22         6519 	.data.b	34
                    6520 
                    6521 .LDW_5d78c28:
00001995 07         6522 	.data.b	7
00001996 7361546c   6523 	.data.b	108,84,97,115,107,67,121,99,108,101,115,0
0000199a 6379436b 
0000199e 0073656c 
000019a2 0a92       6524 	.data.b	146,10
000019a4 0a         6525 	.data.b	10
000019a5 01         6526 	.data.b	1
000019a6 00000000*  6527 	.data.w	.LDW_4b7ea10
000019aa 00         6528 	.data.b	0
000019ab 00         6529 	.data.b	0
                    6530 
                    6531 .LDW_5d78968:
000019ac 07         6532 	.data.b	7
000019ad 6d54536c   6533 	.data.b	108,83,84,109,105,110,84,101,109,112,0
000019b1 65546e69 
000019b5 00706d 
000019b8 0a93       6534 	.data.b	147,10
000019ba 0a         6535 	.data.b	10
000019bb 01         6536 	.data.b	1
000019bc 00000000*  6537 	.data.w	.LDW_4b7ea10
000019c0 00         6538 	.data.b	0
000019c1 00         6539 	.data.b	0
                    6540 
000019c2 00         6541 	.data.b	0
                    6542 
000019c3 00         6543 	.data.b	0
                    6544 
                    6545 .LDW_5d5c3c8:
000019c4 17         6546 	.data.b	23
000019c5 546e6143   6547 	.data.b	67,97,110,84,112,95,67,97,110,73,102,82,120,73,110,100,105,99,97,116,105,111,110,83,70,0
000019c9 61435f70 
000019cd 5266496e 
000019d1 646e4978 
000019d5 74616369 
000019d9 536e6f69 
000019dd 0046 
000019df 0ac5       6548 	.data.b	197,10
000019e1 2b         6549 	.data.b	43
000019e2 01         6550 	.data.b	1
000019e3 00         6551 	.data.b	0
000019e4 03         6552 	.data.b	3
000019e5 00         6553 	.data.b	0
000019e6 01         6554 	.data.b	1
000019e7 00         6555 	.data.b	0
000019e8 01         6556 	.data.b	1
                    6557 
                    6558 .LDW_5d78c80:
000019e9 12         6559 	.data.b	18
000019ea 52705470   6560 	.data.b	112,84,112,82,120,83,116,97,116,101,0
000019ee 61745378 
000019f2 006574 
000019f5 0ac5       6561 	.data.b	197,10
000019f7 5a         6562 	.data.b	90

                                                                      Page 126
                                                              C:\Users\Fengyuan\AppData\Local\Temp\gh_0000kos1.s
000019f8 01         6563 	.data.b	1
000019f9 00000000*  6564 	.data.w	.LDW_5d787b0
000019fd 00         6565 	.data.b	0
                    6566 
                    6567 .LDW_5d78de0:
000019fe 12         6568 	.data.b	18
000019ff 75645070   6569 	.data.b	112,80,100,117,0
00001a03 00 
00001a04 0ac6       6570 	.data.b	198,10
00001a06 76         6571 	.data.b	118
00001a07 01         6572 	.data.b	1
00001a08 00000000*  6573 	.data.w	.LDW_4b4d240
00001a0c 00         6574 	.data.b	0
                    6575 
                    6576 .LDW_5c655e8:
00001a0d 22         6577 	.data.b	34
                    6578 
                    6579 .LDW_5d78700:
00001a0e 07         6580 	.data.b	7
00001a0f 6464416c   6581 	.data.b	108,65,100,100,114,101,115,115,105,110,103,79,102,102,115,101,116,0
00001a13 73736572 
00001a17 4f676e69 
00001a1b 65736666 
00001a1f 0074 
00001a21 0ac8       6582 	.data.b	200,10
00001a23 1b         6583 	.data.b	27
00001a24 01         6584 	.data.b	1
00001a25 00000000*  6585 	.data.w	.LDW_4b7ea10
00001a29 00         6586 	.data.b	0
00001a2a 00         6587 	.data.b	0
                    6588 
                    6589 .LDW_5d78a18:
00001a2b 07         6590 	.data.b	7
00001a2c 7961506c   6591 	.data.b	108,80,97,121,108,111,97,100,79,102,102,115,101,116,0
00001a30 64616f6c 
00001a34 7366664f 
00001a38 007465 
00001a3b 0ac9       6592 	.data.b	201,10
00001a3d 1b         6593 	.data.b	27
00001a3e 01         6594 	.data.b	1
00001a3f 00000000*  6595 	.data.w	.LDW_4b7ea10
00001a43 00         6596 	.data.b	0
00001a44 00         6597 	.data.b	0
                    6598 
                    6599 .LDW_5d78b78:
00001a45 07         6600 	.data.b	7
00001a46 6e694d6c   6601 	.data.b	108,77,105,110,80,97,121,108,111,97,100,76,101,110,103,116,104,0
00001a4a 6c796150 
00001a4e 4c64616f 
00001a52 74676e65 
00001a56 0068 
00001a58 0aca       6602 	.data.b	202,10
00001a5a 1b         6603 	.data.b	27
00001a5b 01         6604 	.data.b	1
00001a5c 00000000*  6605 	.data.w	.LDW_4b7ea10
00001a60 00         6606 	.data.b	0
00001a61 00         6607 	.data.b	0
                    6608 
                    6609 .LDW_5ed0500:
00001a62 07         6610 	.data.b	7
00001a63 78614d6c   6611 	.data.b	108,77,97,120,80,97,121,108,111,97,100,76,101,110,103,116,104,0

                                                                      Page 127
                                                              C:\Users\Fengyuan\AppData\Local\Temp\gh_0000kos1.s
00001a67 6c796150 
00001a6b 4c64616f 
00001a6f 74676e65 
00001a73 0068 
00001a75 0acb       6612 	.data.b	203,10
00001a77 1b         6613 	.data.b	27
00001a78 01         6614 	.data.b	1
00001a79 00000000*  6615 	.data.w	.LDW_4b7ea10
00001a7d 00         6616 	.data.b	0
00001a7e 00         6617 	.data.b	0
                    6618 
                    6619 .LDW_5ed0a28:
00001a7f 07         6620 	.data.b	7
00001a80 6365526c   6621 	.data.b	108,82,101,99,101,105,118,101,100,68,97,116,97,76,101,110,103,116,104,0
00001a84 65766965 
00001a88 74614464 
00001a8c 6e654c61 
00001a90 00687467 
00001a94 0acc       6622 	.data.b	204,10
00001a96 1b         6623 	.data.b	27
00001a97 01         6624 	.data.b	1
00001a98 00000000*  6625 	.data.w	.LDW_5ed05b0
00001a9c 00         6626 	.data.b	0
00001a9d 00         6627 	.data.b	0
                    6628 
00001a9e 00         6629 	.data.b	0
                    6630 
00001a9f 00         6631 	.data.b	0
                    6632 
                    6633 .LDW_5d5c460:
00001aa0 17         6634 	.data.b	23
00001aa1 546e6143   6635 	.data.b	67,97,110,84,112,95,67,97,110,73,102,82,120,73,110,100,105,99,97,116,105,111,110,70,70,0
00001aa5 61435f70 
00001aa9 5266496e 
00001aad 646e4978 
00001ab1 74616369 
00001ab5 466e6f69 
00001ab9 0046 
00001abb 0bca       6636 	.data.b	202,11
00001abd 2b         6637 	.data.b	43
00001abe 01         6638 	.data.b	1
00001abf 00         6639 	.data.b	0
00001ac0 03         6640 	.data.b	3
00001ac1 00         6641 	.data.b	0
00001ac2 01         6642 	.data.b	1
00001ac3 00         6643 	.data.b	0
00001ac4 01         6644 	.data.b	1
                    6645 
                    6646 .LDW_5ed0b30:
00001ac5 12         6647 	.data.b	18
00001ac6 52705470   6648 	.data.b	112,84,112,82,120,83,116,97,116,101,0
00001aca 61745378 
00001ace 006574 
00001ad1 0bca       6649 	.data.b	202,11
00001ad3 5a         6650 	.data.b	90
00001ad4 01         6651 	.data.b	1
00001ad5 00000000*  6652 	.data.w	.LDW_5d787b0
00001ad9 00         6653 	.data.b	0
                    6654 
                    6655 .LDW_5ed0a80:
00001ada 12         6656 	.data.b	18

                                                                      Page 128
                                                              C:\Users\Fengyuan\AppData\Local\Temp\gh_0000kos1.s
00001adb 75645070   6657 	.data.b	112,80,100,117,0
00001adf 00 
00001ae0 0bcb       6658 	.data.b	203,11
00001ae2 76         6659 	.data.b	118
00001ae3 01         6660 	.data.b	1
00001ae4 00000000*  6661 	.data.w	.LDW_4b4d240
00001ae8 00         6662 	.data.b	0
                    6663 
                    6664 .LDW_5c650a8:
00001ae9 22         6665 	.data.b	34
                    6666 
                    6667 .LDW_5ed0298:
00001aea 07         6668 	.data.b	7
00001aeb 6464416c   6669 	.data.b	108,65,100,100,114,101,115,115,105,110,103,79,102,102,115,101,116,0
00001aef 73736572 
00001af3 4f676e69 
00001af7 65736666 
00001afb 0074 
00001afd 0bcf       6670 	.data.b	207,11
00001aff 1b         6671 	.data.b	27
00001b00 01         6672 	.data.b	1
00001b01 00000000*  6673 	.data.w	.LDW_4b7ea10
00001b05 00         6674 	.data.b	0
00001b06 00         6675 	.data.b	0
                    6676 
                    6677 .LDW_5ed07c0:
00001b07 07         6678 	.data.b	7
00001b08 7961506c   6679 	.data.b	108,80,97,121,108,111,97,100,79,102,102,115,101,116,0
00001b0c 64616f6c 
00001b10 7366664f 
00001b14 007465 
00001b17 0bd0       6680 	.data.b	208,11
00001b19 1b         6681 	.data.b	27
00001b1a 01         6682 	.data.b	1
00001b1b 00000000*  6683 	.data.w	.LDW_4b7ea10
00001b1f 00         6684 	.data.b	0
00001b20 00         6685 	.data.b	0
                    6686 
                    6687 .LDW_5ed0ad8:
00001b21 07         6688 	.data.b	7
00001b22 78614d6c   6689 	.data.b	108,77,97,120,80,97,121,108,111,97,100,76,101,110,0
00001b26 6c796150 
00001b2a 4c64616f 
00001b2e 006e65 
00001b31 0bd1       6690 	.data.b	209,11
00001b33 1b         6691 	.data.b	27
00001b34 01         6692 	.data.b	1
00001b35 00000000*  6693 	.data.w	.LDW_4b7ea10
00001b39 00         6694 	.data.b	0
00001b3a 00         6695 	.data.b	0
                    6696 
                    6697 .LDW_5ed0240:
00001b3b 07         6698 	.data.b	7
00001b3c 7461446c   6699 	.data.b	108,68,97,116,97,76,101,110,103,116,104,76,111,119,101,114,76,105,109,105,116,0
00001b40 6e654c61 
00001b44 4c687467 
00001b48 7265776f 
00001b4c 696d694c 
00001b50 0074 
00001b52 0bd2       6700 	.data.b	210,11
00001b54 1b         6701 	.data.b	27

                                                                      Page 129
                                                              C:\Users\Fengyuan\AppData\Local\Temp\gh_0000kos1.s
00001b55 01         6702 	.data.b	1
00001b56 00000000*  6703 	.data.w	.LDW_4b7a120
00001b5a 00         6704 	.data.b	0
00001b5b 00         6705 	.data.b	0
                    6706 
                    6707 .LDW_5ed08c8:
00001b5c 07         6708 	.data.b	7
00001b5d 6365526c   6709 	.data.b	108,82,101,99,101,105,118,101,100,68,97,116,97,76,101,110,103,116,104,0
00001b61 65766965 
00001b65 74614464 
00001b69 6e654c61 
00001b6d 00687467 
00001b71 0bd3       6710 	.data.b	211,11
00001b73 1b         6711 	.data.b	27
00001b74 01         6712 	.data.b	1
00001b75 00000000*  6713 	.data.w	.LDW_5ed05b0
00001b79 00         6714 	.data.b	0
00001b7a 00         6715 	.data.b	0
                    6716 
00001b7b 00         6717 	.data.b	0
                    6718 
00001b7c 00         6719 	.data.b	0
                    6720 
                    6721 .LDW_5d5c4f8:
00001b7d 17         6722 	.data.b	23
00001b7e 546e6143   6723 	.data.b	67,97,110,84,112,95,67,97,110,73,102,82,120,73,110,100,105,99,97,116,105,111,110,67,70,0
00001b82 61435f70 
00001b86 5266496e 
00001b8a 646e4978 
00001b8e 74616369 
00001b92 436e6f69 
00001b96 0046 
00001b98 0d84       6724 	.data.b	132,13
00001b9a 2b         6725 	.data.b	43
00001b9b 01         6726 	.data.b	1
00001b9c 00         6727 	.data.b	0
00001b9d 03         6728 	.data.b	3
00001b9e 00         6729 	.data.b	0
00001b9f 01         6730 	.data.b	1
00001ba0 00         6731 	.data.b	0
00001ba1 01         6732 	.data.b	1
                    6733 
                    6734 .LDW_5ed06b8:
00001ba2 12         6735 	.data.b	18
00001ba3 52705470   6736 	.data.b	112,84,112,82,120,83,116,97,116,101,0
00001ba7 61745378 
00001bab 006574 
00001bae 0d84       6737 	.data.b	132,13
00001bb0 5a         6738 	.data.b	90
00001bb1 01         6739 	.data.b	1
00001bb2 00000000*  6740 	.data.w	.LDW_5d787b0
00001bb6 00         6741 	.data.b	0
                    6742 
                    6743 .LDW_5ed0348:
00001bb7 12         6744 	.data.b	18
00001bb8 75645070   6745 	.data.b	112,80,100,117,0
00001bbc 00 
00001bbd 0d85       6746 	.data.b	133,13
00001bbf 76         6747 	.data.b	118
00001bc0 01         6748 	.data.b	1
00001bc1 00000000*  6749 	.data.w	.LDW_4b4d240

                                                                      Page 130
                                                              C:\Users\Fengyuan\AppData\Local\Temp\gh_0000kos1.s
00001bc5 00         6750 	.data.b	0
                    6751 
                    6752 .LDW_5c65048:
00001bc6 22         6753 	.data.b	34
                    6754 
                    6755 .LDW_5ed03a0:
00001bc7 07         6756 	.data.b	7
00001bc8 6464416c   6757 	.data.b	108,65,100,100,114,101,115,115,105,110,103,79,102,102,115,101,116,0
00001bcc 73736572 
00001bd0 4f676e69 
00001bd4 65736666 
00001bd8 0074 
00001bda 0d89       6758 	.data.b	137,13
00001bdc 1b         6759 	.data.b	27
00001bdd 01         6760 	.data.b	1
00001bde 00000000*  6761 	.data.w	.LDW_4b7ea10
00001be2 00         6762 	.data.b	0
00001be3 00         6763 	.data.b	0
                    6764 
                    6765 .LDW_5ed0608:
00001be4 07         6766 	.data.b	7
00001be5 7961506c   6767 	.data.b	108,80,97,121,108,111,97,100,79,102,102,115,101,116,0
00001be9 64616f6c 
00001bed 7366664f 
00001bf1 007465 
00001bf4 0d8a       6768 	.data.b	138,13
00001bf6 1b         6769 	.data.b	27
00001bf7 01         6770 	.data.b	1
00001bf8 00000000*  6771 	.data.w	.LDW_4b7ea10
00001bfc 00         6772 	.data.b	0
00001bfd 00         6773 	.data.b	0
                    6774 
                    6775 .LDW_5ed0660:
00001bfe 07         6776 	.data.b	7
00001bff 694e536c   6777 	.data.b	108,83,78,105,110,70,114,97,109,101,0
00001c03 6172466e 
00001c07 00656d 
00001c0a 0d8b       6778 	.data.b	139,13
00001c0c 1b         6779 	.data.b	27
00001c0d 01         6780 	.data.b	1
00001c0e 00000000*  6781 	.data.w	.LDW_4b7ea10
00001c12 00         6782 	.data.b	0
00001c13 00         6783 	.data.b	0
                    6784 
                    6785 .LDW_5c653d8:
00001c14 22         6786 	.data.b	34
                    6787 
                    6788 .LDW_5ed01e8:
00001c15 07         6789 	.data.b	7
00001c16 7272456c   6790 	.data.b	108,69,114,114,111,114,73,100,0
00001c1a 6449726f 
00001c1e 00 
00001c1f 0da0       6791 	.data.b	160,13
00001c21 0b         6792 	.data.b	11
00001c22 01         6793 	.data.b	1
00001c23 00000000*  6794 	.data.w	.LDW_4b7ea10
00001c27 00         6795 	.data.b	0
00001c28 00         6796 	.data.b	0
                    6797 
00001c29 00         6798 	.data.b	0
                    6799 

                                                                      Page 131
                                                              C:\Users\Fengyuan\AppData\Local\Temp\gh_0000kos1.s
00001c2a 00         6800 	.data.b	0
                    6801 
00001c2b 00         6802 	.data.b	0
                    6803 
                    6804 .LDW_5d5c590:
00001c2c 17         6805 	.data.b	23
00001c2d 546e6143   6806 	.data.b	67,97,110,84,112,95,67,97,110,73,102,82,120,73,110,100,105,99,97,116,105,111,110,70,67,0
00001c31 61435f70 
00001c35 5266496e 
00001c39 646e4978 
00001c3d 74616369 
00001c41 466e6f69 
00001c45 0043 
00001c47 0e97       6807 	.data.b	151,14
00001c49 2b         6808 	.data.b	43
00001c4a 01         6809 	.data.b	1
00001c4b 00         6810 	.data.b	0
00001c4c 03         6811 	.data.b	3
00001c4d 00         6812 	.data.b	0
00001c4e 01         6813 	.data.b	1
00001c4f 00         6814 	.data.b	0
00001c50 01         6815 	.data.b	1
                    6816 
                    6817 .LDW_5ed09d0:
00001c51 12         6818 	.data.b	18
00001c52 54705470   6819 	.data.b	112,84,112,84,120,83,116,97,116,101,0
00001c56 61745378 
00001c5a 006574 
00001c5d 0e97       6820 	.data.b	151,14
00001c5f 5a         6821 	.data.b	90
00001c60 01         6822 	.data.b	1
00001c61 00000000*  6823 	.data.w	.LDW_5ed03f8
00001c65 00         6824 	.data.b	0
                    6825 
                    6826 .LDW_5ed0450:
00001c66 12         6827 	.data.b	18
00001c67 75645070   6828 	.data.b	112,80,100,117,0
00001c6b 00 
00001c6c 0e98       6829 	.data.b	152,14
00001c6e 76         6830 	.data.b	118
00001c6f 01         6831 	.data.b	1
00001c70 00000000*  6832 	.data.w	.LDW_4b4d240
00001c74 00         6833 	.data.b	0
                    6834 
                    6835 .LDW_5c65078:
00001c75 22         6836 	.data.b	34
                    6837 
                    6838 .LDW_5ed0818:
00001c76 07         6839 	.data.b	7
00001c77 6464416c   6840 	.data.b	108,65,100,100,114,101,115,115,105,110,103,79,102,102,115,101,116,0
00001c7b 73736572 
00001c7f 4f676e69 
00001c83 65736666 
00001c87 0074 
00001c89 0e9a       6841 	.data.b	154,14
00001c8b 09         6842 	.data.b	9
00001c8c 01         6843 	.data.b	1
00001c8d 00000000*  6844 	.data.w	.LDW_4b7ea10
00001c91 00         6845 	.data.b	0
00001c92 00         6846 	.data.b	0
                    6847 

                                                                      Page 132
                                                              C:\Users\Fengyuan\AppData\Local\Temp\gh_0000kos1.s
00001c93 00         6848 	.data.b	0
                    6849 
00001c94 00         6850 	.data.b	0
                    6851 
                    6852 .LDW_5d78e88:
00001c95 18         6853 	.data.b	24
00001c96 546e6143   6854 	.data.b	67,97,110,84,112,95,84,120,83,116,97,114,116,67,111,110,110,101,99,116,105,111,110,0
00001c9a 78545f70 
00001c9e 72617453 
00001ca2 6e6f4374 
00001ca6 7463656e 
00001caa 006e6f69 
00001cae 0f96       6855 	.data.b	150,15
00001cb0 35         6856 	.data.b	53
00001cb1 01         6857 	.data.b	1
00001cb2 00000000*  6858 	.data.w	.LDW_5ed0768
00001cb6 00         6859 	.data.b	0
00001cb7 03         6860 	.data.b	3
00001cb8 00         6861 	.data.b	0
00001cb9 01         6862 	.data.b	1
00001cba 00         6863 	.data.b	0
00001cbb 01         6864 	.data.b	1
                    6865 
                    6866 .LDW_5ed0978:
00001cbc 12         6867 	.data.b	18
00001cbd 64537854   6868 	.data.b	84,120,83,100,117,83,110,118,0
00001cc1 766e5375 
00001cc5 00 
00001cc6 0f96       6869 	.data.b	150,15
00001cc8 57         6870 	.data.b	87
00001cc9 01         6871 	.data.b	1
00001cca 00000000*  6872 	.data.w	.LDW_5d78d88
00001cce 00         6873 	.data.b	0
                    6874 
                    6875 .LDW_5ed0870:
00001ccf 12         6876 	.data.b	18
00001cd0 64487854   6877 	.data.b	84,120,72,100,108,0
00001cd4 006c 
00001cd6 0f96       6878 	.data.b	150,15
00001cd8 6b         6879 	.data.b	107
00001cd9 01         6880 	.data.b	1
00001cda 00000000*  6881 	.data.w	.LDW_5d78d88
00001cde 00         6882 	.data.b	0
                    6883 
                    6884 .LDW_5ed0b88:
00001cdf 12         6885 	.data.b	18
00001ce0 4c756453   6886 	.data.b	83,100,117,76,101,110,103,116,104,0
00001ce4 74676e65 
00001ce8 0068 
00001cea 0f96       6887 	.data.b	150,15
00001cec 0180       6888 	.data.b	128,1
00001cee 01         6889 	.data.b	1
00001cef 00000000*  6890 	.data.w	.LDW_5ed05b0
00001cf3 00         6891 	.data.b	0
                    6892 
                    6893 .LDW_5c65228:
00001cf4 22         6894 	.data.b	34
                    6895 
                    6896 .LDW_5ed0920:
00001cf5 07         6897 	.data.b	7
00001cf6 54705470   6898 	.data.b	112,84,112,84,120,83,116,97,116,101,0

                                                                      Page 133
                                                              C:\Users\Fengyuan\AppData\Local\Temp\gh_0000kos1.s
00001cfa 61745378 
00001cfe 006574 
00001d01 0f98       6899 	.data.b	152,15
00001d03 18         6900 	.data.b	24
00001d04 01         6901 	.data.b	1
00001d05 00000000*  6902 	.data.w	.LDW_5ed03f8
00001d09 00         6903 	.data.b	0
00001d0a 00         6904 	.data.b	0
                    6905 
                    6906 .LDW_5ed04a8:
00001d0b 07         6907 	.data.b	7
00001d0c 7465526c   6908 	.data.b	108,82,101,116,117,114,110,86,97,108,117,101,0
00001d10 566e7275 
00001d14 65756c61 
00001d18 00 
00001d19 0f99       6909 	.data.b	153,15
00001d1b 18         6910 	.data.b	24
00001d1c 01         6911 	.data.b	1
00001d1d 00000000*  6912 	.data.w	.LDW_5ed0768
00001d21 00         6913 	.data.b	0
00001d22 00         6914 	.data.b	0
                    6915 
00001d23 00         6916 	.data.b	0
                    6917 
00001d24 00         6918 	.data.b	0
                    6919 
                    6920 .LDW_5d78f20:
00001d25 18         6921 	.data.b	24
00001d26 546e6143   6922 	.data.b	67,97,110,84,112,95,82,120,71,101,116,66,121,116,101,115,80,101,114,66,108,111,99,107,0
00001d2a 78525f70 
00001d2e 42746547 
00001d32 73657479 
00001d36 42726550 
00001d3a 6b636f6c 
00001d3e 00 
00001d3f 0feb       6923 	.data.b	235,15
00001d41 34         6924 	.data.b	52
00001d42 01         6925 	.data.b	1
00001d43 00000000*  6926 	.data.w	.LDW_5ed05b0
00001d47 00         6927 	.data.b	0
00001d48 03         6928 	.data.b	3
00001d49 00         6929 	.data.b	0
00001d4a 01         6930 	.data.b	1
00001d4b 00         6931 	.data.b	0
00001d4c 01         6932 	.data.b	1
                    6933 
                    6934 .LDW_5ed00e0:
00001d4d 12         6935 	.data.b	18
00001d4e 52705470   6936 	.data.b	112,84,112,82,120,83,116,97,116,101,0
00001d52 61745378 
00001d56 006574 
00001d59 0feb       6937 	.data.b	235,15
00001d5b 62         6938 	.data.b	98
00001d5c 01         6939 	.data.b	1
00001d5d 00000000*  6940 	.data.w	.LDW_5d787b0
00001d61 00         6941 	.data.b	0
                    6942 
                    6943 .LDW_5c65408:
00001d62 22         6944 	.data.b	34
                    6945 
                    6946 .LDW_5ed0138:

                                                                      Page 134
                                                              C:\Users\Fengyuan\AppData\Local\Temp\gh_0000kos1.s
00001d63 07         6947 	.data.b	7
00001d64 7479426c   6948 	.data.b	108,66,121,116,101,115,80,101,114,66,108,111,99,107,0
00001d68 65507365 
00001d6c 6f6c4272 
00001d70 006b63 
00001d73 0fed       6949 	.data.b	237,15
00001d75 1b         6950 	.data.b	27
00001d76 01         6951 	.data.b	1
00001d77 00000000*  6952 	.data.w	.LDW_5ed05b0
00001d7b 00         6953 	.data.b	0
00001d7c 00         6954 	.data.b	0
                    6955 
00001d7d 00         6956 	.data.b	0
                    6957 
00001d7e 00         6958 	.data.b	0
                    6959 
                    6960 .LDW_5d78fb8:
00001d7f 17         6961 	.data.b	23
00001d80 546e6143   6962 	.data.b	67,97,110,84,112,95,82,120,71,101,116,66,117,102,102,101,114,83,70,0
00001d84 78525f70 
00001d88 42746547 
00001d8c 65666675 
00001d90 00465372 
00001d94 1095       6963 	.data.b	149,16
00001d96 2b         6964 	.data.b	43
00001d97 01         6965 	.data.b	1
00001d98 00         6966 	.data.b	0
00001d99 03         6967 	.data.b	3
00001d9a 00         6968 	.data.b	0
00001d9b 01         6969 	.data.b	1
00001d9c 00         6970 	.data.b	0
00001d9d 01         6971 	.data.b	1
                    6972 
                    6973 .LDW_5ed0190:
00001d9e 12         6974 	.data.b	18
00001d9f 52705470   6975 	.data.b	112,84,112,82,120,83,116,97,116,101,0
00001da3 61745378 
00001da7 006574 
00001daa 1095       6976 	.data.b	149,16
00001dac 54         6977 	.data.b	84
00001dad 01         6978 	.data.b	1
00001dae 00000000*  6979 	.data.w	.LDW_5d787b0
00001db2 00         6980 	.data.b	0
                    6981 
                    6982 .LDW_5c654c8:
00001db3 22         6983 	.data.b	34
                    6984 
                    6985 .LDW_5ed02f0:
00001db4 07         6986 	.data.b	7
00001db5 7564506c   6987 	.data.b	108,80,100,117,73,110,102,111,0
00001db9 6f666e49 
00001dbd 00 
00001dbe 1097       6988 	.data.b	151,16
00001dc0 1b         6989 	.data.b	27
00001dc1 01         6990 	.data.b	1
00001dc2 00000000*  6991 	.data.w	.LDW_5d78d30
00001dc6 00         6992 	.data.b	0
00001dc7 00         6993 	.data.b	0
                    6994 
00001dc8 00         6995 	.data.b	0
                    6996 

                                                                      Page 135
                                                              C:\Users\Fengyuan\AppData\Local\Temp\gh_0000kos1.s
00001dc9 00         6997 	.data.b	0
                    6998 
                    6999 .LDW_5d79050:
00001dca 17         7000 	.data.b	23
00001dcb 546e6143   7001 	.data.b	67,97,110,84,112,95,82,120,71,101,116,66,117,102,102,101,114,70,70,0
00001dcf 78525f70 
00001dd3 42746547 
00001dd7 65666675 
00001ddb 00464672 
00001ddf 10d9       7002 	.data.b	217,16
00001de1 2b         7003 	.data.b	43
00001de2 01         7004 	.data.b	1
00001de3 00         7005 	.data.b	0
00001de4 03         7006 	.data.b	3
00001de5 00         7007 	.data.b	0
00001de6 01         7008 	.data.b	1
00001de7 00         7009 	.data.b	0
00001de8 01         7010 	.data.b	1
                    7011 
                    7012 .LDW_5ed0f50:
00001de9 12         7013 	.data.b	18
00001dea 52705470   7014 	.data.b	112,84,112,82,120,83,116,97,116,101,0
00001dee 61745378 
00001df2 006574 
00001df5 10d9       7015 	.data.b	217,16
00001df7 54         7016 	.data.b	84
00001df8 01         7017 	.data.b	1
00001df9 00000000*  7018 	.data.w	.LDW_5d787b0
00001dfd 00         7019 	.data.b	0
                    7020 
                    7021 .LDW_5c65258:
00001dfe 22         7022 	.data.b	34
                    7023 
                    7024 .LDW_5ed0e48:
00001dff 07         7025 	.data.b	7
00001e00 7564506c   7026 	.data.b	108,80,100,117,73,110,102,111,0
00001e04 6f666e49 
00001e08 00 
00001e09 10db       7027 	.data.b	219,16
00001e0b 1b         7028 	.data.b	27
00001e0c 01         7029 	.data.b	1
00001e0d 00000000*  7030 	.data.w	.LDW_5d78d30
00001e11 00         7031 	.data.b	0
00001e12 00         7032 	.data.b	0
                    7033 
                    7034 .LDW_5c65378:
00001e13 22         7035 	.data.b	34
                    7036 
                    7037 .LDW_5ed0c90:
00001e14 07         7038 	.data.b	7
00001e15 7479426c   7039 	.data.b	108,66,121,116,101,115,80,101,114,66,108,111,99,107,0
00001e19 65507365 
00001e1d 6f6c4272 
00001e21 006b63 
00001e24 1188       7040 	.data.b	136,17
00001e26 18         7041 	.data.b	24
00001e27 01         7042 	.data.b	1
00001e28 00000000*  7043 	.data.w	.LDW_5ed05b0
00001e2c 00         7044 	.data.b	0
00001e2d 00         7045 	.data.b	0
                    7046 

                                                                      Page 136
                                                              C:\Users\Fengyuan\AppData\Local\Temp\gh_0000kos1.s
00001e2e 00         7047 	.data.b	0
                    7048 
00001e2f 00         7049 	.data.b	0
                    7050 
00001e30 00         7051 	.data.b	0
                    7052 
                    7053 .LDW_5d790e8:
00001e31 17         7054 	.data.b	23
00001e32 546e6143   7055 	.data.b	67,97,110,84,112,95,82,120,71,101,116,66,117,102,102,101,114,67,70,0
00001e36 78525f70 
00001e3a 42746547 
00001e3e 65666675 
00001e42 00464372 
00001e46 11d0       7056 	.data.b	208,17
00001e48 2b         7057 	.data.b	43
00001e49 01         7058 	.data.b	1
00001e4a 00         7059 	.data.b	0
00001e4b 03         7060 	.data.b	3
00001e4c 00         7061 	.data.b	0
00001e4d 01         7062 	.data.b	1
00001e4e 00         7063 	.data.b	0
00001e4f 01         7064 	.data.b	1
                    7065 
                    7066 .LDW_5ed0fa8:
00001e50 12         7067 	.data.b	18
00001e51 52705470   7068 	.data.b	112,84,112,82,120,83,116,97,116,101,0
00001e55 61745378 
00001e59 006574 
00001e5c 11d0       7069 	.data.b	208,17
00001e5e 54         7070 	.data.b	84
00001e5f 01         7071 	.data.b	1
00001e60 00000000*  7072 	.data.w	.LDW_5d787b0
00001e64 00         7073 	.data.b	0
                    7074 
                    7075 .LDW_5c65768:
00001e65 22         7076 	.data.b	34
                    7077 
                    7078 .LDW_5ed0d98:
00001e66 07         7079 	.data.b	7
00001e67 7564506c   7080 	.data.b	108,80,100,117,73,110,102,111,0
00001e6b 6f666e49 
00001e6f 00 
00001e70 11d2       7081 	.data.b	210,17
00001e72 1b         7082 	.data.b	27
00001e73 01         7083 	.data.b	1
00001e74 00000000*  7084 	.data.w	.LDW_5d78d30
00001e78 00         7085 	.data.b	0
00001e79 00         7086 	.data.b	0
                    7087 
                    7088 .LDW_5c656a8:
00001e7a 22         7089 	.data.b	34
                    7090 
                    7091 .LDW_5ed0df0:
00001e7b 07         7092 	.data.b	7
00001e7c 7479426c   7093 	.data.b	108,66,121,116,101,115,80,101,114,66,108,111,99,107,0
00001e80 65507365 
00001e84 6f6c4272 
00001e88 006b63 
00001e8b 129a       7094 	.data.b	154,18
00001e8d 1c         7095 	.data.b	28
00001e8e 01         7096 	.data.b	1

                                                                      Page 137
                                                              C:\Users\Fengyuan\AppData\Local\Temp\gh_0000kos1.s
00001e8f 00000000*  7097 	.data.w	.LDW_5ed05b0
00001e93 00         7098 	.data.b	0
00001e94 00         7099 	.data.b	0
                    7100 
00001e95 00         7101 	.data.b	0
                    7102 
00001e96 00         7103 	.data.b	0
                    7104 
00001e97 00         7105 	.data.b	0
                    7106 
                    7107 .LDW_5d79180:
00001e98 17         7108 	.data.b	23
00001e99 546e6143   7109 	.data.b	67,97,110,84,112,95,82,120,71,101,116,66,117,102,102,101,114,70,67,87,97,105,116,0
00001e9d 78525f70 
00001ea1 42746547 
00001ea5 65666675 
00001ea9 57434672 
00001ead 00746961 
00001eb1 1381       7110 	.data.b	129,19
00001eb3 2b         7111 	.data.b	43
00001eb4 01         7112 	.data.b	1
00001eb5 00         7113 	.data.b	0
00001eb6 03         7114 	.data.b	3
00001eb7 00         7115 	.data.b	0
00001eb8 01         7116 	.data.b	1
00001eb9 00         7117 	.data.b	0
00001eba 01         7118 	.data.b	1
                    7119 
                    7120 .LDW_5ed1000:
00001ebb 12         7121 	.data.b	18
00001ebc 52705470   7122 	.data.b	112,84,112,82,120,83,116,97,116,101,0
00001ec0 61745378 
00001ec4 006574 
00001ec7 1381       7123 	.data.b	129,19
00001ec9 58         7124 	.data.b	88
00001eca 01         7125 	.data.b	1
00001ecb 00000000*  7126 	.data.w	.LDW_5d787b0
00001ecf 00         7127 	.data.b	0
                    7128 
                    7129 .LDW_5c65618:
00001ed0 22         7130 	.data.b	34
                    7131 
                    7132 .LDW_5ed0d40:
00001ed1 07         7133 	.data.b	7
00001ed2 7564506c   7134 	.data.b	108,80,100,117,73,110,102,111,0
00001ed6 6f666e49 
00001eda 00 
00001edb 1383       7135 	.data.b	131,19
00001edd 1b         7136 	.data.b	27
00001ede 01         7137 	.data.b	1
00001edf 00000000*  7138 	.data.w	.LDW_5d78d30
00001ee3 00         7139 	.data.b	0
00001ee4 00         7140 	.data.b	0
                    7141 
                    7142 .LDW_5c65678:
00001ee5 22         7143 	.data.b	34
                    7144 
                    7145 .LDW_5ed0ce8:
00001ee6 07         7146 	.data.b	7
00001ee7 7479426c   7147 	.data.b	108,66,121,116,101,115,80,101,114,66,108,111,99,107,0
00001eeb 65507365 

                                                                      Page 138
                                                              C:\Users\Fengyuan\AppData\Local\Temp\gh_0000kos1.s
00001eef 6f6c4272 
00001ef3 006b63 
00001ef6 13b4       7148 	.data.b	180,19
00001ef8 18         7149 	.data.b	24
00001ef9 01         7150 	.data.b	1
00001efa 00000000*  7151 	.data.w	.LDW_5ed05b0
00001efe 00         7152 	.data.b	0
00001eff 00         7153 	.data.b	0
                    7154 
00001f00 00         7155 	.data.b	0
                    7156 
00001f01 00         7157 	.data.b	0
                    7158 
00001f02 00         7159 	.data.b	0
                    7160 
                    7161 .LDW_5c657f0:
00001f03 18         7162 	.data.b	24
00001f04 546e6143   7163 	.data.b	67,97,110,84,112,95,67,102,103,95,71,101,116,83,100,117,72,100,108,66,121,82,120,80,100,117,79,110,108,121,0
00001f08 66435f70 
00001f0c 65475f67 
00001f10 75645374 
00001f14 426c6448 
00001f18 50785279 
00001f1c 6e4f7564 
00001f20 00796c 
00001f23 13e2       7164 	.data.b	226,19
00001f25 30         7165 	.data.b	48
00001f26 01         7166 	.data.b	1
00001f27 00000000*  7167 	.data.w	.LDW_5d78d88
00001f2b 00         7168 	.data.b	0
00001f2c 03         7169 	.data.b	3
00001f2d 00         7170 	.data.b	0
00001f2e 01         7171 	.data.b	1
00001f2f 00         7172 	.data.b	0
00001f30 01         7173 	.data.b	1
                    7174 
                    7175 .LDW_5ed0ea0:
00001f31 12         7176 	.data.b	18
00001f32 64507852   7177 	.data.b	82,120,80,100,117,73,100,0
00001f36 00644975 
00001f3a 13e2       7178 	.data.b	226,19
00001f3c 5a         7179 	.data.b	90
00001f3d 01         7180 	.data.b	1
00001f3e 00000000*  7181 	.data.w	.LDW_5d78d88
00001f42 00         7182 	.data.b	0
                    7183 
                    7184 .LDW_5ed0ef8:
00001f43 12         7185 	.data.b	18
00001f44 6d617246   7186 	.data.b	70,114,97,109,101,84,121,112,101,0
00001f48 70795465 
00001f4c 0065 
00001f4e 13e2       7187 	.data.b	226,19
00001f50 69         7188 	.data.b	105
00001f51 01         7189 	.data.b	1
00001f52 00000000*  7190 	.data.w	.LDW_4b7ea10
00001f56 00         7191 	.data.b	0
                    7192 
                    7193 .LDW_5c65738:
00001f57 22         7194 	.data.b	34
                    7195 
                    7196 .LDW_5ed1058:

                                                                      Page 139
                                                              C:\Users\Fengyuan\AppData\Local\Temp\gh_0000kos1.s
00001f58 07         7197 	.data.b	7
00001f59 7564536c   7198 	.data.b	108,83,100,117,72,100,108,0
00001f5d 006c6448 
00001f61 13e4       7199 	.data.b	228,19
00001f63 0d         7200 	.data.b	13
00001f64 01         7201 	.data.b	1
00001f65 00000000*  7202 	.data.w	.LDW_5d78d88
00001f69 00         7203 	.data.b	0
00001f6a 00         7204 	.data.b	0
                    7205 
00001f6b 00         7206 	.data.b	0
                    7207 
00001f6c 00         7208 	.data.b	0
                    7209 
                    7210 .LDW_5c65888:
00001f6d 17         7211 	.data.b	23
00001f6e 546e6143   7212 	.data.b	67,97,110,84,112,95,82,120,73,110,105,116,83,116,97,116,101,0
00001f72 78525f70 
00001f76 74696e49 
00001f7a 74617453 
00001f7e 0065 
00001f80 14da       7213 	.data.b	218,20
00001f82 2b         7214 	.data.b	43
00001f83 01         7215 	.data.b	1
00001f84 00         7216 	.data.b	0
00001f85 03         7217 	.data.b	3
00001f86 00         7218 	.data.b	0
00001f87 01         7219 	.data.b	1
00001f88 00         7220 	.data.b	0
00001f89 01         7221 	.data.b	1
                    7222 
                    7223 .LDW_5ed0c38:
00001f8a 12         7224 	.data.b	18
00001f8b 52705470   7225 	.data.b	112,84,112,82,120,83,116,97,116,101,0
00001f8f 61745378 
00001f93 006574 
00001f96 14da       7226 	.data.b	218,20
00001f98 52         7227 	.data.b	82
00001f99 01         7228 	.data.b	1
00001f9a 00000000*  7229 	.data.w	.LDW_5d787b0
00001f9e 00         7230 	.data.b	0
                    7231 
                    7232 .LDW_5e1e518:
00001f9f 22         7233 	.data.b	34
                    7234 
00001fa0 00         7235 	.data.b	0
                    7236 
00001fa1 00         7237 	.data.b	0
                    7238 
                    7239 .LDW_606fe30:
00001fa2 17         7240 	.data.b	23
00001fa3 546e6143   7241 	.data.b	67,97,110,84,112,95,84,120,73,110,105,116,83,116,97,116,101,0
00001fa7 78545f70 
00001fab 74696e49 
00001faf 74617453 
00001fb3 0065 
00001fb5 14fb       7242 	.data.b	251,20
00001fb7 2b         7243 	.data.b	43
00001fb8 01         7244 	.data.b	1
00001fb9 00         7245 	.data.b	0
00001fba 03         7246 	.data.b	3

                                                                      Page 140
                                                              C:\Users\Fengyuan\AppData\Local\Temp\gh_0000kos1.s
00001fbb 00         7247 	.data.b	0
00001fbc 01         7248 	.data.b	1
00001fbd 00         7249 	.data.b	0
00001fbe 01         7250 	.data.b	1
                    7251 
                    7252 .LDW_5ed0be0:
00001fbf 12         7253 	.data.b	18
00001fc0 54705470   7254 	.data.b	112,84,112,84,120,83,116,97,116,101,0
00001fc4 61745378 
00001fc8 006574 
00001fcb 14fb       7255 	.data.b	251,20
00001fcd 52         7256 	.data.b	82
00001fce 01         7257 	.data.b	1
00001fcf 00000000*  7258 	.data.w	.LDW_5ed03f8
00001fd3 00         7259 	.data.b	0
                    7260 
                    7261 .LDW_5e1e1e8:
00001fd4 22         7262 	.data.b	34
                    7263 
00001fd5 00         7264 	.data.b	0
                    7265 
00001fd6 00         7266 	.data.b	0
                    7267 
                    7268 .LDW_606fec8:
00001fd7 18         7269 	.data.b	24
00001fd8 546e6143   7270 	.data.b	67,97,110,84,112,95,82,120,71,101,116,70,114,101,101,67,104,97,110,110,101,108,80,116,114,0
00001fdc 78525f70 
00001fe0 46746547 
00001fe4 43656572 
00001fe8 6e6e6168 
00001fec 74506c65 
00001ff0 0072 
00001ff2 15a7       7271 	.data.b	167,21
00001ff4 3b         7272 	.data.b	59
00001ff5 01         7273 	.data.b	1
00001ff6 00000000*  7274 	.data.w	.LDW_5d787b0
00001ffa 00         7275 	.data.b	0
00001ffb 03         7276 	.data.b	3
00001ffc 00         7277 	.data.b	0
00001ffd 01         7278 	.data.b	1
00001ffe 00         7279 	.data.b	0
00001fff 01         7280 	.data.b	1
                    7281 
                    7282 .LDW_6070828:
00002000 12         7283 	.data.b	18
00002001 64487852   7284 	.data.b	82,120,72,100,108,0
00002005 006c 
00002007 15a7       7285 	.data.b	167,21
00002009 5f         7286 	.data.b	95
0000200a 01         7287 	.data.b	1
0000200b 00000000*  7288 	.data.w	.LDW_5d78d88
0000200f 00         7289 	.data.b	0
                    7290 
                    7291 .LDW_5e1dfa8:
00002010 22         7292 	.data.b	34
                    7293 
                    7294 .LDW_60705c0:
00002011 07         7295 	.data.b	7
00002012 52705470   7296 	.data.b	112,84,112,82,120,83,116,97,116,101,0
00002016 61745378 
0000201a 006574 

                                                                      Page 141
                                                              C:\Users\Fengyuan\AppData\Local\Temp\gh_0000kos1.s
0000201d 15a9       7297 	.data.b	169,21
0000201f 18         7298 	.data.b	24
00002020 01         7299 	.data.b	1
00002021 00000000*  7300 	.data.w	.LDW_5d787b0
00002025 00         7301 	.data.b	0
00002026 00         7302 	.data.b	0
                    7303 
00002027 00         7304 	.data.b	0
                    7305 
00002028 00         7306 	.data.b	0
                    7307 
                    7308 .LDW_606ff60:
00002029 18         7309 	.data.b	24
0000202a 546e6143   7310 	.data.b	67,97,110,84,112,95,82,120,71,101,116,65,99,116,105,118,101,67,104,97,110,110,101,108,80,116,114,0
0000202e 78525f70 
00002032 41746547 
00002036 76697463 
0000203a 61684365 
0000203e 6c656e6e 
00002042 00727450 
00002046 15d3       7311 	.data.b	211,21
00002048 3b         7312 	.data.b	59
00002049 01         7313 	.data.b	1
0000204a 00000000*  7314 	.data.w	.LDW_5d787b0
0000204e 00         7315 	.data.b	0
0000204f 03         7316 	.data.b	3
00002050 00         7317 	.data.b	0
00002051 01         7318 	.data.b	1
00002052 00         7319 	.data.b	0
00002053 01         7320 	.data.b	1
                    7321 
                    7322 .LDW_6070880:
00002054 12         7323 	.data.b	18
00002055 64487852   7324 	.data.b	82,120,72,100,108,0
00002059 006c 
0000205b 15d3       7325 	.data.b	211,21
0000205d 61         7326 	.data.b	97
0000205e 01         7327 	.data.b	1
0000205f 00000000*  7328 	.data.w	.LDW_5d78d88
00002063 00         7329 	.data.b	0
                    7330 
                    7331 .LDW_5e1e398:
00002064 22         7332 	.data.b	34
                    7333 
                    7334 .LDW_60700f0:
00002065 07         7335 	.data.b	7
00002066 52705470   7336 	.data.b	112,84,112,82,120,83,116,97,116,101,0
0000206a 61745378 
0000206e 006574 
00002071 15d5       7337 	.data.b	213,21
00002073 18         7338 	.data.b	24
00002074 01         7339 	.data.b	1
00002075 00000000*  7340 	.data.w	.LDW_5d787b0
00002079 00         7341 	.data.b	0
0000207a 00         7342 	.data.b	0
                    7343 
0000207b 00         7344 	.data.b	0
                    7345 
0000207c 00         7346 	.data.b	0
                    7347 
                    7348 .LDW_606f548:

                                                                      Page 142
                                                              C:\Users\Fengyuan\AppData\Local\Temp\gh_0000kos1.s
0000207d 18         7349 	.data.b	24
0000207e 546e6143   7350 	.data.b	67,97,110,84,112,95,84,120,71,101,116,70,114,101,101,67,104,97,110,110,101,108,80,116,114,0
00002082 78545f70 
00002086 46746547 
0000208a 43656572 
0000208e 6e6e6168 
00002092 74506c65 
00002096 0072 
00002098 15f0       7351 	.data.b	240,21
0000209a 3b         7352 	.data.b	59
0000209b 01         7353 	.data.b	1
0000209c 00000000*  7354 	.data.w	.LDW_5ed03f8
000020a0 00         7355 	.data.b	0
000020a1 03         7356 	.data.b	3
000020a2 00         7357 	.data.b	0
000020a3 01         7358 	.data.b	1
000020a4 00         7359 	.data.b	0
000020a5 01         7360 	.data.b	1
                    7361 
                    7362 .LDW_6070460:
000020a6 12         7363 	.data.b	18
000020a7 64487854   7364 	.data.b	84,120,72,100,108,0
000020ab 006c 
000020ad 15f0       7365 	.data.b	240,21
000020af 5f         7366 	.data.b	95
000020b0 01         7367 	.data.b	1
000020b1 00000000*  7368 	.data.w	.LDW_5d78d88
000020b5 00         7369 	.data.b	0
                    7370 
                    7371 .LDW_5e1e3f8:
000020b6 22         7372 	.data.b	34
                    7373 
                    7374 .LDW_6070510:
000020b7 07         7375 	.data.b	7
000020b8 54705470   7376 	.data.b	112,84,112,84,120,83,116,97,116,101,0
000020bc 61745378 
000020c0 006574 
000020c3 15f2       7377 	.data.b	242,21
000020c5 18         7378 	.data.b	24
000020c6 01         7379 	.data.b	1
000020c7 00000000*  7380 	.data.w	.LDW_5ed03f8
000020cb 00         7381 	.data.b	0
000020cc 00         7382 	.data.b	0
                    7383 
000020cd 00         7384 	.data.b	0
                    7385 
000020ce 00         7386 	.data.b	0
                    7387 
                    7388 .LDW_606f250:
000020cf 18         7389 	.data.b	24
000020d0 546e6143   7390 	.data.b	67,97,110,84,112,95,84,120,71,101,116,65,99,116,105,118,101,67,104,97,110,110,101,108,80,116,114,0
000020d4 78545f70 
000020d8 41746547 
000020dc 76697463 
000020e0 61684365 
000020e4 6c656e6e 
000020e8 00727450 
000020ec 169a       7391 	.data.b	154,22
000020ee 3b         7392 	.data.b	59
000020ef 01         7393 	.data.b	1
000020f0 00000000*  7394 	.data.w	.LDW_5ed03f8

                                                                      Page 143
                                                              C:\Users\Fengyuan\AppData\Local\Temp\gh_0000kos1.s
000020f4 00         7395 	.data.b	0
000020f5 03         7396 	.data.b	3
000020f6 00         7397 	.data.b	0
000020f7 01         7398 	.data.b	1
000020f8 00         7399 	.data.b	0
000020f9 01         7400 	.data.b	1
                    7401 
                    7402 .LDW_60708d8:
000020fa 12         7403 	.data.b	18
000020fb 64487854   7404 	.data.b	84,120,72,100,108,0
000020ff 006c 
00002101 169a       7405 	.data.b	154,22
00002103 61         7406 	.data.b	97
00002104 01         7407 	.data.b	1
00002105 00000000*  7408 	.data.w	.LDW_5d78d88
00002109 00         7409 	.data.b	0
                    7410 
                    7411 .LDW_5e1e308:
0000210a 22         7412 	.data.b	34
                    7413 
                    7414 .LDW_6070930:
0000210b 07         7415 	.data.b	7
0000210c 54705470   7416 	.data.b	112,84,112,84,120,83,116,97,116,101,0
00002110 61745378 
00002114 006574 
00002117 169c       7417 	.data.b	156,22
00002119 18         7418 	.data.b	24
0000211a 01         7419 	.data.b	1
0000211b 00000000*  7420 	.data.w	.LDW_5ed03f8
0000211f 00         7421 	.data.b	0
00002120 00         7422 	.data.b	0
                    7423 
00002121 00         7424 	.data.b	0
                    7425 
00002122 00         7426 	.data.b	0
                    7427 
                    7428 .LDW_606f2e8:
00002123 15         7429 	.data.b	21
00002124 546e6143   7430 	.data.b	67,97,110,84,112,95,67,97,110,73,102,82,120,73,110,100,105,99,97,116,105,111,110,0
00002128 61435f70 
0000212c 5266496e 
00002130 646e4978 
00002134 74616369 
00002138 006e6f69 
0000213c 16c1       7431 	.data.b	193,22
0000213e 24         7432 	.data.b	36
0000213f 01         7433 	.data.b	1
00002140 00000000*  7434 	.data.w	CanTp_CanIfRxIndication..C.3A.5CVector.5CCBD1800257_D01_S32K1xx.5CApplications.5CS32K144_Start_new.5CAppl.5Cobj.5CCanTp.
00002144 00000000*  7435 	.data.w	__ghs_eofn_CanTp_CanIfRxIndication
00002148 5d01       7436 	.data.b	1,93
0000214a 0181f0     7437 	.data.b	240,129,1
0000214d 70         7438 	.data.b	112
0000214e 00         7439 	.data.b	0
0000214f 14         7440 	.data.b	20
00002150 01         7441 	.data.b	1
00002151 00         7442 	.data.b	0
00002152 00         7443 	.data.b	0
00002153 00         7444 	.data.b	0
00002154 01         7445 	.data.b	1
00002155 00         7446 	.data.b	0
00002156 01         7447 	.data.b	1

                                                                      Page 144
                                                              C:\Users\Fengyuan\AppData\Local\Temp\gh_0000kos1.s
                    7448 
                    7449 	.section	.debug_abbrev
0000013c 15         7450 	.data.b	21
0000013d 2e         7451 	.data.b	46
0000013e 01         7452 	.data.b	1
0000013f 0803       7453 	.data.b	3,8
00000141 0f3b       7454 	.data.b	59,15
00000143 0f39       7455 	.data.b	57,15
00000145 0f3a       7456 	.data.b	58,15
00000147 0111       7457 	.data.b	17,1
00000149 0112       7458 	.data.b	18,1
0000014b 0a40       7459 	.data.b	64,10
0000014d 4183       7460 	.data.b	131,65
0000014f 0f         7461 	.data.b	15
00000150 4187       7462 	.data.b	135,65
00000152 0d         7463 	.data.b	13
00000153 4185       7464 	.data.b	133,65
00000155 0f         7465 	.data.b	15
00000156 4186       7466 	.data.b	134,65
00000158 0d         7467 	.data.b	13
00000159 4192       7468 	.data.b	146,65
0000015b 0f         7469 	.data.b	15
0000015c 0c3c       7470 	.data.b	60,12
0000015e 0b20       7471 	.data.b	32,11
00000160 0c3f       7472 	.data.b	63,12
00000162 0b32       7473 	.data.b	50,11
00000164 0b4c       7474 	.data.b	76,11
00000166 0c27       7475 	.data.b	39,12
00000168 0000       7476 	.data.b	0,0
                    7477 
                    7478 	.section	.debug_frame
                    7479 .LDW_6154dc0:
00000090 00000000*  7480 	.data.w	.LDW_unq_4-.LDW_unq_3
                    7481 .LDW_unq_3:
00000094 00000000*  7482 	.data.w	.LDW_5fd7438
00000098 00000000*  7483 	.data.w	CanTp_CanIfRxIndication..C.3A.5CVector.5CCBD1800257_D01_S32K1xx.5CApplications.5CS32K144_Start_new.5CAppl.5Cobj.5CCanTp.
0000009c 00000328   7484 	.data.w	__ghs_eofn_CanTp_CanIfRxIndication-CanTp_CanIfRxIndication..C.3A.5CVector.5CCBD1800257_D01_S32K1xx.5CApplications.5CS32K144_Start_new.5CAppl.5Cobj.5CCanTp.
000000a0 01         7485 	.data.b	1
000000a1 00000000*  7486 	.data.w	.LDW91
000000a5 00         7487 	.data.b	0
000000a6 00         7488 	.data.b	0
000000a7 00         7489 	.data.b	0
                    7490 .LDW_unq_4:
                    7491 	.section	.debug_line
000005e4 020500     7492 	.data.b	0,5,2
000005e7 00000000*  7493 	.data.w	CanTp_CanIfRxIndication..C.3A.5CVector.5CCBD1800257_D01_S32K1xx.5CApplications.5CS32K144_Start_new.5CAppl.5Cobj.5CCanTp.
000005eb 06         7494 	.data.b	6
000005ec 03         7495 	.data.b	3
000005ed 16c3       7496 	.data.b	195,22
000005ef 02         7497 	.data.b	2
000005f0 00         7498 	.data.b	0
000005f1 01         7499 	.data.b	1
000005f2 35         7500 	.data.b	53
000005f3 020500     7501 	.data.b	0,5,2
000005f6 00000000*  7502 	.data.w	.LDWlin1
000005fa 0b         7503 	.data.b	11
000005fb 03         7504 	.data.b	3
000005fc 06         7505 	.data.b	6
000005fd 02         7506 	.data.b	2
000005fe 00         7507 	.data.b	0
000005ff 01         7508 	.data.b	1

                                                                      Page 145
                                                              C:\Users\Fengyuan\AppData\Local\Temp\gh_0000kos1.s
00000600 020500     7509 	.data.b	0,5,2
00000603 00000000*  7510 	.data.w	.LDWlin2
00000607 0b         7511 	.data.b	11
00000608 020500     7512 	.data.b	0,5,2
0000060b 00000000*  7513 	.data.w	.LDWlin3
0000060f 03         7514 	.data.b	3
00000610 04         7515 	.data.b	4
00000611 02         7516 	.data.b	2
00000612 00         7517 	.data.b	0
00000613 01         7518 	.data.b	1
00000614 0d         7519 	.data.b	13
00000615 0b         7520 	.data.b	11
00000616 03         7521 	.data.b	3
00000617 09         7522 	.data.b	9
00000618 02         7523 	.data.b	2
00000619 02         7524 	.data.b	2
0000061a 01         7525 	.data.b	1
0000061b 14         7526 	.data.b	20
0000061c 3c         7527 	.data.b	60
0000061d 13         7528 	.data.b	19
0000061e 0d         7529 	.data.b	13
0000061f 020500     7530 	.data.b	0,5,2
00000622 00000000*  7531 	.data.w	.LDWlin4
00000626 0b         7532 	.data.b	11
00000627 0b         7533 	.data.b	11
00000628 020500     7534 	.data.b	0,5,2
0000062b 00000000*  7535 	.data.w	.LDWlin5
0000062f 0b         7536 	.data.b	11
00000630 02         7537 	.data.b	2
00000631 00         7538 	.data.b	0
00000632 0c         7539 	.data.b	12
00000633 02         7540 	.data.b	2
00000634 00         7541 	.data.b	0
00000635 03         7542 	.data.b	3
00000636 04         7543 	.data.b	4
00000637 02         7544 	.data.b	2
00000638 00         7545 	.data.b	0
00000639 01         7546 	.data.b	1
0000063a 0b         7547 	.data.b	11
0000063b 0b         7548 	.data.b	11
0000063c 020500     7549 	.data.b	0,5,2
0000063f 00000000*  7550 	.data.w	.LDWlin6
00000643 0d         7551 	.data.b	13
00000644 020500     7552 	.data.b	0,5,2
00000647 00000000*  7553 	.data.w	.LDWlin7
0000064b 0b         7554 	.data.b	11
0000064c 0d         7555 	.data.b	13
0000064d 020500     7556 	.data.b	0,5,2
00000650 00000000*  7557 	.data.w	.LDWlin8
00000654 0b         7558 	.data.b	11
00000655 0d         7559 	.data.b	13
00000656 020500     7560 	.data.b	0,5,2
00000659 00000000*  7561 	.data.w	.LDWlin9
0000065d 03         7562 	.data.b	3
0000065e 0e         7563 	.data.b	14
0000065f 02         7564 	.data.b	2
00000660 00         7565 	.data.b	0
00000661 01         7566 	.data.b	1
00000662 02         7567 	.data.b	2
00000663 00         7568 	.data.b	0
00000664 0b         7569 	.data.b	11

                                                                      Page 146
                                                              C:\Users\Fengyuan\AppData\Local\Temp\gh_0000kos1.s
00000665 0d         7570 	.data.b	13
00000666 03         7571 	.data.b	3
00000667 05         7572 	.data.b	5
00000668 02         7573 	.data.b	2
00000669 00         7574 	.data.b	0
0000066a 01         7575 	.data.b	1
0000066b 020500     7576 	.data.b	0,5,2
0000066e 00000000*  7577 	.data.w	.LDWlin10
00000672 0b         7578 	.data.b	11
00000673 06         7579 	.data.b	6
00000674 020500     7580 	.data.b	0,5,2
00000677 00000000*  7581 	.data.w	.LDWlin11
0000067b 03         7582 	.data.b	3
0000067c 7fbc       7583 	.data.b	188,127
0000067e 02         7584 	.data.b	2
0000067f 00         7585 	.data.b	0
00000680 01         7586 	.data.b	1
00000681 06         7587 	.data.b	6
00000682 03         7588 	.data.b	3
00000683 00c5       7589 	.data.b	197,0
00000685 02         7590 	.data.b	2
00000686 00         7591 	.data.b	0
00000687 01         7592 	.data.b	1
00000688 0c         7593 	.data.b	12
00000689 020500     7594 	.data.b	0,5,2
0000068c 00000000*  7595 	.data.w	.LDWlin12
00000690 0b         7596 	.data.b	11
00000691 0d         7597 	.data.b	13
00000692 03         7598 	.data.b	3
00000693 04         7599 	.data.b	4
00000694 02         7600 	.data.b	2
00000695 00         7601 	.data.b	0
00000696 01         7602 	.data.b	1
00000697 1d         7603 	.data.b	29
00000698 020500     7604 	.data.b	0,5,2
0000069b 00000000*  7605 	.data.w	.LDWlin13
0000069f 0b         7606 	.data.b	11
000006a0 020500     7607 	.data.b	0,5,2
000006a3 00000000*  7608 	.data.w	.LDWlin14
000006a7 0b         7609 	.data.b	11
000006a8 0b         7610 	.data.b	11
000006a9 06         7611 	.data.b	6
000006aa 020500     7612 	.data.b	0,5,2
000006ad 00000000*  7613 	.data.w	.LDWlin15
000006b1 03         7614 	.data.b	3
000006b2 64         7615 	.data.b	100
000006b3 02         7616 	.data.b	2
000006b4 00         7617 	.data.b	0
000006b5 01         7618 	.data.b	1
000006b6 06         7619 	.data.b	6
000006b7 03         7620 	.data.b	3
000006b8 1d         7621 	.data.b	29
000006b9 02         7622 	.data.b	2
000006ba 00         7623 	.data.b	0
000006bb 01         7624 	.data.b	1
000006bc 02         7625 	.data.b	2
000006bd 00         7626 	.data.b	0
000006be 0d         7627 	.data.b	13
000006bf 1b         7628 	.data.b	27
000006c0 02         7629 	.data.b	2
000006c1 00         7630 	.data.b	0

                                                                      Page 147
                                                              C:\Users\Fengyuan\AppData\Local\Temp\gh_0000kos1.s
000006c2 0b         7631 	.data.b	11
000006c3 02         7632 	.data.b	2
000006c4 00         7633 	.data.b	0
000006c5 0b         7634 	.data.b	11
000006c6 02         7635 	.data.b	2
000006c7 40         7636 	.data.b	64
000006c8 010100     7637 	.data.b	0,1,1
                    7638 	.section	.debug_info
                    7639 .LDW_6070618:
00002157 11         7640 	.data.b	17
00002158 48756453   7641 	.data.b	83,100,117,72,100,108,0
0000215c 006c64 
0000215f 16c1       7642 	.data.b	193,22
00002161 47         7643 	.data.b	71
00002162 01         7644 	.data.b	1
00002163 00000000*  7645 	.data.w	.LDW_5d78d88
00002167 00         7646 	.data.b	0
00002168 5701       7647 	.data.b	1,87
                    7648 
                    7649 	.section	.debug_abbrev
0000016a 11         7650 	.data.b	17
0000016b 05         7651 	.data.b	5
0000016c 00         7652 	.data.b	0
0000016d 0803       7653 	.data.b	3,8
0000016f 0f3b       7654 	.data.b	59,15
00000171 0f39       7655 	.data.b	57,15
00000173 0f3a       7656 	.data.b	58,15
00000175 1049       7657 	.data.b	73,16
00000177 0c4b       7658 	.data.b	75,12
00000179 0a02       7659 	.data.b	2,10
0000017b 0000       7660 	.data.b	0,0
                    7661 
                    7662 	.section	.debug_info
                    7663 .LDW_60704b8:
0000216a 11         7664 	.data.b	17
0000216b 6d617246   7665 	.data.b	70,114,97,109,101,84,121,112,101,0
0000216f 70795465 
00002173 0065 
00002175 16c2       7666 	.data.b	194,22
00002177 47         7667 	.data.b	71
00002178 01         7668 	.data.b	1
00002179 00000000*  7669 	.data.w	.LDW_4b7ea10
0000217d 00         7670 	.data.b	0
0000217e 5601       7671 	.data.b	1,86
                    7672 
                    7673 .LDW_6070250:
00002180 11         7674 	.data.b	17
00002181 75645070   7675 	.data.b	112,80,100,117,73,110,102,111,0
00002185 6f666e49 
00002189 00 
0000218a 16c3       7676 	.data.b	195,22
0000218c 6d         7677 	.data.b	109
0000218d 01         7678 	.data.b	1
0000218e 00000000*  7679 	.data.w	.LDW_4b4d240
00002192 00         7680 	.data.b	0
00002193 5501       7681 	.data.b	1,85
                    7682 
                    7683 .LDW_5e1e428:
00002195 1f         7684 	.data.b	31
00002196 00000000*  7685 	.data.w	.LDW01
0000219a 00000000*  7686 	.data.w	.LDW91

                                                                      Page 148
                                                              C:\Users\Fengyuan\AppData\Local\Temp\gh_0000kos1.s
                    7687 
                    7688 	.section	.debug_abbrev
0000017d 1f         7689 	.data.b	31
0000017e 0b         7690 	.data.b	11
0000017f 01         7691 	.data.b	1
00000180 0111       7692 	.data.b	17,1
00000182 0112       7693 	.data.b	18,1
00000184 0000       7694 	.data.b	0,0
                    7695 
                    7696 	.section	.debug_info
                    7697 .LDW_5e1e368:
0000219e 1f         7698 	.data.b	31
0000219f 00000000*  7699 	.data.w	.LDW11
000021a3 00000000*  7700 	.data.w	.LDW41
                    7701 
                    7702 .LDW_6070408:
000021a7 07         7703 	.data.b	7
000021a8 6461506c   7704 	.data.b	108,80,97,100,100,105,110,103,76,101,110,103,116,104,0
000021ac 676e6964 
000021b0 676e654c 
000021b4 006874 
000021b7 16cc       7705 	.data.b	204,22
000021b9 0b         7706 	.data.b	11
000021ba 01         7707 	.data.b	1
000021bb 00000000*  7708 	.data.w	.LDW_4b7ea10
000021bf 00         7709 	.data.b	0
000021c0 00         7710 	.data.b	0
                    7711 
                    7712 .LDW_5e1e4b8:
000021c1 1f         7713 	.data.b	31
000021c2 00000000*  7714 	.data.w	.LDW21
000021c6 00000000*  7715 	.data.w	.LDW31
                    7716 
                    7717 .LDW_60706c8:
000021ca 06         7718 	.data.b	6
000021cb 52705470   7719 	.data.b	112,84,112,82,120,83,116,97,116,101,0
000021cf 61745378 
000021d3 006574 
000021d6 16e1       7720 	.data.b	225,22
000021d8 20         7721 	.data.b	32
000021d9 01         7722 	.data.b	1
000021da 00000000*  7723 	.data.w	.LDW_5d787b0
000021de 00         7724 	.data.b	0
000021df 00         7725 	.data.b	0
000021e0 5401       7726 	.data.b	1,84
                    7727 
000021e2 00         7728 	.data.b	0
                    7729 
000021e3 00         7730 	.data.b	0
                    7731 
                    7732 .LDW_5e1e0c8:
000021e4 1f         7733 	.data.b	31
000021e5 00000000*  7734 	.data.w	.LDW51
000021e9 00000000*  7735 	.data.w	.LDW81
                    7736 
                    7737 .LDW_6070670:
000021ed 07         7738 	.data.b	7
000021ee 6461506c   7739 	.data.b	108,80,97,100,100,105,110,103,76,101,110,103,116,104,0
000021f2 676e6964 
000021f6 676e654c 
000021fa 006874 

                                                                      Page 149
                                                              C:\Users\Fengyuan\AppData\Local\Temp\gh_0000kos1.s
000021fd 1793       7740 	.data.b	147,23
000021ff 0c         7741 	.data.b	12
00002200 01         7742 	.data.b	1
00002201 00000000*  7743 	.data.w	.LDW_4b7ea10
00002205 00         7744 	.data.b	0
00002206 00         7745 	.data.b	0
                    7746 
                    7747 .LDW_5e1e0f8:
00002207 1f         7748 	.data.b	31
00002208 00000000*  7749 	.data.w	.LDW61
0000220c 00000000*  7750 	.data.w	.LDW71
                    7751 
                    7752 .LDW_6070988:
00002210 06         7753 	.data.b	6
00002211 54705470   7754 	.data.b	112,84,112,84,120,83,116,97,116,101,0
00002215 61745378 
00002219 006574 
0000221c 179e       7755 	.data.b	158,23
0000221e 1c         7756 	.data.b	28
0000221f 01         7757 	.data.b	1
00002220 00000000*  7758 	.data.w	.LDW_5ed03f8
00002224 00         7759 	.data.b	0
00002225 00         7760 	.data.b	0
00002226 5001       7761 	.data.b	1,80
                    7762 
00002228 00         7763 	.data.b	0
                    7764 
00002229 00         7765 	.data.b	0
                    7766 
0000222a 00         7767 	.data.b	0
                    7768 
0000222b 00         7769 	.data.b	0
                    7770 
                    7771 .LDW_606fb38:
0000222c 15         7772 	.data.b	21
0000222d 546e6143   7773 	.data.b	67,97,110,84,112,95,67,97,110,73,102,84,120,67,111,110,102,105,114,109,97,116,105,111,110,0
00002231 61435f70 
00002235 5466496e 
00002239 6e6f4378 
0000223d 6d726966 
00002241 6f697461 
00002245 006e 
00002247 17c7       7774 	.data.b	199,23
00002249 24         7775 	.data.b	36
0000224a 01         7776 	.data.b	1
0000224b 00000000*  7777 	.data.w	CanTp_CanIfTxConfirmation..C.3A.5CVector.5CCBD1800257_D01_S32K1xx.5CApplications.5CS32K144_Start_new.5CAppl.5Cobj.5CCanTp.
0000224f 00000000*  7778 	.data.w	__ghs_eofn_CanTp_CanIfTxConfirmation
00002253 5d01       7779 	.data.b	1,93
00002255 0180b0     7780 	.data.b	176,128,1
00002258 78         7781 	.data.b	120
00002259 00         7782 	.data.b	0
0000225a 08         7783 	.data.b	8
0000225b 01         7784 	.data.b	1
0000225c 00         7785 	.data.b	0
0000225d 00         7786 	.data.b	0
0000225e 00         7787 	.data.b	0
0000225f 01         7788 	.data.b	1
00002260 00         7789 	.data.b	0
00002261 01         7790 	.data.b	1
                    7791 
                    7792 	.section	.debug_frame

                                                                      Page 150
                                                              C:\Users\Fengyuan\AppData\Local\Temp\gh_0000kos1.s
                    7793 .LDW_6154b80:
000000a8 00000000*  7794 	.data.w	.LDW_unq_6-.LDW_unq_5
                    7795 .LDW_unq_5:
000000ac 00000000*  7796 	.data.w	.LDW_5fd7438
000000b0 00000000*  7797 	.data.w	CanTp_CanIfTxConfirmation..C.3A.5CVector.5CCBD1800257_D01_S32K1xx.5CApplications.5CS32K144_Start_new.5CAppl.5Cobj.5CCanTp.
000000b4 00000132   7798 	.data.w	__ghs_eofn_CanTp_CanIfTxConfirmation-CanTp_CanIfTxConfirmation..C.3A.5CVector.5CCBD1800257_D01_S32K1xx.5CApplications.5CS32K144_Start_new.5CAppl.5Cobj.5CCanTp.
000000b8 01         7799 	.data.b	1
000000b9 00000000*  7800 	.data.w	.LDW32
000000bd 00         7801 	.data.b	0
000000be 00         7802 	.data.b	0
000000bf 00         7803 	.data.b	0
                    7804 .LDW_unq_6:
                    7805 	.section	.debug_line
000006cb 020500     7806 	.data.b	0,5,2
000006ce 00000000*  7807 	.data.w	CanTp_CanIfTxConfirmation..C.3A.5CVector.5CCBD1800257_D01_S32K1xx.5CApplications.5CS32K144_Start_new.5CAppl.5Cobj.5CCanTp.
000006d2 06         7808 	.data.b	6
000006d3 03         7809 	.data.b	3
000006d4 17c7       7810 	.data.b	199,23
000006d6 02         7811 	.data.b	2
000006d7 00         7812 	.data.b	0
000006d8 01         7813 	.data.b	1
000006d9 1b         7814 	.data.b	27
000006da 020500     7815 	.data.b	0,5,2
000006dd 00000000*  7816 	.data.w	.LDWlin16
000006e1 03         7817 	.data.b	3
000006e2 00d9       7818 	.data.b	217,0
000006e4 02         7819 	.data.b	2
000006e5 00         7820 	.data.b	0
000006e6 01         7821 	.data.b	1
000006e7 02         7822 	.data.b	2
000006e8 00         7823 	.data.b	0
000006e9 0b         7824 	.data.b	11
000006ea 0d         7825 	.data.b	13
000006eb 0b         7826 	.data.b	11
000006ec 3b         7827 	.data.b	59
000006ed 020500     7828 	.data.b	0,5,2
000006f0 00000000*  7829 	.data.w	.LDWlin17
000006f4 03         7830 	.data.b	3
000006f5 7fa7       7831 	.data.b	167,127
000006f7 02         7832 	.data.b	2
000006f8 00         7833 	.data.b	0
000006f9 01         7834 	.data.b	1
000006fa 03         7835 	.data.b	3
000006fb 06         7836 	.data.b	6
000006fc 02         7837 	.data.b	2
000006fd 00         7838 	.data.b	0
000006fe 01         7839 	.data.b	1
000006ff 1c         7840 	.data.b	28
00000700 1b         7841 	.data.b	27
00000701 13         7842 	.data.b	19
00000702 020500     7843 	.data.b	0,5,2
00000705 00000000*  7844 	.data.w	.LDWlin18
00000709 03         7845 	.data.b	3
0000070a 04         7846 	.data.b	4
0000070b 02         7847 	.data.b	2
0000070c 00         7848 	.data.b	0
0000070d 01         7849 	.data.b	1
0000070e 02         7850 	.data.b	2
0000070f 00         7851 	.data.b	0
00000710 020500     7852 	.data.b	0,5,2
00000713 00000000*  7853 	.data.w	.LDWlin19

                                                                      Page 151
                                                              C:\Users\Fengyuan\AppData\Local\Temp\gh_0000kos1.s
00000717 0b         7854 	.data.b	11
00000718 0d         7855 	.data.b	13
00000719 03         7856 	.data.b	3
0000071a 04         7857 	.data.b	4
0000071b 02         7858 	.data.b	2
0000071c 0a         7859 	.data.b	10
0000071d 01         7860 	.data.b	1
0000071e 020500     7861 	.data.b	0,5,2
00000721 00000000*  7862 	.data.w	.LDWlin20
00000725 0b         7863 	.data.b	11
00000726 0b         7864 	.data.b	11
00000727 1b         7865 	.data.b	27
00000728 020500     7866 	.data.b	0,5,2
0000072b 00000000*  7867 	.data.w	.LDWlin21
0000072f 0b         7868 	.data.b	11
00000730 0c         7869 	.data.b	12
00000731 1b         7870 	.data.b	27
00000732 1b         7871 	.data.b	27
00000733 02         7872 	.data.b	2
00000734 00         7873 	.data.b	0
00000735 0b         7874 	.data.b	11
00000736 02         7875 	.data.b	2
00000737 00         7876 	.data.b	0
00000738 03         7877 	.data.b	3
00000739 04         7878 	.data.b	4
0000073a 02         7879 	.data.b	2
0000073b 00         7880 	.data.b	0
0000073c 01         7881 	.data.b	1
0000073d 020500     7882 	.data.b	0,5,2
00000740 00000000*  7883 	.data.w	.LDWlin22
00000744 0b         7884 	.data.b	11
00000745 03         7885 	.data.b	3
00000746 04         7886 	.data.b	4
00000747 02         7887 	.data.b	2
00000748 00         7888 	.data.b	0
00000749 01         7889 	.data.b	1
0000074a 03         7890 	.data.b	3
0000074b 14         7891 	.data.b	20
0000074c 02         7892 	.data.b	2
0000074d 04         7893 	.data.b	4
0000074e 01         7894 	.data.b	1
0000074f 1b         7895 	.data.b	27
00000750 0c         7896 	.data.b	12
00000751 1b         7897 	.data.b	27
00000752 020500     7898 	.data.b	0,5,2
00000755 00000000*  7899 	.data.w	.LDWlin23
00000759 0b         7900 	.data.b	11
0000075a 0c         7901 	.data.b	12
0000075b 0c         7902 	.data.b	12
0000075c 020500     7903 	.data.b	0,5,2
0000075f 00000000*  7904 	.data.w	.LDWlin24
00000763 0b         7905 	.data.b	11
00000764 06         7906 	.data.b	6
00000765 020500     7907 	.data.b	0,5,2
00000768 00000000*  7908 	.data.w	.LDWlin25
0000076c 03         7909 	.data.b	3
0000076d 7fb9       7910 	.data.b	185,127
0000076f 02         7911 	.data.b	2
00000770 00         7912 	.data.b	0
00000771 01         7913 	.data.b	1
00000772 06         7914 	.data.b	6

                                                                      Page 152
                                                              C:\Users\Fengyuan\AppData\Local\Temp\gh_0000kos1.s
00000773 03         7915 	.data.b	3
00000774 00c8       7916 	.data.b	200,0
00000776 02         7917 	.data.b	2
00000777 00         7918 	.data.b	0
00000778 01         7919 	.data.b	1
00000779 02         7920 	.data.b	2
0000077a 00         7921 	.data.b	0
0000077b 03         7922 	.data.b	3
0000077c 05         7923 	.data.b	5
0000077d 02         7924 	.data.b	2
0000077e 00         7925 	.data.b	0
0000077f 01         7926 	.data.b	1
00000780 02         7927 	.data.b	2
00000781 00         7928 	.data.b	0
00000782 0c         7929 	.data.b	12
00000783 0d         7930 	.data.b	13
00000784 0b         7931 	.data.b	11
00000785 03         7932 	.data.b	3
00000786 08         7933 	.data.b	8
00000787 02         7934 	.data.b	2
00000788 0a         7935 	.data.b	10
00000789 01         7936 	.data.b	1
0000078a 03         7937 	.data.b	3
0000078b 04         7938 	.data.b	4
0000078c 02         7939 	.data.b	2
0000078d 00         7940 	.data.b	0
0000078e 01         7941 	.data.b	1
0000078f 020500     7942 	.data.b	0,5,2
00000792 00000000*  7943 	.data.w	.LDWlin26
00000796 0b         7944 	.data.b	11
00000797 0d         7945 	.data.b	13
00000798 24         7946 	.data.b	36
00000799 1b         7947 	.data.b	27
0000079a 020500     7948 	.data.b	0,5,2
0000079d 00000000*  7949 	.data.w	.LDWlin27
000007a1 0b         7950 	.data.b	11
000007a2 02         7951 	.data.b	2
000007a3 00         7952 	.data.b	0
000007a4 0b         7953 	.data.b	11
000007a5 02         7954 	.data.b	2
000007a6 02         7955 	.data.b	2
000007a7 010100     7956 	.data.b	0,1,1
                    7957 	.section	.debug_info
                    7958 .LDW_60709e0:
00002262 11         7959 	.data.b	17
00002263 54705470   7960 	.data.b	112,84,112,84,120,83,116,97,116,101,0
00002267 61745378 
0000226b 006574 
0000226e 17c7       7961 	.data.b	199,23
00002270 53         7962 	.data.b	83
00002271 01         7963 	.data.b	1
00002272 00000000*  7964 	.data.w	.LDW_5ed03f8
00002276 00         7965 	.data.b	0
00002277 5401       7966 	.data.b	1,84
                    7967 
                    7968 .LDW_5e1df48:
00002279 1f         7969 	.data.b	31
0000227a 00000000*  7970 	.data.w	.LDW02
0000227e 00000000*  7971 	.data.w	.LDW32
                    7972 
                    7973 .LDW_5e1e218:

                                                                      Page 153
                                                              C:\Users\Fengyuan\AppData\Local\Temp\gh_0000kos1.s
00002282 1f         7974 	.data.b	31
00002283 00000000*  7975 	.data.w	.LDW12
00002287 00000000*  7976 	.data.w	.LDW22
                    7977 
                    7978 .LDW_6070b40:
0000228b 07         7979 	.data.b	7
0000228c 49756450   7980 	.data.b	80,100,117,73,110,102,111,0
00002290 006f666e 
00002294 18af       7981 	.data.b	175,24
00002296 11         7982 	.data.b	17
00002297 01         7983 	.data.b	1
00002298 00000000*  7984 	.data.w	.LDW_5d78d30
0000229c 00         7985 	.data.b	0
0000229d 00         7986 	.data.b	0
                    7987 
0000229e 00         7988 	.data.b	0
                    7989 
0000229f 00         7990 	.data.b	0
                    7991 
000022a0 00         7992 	.data.b	0
                    7993 
                    7994 .LDW_606f678:
000022a1 15         7995 	.data.b	21
000022a2 546e6143   7996 	.data.b	67,97,110,84,112,95,67,97,110,73,102,84,120,67,111,110,102,105,114,109,97,116,105,111,110,70,67,0
000022a6 61435f70 
000022aa 5466496e 
000022ae 6e6f4378 
000022b2 6d726966 
000022b6 6f697461 
000022ba 0043466e 
000022be 18ca       7997 	.data.b	202,24
000022c0 24         7998 	.data.b	36
000022c1 01         7999 	.data.b	1
000022c2 00000000*  8000 	.data.w	CanTp_CanIfTxConfirmationFC..C.3A.5CVector.5CCBD1800257_D01_S32K1xx.5CApplications.5CS32K144_Start_new.5CAppl.5Cobj.5CCanTp.
000022c6 00000000*  8001 	.data.w	__ghs_eofn_CanTp_CanIfTxConfirmationFC
000022ca 5d01       8002 	.data.b	1,93
000022cc 0180b0     8003 	.data.b	176,128,1
000022cf 78         8004 	.data.b	120
000022d0 00         8005 	.data.b	0
000022d1 08         8006 	.data.b	8
000022d2 01         8007 	.data.b	1
000022d3 00         8008 	.data.b	0
000022d4 00         8009 	.data.b	0
000022d5 00         8010 	.data.b	0
000022d6 01         8011 	.data.b	1
000022d7 00         8012 	.data.b	0
000022d8 01         8013 	.data.b	1
                    8014 
                    8015 	.section	.debug_frame
                    8016 .LDW_6155480:
000000c0 00000000*  8017 	.data.w	.LDW_unq_8-.LDW_unq_7
                    8018 .LDW_unq_7:
000000c4 00000000*  8019 	.data.w	.LDW_5fd7438
000000c8 00000000*  8020 	.data.w	CanTp_CanIfTxConfirmationFC..C.3A.5CVector.5CCBD1800257_D01_S32K1xx.5CApplications.5CS32K144_Start_new.5CAppl.5Cobj.5CCanTp.
000000cc 00000066   8021 	.data.w	__ghs_eofn_CanTp_CanIfTxConfirmationFC-CanTp_CanIfTxConfirmationFC..C.3A.5CVector.5CCBD1800257_D01_S32K1xx.5CApplications.5CS32K144_Start_new.5CAppl.5Cobj.5CCanTp.
000000d0 01         8022 	.data.b	1
000000d1 00000000*  8023 	.data.w	.LDW52
000000d5 00         8024 	.data.b	0
000000d6 00         8025 	.data.b	0
000000d7 00         8026 	.data.b	0
                    8027 .LDW_unq_8:

                                                                      Page 154
                                                              C:\Users\Fengyuan\AppData\Local\Temp\gh_0000kos1.s
                    8028 	.section	.debug_line
000007aa 020500     8029 	.data.b	0,5,2
000007ad 00000000*  8030 	.data.w	CanTp_CanIfTxConfirmationFC..C.3A.5CVector.5CCBD1800257_D01_S32K1xx.5CApplications.5CS32K144_Start_new.5CAppl.5Cobj.5CCanTp.
000007b1 06         8031 	.data.b	6
000007b2 03         8032 	.data.b	3
000007b3 18ca       8033 	.data.b	202,24
000007b5 02         8034 	.data.b	2
000007b6 00         8035 	.data.b	0
000007b7 01         8036 	.data.b	1
000007b8 1c         8037 	.data.b	28
000007b9 020500     8038 	.data.b	0,5,2
000007bc 00000000*  8039 	.data.w	.LDWlin28
000007c0 03         8040 	.data.b	3
000007c1 17         8041 	.data.b	23
000007c2 02         8042 	.data.b	2
000007c3 00         8043 	.data.b	0
000007c4 01         8044 	.data.b	1
000007c5 33         8045 	.data.b	51
000007c6 020500     8046 	.data.b	0,5,2
000007c9 00000000*  8047 	.data.w	.LDWlin29
000007cd 0d         8048 	.data.b	13
000007ce 0b         8049 	.data.b	11
000007cf 3b         8050 	.data.b	59
000007d0 020500     8051 	.data.b	0,5,2
000007d3 00000000*  8052 	.data.w	.LDWlin30
000007d7 03         8053 	.data.b	3
000007d8 68         8054 	.data.b	104
000007d9 02         8055 	.data.b	2
000007da 00         8056 	.data.b	0
000007db 01         8057 	.data.b	1
000007dc 1b         8058 	.data.b	27
000007dd 43         8059 	.data.b	67
000007de 13         8060 	.data.b	19
000007df 020500     8061 	.data.b	0,5,2
000007e2 00000000*  8062 	.data.w	.LDWlin31
000007e6 03         8063 	.data.b	3
000007e7 05         8064 	.data.b	5
000007e8 02         8065 	.data.b	2
000007e9 00         8066 	.data.b	0
000007ea 01         8067 	.data.b	1
000007eb 02         8068 	.data.b	2
000007ec 00         8069 	.data.b	0
000007ed 02         8070 	.data.b	2
000007ee 04         8071 	.data.b	4
000007ef 02         8072 	.data.b	2
000007f0 0c         8073 	.data.b	12
000007f1 02         8074 	.data.b	2
000007f2 00         8075 	.data.b	0
000007f3 0b         8076 	.data.b	11
000007f4 23         8077 	.data.b	35
000007f5 1b         8078 	.data.b	27
000007f6 1b         8079 	.data.b	27
000007f7 1b         8080 	.data.b	27
000007f8 03         8081 	.data.b	3
000007f9 0c         8082 	.data.b	12
000007fa 02         8083 	.data.b	2
000007fb 00         8084 	.data.b	0
000007fc 01         8085 	.data.b	1
000007fd 0b         8086 	.data.b	11
000007fe 02         8087 	.data.b	2
000007ff 02         8088 	.data.b	2

                                                                      Page 155
                                                              C:\Users\Fengyuan\AppData\Local\Temp\gh_0000kos1.s
00000800 010100     8089 	.data.b	0,1,1
                    8090 	.section	.debug_info
                    8091 .LDW_6070568:
000022d9 11         8092 	.data.b	17
000022da 52705470   8093 	.data.b	112,84,112,82,120,83,116,97,116,101,0
000022de 61745378 
000022e2 006574 
000022e5 18ca       8094 	.data.b	202,24
000022e7 55         8095 	.data.b	85
000022e8 01         8096 	.data.b	1
000022e9 00000000*  8097 	.data.w	.LDW_5d787b0
000022ed 00         8098 	.data.b	0
000022ee 5401       8099 	.data.b	1,84
                    8100 
                    8101 .LDW_5e1df78:
000022f0 1f         8102 	.data.b	31
000022f1 00000000*  8103 	.data.w	.LDW42
000022f5 00000000*  8104 	.data.w	.LDW52
                    8105 
000022f9 00         8106 	.data.b	0
                    8107 
000022fa 00         8108 	.data.b	0
                    8109 
                    8110 .LDW_606fbd0:
000022fb 16         8111 	.data.b	22
000022fc 546e6143   8112 	.data.b	67,97,110,84,112,95,67,97,110,73,102,84,114,97,110,115,109,105,116,70,114,97,109,101,0
00002300 61435f70 
00002304 5466496e 
00002308 736e6172 
0000230c 4674696d 
00002310 656d6172 
00002314 00 
00002315 18fd       8113 	.data.b	253,24
00002317 32         8114 	.data.b	50
00002318 01         8115 	.data.b	1
00002319 00000000*  8116 	.data.w	.LDW_6070300
0000231d 00000000*  8117 	.data.w	CanTp_CanIfTransmitFrame..C.3A.5CVector.5CCBD1800257_D01_S32K1xx.5CApplications.5CS32K144_Start_new.5CAppl.5Cobj.5CCanTp.
00002321 00000000*  8118 	.data.w	__ghs_eofn_CanTp_CanIfTransmitFrame
00002325 5d01       8119 	.data.b	1,93
00002327 0180b0     8120 	.data.b	176,128,1
0000232a 78         8121 	.data.b	120
0000232b 00         8122 	.data.b	0
0000232c 08         8123 	.data.b	8
0000232d 01         8124 	.data.b	1
0000232e 00         8125 	.data.b	0
0000232f 00         8126 	.data.b	0
00002330 00         8127 	.data.b	0
00002331 01         8128 	.data.b	1
00002332 00         8129 	.data.b	0
00002333 01         8130 	.data.b	1
                    8131 
                    8132 	.section	.debug_abbrev
00000186 16         8133 	.data.b	22
00000187 2e         8134 	.data.b	46
00000188 01         8135 	.data.b	1
00000189 0803       8136 	.data.b	3,8
0000018b 0f3b       8137 	.data.b	59,15
0000018d 0f39       8138 	.data.b	57,15
0000018f 0f3a       8139 	.data.b	58,15
00000191 1049       8140 	.data.b	73,16
00000193 0111       8141 	.data.b	17,1

                                                                      Page 156
                                                              C:\Users\Fengyuan\AppData\Local\Temp\gh_0000kos1.s
00000195 0112       8142 	.data.b	18,1
00000197 0a40       8143 	.data.b	64,10
00000199 4183       8144 	.data.b	131,65
0000019b 0f         8145 	.data.b	15
0000019c 4187       8146 	.data.b	135,65
0000019e 0d         8147 	.data.b	13
0000019f 4185       8148 	.data.b	133,65
000001a1 0f         8149 	.data.b	15
000001a2 4186       8150 	.data.b	134,65
000001a4 0d         8151 	.data.b	13
000001a5 4192       8152 	.data.b	146,65
000001a7 0f         8153 	.data.b	15
000001a8 0c3c       8154 	.data.b	60,12
000001aa 0b20       8155 	.data.b	32,11
000001ac 0c3f       8156 	.data.b	63,12
000001ae 0b32       8157 	.data.b	50,11
000001b0 0b4c       8158 	.data.b	76,11
000001b2 0c27       8159 	.data.b	39,12
000001b4 0000       8160 	.data.b	0,0
                    8161 
                    8162 	.section	.debug_frame
                    8163 .LDW_61550c0:
000000d8 00000000*  8164 	.data.w	.LDW_unq_a-.LDW_unq_9
                    8165 .LDW_unq_9:
000000dc 00000000*  8166 	.data.w	.LDW_5fd7438
000000e0 00000000*  8167 	.data.w	CanTp_CanIfTransmitFrame..C.3A.5CVector.5CCBD1800257_D01_S32K1xx.5CApplications.5CS32K144_Start_new.5CAppl.5Cobj.5CCanTp.
000000e4 00000026   8168 	.data.w	__ghs_eofn_CanTp_CanIfTransmitFrame-CanTp_CanIfTransmitFrame..C.3A.5CVector.5CCBD1800257_D01_S32K1xx.5CApplications.5CS32K144_Start_new.5CAppl.5Cobj.5CCanTp.
000000e8 01         8169 	.data.b	1
000000e9 00000000*  8170 	.data.w	.LDW72
000000ed 00         8171 	.data.b	0
000000ee 00         8172 	.data.b	0
000000ef 00         8173 	.data.b	0
                    8174 .LDW_unq_a:
                    8175 	.section	.debug_line
00000803 020500     8176 	.data.b	0,5,2
00000806 00000000*  8177 	.data.w	CanTp_CanIfTransmitFrame..C.3A.5CVector.5CCBD1800257_D01_S32K1xx.5CApplications.5CS32K144_Start_new.5CAppl.5Cobj.5CCanTp.
0000080a 06         8178 	.data.b	6
0000080b 03         8179 	.data.b	3
0000080c 18fe       8180 	.data.b	254,24
0000080e 02         8181 	.data.b	2
0000080f 00         8182 	.data.b	0
00000810 01         8183 	.data.b	1
00000811 03         8184 	.data.b	3
00000812 0e         8185 	.data.b	14
00000813 02         8186 	.data.b	2
00000814 04         8187 	.data.b	4
00000815 01         8188 	.data.b	1
00000816 03         8189 	.data.b	3
00000817 07         8190 	.data.b	7
00000818 02         8191 	.data.b	2
00000819 04         8192 	.data.b	4
0000081a 01         8193 	.data.b	1
0000081b 020500     8194 	.data.b	0,5,2
0000081e 00000000*  8195 	.data.w	.LDWlin32
00000822 0b         8196 	.data.b	11
00000823 0c         8197 	.data.b	12
00000824 23         8198 	.data.b	35
00000825 13         8199 	.data.b	19
00000826 0c         8200 	.data.b	12
00000827 1b         8201 	.data.b	27
00000828 020500     8202 	.data.b	0,5,2

                                                                      Page 157
                                                              C:\Users\Fengyuan\AppData\Local\Temp\gh_0000kos1.s
0000082b 00000000*  8203 	.data.w	.LDWlin33
0000082f 0d         8204 	.data.b	13
00000830 02         8205 	.data.b	2
00000831 00         8206 	.data.b	0
00000832 0c         8207 	.data.b	12
00000833 0d         8208 	.data.b	13
00000834 0c         8209 	.data.b	12
00000835 03         8210 	.data.b	3
00000836 13         8211 	.data.b	19
00000837 02         8212 	.data.b	2
00000838 02         8213 	.data.b	2
00000839 01         8214 	.data.b	1
0000083a 02         8215 	.data.b	2
0000083b 00         8216 	.data.b	0
0000083c 0c         8217 	.data.b	12
0000083d 02         8218 	.data.b	2
0000083e 02         8219 	.data.b	2
0000083f 010100     8220 	.data.b	0,1,1
                    8221 	.section	.debug_info
                    8222 .LDW_6070720:
00002334 11         8223 	.data.b	17
00002335 75645070   8224 	.data.b	112,80,100,117,84,120,68,97,116,97,0
00002339 61447854 
0000233d 006174 
00002340 18fd       8225 	.data.b	253,24
00002342 0184       8226 	.data.b	132,1
00002344 01         8227 	.data.b	1
00002345 00000000*  8228 	.data.w	.LDW_5e1d890
00002349 00         8229 	.data.b	0
0000234a 5401       8230 	.data.b	1,84
                    8231 
                    8232 .LDW_6070a90:
0000234c 11         8233 	.data.b	17
0000234d 44705470   8234 	.data.b	112,84,112,68,97,116,97,0
00002351 00617461 
00002355 18fe       8235 	.data.b	254,24
00002357 7a         8236 	.data.b	122
00002358 01         8237 	.data.b	1
00002359 00000000*  8238 	.data.w	.LDW_5e1d7b0
0000235d 00         8239 	.data.b	0
0000235e 5101       8240 	.data.b	1,81
                    8241 
                    8242 .LDW_5e1e098:
00002360 1f         8243 	.data.b	31
00002361 00000000*  8244 	.data.w	.LDW62
00002365 00000000*  8245 	.data.w	.LDW72
                    8246 
                    8247 .LDW_60701f8:
00002369 06         8248 	.data.b	6
0000236a 6e61436c   8249 	.data.b	108,67,97,110,73,102,82,101,115,117,108,116,0
0000236e 65526649 
00002372 746c7573 
00002376 00 
00002377 1980       8250 	.data.b	128,25
00002379 17         8251 	.data.b	23
0000237a 01         8252 	.data.b	1
0000237b 00000000*  8253 	.data.w	.LDW_6070300
0000237f 00         8254 	.data.b	0
00002380 00         8255 	.data.b	0
00002381 5001       8256 	.data.b	1,80
                    8257 

                                                                      Page 158
                                                              C:\Users\Fengyuan\AppData\Local\Temp\gh_0000kos1.s
00002383 00         8258 	.data.b	0
                    8259 
00002384 00         8260 	.data.b	0
                    8261 
                    8262 .LDW_606f1b8:
00002385 15         8263 	.data.b	21
00002386 546e6143   8264 	.data.b	67,97,110,84,112,95,82,120,73,110,105,116,0
0000238a 78525f70 
0000238e 74696e49 
00002392 00 
00002393 19cd       8265 	.data.b	205,25
00002395 24         8266 	.data.b	36
00002396 01         8267 	.data.b	1
00002397 00000000*  8268 	.data.w	CanTp_RxInit..C.3A.5CVector.5CCBD1800257_D01_S32K1xx.5CApplications.5CS32K144_Start_new.5CAppl.5Cobj.5CCanTp.
0000239b 00000000*  8269 	.data.w	__ghs_eofn_CanTp_RxInit
0000239f 5d01       8270 	.data.b	1,93
000023a1 0181f0     8271 	.data.b	240,129,1
000023a4 70         8272 	.data.b	112
000023a5 00         8273 	.data.b	0
000023a6 1c         8274 	.data.b	28
000023a7 01         8275 	.data.b	1
000023a8 00         8276 	.data.b	0
000023a9 00         8277 	.data.b	0
000023aa 00         8278 	.data.b	0
000023ab 01         8279 	.data.b	1
000023ac 00         8280 	.data.b	0
000023ad 01         8281 	.data.b	1
                    8282 
                    8283 	.section	.debug_frame
                    8284 .LDW_61552c0:
000000f0 00000000*  8285 	.data.w	.LDW_unq_c-.LDW_unq_b
                    8286 .LDW_unq_b:
000000f4 00000000*  8287 	.data.w	.LDW_5fd7438
000000f8 00000000*  8288 	.data.w	CanTp_RxInit..C.3A.5CVector.5CCBD1800257_D01_S32K1xx.5CApplications.5CS32K144_Start_new.5CAppl.5Cobj.5CCanTp.
000000fc 00000082   8289 	.data.w	__ghs_eofn_CanTp_RxInit-CanTp_RxInit..C.3A.5CVector.5CCBD1800257_D01_S32K1xx.5CApplications.5CS32K144_Start_new.5CAppl.5Cobj.5CCanTp.
00000100 01         8290 	.data.b	1
00000101 00000000*  8291 	.data.w	.LDW92
00000105 00         8292 	.data.b	0
00000106 00         8293 	.data.b	0
00000107 00         8294 	.data.b	0
                    8295 .LDW_unq_c:
                    8296 	.section	.debug_line
00000842 020500     8297 	.data.b	0,5,2
00000845 00000000*  8298 	.data.w	CanTp_RxInit..C.3A.5CVector.5CCBD1800257_D01_S32K1xx.5CApplications.5CS32K144_Start_new.5CAppl.5Cobj.5CCanTp.
00000849 06         8299 	.data.b	6
0000084a 03         8300 	.data.b	3
0000084b 19cd       8301 	.data.b	205,25
0000084d 02         8302 	.data.b	2
0000084e 00         8303 	.data.b	0
0000084f 01         8304 	.data.b	1
00000850 3d         8305 	.data.b	61
00000851 1b         8306 	.data.b	27
00000852 1d         8307 	.data.b	29
00000853 020500     8308 	.data.b	0,5,2
00000856 00000000*  8309 	.data.w	.LDWlin34
0000085a 0b         8310 	.data.b	11
0000085b 03         8311 	.data.b	3
0000085c 06         8312 	.data.b	6
0000085d 02         8313 	.data.b	2
0000085e 00         8314 	.data.b	0
0000085f 01         8315 	.data.b	1

                                                                      Page 159
                                                              C:\Users\Fengyuan\AppData\Local\Temp\gh_0000kos1.s
00000860 1b         8316 	.data.b	27
00000861 1d         8317 	.data.b	29
00000862 02         8318 	.data.b	2
00000863 00         8319 	.data.b	0
00000864 03         8320 	.data.b	3
00000865 05         8321 	.data.b	5
00000866 02         8322 	.data.b	2
00000867 00         8323 	.data.b	0
00000868 01         8324 	.data.b	1
00000869 020500     8325 	.data.b	0,5,2
0000086c 00000000*  8326 	.data.w	.LDWlin35
00000870 0b         8327 	.data.b	11
00000871 0c         8328 	.data.b	12
00000872 020500     8329 	.data.b	0,5,2
00000875 00000000*  8330 	.data.w	.LDWlin36
00000879 0c         8331 	.data.b	12
0000087a 0b         8332 	.data.b	11
0000087b 13         8333 	.data.b	19
0000087c 02         8334 	.data.b	2
0000087d 00         8335 	.data.b	0
0000087e 0b         8336 	.data.b	11
0000087f 02         8337 	.data.b	2
00000880 00         8338 	.data.b	0
00000881 03         8339 	.data.b	3
00000882 04         8340 	.data.b	4
00000883 02         8341 	.data.b	2
00000884 00         8342 	.data.b	0
00000885 01         8343 	.data.b	1
00000886 8c         8344 	.data.b	140
00000887 1b         8345 	.data.b	27
00000888 0c         8346 	.data.b	12
00000889 1b         8347 	.data.b	27
0000088a 02         8348 	.data.b	2
0000088b 00         8349 	.data.b	0
0000088c 03         8350 	.data.b	3
0000088d 0c         8351 	.data.b	12
0000088e 02         8352 	.data.b	2
0000088f 00         8353 	.data.b	0
00000890 01         8354 	.data.b	1
00000891 1b         8355 	.data.b	27
00000892 0b         8356 	.data.b	11
00000893 53         8357 	.data.b	83
00000894 02         8358 	.data.b	2
00000895 00         8359 	.data.b	0
00000896 0d         8360 	.data.b	13
00000897 020500     8361 	.data.b	0,5,2
0000089a 00000000*  8362 	.data.w	.LDWlin37
0000089e 0b         8363 	.data.b	11
0000089f 0b         8364 	.data.b	11
000008a0 3b         8365 	.data.b	59
000008a1 02         8366 	.data.b	2
000008a2 00         8367 	.data.b	0
000008a3 03         8368 	.data.b	3
000008a4 08         8369 	.data.b	8
000008a5 02         8370 	.data.b	2
000008a6 00         8371 	.data.b	0
000008a7 01         8372 	.data.b	1
000008a8 02         8373 	.data.b	2
000008a9 04         8374 	.data.b	4
000008aa 010100     8375 	.data.b	0,1,1
                    8376 	.section	.debug_info

                                                                      Page 160
                                                              C:\Users\Fengyuan\AppData\Local\Temp\gh_0000kos1.s
                    8377 .LDW_6070ae8:
000023ae 11         8378 	.data.b	17
000023af 52705470   8379 	.data.b	112,84,112,82,120,83,116,97,116,101,0
000023b3 61745378 
000023b7 006574 
000023ba 19cd       8380 	.data.b	205,25
000023bc 46         8381 	.data.b	70
000023bd 01         8382 	.data.b	1
000023be 00000000*  8383 	.data.w	.LDW_5d787b0
000023c2 00         8384 	.data.b	0
000023c3 5401       8385 	.data.b	1,84
                    8386 
                    8387 .LDW_6070148:
000023c5 11         8388 	.data.b	17
000023c6 69746f4e   8389 	.data.b	78,111,116,105,102,121,67,111,100,101,0
000023ca 6f437966 
000023ce 006564 
000023d1 19cd       8390 	.data.b	205,25
000023d3 69         8391 	.data.b	105
000023d4 01         8392 	.data.b	1
000023d5 00000000*  8393 	.data.w	.LDW_6070778
000023d9 00         8394 	.data.b	0
000023da 5601       8395 	.data.b	1,86
                    8396 
                    8397 .LDW_60701a0:
000023dc 11         8398 	.data.b	17
000023dd 45746544   8399 	.data.b	68,101,116,69,114,114,111,114,0
000023e1 726f7272 
000023e5 00 
000023e6 19cd       8400 	.data.b	205,25
000023e8 7b         8401 	.data.b	123
000023e9 01         8402 	.data.b	1
000023ea 00000000*  8403 	.data.w	.LDW_4b7ea10
000023ee 00         8404 	.data.b	0
000023ef 5701       8405 	.data.b	1,87
                    8406 
                    8407 .LDW_60702a8:
000023f1 11         8408 	.data.b	17
000023f2 65736552   8409 	.data.b	82,101,115,101,116,82,101,113,117,101,115,116,0
000023f6 71655274 
000023fa 74736575 
000023fe 00 
000023ff 19cd       8410 	.data.b	205,25
00002401 019c       8411 	.data.b	156,1
00002403 01         8412 	.data.b	1
00002404 00000000*  8413 	.data.w	.LDW_6070098
00002408 00         8414 	.data.b	0
00002409 7d02       8415 	.data.b	2,125
0000240b 08         8416 	.data.b	8
                    8417 
                    8418 .LDW_5e1e608:
0000240c 1f         8419 	.data.b	31
0000240d 00000000*  8420 	.data.w	.LDW82
00002411 00000000*  8421 	.data.w	.LDW92
                    8422 
                    8423 .LDW_6070358:
00002415 06         8424 	.data.b	6
00002416 646e496c   8425 	.data.b	108,73,110,100,105,99,97,116,105,111,110,80,100,117,82,0
0000241a 74616369 
0000241e 506e6f69 
00002422 00527564 

                                                                      Page 161
                                                              C:\Users\Fengyuan\AppData\Local\Temp\gh_0000kos1.s
00002426 19d1       8426 	.data.b	209,25
00002428 0a         8427 	.data.b	10
00002429 01         8428 	.data.b	1
0000242a 00000000*  8429 	.data.w	.LDW_4b7ea10
0000242e 00         8430 	.data.b	0
0000242f 00         8431 	.data.b	0
00002430 7d02       8432 	.data.b	2,125
00002432 04         8433 	.data.b	4
                    8434 
                    8435 .LDW_6070e58:
00002433 06         8436 	.data.b	6
00002434 4878526c   8437 	.data.b	108,82,120,72,100,108,0
00002438 006c64 
0000243b 19d2       8438 	.data.b	210,25
0000243d 0d         8439 	.data.b	13
0000243e 01         8440 	.data.b	1
0000243f 00000000*  8441 	.data.w	.LDW_5d78d88
00002443 00         8442 	.data.b	0
00002444 00         8443 	.data.b	0
00002445 7d02       8444 	.data.b	2,125
00002447 00         8445 	.data.b	0
                    8446 
00002448 00         8447 	.data.b	0
                    8448 
00002449 00         8449 	.data.b	0
                    8450 
                    8451 .LDW_606fc68:
0000244a 15         8452 	.data.b	21
0000244b 546e6143   8453 	.data.b	67,97,110,84,112,95,84,120,73,110,105,116,0
0000244f 78545f70 
00002453 74696e49 
00002457 00 
00002458 1aa4       8454 	.data.b	164,26
0000245a 24         8455 	.data.b	36
0000245b 01         8456 	.data.b	1
0000245c 00000000*  8457 	.data.w	CanTp_TxInit..C.3A.5CVector.5CCBD1800257_D01_S32K1xx.5CApplications.5CS32K144_Start_new.5CAppl.5Cobj.5CCanTp.
00002460 00000000*  8458 	.data.w	__ghs_eofn_CanTp_TxInit
00002464 5d01       8459 	.data.b	1,93
00002466 0180f0     8460 	.data.b	240,128,1
00002469 74         8461 	.data.b	116
0000246a 00         8462 	.data.b	0
0000246b 0c         8463 	.data.b	12
0000246c 01         8464 	.data.b	1
0000246d 00         8465 	.data.b	0
0000246e 00         8466 	.data.b	0
0000246f 00         8467 	.data.b	0
00002470 01         8468 	.data.b	1
00002471 00         8469 	.data.b	0
00002472 01         8470 	.data.b	1
                    8471 
                    8472 	.section	.debug_frame
                    8473 .LDW_6155380:
00000108 00000000*  8474 	.data.w	.LDW_unq_e-.LDW_unq_d
                    8475 .LDW_unq_d:
0000010c 00000000*  8476 	.data.w	.LDW_5fd7438
00000110 00000000*  8477 	.data.w	CanTp_TxInit..C.3A.5CVector.5CCBD1800257_D01_S32K1xx.5CApplications.5CS32K144_Start_new.5CAppl.5Cobj.5CCanTp.
00000114 00000052   8478 	.data.w	__ghs_eofn_CanTp_TxInit-CanTp_TxInit..C.3A.5CVector.5CCBD1800257_D01_S32K1xx.5CApplications.5CS32K144_Start_new.5CAppl.5Cobj.5CCanTp.
00000118 01         8479 	.data.b	1
00000119 00000000*  8480 	.data.w	.LDW13
0000011d 00         8481 	.data.b	0
0000011e 00         8482 	.data.b	0

                                                                      Page 162
                                                              C:\Users\Fengyuan\AppData\Local\Temp\gh_0000kos1.s
0000011f 00         8483 	.data.b	0
                    8484 .LDW_unq_e:
                    8485 	.section	.debug_line
000008ad 020500     8486 	.data.b	0,5,2
000008b0 00000000*  8487 	.data.w	CanTp_TxInit..C.3A.5CVector.5CCBD1800257_D01_S32K1xx.5CApplications.5CS32K144_Start_new.5CAppl.5Cobj.5CCanTp.
000008b4 06         8488 	.data.b	6
000008b5 03         8489 	.data.b	3
000008b6 1aa4       8490 	.data.b	164,26
000008b8 02         8491 	.data.b	2
000008b9 00         8492 	.data.b	0
000008ba 01         8493 	.data.b	1
000008bb 03         8494 	.data.b	3
000008bc 07         8495 	.data.b	7
000008bd 02         8496 	.data.b	2
000008be 08         8497 	.data.b	8
000008bf 01         8498 	.data.b	1
000008c0 020500     8499 	.data.b	0,5,2
000008c3 00000000*  8500 	.data.w	.LDWlin38
000008c7 0b         8501 	.data.b	11
000008c8 03         8502 	.data.b	3
000008c9 07         8503 	.data.b	7
000008ca 02         8504 	.data.b	2
000008cb 00         8505 	.data.b	0
000008cc 01         8506 	.data.b	1
000008cd 1b         8507 	.data.b	27
000008ce 1d         8508 	.data.b	29
000008cf 02         8509 	.data.b	2
000008d0 00         8510 	.data.b	0
000008d1 03         8511 	.data.b	3
000008d2 04         8512 	.data.b	4
000008d3 02         8513 	.data.b	2
000008d4 00         8514 	.data.b	0
000008d5 01         8515 	.data.b	1
000008d6 03         8516 	.data.b	3
000008d7 09         8517 	.data.b	9
000008d8 02         8518 	.data.b	2
000008d9 22         8519 	.data.b	34
000008da 01         8520 	.data.b	1
000008db 25         8521 	.data.b	37
000008dc 020500     8522 	.data.b	0,5,2
000008df 00000000*  8523 	.data.w	.LDWlin39
000008e3 0b         8524 	.data.b	11
000008e4 0b         8525 	.data.b	11
000008e5 3b         8526 	.data.b	59
000008e6 02         8527 	.data.b	2
000008e7 00         8528 	.data.b	0
000008e8 03         8529 	.data.b	3
000008e9 07         8530 	.data.b	7
000008ea 02         8531 	.data.b	2
000008eb 00         8532 	.data.b	0
000008ec 01         8533 	.data.b	1
000008ed 02         8534 	.data.b	2
000008ee 02         8535 	.data.b	2
000008ef 010100     8536 	.data.b	0,1,1
                    8537 	.section	.debug_info
                    8538 .LDW_6070ca0:
00002473 11         8539 	.data.b	17
00002474 54705470   8540 	.data.b	112,84,112,84,120,83,116,97,116,101,0
00002478 61745378 
0000247c 006574 
0000247f 1aa4       8541 	.data.b	164,26

                                                                      Page 163
                                                              C:\Users\Fengyuan\AppData\Local\Temp\gh_0000kos1.s
00002481 46         8542 	.data.b	70
00002482 01         8543 	.data.b	1
00002483 00000000*  8544 	.data.w	.LDW_5ed03f8
00002487 00         8545 	.data.b	0
00002488 5401       8546 	.data.b	1,84
                    8547 
                    8548 .LDW_6071010:
0000248a 11         8549 	.data.b	17
0000248b 69746f4e   8550 	.data.b	78,111,116,105,102,121,67,111,100,101,0
0000248f 6f437966 
00002493 006564 
00002496 1aa4       8551 	.data.b	164,26
00002498 69         8552 	.data.b	105
00002499 01         8553 	.data.b	1
0000249a 00000000*  8554 	.data.w	.LDW_6070778
0000249e 00         8555 	.data.b	0
0000249f 5601       8556 	.data.b	1,86
                    8557 
                    8558 .LDW_6070bf0:
000024a1 11         8559 	.data.b	17
000024a2 45746544   8560 	.data.b	68,101,116,69,114,114,111,114,0
000024a6 726f7272 
000024aa 00 
000024ab 1aa4       8561 	.data.b	164,26
000024ad 7b         8562 	.data.b	123
000024ae 01         8563 	.data.b	1
000024af 00000000*  8564 	.data.w	.LDW_4b7ea10
000024b3 00         8565 	.data.b	0
000024b4 5501       8566 	.data.b	1,85
                    8567 
                    8568 .LDW_5e1e578:
000024b6 1f         8569 	.data.b	31
000024b7 00000000*  8570 	.data.w	.LDW03
000024bb 00000000*  8571 	.data.w	.LDW13
                    8572 
                    8573 .LDW_6070eb0:
000024bf 07         8574 	.data.b	7
000024c0 4878546c   8575 	.data.b	108,84,120,72,100,108,0
000024c4 006c64 
000024c7 1aa8       8576 	.data.b	168,26
000024c9 0d         8577 	.data.b	13
000024ca 01         8578 	.data.b	1
000024cb 00000000*  8579 	.data.w	.LDW_5d78d88
000024cf 00         8580 	.data.b	0
000024d0 00         8581 	.data.b	0
                    8582 
000024d1 00         8583 	.data.b	0
                    8584 
000024d2 00         8585 	.data.b	0
                    8586 
                    8587 .LDW_606f710:
000024d3 15         8588 	.data.b	21
000024d4 546e6143   8589 	.data.b	67,97,110,84,112,95,82,101,115,101,116,67,104,97,110,110,101,108,115,0
000024d8 65525f70 
000024dc 43746573 
000024e0 6e6e6168 
000024e4 00736c65 
000024e8 1ae8       8590 	.data.b	232,26
000024ea 24         8591 	.data.b	36
000024eb 01         8592 	.data.b	1
000024ec 00000000*  8593 	.data.w	CanTp_ResetChannels..C.3A.5CVector.5CCBD1800257_D01_S32K1xx.5CApplications.5CS32K144_Start_new.5CAppl.5Cobj.5CCanTp.

                                                                      Page 164
                                                              C:\Users\Fengyuan\AppData\Local\Temp\gh_0000kos1.s
000024f0 00000000*  8594 	.data.w	__ghs_eofn_CanTp_ResetChannels
000024f4 5d01       8595 	.data.b	1,93
000024f6 00         8596 	.data.b	0
000024f7 04         8597 	.data.b	4
000024f8 00         8598 	.data.b	0
000024f9 7c         8599 	.data.b	124
000024fa 01         8600 	.data.b	1
000024fb 00         8601 	.data.b	0
000024fc 00         8602 	.data.b	0
000024fd 00         8603 	.data.b	0
000024fe 01         8604 	.data.b	1
000024ff 00         8605 	.data.b	0
00002500 01         8606 	.data.b	1
                    8607 
                    8608 	.section	.debug_frame
                    8609 .LDW_61556c0:
00000120 00000000*  8610 	.data.w	.LDW_unq_10-.LDW_unq_f
                    8611 .LDW_unq_f:
00000124 00000000*  8612 	.data.w	.LDW_5fd7438
00000128 00000000*  8613 	.data.w	CanTp_ResetChannels..C.3A.5CVector.5CCBD1800257_D01_S32K1xx.5CApplications.5CS32K144_Start_new.5CAppl.5Cobj.5CCanTp.
0000012c 00000052   8614 	.data.w	__ghs_eofn_CanTp_ResetChannels-CanTp_ResetChannels..C.3A.5CVector.5CCBD1800257_D01_S32K1xx.5CApplications.5CS32K144_Start_new.5CAppl.5Cobj.5CCanTp.
00000130 01         8615 	.data.b	1
00000131 00000000*  8616 	.data.w	.LDW93
00000135 00         8617 	.data.b	0
00000136 00         8618 	.data.b	0
00000137 00         8619 	.data.b	0
                    8620 .LDW_unq_10:
                    8621 	.section	.debug_line
000008f2 020500     8622 	.data.b	0,5,2
000008f5 00000000*  8623 	.data.w	CanTp_ResetChannels..C.3A.5CVector.5CCBD1800257_D01_S32K1xx.5CApplications.5CS32K144_Start_new.5CAppl.5Cobj.5CCanTp.
000008f9 06         8624 	.data.b	6
000008fa 03         8625 	.data.b	3
000008fb 1aed       8626 	.data.b	237,26
000008fd 02         8627 	.data.b	2
000008fe 00         8628 	.data.b	0
000008ff 01         8629 	.data.b	1
00000900 02         8630 	.data.b	2
00000901 02         8631 	.data.b	2
00000902 020500     8632 	.data.b	0,5,2
00000905 00000000*  8633 	.data.w	.LDWlin40
00000909 03         8634 	.data.b	3
0000090a 0c         8635 	.data.b	12
0000090b 02         8636 	.data.b	2
0000090c 00         8637 	.data.b	0
0000090d 01         8638 	.data.b	1
0000090e 03         8639 	.data.b	3
0000090f 11         8640 	.data.b	17
00000910 02         8641 	.data.b	2
00000911 00         8642 	.data.b	0
00000912 01         8643 	.data.b	1
00000913 0c         8644 	.data.b	12
00000914 03         8645 	.data.b	3
00000915 7e         8646 	.data.b	126
00000916 02         8647 	.data.b	2
00000917 26         8648 	.data.b	38
00000918 01         8649 	.data.b	1
00000919 020500     8650 	.data.b	0,5,2
0000091c 00000000*  8651 	.data.w	.LDWlin41
00000920 0d         8652 	.data.b	13
00000921 0d         8653 	.data.b	13
00000922 0c         8654 	.data.b	12

                                                                      Page 165
                                                              C:\Users\Fengyuan\AppData\Local\Temp\gh_0000kos1.s
00000923 63         8655 	.data.b	99
00000924 03         8656 	.data.b	3
00000925 0d         8657 	.data.b	13
00000926 02         8658 	.data.b	2
00000927 00         8659 	.data.b	0
00000928 01         8660 	.data.b	1
00000929 0d         8661 	.data.b	13
0000092a 1b         8662 	.data.b	27
0000092b 03         8663 	.data.b	3
0000092c 10         8664 	.data.b	16
0000092d 02         8665 	.data.b	2
0000092e 04         8666 	.data.b	4
0000092f 01         8667 	.data.b	1
00000930 0c         8668 	.data.b	12
00000931 02         8669 	.data.b	2
00000932 02         8670 	.data.b	2
00000933 010100     8671 	.data.b	0,1,1
                    8672 	.section	.debug_info
                    8673 .LDW_5e1e6c8:
00002501 1f         8674 	.data.b	31
00002502 00000000*  8675 	.data.w	.LDW23
00002506 00000000*  8676 	.data.w	.LDW93
                    8677 
                    8678 .LDW_5e1e548:
0000250a 1f         8679 	.data.b	31
0000250b 00000000*  8680 	.data.w	.LDW33
0000250f 00000000*  8681 	.data.w	.LDW43
                    8682 
                    8683 .LDW_6070da8:
00002513 07         8684 	.data.b	7
00002514 7564536c   8685 	.data.b	108,83,100,117,72,100,108,0
00002518 006c6448 
0000251c 1aeb       8686 	.data.b	235,26
0000251e 10         8687 	.data.b	16
0000251f 01         8688 	.data.b	1
00002520 00000000*  8689 	.data.w	.LDW_5d78d88
00002524 00         8690 	.data.b	0
00002525 00         8691 	.data.b	0
                    8692 
00002526 00         8693 	.data.b	0
                    8694 
                    8695 .LDW_5e1e668:
00002527 1f         8696 	.data.b	31
00002528 00000000*  8697 	.data.w	.LDW53
0000252c 00000000*  8698 	.data.w	.LDW63
                    8699 
                    8700 .LDW_6070f60:
00002530 07         8701 	.data.b	7
00002531 6168436c   8702 	.data.b	108,67,104,97,110,110,101,108,72,100,108,0
00002535 6c656e6e 
00002539 006c6448 
0000253d 1b88       8703 	.data.b	136,27
0000253f 10         8704 	.data.b	16
00002540 01         8705 	.data.b	1
00002541 00000000*  8706 	.data.w	.LDW_5d78d88
00002545 00         8707 	.data.b	0
00002546 00         8708 	.data.b	0
                    8709 
00002547 00         8710 	.data.b	0
                    8711 
                    8712 .LDW_5e1e5a8:

                                                                      Page 166
                                                              C:\Users\Fengyuan\AppData\Local\Temp\gh_0000kos1.s
00002548 1f         8713 	.data.b	31
00002549 00000000*  8714 	.data.w	.LDW73
0000254d 00000000*  8715 	.data.w	.LDW83
                    8716 
                    8717 .LDW_6070b98:
00002551 07         8718 	.data.b	7
00002552 4378546c   8719 	.data.b	108,84,120,67,111,110,102,72,100,108,0
00002556 48666e6f 
0000255a 006c64 
0000255d 1b9f       8720 	.data.b	159,27
0000255f 10         8721 	.data.b	16
00002560 01         8722 	.data.b	1
00002561 00000000*  8723 	.data.w	.LDW_5d78d88
00002565 00         8724 	.data.b	0
00002566 00         8725 	.data.b	0
                    8726 
00002567 00         8727 	.data.b	0
                    8728 
00002568 00         8729 	.data.b	0
                    8730 
00002569 00         8731 	.data.b	0
                    8732 
                    8733 .LDW_606fd00:
0000256a 15         8734 	.data.b	21
0000256b 546e6143   8735 	.data.b	67,97,110,84,112,95,82,120,71,101,116,66,117,102,102,101,114,0
0000256f 78525f70 
00002573 42746547 
00002577 65666675 
0000257b 0072 
0000257d 1bc5       8736 	.data.b	197,27
0000257f 24         8737 	.data.b	36
00002580 01         8738 	.data.b	1
00002581 00000000*  8739 	.data.w	CanTp_RxGetBuffer..C.3A.5CVector.5CCBD1800257_D01_S32K1xx.5CApplications.5CS32K144_Start_new.5CAppl.5Cobj.5CCanTp.
00002585 00000000*  8740 	.data.w	__ghs_eofn_CanTp_RxGetBuffer
00002589 5d01       8741 	.data.b	1,93
0000258b 0180f0     8742 	.data.b	240,128,1
0000258e 74         8743 	.data.b	116
0000258f 00         8744 	.data.b	0
00002590 34         8745 	.data.b	52
00002591 01         8746 	.data.b	1
00002592 00         8747 	.data.b	0
00002593 00         8748 	.data.b	0
00002594 00         8749 	.data.b	0
00002595 01         8750 	.data.b	1
00002596 00         8751 	.data.b	0
00002597 01         8752 	.data.b	1
                    8753 
                    8754 	.section	.debug_frame
                    8755 .LDW_6154600:
00000138 00000000*  8756 	.data.w	.LDW_unq_12-.LDW_unq_11
                    8757 .LDW_unq_11:
0000013c 00000000*  8758 	.data.w	.LDW_5fd7438
00000140 00000000*  8759 	.data.w	CanTp_RxGetBuffer..C.3A.5CVector.5CCBD1800257_D01_S32K1xx.5CApplications.5CS32K144_Start_new.5CAppl.5Cobj.5CCanTp.
00000144 000002d2   8760 	.data.w	__ghs_eofn_CanTp_RxGetBuffer-CanTp_RxGetBuffer..C.3A.5CVector.5CCBD1800257_D01_S32K1xx.5CApplications.5CS32K144_Start_new.5CAppl.5Cobj.5CCanTp.
00000148 01         8761 	.data.b	1
00000149 00000000*  8762 	.data.w	.LDW14
0000014d 00         8763 	.data.b	0
0000014e 00         8764 	.data.b	0
0000014f 00         8765 	.data.b	0
                    8766 .LDW_unq_12:
                    8767 	.section	.debug_line

                                                                      Page 167
                                                              C:\Users\Fengyuan\AppData\Local\Temp\gh_0000kos1.s
00000936 020500     8768 	.data.b	0,5,2
00000939 00000000*  8769 	.data.w	CanTp_RxGetBuffer..C.3A.5CVector.5CCBD1800257_D01_S32K1xx.5CApplications.5CS32K144_Start_new.5CAppl.5Cobj.5CCanTp.
0000093d 06         8770 	.data.b	6
0000093e 03         8771 	.data.b	3
0000093f 1bc5       8772 	.data.b	197,27
00000941 02         8773 	.data.b	2
00000942 00         8774 	.data.b	0
00000943 01         8775 	.data.b	1
00000944 03         8776 	.data.b	3
00000945 04         8777 	.data.b	4
00000946 02         8778 	.data.b	2
00000947 06         8779 	.data.b	6
00000948 01         8780 	.data.b	1
00000949 020500     8781 	.data.b	0,5,2
0000094c 00000000*  8782 	.data.w	.LDWlin42
00000950 0b         8783 	.data.b	11
00000951 0b         8784 	.data.b	11
00000952 23         8785 	.data.b	35
00000953 6d         8786 	.data.b	109
00000954 02         8787 	.data.b	2
00000955 00         8788 	.data.b	0
00000956 03         8789 	.data.b	3
00000957 04         8790 	.data.b	4
00000958 02         8791 	.data.b	2
00000959 00         8792 	.data.b	0
0000095a 01         8793 	.data.b	1
0000095b 020500     8794 	.data.b	0,5,2
0000095e 00000000*  8795 	.data.w	.LDWlin43
00000962 03         8796 	.data.b	3
00000963 14         8797 	.data.b	20
00000964 02         8798 	.data.b	2
00000965 00         8799 	.data.b	0
00000966 01         8800 	.data.b	1
00000967 0c         8801 	.data.b	12
00000968 0c         8802 	.data.b	12
00000969 3b         8803 	.data.b	59
0000096a 020500     8804 	.data.b	0,5,2
0000096d 00000000*  8805 	.data.w	.LDWlin44
00000971 02         8806 	.data.b	2
00000972 00         8807 	.data.b	0
00000973 020500     8808 	.data.b	0,5,2
00000976 00000000*  8809 	.data.w	.LDWlin45
0000097a 02         8810 	.data.b	2
0000097b 00         8811 	.data.b	0
0000097c 03         8812 	.data.b	3
0000097d 6b         8813 	.data.b	107
0000097e 02         8814 	.data.b	2
0000097f 00         8815 	.data.b	0
00000980 01         8816 	.data.b	1
00000981 020500     8817 	.data.b	0,5,2
00000984 00000000*  8818 	.data.w	.LDWlin46
00000988 0b         8819 	.data.b	11
00000989 03         8820 	.data.b	3
0000098a 04         8821 	.data.b	4
0000098b 02         8822 	.data.b	2
0000098c 00         8823 	.data.b	0
0000098d 01         8824 	.data.b	1
0000098e 020500     8825 	.data.b	0,5,2
00000991 00000000*  8826 	.data.w	.LDWlin47
00000995 0b         8827 	.data.b	11
00000996 03         8828 	.data.b	3

                                                                      Page 168
                                                              C:\Users\Fengyuan\AppData\Local\Temp\gh_0000kos1.s
00000997 04         8829 	.data.b	4
00000998 02         8830 	.data.b	2
00000999 00         8831 	.data.b	0
0000099a 01         8832 	.data.b	1
0000099b 020500     8833 	.data.b	0,5,2
0000099e 00000000*  8834 	.data.w	.LDWlin48
000009a2 0b         8835 	.data.b	11
000009a3 03         8836 	.data.b	3
000009a4 04         8837 	.data.b	4
000009a5 02         8838 	.data.b	2
000009a6 00         8839 	.data.b	0
000009a7 01         8840 	.data.b	1
000009a8 020500     8841 	.data.b	0,5,2
000009ab 00000000*  8842 	.data.w	.LDWlin49
000009af 03         8843 	.data.b	3
000009b0 07         8844 	.data.b	7
000009b1 02         8845 	.data.b	2
000009b2 00         8846 	.data.b	0
000009b3 01         8847 	.data.b	1
000009b4 0b         8848 	.data.b	11
000009b5 02         8849 	.data.b	2
000009b6 04         8850 	.data.b	4
000009b7 010100     8851 	.data.b	0,1,1
                    8852 	.section	.debug_info
                    8853 .LDW_6070c48:
00002598 11         8854 	.data.b	17
00002599 52705470   8855 	.data.b	112,84,112,82,120,83,116,97,116,101,0
0000259d 61745378 
000025a1 006574 
000025a4 1bc5       8856 	.data.b	197,27
000025a6 4b         8857 	.data.b	75
000025a7 01         8858 	.data.b	1
000025a8 00000000*  8859 	.data.w	.LDW_5d787b0
000025ac 00         8860 	.data.b	0
000025ad 5501       8861 	.data.b	1,85
                    8862 
                    8863 .LDW_5e1eae0:
000025af 1f         8864 	.data.b	31
000025b0 00000000*  8865 	.data.w	.LDW04
000025b4 00000000*  8866 	.data.w	.LDW14
                    8867 
                    8868 .LDW_6070cf8:
000025b8 06         8869 	.data.b	6
000025b9 7564506c   8870 	.data.b	108,80,100,117,73,110,102,111,0
000025bd 6f666e49 
000025c1 00 
000025c2 1bc7       8871 	.data.b	199,27
000025c4 1b         8872 	.data.b	27
000025c5 01         8873 	.data.b	1
000025c6 00000000*  8874 	.data.w	.LDW_5d78d30
000025ca 00         8875 	.data.b	0
000025cb 00         8876 	.data.b	0
000025cc 7d02       8877 	.data.b	2,125
000025ce 20         8878 	.data.b	32
                    8879 
000025cf 00         8880 	.data.b	0
                    8881 
000025d0 00         8882 	.data.b	0
                    8883 
                    8884 .LDW_606fa08:
000025d1 15         8885 	.data.b	21

                                                                      Page 169
                                                              C:\Users\Fengyuan\AppData\Local\Temp\gh_0000kos1.s
000025d2 546e6143   8886 	.data.b	67,97,110,84,112,95,84,120,71,101,116,66,117,102,102,101,114,0
000025d6 78545f70 
000025da 42746547 
000025de 65666675 
000025e2 0072 
000025e4 1c83       8887 	.data.b	131,28
000025e6 24         8888 	.data.b	36
000025e7 01         8889 	.data.b	1
000025e8 00000000*  8890 	.data.w	CanTp_TxGetBuffer..C.3A.5CVector.5CCBD1800257_D01_S32K1xx.5CApplications.5CS32K144_Start_new.5CAppl.5Cobj.5CCanTp.
000025ec 00000000*  8891 	.data.w	__ghs_eofn_CanTp_TxGetBuffer
000025f0 5d01       8892 	.data.b	1,93
000025f2 0180f0     8893 	.data.b	240,128,1
000025f5 74         8894 	.data.b	116
000025f6 00         8895 	.data.b	0
000025f7 18         8896 	.data.b	24
000025f8 01         8897 	.data.b	1
000025f9 00         8898 	.data.b	0
000025fa 00         8899 	.data.b	0
000025fb 00         8900 	.data.b	0
000025fc 01         8901 	.data.b	1
000025fd 00         8902 	.data.b	0
000025fe 01         8903 	.data.b	1
                    8904 
                    8905 	.section	.debug_frame
                    8906 .LDW_6153fc0:
00000150 00000000*  8907 	.data.w	.LDW_unq_14-.LDW_unq_13
                    8908 .LDW_unq_13:
00000154 00000000*  8909 	.data.w	.LDW_5fd7438
00000158 00000000*  8910 	.data.w	CanTp_TxGetBuffer..C.3A.5CVector.5CCBD1800257_D01_S32K1xx.5CApplications.5CS32K144_Start_new.5CAppl.5Cobj.5CCanTp.
0000015c 00000084   8911 	.data.w	__ghs_eofn_CanTp_TxGetBuffer-CanTp_TxGetBuffer..C.3A.5CVector.5CCBD1800257_D01_S32K1xx.5CApplications.5CS32K144_Start_new.5CAppl.5Cobj.5CCanTp.
00000160 01         8912 	.data.b	1
00000161 00000000*  8913 	.data.w	.LDW34
00000165 00         8914 	.data.b	0
00000166 00         8915 	.data.b	0
00000167 00         8916 	.data.b	0
                    8917 .LDW_unq_14:
                    8918 	.section	.debug_line
000009ba 020500     8919 	.data.b	0,5,2
000009bd 00000000*  8920 	.data.w	CanTp_TxGetBuffer..C.3A.5CVector.5CCBD1800257_D01_S32K1xx.5CApplications.5CS32K144_Start_new.5CAppl.5Cobj.5CCanTp.
000009c1 06         8921 	.data.b	6
000009c2 03         8922 	.data.b	3
000009c3 1c83       8923 	.data.b	131,28
000009c5 02         8924 	.data.b	2
000009c6 00         8925 	.data.b	0
000009c7 01         8926 	.data.b	1
000009c8 03         8927 	.data.b	3
000009c9 08         8928 	.data.b	8
000009ca 02         8929 	.data.b	2
000009cb 06         8930 	.data.b	6
000009cc 01         8931 	.data.b	1
000009cd 020500     8932 	.data.b	0,5,2
000009d0 00000000*  8933 	.data.w	.LDWlin50
000009d4 03         8934 	.data.b	3
000009d5 21         8935 	.data.b	33
000009d6 02         8936 	.data.b	2
000009d7 00         8937 	.data.b	0
000009d8 01         8938 	.data.b	1
000009d9 02         8939 	.data.b	2
000009da 00         8940 	.data.b	0
000009db 0b         8941 	.data.b	11
000009dc 0c         8942 	.data.b	12

                                                                      Page 170
                                                              C:\Users\Fengyuan\AppData\Local\Temp\gh_0000kos1.s
000009dd 0c         8943 	.data.b	12
000009de 3b         8944 	.data.b	59
000009df 020500     8945 	.data.b	0,5,2
000009e2 00000000*  8946 	.data.w	.LDWlin51
000009e6 03         8947 	.data.b	3
000009e7 5d         8948 	.data.b	93
000009e8 02         8949 	.data.b	2
000009e9 00         8950 	.data.b	0
000009ea 01         8951 	.data.b	1
000009eb 1b         8952 	.data.b	27
000009ec 13         8953 	.data.b	19
000009ed 020500     8954 	.data.b	0,5,2
000009f0 00000000*  8955 	.data.w	.LDWlin52
000009f4 03         8956 	.data.b	3
000009f5 0c         8957 	.data.b	12
000009f6 02         8958 	.data.b	2
000009f7 00         8959 	.data.b	0
000009f8 01         8960 	.data.b	1
000009f9 0b         8961 	.data.b	11
000009fa 1c         8962 	.data.b	28
000009fb 13         8963 	.data.b	19
000009fc 020500     8964 	.data.b	0,5,2
000009ff 00000000*  8965 	.data.w	.LDWlin53
00000a03 03         8966 	.data.b	3
00000a04 04         8967 	.data.b	4
00000a05 02         8968 	.data.b	2
00000a06 00         8969 	.data.b	0
00000a07 01         8970 	.data.b	1
00000a08 1b         8971 	.data.b	27
00000a09 14         8972 	.data.b	20
00000a0a 020500     8973 	.data.b	0,5,2
00000a0d 00000000*  8974 	.data.w	.LDWlin54
00000a11 0b         8975 	.data.b	11
00000a12 0c         8976 	.data.b	12
00000a13 03         8977 	.data.b	3
00000a14 08         8978 	.data.b	8
00000a15 02         8979 	.data.b	2
00000a16 06         8980 	.data.b	6
00000a17 01         8981 	.data.b	1
00000a18 02         8982 	.data.b	2
00000a19 00         8983 	.data.b	0
00000a1a 03         8984 	.data.b	3
00000a1b 04         8985 	.data.b	4
00000a1c 02         8986 	.data.b	2
00000a1d 00         8987 	.data.b	0
00000a1e 01         8988 	.data.b	1
00000a1f 23         8989 	.data.b	35
00000a20 1b         8990 	.data.b	27
00000a21 03         8991 	.data.b	3
00000a22 05         8992 	.data.b	5
00000a23 02         8993 	.data.b	2
00000a24 10         8994 	.data.b	16
00000a25 01         8995 	.data.b	1
00000a26 13         8996 	.data.b	19
00000a27 0c         8997 	.data.b	12
00000a28 1b         8998 	.data.b	27
00000a29 13         8999 	.data.b	19
00000a2a 020500     9000 	.data.b	0,5,2
00000a2d 00000000*  9001 	.data.w	.LDWlin55
00000a31 0b         9002 	.data.b	11
00000a32 0c         9003 	.data.b	12

                                                                      Page 171
                                                              C:\Users\Fengyuan\AppData\Local\Temp\gh_0000kos1.s
00000a33 0b         9004 	.data.b	11
00000a34 020500     9005 	.data.b	0,5,2
00000a37 00000000*  9006 	.data.w	.LDWlin56
00000a3b 0b         9007 	.data.b	11
00000a3c 0c         9008 	.data.b	12
00000a3d 33         9009 	.data.b	51
00000a3e 02         9010 	.data.b	2
00000a3f 00         9011 	.data.b	0
00000a40 0c         9012 	.data.b	12
00000a41 02         9013 	.data.b	2
00000a42 00         9014 	.data.b	0
00000a43 03         9015 	.data.b	3
00000a44 05         9016 	.data.b	5
00000a45 02         9017 	.data.b	2
00000a46 00         9018 	.data.b	0
00000a47 01         9019 	.data.b	1
00000a48 02         9020 	.data.b	2
00000a49 04         9021 	.data.b	4
00000a4a 010100     9022 	.data.b	0,1,1
                    9023 	.section	.debug_info
                    9024 .LDW_6070d50:
000025ff 11         9025 	.data.b	17
00002600 54705470   9026 	.data.b	112,84,112,84,120,83,116,97,116,101,0
00002604 61745378 
00002608 006574 
0000260b 1c83       9027 	.data.b	131,28
0000260d 4b         9028 	.data.b	75
0000260e 01         9029 	.data.b	1
0000260f 00000000*  9030 	.data.w	.LDW_5ed03f8
00002613 00         9031 	.data.b	0
00002614 5401       9032 	.data.b	1,84
                    9033 
                    9034 .LDW_5e1e810:
00002616 1f         9035 	.data.b	31
00002617 00000000*  9036 	.data.w	.LDW24
0000261b 00000000*  9037 	.data.w	.LDW34
                    9038 
                    9039 .LDW_6070e00:
0000261f 06         9040 	.data.b	6
00002620 7564506c   9041 	.data.b	108,80,100,117,73,110,102,111,0
00002624 6f666e49 
00002628 00 
00002629 1c87       9042 	.data.b	135,28
0000262b 1d         9043 	.data.b	29
0000262c 01         9044 	.data.b	1
0000262d 00000000*  9045 	.data.w	.LDW_5d78d30
00002631 00         9046 	.data.b	0
00002632 00         9047 	.data.b	0
00002633 7d02       9048 	.data.b	2,125
00002635 04         9049 	.data.b	4
                    9050 
                    9051 .LDW_6070fb8:
00002636 06         9052 	.data.b	6
00002637 77654e6c   9053 	.data.b	108,78,101,119,67,104,97,110,110,101,108,83,116,97,116,101,0
0000263b 6e616843 
0000263f 536c656e 
00002643 65746174 
00002647 00 
00002648 1c88       9054 	.data.b	136,28
0000264a 1d         9055 	.data.b	29
0000264b 01         9056 	.data.b	1

                                                                      Page 172
                                                              C:\Users\Fengyuan\AppData\Local\Temp\gh_0000kos1.s
0000264c 00000000*  9057 	.data.w	.LDW_6070f08
00002650 00         9058 	.data.b	0
00002651 00         9059 	.data.b	0
00002652 5501       9060 	.data.b	1,85
                    9061 
                    9062 .LDW_60a18a0:
00002654 06         9063 	.data.b	6
00002655 6d65526c   9064 	.data.b	108,82,101,109,97,105,110,105,110,103,66,117,102,102,101,114,83,105,122,101,0
00002659 696e6961 
0000265d 7542676e 
00002661 72656666 
00002665 657a6953 
00002669 00 
0000266a 1c89       9065 	.data.b	137,28
0000266c 1d         9066 	.data.b	29
0000266d 01         9067 	.data.b	1
0000266e 00000000*  9068 	.data.w	.LDW_5ed05b0
00002672 00         9069 	.data.b	0
00002673 00         9070 	.data.b	0
00002674 7d02       9071 	.data.b	2,125
00002676 02         9072 	.data.b	2
                    9073 
00002677 00         9074 	.data.b	0
                    9075 
00002678 00         9076 	.data.b	0
                    9077 
                    9078 .LDW_606f418:
00002679 15         9079 	.data.b	21
0000267a 546e6143   9080 	.data.b	67,97,110,84,112,95,82,120,84,114,97,110,115,109,105,116,70,114,97,109,101,0
0000267e 78525f70 
00002682 6e617254 
00002686 74696d73 
0000268a 6d617246 
0000268e 0065 
00002690 1cf5       9081 	.data.b	245,28
00002692 24         9082 	.data.b	36
00002693 01         9083 	.data.b	1
00002694 00000000*  9084 	.data.w	CanTp_RxTransmitFrame..C.3A.5CVector.5CCBD1800257_D01_S32K1xx.5CApplications.5CS32K144_Start_new.5CAppl.5Cobj.5CCanTp.
00002698 00000000*  9085 	.data.w	__ghs_eofn_CanTp_RxTransmitFrame
0000269c 5d01       9086 	.data.b	1,93
0000269e 0181f0     9087 	.data.b	240,129,1
000026a1 70         9088 	.data.b	112
000026a2 00         9089 	.data.b	0
000026a3 28         9090 	.data.b	40
000026a4 01         9091 	.data.b	1
000026a5 00         9092 	.data.b	0
000026a6 00         9093 	.data.b	0
000026a7 00         9094 	.data.b	0
000026a8 01         9095 	.data.b	1
000026a9 00         9096 	.data.b	0
000026aa 01         9097 	.data.b	1
                    9098 
                    9099 	.section	.debug_frame
                    9100 .LDW_5fbb038:
00000168 00000000*  9101 	.data.w	.LDW_unq_16-.LDW_unq_15
                    9102 .LDW_unq_15:
0000016c 00000000*  9103 	.data.w	.LDW_5fd7438
00000170 00000000*  9104 	.data.w	CanTp_RxTransmitFrame..C.3A.5CVector.5CCBD1800257_D01_S32K1xx.5CApplications.5CS32K144_Start_new.5CAppl.5Cobj.5CCanTp.
00000174 0000011e   9105 	.data.w	__ghs_eofn_CanTp_RxTransmitFrame-CanTp_RxTransmitFrame..C.3A.5CVector.5CCBD1800257_D01_S32K1xx.5CApplications.5CS32K144_Start_new.5CAppl.5Cobj.5CCanTp.
00000178 01         9106 	.data.b	1
00000179 00000000*  9107 	.data.w	.LDW94

                                                                      Page 173
                                                              C:\Users\Fengyuan\AppData\Local\Temp\gh_0000kos1.s
0000017d 00         9108 	.data.b	0
0000017e 00         9109 	.data.b	0
0000017f 00         9110 	.data.b	0
                    9111 .LDW_unq_16:
                    9112 	.section	.debug_line
00000a4d 020500     9113 	.data.b	0,5,2
00000a50 00000000*  9114 	.data.w	CanTp_RxTransmitFrame..C.3A.5CVector.5CCBD1800257_D01_S32K1xx.5CApplications.5CS32K144_Start_new.5CAppl.5Cobj.5CCanTp.
00000a54 06         9115 	.data.b	6
00000a55 03         9116 	.data.b	3
00000a56 1cf5       9117 	.data.b	245,28
00000a58 02         9118 	.data.b	2
00000a59 00         9119 	.data.b	0
00000a5a 01         9120 	.data.b	1
00000a5b 03         9121 	.data.b	3
00000a5c 0b         9122 	.data.b	11
00000a5d 02         9123 	.data.b	2
00000a5e 06         9124 	.data.b	6
00000a5f 01         9125 	.data.b	1
00000a60 1b         9126 	.data.b	27
00000a61 03         9127 	.data.b	3
00000a62 0f         9128 	.data.b	15
00000a63 02         9129 	.data.b	2
00000a64 06         9130 	.data.b	6
00000a65 01         9131 	.data.b	1
00000a66 15         9132 	.data.b	21
00000a67 020500     9133 	.data.b	0,5,2
00000a6a 00000000*  9134 	.data.w	.LDWlin57
00000a6e 03         9135 	.data.b	3
00000a6f 3c         9136 	.data.b	60
00000a70 02         9137 	.data.b	2
00000a71 00         9138 	.data.b	0
00000a72 01         9139 	.data.b	1
00000a73 02         9140 	.data.b	2
00000a74 00         9141 	.data.b	0
00000a75 0b         9142 	.data.b	11
00000a76 03         9143 	.data.b	3
00000a77 06         9144 	.data.b	6
00000a78 02         9145 	.data.b	2
00000a79 00         9146 	.data.b	0
00000a7a 01         9147 	.data.b	1
00000a7b 23         9148 	.data.b	35
00000a7c 020500     9149 	.data.b	0,5,2
00000a7f 00000000*  9150 	.data.w	.LDWlin58
00000a83 03         9151 	.data.b	3
00000a84 04         9152 	.data.b	4
00000a85 02         9153 	.data.b	2
00000a86 00         9154 	.data.b	0
00000a87 01         9155 	.data.b	1
00000a88 0b         9156 	.data.b	11
00000a89 34         9157 	.data.b	52
00000a8a 020500     9158 	.data.b	0,5,2
00000a8d 00000000*  9159 	.data.w	.LDWlin59
00000a91 03         9160 	.data.b	3
00000a92 7fba       9161 	.data.b	186,127
00000a94 02         9162 	.data.b	2
00000a95 00         9163 	.data.b	0
00000a96 01         9164 	.data.b	1
00000a97 02         9165 	.data.b	2
00000a98 00         9166 	.data.b	0
00000a99 0b         9167 	.data.b	11
00000a9a 0c         9168 	.data.b	12

                                                                      Page 174
                                                              C:\Users\Fengyuan\AppData\Local\Temp\gh_0000kos1.s
00000a9b 2b         9169 	.data.b	43
00000a9c 0c         9170 	.data.b	12
00000a9d 020500     9171 	.data.b	0,5,2
00000aa0 00000000*  9172 	.data.w	.LDWlin60
00000aa4 0b         9173 	.data.b	11
00000aa5 0d         9174 	.data.b	13
00000aa6 03         9175 	.data.b	3
00000aa7 05         9176 	.data.b	5
00000aa8 02         9177 	.data.b	2
00000aa9 00         9178 	.data.b	0
00000aaa 01         9179 	.data.b	1
00000aab 020500     9180 	.data.b	0,5,2
00000aae 00000000*  9181 	.data.w	.LDWlin61
00000ab2 0c         9182 	.data.b	12
00000ab3 0c         9183 	.data.b	12
00000ab4 03         9184 	.data.b	3
00000ab5 04         9185 	.data.b	4
00000ab6 02         9186 	.data.b	2
00000ab7 08         9187 	.data.b	8
00000ab8 01         9188 	.data.b	1
00000ab9 020500     9189 	.data.b	0,5,2
00000abc 00000000*  9190 	.data.w	.LDWlin62
00000ac0 02         9191 	.data.b	2
00000ac1 00         9192 	.data.b	0
00000ac2 02         9193 	.data.b	2
00000ac3 0a         9194 	.data.b	10
00000ac4 02         9195 	.data.b	2
00000ac5 00         9196 	.data.b	0
00000ac6 0b         9197 	.data.b	11
00000ac7 02         9198 	.data.b	2
00000ac8 00         9199 	.data.b	0
00000ac9 03         9200 	.data.b	3
00000aca 05         9201 	.data.b	5
00000acb 02         9202 	.data.b	2
00000acc 00         9203 	.data.b	0
00000acd 01         9204 	.data.b	1
00000ace 1c         9205 	.data.b	28
00000acf 02         9206 	.data.b	2
00000ad0 00         9207 	.data.b	0
00000ad1 0b         9208 	.data.b	11
00000ad2 02         9209 	.data.b	2
00000ad3 00         9210 	.data.b	0
00000ad4 0d         9211 	.data.b	13
00000ad5 35         9212 	.data.b	53
00000ad6 13         9213 	.data.b	19
00000ad7 03         9214 	.data.b	3
00000ad8 20         9215 	.data.b	32
00000ad9 02         9216 	.data.b	2
00000ada 00         9217 	.data.b	0
00000adb 01         9218 	.data.b	1
00000adc 03         9219 	.data.b	3
00000add 04         9220 	.data.b	4
00000ade 02         9221 	.data.b	2
00000adf 00         9222 	.data.b	0
00000ae0 01         9223 	.data.b	1
00000ae1 0b         9224 	.data.b	11
00000ae2 03         9225 	.data.b	3
00000ae3 04         9226 	.data.b	4
00000ae4 02         9227 	.data.b	2
00000ae5 00         9228 	.data.b	0
00000ae6 01         9229 	.data.b	1

                                                                      Page 175
                                                              C:\Users\Fengyuan\AppData\Local\Temp\gh_0000kos1.s
00000ae7 33         9230 	.data.b	51
00000ae8 020500     9231 	.data.b	0,5,2
00000aeb 00000000*  9232 	.data.w	.LDWlin63
00000aef 02         9233 	.data.b	2
00000af0 00         9234 	.data.b	0
00000af1 020500     9235 	.data.b	0,5,2
00000af4 00000000*  9236 	.data.w	.LDWlin64
00000af8 0b         9237 	.data.b	11
00000af9 25         9238 	.data.b	37
00000afa 23         9239 	.data.b	35
00000afb 1b         9240 	.data.b	27
00000afc 2b         9241 	.data.b	43
00000afd 24         9242 	.data.b	36
00000afe 020500     9243 	.data.b	0,5,2
00000b01 00000000*  9244 	.data.w	.LDWlin65
00000b05 0d         9245 	.data.b	13
00000b06 34         9246 	.data.b	52
00000b07 13         9247 	.data.b	19
00000b08 0c         9248 	.data.b	12
00000b09 020500     9249 	.data.b	0,5,2
00000b0c 00000000*  9250 	.data.w	.LDWlin66
00000b10 03         9251 	.data.b	3
00000b11 4b         9252 	.data.b	75
00000b12 02         9253 	.data.b	2
00000b13 00         9254 	.data.b	0
00000b14 01         9255 	.data.b	1
00000b15 02         9256 	.data.b	2
00000b16 00         9257 	.data.b	0
00000b17 1b         9258 	.data.b	27
00000b18 0c         9259 	.data.b	12
00000b19 020500     9260 	.data.b	0,5,2
00000b1c 00000000*  9261 	.data.w	.LDWlin67
00000b20 0b         9262 	.data.b	11
00000b21 0c         9263 	.data.b	12
00000b22 0d         9264 	.data.b	13
00000b23 020500     9265 	.data.b	0,5,2
00000b26 00000000*  9266 	.data.w	.LDWlin68
00000b2a 03         9267 	.data.b	3
00000b2b 2e         9268 	.data.b	46
00000b2c 02         9269 	.data.b	2
00000b2d 00         9270 	.data.b	0
00000b2e 01         9271 	.data.b	1
00000b2f 0c         9272 	.data.b	12
00000b30 0b         9273 	.data.b	11
00000b31 020500     9274 	.data.b	0,5,2
00000b34 00000000*  9275 	.data.w	.LDWlin69
00000b38 0b         9276 	.data.b	11
00000b39 0c         9277 	.data.b	12
00000b3a 3b         9278 	.data.b	59
00000b3b 02         9279 	.data.b	2
00000b3c 00         9280 	.data.b	0
00000b3d 0c         9281 	.data.b	12
00000b3e 02         9282 	.data.b	2
00000b3f 00         9283 	.data.b	0
00000b40 0b         9284 	.data.b	11
00000b41 02         9285 	.data.b	2
00000b42 00         9286 	.data.b	0
00000b43 03         9287 	.data.b	3
00000b44 05         9288 	.data.b	5
00000b45 02         9289 	.data.b	2
00000b46 00         9290 	.data.b	0

                                                                      Page 176
                                                              C:\Users\Fengyuan\AppData\Local\Temp\gh_0000kos1.s
00000b47 01         9291 	.data.b	1
00000b48 02         9292 	.data.b	2
00000b49 04         9293 	.data.b	4
00000b4a 010100     9294 	.data.b	0,1,1
                    9295 	.section	.debug_info
                    9296 .LDW_60a1798:
000026ab 11         9297 	.data.b	17
000026ac 52705470   9298 	.data.b	112,84,112,82,120,83,116,97,116,101,0
000026b0 61745378 
000026b4 006574 
000026b7 1cf5       9299 	.data.b	245,28
000026b9 4f         9300 	.data.b	79
000026ba 01         9301 	.data.b	1
000026bb 00000000*  9302 	.data.w	.LDW_5d787b0
000026bf 00         9303 	.data.b	0
000026c0 5401       9304 	.data.b	1,84
                    9305 
                    9306 .LDW_5e1e8a0:
000026c2 1f         9307 	.data.b	31
000026c3 00000000*  9308 	.data.w	.LDW44
000026c7 00000000*  9309 	.data.w	.LDW94
                    9310 
                    9311 .LDW_60a1a00:
000026cb 06         9312 	.data.b	6
000026cc 5278546c   9313 	.data.b	108,84,120,82,101,115,117,108,116,0
000026d0 6c757365 
000026d4 0074 
000026d6 1cf9       9314 	.data.b	249,28
000026d8 1b         9315 	.data.b	27
000026d9 01         9316 	.data.b	1
000026da 00000000*  9317 	.data.w	.LDW_6070300
000026de 00         9318 	.data.b	0
000026df 00         9319 	.data.b	0
000026e0 5001       9320 	.data.b	1,80
                    9321 
                    9322 .LDW_60a10b8:
000026e2 06         9323 	.data.b	6
000026e3 4643466c   9324 	.data.b	108,70,67,70,114,97,109,101,68,97,116,97,0
000026e7 656d6172 
000026eb 61746144 
000026ef 00 
000026f0 1cfa       9325 	.data.b	250,28
000026f2 1b         9326 	.data.b	27
000026f3 01         9327 	.data.b	1
000026f4 00000000*  9328 	.data.w	.LDW_5d78d30
000026f8 00         9329 	.data.b	0
000026f9 00         9330 	.data.b	0
000026fa 7d02       9331 	.data.b	2,125
000026fc 10         9332 	.data.b	16
                    9333 
                    9334 .LDW_60a1ab0:
000026fd 06         9335 	.data.b	6
000026fe 4243466c   9336 	.data.b	108,70,67,66,117,102,102,101,114,0
00002702 65666675 
00002706 0072 
00002708 1cfb       9337 	.data.b	251,28
0000270a 1b         9338 	.data.b	27
0000270b 01         9339 	.data.b	1
0000270c 00000000*  9340 	.data.w	.LDW_5e1ef28
00002710 00         9341 	.data.b	0
00002711 00         9342 	.data.b	0

                                                                      Page 177
                                                              C:\Users\Fengyuan\AppData\Local\Temp\gh_0000kos1.s
00002712 7d02       9343 	.data.b	2,125
00002714 08         9344 	.data.b	8
                    9345 
                    9346 .LDW_60a1b08:
00002715 06         9347 	.data.b	6
00002716 6f6c426c   9348 	.data.b	108,66,108,111,99,107,83,105,122,101,86,97,108,117,101,0
0000271a 69536b63 
0000271e 6156657a 
00002722 0065756c 
00002726 1cfc       9349 	.data.b	252,28
00002728 1b         9350 	.data.b	27
00002729 01         9351 	.data.b	1
0000272a 00000000*  9352 	.data.w	.LDW_4b7ea10
0000272e 00         9353 	.data.b	0
0000272f 00         9354 	.data.b	0
00002730 5501       9355 	.data.b	1,85
                    9356 
                    9357 .LDW_60a1110:
00002732 07         9358 	.data.b	7
00002733 6172546c   9359 	.data.b	108,84,114,97,110,115,109,105,116,70,67,0
00002737 696d736e 
0000273b 00434674 
0000273f 1cfd       9360 	.data.b	253,28
00002741 1b         9361 	.data.b	27
00002742 01         9362 	.data.b	1
00002743 00000000*  9363 	.data.w	.LDW_4b7a318
00002747 00         9364 	.data.b	0
00002748 00         9365 	.data.b	0
                    9366 
                    9367 .LDW_5e1ea20:
00002749 1f         9368 	.data.b	31
0000274a 00000000*  9369 	.data.w	.LDW54
0000274e 00000000*  9370 	.data.w	.LDW64
                    9371 
                    9372 .LDW_60a1218:
00002752 07         9373 	.data.b	7
00002753 7479426c   9374 	.data.b	108,66,121,116,101,115,80,101,114,66,108,111,99,107,0
00002757 65507365 
0000275b 6f6c4272 
0000275f 006b63 
00002762 1da4       9375 	.data.b	164,29
00002764 12         9376 	.data.b	18
00002765 01         9377 	.data.b	1
00002766 00000000*  9378 	.data.w	.LDW_4b7a120
0000276a 00         9379 	.data.b	0
0000276b 00         9380 	.data.b	0
                    9381 
0000276c 00         9382 	.data.b	0
                    9383 
                    9384 .LDW_5e1e9c0:
0000276d 1f         9385 	.data.b	31
0000276e 00000000*  9386 	.data.w	.LDW74
00002772 00000000*  9387 	.data.w	.LDW84
                    9388 
                    9389 .LDW_60a1848:
00002776 06         9390 	.data.b	6
00002777 7564506c   9391 	.data.b	108,80,100,117,84,120,73,110,102,111,0
0000277b 6e497854 
0000277f 006f66 
00002782 1de6       9392 	.data.b	230,29
00002784 1a         9393 	.data.b	26

                                                                      Page 178
                                                              C:\Users\Fengyuan\AppData\Local\Temp\gh_0000kos1.s
00002785 01         9394 	.data.b	1
00002786 00000000*  9395 	.data.w	.LDW_60707d0
0000278a 00         9396 	.data.b	0
0000278b 00         9397 	.data.b	0
0000278c 7d02       9398 	.data.b	2,125
0000278e 00         9399 	.data.b	0
                    9400 
0000278f 00         9401 	.data.b	0
                    9402 
00002790 00         9403 	.data.b	0
                    9404 
00002791 00         9405 	.data.b	0
                    9406 
                    9407 .LDW_606f7a8:
00002792 15         9408 	.data.b	21
00002793 546e6143   9409 	.data.b	67,97,110,84,112,95,84,120,84,114,97,110,115,109,105,116,70,114,97,109,101,0
00002797 78545f70 
0000279b 6e617254 
0000279f 74696d73 
000027a3 6d617246 
000027a7 0065 
000027a9 1ea5       9410 	.data.b	165,30
000027ab 24         9411 	.data.b	36
000027ac 01         9412 	.data.b	1
000027ad 00000000*  9413 	.data.w	CanTp_TxTransmitFrame..C.3A.5CVector.5CCBD1800257_D01_S32K1xx.5CApplications.5CS32K144_Start_new.5CAppl.5Cobj.5CCanTp.
000027b1 00000000*  9414 	.data.w	__ghs_eofn_CanTp_TxTransmitFrame
000027b5 5d01       9415 	.data.b	1,93
000027b7 018090     9416 	.data.b	144,128,1
000027ba 7c         9417 	.data.b	124
000027bb 00         9418 	.data.b	0
000027bc 1c         9419 	.data.b	28
000027bd 01         9420 	.data.b	1
000027be 00         9421 	.data.b	0
000027bf 00         9422 	.data.b	0
000027c0 00         9423 	.data.b	0
000027c1 01         9424 	.data.b	1
000027c2 00         9425 	.data.b	0
000027c3 01         9426 	.data.b	1
                    9427 
                    9428 	.section	.debug_frame
                    9429 .LDW_5fb93f8:
00000180 00000000*  9430 	.data.w	.LDW_unq_18-.LDW_unq_17
                    9431 .LDW_unq_17:
00000184 00000000*  9432 	.data.w	.LDW_5fd7438
00000188 00000000*  9433 	.data.w	CanTp_TxTransmitFrame..C.3A.5CVector.5CCBD1800257_D01_S32K1xx.5CApplications.5CS32K144_Start_new.5CAppl.5Cobj.5CCanTp.
0000018c 000000cc   9434 	.data.w	__ghs_eofn_CanTp_TxTransmitFrame-CanTp_TxTransmitFrame..C.3A.5CVector.5CCBD1800257_D01_S32K1xx.5CApplications.5CS32K144_Start_new.5CAppl.5Cobj.5CCanTp.
00000190 01         9435 	.data.b	1
00000191 00000000*  9436 	.data.w	.LDW15
00000195 00         9437 	.data.b	0
00000196 00         9438 	.data.b	0
00000197 00         9439 	.data.b	0
                    9440 .LDW_unq_18:
                    9441 	.section	.debug_line
00000b4d 020500     9442 	.data.b	0,5,2
00000b50 00000000*  9443 	.data.w	CanTp_TxTransmitFrame..C.3A.5CVector.5CCBD1800257_D01_S32K1xx.5CApplications.5CS32K144_Start_new.5CAppl.5Cobj.5CCanTp.
00000b54 06         9444 	.data.b	6
00000b55 03         9445 	.data.b	3
00000b56 1ea5       9446 	.data.b	165,30
00000b58 02         9447 	.data.b	2
00000b59 00         9448 	.data.b	0
00000b5a 01         9449 	.data.b	1

                                                                      Page 179
                                                              C:\Users\Fengyuan\AppData\Local\Temp\gh_0000kos1.s
00000b5b 03         9450 	.data.b	3
00000b5c 07         9451 	.data.b	7
00000b5d 02         9452 	.data.b	2
00000b5e 06         9453 	.data.b	6
00000b5f 01         9454 	.data.b	1
00000b60 1b         9455 	.data.b	27
00000b61 03         9456 	.data.b	3
00000b62 0d         9457 	.data.b	13
00000b63 02         9458 	.data.b	2
00000b64 06         9459 	.data.b	6
00000b65 01         9460 	.data.b	1
00000b66 020500     9461 	.data.b	0,5,2
00000b69 00000000*  9462 	.data.w	.LDWlin70
00000b6d 03         9463 	.data.b	3
00000b6e 00c0       9464 	.data.b	192,0
00000b70 02         9465 	.data.b	2
00000b71 00         9466 	.data.b	0
00000b72 01         9467 	.data.b	1
00000b73 0b         9468 	.data.b	11
00000b74 2b         9469 	.data.b	43
00000b75 13         9470 	.data.b	19
00000b76 03         9471 	.data.b	3
00000b77 07         9472 	.data.b	7
00000b78 02         9473 	.data.b	2
00000b79 04         9474 	.data.b	4
00000b7a 01         9475 	.data.b	1
00000b7b 02         9476 	.data.b	2
00000b7c 00         9477 	.data.b	0
00000b7d 03         9478 	.data.b	3
00000b7e 04         9479 	.data.b	4
00000b7f 02         9480 	.data.b	2
00000b80 00         9481 	.data.b	0
00000b81 01         9482 	.data.b	1
00000b82 020500     9483 	.data.b	0,5,2
00000b85 00000000*  9484 	.data.w	.LDWlin71
00000b89 03         9485 	.data.b	3
00000b8a 79         9486 	.data.b	121
00000b8b 02         9487 	.data.b	2
00000b8c 00         9488 	.data.b	0
00000b8d 01         9489 	.data.b	1
00000b8e 0b         9490 	.data.b	11
00000b8f 3b         9491 	.data.b	59
00000b90 020500     9492 	.data.b	0,5,2
00000b93 00000000*  9493 	.data.w	.LDWlin72
00000b97 03         9494 	.data.b	3
00000b98 7fbb       9495 	.data.b	187,127
00000b9a 02         9496 	.data.b	2
00000b9b 00         9497 	.data.b	0
00000b9c 01         9498 	.data.b	1
00000b9d 03         9499 	.data.b	3
00000b9e 0d         9500 	.data.b	13
00000b9f 02         9501 	.data.b	2
00000ba0 00         9502 	.data.b	0
00000ba1 01         9503 	.data.b	1
00000ba2 25         9504 	.data.b	37
00000ba3 020500     9505 	.data.b	0,5,2
00000ba6 00000000*  9506 	.data.w	.LDWlin73
00000baa 03         9507 	.data.b	3
00000bab 05         9508 	.data.b	5
00000bac 02         9509 	.data.b	2
00000bad 00         9510 	.data.b	0

                                                                      Page 180
                                                              C:\Users\Fengyuan\AppData\Local\Temp\gh_0000kos1.s
00000bae 01         9511 	.data.b	1
00000baf 03         9512 	.data.b	3
00000bb0 1a         9513 	.data.b	26
00000bb1 02         9514 	.data.b	2
00000bb2 00         9515 	.data.b	0
00000bb3 01         9516 	.data.b	1
00000bb4 3b         9517 	.data.b	59
00000bb5 13         9518 	.data.b	19
00000bb6 15         9519 	.data.b	21
00000bb7 1b         9520 	.data.b	27
00000bb8 1b         9521 	.data.b	27
00000bb9 13         9522 	.data.b	19
00000bba 020500     9523 	.data.b	0,5,2
00000bbd 00000000*  9524 	.data.w	.LDWlin74
00000bc1 03         9525 	.data.b	3
00000bc2 16         9526 	.data.b	22
00000bc3 02         9527 	.data.b	2
00000bc4 00         9528 	.data.b	0
00000bc5 01         9529 	.data.b	1
00000bc6 03         9530 	.data.b	3
00000bc7 04         9531 	.data.b	4
00000bc8 02         9532 	.data.b	2
00000bc9 0a         9533 	.data.b	10
00000bca 01         9534 	.data.b	1
00000bcb 23         9535 	.data.b	35
00000bcc 1b         9536 	.data.b	27
00000bcd 1b         9537 	.data.b	27
00000bce 14         9538 	.data.b	20
00000bcf 020500     9539 	.data.b	0,5,2
00000bd2 00000000*  9540 	.data.w	.LDWlin75
00000bd6 03         9541 	.data.b	3
00000bd7 05         9542 	.data.b	5
00000bd8 02         9543 	.data.b	2
00000bd9 00         9544 	.data.b	0
00000bda 01         9545 	.data.b	1
00000bdb 34         9546 	.data.b	52
00000bdc 13         9547 	.data.b	19
00000bdd 0c         9548 	.data.b	12
00000bde 3c         9549 	.data.b	60
00000bdf 020500     9550 	.data.b	0,5,2
00000be2 00000000*  9551 	.data.w	.LDWlin76
00000be6 0b         9552 	.data.b	11
00000be7 0c         9553 	.data.b	12
00000be8 0b         9554 	.data.b	11
00000be9 020500     9555 	.data.b	0,5,2
00000bec 00000000*  9556 	.data.w	.LDWlin77
00000bf0 0b         9557 	.data.b	11
00000bf1 0c         9558 	.data.b	12
00000bf2 33         9559 	.data.b	51
00000bf3 02         9560 	.data.b	2
00000bf4 00         9561 	.data.b	0
00000bf5 0c         9562 	.data.b	12
00000bf6 02         9563 	.data.b	2
00000bf7 00         9564 	.data.b	0
00000bf8 0b         9565 	.data.b	11
00000bf9 02         9566 	.data.b	2
00000bfa 04         9567 	.data.b	4
00000bfb 010100     9568 	.data.b	0,1,1
                    9569 	.section	.debug_info
                    9570 .LDW_60a18f8:
000027c4 11         9571 	.data.b	17

                                                                      Page 181
                                                              C:\Users\Fengyuan\AppData\Local\Temp\gh_0000kos1.s
000027c5 54705470   9572 	.data.b	112,84,112,84,120,83,116,97,116,101,0
000027c9 61745378 
000027cd 006574 
000027d0 1ea5       9573 	.data.b	165,30
000027d2 4f         9574 	.data.b	79
000027d3 01         9575 	.data.b	1
000027d4 00000000*  9576 	.data.w	.LDW_5ed03f8
000027d8 00         9577 	.data.b	0
000027d9 5401       9578 	.data.b	1,84
                    9579 
                    9580 .LDW_5e1e8d0:
000027db 1f         9581 	.data.b	31
000027dc 00000000*  9582 	.data.w	.LDW05
000027e0 00000000*  9583 	.data.w	.LDW15
                    9584 
                    9585 .LDW_60a1270:
000027e4 06         9586 	.data.b	6
000027e5 4678546c   9587 	.data.b	108,84,120,70,114,97,109,101,68,97,116,97,0
000027e9 656d6172 
000027ed 61746144 
000027f1 00 
000027f2 1ea7       9588 	.data.b	167,30
000027f4 1b         9589 	.data.b	27
000027f5 01         9590 	.data.b	1
000027f6 00000000*  9591 	.data.w	.LDW_5d78d30
000027fa 00         9592 	.data.b	0
000027fb 00         9593 	.data.b	0
000027fc 7d02       9594 	.data.b	2,125
000027fe 10         9595 	.data.b	16
                    9596 
                    9597 .LDW_60a13d0:
000027ff 06         9598 	.data.b	6
00002800 4678546c   9599 	.data.b	108,84,120,70,114,97,109,101,68,97,116,97,66,117,102,102,101,114,0
00002804 656d6172 
00002808 61746144 
0000280c 66667542 
00002810 007265 
00002813 1ea8       9600 	.data.b	168,30
00002815 1b         9601 	.data.b	27
00002816 01         9602 	.data.b	1
00002817 00000000*  9603 	.data.w	.LDW_5c65920
0000281b 00         9604 	.data.b	0
0000281c 00         9605 	.data.b	0
0000281d 7d02       9606 	.data.b	2,125
0000281f 08         9607 	.data.b	8
                    9608 
                    9609 .LDW_60a1320:
00002820 06         9610 	.data.b	6
00002821 7564506c   9611 	.data.b	108,80,100,117,84,120,73,110,102,111,0
00002825 6e497854 
00002829 006f66 
0000282c 1ea9       9612 	.data.b	169,30
0000282e 1b         9613 	.data.b	27
0000282f 01         9614 	.data.b	1
00002830 00000000*  9615 	.data.w	.LDW_60707d0
00002834 00         9616 	.data.b	0
00002835 00         9617 	.data.b	0
00002836 7d02       9618 	.data.b	2,125
00002838 00         9619 	.data.b	0
                    9620 
                    9621 .LDW_60a1168:

                                                                      Page 182
                                                              C:\Users\Fengyuan\AppData\Local\Temp\gh_0000kos1.s
00002839 06         9622 	.data.b	6
0000283a 5278546c   9623 	.data.b	108,84,120,82,101,115,117,108,116,0
0000283e 6c757365 
00002842 0074 
00002844 1eaa       9624 	.data.b	170,30
00002846 1b         9625 	.data.b	27
00002847 01         9626 	.data.b	1
00002848 00000000*  9627 	.data.w	.LDW_5ed0768
0000284c 00         9628 	.data.b	0
0000284d 00         9629 	.data.b	0
0000284e 5001       9630 	.data.b	1,80
                    9631 
00002850 00         9632 	.data.b	0
                    9633 
00002851 00         9634 	.data.b	0
                    9635 
                    9636 .LDW_606faa0:
00002852 15         9637 	.data.b	21
00002853 546e6143   9638 	.data.b	67,97,110,84,112,95,73,110,105,116,0
00002857 6e495f70 
0000285b 007469 
0000285e 21b6       9639 	.data.b	182,33
00002860 18         9640 	.data.b	24
00002861 01         9641 	.data.b	1
00002862 00000000*  9642 	.data.w	CanTp_Init
00002866 00000000*  9643 	.data.w	__ghs_eofn_CanTp_Init
0000286a 5d01       9644 	.data.b	1,93
0000286c 0181f0     9645 	.data.b	240,129,1
0000286f 70         9646 	.data.b	112
00002870 00         9647 	.data.b	0
00002871 10         9648 	.data.b	16
00002872 01         9649 	.data.b	1
00002873 00         9650 	.data.b	0
00002874 00         9651 	.data.b	0
00002875 01         9652 	.data.b	1
00002876 01         9653 	.data.b	1
00002877 00         9654 	.data.b	0
00002878 01         9655 	.data.b	1
                    9656 
                    9657 	.section	.debug_frame
                    9658 .LDW_5fba178:
00000198 00000000*  9659 	.data.w	.LDW_unq_1a-.LDW_unq_19
                    9660 .LDW_unq_19:
0000019c 00000000*  9661 	.data.w	.LDW_5fd7438
000001a0 00000000*  9662 	.data.w	CanTp_Init
000001a4 0000003e   9663 	.data.w	__ghs_eofn_CanTp_Init-CanTp_Init
000001a8 01         9664 	.data.b	1
000001a9 00000000*  9665 	.data.w	.LDW35
000001ad 00         9666 	.data.b	0
000001ae 00         9667 	.data.b	0
000001af 00         9668 	.data.b	0
                    9669 .LDW_unq_1a:
                    9670 	.section	.debug_line
00000bfe 020500     9671 	.data.b	0,5,2
00000c01 00000000*  9672 	.data.w	CanTp_Init
00000c05 06         9673 	.data.b	6
00000c06 03         9674 	.data.b	3
00000c07 21b6       9675 	.data.b	182,33
00000c09 02         9676 	.data.b	2
00000c0a 00         9677 	.data.b	0
00000c0b 01         9678 	.data.b	1

                                                                      Page 183
                                                              C:\Users\Fengyuan\AppData\Local\Temp\gh_0000kos1.s
00000c0c 03         9679 	.data.b	3
00000c0d 23         9680 	.data.b	35
00000c0e 02         9681 	.data.b	2
00000c0f 02         9682 	.data.b	2
00000c10 01         9683 	.data.b	1
00000c11 020500     9684 	.data.b	0,5,2
00000c14 00000000*  9685 	.data.w	.LDWlin78
00000c18 0b         9686 	.data.b	11
00000c19 0c         9687 	.data.b	12
00000c1a 1b         9688 	.data.b	27
00000c1b 23         9689 	.data.b	35
00000c1c 02         9690 	.data.b	2
00000c1d 00         9691 	.data.b	0
00000c1e 03         9692 	.data.b	3
00000c1f 12         9693 	.data.b	18
00000c20 02         9694 	.data.b	2
00000c21 00         9695 	.data.b	0
00000c22 01         9696 	.data.b	1
00000c23 02         9697 	.data.b	2
00000c24 02         9698 	.data.b	2
00000c25 010100     9699 	.data.b	0,1,1
                    9700 	.section	.debug_info
                    9701 .LDW_60a1950:
00002879 11         9702 	.data.b	17
0000287a 50676643   9703 	.data.b	67,102,103,80,116,114,0
0000287e 007274 
00002881 21b6       9704 	.data.b	182,33
00002883 59         9705 	.data.b	89
00002884 01         9706 	.data.b	1
00002885 00000000*  9707 	.data.w	.LDW_5e1d900
00002889 00         9708 	.data.b	0
0000288a 5001       9709 	.data.b	1,80
                    9710 
                    9711 .LDW_5e1eab0:
0000288c 1f         9712 	.data.b	31
0000288d 00000000*  9713 	.data.w	.LDW25
00002891 00000000*  9714 	.data.w	.LDW35
                    9715 
00002895 00         9716 	.data.b	0
                    9717 
00002896 00         9718 	.data.b	0
                    9719 
                    9720 .LDW_606f380:
00002897 15         9721 	.data.b	21
00002898 546e6143   9722 	.data.b	67,97,110,84,112,95,73,110,105,116,77,101,109,111,114,121,0
0000289c 6e495f70 
000028a0 654d7469 
000028a4 79726f6d 
000028a8 00 
000028a9 21fd       9723 	.data.b	253,33
000028ab 18         9724 	.data.b	24
000028ac 01         9725 	.data.b	1
000028ad 00000000*  9726 	.data.w	CanTp_InitMemory
000028b1 00000000*  9727 	.data.w	__ghs_eofn_CanTp_InitMemory
000028b5 5d01       9728 	.data.b	1,93
000028b7 00         9729 	.data.b	0
000028b8 04         9730 	.data.b	4
000028b9 00         9731 	.data.b	0
000028ba 7c         9732 	.data.b	124
000028bb 01         9733 	.data.b	1
000028bc 00         9734 	.data.b	0

                                                                      Page 184
                                                              C:\Users\Fengyuan\AppData\Local\Temp\gh_0000kos1.s
000028bd 00         9735 	.data.b	0
000028be 01         9736 	.data.b	1
000028bf 01         9737 	.data.b	1
000028c0 00         9738 	.data.b	0
000028c1 01         9739 	.data.b	1
                    9740 
                    9741 	.section	.debug_frame
                    9742 .LDW_5fb9bf8:
000001b0 00000000*  9743 	.data.w	.LDW_unq_1c-.LDW_unq_1b
                    9744 .LDW_unq_1b:
000001b4 00000000*  9745 	.data.w	.LDW_5fd7438
000001b8 00000000*  9746 	.data.w	CanTp_InitMemory
000001bc 00000008   9747 	.data.w	__ghs_eofn_CanTp_InitMemory-CanTp_InitMemory
000001c0 01         9748 	.data.b	1
000001c1 00000000*  9749 	.data.w	.LDW55
000001c5 00         9750 	.data.b	0
000001c6 00         9751 	.data.b	0
000001c7 00         9752 	.data.b	0
                    9753 .LDW_unq_1c:
                    9754 	.section	.debug_line
00000c28 020500     9755 	.data.b	0,5,2
00000c2b 00000000*  9756 	.data.w	CanTp_InitMemory
00000c2f 06         9757 	.data.b	6
00000c30 03         9758 	.data.b	3
00000c31 21ff       9759 	.data.b	255,33
00000c33 02         9760 	.data.b	2
00000c34 00         9761 	.data.b	0
00000c35 01         9762 	.data.b	1
00000c36 23         9763 	.data.b	35
00000c37 02         9764 	.data.b	2
00000c38 02         9765 	.data.b	2
00000c39 010100     9766 	.data.b	0,1,1
                    9767 	.section	.debug_info
                    9768 .LDW_5e1ea50:
000028c2 1f         9769 	.data.b	31
000028c3 00000000*  9770 	.data.w	.LDW45
000028c7 00000000*  9771 	.data.w	.LDW55
                    9772 
000028cb 00         9773 	.data.b	0
                    9774 
000028cc 00         9775 	.data.b	0
                    9776 
                    9777 .LDW_606f8d8:
000028cd 15         9778 	.data.b	21
000028ce 546e6143   9779 	.data.b	67,97,110,84,112,95,83,104,117,116,100,111,119,110,0
000028d2 68535f70 
000028d6 6f647475 
000028da 006e77 
000028dd 228e       9780 	.data.b	142,34
000028df 18         9781 	.data.b	24
000028e0 01         9782 	.data.b	1
000028e1 00000000*  9783 	.data.w	CanTp_Shutdown
000028e5 00000000*  9784 	.data.w	__ghs_eofn_CanTp_Shutdown
000028e9 5d01       9785 	.data.b	1,93
000028eb 018090     9786 	.data.b	144,128,1
000028ee 7c         9787 	.data.b	124
000028ef 00         9788 	.data.b	0
000028f0 04         9789 	.data.b	4
000028f1 01         9790 	.data.b	1
000028f2 00         9791 	.data.b	0
000028f3 00         9792 	.data.b	0

                                                                      Page 185
                                                              C:\Users\Fengyuan\AppData\Local\Temp\gh_0000kos1.s
000028f4 01         9793 	.data.b	1
000028f5 01         9794 	.data.b	1
000028f6 00         9795 	.data.b	0
000028f7 01         9796 	.data.b	1
                    9797 
                    9798 	.section	.debug_frame
                    9799 .LDW_5fb9c38:
000001c8 00000000*  9800 	.data.w	.LDW_unq_1e-.LDW_unq_1d
                    9801 .LDW_unq_1d:
000001cc 00000000*  9802 	.data.w	.LDW_5fd7438
000001d0 00000000*  9803 	.data.w	CanTp_Shutdown
000001d4 00000022   9804 	.data.w	__ghs_eofn_CanTp_Shutdown-CanTp_Shutdown
000001d8 01         9805 	.data.b	1
000001d9 00000000*  9806 	.data.w	.LDW75
000001dd 00         9807 	.data.b	0
000001de 00         9808 	.data.b	0
000001df 00         9809 	.data.b	0
                    9810 .LDW_unq_1e:
                    9811 	.section	.debug_line
00000c3c 020500     9812 	.data.b	0,5,2
00000c3f 00000000*  9813 	.data.w	CanTp_Shutdown
00000c43 06         9814 	.data.b	6
00000c44 03         9815 	.data.b	3
00000c45 228e       9816 	.data.b	142,34
00000c47 02         9817 	.data.b	2
00000c48 00         9818 	.data.b	0
00000c49 01         9819 	.data.b	1
00000c4a 03         9820 	.data.b	3
00000c4b 06         9821 	.data.b	6
00000c4c 02         9822 	.data.b	2
00000c4d 04         9823 	.data.b	4
00000c4e 01         9824 	.data.b	1
00000c4f 020500     9825 	.data.b	0,5,2
00000c52 00000000*  9826 	.data.w	.LDWlin79
00000c56 0b         9827 	.data.b	11
00000c57 0c         9828 	.data.b	12
00000c58 0c         9829 	.data.b	12
00000c59 03         9830 	.data.b	3
00000c5a 04         9831 	.data.b	4
00000c5b 02         9832 	.data.b	2
00000c5c 00         9833 	.data.b	0
00000c5d 01         9834 	.data.b	1
00000c5e 1b         9835 	.data.b	27
00000c5f 020500     9836 	.data.b	0,5,2
00000c62 00000000*  9837 	.data.w	.LDWlin80
00000c66 0b         9838 	.data.b	11
00000c67 02         9839 	.data.b	2
00000c68 00         9840 	.data.b	0
00000c69 03         9841 	.data.b	3
00000c6a 04         9842 	.data.b	4
00000c6b 02         9843 	.data.b	2
00000c6c 00         9844 	.data.b	0
00000c6d 01         9845 	.data.b	1
00000c6e 0b         9846 	.data.b	11
00000c6f 0b         9847 	.data.b	11
00000c70 3b         9848 	.data.b	59
00000c71 02         9849 	.data.b	2
00000c72 00         9850 	.data.b	0
00000c73 03         9851 	.data.b	3
00000c74 04         9852 	.data.b	4
00000c75 02         9853 	.data.b	2

                                                                      Page 186
                                                              C:\Users\Fengyuan\AppData\Local\Temp\gh_0000kos1.s
00000c76 00         9854 	.data.b	0
00000c77 01         9855 	.data.b	1
00000c78 02         9856 	.data.b	2
00000c79 02         9857 	.data.b	2
00000c7a 010100     9858 	.data.b	0,1,1
                    9859 	.section	.debug_info
                    9860 .LDW_5e1e900:
000028f8 1f         9861 	.data.b	31
000028f9 00000000*  9862 	.data.w	.LDW65
000028fd 00000000*  9863 	.data.w	.LDW75
                    9864 
                    9865 .LDW_60a1638:
00002901 07         9866 	.data.b	7
00002902 7272456c   9867 	.data.b	108,69,114,114,111,114,73,100,0
00002906 6449726f 
0000290a 00 
0000290b 2291       9868 	.data.b	145,34
0000290d 0a         9869 	.data.b	10
0000290e 01         9870 	.data.b	1
0000290f 00000000*  9871 	.data.w	.LDW_4b7ea10
00002913 00         9872 	.data.b	0
00002914 00         9873 	.data.b	0
                    9874 
00002915 00         9875 	.data.b	0
                    9876 
00002916 00         9877 	.data.b	0
                    9878 
                    9879 .LDW_606fd98:
00002917 15         9880 	.data.b	21
00002918 546e6143   9881 	.data.b	67,97,110,84,112,95,77,97,105,110,70,117,110,99,116,105,111,110,0
0000291c 614d5f70 
00002920 75466e69 
00002924 6974636e 
00002928 006e6f 
0000292b 22ea       9882 	.data.b	234,34
0000292d 18         9883 	.data.b	24
0000292e 01         9884 	.data.b	1
0000292f 00000000*  9885 	.data.w	CanTp_MainFunction
00002933 00000000*  9886 	.data.w	__ghs_eofn_CanTp_MainFunction
00002937 5d01       9887 	.data.b	1,93
00002939 018080     9888 	.data.b	128,128,1
0000293c 00         9889 	.data.b	0
0000293d 00         9890 	.data.b	0
0000293e 00         9891 	.data.b	0
0000293f 01         9892 	.data.b	1
00002940 00         9893 	.data.b	0
00002941 00         9894 	.data.b	0
00002942 01         9895 	.data.b	1
00002943 01         9896 	.data.b	1
00002944 00         9897 	.data.b	0
00002945 01         9898 	.data.b	1
                    9899 
                    9900 	.section	.debug_frame
                    9901 .LDW_5fba8f8:
000001e0 00000000*  9902 	.data.w	.LDW_unq_20-.LDW_unq_1f
                    9903 .LDW_unq_1f:
000001e4 00000000*  9904 	.data.w	.LDW_5fd7438
000001e8 00000000*  9905 	.data.w	CanTp_MainFunction
000001ec 0000000c   9906 	.data.w	__ghs_eofn_CanTp_MainFunction-CanTp_MainFunction
000001f0 01         9907 	.data.b	1
000001f1 00000000*  9908 	.data.w	.LDW95

                                                                      Page 187
                                                              C:\Users\Fengyuan\AppData\Local\Temp\gh_0000kos1.s
000001f5 00         9909 	.data.b	0
000001f6 00         9910 	.data.b	0
000001f7 00         9911 	.data.b	0
                    9912 .LDW_unq_20:
                    9913 	.section	.debug_line
00000c7d 020500     9914 	.data.b	0,5,2
00000c80 00000000*  9915 	.data.w	CanTp_MainFunction
00000c84 06         9916 	.data.b	6
00000c85 03         9917 	.data.b	3
00000c86 22ea       9918 	.data.b	234,34
00000c88 02         9919 	.data.b	2
00000c89 00         9920 	.data.b	0
00000c8a 01         9921 	.data.b	1
00000c8b 03         9922 	.data.b	3
00000c8c 05         9923 	.data.b	5
00000c8d 02         9924 	.data.b	2
00000c8e 02         9925 	.data.b	2
00000c8f 01         9926 	.data.b	1
00000c90 1b         9927 	.data.b	27
00000c91 1b         9928 	.data.b	27
00000c92 02         9929 	.data.b	2
00000c93 02         9930 	.data.b	2
00000c94 010100     9931 	.data.b	0,1,1
                    9932 	.section	.debug_info
                    9933 .LDW_5e1ec90:
00002946 1f         9934 	.data.b	31
00002947 00000000*  9935 	.data.w	.LDW85
0000294b 00000000*  9936 	.data.w	.LDW95
                    9937 
0000294f 00         9938 	.data.b	0
                    9939 
00002950 00         9940 	.data.b	0
                    9941 
                    9942 .LDW_606f088:
00002951 15         9943 	.data.b	21
00002952 546e6143   9944 	.data.b	67,97,110,84,112,95,77,97,105,110,70,117,110,99,116,105,111,110,82,120,0
00002956 614d5f70 
0000295a 75466e69 
0000295e 6974636e 
00002962 78526e6f 
00002966 00 
00002967 238d       9945 	.data.b	141,35
00002969 1b         9946 	.data.b	27
0000296a 01         9947 	.data.b	1
0000296b 00000000*  9948 	.data.w	CanTp_MainFunctionRx
0000296f 00000000*  9949 	.data.w	__ghs_eofn_CanTp_MainFunctionRx
00002973 5d01       9950 	.data.b	1,93
00002975 0180b0     9951 	.data.b	176,128,1
00002978 78         9952 	.data.b	120
00002979 00         9953 	.data.b	0
0000297a 08         9954 	.data.b	8
0000297b 01         9955 	.data.b	1
0000297c 00         9956 	.data.b	0
0000297d 00         9957 	.data.b	0
0000297e 01         9958 	.data.b	1
0000297f 01         9959 	.data.b	1
00002980 00         9960 	.data.b	0
00002981 01         9961 	.data.b	1
                    9962 
                    9963 	.section	.debug_frame
                    9964 .LDW_5fba578:

                                                                      Page 188
                                                              C:\Users\Fengyuan\AppData\Local\Temp\gh_0000kos1.s
000001f8 00000000*  9965 	.data.w	.LDW_unq_22-.LDW_unq_21
                    9966 .LDW_unq_21:
000001fc 00000000*  9967 	.data.w	.LDW_5fd7438
00000200 00000000*  9968 	.data.w	CanTp_MainFunctionRx
00000204 000000ba   9969 	.data.w	__ghs_eofn_CanTp_MainFunctionRx-CanTp_MainFunctionRx
00000208 01         9970 	.data.b	1
00000209 00000000*  9971 	.data.w	.LDW16
0000020d 00         9972 	.data.b	0
0000020e 00         9973 	.data.b	0
0000020f 00         9974 	.data.b	0
                    9975 .LDW_unq_22:
                    9976 	.section	.debug_line
00000c97 020500     9977 	.data.b	0,5,2
00000c9a 00000000*  9978 	.data.w	CanTp_MainFunctionRx
00000c9e 06         9979 	.data.b	6
00000c9f 03         9980 	.data.b	3
00000ca0 238d       9981 	.data.b	141,35
00000ca2 02         9982 	.data.b	2
00000ca3 00         9983 	.data.b	0
00000ca4 01         9984 	.data.b	1
00000ca5 03         9985 	.data.b	3
00000ca6 06         9986 	.data.b	6
00000ca7 02         9987 	.data.b	2
00000ca8 02         9988 	.data.b	2
00000ca9 01         9989 	.data.b	1
00000caa 020500     9990 	.data.b	0,5,2
00000cad 00000000*  9991 	.data.w	.LDWlin81
00000cb1 0b         9992 	.data.b	11
00000cb2 03         9993 	.data.b	3
00000cb3 04         9994 	.data.b	4
00000cb4 02         9995 	.data.b	2
00000cb5 00         9996 	.data.b	0
00000cb6 01         9997 	.data.b	1
00000cb7 14         9998 	.data.b	20
00000cb8 2c         9999 	.data.b	44
00000cb9 020500    10000 	.data.b	0,5,2
00000cbc 00000000* 10001 	.data.w	.LDWlin82
00000cc0 0b        10002 	.data.b	11
00000cc1 0b        10003 	.data.b	11
00000cc2 1d        10004 	.data.b	29
00000cc3 020500    10005 	.data.b	0,5,2
00000cc6 00000000* 10006 	.data.w	.LDWlin83
00000cca 0b        10007 	.data.b	11
00000ccb 0c        10008 	.data.b	12
00000ccc 2c        10009 	.data.b	44
00000ccd 1b        10010 	.data.b	27
00000cce 0c        10011 	.data.b	12
00000ccf 020500    10012 	.data.b	0,5,2
00000cd2 00000000* 10013 	.data.w	.LDWlin84
00000cd6 03        10014 	.data.b	3
00000cd7 2d        10015 	.data.b	45
00000cd8 02        10016 	.data.b	2
00000cd9 00        10017 	.data.b	0
00000cda 01        10018 	.data.b	1
00000cdb 0b        10019 	.data.b	11
00000cdc 33        10020 	.data.b	51
00000cdd 020500    10021 	.data.b	0,5,2
00000ce0 00000000* 10022 	.data.w	.LDWlin85
00000ce4 03        10023 	.data.b	3
00000ce5 5d        10024 	.data.b	93
00000ce6 02        10025 	.data.b	2

                                                                      Page 189
                                                              C:\Users\Fengyuan\AppData\Local\Temp\gh_0000kos1.s
00000ce7 00        10026 	.data.b	0
00000ce8 01        10027 	.data.b	1
00000ce9 13        10028 	.data.b	19
00000cea 020500    10029 	.data.b	0,5,2
00000ced 00000000* 10030 	.data.w	.LDWlin86
00000cf1 03        10031 	.data.b	3
00000cf2 77        10032 	.data.b	119
00000cf3 02        10033 	.data.b	2
00000cf4 00        10034 	.data.b	0
00000cf5 01        10035 	.data.b	1
00000cf6 33        10036 	.data.b	51
00000cf7 020500    10037 	.data.b	0,5,2
00000cfa 00000000* 10038 	.data.w	.LDWlin87
00000cfe 03        10039 	.data.b	3
00000cff 0f        10040 	.data.b	15
00000d00 02        10041 	.data.b	2
00000d01 00        10042 	.data.b	0
00000d02 01        10043 	.data.b	1
00000d03 03        10044 	.data.b	3
00000d04 07        10045 	.data.b	7
00000d05 02        10046 	.data.b	2
00000d06 00        10047 	.data.b	0
00000d07 01        10048 	.data.b	1
00000d08 25        10049 	.data.b	37
00000d09 06        10050 	.data.b	6
00000d0a 020500    10051 	.data.b	0,5,2
00000d0d 00000000* 10052 	.data.w	.LDWlin88
00000d11 03        10053 	.data.b	3
00000d12 75        10054 	.data.b	117
00000d13 02        10055 	.data.b	2
00000d14 00        10056 	.data.b	0
00000d15 01        10057 	.data.b	1
00000d16 06        10058 	.data.b	6
00000d17 03        10059 	.data.b	3
00000d18 0c        10060 	.data.b	12
00000d19 02        10061 	.data.b	2
00000d1a 00        10062 	.data.b	0
00000d1b 01        10063 	.data.b	1
00000d1c 0b        10064 	.data.b	11
00000d1d 020500    10065 	.data.b	0,5,2
00000d20 00000000* 10066 	.data.w	.LDWlin89
00000d24 0b        10067 	.data.b	11
00000d25 02        10068 	.data.b	2
00000d26 00        10069 	.data.b	0
00000d27 0b        10070 	.data.b	11
00000d28 03        10071 	.data.b	3
00000d29 05        10072 	.data.b	5
00000d2a 02        10073 	.data.b	2
00000d2b 00        10074 	.data.b	0
00000d2c 01        10075 	.data.b	1
00000d2d 3b        10076 	.data.b	59
00000d2e 1c        10077 	.data.b	28
00000d2f 020500    10078 	.data.b	0,5,2
00000d32 00000000* 10079 	.data.w	.LDWlin90
00000d36 03        10080 	.data.b	3
00000d37 06        10081 	.data.b	6
00000d38 02        10082 	.data.b	2
00000d39 00        10083 	.data.b	0
00000d3a 01        10084 	.data.b	1
00000d3b 0b        10085 	.data.b	11
00000d3c 0d        10086 	.data.b	13

                                                                      Page 190
                                                              C:\Users\Fengyuan\AppData\Local\Temp\gh_0000kos1.s
00000d3d 03        10087 	.data.b	3
00000d3e 0e        10088 	.data.b	14
00000d3f 02        10089 	.data.b	2
00000d40 00        10090 	.data.b	0
00000d41 01        10091 	.data.b	1
00000d42 020500    10092 	.data.b	0,5,2
00000d45 00000000* 10093 	.data.w	.LDWlin91
00000d49 0c        10094 	.data.b	12
00000d4a 0b        10095 	.data.b	11
00000d4b 23        10096 	.data.b	35
00000d4c 02        10097 	.data.b	2
00000d4d 00        10098 	.data.b	0
00000d4e 0d        10099 	.data.b	13
00000d4f 020500    10100 	.data.b	0,5,2
00000d52 00000000* 10101 	.data.w	.LDWlin92
00000d56 0b        10102 	.data.b	11
00000d57 0b        10103 	.data.b	11
00000d58 23        10104 	.data.b	35
00000d59 02        10105 	.data.b	2
00000d5a 00        10106 	.data.b	0
00000d5b 0b        10107 	.data.b	11
00000d5c 02        10108 	.data.b	2
00000d5d 00        10109 	.data.b	0
00000d5e 0b        10110 	.data.b	11
00000d5f 02        10111 	.data.b	2
00000d60 00        10112 	.data.b	0
00000d61 0c        10113 	.data.b	12
00000d62 1b        10114 	.data.b	27
00000d63 02        10115 	.data.b	2
00000d64 00        10116 	.data.b	0
00000d65 03        10117 	.data.b	3
00000d66 7f9e      10118 	.data.b	158,127
00000d68 02        10119 	.data.b	2
00000d69 00        10120 	.data.b	0
00000d6a 01        10121 	.data.b	1
00000d6b 020500    10122 	.data.b	0,5,2
00000d6e 00000000* 10123 	.data.w	.LDWlin93
00000d72 03        10124 	.data.b	3
00000d73 00e4      10125 	.data.b	228,0
00000d75 02        10126 	.data.b	2
00000d76 00        10127 	.data.b	0
00000d77 01        10128 	.data.b	1
00000d78 0c        10129 	.data.b	12
00000d79 02        10130 	.data.b	2
00000d7a 00        10131 	.data.b	0
00000d7b 0c        10132 	.data.b	12
00000d7c 02        10133 	.data.b	2
00000d7d 02        10134 	.data.b	2
00000d7e 010100    10135 	.data.b	0,1,1
                   10136 	.section	.debug_info
                   10137 .LDW_5e1eb70:
00002982 1f        10138 	.data.b	31
00002983 00000000* 10139 	.data.w	.LDW06
00002987 00000000* 10140 	.data.w	.LDW16
                   10141 
                   10142 .LDW_60a12c8:
0000298b 07        10143 	.data.b	7
0000298c 4378526c  10144 	.data.b	108,82,120,67,104,97,110,110,101,108,72,100,108,0
00002990 6e6e6168 
00002994 64486c65 
00002998 006c 

                                                                      Page 191
                                                              C:\Users\Fengyuan\AppData\Local\Temp\gh_0000kos1.s
0000299a 2390      10145 	.data.b	144,35
0000299c 18        10146 	.data.b	24
0000299d 01        10147 	.data.b	1
0000299e 00000000* 10148 	.data.w	.LDW_5d78d88
000029a2 00        10149 	.data.b	0
000029a3 00        10150 	.data.b	0
                   10151 
                   10152 .LDW_60a1530:
000029a4 06        10153 	.data.b	6
000029a5 52705470  10154 	.data.b	112,84,112,82,120,83,116,97,116,101,0
000029a9 61745378 
000029ad 006574 
000029b0 2391      10155 	.data.b	145,35
000029b2 18        10156 	.data.b	24
000029b3 01        10157 	.data.b	1
000029b4 00000000* 10158 	.data.w	.LDW_5d787b0
000029b8 00        10159 	.data.b	0
000029b9 00        10160 	.data.b	0
000029ba 5401      10161 	.data.b	1,84
                   10162 
000029bc 00        10163 	.data.b	0
                   10164 
000029bd 00        10165 	.data.b	0
                   10166 
                   10167 .LDW_606f970:
000029be 15        10168 	.data.b	21
000029bf 546e6143  10169 	.data.b	67,97,110,84,112,95,77,97,105,110,70,117,110,99,116,105,111,110,84,120,0
000029c3 614d5f70 
000029c7 75466e69 
000029cb 6974636e 
000029cf 78546e6f 
000029d3 00 
000029d4 249c      10170 	.data.b	156,36
000029d6 18        10171 	.data.b	24
000029d7 01        10172 	.data.b	1
000029d8 00000000* 10173 	.data.w	CanTp_MainFunctionTx
000029dc 00000000* 10174 	.data.w	__ghs_eofn_CanTp_MainFunctionTx
000029e0 5d01      10175 	.data.b	1,93
000029e2 018090    10176 	.data.b	144,128,1
000029e5 7c        10177 	.data.b	124
000029e6 00        10178 	.data.b	0
000029e7 04        10179 	.data.b	4
000029e8 01        10180 	.data.b	1
000029e9 00        10181 	.data.b	0
000029ea 00        10182 	.data.b	0
000029eb 01        10183 	.data.b	1
000029ec 01        10184 	.data.b	1
000029ed 00        10185 	.data.b	0
000029ee 01        10186 	.data.b	1
                   10187 
                   10188 	.section	.debug_frame
                   10189 .LDW_5fba538:
00000210 00000000* 10190 	.data.w	.LDW_unq_24-.LDW_unq_23
                   10191 .LDW_unq_23:
00000214 00000000* 10192 	.data.w	.LDW_5fd7438
00000218 00000000* 10193 	.data.w	CanTp_MainFunctionTx
0000021c 000000aa  10194 	.data.w	__ghs_eofn_CanTp_MainFunctionTx-CanTp_MainFunctionTx
00000220 01        10195 	.data.b	1
00000221 00000000* 10196 	.data.w	.LDW36
00000225 00        10197 	.data.b	0
00000226 00        10198 	.data.b	0

                                                                      Page 192
                                                              C:\Users\Fengyuan\AppData\Local\Temp\gh_0000kos1.s
00000227 00        10199 	.data.b	0
                   10200 .LDW_unq_24:
                   10201 	.section	.debug_line
00000d81 020500    10202 	.data.b	0,5,2
00000d84 00000000* 10203 	.data.w	CanTp_MainFunctionTx
00000d88 06        10204 	.data.b	6
00000d89 03        10205 	.data.b	3
00000d8a 249c      10206 	.data.b	156,36
00000d8c 02        10207 	.data.b	2
00000d8d 00        10208 	.data.b	0
00000d8e 01        10209 	.data.b	1
00000d8f 03        10210 	.data.b	3
00000d90 06        10211 	.data.b	6
00000d91 02        10212 	.data.b	2
00000d92 02        10213 	.data.b	2
00000d93 01        10214 	.data.b	1
00000d94 020500    10215 	.data.b	0,5,2
00000d97 00000000* 10216 	.data.w	.LDWlin94
00000d9b 0b        10217 	.data.b	11
00000d9c 03        10218 	.data.b	3
00000d9d 04        10219 	.data.b	4
00000d9e 02        10220 	.data.b	2
00000d9f 00        10221 	.data.b	0
00000da0 01        10222 	.data.b	1
00000da1 03        10223 	.data.b	3
00000da2 04        10224 	.data.b	4
00000da3 02        10225 	.data.b	2
00000da4 00        10226 	.data.b	0
00000da5 01        10227 	.data.b	1
00000da6 020500    10228 	.data.b	0,5,2
00000da9 00000000* 10229 	.data.w	.LDWlin95
00000dad 0b        10230 	.data.b	11
00000dae 0b        10231 	.data.b	11
00000daf 1d        10232 	.data.b	29
00000db0 020500    10233 	.data.b	0,5,2
00000db3 00000000* 10234 	.data.w	.LDWlin96
00000db7 0b        10235 	.data.b	11
00000db8 0c        10236 	.data.b	12
00000db9 020500    10237 	.data.b	0,5,2
00000dbc 00000000* 10238 	.data.w	.LDWlin97
00000dc0 0b        10239 	.data.b	11
00000dc1 0b        10240 	.data.b	11
00000dc2 1d        10241 	.data.b	29
00000dc3 020500    10242 	.data.b	0,5,2
00000dc6 00000000* 10243 	.data.w	.LDWlin98
00000dca 0b        10244 	.data.b	11
00000dcb 0c        10245 	.data.b	12
00000dcc 1c        10246 	.data.b	28
00000dcd 02        10247 	.data.b	2
00000dce 00        10248 	.data.b	0
00000dcf 0b        10249 	.data.b	11
00000dd0 02        10250 	.data.b	2
00000dd1 00        10251 	.data.b	0
00000dd2 0c        10252 	.data.b	12
00000dd3 2b        10253 	.data.b	43
00000dd4 1b        10254 	.data.b	27
00000dd5 0c        10255 	.data.b	12
00000dd6 020500    10256 	.data.b	0,5,2
00000dd9 00000000* 10257 	.data.w	.LDWlin99
00000ddd 03        10258 	.data.b	3
00000dde 29        10259 	.data.b	41

                                                                      Page 193
                                                              C:\Users\Fengyuan\AppData\Local\Temp\gh_0000kos1.s
00000ddf 02        10260 	.data.b	2
00000de0 00        10261 	.data.b	0
00000de1 01        10262 	.data.b	1
00000de2 0b        10263 	.data.b	11
00000de3 3b        10264 	.data.b	59
00000de4 020500    10265 	.data.b	0,5,2
00000de7 00000000* 10266 	.data.w	.LDWlin100
00000deb 03        10267 	.data.b	3
00000dec 59        10268 	.data.b	89
00000ded 02        10269 	.data.b	2
00000dee 00        10270 	.data.b	0
00000def 01        10271 	.data.b	1
00000df0 1b        10272 	.data.b	27
00000df1 020500    10273 	.data.b	0,5,2
00000df4 00000000* 10274 	.data.w	.LDWlin101
00000df8 03        10275 	.data.b	3
00000df9 08        10276 	.data.b	8
00000dfa 02        10277 	.data.b	2
00000dfb 00        10278 	.data.b	0
00000dfc 01        10279 	.data.b	1
00000dfd 13        10280 	.data.b	19
00000dfe 03        10281 	.data.b	3
00000dff 04        10282 	.data.b	4
00000e00 02        10283 	.data.b	2
00000e01 04        10284 	.data.b	4
00000e02 01        10285 	.data.b	1
00000e03 03        10286 	.data.b	3
00000e04 04        10287 	.data.b	4
00000e05 02        10288 	.data.b	2
00000e06 00        10289 	.data.b	0
00000e07 01        10290 	.data.b	1
00000e08 24        10291 	.data.b	36
00000e09 020500    10292 	.data.b	0,5,2
00000e0c 00000000* 10293 	.data.w	.LDWlin102
00000e10 0b        10294 	.data.b	11
00000e11 0b        10295 	.data.b	11
00000e12 020500    10296 	.data.b	0,5,2
00000e15 00000000* 10297 	.data.w	.LDWlin103
00000e19 0b        10298 	.data.b	11
00000e1a 02        10299 	.data.b	2
00000e1b 00        10300 	.data.b	0
00000e1c 0b        10301 	.data.b	11
00000e1d 03        10302 	.data.b	3
00000e1e 09        10303 	.data.b	9
00000e1f 02        10304 	.data.b	2
00000e20 00        10305 	.data.b	0
00000e21 01        10306 	.data.b	1
00000e22 33        10307 	.data.b	51
00000e23 020500    10308 	.data.b	0,5,2
00000e26 00000000* 10309 	.data.w	.LDWlin104
00000e2a 03        10310 	.data.b	3
00000e2b 06        10311 	.data.b	6
00000e2c 02        10312 	.data.b	2
00000e2d 00        10313 	.data.b	0
00000e2e 01        10314 	.data.b	1
00000e2f 0b        10315 	.data.b	11
00000e30 0d        10316 	.data.b	13
00000e31 03        10317 	.data.b	3
00000e32 0d        10318 	.data.b	13
00000e33 02        10319 	.data.b	2
00000e34 00        10320 	.data.b	0

                                                                      Page 194
                                                              C:\Users\Fengyuan\AppData\Local\Temp\gh_0000kos1.s
00000e35 01        10321 	.data.b	1
00000e36 020500    10322 	.data.b	0,5,2
00000e39 00000000* 10323 	.data.w	.LDWlin105
00000e3d 0b        10324 	.data.b	11
00000e3e 0b        10325 	.data.b	11
00000e3f 23        10326 	.data.b	35
00000e40 02        10327 	.data.b	2
00000e41 00        10328 	.data.b	0
00000e42 0d        10329 	.data.b	13
00000e43 020500    10330 	.data.b	0,5,2
00000e46 00000000* 10331 	.data.w	.LDWlin106
00000e4a 0b        10332 	.data.b	11
00000e4b 0b        10333 	.data.b	11
00000e4c 23        10334 	.data.b	35
00000e4d 02        10335 	.data.b	2
00000e4e 00        10336 	.data.b	0
00000e4f 0b        10337 	.data.b	11
00000e50 02        10338 	.data.b	2
00000e51 00        10339 	.data.b	0
00000e52 0b        10340 	.data.b	11
00000e53 02        10341 	.data.b	2
00000e54 00        10342 	.data.b	0
00000e55 0d        10343 	.data.b	13
00000e56 1b        10344 	.data.b	27
00000e57 02        10345 	.data.b	2
00000e58 00        10346 	.data.b	0
00000e59 0c        10347 	.data.b	12
00000e5a 0c        10348 	.data.b	12
00000e5b 02        10349 	.data.b	2
00000e5c 00        10350 	.data.b	0
00000e5d 0c        10351 	.data.b	12
00000e5e 02        10352 	.data.b	2
00000e5f 4a        10353 	.data.b	74
00000e60 010100    10354 	.data.b	0,1,1
                   10355 	.section	.debug_info
                   10356 .LDW_5e1eb10:
000029ef 1f        10357 	.data.b	31
000029f0 00000000* 10358 	.data.w	.LDW26
000029f4 00000000* 10359 	.data.w	.LDW36
                   10360 
                   10361 .LDW_60a1378:
000029f8 07        10362 	.data.b	7
000029f9 4378546c  10363 	.data.b	108,84,120,67,104,97,110,110,101,108,72,100,108,0
000029fd 6e6e6168 
00002a01 64486c65 
00002a05 006c 
00002a07 249f      10364 	.data.b	159,36
00002a09 18        10365 	.data.b	24
00002a0a 01        10366 	.data.b	1
00002a0b 00000000* 10367 	.data.w	.LDW_5d78d88
00002a0f 00        10368 	.data.b	0
00002a10 00        10369 	.data.b	0
                   10370 
                   10371 .LDW_60a1480:
00002a11 07        10372 	.data.b	7
00002a12 54705470  10373 	.data.b	112,84,112,84,120,83,116,97,116,101,0
00002a16 61745378 
00002a1a 006574 
00002a1d 24a0      10374 	.data.b	160,36
00002a1f 18        10375 	.data.b	24
00002a20 01        10376 	.data.b	1

                                                                      Page 195
                                                              C:\Users\Fengyuan\AppData\Local\Temp\gh_0000kos1.s
00002a21 00000000* 10377 	.data.w	.LDW_5ed03f8
00002a25 00        10378 	.data.b	0
00002a26 00        10379 	.data.b	0
                   10380 
00002a27 00        10381 	.data.b	0
                   10382 
00002a28 00        10383 	.data.b	0
                   10384 
                   10385 .LDW_606f120:
00002a29 16        10386 	.data.b	22
00002a2a 546e6143  10387 	.data.b	67,97,110,84,112,95,84,114,97,110,115,109,105,116,0
00002a2e 72545f70 
00002a32 6d736e61 
00002a36 007469 
00002a39 25a9      10388 	.data.b	169,37
00002a3b 22        10389 	.data.b	34
00002a3c 01        10390 	.data.b	1
00002a3d 00000000* 10391 	.data.w	.LDW_5ed0768
00002a41 00000000* 10392 	.data.w	CanTp_Transmit
00002a45 00000000* 10393 	.data.w	__ghs_eofn_CanTp_Transmit
00002a49 5d01      10394 	.data.b	1,93
00002a4b 0180b0    10395 	.data.b	176,128,1
00002a4e 78        10396 	.data.b	120
00002a4f 00        10397 	.data.b	0
00002a50 08        10398 	.data.b	8
00002a51 01        10399 	.data.b	1
00002a52 00        10400 	.data.b	0
00002a53 00        10401 	.data.b	0
00002a54 01        10402 	.data.b	1
00002a55 01        10403 	.data.b	1
00002a56 00        10404 	.data.b	0
00002a57 01        10405 	.data.b	1
                   10406 
                   10407 	.section	.debug_frame
                   10408 .LDW_5daa6b8:
00000228 00000000* 10409 	.data.w	.LDW_unq_26-.LDW_unq_25
                   10410 .LDW_unq_25:
0000022c 00000000* 10411 	.data.w	.LDW_5fd7438
00000230 00000000* 10412 	.data.w	CanTp_Transmit
00000234 0000005c  10413 	.data.w	__ghs_eofn_CanTp_Transmit-CanTp_Transmit
00000238 01        10414 	.data.b	1
00000239 00000000* 10415 	.data.w	.LDW76
0000023d 00        10416 	.data.b	0
0000023e 00        10417 	.data.b	0
0000023f 00        10418 	.data.b	0
                   10419 .LDW_unq_26:
                   10420 	.section	.debug_line
00000e63 020500    10421 	.data.b	0,5,2
00000e66 00000000* 10422 	.data.w	CanTp_Transmit
00000e6a 06        10423 	.data.b	6
00000e6b 03        10424 	.data.b	3
00000e6c 25a9      10425 	.data.b	169,37
00000e6e 02        10426 	.data.b	2
00000e6f 00        10427 	.data.b	0
00000e70 01        10428 	.data.b	1
00000e71 1d        10429 	.data.b	29
00000e72 03        10430 	.data.b	3
00000e73 05        10431 	.data.b	5
00000e74 02        10432 	.data.b	2
00000e75 02        10433 	.data.b	2
00000e76 01        10434 	.data.b	1

                                                                      Page 196
                                                              C:\Users\Fengyuan\AppData\Local\Temp\gh_0000kos1.s
00000e77 020500    10435 	.data.b	0,5,2
00000e7a 00000000* 10436 	.data.w	.LDWlin107
00000e7e 0b        10437 	.data.b	11
00000e7f 0d        10438 	.data.b	13
00000e80 0c        10439 	.data.b	12
00000e81 02        10440 	.data.b	2
00000e82 00        10441 	.data.b	0
00000e83 1b        10442 	.data.b	27
00000e84 0c        10443 	.data.b	12
00000e85 0b        10444 	.data.b	11
00000e86 02        10445 	.data.b	2
00000e87 00        10446 	.data.b	0
00000e88 1b        10447 	.data.b	27
00000e89 0c        10448 	.data.b	12
00000e8a 0d        10449 	.data.b	13
00000e8b 02        10450 	.data.b	2
00000e8c 00        10451 	.data.b	0
00000e8d 020500    10452 	.data.b	0,5,2
00000e90 00000000* 10453 	.data.w	.LDWlin108
00000e94 0b        10454 	.data.b	11
00000e95 0c        10455 	.data.b	12
00000e96 03        10456 	.data.b	3
00000e97 0b        10457 	.data.b	11
00000e98 02        10458 	.data.b	2
00000e99 00        10459 	.data.b	0
00000e9a 01        10460 	.data.b	1
00000e9b 03        10461 	.data.b	3
00000e9c 08        10462 	.data.b	8
00000e9d 02        10463 	.data.b	2
00000e9e 00        10464 	.data.b	0
00000e9f 01        10465 	.data.b	1
00000ea0 13        10466 	.data.b	19
00000ea1 0b        10467 	.data.b	11
00000ea2 03        10468 	.data.b	3
00000ea3 09        10469 	.data.b	9
00000ea4 02        10470 	.data.b	2
00000ea5 04        10471 	.data.b	4
00000ea6 01        10472 	.data.b	1
00000ea7 020500    10473 	.data.b	0,5,2
00000eaa 00000000* 10474 	.data.w	.LDWlin109
00000eae 03        10475 	.data.b	3
00000eaf 04        10476 	.data.b	4
00000eb0 02        10477 	.data.b	2
00000eb1 00        10478 	.data.b	0
00000eb2 01        10479 	.data.b	1
00000eb3 020500    10480 	.data.b	0,5,2
00000eb6 00000000* 10481 	.data.w	.LDWlin110
00000eba 0b        10482 	.data.b	11
00000ebb 02        10483 	.data.b	2
00000ebc 00        10484 	.data.b	0
00000ebd 0c        10485 	.data.b	12
00000ebe 02        10486 	.data.b	2
00000ebf 00        10487 	.data.b	0
00000ec0 02        10488 	.data.b	2
00000ec1 00        10489 	.data.b	0
00000ec2 02        10490 	.data.b	2
00000ec3 00        10491 	.data.b	0
00000ec4 02        10492 	.data.b	2
00000ec5 00        10493 	.data.b	0
00000ec6 02        10494 	.data.b	2
00000ec7 00        10495 	.data.b	0

                                                                      Page 197
                                                              C:\Users\Fengyuan\AppData\Local\Temp\gh_0000kos1.s
00000ec8 02        10496 	.data.b	2
00000ec9 00        10497 	.data.b	0
00000eca 02        10498 	.data.b	2
00000ecb 00        10499 	.data.b	0
00000ecc 03        10500 	.data.b	3
00000ecd 04        10501 	.data.b	4
00000ece 02        10502 	.data.b	2
00000ecf 00        10503 	.data.b	0
00000ed0 01        10504 	.data.b	1
00000ed1 0b        10505 	.data.b	11
00000ed2 0b        10506 	.data.b	11
00000ed3 33        10507 	.data.b	51
00000ed4 02        10508 	.data.b	2
00000ed5 00        10509 	.data.b	0
00000ed6 03        10510 	.data.b	3
00000ed7 05        10511 	.data.b	5
00000ed8 02        10512 	.data.b	2
00000ed9 00        10513 	.data.b	0
00000eda 01        10514 	.data.b	1
00000edb 06        10515 	.data.b	6
00000edc 02        10516 	.data.b	2
00000edd 02        10517 	.data.b	2
00000ede 02        10518 	.data.b	2
00000edf 02        10519 	.data.b	2
00000ee0 010100    10520 	.data.b	0,1,1
                   10521 	.section	.debug_info
                   10522 .LDW_60a1588:
00002a58 11        10523 	.data.b	17
00002a59 546e6143  10524 	.data.b	67,97,110,84,112,84,120,83,100,117,73,100,0
00002a5d 53785470 
00002a61 64497564 
00002a65 00 
00002a66 25a9      10525 	.data.b	169,37
00002a68 3b        10526 	.data.b	59
00002a69 01        10527 	.data.b	1
00002a6a 00000000* 10528 	.data.w	.LDW_5d78d88
00002a6e 00        10529 	.data.b	0
00002a6f 5001      10530 	.data.b	1,80
                   10531 
                   10532 .LDW_60a14d8:
00002a71 11        10533 	.data.b	17
00002a72 546e6143  10534 	.data.b	67,97,110,84,112,84,120,73,110,102,111,80,116,114,0
00002a76 49785470 
00002a7a 506f666e 
00002a7e 007274 
00002a81 25a9      10535 	.data.b	169,37
00002a83 7a        10536 	.data.b	122
00002a84 01        10537 	.data.b	1
00002a85 00000000* 10538 	.data.w	.LDW_4b4d240
00002a89 00        10539 	.data.b	0
00002a8a 5501      10540 	.data.b	1,85
                   10541 
                   10542 .LDW_5e1e7b0:
00002a8c 1f        10543 	.data.b	31
00002a8d 00000000* 10544 	.data.w	.LDW46
00002a91 00000000* 10545 	.data.w	.LDW76
                   10546 
                   10547 .LDW_60a15e0:
00002a95 06        10548 	.data.b	6
00002a96 7272456c  10549 	.data.b	108,69,114,114,111,114,73,100,0
00002a9a 6449726f 

                                                                      Page 198
                                                              C:\Users\Fengyuan\AppData\Local\Temp\gh_0000kos1.s
00002a9e 00 
00002a9f 25ac      10550 	.data.b	172,37
00002aa1 13        10551 	.data.b	19
00002aa2 01        10552 	.data.b	1
00002aa3 00000000* 10553 	.data.w	.LDW_4b7ea10
00002aa7 00        10554 	.data.b	0
00002aa8 00        10555 	.data.b	0
00002aa9 5301      10556 	.data.b	1,83
                   10557 
                   10558 .LDW_60a11c0:
00002aab 06        10559 	.data.b	6
00002aac 7465526c  10560 	.data.b	108,82,101,116,117,114,110,86,97,108,117,101,0
00002ab0 566e7275 
00002ab4 65756c61 
00002ab8 00 
00002ab9 25ad      10561 	.data.b	173,37
00002abb 13        10562 	.data.b	19
00002abc 01        10563 	.data.b	1
00002abd 00000000* 10564 	.data.w	.LDW_5ed0768
00002ac1 00        10565 	.data.b	0
00002ac2 00        10566 	.data.b	0
00002ac3 5401      10567 	.data.b	1,84
                   10568 
                   10569 .LDW_5e1eb40:
00002ac5 1f        10570 	.data.b	31
00002ac6 00000000* 10571 	.data.w	.LDW56
00002aca 00000000* 10572 	.data.w	.LDW66
                   10573 
                   10574 .LDW_60a16e8:
00002ace 08        10575 	.data.b	8
00002acf 5378546c  10576 	.data.b	108,84,120,83,100,117,72,100,108,0
00002ad3 64487564 
00002ad7 006c 
00002ad9 25d4      10577 	.data.b	212,37
00002adb 21        10578 	.data.b	33
00002adc 01        10579 	.data.b	1
00002add 00000000* 10580 	.data.w	.LDW_60a1690
00002ae1 00        10581 	.data.b	0
00002ae2 00        10582 	.data.b	0
00002ae3 00        10583 	.data.b	0
                   10584 
                   10585 	.section	.debug_abbrev
000001b6 08        10586 	.data.b	8
000001b7 34        10587 	.data.b	52
000001b8 00        10588 	.data.b	0
000001b9 0803      10589 	.data.b	3,8
000001bb 0f3b      10590 	.data.b	59,15
000001bd 0f39      10591 	.data.b	57,15
000001bf 0f3a      10592 	.data.b	58,15
000001c1 1049      10593 	.data.b	73,16
000001c3 0c3f      10594 	.data.b	63,12
000001c5 0c3c      10595 	.data.b	60,12
000001c7 0d1c      10596 	.data.b	28,13
000001c9 0000      10597 	.data.b	0,0
                   10598 
                   10599 	.section	.debug_info
00002ae4 00        10600 	.data.b	0
                   10601 
00002ae5 00        10602 	.data.b	0
                   10603 
00002ae6 00        10604 	.data.b	0

                                                                      Page 199
                                                              C:\Users\Fengyuan\AppData\Local\Temp\gh_0000kos1.s
                   10605 
                   10606 .LDW_606f840:
00002ae7 15        10607 	.data.b	21
00002ae8 546e6143  10608 	.data.b	67,97,110,84,112,95,82,120,73,110,100,105,99,97,116,105,111,110,0
00002aec 78525f70 
00002af0 69646e49 
00002af4 69746163 
00002af8 006e6f 
00002afb 268d      10609 	.data.b	141,38
00002afd 18        10610 	.data.b	24
00002afe 01        10611 	.data.b	1
00002aff 00000000* 10612 	.data.w	CanTp_RxIndication
00002b03 00000000* 10613 	.data.w	__ghs_eofn_CanTp_RxIndication
00002b07 5d01      10614 	.data.b	1,93
00002b09 018090    10615 	.data.b	144,128,1
00002b0c 7c        10616 	.data.b	124
00002b0d 00        10617 	.data.b	0
00002b0e 04        10618 	.data.b	4
00002b0f 01        10619 	.data.b	1
00002b10 00        10620 	.data.b	0
00002b11 00        10621 	.data.b	0
00002b12 01        10622 	.data.b	1
00002b13 01        10623 	.data.b	1
00002b14 00        10624 	.data.b	0
00002b15 01        10625 	.data.b	1
                   10626 
                   10627 	.section	.debug_frame
                   10628 .LDW_5daa1b8:
00000240 00000000* 10629 	.data.w	.LDW_unq_28-.LDW_unq_27
                   10630 .LDW_unq_27:
00000244 00000000* 10631 	.data.w	.LDW_5fd7438
00000248 00000000* 10632 	.data.w	CanTp_RxIndication
0000024c 0000005c  10633 	.data.w	__ghs_eofn_CanTp_RxIndication-CanTp_RxIndication
00000250 01        10634 	.data.b	1
00000251 00000000* 10635 	.data.w	.LDW17
00000255 00        10636 	.data.b	0
00000256 00        10637 	.data.b	0
00000257 00        10638 	.data.b	0
                   10639 .LDW_unq_28:
                   10640 	.section	.debug_line
00000ee3 020500    10641 	.data.b	0,5,2
00000ee6 00000000* 10642 	.data.w	CanTp_RxIndication
00000eea 06        10643 	.data.b	6
00000eeb 03        10644 	.data.b	3
00000eec 268d      10645 	.data.b	141,38
00000eee 02        10646 	.data.b	2
00000eef 00        10647 	.data.b	0
00000ef0 01        10648 	.data.b	1
00000ef1 03        10649 	.data.b	3
00000ef2 05        10650 	.data.b	5
00000ef3 02        10651 	.data.b	2
00000ef4 02        10652 	.data.b	2
00000ef5 01        10653 	.data.b	1
00000ef6 020500    10654 	.data.b	0,5,2
00000ef9 00000000* 10655 	.data.w	.LDWlin111
00000efd 0b        10656 	.data.b	11
00000efe 0c        10657 	.data.b	12
00000eff 03        10658 	.data.b	3
00000f00 00d0      10659 	.data.b	208,0
00000f02 02        10660 	.data.b	2
00000f03 02        10661 	.data.b	2

                                                                      Page 200
                                                              C:\Users\Fengyuan\AppData\Local\Temp\gh_0000kos1.s
00000f04 01        10662 	.data.b	1
00000f05 02        10663 	.data.b	2
00000f06 00        10664 	.data.b	0
00000f07 03        10665 	.data.b	3
00000f08 0c        10666 	.data.b	12
00000f09 02        10667 	.data.b	2
00000f0a 00        10668 	.data.b	0
00000f0b 01        10669 	.data.b	1
00000f0c 02        10670 	.data.b	2
00000f0d 00        10671 	.data.b	0
00000f0e 02        10672 	.data.b	2
00000f0f 00        10673 	.data.b	0
00000f10 02        10674 	.data.b	2
00000f11 00        10675 	.data.b	0
00000f12 02        10676 	.data.b	2
00000f13 00        10677 	.data.b	0
00000f14 02        10678 	.data.b	2
00000f15 00        10679 	.data.b	0
00000f16 02        10680 	.data.b	2
00000f17 00        10681 	.data.b	0
00000f18 02        10682 	.data.b	2
00000f19 00        10683 	.data.b	0
00000f1a 03        10684 	.data.b	3
00000f1b 04        10685 	.data.b	4
00000f1c 02        10686 	.data.b	2
00000f1d 00        10687 	.data.b	0
00000f1e 01        10688 	.data.b	1
00000f1f 0b        10689 	.data.b	11
00000f20 0b        10690 	.data.b	11
00000f21 020500    10691 	.data.b	0,5,2
00000f24 00000000* 10692 	.data.w	.LDWlin112
00000f28 03        10693 	.data.b	3
00000f29 7f9f      10694 	.data.b	159,127
00000f2b 02        10695 	.data.b	2
00000f2c 00        10696 	.data.b	0
00000f2d 01        10697 	.data.b	1
00000f2e 0c        10698 	.data.b	12
00000f2f 02        10699 	.data.b	2
00000f30 00        10700 	.data.b	0
00000f31 020500    10701 	.data.b	0,5,2
00000f34 00000000* 10702 	.data.w	.LDWlin113
00000f38 0b        10703 	.data.b	11
00000f39 0b        10704 	.data.b	11
00000f3a 020500    10705 	.data.b	0,5,2
00000f3d 00000000* 10706 	.data.w	.LDWlin114
00000f41 0b        10707 	.data.b	11
00000f42 0b        10708 	.data.b	11
00000f43 02        10709 	.data.b	2
00000f44 00        10710 	.data.b	0
00000f45 15        10711 	.data.b	21
00000f46 0b        10712 	.data.b	11
00000f47 02        10713 	.data.b	2
00000f48 00        10714 	.data.b	0
00000f49 06        10715 	.data.b	6
00000f4a 03        10716 	.data.b	3
00000f4b 7e        10717 	.data.b	126
00000f4c 02        10718 	.data.b	2
00000f4d 04        10719 	.data.b	4
00000f4e 01        10720 	.data.b	1
00000f4f 06        10721 	.data.b	6
00000f50 0d        10722 	.data.b	13

                                                                      Page 201
                                                              C:\Users\Fengyuan\AppData\Local\Temp\gh_0000kos1.s
00000f51 0b        10723 	.data.b	11
00000f52 020500    10724 	.data.b	0,5,2
00000f55 00000000* 10725 	.data.w	.LDWlin115
00000f59 0b        10726 	.data.b	11
00000f5a 0d        10727 	.data.b	13
00000f5b 03        10728 	.data.b	3
00000f5c 26        10729 	.data.b	38
00000f5d 02        10730 	.data.b	2
00000f5e 00        10731 	.data.b	0
00000f5f 01        10732 	.data.b	1
00000f60 23        10733 	.data.b	35
00000f61 020500    10734 	.data.b	0,5,2
00000f64 00000000* 10735 	.data.w	.LDWlin116
00000f68 03        10736 	.data.b	3
00000f69 15        10737 	.data.b	21
00000f6a 02        10738 	.data.b	2
00000f6b 00        10739 	.data.b	0
00000f6c 01        10740 	.data.b	1
00000f6d 020500    10741 	.data.b	0,5,2
00000f70 00000000* 10742 	.data.w	.LDWlin117
00000f74 0b        10743 	.data.b	11
00000f75 0b        10744 	.data.b	11
00000f76 03        10745 	.data.b	3
00000f77 14        10746 	.data.b	20
00000f78 02        10747 	.data.b	2
00000f79 08        10748 	.data.b	8
00000f7a 01        10749 	.data.b	1
00000f7b 02        10750 	.data.b	2
00000f7c 00        10751 	.data.b	0
00000f7d 03        10752 	.data.b	3
00000f7e 04        10753 	.data.b	4
00000f7f 02        10754 	.data.b	2
00000f80 00        10755 	.data.b	0
00000f81 01        10756 	.data.b	1
00000f82 02        10757 	.data.b	2
00000f83 02        10758 	.data.b	2
00000f84 010100    10759 	.data.b	0,1,1
                   10760 	.section	.debug_info
                   10761 .LDW_60a1740:
00002b16 11        10762 	.data.b	17
00002b17 64507852  10763 	.data.b	82,120,80,100,117,73,100,0
00002b1b 00644975 
00002b1f 268d      10764 	.data.b	141,38
00002b21 35        10765 	.data.b	53
00002b22 01        10766 	.data.b	1
00002b23 00000000* 10767 	.data.w	.LDW_5d78d88
00002b27 00        10768 	.data.b	0
00002b28 5001      10769 	.data.b	1,80
                   10770 
                   10771 .LDW_60a17f0:
00002b2a 11        10772 	.data.b	17
00002b2b 49756450  10773 	.data.b	80,100,117,73,110,102,111,80,116,114,0
00002b2f 506f666e 
00002b33 007274 
00002b36 268d      10774 	.data.b	141,38
00002b38 6f        10775 	.data.b	111
00002b39 01        10776 	.data.b	1
00002b3a 00000000* 10777 	.data.w	.LDW_4b4d240
00002b3e 00        10778 	.data.b	0
00002b3f 5101      10779 	.data.b	1,81
                   10780 

                                                                      Page 202
                                                              C:\Users\Fengyuan\AppData\Local\Temp\gh_0000kos1.s
                   10781 .LDW_5e1e990:
00002b41 1f        10782 	.data.b	31
00002b42 00000000* 10783 	.data.w	.LDW86
00002b46 00000000* 10784 	.data.w	.LDW17
                   10785 
                   10786 .LDW_60a2030:
00002b4a 07        10787 	.data.b	7
00002b4b 7272456c  10788 	.data.b	108,69,114,114,111,114,73,100,0
00002b4f 6449726f 
00002b53 00 
00002b54 2690      10789 	.data.b	144,38
00002b56 09        10790 	.data.b	9
00002b57 01        10791 	.data.b	1
00002b58 00000000* 10792 	.data.w	.LDW_4b7ea10
00002b5c 00        10793 	.data.b	0
00002b5d 00        10794 	.data.b	0
                   10795 
                   10796 .LDW_5e1ea80:
00002b5e 1f        10797 	.data.b	31
00002b5f 00000000* 10798 	.data.w	.LDW07
00002b63 00000000* 10799 	.data.w	.LDW96
                   10800 
                   10801 .LDW_60a1bb8:
00002b67 06        10802 	.data.b	6
00002b68 7564536c  10803 	.data.b	108,83,100,117,72,100,108,0
00002b6c 006c6448 
00002b70 26aa      10804 	.data.b	170,38
00002b72 20        10805 	.data.b	32
00002b73 01        10806 	.data.b	1
00002b74 00000000* 10807 	.data.w	.LDW_5d78d88
00002b78 00        10808 	.data.b	0
00002b79 00        10809 	.data.b	0
00002b7a 5001      10810 	.data.b	1,80
                   10811 
                   10812 .LDW_60a1c68:
00002b7c 06        10813 	.data.b	6
00002b7d 6365526c  10814 	.data.b	108,82,101,99,101,105,118,101,100,70,114,97,109,101,84,121,112,101,0
00002b81 65766965 
00002b85 61724664 
00002b89 7954656d 
00002b8d 006570 
00002b90 26ab      10815 	.data.b	171,38
00002b92 20        10816 	.data.b	32
00002b93 01        10817 	.data.b	1
00002b94 00000000* 10818 	.data.w	.LDW_4b7ea10
00002b98 00        10819 	.data.b	0
00002b99 00        10820 	.data.b	0
00002b9a 5301      10821 	.data.b	1,83
                   10822 
00002b9c 00        10823 	.data.b	0
                   10824 
00002b9d 00        10825 	.data.b	0
                   10826 
00002b9e 00        10827 	.data.b	0
                   10828 
                   10829 .LDW_606f4b0:
00002b9f 15        10830 	.data.b	21
00002ba0 546e6143  10831 	.data.b	67,97,110,84,112,95,84,120,67,111,110,102,105,114,109,97,116,105,111,110,0
00002ba4 78545f70 
00002ba8 666e6f43 
00002bac 616d7269 

                                                                      Page 203
                                                              C:\Users\Fengyuan\AppData\Local\Temp\gh_0000kos1.s
00002bb0 6e6f6974 
00002bb4 00 
00002bb5 2791      10832 	.data.b	145,39
00002bb7 18        10833 	.data.b	24
00002bb8 01        10834 	.data.b	1
00002bb9 00000000* 10835 	.data.w	CanTp_TxConfirmation
00002bbd 00000000* 10836 	.data.w	__ghs_eofn_CanTp_TxConfirmation
00002bc1 5d01      10837 	.data.b	1,93
00002bc3 0180b0    10838 	.data.b	176,128,1
00002bc6 78        10839 	.data.b	120
00002bc7 00        10840 	.data.b	0
00002bc8 08        10841 	.data.b	8
00002bc9 01        10842 	.data.b	1
00002bca 00        10843 	.data.b	0
00002bcb 00        10844 	.data.b	0
00002bcc 01        10845 	.data.b	1
00002bcd 01        10846 	.data.b	1
00002bce 00        10847 	.data.b	0
00002bcf 01        10848 	.data.b	1
                   10849 
                   10850 	.section	.debug_frame
                   10851 .LDW_5daaa78:
00000258 00000000* 10852 	.data.w	.LDW_unq_2a-.LDW_unq_29
                   10853 .LDW_unq_29:
0000025c 00000000* 10854 	.data.w	.LDW_5fd7438
00000260 00000000* 10855 	.data.w	CanTp_TxConfirmation
00000264 00000078  10856 	.data.w	__ghs_eofn_CanTp_TxConfirmation-CanTp_TxConfirmation
00000268 01        10857 	.data.b	1
00000269 00000000* 10858 	.data.w	.LDW97
0000026d 00        10859 	.data.b	0
0000026e 00        10860 	.data.b	0
0000026f 00        10861 	.data.b	0
                   10862 .LDW_unq_2a:
                   10863 	.section	.debug_line
00000f87 020500    10864 	.data.b	0,5,2
00000f8a 00000000* 10865 	.data.w	CanTp_TxConfirmation
00000f8e 06        10866 	.data.b	6
00000f8f 03        10867 	.data.b	3
00000f90 2791      10868 	.data.b	145,39
00000f92 02        10869 	.data.b	2
00000f93 00        10870 	.data.b	0
00000f94 01        10871 	.data.b	1
00000f95 03        10872 	.data.b	3
00000f96 06        10873 	.data.b	6
00000f97 02        10874 	.data.b	2
00000f98 02        10875 	.data.b	2
00000f99 01        10876 	.data.b	1
00000f9a 020500    10877 	.data.b	0,5,2
00000f9d 00000000* 10878 	.data.w	.LDWlin118
00000fa1 0b        10879 	.data.b	11
00000fa2 0c        10880 	.data.b	12
00000fa3 0b        10881 	.data.b	11
00000fa4 02        10882 	.data.b	2
00000fa5 00        10883 	.data.b	0
00000fa6 1b        10884 	.data.b	27
00000fa7 0c        10885 	.data.b	12
00000fa8 0d        10886 	.data.b	13
00000fa9 03        10887 	.data.b	3
00000faa 06        10888 	.data.b	6
00000fab 02        10889 	.data.b	2
00000fac 00        10890 	.data.b	0

                                                                      Page 204
                                                              C:\Users\Fengyuan\AppData\Local\Temp\gh_0000kos1.s
00000fad 01        10891 	.data.b	1
00000fae 1d        10892 	.data.b	29
00000faf 1b        10893 	.data.b	27
00000fb0 15        10894 	.data.b	21
00000fb1 1b        10895 	.data.b	27
00000fb2 03        10896 	.data.b	3
00000fb3 0a        10897 	.data.b	10
00000fb4 02        10898 	.data.b	2
00000fb5 04        10899 	.data.b	4
00000fb6 01        10900 	.data.b	1
00000fb7 03        10901 	.data.b	3
00000fb8 04        10902 	.data.b	4
00000fb9 02        10903 	.data.b	2
00000fba 04        10904 	.data.b	4
00000fbb 01        10905 	.data.b	1
00000fbc 020500    10906 	.data.b	0,5,2
00000fbf 00000000* 10907 	.data.w	.LDWlin119
00000fc3 0b        10908 	.data.b	11
00000fc4 0b        10909 	.data.b	11
00000fc5 020500    10910 	.data.b	0,5,2
00000fc8 00000000* 10911 	.data.w	.LDWlin120
00000fcc 0b        10912 	.data.b	11
00000fcd 0d        10913 	.data.b	13
00000fce 0b        10914 	.data.b	11
00000fcf 0c        10915 	.data.b	12
00000fd0 1c        10916 	.data.b	28
00000fd1 3b        10917 	.data.b	59
00000fd2 020500    10918 	.data.b	0,5,2
00000fd5 00000000* 10919 	.data.w	.LDWlin121
00000fd9 0b        10920 	.data.b	11
00000fda 0d        10921 	.data.b	13
00000fdb 020500    10922 	.data.b	0,5,2
00000fde 00000000* 10923 	.data.w	.LDWlin122
00000fe2 03        10924 	.data.b	3
00000fe3 05        10925 	.data.b	5
00000fe4 02        10926 	.data.b	2
00000fe5 00        10927 	.data.b	0
00000fe6 01        10928 	.data.b	1
00000fe7 02        10929 	.data.b	2
00000fe8 00        10930 	.data.b	0
00000fe9 0d        10931 	.data.b	13
00000fea 0d        10932 	.data.b	13
00000feb 0d        10933 	.data.b	13
00000fec 3b        10934 	.data.b	59
00000fed 0d        10935 	.data.b	13
00000fee 1c        10936 	.data.b	28
00000fef 3b        10937 	.data.b	59
00000ff0 13        10938 	.data.b	19
00000ff1 0d        10939 	.data.b	13
00000ff2 06        10940 	.data.b	6
00000ff3 03        10941 	.data.b	3
00000ff4 6b        10942 	.data.b	107
00000ff5 02        10943 	.data.b	2
00000ff6 04        10944 	.data.b	4
00000ff7 01        10945 	.data.b	1
00000ff8 06        10946 	.data.b	6
00000ff9 03        10947 	.data.b	3
00000ffa 16        10948 	.data.b	22
00000ffb 02        10949 	.data.b	2
00000ffc 00        10950 	.data.b	0
00000ffd 01        10951 	.data.b	1

                                                                      Page 205
                                                              C:\Users\Fengyuan\AppData\Local\Temp\gh_0000kos1.s
00000ffe 02        10952 	.data.b	2
00000fff 00        10953 	.data.b	0
00001000 0d        10954 	.data.b	13
00001001 020500    10955 	.data.b	0,5,2
00001004 00000000* 10956 	.data.w	.LDWlin123
00001008 0b        10957 	.data.b	11
00001009 02        10958 	.data.b	2
0000100a 00        10959 	.data.b	0
0000100b 0d        10960 	.data.b	13
0000100c 02        10961 	.data.b	2
0000100d 00        10962 	.data.b	0
0000100e 0b        10963 	.data.b	11
0000100f 02        10964 	.data.b	2
00001010 00        10965 	.data.b	0
00001011 0c        10966 	.data.b	12
00001012 02        10967 	.data.b	2
00001013 00        10968 	.data.b	0
00001014 02        10969 	.data.b	2
00001015 00        10970 	.data.b	0
00001016 02        10971 	.data.b	2
00001017 00        10972 	.data.b	0
00001018 03        10973 	.data.b	3
00001019 04        10974 	.data.b	4
0000101a 02        10975 	.data.b	2
0000101b 00        10976 	.data.b	0
0000101c 01        10977 	.data.b	1
0000101d 0b        10978 	.data.b	11
0000101e 0b        10979 	.data.b	11
0000101f 33        10980 	.data.b	51
00001020 02        10981 	.data.b	2
00001021 00        10982 	.data.b	0
00001022 03        10983 	.data.b	3
00001023 04        10984 	.data.b	4
00001024 02        10985 	.data.b	2
00001025 00        10986 	.data.b	0
00001026 01        10987 	.data.b	1
00001027 02        10988 	.data.b	2
00001028 02        10989 	.data.b	2
00001029 010100    10990 	.data.b	0,1,1
                   10991 	.section	.debug_info
                   10992 .LDW_60a1c10:
00002bd0 11        10993 	.data.b	17
00002bd1 64507854  10994 	.data.b	84,120,80,100,117,73,100,0
00002bd5 00644975 
00002bd9 2791      10995 	.data.b	145,39
00002bdb 37        10996 	.data.b	55
00002bdc 01        10997 	.data.b	1
00002bdd 00000000* 10998 	.data.w	.LDW_5d78d88
00002be1 00        10999 	.data.b	0
00002be2 5001      11000 	.data.b	1,80
                   11001 
                   11002 .LDW_5e1ebd0:
00002be4 1f        11003 	.data.b	31
00002be5 00000000* 11004 	.data.w	.LDW27
00002be9 00000000* 11005 	.data.w	.LDW97
                   11006 
                   11007 .LDW_60a1cc0:
00002bed 06        11008 	.data.b	6
00002bee 7272456c  11009 	.data.b	108,69,114,114,111,114,73,100,0
00002bf2 6449726f 
00002bf6 00 

                                                                      Page 206
                                                              C:\Users\Fengyuan\AppData\Local\Temp\gh_0000kos1.s
00002bf7 2794      11010 	.data.b	148,39
00002bf9 09        11011 	.data.b	9
00002bfa 01        11012 	.data.b	1
00002bfb 00000000* 11013 	.data.w	.LDW_4b7ea10
00002bff 00        11014 	.data.b	0
00002c00 00        11015 	.data.b	0
00002c01 5301      11016 	.data.b	1,83
                   11017 
                   11018 .LDW_5e1ec00:
00002c03 1f        11019 	.data.b	31
00002c04 00000000* 11020 	.data.w	.LDW37
00002c08 00000000* 11021 	.data.w	.LDW87
                   11022 
                   11023 .LDW_60a1dc8:
00002c0c 06        11024 	.data.b	6
00002c0d 7564536c  11025 	.data.b	108,83,100,117,72,100,108,0
00002c11 006c6448 
00002c15 27a5      11026 	.data.b	165,39
00002c17 1a        11027 	.data.b	26
00002c18 01        11028 	.data.b	1
00002c19 00000000* 11029 	.data.w	.LDW_5d78d88
00002c1d 00        11030 	.data.b	0
00002c1e 00        11031 	.data.b	0
00002c1f 5401      11032 	.data.b	1,84
                   11033 
                   11034 .LDW_60a1e78:
00002c21 06        11035 	.data.b	6
00002c22 7564536c  11036 	.data.b	108,83,100,117,68,105,114,0
00002c26 00726944 
00002c2a 27a6      11037 	.data.b	166,39
00002c2c 1a        11038 	.data.b	26
00002c2d 01        11039 	.data.b	1
00002c2e 00000000* 11040 	.data.w	.LDW_60a1d18
00002c32 00        11041 	.data.b	0
00002c33 00        11042 	.data.b	0
00002c34 5501      11043 	.data.b	1,85
                   11044 
                   11045 .LDW_5e1ecf0:
00002c36 1f        11046 	.data.b	31
00002c37 00000000* 11047 	.data.w	.LDW47
00002c3b 00000000* 11048 	.data.w	.LDW57
                   11049 
                   11050 .LDW_60a1d70:
00002c3f 06        11051 	.data.b	6
00002c40 54705470  11052 	.data.b	112,84,112,84,120,83,116,97,116,101,0
00002c44 61745378 
00002c48 006574 
00002c4b 27c6      11053 	.data.b	198,39
00002c4d 20        11054 	.data.b	32
00002c4e 01        11055 	.data.b	1
00002c4f 00000000* 11056 	.data.w	.LDW_5ed03f8
00002c53 00        11057 	.data.b	0
00002c54 00        11058 	.data.b	0
00002c55 5001      11059 	.data.b	1,80
                   11060 
00002c57 00        11061 	.data.b	0
                   11062 
                   11063 .LDW_5e1e780:
00002c58 1f        11064 	.data.b	31
00002c59 00000000* 11065 	.data.w	.LDW67
00002c5d 00000000* 11066 	.data.w	.LDW77

                                                                      Page 207
                                                              C:\Users\Fengyuan\AppData\Local\Temp\gh_0000kos1.s
                   11067 
                   11068 .LDW_60a1f80:
00002c61 06        11069 	.data.b	6
00002c62 52705470  11070 	.data.b	112,84,112,82,120,83,116,97,116,101,0
00002c66 61745378 
00002c6a 006574 
00002c6d 27de      11071 	.data.b	222,39
00002c6f 20        11072 	.data.b	32
00002c70 01        11073 	.data.b	1
00002c71 00000000* 11074 	.data.w	.LDW_5d787b0
00002c75 00        11075 	.data.b	0
00002c76 00        11076 	.data.b	0
00002c77 5001      11077 	.data.b	1,80
                   11078 
00002c79 00        11079 	.data.b	0
                   11080 
00002c7a 00        11081 	.data.b	0
                   11082 
00002c7b 00        11083 	.data.b	0
                   11084 
00002c7c 00        11085 	.data.b	0
                   11086 
00002c7d 00        11087 	.data.b	0
                   11088 
                   11089 	.section	.debug_line
                   11090 .Ldw_line_end:
                   11091 	.section	.debug_macinfo
00000000 03        11092 	.data.b	3
00000001 00        11093 	.data.b	0
00000002 01        11094 	.data.b	1
00000003 03        11095 	.data.b	3
00000004 6b        11096 	.data.b	107
00000005 02        11097 	.data.b	2
00000006 03        11098 	.data.b	3
00000007 69        11099 	.data.b	105
00000008 03        11100 	.data.b	3
00000009 03        11101 	.data.b	3
0000000a 25        11102 	.data.b	37
0000000b 04        11103 	.data.b	4
0000000c 03        11104 	.data.b	3
0000000d 4a        11105 	.data.b	74
0000000e 05        11106 	.data.b	5
0000000f 03        11107 	.data.b	3
00000010 3f        11108 	.data.b	63
00000011 06        11109 	.data.b	6
00000012 01        11110 	.data.b	1
00000013 5a        11111 	.data.b	90
00000014 5f555043  11112 	.data.b	67,80,85,95,84,89,80,69,95,56,32,56,117,0
00000018 45505954 
0000001c 3820385f 
00000020 0075 
00000022 01        11113 	.data.b	1
00000023 5b        11114 	.data.b	91
00000024 5f555043  11115 	.data.b	67,80,85,95,84,89,80,69,95,49,54,32,49,54,117,0
00000028 45505954 
0000002c 2036315f 
00000030 00753631 
00000034 01        11116 	.data.b	1
00000035 5c        11117 	.data.b	92
00000036 5f555043  11118 	.data.b	67,80,85,95,84,89,80,69,95,51,50,32,51,50,117,0
0000003a 45505954 

                                                                      Page 208
                                                              C:\Users\Fengyuan\AppData\Local\Temp\gh_0000kos1.s
0000003e 2032335f 
00000042 00753233 
00000046 01        11119 	.data.b	1
00000047 5e        11120 	.data.b	94
00000048 5f42534d  11121 	.data.b	77,83,66,95,70,73,82,83,84,32,48,117,0
0000004c 53524946 
00000050 75302054 
00000054 00 
00000055 01        11122 	.data.b	1
00000056 5f        11123 	.data.b	95
00000057 5f42534c  11124 	.data.b	76,83,66,95,70,73,82,83,84,32,49,117,0
0000005b 53524946 
0000005f 75312054 
00000063 00 
00000064 01        11125 	.data.b	1
00000065 61        11126 	.data.b	97
00000066 48474948  11127 	.data.b	72,73,71,72,95,66,89,84,69,95,70,73,82,83,84,32,48,117,0
0000006a 5459425f 
0000006e 49465f45 
00000072 20545352 
00000076 007530 
00000079 01        11128 	.data.b	1
0000007a 62        11129 	.data.b	98
0000007b 5f574f4c  11130 	.data.b	76,79,87,95,66,89,84,69,95,70,73,82,83,84,32,49,117,0
0000007f 45545942 
00000083 5249465f 
00000087 31205453 
0000008b 0075 
0000008d 01        11131 	.data.b	1
0000008e 65        11132 	.data.b	101
0000008f 45555254  11133 	.data.b	84,82,85,69,32,49,117,0
00000093 00753120 
00000097 01        11134 	.data.b	1
00000098 69        11135 	.data.b	105
00000099 534c4146  11136 	.data.b	70,65,76,83,69,32,48,117,0
0000009d 75302045 
000000a1 00 
000000a2 01        11137 	.data.b	1
000000a3 6c        11138 	.data.b	108
000000a4 5f555043  11139 	.data.b	67,80,85,95,84,89,80,69,32,67,80,85,95,84,89,80,69,95,51,50,0
000000a8 45505954 
000000ac 55504320 
000000b0 5059545f 
000000b4 32335f45 
000000b8 00 
000000b9 01        11140 	.data.b	1
000000ba 6d        11141 	.data.b	109
000000bb 5f555043  11142 	.data.b	67,80,85,95,66,73,84,95,79,82,68,69,82,32,76,83,66,95,70,73,82,83,84,0
000000bf 5f544942 
000000c3 4544524f 
000000c7 534c2052 
000000cb 49465f42 
000000cf 00545352 
000000d3 01        11143 	.data.b	1
000000d4 6e        11144 	.data.b	110
000000d5 5f555043  11145 	.data.b	67,80,85,95,66,89,84,69,95,79,82,68,69,82,32,76,79,87,95,66,89,84,69,95,70,73,82,83,84,0
000000d9 45545942 
000000dd 44524f5f 
000000e1 4c205245 
000000e5 425f574f 
000000e9 5f455459 

                                                                      Page 209
                                                              C:\Users\Fengyuan\AppData\Local\Temp\gh_0000kos1.s
000000ed 53524946 
000000f1 0054 
000000f3 04        11146 	.data.b	4
000000f4 03        11147 	.data.b	3
000000f5 40        11148 	.data.b	64
000000f6 07        11149 	.data.b	7
000000f7 03        11150 	.data.b	3
000000f8 3e        11151 	.data.b	62
000000f9 08        11152 	.data.b	8
000000fa 03        11153 	.data.b	3
000000fb 7f        11154 	.data.b	127
000000fc 09        11155 	.data.b	9
000000fd 04        11156 	.data.b	4
000000fe 03        11157 	.data.b	3
000000ff 01d6      11158 	.data.b	214,1
00000101 0a        11159 	.data.b	10
00000102 04        11160 	.data.b	4
00000103 03        11161 	.data.b	3
00000104 01d7      11162 	.data.b	215,1
00000106 0b        11163 	.data.b	11
00000107 04        11164 	.data.b	4
00000108 03        11165 	.data.b	3
00000109 06c5      11166 	.data.b	197,6
0000010b 0c        11167 	.data.b	12
0000010c 04        11168 	.data.b	4
0000010d 04        11169 	.data.b	4
0000010e 01        11170 	.data.b	1
0000010f 5b        11171 	.data.b	91
00000110 4f545541  11172 	.data.b	65,85,84,79,77,65,84,73,67,32,0
00000114 4954414d 
00000118 002043 
0000011b 01        11173 	.data.b	1
0000011c 5e        11174 	.data.b	94
0000011d 45505954  11175 	.data.b	84,89,80,69,68,69,70,32,0
00000121 20464544 
00000125 00 
00000126 01        11176 	.data.b	1
00000127 63        11177 	.data.b	99
00000128 4c4c554e  11178 	.data.b	78,85,76,76,95,80,84,82,32,40,40,118,111,105,100,32,42,41,48,41,0
0000012c 5254505f 
00000130 76282820 
00000134 2064696f 
00000138 2930292a 
0000013c 00 
0000013d 01        11179 	.data.b	1
0000013e 6f        11180 	.data.b	111
0000013f 41434f4c  11181 	.data.b	76,79,67,65,76,95,73,78,76,73,78,69,32,115,116,97,116,105,99,32,105,110,108,105,110,101,0
00000143 4e495f4c 
00000147 454e494c 
0000014b 61747320 
0000014f 20636974 
00000153 696c6e69 
00000157 00656e 
0000015a 01        11182 	.data.b	1
0000015b 75        11183 	.data.b	117
0000015c 434e5546  11184 	.data.b	70,85,78,67,40,114,101,116,116,121,112,101,44,109,101,109,99,108,97,115,115,41,32,114,101,116,116,121,112,101,0
00000160 74657228 
00000164 65707974 
00000168 6d656d2c 
0000016c 73616c63 
00000170 72202973 

                                                                      Page 210
                                                              C:\Users\Fengyuan\AppData\Local\Temp\gh_0000kos1.s
00000174 79747465 
00000178 006570 
0000017b 01        11185 	.data.b	1
0000017c 7c        11186 	.data.b	124
0000017d 434e5546  11187 	.data.b	70,85,78,67,95,80,50,67,79,78,83,84,40,114,101,116,116,121,112,101,44,112,116,114,99,108,97,115,115,44,109,101,109,99,108,97,115,115,41,32,99,111,110,115,116,32,114,101,116,116,121,112,101,42,0
00000181 4332505f 
00000185 54534e4f 
00000189 74657228 
0000018d 65707974 
00000191 7274702c 
00000195 73616c63 
00000199 656d2c73 
0000019d 616c636d 
000001a1 20297373 
000001a5 736e6f63 
000001a9 65722074 
000001ad 70797474 
000001b1 002a65 
000001b4 01        11188 	.data.b	1
000001b5 018a      11189 	.data.b	138,1
000001b7 41563250  11190 	.data.b	80,50,86,65,82,40,112,116,114,116,121,112,101,44,109,101,109,99,108,97,115,115,44,112,116,114,99,108,97,115,115,41,32,112,116,114,116,121,112,101,42,0
000001bb 74702852 
000001bf 70797472 
000001c3 656d2c65 
000001c7 616c636d 
000001cb 702c7373 
000001cf 6c637274 
000001d3 29737361 
000001d7 72747020 
000001db 65707974 
000001df 002a 
000001e1 01        11191 	.data.b	1
000001e2 0191      11192 	.data.b	145,1
000001e4 4f433250  11193 	.data.b	80,50,67,79,78,83,84,40,112,116,114,116,121,112,101,44,109,101,109,99,108,97,115,115,44,112,116,114,99,108,97,115,115,41,32,99,111,110,115,116,32,112,116,114,116,121,112,101,42,0
000001e8 2854534e 
000001ec 74727470 
000001f0 2c657079 
000001f4 636d656d 
000001f8 7373616c 
000001fc 7274702c 
00000200 73616c63 
00000204 63202973 
00000208 74736e6f 
0000020c 72747020 
00000210 65707974 
00000214 002a 
00000216 01        11194 	.data.b	1
00000217 019f      11195 	.data.b	159,1
00000219 534e4f43  11196 	.data.b	67,79,78,83,84,80,50,67,79,78,83,84,40,112,116,114,116,121,112,101,44,109,101,109,99,108,97,115,115,44,112,116,114,99,108,97,115,115,41,32,99,111,110,115,116,32,112,116,114,116,121,112,101,42,32,99,111,110,115,116
0000021d 43325054 
00000221 54534e4f 
00000225 72747028 
00000229 65707974 
0000022d 6d656d2c 
00000231 73616c63 
00000235 74702c73 
00000239 616c6372 
0000023d 20297373 
00000241 736e6f63 
00000245 74702074 
00000249 70797472 

                                                                      Page 211
                                                              C:\Users\Fengyuan\AppData\Local\Temp\gh_0000kos1.s
0000024d 63202a65 
00000251 74736e6f 
00000255 00        11197 	.data.b	0
00000256 01        11198 	.data.b	1
00000257 01a6      11199 	.data.b	166,1
00000259 55463250  11200 	.data.b	80,50,70,85,78,67,40,114,101,116,116,121,112,101,44,112,116,114,99,108,97,115,115,44,102,99,116,110,97,109,101,41,32,114,101,116,116,121,112,101,32,40,42,32,102,99,116,110,97,109,101,41,0
0000025d 7228434e 
00000261 79747465 
00000265 702c6570 
00000269 6c637274 
0000026d 2c737361 
00000271 6e746366 
00000275 29656d61 
00000279 74657220 
0000027d 65707974 
00000281 202a2820 
00000285 6e746366 
00000289 29656d61 
0000028d 00 
0000028e 01        11201 	.data.b	1
0000028f 01b6      11202 	.data.b	182,1
00000291 534e4f43  11203 	.data.b	67,79,78,83,84,40,116,121,112,101,44,109,101,109,99,108,97,115,115,41,32,99,111,110,115,116,32,116,121,112,101,0
00000295 79742854 
00000299 6d2c6570 
0000029d 6c636d65 
000002a1 29737361 
000002a5 6e6f6320 
000002a9 74207473 
000002ad 00657079 
000002b1 01        11204 	.data.b	1
000002b2 01bc      11205 	.data.b	188,1
000002b4 28524156  11206 	.data.b	86,65,82,40,118,97,114,116,121,112,101,44,109,101,109,99,108,97,115,115,41,32,118,97,114,116,121,112,101,0
000002b8 74726176 
000002bc 2c657079 
000002c0 636d656d 
000002c4 7373616c 
000002c8 61762029 
000002cc 70797472 
000002d0 0065 
000002d2 04        11207 	.data.b	4
000002d3 01        11208 	.data.b	1
000002d4 6d        11209 	.data.b	109
000002d5 5f445453  11210 	.data.b	83,84,68,95,79,78,32,49,117,0
000002d9 31204e4f 
000002dd 0075 
000002df 01        11211 	.data.b	1
000002e0 6e        11212 	.data.b	110
000002e1 5f445453  11213 	.data.b	83,84,68,95,79,70,70,32,48,117,0
000002e5 2046464f 
000002e9 007530 
000002ec 01        11214 	.data.b	1
000002ed 7c        11215 	.data.b	124
000002ee 4b4f5f45  11216 	.data.b	69,95,79,75,32,48,117,0
000002f2 00753020 
000002f6 01        11217 	.data.b	1
000002f7 0180      11218 	.data.b	128,1
000002f9 4f4e5f45  11219 	.data.b	69,95,78,79,84,95,79,75,32,49,117,0
000002fd 4b4f5f54 
00000301 00753120 
00000305 04        11220 	.data.b	4
00000306 03        11221 	.data.b	3

                                                                      Page 212
                                                              C:\Users\Fengyuan\AppData\Local\Temp\gh_0000kos1.s
00000307 4c        11222 	.data.b	76
00000308 0d        11223 	.data.b	13
00000309 04        11224 	.data.b	4
0000030a 01        11225 	.data.b	1
0000030b 5a        11226 	.data.b	90
0000030c 534d4f43  11227 	.data.b	67,79,77,83,84,65,67,75,84,89,80,69,95,65,82,95,82,69,76,69,65,83,69,95,82,69,86,73,83,73,79,78,95,86,69,82,83,73,79,78,32,40,51,117,41,0
00000310 4b434154 
00000314 45505954 
00000318 5f52415f 
0000031c 454c4552 
00000320 5f455341 
00000324 49564552 
00000328 4e4f4953 
0000032c 5245565f 
00000330 4e4f4953 
00000334 75332820 
00000338 0029 
0000033a 04        11228 	.data.b	4
0000033b 03        11229 	.data.b	3
0000033c 26        11230 	.data.b	38
0000033d 0e        11231 	.data.b	14
0000033e 01        11232 	.data.b	1
0000033f 2e        11233 	.data.b	46
00000340 544e4143  11234 	.data.b	67,65,78,84,80,95,68,85,77,77,89,95,83,84,65,84,69,77,69,78,84,40,118,41,32,40,118,41,61,40,118,41,0
00000344 55445f50 
00000348 5f594d4d 
0000034c 54415453 
00000350 4e454d45 
00000354 29762854 
00000358 29762820 
0000035c 2976283d 
00000360 00 
00000361 01        11235 	.data.b	1
00000362 46        11236 	.data.b	70
00000363 544e4143  11237 	.data.b	67,65,78,84,80,95,67,79,78,70,73,71,85,82,65,84,73,79,78,95,86,65,82,73,65,78,84,95,80,82,69,67,79,77,80,73,76,69,32,49,0
00000367 4f435f50 
0000036b 4749464e 
0000036f 54415255 
00000373 5f4e4f49 
00000377 49524156 
0000037b 5f544e41 
0000037f 43455250 
00000383 49504d4f 
00000387 3120454c 
0000038b 00 
0000038c 01        11238 	.data.b	1
0000038d 4c        11239 	.data.b	76
0000038e 544e4143  11240 	.data.b	67,65,78,84,80,95,67,79,78,70,73,71,85,82,65,84,73,79,78,95,86,65,82,73,65,78,84,95,80,79,83,84,66,85,73,76,68,95,76,79,65,68,65,66,76,69,32,51,0
00000392 4f435f50 
00000396 4749464e 
0000039a 54415255 
0000039e 5f4e4f49 
000003a2 49524156 
000003a6 5f544e41 
000003aa 54534f50 
000003ae 4c495542 
000003b2 4f4c5f44 
000003b6 42414441 
000003ba 3320454c 
000003be 00 
000003bf 01        11241 	.data.b	1

                                                                      Page 213
                                                              C:\Users\Fengyuan\AppData\Local\Temp\gh_0000kos1.s
000003c0 4f        11242 	.data.b	79
000003c1 544e4143  11243 	.data.b	67,65,78,84,80,95,67,79,78,70,73,71,85,82,65,84,73,79,78,95,86,65,82,73,65,78,84,32,67,65,78,84,80,95,67,79,78,70,73,71,85,82,65,84,73,79,78,95,86,65,82,73,65,78,84,95,80,82,69,67
000003c5 4f435f50 
000003c9 4749464e 
000003cd 54415255 
000003d1 5f4e4f49 
000003d5 49524156 
000003d9 20544e41 
000003dd 544e4143 
000003e1 4f435f50 
000003e5 4749464e 
000003e9 54415255 
000003ed 5f4e4f49 
000003f1 49524156 
000003f5 5f544e41 
000003f9 43455250 
000003fd 49504d4f  11244 	.data.b	79,77,80,73,76,69,0
00000401 00454c 
00000404 01        11245 	.data.b	1
00000405 52        11246 	.data.b	82
00000406 544e4143  11247 	.data.b	67,65,78,84,80,95,80,79,83,84,66,85,73,76,68,95,86,65,82,73,65,78,84,95,83,85,80,80,79,82,84,32,83,84,68,95,79,70,70,0
0000040a 4f505f50 
0000040e 55425453 
00000412 5f444c49 
00000416 49524156 
0000041a 5f544e41 
0000041e 50505553 
00000422 2054524f 
00000426 5f445453 
0000042a 0046464f 
0000042e 01        11248 	.data.b	1
0000042f 58        11249 	.data.b	88
00000430 544e4143  11250 	.data.b	67,65,78,84,80,95,67,70,71,95,71,69,78,95,77,65,74,79,82,95,86,69,82,83,73,79,78,32,52,117,0
00000434 46435f50 
00000438 45475f47 
0000043c 414d5f4e 
00000440 5f524f4a 
00000444 53524556 
00000448 204e4f49 
0000044c 007534 
0000044f 01        11251 	.data.b	1
00000450 59        11252 	.data.b	89
00000451 544e4143  11253 	.data.b	67,65,78,84,80,95,67,70,71,95,71,69,78,95,77,73,78,79,82,95,86,69,82,83,73,79,78,32,50,117,0
00000455 46435f50 
00000459 45475f47 
0000045d 494d5f4e 
00000461 5f524f4e 
00000465 53524556 
00000469 204e4f49 
0000046d 007532 
00000470 01        11254 	.data.b	1
00000471 5d        11255 	.data.b	93
00000472 544e4143  11256 	.data.b	67,65,78,84,80,95,86,69,82,83,73,79,78,95,73,78,70,79,95,65,80,73,32,83,84,68,95,79,70,70,0
00000476 45565f50 
0000047a 4f495352 
0000047e 4e495f4e 
00000482 415f4f46 
00000486 53204950 
0000048a 4f5f4454 
0000048e 004646 
00000491 01        11257 	.data.b	1

                                                                      Page 214
                                                              C:\Users\Fengyuan\AppData\Local\Temp\gh_0000kos1.s
00000492 5e        11258 	.data.b	94
00000493 544e4143  11259 	.data.b	67,65,78,84,80,95,68,69,86,95,69,82,82,79,82,95,68,69,84,69,67,84,32,83,84,68,95,79,78,0
00000497 45445f50 
0000049b 52455f56 
0000049f 5f524f52 
000004a3 45544544 
000004a7 53205443 
000004ab 4f5f4454 
000004af 004e 
000004b1 01        11260 	.data.b	1
000004b2 5f        11261 	.data.b	95
000004b3 544e4143  11262 	.data.b	67,65,78,84,80,95,68,69,86,95,69,82,82,79,82,95,82,69,80,79,82,84,32,83,84,68,95,79,78,0
000004b7 45445f50 
000004bb 52455f56 
000004bf 5f524f52 
000004c3 4f504552 
000004c7 53205452 
000004cb 4f5f4454 
000004cf 004e 
000004d1 01        11263 	.data.b	1
000004d2 60        11264 	.data.b	96
000004d3 544e4143  11265 	.data.b	67,65,78,84,80,95,84,67,32,83,84,68,95,79,70,70,0
000004d7 43545f50 
000004db 44545320 
000004df 46464f5f 
000004e3 00 
000004e4 01        11266 	.data.b	1
000004e5 61        11267 	.data.b	97
000004e6 544e4143  11268 	.data.b	67,65,78,84,80,95,82,67,32,83,84,68,95,79,70,70,0
000004ea 43525f50 
000004ee 44545320 
000004f2 46464f5f 
000004f6 00 
000004f7 01        11269 	.data.b	1
000004f8 62        11270 	.data.b	98
000004f9 544e4143  11271 	.data.b	67,65,78,84,80,95,73,78,86,65,76,73,68,95,72,68,76,32,40,40,80,100,117,73,100,84,121,112,101,41,32,50,53,53,117,41,0
000004fd 4e495f50 
00000501 494c4156 
00000505 44485f44 
00000509 2828204c 
0000050d 49756450 
00000511 70795464 
00000515 32202965 
00000519 29753535 
0000051d 00 
0000051e 01        11272 	.data.b	1
0000051f 63        11273 	.data.b	99
00000520 544e4143  11274 	.data.b	67,65,78,84,80,95,84,65,83,75,95,67,89,67,76,69,32,53,117,0
00000524 41545f50 
00000528 435f4b53 
0000052c 454c4359 
00000530 00753520 
00000534 01        11275 	.data.b	1
00000535 66        11276 	.data.b	102
00000536 544e4143  11277 	.data.b	67,65,78,84,80,95,77,65,88,95,70,82,65,77,69,95,76,69,78,71,84,72,32,56,0
0000053a 414d5f50 
0000053e 52465f58 
00000542 5f454d41 
00000546 474e454c 
0000054a 38204854 
0000054e 00 

                                                                      Page 215
                                                              C:\Users\Fengyuan\AppData\Local\Temp\gh_0000kos1.s
0000054f 01        11278 	.data.b	1
00000550 67        11279 	.data.b	103
00000551 544e4143  11280 	.data.b	67,65,78,84,80,95,77,65,88,95,80,65,89,76,79,65,68,95,76,69,78,71,84,72,32,55,0
00000555 414d5f50 
00000559 41505f58 
0000055d 414f4c59 
00000561 454c5f44 
00000565 4854474e 
00000569 003720 
0000056c 01        11281 	.data.b	1
0000056d 68        11282 	.data.b	104
0000056e 544e4143  11283 	.data.b	67,65,78,84,80,95,78,85,77,95,82,88,95,67,72,65,78,78,69,76,83,32,67,97,110,84,112,95,71,101,116,83,105,122,101,79,102,82,120,83,116,97,116,101,40,41,0
00000572 554e5f50 
00000576 58525f4d 
0000057a 4148435f 
0000057e 4c454e4e 
00000582 61432053 
00000586 5f70546e 
0000058a 53746547 
0000058e 4f657a69 
00000592 53785266 
00000596 65746174 
0000059a 002928 
0000059d 01        11284 	.data.b	1
0000059e 69        11285 	.data.b	105
0000059f 544e4143  11286 	.data.b	67,65,78,84,80,95,78,85,77,95,82,88,95,83,68,85,83,32,50,0
000005a3 554e5f50 
000005a7 58525f4d 
000005ab 5544535f 
000005af 00322053 
000005b3 01        11287 	.data.b	1
000005b4 6a        11288 	.data.b	106
000005b5 544e4143  11289 	.data.b	67,65,78,84,80,95,78,85,77,95,84,88,95,67,72,65,78,78,69,76,83,32,67,97,110,84,112,95,71,101,116,83,105,122,101,79,102,84,120,83,116,97,116,101,40,41,0
000005b9 554e5f50 
000005bd 58545f4d 
000005c1 4148435f 
000005c5 4c454e4e 
000005c9 61432053 
000005cd 5f70546e 
000005d1 53746547 
000005d5 4f657a69 
000005d9 53785466 
000005dd 65746174 
000005e1 002928 
000005e4 01        11290 	.data.b	1
000005e5 6b        11291 	.data.b	107
000005e6 544e4143  11292 	.data.b	67,65,78,84,80,95,78,85,77,95,84,88,95,83,68,85,83,32,49,0
000005ea 554e5f50 
000005ee 58545f4d 
000005f2 5544535f 
000005f6 00312053 
000005fa 01        11293 	.data.b	1
000005fb 71        11294 	.data.b	113
000005fc 544e4143  11295 	.data.b	67,65,78,84,80,95,84,65,84,89,80,69,95,70,85,78,67,84,73,79,78,65,76,32,49,0
00000600 41545f50 
00000604 45505954 
00000608 4e55465f 
0000060c 4f495443 
00000610 204c414e 
00000614 0031 
00000616 01        11296 	.data.b	1

                                                                      Page 216
                                                              C:\Users\Fengyuan\AppData\Local\Temp\gh_0000kos1.s
00000617 72        11297 	.data.b	114
00000618 544e4143  11298 	.data.b	67,65,78,84,80,95,84,65,84,89,80,69,95,80,72,89,83,73,67,65,76,32,48,0
0000061c 41545f50 
00000620 45505954 
00000624 5948505f 
00000628 41434953 
0000062c 0030204c 
00000630 01        11299 	.data.b	1
00000631 7f        11300 	.data.b	127
00000632 544e4143  11301 	.data.b	67,65,78,84,80,95,67,65,78,50,48,95,80,65,68,68,73,78,71,95,65,67,84,73,86,69,32,83,84,68,95,79,78,0
00000636 41435f50 
0000063a 5f30324e 
0000063e 44444150 
00000642 5f474e49 
00000646 49544341 
0000064a 53204556 
0000064e 4f5f4454 
00000652 004e 
00000654 01        11302 	.data.b	1
00000655 0180      11303 	.data.b	128,1
00000657 544e4143  11304 	.data.b	67,65,78,84,80,95,72,65,86,69,95,80,65,68,68,73,78,71,95,66,89,84,69,32,83,84,68,95,79,70,70,0
0000065b 41485f50 
0000065f 505f4556 
00000663 49444441 
00000667 425f474e 
0000066b 20455459 
0000066f 5f445453 
00000673 0046464f 
00000677 01        11305 	.data.b	1
00000678 0182      11306 	.data.b	130,1
0000067a 544e4143  11307 	.data.b	67,65,78,84,80,95,68,89,78,95,67,72,65,78,78,69,76,95,65,83,83,73,71,78,77,69,78,84,32,83,84,68,95,79,70,70,0
0000067e 59445f50 
00000682 48435f4e 
00000686 454e4e41 
0000068a 53415f4c 
0000068e 4e474953 
00000692 544e454d 
00000696 44545320 
0000069a 46464f5f 
0000069e 00 
0000069f 01        11308 	.data.b	1
000006a0 0183      11309 	.data.b	131,1
000006a2 544e4143  11310 	.data.b	67,65,78,84,80,95,83,84,65,78,68,65,82,68,95,65,68,68,82,69,83,83,73,78,71,32,83,84,68,95,79,78,0
000006a6 54535f50 
000006aa 41444e41 
000006ae 415f4452 
000006b2 45524444 
000006b6 4e495353 
000006ba 54532047 
000006be 4e4f5f44 
000006c2 00 
000006c3 01        11311 	.data.b	1
000006c4 0184      11312 	.data.b	132,1
000006c6 544e4143  11313 	.data.b	67,65,78,84,80,95,69,88,84,69,78,68,69,68,95,65,68,68,82,69,83,83,73,78,71,32,83,84,68,95,79,78,0
000006ca 58455f50 
000006ce 444e4554 
000006d2 415f4445 
000006d6 45524444 
000006da 4e495353 
000006de 54532047 
000006e2 4e4f5f44 

                                                                      Page 217
                                                              C:\Users\Fengyuan\AppData\Local\Temp\gh_0000kos1.s
000006e6 00 
000006e7 01        11314 	.data.b	1
000006e8 0185      11315 	.data.b	133,1
000006ea 544e4143  11316 	.data.b	67,65,78,84,80,95,77,73,88,69,68,49,49,95,65,68,68,82,69,83,83,73,78,71,32,83,84,68,95,79,78,0
000006ee 494d5f50 
000006f2 31444558 
000006f6 44415f31 
000006fa 53455244 
000006fe 474e4953 
00000702 44545320 
00000706 004e4f5f 
0000070a 01        11317 	.data.b	1
0000070b 0186      11318 	.data.b	134,1
0000070d 544e4143  11319 	.data.b	67,65,78,84,80,95,83,73,78,71,76,69,95,82,88,95,66,85,70,70,69,82,95,79,80,84,73,77,73,90,69,68,32,83,84,68,95,79,70,70,0
00000711 49535f50 
00000715 454c474e 
00000719 5f58525f 
0000071d 46465542 
00000721 4f5f5245 
00000725 4d495450 
00000729 44455a49 
0000072d 44545320 
00000731 46464f5f 
00000735 00 
00000736 01        11320 	.data.b	1
00000737 0187      11321 	.data.b	135,1
00000739 544e4143  11322 	.data.b	67,65,78,84,80,95,82,88,84,88,95,77,65,73,78,70,85,78,67,84,73,79,78,95,65,80,73,32,83,84,68,95,79,70,70,0
0000073d 58525f50 
00000741 4d5f5854 
00000745 464e4941 
00000749 54434e55 
0000074d 5f4e4f49 
00000751 20495041 
00000755 5f445453 
00000759 0046464f 
0000075d 01        11323 	.data.b	1
0000075e 0188      11324 	.data.b	136,1
00000760 544e4143  11325 	.data.b	67,65,78,84,80,95,67,79,78,83,84,65,78,84,95,66,83,32,83,84,68,95,79,78,0
00000764 4f435f50 
00000768 4154534e 
0000076c 425f544e 
00000770 54532053 
00000774 4e4f5f44 
00000778 00 
00000779 01        11326 	.data.b	1
0000077a 0189      11327 	.data.b	137,1
0000077c 544e4143  11328 	.data.b	67,65,78,84,80,95,82,69,74,69,67,84,95,70,67,95,87,73,84,72,95,82,69,83,95,83,84,77,73,78,32,83,84,68,95,79,70,70,0
00000780 45525f50 
00000784 5443454a 
00000788 5f43465f 
0000078c 48544957 
00000790 5345525f 
00000794 4d54535f 
00000798 53204e49 
0000079c 4f5f4454 
000007a0 004646 
000007a3 01        11329 	.data.b	1
000007a4 018a      11330 	.data.b	138,1
000007a6 544e4143  11331 	.data.b	67,65,78,84,80,95,85,83,69,95,79,78,76,89,95,70,73,82,83,84,95,70,67,32,83,84,68,95,79,78,0
000007aa 53555f50 
000007ae 4e4f5f45 

                                                                      Page 218
                                                              C:\Users\Fengyuan\AppData\Local\Temp\gh_0000kos1.s
000007b2 465f594c 
000007b6 54535249 
000007ba 2043465f 
000007be 5f445453 
000007c2 004e4f 
000007c5 01        11332 	.data.b	1
000007c6 018b      11333 	.data.b	139,1
000007c8 544e4143  11334 	.data.b	67,65,78,84,80,95,69,78,65,66,76,69,95,67,72,65,78,71,69,95,80,65,82,65,77,32,83,84,68,95,79,70,70,0
000007cc 4e455f50 
000007d0 454c4241 
000007d4 4148435f 
000007d8 5f45474e 
000007dc 41524150 
000007e0 5453204d 
000007e4 464f5f44 
000007e8 0046 
000007ea 01        11335 	.data.b	1
000007eb 018c      11336 	.data.b	140,1
000007ed 544e4143  11337 	.data.b	67,65,78,84,80,95,69,78,65,66,76,69,95,82,69,65,68,95,80,65,82,65,77,32,83,84,68,95,79,70,70,0
000007f1 4e455f50 
000007f5 454c4241 
000007f9 4145525f 
000007fd 41505f44 
00000801 204d4152 
00000805 5f445453 
00000809 0046464f 
0000080d 01        11338 	.data.b	1
0000080e 018d      11339 	.data.b	141,1
00000810 544e4143  11340 	.data.b	67,65,78,84,80,95,79,78,76,89,95,78,79,84,73,70,89,95,73,78,70,79,82,77,69,68,95,65,80,80,76,32,83,84,68,95,79,78,0
00000814 4e4f5f50 
00000818 4e5f594c 
0000081c 4649544f 
00000820 4e495f59 
00000824 4d524f46 
00000828 415f4445 
0000082c 204c5050 
00000830 5f445453 
00000834 004e4f 
00000837 01        11341 	.data.b	1
00000838 018e      11342 	.data.b	142,1
0000083a 544e4143  11343 	.data.b	67,65,78,84,80,95,84,82,65,78,83,77,73,84,95,81,85,69,85,69,32,83,84,68,95,79,70,70,0
0000083e 52545f50 
00000842 4d534e41 
00000846 515f5449 
0000084a 45554555 
0000084e 44545320 
00000852 46464f5f 
00000856 00 
00000857 01        11344 	.data.b	1
00000858 018f      11345 	.data.b	143,1
0000085a 544e4143  11346 	.data.b	67,65,78,84,80,95,83,85,80,80,79,82,84,95,76,79,78,71,95,70,70,32,83,84,68,95,79,70,70,0
0000085e 55535f50 
00000862 524f5050 
00000866 4f4c5f54 
0000086a 465f474e 
0000086e 54532046 
00000872 464f5f44 
00000876 0046 
00000878 01        11347 	.data.b	1
00000879 0190      11348 	.data.b	144,1
0000087b 544e4143  11349 	.data.b	67,65,78,84,80,95,80,68,85,82,95,65,80,73,95,65,82,95,86,69,82,83,73,79,78,32,48,120,52,49,50,0

                                                                      Page 219
                                                              C:\Users\Fengyuan\AppData\Local\Temp\gh_0000kos1.s
0000087f 44505f50 
00000883 415f5255 
00000887 415f4950 
0000088b 45565f52 
0000088f 4f495352 
00000893 7830204e 
00000897 00323134 
0000089b 01        11350 	.data.b	1
0000089c 0191      11351 	.data.b	145,1
0000089e 544e4143  11352 	.data.b	67,65,78,84,80,95,83,89,78,67,95,84,82,65,78,83,77,73,84,32,83,84,68,95,79,70,70,0
000008a2 59535f50 
000008a6 545f434e 
000008aa 534e4152 
000008ae 2054494d 
000008b2 5f445453 
000008b6 0046464f 
000008ba 01        11353 	.data.b	1
000008bb 0192      11354 	.data.b	146,1
000008bd 544e4143  11355 	.data.b	67,65,78,84,80,95,83,85,80,80,79,82,84,95,67,65,78,70,68,32,83,84,68,95,79,70,70,0
000008c1 55535f50 
000008c5 524f5050 
000008c9 41435f54 
000008cd 2044464e 
000008d1 5f445453 
000008d5 0046464f 
000008d9 01        11356 	.data.b	1
000008da 0193      11357 	.data.b	147,1
000008dc 544e4143  11358 	.data.b	67,65,78,84,80,95,83,84,77,73,78,95,66,89,95,65,80,80,76,32,83,84,68,95,79,70,70,0
000008e0 54535f50 
000008e4 5f4e494d 
000008e8 415f5942 
000008ec 204c5050 
000008f0 5f445453 
000008f4 0046464f 
000008f8 01        11359 	.data.b	1
000008f9 0194      11360 	.data.b	148,1
000008fb 544e4143  11361 	.data.b	67,65,78,84,80,95,68,67,77,95,82,69,81,85,69,83,84,95,68,69,84,69,67,84,32,83,84,68,95,79,70,70,0
000008ff 43445f50 
00000903 45525f4d 
00000907 53455551 
0000090b 45445f54 
0000090f 54434554 
00000913 44545320 
00000917 46464f5f 
0000091b 00 
0000091c 01        11362 	.data.b	1
0000091d 01bd      11363 	.data.b	189,1
0000091f 546e6143  11364 	.data.b	67,97,110,84,112,67,111,110,102,95,67,97,110,84,112,84,120,78,80,100,117,95,67,97,110,84,112,84,120,78,80,100,117,95,53,100,49,56,56,51,50,98,32,48,117,0
00000923 6e6f4370 
00000927 61435f66 
0000092b 5470546e 
0000092f 64504e78 
00000933 61435f75 
00000937 5470546e 
0000093b 64504e78 
0000093f 64355f75 
00000943 33383831 
00000947 30206232 
0000094b 0075 
0000094d 01        11365 	.data.b	1
0000094e 01f1      11366 	.data.b	241,1

                                                                      Page 220
                                                              C:\Users\Fengyuan\AppData\Local\Temp\gh_0000kos1.s
00000950 544e4143  11367 	.data.b	67,65,78,84,80,95,82,88,83,68,85,67,70,71,73,78,68,32,83,84,68,95,79,78,0
00000954 58525f50 
00000958 43554453 
0000095c 4e494746 
00000960 54532044 
00000964 4e4f5f44 
00000968 00 
00000969 01        11368 	.data.b	1
0000096a 02d6      11369 	.data.b	214,2
0000096c 544e4143  11370 	.data.b	67,65,78,84,80,95,78,79,95,84,88,83,68,85,67,70,71,73,78,68,83,84,65,82,84,73,68,88,79,70,82,88,80,68,85,77,65,80,32,50,53,53,117,0
00000970 4f4e5f50 
00000974 5358545f 
00000978 46435544 
0000097c 444e4947 
00000980 52415453 
00000984 58444954 
00000988 5852464f 
0000098c 4d554450 
00000990 32205041 
00000994 00753535 
00000998 01        11371 	.data.b	1
00000999 02e9      11372 	.data.b	233,2
0000099b 544e4143  11373 	.data.b	67,65,78,84,80,95,69,88,73,83,84,83,95,67,65,78,50,48,95,67,65,78,84,89,80,69,79,70,82,88,83,68,85,67,70,71,32,83,84,68,95,79,78,0
0000099f 58455f50 
000009a3 53545349 
000009a7 4e41435f 
000009ab 435f3032 
000009af 59544e41 
000009b3 464f4550 
000009b7 44535852 
000009bb 47464355 
000009bf 44545320 
000009c3 004e4f5f 
000009c7 01        11374 	.data.b	1
000009c8 02ea      11375 	.data.b	234,2
000009ca 544e4143  11376 	.data.b	67,65,78,84,80,95,69,88,73,83,84,83,95,67,65,78,70,68,95,67,65,78,84,89,80,69,79,70,82,88,83,68,85,67,70,71,32,83,84,68,95,79,70,70,0
000009ce 58455f50 
000009d2 53545349 
000009d6 4e41435f 
000009da 435f4446 
000009de 59544e41 
000009e2 464f4550 
000009e6 44535852 
000009ea 47464355 
000009ee 44545320 
000009f2 46464f5f 
000009f6 00 
000009f7 01        11377 	.data.b	1
000009f8 02eb      11378 	.data.b	235,2
000009fa 544e4143  11379 	.data.b	67,65,78,84,80,95,69,88,73,83,84,83,95,72,65,76,70,95,68,85,80,76,69,88,95,67,72,65,78,78,69,76,77,79,68,69,79,70,82,88,83,68,85,67,70,71,32,83,84,68,95,79,70,70,0
000009fe 58455f50 
00000a02 53545349 
00000a06 4c41485f 
00000a0a 55445f46 
00000a0e 58454c50 
00000a12 4148435f 
00000a16 4c454e4e 
00000a1a 45444f4d 
00000a1e 5852464f 
00000a22 43554453 
00000a26 53204746 

                                                                      Page 221
                                                              C:\Users\Fengyuan\AppData\Local\Temp\gh_0000kos1.s
00000a2a 4f5f4454 
00000a2e 004646 
00000a31 01        11380 	.data.b	1
00000a32 02ec      11381 	.data.b	236,2
00000a34 544e4143  11382 	.data.b	67,65,78,84,80,95,69,88,73,83,84,83,95,70,85,76,76,95,68,85,80,76,69,88,95,67,72,65,78,78,69,76,77,79,68,69,79,70,82,88,83,68,85,67,70,71,32,83,84,68,95,79,78,0
00000a38 58455f50 
00000a3c 53545349 
00000a40 4c55465f 
00000a44 55445f4c 
00000a48 58454c50 
00000a4c 4148435f 
00000a50 4c454e4e 
00000a54 45444f4d 
00000a58 5852464f 
00000a5c 43554453 
00000a60 53204746 
00000a64 4f5f4454 
00000a68 004e 
00000a6a 01        11383 	.data.b	1
00000a6b 02ed      11384 	.data.b	237,2
00000a6d 544e4143  11385 	.data.b	67,65,78,84,80,95,69,88,73,83,84,83,95,78,79,82,77,65,76,95,65,68,68,82,69,83,83,73,78,71,95,82,88,65,68,68,82,69,83,83,73,78,71,70,79,82,77,65,84,79,70,82,88,83,68,85,67,70,71,32
00000a71 58455f50 
00000a75 53545349 
00000a79 524f4e5f 
00000a7d 5f4c414d 
00000a81 52444441 
00000a85 49535345 
00000a89 525f474e 
00000a8d 44444158 
00000a91 53534552 
00000a95 46474e49 
00000a99 414d524f 
00000a9d 52464f54 
00000aa1 55445358 
00000aa5 20474643 
00000aa9 5f445453  11386 	.data.b	83,84,68,95,79,78,0
00000aad 004e4f 
00000ab0 01        11387 	.data.b	1
00000ab1 02ee      11388 	.data.b	238,2
00000ab3 544e4143  11389 	.data.b	67,65,78,84,80,95,69,88,73,83,84,83,95,69,88,84,69,78,68,69,68,95,65,68,68,82,69,83,83,73,78,71,95,82,88,65,68,68,82,69,83,83,73,78,71,70,79,82,77,65,84,79,70,82,88,83,68,85,67,70
00000ab7 58455f50 
00000abb 53545349 
00000abf 5458455f 
00000ac3 45444e45 
00000ac7 44415f44 
00000acb 53455244 
00000acf 474e4953 
00000ad3 4158525f 
00000ad7 45524444 
00000adb 4e495353 
00000adf 524f4647 
00000ae3 4f54414d 
00000ae7 53585246 
00000aeb 46435544 
00000aef 54532047  11390 	.data.b	71,32,83,84,68,95,79,70,70,0
00000af3 464f5f44 
00000af7 0046 
00000af9 01        11391 	.data.b	1
00000afa 02ef      11392 	.data.b	239,2
00000afc 544e4143  11393 	.data.b	67,65,78,84,80,95,69,88,73,83,84,83,95,77,73,88,69,68,49,49,95,65,68,68,82,69,83,83,73,78,71,95,82,88,65,68,68,82,69,83,83,73,78,71,70,79,82,77,65,84,79,70,82,88,83,68,85,67,70,71
00000b00 58455f50 

                                                                      Page 222
                                                              C:\Users\Fengyuan\AppData\Local\Temp\gh_0000kos1.s
00000b04 53545349 
00000b08 58494d5f 
00000b0c 31314445 
00000b10 4444415f 
00000b14 53534552 
00000b18 5f474e49 
00000b1c 44415852 
00000b20 53455244 
00000b24 474e4953 
00000b28 4d524f46 
00000b2c 464f5441 
00000b30 44535852 
00000b34 47464355 
00000b38 44545320  11394 	.data.b	32,83,84,68,95,79,70,70,0
00000b3c 46464f5f 
00000b40 00 
00000b41 01        11395 	.data.b	1
00000b42 02f1      11396 	.data.b	241,2
00000b44 544e4143  11397 	.data.b	67,65,78,84,80,95,69,88,73,83,84,83,95,70,85,78,67,84,73,79,78,65,76,95,82,88,84,65,84,89,80,69,79,70,82,88,83,68,85,67,70,71,32,83,84,68,95,79,78,0
00000b48 58455f50 
00000b4c 53545349 
00000b50 4e55465f 
00000b54 4f495443 
00000b58 5f4c414e 
00000b5c 41545852 
00000b60 45505954 
00000b64 5852464f 
00000b68 43554453 
00000b6c 53204746 
00000b70 4f5f4454 
00000b74 004e 
00000b76 01        11398 	.data.b	1
00000b77 02f4      11399 	.data.b	244,2
00000b79 544e4143  11400 	.data.b	67,65,78,84,80,95,69,88,73,83,84,83,95,67,65,78,50,48,95,67,65,78,84,89,80,69,79,70,84,88,83,68,85,67,70,71,32,83,84,68,95,79,78,0
00000b7d 58455f50 
00000b81 53545349 
00000b85 4e41435f 
00000b89 435f3032 
00000b8d 59544e41 
00000b91 464f4550 
00000b95 44535854 
00000b99 47464355 
00000b9d 44545320 
00000ba1 004e4f5f 
00000ba5 01        11401 	.data.b	1
00000ba6 02f5      11402 	.data.b	245,2
00000ba8 544e4143  11403 	.data.b	67,65,78,84,80,95,69,88,73,83,84,83,95,67,65,78,70,68,95,67,65,78,84,89,80,69,79,70,84,88,83,68,85,67,70,71,32,83,84,68,95,79,70,70,0
00000bac 58455f50 
00000bb0 53545349 
00000bb4 4e41435f 
00000bb8 435f4446 
00000bbc 59544e41 
00000bc0 464f4550 
00000bc4 44535854 
00000bc8 47464355 
00000bcc 44545320 
00000bd0 46464f5f 
00000bd4 00 
00000bd5 01        11404 	.data.b	1
00000bd6 02f6      11405 	.data.b	246,2
00000bd8 544e4143  11406 	.data.b	67,65,78,84,80,95,69,88,73,83,84,83,95,72,65,76,70,95,68,85,80,76,69,88,95,67,72,65,78,78,69,76,77,79,68,69,79,70,84,88,83,68,85,67,70,71,32,83,84,68,95,79,70,70,0

                                                                      Page 223
                                                              C:\Users\Fengyuan\AppData\Local\Temp\gh_0000kos1.s
00000bdc 58455f50 
00000be0 53545349 
00000be4 4c41485f 
00000be8 55445f46 
00000bec 58454c50 
00000bf0 4148435f 
00000bf4 4c454e4e 
00000bf8 45444f4d 
00000bfc 5854464f 
00000c00 43554453 
00000c04 53204746 
00000c08 4f5f4454 
00000c0c 004646 
00000c0f 01        11407 	.data.b	1
00000c10 02f7      11408 	.data.b	247,2
00000c12 544e4143  11409 	.data.b	67,65,78,84,80,95,69,88,73,83,84,83,95,70,85,76,76,95,68,85,80,76,69,88,95,67,72,65,78,78,69,76,77,79,68,69,79,70,84,88,83,68,85,67,70,71,32,83,84,68,95,79,78,0
00000c16 58455f50 
00000c1a 53545349 
00000c1e 4c55465f 
00000c22 55445f4c 
00000c26 58454c50 
00000c2a 4148435f 
00000c2e 4c454e4e 
00000c32 45444f4d 
00000c36 5854464f 
00000c3a 43554453 
00000c3e 53204746 
00000c42 4f5f4454 
00000c46 004e 
00000c48 01        11410 	.data.b	1
00000c49 02f8      11411 	.data.b	248,2
00000c4b 544e4143  11412 	.data.b	67,65,78,84,80,95,69,88,73,83,84,83,95,78,79,82,77,65,76,95,65,68,68,82,69,83,83,73,78,71,95,84,88,65,68,68,82,69,83,83,73,78,71,70,79,82,77,65,84,79,70,84,88,83,68,85,67,70,71,32
00000c4f 58455f50 
00000c53 53545349 
00000c57 524f4e5f 
00000c5b 5f4c414d 
00000c5f 52444441 
00000c63 49535345 
00000c67 545f474e 
00000c6b 44444158 
00000c6f 53534552 
00000c73 46474e49 
00000c77 414d524f 
00000c7b 54464f54 
00000c7f 55445358 
00000c83 20474643 
00000c87 5f445453  11413 	.data.b	83,84,68,95,79,78,0
00000c8b 004e4f 
00000c8e 01        11414 	.data.b	1
00000c8f 02f9      11415 	.data.b	249,2
00000c91 544e4143  11416 	.data.b	67,65,78,84,80,95,69,88,73,83,84,83,95,69,88,84,69,78,68,69,68,95,65,68,68,82,69,83,83,73,78,71,95,84,88,65,68,68,82,69,83,83,73,78,71,70,79,82,77,65,84,79,70,84,88,83,68,85,67,70
00000c95 58455f50 
00000c99 53545349 
00000c9d 5458455f 
00000ca1 45444e45 
00000ca5 44415f44 
00000ca9 53455244 
00000cad 474e4953 
00000cb1 4158545f 
00000cb5 45524444 
00000cb9 4e495353 

                                                                      Page 224
                                                              C:\Users\Fengyuan\AppData\Local\Temp\gh_0000kos1.s
00000cbd 524f4647 
00000cc1 4f54414d 
00000cc5 53585446 
00000cc9 46435544 
00000ccd 54532047  11417 	.data.b	71,32,83,84,68,95,79,70,70,0
00000cd1 464f5f44 
00000cd5 0046 
00000cd7 01        11418 	.data.b	1
00000cd8 02fa      11419 	.data.b	250,2
00000cda 544e4143  11420 	.data.b	67,65,78,84,80,95,69,88,73,83,84,83,95,77,73,88,69,68,49,49,95,65,68,68,82,69,83,83,73,78,71,95,84,88,65,68,68,82,69,83,83,73,78,71,70,79,82,77,65,84,79,70,84,88,83,68,85,67,70,71
00000cde 58455f50 
00000ce2 53545349 
00000ce6 58494d5f 
00000cea 31314445 
00000cee 4444415f 
00000cf2 53534552 
00000cf6 5f474e49 
00000cfa 44415854 
00000cfe 53455244 
00000d02 474e4953 
00000d06 4d524f46 
00000d0a 464f5441 
00000d0e 44535854 
00000d12 47464355 
00000d16 44545320  11421 	.data.b	32,83,84,68,95,79,70,70,0
00000d1a 46464f5f 
00000d1e 00 
00000d1f 01        11422 	.data.b	1
00000d20 02fc      11423 	.data.b	252,2
00000d22 544e4143  11424 	.data.b	67,65,78,84,80,95,69,88,73,83,84,83,95,70,85,78,67,84,73,79,78,65,76,95,84,88,84,65,84,89,80,69,79,70,84,88,83,68,85,67,70,71,32,83,84,68,95,79,70,70,0
00000d26 58455f50 
00000d2a 53545349 
00000d2e 4e55465f 
00000d32 4f495443 
00000d36 5f4c414e 
00000d3a 41545854 
00000d3e 45505954 
00000d42 5854464f 
00000d46 43554453 
00000d4a 53204746 
00000d4e 4f5f4454 
00000d52 004646 
00000d55 01        11425 	.data.b	1
00000d56 0389      11426 	.data.b	137,3
00000d58 544e4143  11427 	.data.b	67,65,78,84,80,95,67,65,78,50,48,95,67,65,78,84,89,80,69,79,70,82,88,83,68,85,67,70,71,32,48,120,48,48,117,0
00000d5c 41435f50 
00000d60 5f30324e 
00000d64 544e4143 
00000d68 4f455059 
00000d6c 53585246 
00000d70 46435544 
00000d74 78302047 
00000d78 00753030 
00000d7c 01        11428 	.data.b	1
00000d7d 0390      11429 	.data.b	144,3
00000d7f 544e4143  11430 	.data.b	67,65,78,84,80,95,67,65,78,50,48,95,67,65,78,84,89,80,69,79,70,84,88,83,68,85,67,70,71,32,48,120,48,48,117,0
00000d83 41435f50 
00000d87 5f30324e 
00000d8b 544e4143 
00000d8f 4f455059 
00000d93 53585446 

                                                                      Page 225
                                                              C:\Users\Fengyuan\AppData\Local\Temp\gh_0000kos1.s
00000d97 46435544 
00000d9b 78302047 
00000d9f 00753030 
00000da3 01        11431 	.data.b	1
00000da4 04c6      11432 	.data.b	198,4
00000da6 544e4143  11433 	.data.b	67,65,78,84,80,95,85,83,69,95,73,78,73,84,95,80,79,73,78,84,69,82,32,83,84,68,95,79,70,70,0
00000daa 53555f50 
00000dae 4e495f45 
00000db2 505f5449 
00000db6 544e494f 
00000dba 53205245 
00000dbe 4f5f4454 
00000dc2 004646 
00000dc5 01        11434 	.data.b	1
00000dc6 04db      11435 	.data.b	219,4
00000dc8 546e6143  11436 	.data.b	67,97,110,84,112,95,71,101,116,67,97,108,99,66,83,79,102,80,67,67,111,110,102,105,103,40,41,32,67,97,110,84,112,95,67,97,108,99,66,83,0
00000dcc 65475f70 
00000dd0 6c614374 
00000dd4 4f534263 
00000dd8 43435066 
00000ddc 69666e6f 
00000de0 20292867 
00000de4 546e6143 
00000de8 61435f70 
00000dec 5342636c 
00000df0 00 
00000df1 01        11437 	.data.b	1
00000df2 04dd      11438 	.data.b	221,4
00000df4 546e6143  11439 	.data.b	67,97,110,84,112,95,71,101,116,82,120,80,100,117,77,97,112,79,102,80,67,67,111,110,102,105,103,40,41,32,67,97,110,84,112,95,82,120,80,100,117,77,97,112,0
00000df8 65475f70 
00000dfc 50785274 
00000e00 614d7564 
00000e04 50664f70 
00000e08 6e6f4343 
00000e0c 28676966 
00000e10 61432029 
00000e14 5f70546e 
00000e18 64507852 
00000e1c 70614d75 
00000e20 00 
00000e21 01        11440 	.data.b	1
00000e22 04de      11441 	.data.b	222,4
00000e24 546e6143  11442 	.data.b	67,97,110,84,112,95,71,101,116,82,120,83,100,117,67,102,103,73,110,100,79,102,80,67,67,111,110,102,105,103,40,41,32,67,97,110,84,112,95,82,120,83,100,117,67,102,103,73,110,100,0
00000e28 65475f70 
00000e2c 53785274 
00000e30 66437564 
00000e34 646e4967 
00000e38 4350664f 
00000e3c 666e6f43 
00000e40 29286769 
00000e44 6e614320 
00000e48 525f7054 
00000e4c 75645378 
00000e50 49676643 
00000e54 00646e 
00000e57 01        11443 	.data.b	1
00000e58 04df      11444 	.data.b	223,4
00000e5a 546e6143  11445 	.data.b	67,97,110,84,112,95,71,101,116,82,120,83,100,117,67,102,103,79,102,80,67,67,111,110,102,105,103,40,41,32,67,97,110,84,112,95,82,120,83,100,117,67,102,103,0
00000e5e 65475f70 
00000e62 53785274 
00000e66 66437564 

                                                                      Page 226
                                                              C:\Users\Fengyuan\AppData\Local\Temp\gh_0000kos1.s
00000e6a 50664f67 
00000e6e 6e6f4343 
00000e72 28676966 
00000e76 61432029 
00000e7a 5f70546e 
00000e7e 64537852 
00000e82 67664375 
00000e86 00 
00000e87 01        11446 	.data.b	1
00000e88 04e0      11447 	.data.b	224,4
00000e8a 546e6143  11448 	.data.b	67,97,110,84,112,95,71,101,116,82,120,83,100,117,83,110,118,50,72,100,108,79,102,80,67,67,111,110,102,105,103,40,41,32,67,97,110,84,112,95,82,120,83,100,117,83,110,118,50,72,100,108,0
00000e8e 65475f70 
00000e92 53785274 
00000e96 6e537564 
00000e9a 64483276 
00000e9e 50664f6c 
00000ea2 6e6f4343 
00000ea6 28676966 
00000eaa 61432029 
00000eae 5f70546e 
00000eb2 64537852 
00000eb6 766e5375 
00000eba 6c644832 
00000ebe 00 
00000ebf 01        11449 	.data.b	1
00000ec0 04e1      11450 	.data.b	225,4
00000ec2 546e6143  11451 	.data.b	67,97,110,84,112,95,71,101,116,82,120,83,116,97,116,101,79,102,80,67,67,111,110,102,105,103,40,41,32,67,97,110,84,112,95,82,120,83,116,97,116,101,0
00000ec6 65475f70 
00000eca 53785274 
00000ece 65746174 
00000ed2 4350664f 
00000ed6 666e6f43 
00000eda 29286769 
00000ede 6e614320 
00000ee2 525f7054 
00000ee6 61745378 
00000eea 006574 
00000eed 01        11452 	.data.b	1
00000eee 04e2      11453 	.data.b	226,4
00000ef0 546e6143  11454 	.data.b	67,97,110,84,112,95,71,101,116,83,105,122,101,79,102,67,97,108,99,66,83,79,102,80,67,67,111,110,102,105,103,40,41,32,50,117,0
00000ef4 65475f70 
00000ef8 7a695374 
00000efc 43664f65 
00000f00 42636c61 
00000f04 50664f53 
00000f08 6e6f4343 
00000f0c 28676966 
00000f10 75322029 
00000f14 00 
00000f15 01        11455 	.data.b	1
00000f16 04e3      11456 	.data.b	227,4
00000f18 546e6143  11457 	.data.b	67,97,110,84,112,95,71,101,116,83,105,122,101,79,102,82,120,80,100,117,77,97,112,79,102,80,67,67,111,110,102,105,103,40,41,32,50,117,0
00000f1c 65475f70 
00000f20 7a695374 
00000f24 52664f65 
00000f28 75645078 
00000f2c 4f70614d 
00000f30 43435066 
00000f34 69666e6f 
00000f38 20292867 
00000f3c 007532 

                                                                      Page 227
                                                              C:\Users\Fengyuan\AppData\Local\Temp\gh_0000kos1.s
00000f3f 01        11458 	.data.b	1
00000f40 04e5      11459 	.data.b	229,4
00000f42 546e6143  11460 	.data.b	67,97,110,84,112,95,71,101,116,83,105,122,101,79,102,82,120,83,100,117,67,102,103,79,102,80,67,67,111,110,102,105,103,40,41,32,50,117,0
00000f46 65475f70 
00000f4a 7a695374 
00000f4e 52664f65 
00000f52 75645378 
00000f56 4f676643 
00000f5a 43435066 
00000f5e 69666e6f 
00000f62 20292867 
00000f66 007532 
00000f69 01        11461 	.data.b	1
00000f6a 04e6      11462 	.data.b	230,4
00000f6c 546e6143  11463 	.data.b	67,97,110,84,112,95,71,101,116,83,105,122,101,79,102,82,120,83,100,117,83,110,118,50,72,100,108,79,102,80,67,67,111,110,102,105,103,40,41,32,50,117,0
00000f70 65475f70 
00000f74 7a695374 
00000f78 52664f65 
00000f7c 75645378 
00000f80 32766e53 
00000f84 4f6c6448 
00000f88 43435066 
00000f8c 69666e6f 
00000f90 20292867 
00000f94 007532 
00000f97 01        11464 	.data.b	1
00000f98 04e7      11465 	.data.b	231,4
00000f9a 546e6143  11466 	.data.b	67,97,110,84,112,95,71,101,116,83,105,122,101,79,102,82,120,83,116,97,116,101,79,102,80,67,67,111,110,102,105,103,40,41,32,50,117,0
00000f9e 65475f70 
00000fa2 7a695374 
00000fa6 52664f65 
00000faa 61745378 
00000fae 664f6574 
00000fb2 6f434350 
00000fb6 6769666e 
00000fba 32202928 
00000fbe 0075 
00000fc0 01        11467 	.data.b	1
00000fc1 04e9      11468 	.data.b	233,4
00000fc3 546e6143  11469 	.data.b	67,97,110,84,112,95,71,101,116,83,105,122,101,79,102,84,120,83,100,117,67,102,103,79,102,80,67,67,111,110,102,105,103,40,41,32,49,117,0
00000fc7 65475f70 
00000fcb 7a695374 
00000fcf 54664f65 
00000fd3 75645378 
00000fd7 4f676643 
00000fdb 43435066 
00000fdf 69666e6f 
00000fe3 20292867 
00000fe7 007531 
00000fea 01        11470 	.data.b	1
00000feb 04ea      11471 	.data.b	234,4
00000fed 546e6143  11472 	.data.b	67,97,110,84,112,95,71,101,116,83,105,122,101,79,102,84,120,83,100,117,83,110,118,50,72,100,108,79,102,80,67,67,111,110,102,105,103,40,41,32,49,117,0
00000ff1 65475f70 
00000ff5 7a695374 
00000ff9 54664f65 
00000ffd 75645378 
00001001 32766e53 
00001005 4f6c6448 
00001009 43435066 
0000100d 69666e6f 
00001011 20292867 

                                                                      Page 228
                                                              C:\Users\Fengyuan\AppData\Local\Temp\gh_0000kos1.s
00001015 007531 
00001018 01        11473 	.data.b	1
00001019 04eb      11474 	.data.b	235,4
0000101b 546e6143  11475 	.data.b	67,97,110,84,112,95,71,101,116,83,105,122,101,79,102,84,120,83,101,109,97,112,104,111,114,101,115,79,102,80,67,67,111,110,102,105,103,40,41,32,49,117,0
0000101f 65475f70 
00001023 7a695374 
00001027 54664f65 
0000102b 6d655378 
0000102f 6f687061 
00001033 4f736572 
00001037 43435066 
0000103b 69666e6f 
0000103f 20292867 
00001043 007531 
00001046 01        11476 	.data.b	1
00001047 04ec      11477 	.data.b	236,4
00001049 546e6143  11478 	.data.b	67,97,110,84,112,95,71,101,116,83,105,122,101,79,102,84,120,83,116,97,116,101,79,102,80,67,67,111,110,102,105,103,40,41,32,49,117,0
0000104d 65475f70 
00001051 7a695374 
00001055 54664f65 
00001059 61745378 
0000105d 664f6574 
00001061 6f434350 
00001065 6769666e 
00001069 31202928 
0000106d 0075 
0000106f 01        11479 	.data.b	1
00001070 04f0      11480 	.data.b	240,4
00001072 546e6143  11481 	.data.b	67,97,110,84,112,95,71,101,116,84,120,83,101,109,97,112,104,111,114,101,115,79,102,80,67,67,111,110,102,105,103,40,41,32,67,97,110,84,112,95,84,120,83,101,109,97,112,104,111,114,101,115,0
00001076 65475f70 
0000107a 53785474 
0000107e 70616d65 
00001082 65726f68 
00001086 50664f73 
0000108a 6e6f4343 
0000108e 28676966 
00001092 61432029 
00001096 5f70546e 
0000109a 65537854 
0000109e 6870616d 
000010a2 7365726f 
000010a6 00 
000010a7 01        11482 	.data.b	1
000010a8 04f1      11483 	.data.b	241,4
000010aa 546e6143  11484 	.data.b	67,97,110,84,112,95,71,101,116,84,120,83,116,97,116,101,79,102,80,67,67,111,110,102,105,103,40,41,32,67,97,110,84,112,95,84,120,83,116,97,116,101,0
000010ae 65475f70 
000010b2 53785474 
000010b6 65746174 
000010ba 4350664f 
000010be 666e6f43 
000010c2 29286769 
000010c6 6e614320 
000010ca 545f7054 
000010ce 61745378 
000010d2 006574 
000010d5 01        11485 	.data.b	1
000010d6 04fb      11486 	.data.b	251,4
000010d8 546e6143  11487 	.data.b	67,97,110,84,112,95,71,101,116,67,97,108,99,66,83,40,73,110,100,101,120,41,32,40,67,97,110,84,112,95,71,101,116,67,97,108,99,66,83,79,102,80,67,67,111,110,102,105,103,40,41,91,40,73,110,100,101,120,41,93
000010dc 65475f70 
000010e0 6c614374 
000010e4 28534263 

                                                                      Page 229
                                                              C:\Users\Fengyuan\AppData\Local\Temp\gh_0000kos1.s
000010e8 65646e49 
000010ec 28202978 
000010f0 546e6143 
000010f4 65475f70 
000010f8 6c614374 
000010fc 4f534263 
00001100 43435066 
00001104 69666e6f 
00001108 5b292867 
0000110c 646e4928 
00001110 5d297865 
00001114 0029      11488 	.data.b	41,0
00001116 01        11489 	.data.b	1
00001117 04fd      11490 	.data.b	253,4
00001119 546e6143  11491 	.data.b	67,97,110,84,112,95,71,101,116,82,120,83,100,117,67,102,103,73,110,100,83,116,97,114,116,73,100,120,79,102,82,120,80,100,117,77,97,112,40,73,110,100,101,120,41,32,40,67,97,110,84,112,95,71,101,116,82,120,80,100
0000111d 65475f70 
00001121 53785274 
00001125 66437564 
00001129 646e4967 
0000112d 72617453 
00001131 78644974 
00001135 7852664f 
00001139 4d756450 
0000113d 49287061 
00001141 7865646e 
00001145 43282029 
00001149 70546e61 
0000114d 7465475f 
00001151 64507852 
00001155 70614d75  11492 	.data.b	117,77,97,112,79,102,80,67,67,111,110,102,105,103,40,41,91,40,73,110,100,101,120,41,93,46,82,120,83,100,117,67,102,103,73,110,100,83,116,97,114,116,73,100,120,79,102,82,120,80,100,117,77,97,112,41,0
00001159 4350664f 
0000115d 666e6f43 
00001161 29286769 
00001165 6e49285b 
00001169 29786564 
0000116d 78522e5d 
00001171 43756453 
00001175 6e496766 
00001179 61745364 
0000117d 64497472 
00001181 52664f78 
00001185 75645078 
00001189 2970614d 
0000118d 00 
0000118e 01        11493 	.data.b	1
0000118f 04ff      11494 	.data.b	255,4
00001191 546e6143  11495 	.data.b	67,97,110,84,112,95,71,101,116,84,120,83,100,117,67,102,103,73,110,100,83,116,97,114,116,73,100,120,79,102,82,120,80,100,117,77,97,112,40,73,110,100,101,120,41,32,40,67,97,110,84,112,95,71,101,116,82,120,80,100
00001195 65475f70 
00001199 53785474 
0000119d 66437564 
000011a1 646e4967 
000011a5 72617453 
000011a9 78644974 
000011ad 7852664f 
000011b1 4d756450 
000011b5 49287061 
000011b9 7865646e 
000011bd 43282029 
000011c1 70546e61 
000011c5 7465475f 
000011c9 64507852 

                                                                      Page 230
                                                              C:\Users\Fengyuan\AppData\Local\Temp\gh_0000kos1.s
000011cd 70614d75  11496 	.data.b	117,77,97,112,79,102,80,67,67,111,110,102,105,103,40,41,91,40,73,110,100,101,120,41,93,46,84,120,83,100,117,67,102,103,73,110,100,83,116,97,114,116,73,100,120,79,102,82,120,80,100,117,77,97,112,41,0
000011d1 4350664f 
000011d5 666e6f43 
000011d9 29286769 
000011dd 6e49285b 
000011e1 29786564 
000011e5 78542e5d 
000011e9 43756453 
000011ed 6e496766 
000011f1 61745364 
000011f5 64497472 
000011f9 52664f78 
000011fd 75645078 
00001201 2970614d 
00001205 00 
00001206 01        11497 	.data.b	1
00001207 0580      11498 	.data.b	128,5
00001209 546e6143  11499 	.data.b	67,97,110,84,112,95,71,101,116,67,97,110,73,102,84,120,70,99,80,100,117,73,100,79,102,82,120,83,100,117,67,102,103,40,73,110,100,101,120,41,32,40,67,97,110,84,112,95,71,101,116,82,120,83,100,117,67,102,103,79
0000120d 65475f70 
00001211 6e614374 
00001215 78546649 
00001219 64506346 
0000121d 4f644975 
00001221 53785266 
00001225 66437564 
00001229 6e492867 
0000122d 29786564 
00001231 61432820 
00001235 5f70546e 
00001239 52746547 
0000123d 75645378 
00001241 4f676643 
00001245 43435066  11500 	.data.b	102,80,67,67,111,110,102,105,103,40,41,91,40,73,110,100,101,120,41,93,46,67,97,110,73,102,84,120,70,99,80,100,117,73,100,79,102,82,120,83,100,117,67,102,103,41,0
00001249 69666e6f 
0000124d 5b292867 
00001251 646e4928 
00001255 5d297865 
00001259 6e61432e 
0000125d 78546649 
00001261 64506346 
00001265 4f644975 
00001269 53785266 
0000126d 66437564 
00001271 002967 
00001274 01        11501 	.data.b	1
00001275 0581      11502 	.data.b	129,5
00001277 546e6143  11503 	.data.b	67,97,110,84,112,95,71,101,116,78,65,114,79,102,82,120,83,100,117,67,102,103,40,73,110,100,101,120,41,32,40,67,97,110,84,112,95,71,101,116,82,120,83,100,117,67,102,103,79,102,80,67,67,111,110,102,105,103,40,41
0000127b 65475f70 
0000127f 72414e74 
00001283 7852664f 
00001287 43756453 
0000128b 49286766 
0000128f 7865646e 
00001293 43282029 
00001297 70546e61 
0000129b 7465475f 
0000129f 64537852 
000012a3 67664375 
000012a7 4350664f 
000012ab 666e6f43 
000012af 29286769 

                                                                      Page 231
                                                              C:\Users\Fengyuan\AppData\Local\Temp\gh_0000kos1.s
000012b3 6e49285b  11504 	.data.b	91,40,73,110,100,101,120,41,93,46,78,65,114,79,102,82,120,83,100,117,67,102,103,41,0
000012b7 29786564 
000012bb 414e2e5d 
000012bf 52664f72 
000012c3 75645378 
000012c7 29676643 
000012cb 00 
000012cc 01        11505 	.data.b	1
000012cd 0582      11506 	.data.b	130,5
000012cf 546e6143  11507 	.data.b	67,97,110,84,112,95,71,101,116,78,67,114,79,102,82,120,83,100,117,67,102,103,40,73,110,100,101,120,41,32,40,67,97,110,84,112,95,71,101,116,82,120,83,100,117,67,102,103,79,102,80,67,67,111,110,102,105,103,40,41
000012d3 65475f70 
000012d7 72434e74 
000012db 7852664f 
000012df 43756453 
000012e3 49286766 
000012e7 7865646e 
000012eb 43282029 
000012ef 70546e61 
000012f3 7465475f 
000012f7 64537852 
000012fb 67664375 
000012ff 4350664f 
00001303 666e6f43 
00001307 29286769 
0000130b 6e49285b  11508 	.data.b	91,40,73,110,100,101,120,41,93,46,78,67,114,79,102,82,120,83,100,117,67,102,103,41,0
0000130f 29786564 
00001313 434e2e5d 
00001317 52664f72 
0000131b 75645378 
0000131f 29676643 
00001323 00 
00001324 01        11509 	.data.b	1
00001325 0583      11510 	.data.b	131,5
00001327 546e6143  11511 	.data.b	67,97,110,84,112,95,71,101,116,80,100,117,82,82,120,83,100,117,73,100,79,102,82,120,83,100,117,67,102,103,40,73,110,100,101,120,41,32,40,67,97,110,84,112,95,71,101,116,82,120,83,100,117,67,102,103,79,102,80,67
0000132b 65475f70 
0000132f 75645074 
00001333 53785252 
00001337 64497564 
0000133b 7852664f 
0000133f 43756453 
00001343 49286766 
00001347 7865646e 
0000134b 43282029 
0000134f 70546e61 
00001353 7465475f 
00001357 64537852 
0000135b 67664375 
0000135f 4350664f 
00001363 666e6f43  11512 	.data.b	67,111,110,102,105,103,40,41,91,40,73,110,100,101,120,41,93,46,80,100,117,82,82,120,83,100,117,73,100,79,102,82,120,83,100,117,67,102,103,41,0
00001367 29286769 
0000136b 6e49285b 
0000136f 29786564 
00001373 64502e5d 
00001377 78525275 
0000137b 49756453 
0000137f 52664f64 
00001383 75645378 
00001387 29676643 
0000138b 00 
0000138c 01        11513 	.data.b	1
0000138d 0585      11514 	.data.b	133,5

                                                                      Page 232
                                                              C:\Users\Fengyuan\AppData\Local\Temp\gh_0000kos1.s
0000138f 546e6143  11515 	.data.b	67,97,110,84,112,95,71,101,116,82,120,84,97,84,121,112,101,79,102,82,120,83,100,117,67,102,103,40,73,110,100,101,120,41,32,40,67,97,110,84,112,95,71,101,116,82,120,83,100,117,67,102,103,79,102,80,67,67,111,110
00001393 65475f70 
00001397 54785274 
0000139b 70795461 
0000139f 52664f65 
000013a3 75645378 
000013a7 28676643 
000013ab 65646e49 
000013af 28202978 
000013b3 546e6143 
000013b7 65475f70 
000013bb 53785274 
000013bf 66437564 
000013c3 50664f67 
000013c7 6e6f4343 
000013cb 28676966  11516 	.data.b	102,105,103,40,41,91,40,73,110,100,101,120,41,93,46,82,120,84,97,84,121,112,101,79,102,82,120,83,100,117,67,102,103,41,0
000013cf 49285b29 
000013d3 7865646e 
000013d7 522e5d29 
000013db 54615478 
000013df 4f657079 
000013e3 53785266 
000013e7 66437564 
000013eb 002967 
000013ee 01        11517 	.data.b	1
000013ef 0586      11518 	.data.b	134,5
000013f1 546e6143  11519 	.data.b	67,97,110,84,112,95,71,101,116,83,84,109,105,110,79,102,82,120,83,100,117,67,102,103,40,73,110,100,101,120,41,32,40,67,97,110,84,112,95,71,101,116,82,120,83,100,117,67,102,103,79,102,80,67,67,111,110,102,105,103
000013f5 65475f70 
000013f9 6d545374 
000013fd 664f6e69 
00001401 64537852 
00001405 67664375 
00001409 646e4928 
0000140d 20297865 
00001411 6e614328 
00001415 475f7054 
00001419 78527465 
0000141d 43756453 
00001421 664f6766 
00001425 6f434350 
00001429 6769666e 
0000142d 285b2928  11520 	.data.b	40,41,91,40,73,110,100,101,120,41,93,46,83,84,109,105,110,79,102,82,120,83,100,117,67,102,103,41,0
00001431 65646e49 
00001435 2e5d2978 
00001439 696d5453 
0000143d 52664f6e 
00001441 75645378 
00001445 29676643 
00001449 00 
0000144a 01        11521 	.data.b	1
0000144b 0587      11522 	.data.b	135,5
0000144d 546e6143  11523 	.data.b	67,97,110,84,112,95,71,101,116,84,120,70,99,80,100,117,67,111,110,102,105,114,109,97,116,105,111,110,80,100,117,73,100,79,102,82,120,83,100,117,67,102,103,40,73,110,100,101,120,41,32,40,67,97,110,84,112,95,71,101
00001451 65475f70 
00001455 46785474 
00001459 75645063 
0000145d 666e6f43 
00001461 616d7269 
00001465 6e6f6974 
00001469 49756450 
0000146d 52664f64 
00001471 75645378 

                                                                      Page 233
                                                              C:\Users\Fengyuan\AppData\Local\Temp\gh_0000kos1.s
00001475 28676643 
00001479 65646e49 
0000147d 28202978 
00001481 546e6143 
00001485 65475f70 
00001489 53785274  11524 	.data.b	116,82,120,83,100,117,67,102,103,79,102,80,67,67,111,110,102,105,103,40,41,91,40,73,110,100,101,120,41,93,46,84,120,70,99,80,100,117,67,111,110,102,105,114,109,97,116,105,111,110,80,100,117,73,100,79,102,82,120,83
0000148d 66437564 
00001491 50664f67 
00001495 6e6f4343 
00001499 28676966 
0000149d 49285b29 
000014a1 7865646e 
000014a5 542e5d29 
000014a9 50634678 
000014ad 6f437564 
000014b1 7269666e 
000014b5 6974616d 
000014b9 64506e6f 
000014bd 4f644975 
000014c1 53785266 
000014c5 66437564  11525 	.data.b	100,117,67,102,103,41,0
000014c9 002967 
000014cc 01        11526 	.data.b	1
000014cd 0589      11527 	.data.b	137,5
000014cf 546e6143  11528 	.data.b	67,97,110,84,112,95,71,101,116,82,120,83,100,117,67,102,103,73,110,100,40,73,110,100,101,120,41,32,40,67,97,110,84,112,95,71,101,116,82,120,83,100,117,67,102,103,73,110,100,79,102,80,67,67,111,110,102,105,103,40
000014d3 65475f70 
000014d7 53785274 
000014db 66437564 
000014df 646e4967 
000014e3 646e4928 
000014e7 20297865 
000014eb 6e614328 
000014ef 475f7054 
000014f3 78527465 
000014f7 43756453 
000014fb 6e496766 
000014ff 50664f64 
00001503 6e6f4343 
00001507 28676966 
0000150b 49285b29  11529 	.data.b	41,91,40,73,110,100,101,120,41,93,41,0
0000150f 7865646e 
00001513 00295d29 
00001517 01        11530 	.data.b	1
00001518 058a      11531 	.data.b	138,5
0000151a 546e6143  11532 	.data.b	67,97,110,84,112,95,71,101,116,82,120,83,100,117,67,102,103,73,100,120,79,102,82,120,83,100,117,83,110,118,50,72,100,108,40,73,110,100,101,120,41,32,40,67,97,110,84,112,95,71,101,116,82,120,83,100,117,83,110,118
0000151e 65475f70 
00001522 53785274 
00001526 66437564 
0000152a 78644967 
0000152e 7852664f 
00001532 53756453 
00001536 4832766e 
0000153a 49286c64 
0000153e 7865646e 
00001542 43282029 
00001546 70546e61 
0000154a 7465475f 
0000154e 64537852 
00001552 766e5375 
00001556 6c644832  11533 	.data.b	50,72,100,108,79,102,80,67,67,111,110,102,105,103,40,41,91,40,73,110,100,101,120,41,93,46,82,120,83,100,117,67,102,103,73,100,120,79,102,82,120,83,100,117,83,110,118,50,72,100,108,41,0
0000155a 4350664f 

                                                                      Page 234
                                                              C:\Users\Fengyuan\AppData\Local\Temp\gh_0000kos1.s
0000155e 666e6f43 
00001562 29286769 
00001566 6e49285b 
0000156a 29786564 
0000156e 78522e5d 
00001572 43756453 
00001576 64496766 
0000157a 52664f78 
0000157e 75645378 
00001582 32766e53 
00001586 296c6448 
0000158a 00 
0000158b 01        11534 	.data.b	1
0000158c 058b      11535 	.data.b	139,5
0000158e 546e6143  11536 	.data.b	67,97,110,84,112,95,71,101,116,82,120,83,116,97,116,101,40,73,110,100,101,120,41,32,40,67,97,110,84,112,95,71,101,116,82,120,83,116,97,116,101,79,102,80,67,67,111,110,102,105,103,40,41,91,40,73,110,100,101,120
00001592 65475f70 
00001596 53785274 
0000159a 65746174 
0000159e 646e4928 
000015a2 20297865 
000015a6 6e614328 
000015aa 475f7054 
000015ae 78527465 
000015b2 74617453 
000015b6 50664f65 
000015ba 6e6f4343 
000015be 28676966 
000015c2 49285b29 
000015c6 7865646e 
000015ca 00295d29  11537 	.data.b	41,93,41,0
000015ce 01        11538 	.data.b	1
000015cf 058c      11539 	.data.b	140,5
000015d1 546e6143  11540 	.data.b	67,97,110,84,112,95,71,101,116,84,120,83,101,109,97,112,104,111,114,101,115,40,73,110,100,101,120,41,32,40,67,97,110,84,112,95,71,101,116,84,120,83,101,109,97,112,104,111,114,101,115,79,102,80,67,67,111,110,102,105
000015d5 65475f70 
000015d9 53785474 
000015dd 70616d65 
000015e1 65726f68 
000015e5 6e492873 
000015e9 29786564 
000015ed 61432820 
000015f1 5f70546e 
000015f5 54746547 
000015f9 6d655378 
000015fd 6f687061 
00001601 4f736572 
00001605 43435066 
00001609 69666e6f 
0000160d 5b292867  11541 	.data.b	103,40,41,91,40,73,110,100,101,120,41,93,41,0
00001611 646e4928 
00001615 5d297865 
00001619 0029 
0000161b 01        11542 	.data.b	1
0000161c 058d      11543 	.data.b	141,5
0000161e 546e6143  11544 	.data.b	67,97,110,84,112,95,71,101,116,84,120,83,116,97,116,101,40,73,110,100,101,120,41,32,40,67,97,110,84,112,95,71,101,116,84,120,83,116,97,116,101,79,102,80,67,67,111,110,102,105,103,40,41,91,40,73,110,100,101,120
00001622 65475f70 
00001626 53785474 
0000162a 65746174 
0000162e 646e4928 
00001632 20297865 
00001636 6e614328 
0000163a 475f7054 

                                                                      Page 235
                                                              C:\Users\Fengyuan\AppData\Local\Temp\gh_0000kos1.s
0000163e 78547465 
00001642 74617453 
00001646 50664f65 
0000164a 6e6f4343 
0000164e 28676966 
00001652 49285b29 
00001656 7865646e 
0000165a 00295d29  11545 	.data.b	41,93,41,0
0000165e 01        11546 	.data.b	1
0000165f 0599      11547 	.data.b	153,5
00001661 546e6143  11548 	.data.b	67,97,110,84,112,95,73,115,82,120,83,100,117,67,102,103,73,110,100,85,115,101,100,79,102,82,120,80,100,117,77,97,112,40,73,110,100,101,120,41,32,40,40,40,84,82,85,69,41,41,32,33,61,32,70,65,76,83,69,41
00001665 73495f70 
00001669 64537852 
0000166d 67664375 
00001671 55646e49 
00001675 4f646573 
00001679 50785266 
0000167d 614d7564 
00001681 6e492870 
00001685 29786564 
00001689 28282820 
0000168d 45555254 
00001691 21202929 
00001695 4146203d 
00001699 2945534c 
0000169d 00        11549 	.data.b	0
0000169e 01        11550 	.data.b	1
0000169f 059a      11551 	.data.b	154,5
000016a1 546e6143  11552 	.data.b	67,97,110,84,112,95,73,115,84,120,83,100,117,67,102,103,73,110,100,85,115,101,100,79,102,82,120,80,100,117,77,97,112,40,73,110,100,101,120,41,32,40,40,40,98,111,111,108,101,97,110,41,40,67,97,110,84,112,95,71
000016a5 73495f70 
000016a9 64537854 
000016ad 67664375 
000016b1 55646e49 
000016b5 4f646573 
000016b9 50785266 
000016bd 614d7564 
000016c1 6e492870 
000016c5 29786564 
000016c9 28282820 
000016cd 6c6f6f62 
000016d1 296e6165 
000016d5 6e614328 
000016d9 475f7054 
000016dd 78547465  11553 	.data.b	101,116,84,120,83,100,117,67,102,103,73,110,100,83,116,97,114,116,73,100,120,79,102,82,120,80,100,117,77,97,112,40,73,110,100,101,120,41,32,33,61,32,67,65,78,84,80,95,78,79,95,84,88,83,68,85,67,70,71,73
000016e1 43756453 
000016e5 6e496766 
000016e9 61745364 
000016ed 64497472 
000016f1 52664f78 
000016f5 75645078 
000016f9 2870614d 
000016fd 65646e49 
00001701 21202978 
00001705 4143203d 
00001709 5f50544e 
0000170d 545f4f4e 
00001711 55445358 
00001715 49474643 
00001719 5453444e  11554 	.data.b	78,68,83,84,65,82,84,73,68,88,79,70,82,88,80,68,85,77,65,80,41,41,32,33,61,32,70,65,76,83,69,41,0
0000171d 49545241 
00001721 464f5844 

                                                                      Page 236
                                                              C:\Users\Fengyuan\AppData\Local\Temp\gh_0000kos1.s
00001725 44505852 
00001729 50414d55 
0000172d 21202929 
00001731 4146203d 
00001735 2945534c 
00001739 00 
0000173a 01        11555 	.data.b	1
0000173b 059b      11556 	.data.b	155,5
0000173d 546e6143  11557 	.data.b	67,97,110,84,112,95,71,101,116,66,108,111,99,107,83,105,122,101,79,102,82,120,83,100,117,67,102,103,40,73,110,100,101,120,41,32,56,117,0
00001741 65475f70 
00001745 6f6c4274 
00001749 69536b63 
0000174d 664f657a 
00001751 64537852 
00001755 67664375 
00001759 646e4928 
0000175d 20297865 
00001761 007538 
00001764 01        11558 	.data.b	1
00001765 059c      11559 	.data.b	156,5
00001767 546e6143  11560 	.data.b	67,97,110,84,112,95,71,101,116,67,97,110,84,121,112,101,79,102,82,120,83,100,117,67,102,103,40,73,110,100,101,120,41,32,67,65,78,84,80,95,67,65,78,50,48,95,67,65,78,84,89,80,69,79,70,82,88,83,68,85
0000176b 65475f70 
0000176f 6e614374 
00001773 65707954 
00001777 7852664f 
0000177b 43756453 
0000177f 49286766 
00001783 7865646e 
00001787 41432029 
0000178b 5f50544e 
0000178f 324e4143 
00001793 41435f30 
00001797 5059544e 
0000179b 52464f45 
0000179f 55445358 
000017a3 00474643  11561 	.data.b	67,70,71,0
000017a7 01        11562 	.data.b	1
000017a8 059e      11563 	.data.b	158,5
000017aa 546e6143  11564 	.data.b	67,97,110,84,112,95,71,101,116,78,66,114,79,102,82,120,83,100,117,67,102,103,40,73,110,100,101,120,41,32,50,49,117,0
000017ae 65475f70 
000017b2 72424e74 
000017b6 7852664f 
000017ba 43756453 
000017be 49286766 
000017c2 7865646e 
000017c6 31322029 
000017ca 0075 
000017cc 01        11565 	.data.b	1
000017cd 05a1      11566 	.data.b	161,5
000017cf 546e6143  11567 	.data.b	67,97,110,84,112,95,71,101,116,82,120,77,97,120,80,97,121,108,111,97,100,76,101,110,103,116,104,79,102,82,120,83,100,117,67,102,103,40,73,110,100,101,120,41,32,55,117,0
000017d3 65475f70 
000017d7 4d785274 
000017db 61507861 
000017df 616f6c79 
000017e3 6e654c64 
000017e7 4f687467 
000017eb 53785266 
000017ef 66437564 
000017f3 6e492867 
000017f7 29786564 
000017fb 00753720 

                                                                      Page 237
                                                              C:\Users\Fengyuan\AppData\Local\Temp\gh_0000kos1.s
000017ff 01        11568 	.data.b	1
00001800 05a2      11569 	.data.b	162,5
00001802 546e6143  11570 	.data.b	67,97,110,84,112,95,73,115,82,120,80,97,100,100,105,110,103,65,99,116,105,118,97,116,105,111,110,79,102,82,120,83,100,117,67,102,103,40,73,110,100,101,120,41,32,83,84,68,95,79,78,0
00001806 73495f70 
0000180a 61507852 
0000180e 6e696464 
00001812 74634167 
00001816 74617669 
0000181a 4f6e6f69 
0000181e 53785266 
00001822 66437564 
00001826 6e492867 
0000182a 29786564 
0000182e 44545320 
00001832 004e4f5f 
00001836 01        11571 	.data.b	1
00001837 05a3      11572 	.data.b	163,5
00001839 546e6143  11573 	.data.b	67,97,110,84,112,95,71,101,116,82,120,87,102,116,77,97,120,79,102,82,120,83,100,117,67,102,103,40,73,110,100,101,120,41,32,49,53,117,0
0000183d 65475f70 
00001841 57785274 
00001845 614d7466 
00001849 52664f78 
0000184d 75645378 
00001851 28676643 
00001855 65646e49 
00001859 31202978 
0000185d 007535 
00001860 01        11574 	.data.b	1
00001861 05a6      11575 	.data.b	166,5
00001863 546e6143  11576 	.data.b	67,97,110,84,112,95,73,115,82,120,83,100,117,67,102,103,85,115,101,100,79,102,82,120,83,100,117,83,110,118,50,72,100,108,40,73,110,100,101,120,41,32,40,40,40,84,82,85,69,41,41,32,33,61,32,70,65,76,83,69
00001867 73495f70 
0000186b 64537852 
0000186f 67664375 
00001873 64657355 
00001877 7852664f 
0000187b 53756453 
0000187f 4832766e 
00001883 49286c64 
00001887 7865646e 
0000188b 28282029 
0000188f 55525428 
00001893 20292945 
00001897 46203d21 
0000189b 45534c41 
0000189f 0029      11577 	.data.b	41,0
000018a1 01        11578 	.data.b	1
000018a2 05a7      11579 	.data.b	167,5
000018a4 546e6143  11580 	.data.b	67,97,110,84,112,95,71,101,116,83,105,122,101,79,102,67,97,108,99,66,83,40,41,32,67,97,110,84,112,95,71,101,116,83,105,122,101,79,102,67,97,108,99,66,83,79,102,80,67,67,111,110,102,105,103,40,41,0
000018a8 65475f70 
000018ac 7a695374 
000018b0 43664f65 
000018b4 42636c61 
000018b8 20292853 
000018bc 546e6143 
000018c0 65475f70 
000018c4 7a695374 
000018c8 43664f65 
000018cc 42636c61 
000018d0 50664f53 
000018d4 6e6f4343 
000018d8 28676966 

                                                                      Page 238
                                                              C:\Users\Fengyuan\AppData\Local\Temp\gh_0000kos1.s
000018dc 0029 
000018de 01        11581 	.data.b	1
000018df 05a8      11582 	.data.b	168,5
000018e1 546e6143  11583 	.data.b	67,97,110,84,112,95,71,101,116,83,105,122,101,79,102,82,120,80,100,117,77,97,112,40,41,32,67,97,110,84,112,95,71,101,116,83,105,122,101,79,102,82,120,80,100,117,77,97,112,79,102,80,67,67,111,110,102,105,103,40
000018e5 65475f70 
000018e9 7a695374 
000018ed 52664f65 
000018f1 75645078 
000018f5 2870614d 
000018f9 61432029 
000018fd 5f70546e 
00001901 53746547 
00001905 4f657a69 
00001909 50785266 
0000190d 614d7564 
00001911 50664f70 
00001915 6e6f4343 
00001919 28676966 
0000191d 0029      11584 	.data.b	41,0
0000191f 01        11585 	.data.b	1
00001920 05a9      11586 	.data.b	169,5
00001922 546e6143  11587 	.data.b	67,97,110,84,112,95,71,101,116,83,105,122,101,79,102,82,120,83,100,117,67,102,103,40,41,32,67,97,110,84,112,95,71,101,116,83,105,122,101,79,102,82,120,83,100,117,67,102,103,79,102,80,67,67,111,110,102,105,103,40
00001926 65475f70 
0000192a 7a695374 
0000192e 52664f65 
00001932 75645378 
00001936 28676643 
0000193a 61432029 
0000193e 5f70546e 
00001942 53746547 
00001946 4f657a69 
0000194a 53785266 
0000194e 66437564 
00001952 50664f67 
00001956 6e6f4343 
0000195a 28676966 
0000195e 0029      11588 	.data.b	41,0
00001960 01        11589 	.data.b	1
00001961 05ab      11590 	.data.b	171,5
00001963 546e6143  11591 	.data.b	67,97,110,84,112,95,71,101,116,83,105,122,101,79,102,82,120,83,100,117,83,110,118,50,72,100,108,40,41,32,67,97,110,84,112,95,71,101,116,83,105,122,101,79,102,82,120,83,100,117,83,110,118,50,72,100,108,79,102,80
00001967 65475f70 
0000196b 7a695374 
0000196f 52664f65 
00001973 75645378 
00001977 32766e53 
0000197b 286c6448 
0000197f 61432029 
00001983 5f70546e 
00001987 53746547 
0000198b 4f657a69 
0000198f 53785266 
00001993 6e537564 
00001997 64483276 
0000199b 50664f6c 
0000199f 6e6f4343  11592 	.data.b	67,67,111,110,102,105,103,40,41,0
000019a3 28676966 
000019a7 0029 
000019a9 01        11593 	.data.b	1
000019aa 05ac      11594 	.data.b	172,5
000019ac 546e6143  11595 	.data.b	67,97,110,84,112,95,71,101,116,83,105,122,101,79,102,82,120,83,116,97,116,101,40,41,32,67,97,110,84,112,95,71,101,116,83,105,122,101,79,102,82,120,83,116,97,116,101,79,102,80,67,67,111,110,102,105,103,40,41,0
000019b0 65475f70 

                                                                      Page 239
                                                              C:\Users\Fengyuan\AppData\Local\Temp\gh_0000kos1.s
000019b4 7a695374 
000019b8 52664f65 
000019bc 61745378 
000019c0 29286574 
000019c4 6e614320 
000019c8 475f7054 
000019cc 69537465 
000019d0 664f657a 
000019d4 74537852 
000019d8 4f657461 
000019dc 43435066 
000019e0 69666e6f 
000019e4 00292867 
000019e8 01        11596 	.data.b	1
000019e9 05ad      11597 	.data.b	173,5
000019eb 546e6143  11598 	.data.b	67,97,110,84,112,95,71,101,116,83,105,122,101,79,102,84,120,83,100,117,67,102,103,40,41,32,67,97,110,84,112,95,71,101,116,83,105,122,101,79,102,84,120,83,100,117,67,102,103,79,102,80,67,67,111,110,102,105,103,40
000019ef 65475f70 
000019f3 7a695374 
000019f7 54664f65 
000019fb 75645378 
000019ff 28676643 
00001a03 61432029 
00001a07 5f70546e 
00001a0b 53746547 
00001a0f 4f657a69 
00001a13 53785466 
00001a17 66437564 
00001a1b 50664f67 
00001a1f 6e6f4343 
00001a23 28676966 
00001a27 0029      11599 	.data.b	41,0
00001a29 01        11600 	.data.b	1
00001a2a 05af      11601 	.data.b	175,5
00001a2c 546e6143  11602 	.data.b	67,97,110,84,112,95,71,101,116,83,105,122,101,79,102,84,120,83,100,117,83,110,118,50,72,100,108,40,41,32,67,97,110,84,112,95,71,101,116,83,105,122,101,79,102,84,120,83,100,117,83,110,118,50,72,100,108,79,102,80
00001a30 65475f70 
00001a34 7a695374 
00001a38 54664f65 
00001a3c 75645378 
00001a40 32766e53 
00001a44 286c6448 
00001a48 61432029 
00001a4c 5f70546e 
00001a50 53746547 
00001a54 4f657a69 
00001a58 53785466 
00001a5c 6e537564 
00001a60 64483276 
00001a64 50664f6c 
00001a68 6e6f4343  11603 	.data.b	67,67,111,110,102,105,103,40,41,0
00001a6c 28676966 
00001a70 0029 
00001a72 01        11604 	.data.b	1
00001a73 05b0      11605 	.data.b	176,5
00001a75 546e6143  11606 	.data.b	67,97,110,84,112,95,71,101,116,83,105,122,101,79,102,84,120,83,101,109,97,112,104,111,114,101,115,40,41,32,67,97,110,84,112,95,71,101,116,83,105,122,101,79,102,84,120,83,101,109,97,112,104,111,114,101,115,79,102,80
00001a79 65475f70 
00001a7d 7a695374 
00001a81 54664f65 
00001a85 6d655378 
00001a89 6f687061 
00001a8d 28736572 
00001a91 61432029 

                                                                      Page 240
                                                              C:\Users\Fengyuan\AppData\Local\Temp\gh_0000kos1.s
00001a95 5f70546e 
00001a99 53746547 
00001a9d 4f657a69 
00001aa1 53785466 
00001aa5 70616d65 
00001aa9 65726f68 
00001aad 50664f73 
00001ab1 6e6f4343  11607 	.data.b	67,67,111,110,102,105,103,40,41,0
00001ab5 28676966 
00001ab9 0029 
00001abb 01        11608 	.data.b	1
00001abc 05b1      11609 	.data.b	177,5
00001abe 546e6143  11610 	.data.b	67,97,110,84,112,95,71,101,116,83,105,122,101,79,102,84,120,83,116,97,116,101,40,41,32,67,97,110,84,112,95,71,101,116,83,105,122,101,79,102,84,120,83,116,97,116,101,79,102,80,67,67,111,110,102,105,103,40,41,0
00001ac2 65475f70 
00001ac6 7a695374 
00001aca 54664f65 
00001ace 61745378 
00001ad2 29286574 
00001ad6 6e614320 
00001ada 475f7054 
00001ade 69537465 
00001ae2 664f657a 
00001ae6 74537854 
00001aea 4f657461 
00001aee 43435066 
00001af2 69666e6f 
00001af6 00292867 
00001afa 01        11611 	.data.b	1
00001afb 05b2      11612 	.data.b	178,5
00001afd 546e6143  11613 	.data.b	67,97,110,84,112,95,71,101,116,67,97,110,73,102,84,120,80,100,117,73,100,79,102,84,120,83,100,117,67,102,103,40,73,110,100,101,120,41,32,67,97,110,73,102,67,111,110,102,95,67,97,110,73,102,84,120,80,100,117,67
00001b01 65475f70 
00001b05 6e614374 
00001b09 78546649 
00001b0d 49756450 
00001b11 54664f64 
00001b15 75645378 
00001b19 28676643 
00001b1d 65646e49 
00001b21 43202978 
00001b25 66496e61 
00001b29 666e6f43 
00001b2d 6e61435f 
00001b31 78546649 
00001b35 43756450 
00001b39 6d5f6766  11614 	.data.b	102,103,95,109,115,103,95,100,105,97,103,95,82,101,115,112,111,110,115,101,95,77,121,69,67,85,95,84,112,95,111,67,65,78,48,48,95,53,57,101,52,56,102,55,97,95,84,120,0
00001b3d 645f6773 
00001b41 5f676169 
00001b45 70736552 
00001b49 65736e6f 
00001b4d 45794d5f 
00001b51 545f5543 
00001b55 436f5f70 
00001b59 30304e41 
00001b5d 6539355f 
00001b61 37663834 
00001b65 78545f61 
00001b69 00 
00001b6a 01        11615 	.data.b	1
00001b6b 05b3      11616 	.data.b	179,5
00001b6d 546e6143  11617 	.data.b	67,97,110,84,112,95,71,101,116,67,97,110,84,121,112,101,79,102,84,120,83,100,117,67,102,103,40,73,110,100,101,120,41,32,67,65,78,84,80,95,67,65,78,50,48,95,67,65,78,84,89,80,69,79,70,84,88,83,68,85
00001b71 65475f70 

                                                                      Page 241
                                                              C:\Users\Fengyuan\AppData\Local\Temp\gh_0000kos1.s
00001b75 6e614374 
00001b79 65707954 
00001b7d 7854664f 
00001b81 43756453 
00001b85 49286766 
00001b89 7865646e 
00001b8d 41432029 
00001b91 5f50544e 
00001b95 324e4143 
00001b99 41435f30 
00001b9d 5059544e 
00001ba1 54464f45 
00001ba5 55445358 
00001ba9 00474643  11618 	.data.b	67,70,71,0
00001bad 01        11619 	.data.b	1
00001bae 05b5      11620 	.data.b	181,5
00001bb0 546e6143  11621 	.data.b	67,97,110,84,112,95,71,101,116,78,65,115,79,102,84,120,83,100,117,67,102,103,40,73,110,100,101,120,41,32,50,49,117,0
00001bb4 65475f70 
00001bb8 73414e74 
00001bbc 7854664f 
00001bc0 43756453 
00001bc4 49286766 
00001bc8 7865646e 
00001bcc 31322029 
00001bd0 0075 
00001bd2 01        11622 	.data.b	1
00001bd3 05b6      11623 	.data.b	182,5
00001bd5 546e6143  11624 	.data.b	67,97,110,84,112,95,71,101,116,78,66,115,79,102,84,120,83,100,117,67,102,103,40,73,110,100,101,120,41,32,49,48,49,117,0
00001bd9 65475f70 
00001bdd 73424e74 
00001be1 7854664f 
00001be5 43756453 
00001be9 49286766 
00001bed 7865646e 
00001bf1 30312029 
00001bf5 007531 
00001bf8 01        11625 	.data.b	1
00001bf9 05b7      11626 	.data.b	183,5
00001bfb 546e6143  11627 	.data.b	67,97,110,84,112,95,71,101,116,78,67,115,79,102,84,120,83,100,117,67,102,103,40,73,110,100,101,120,41,32,52,49,117,0
00001bff 65475f70 
00001c03 73434e74 
00001c07 7854664f 
00001c0b 43756453 
00001c0f 49286766 
00001c13 7865646e 
00001c17 31342029 
00001c1b 0075 
00001c1d 01        11628 	.data.b	1
00001c1e 05b8      11629 	.data.b	184,5
00001c20 546e6143  11630 	.data.b	67,97,110,84,112,95,71,101,116,80,100,117,82,84,120,83,100,117,73,100,79,102,84,120,83,100,117,67,102,103,40,73,110,100,101,120,41,32,80,100,117,82,67,111,110,102,95,80,100,117,82,68,101,115,116,80,100,117,95,109
00001c24 65475f70 
00001c28 75645074 
00001c2c 53785452 
00001c30 64497564 
00001c34 7854664f 
00001c38 43756453 
00001c3c 49286766 
00001c40 7865646e 
00001c44 64502029 
00001c48 6f435275 
00001c4c 505f666e 

                                                                      Page 242
                                                              C:\Users\Fengyuan\AppData\Local\Temp\gh_0000kos1.s
00001c50 44527564 
00001c54 50747365 
00001c58 6d5f7564 
00001c5c 645f6773  11631 	.data.b	115,103,95,100,105,97,103,95,82,101,115,112,111,110,115,101,95,77,121,69,67,85,95,111,67,65,78,48,48,95,52,53,51,49,49,50,57,52,95,84,120,0
00001c60 5f676169 
00001c64 70736552 
00001c68 65736e6f 
00001c6c 45794d5f 
00001c70 6f5f5543 
00001c74 304e4143 
00001c78 35345f30 
00001c7c 32313133 
00001c80 545f3439 
00001c84 0078 
00001c86 01        11632 	.data.b	1
00001c87 05c0      11633 	.data.b	192,5
00001c89 546e6143  11634 	.data.b	67,97,110,84,112,95,71,101,116,84,120,77,97,120,80,97,121,108,111,97,100,76,101,110,103,116,104,79,102,84,120,83,100,117,67,102,103,40,73,110,100,101,120,41,32,55,117,0
00001c8d 65475f70 
00001c91 4d785474 
00001c95 61507861 
00001c99 616f6c79 
00001c9d 6e654c64 
00001ca1 4f687467 
00001ca5 53785466 
00001ca9 66437564 
00001cad 6e492867 
00001cb1 29786564 
00001cb5 00753720 
00001cb9 01        11635 	.data.b	1
00001cba 05c1      11636 	.data.b	193,5
00001cbc 546e6143  11637 	.data.b	67,97,110,84,112,95,73,115,84,120,80,97,100,100,105,110,103,65,99,116,105,118,97,116,105,111,110,79,102,84,120,83,100,117,67,102,103,40,73,110,100,101,120,41,32,83,84,68,95,79,78,0
00001cc0 73495f70 
00001cc4 61507854 
00001cc8 6e696464 
00001ccc 74634167 
00001cd0 74617669 
00001cd4 4f6e6f69 
00001cd8 53785466 
00001cdc 66437564 
00001ce0 6e492867 
00001ce4 29786564 
00001ce8 44545320 
00001cec 004e4f5f 
00001cf0 01        11638 	.data.b	1
00001cf1 05c2      11639 	.data.b	194,5
00001cf3 546e6143  11640 	.data.b	67,97,110,84,112,95,71,101,116,84,120,80,100,117,67,111,110,102,105,114,109,97,116,105,111,110,80,100,117,73,100,79,102,84,120,83,100,117,67,102,103,40,73,110,100,101,120,41,32,67,97,110,84,112,67,111,110,102,95,67
00001cf7 65475f70 
00001cfb 50785474 
00001cff 6f437564 
00001d03 7269666e 
00001d07 6974616d 
00001d0b 64506e6f 
00001d0f 4f644975 
00001d13 53785466 
00001d17 66437564 
00001d1b 6e492867 
00001d1f 29786564 
00001d23 6e614320 
00001d27 6f437054 
00001d2b 435f666e 
00001d2f 70546e61  11641 	.data.b	97,110,84,112,84,120,78,80,100,117,95,67,97,110,84,112,84,120,78,80,100,117,95,53,100,49,56,56,51,50,98,0

                                                                      Page 243
                                                              C:\Users\Fengyuan\AppData\Local\Temp\gh_0000kos1.s
00001d33 504e7854 
00001d37 435f7564 
00001d3b 70546e61 
00001d3f 504e7854 
00001d43 355f7564 
00001d47 38383164 
00001d4b 00623233 
00001d4f 01        11642 	.data.b	1
00001d50 05c4      11643 	.data.b	196,5
00001d52 546e6143  11644 	.data.b	67,97,110,84,112,95,71,101,116,84,120,83,100,117,67,102,103,73,110,100,40,73,110,100,101,120,41,32,48,117,0
00001d56 65475f70 
00001d5a 53785474 
00001d5e 66437564 
00001d62 646e4967 
00001d66 646e4928 
00001d6a 20297865 
00001d6e 007530 
00001d71 01        11645 	.data.b	1
00001d72 05c5      11646 	.data.b	197,5
00001d74 546e6143  11647 	.data.b	67,97,110,84,112,95,71,101,116,84,120,83,100,117,67,102,103,73,100,120,79,102,84,120,83,100,117,83,110,118,50,72,100,108,40,73,110,100,101,120,41,32,48,117,0
00001d78 65475f70 
00001d7c 53785474 
00001d80 66437564 
00001d84 78644967 
00001d88 7854664f 
00001d8c 53756453 
00001d90 4832766e 
00001d94 49286c64 
00001d98 7865646e 
00001d9c 75302029 
00001da0 00 
00001da1 01        11648 	.data.b	1
00001da2 05c6      11649 	.data.b	198,5
00001da4 546e6143  11650 	.data.b	67,97,110,84,112,95,73,115,84,120,83,100,117,67,102,103,85,115,101,100,79,102,84,120,83,100,117,83,110,118,50,72,100,108,40,73,110,100,101,120,41,32,40,40,40,84,82,85,69,41,41,32,33,61,32,70,65,76,83,69
00001da8 73495f70 
00001dac 64537854 
00001db0 67664375 
00001db4 64657355 
00001db8 7854664f 
00001dbc 53756453 
00001dc0 4832766e 
00001dc4 49286c64 
00001dc8 7865646e 
00001dcc 28282029 
00001dd0 55525428 
00001dd4 20292945 
00001dd8 46203d21 
00001ddc 45534c41 
00001de0 0029      11651 	.data.b	41,0
00001de2 04        11652 	.data.b	4
00001de3 01        11653 	.data.b	1
00001de4 38        11654 	.data.b	56
00001de5 544e4143  11655 	.data.b	67,65,78,84,80,95,80,68,85,82,95,65,80,73,95,52,48,51,95,69,78,65,66,76,69,68,32,83,84,68,95,79,70,70,0
00001de9 44505f50 
00001ded 415f5255 
00001df1 345f4950 
00001df5 455f3330 
00001df9 4c42414e 
00001dfd 53204445 
00001e01 4f5f4454 
00001e05 004646 

                                                                      Page 244
                                                              C:\Users\Fengyuan\AppData\Local\Temp\gh_0000kos1.s
00001e08 01        11656 	.data.b	1
00001e09 44        11657 	.data.b	68
00001e0a 544e4143  11658 	.data.b	67,65,78,84,80,95,84,88,95,81,85,69,85,69,95,83,73,90,69,32,52,0
00001e0e 58545f50 
00001e12 4555515f 
00001e16 535f4555 
00001e1a 20455a49 
00001e1e 0034 
00001e20 01        11659 	.data.b	1
00001e21 59        11660 	.data.b	89
00001e22 544e4143  11661 	.data.b	67,65,78,84,80,95,70,82,65,77,69,95,83,70,32,40,48,120,48,48,117,41,0
00001e26 52465f50 
00001e2a 5f454d41 
00001e2e 28204653 
00001e32 30307830 
00001e36 002975 
00001e39 01        11662 	.data.b	1
00001e3a 5a        11663 	.data.b	90
00001e3b 544e4143  11664 	.data.b	67,65,78,84,80,95,70,82,65,77,69,95,70,70,32,40,48,120,48,49,117,41,0
00001e3f 52465f50 
00001e43 5f454d41 
00001e47 28204646 
00001e4b 31307830 
00001e4f 002975 
00001e52 01        11665 	.data.b	1
00001e53 5b        11666 	.data.b	91
00001e54 544e4143  11667 	.data.b	67,65,78,84,80,95,70,82,65,77,69,95,67,70,32,40,48,120,48,50,117,41,0
00001e58 52465f50 
00001e5c 5f454d41 
00001e60 28204643 
00001e64 32307830 
00001e68 002975 
00001e6b 01        11668 	.data.b	1
00001e6c 5d        11669 	.data.b	93
00001e6d 544e4143  11670 	.data.b	67,65,78,84,80,95,70,82,65,77,69,95,73,78,86,65,76,73,68,32,40,48,120,48,52,117,41,0
00001e71 52465f50 
00001e75 5f454d41 
00001e79 41564e49 
00001e7d 2044494c 
00001e81 30783028 
00001e85 00297534 
00001e89 01        11671 	.data.b	1
00001e8a 61        11672 	.data.b	97
00001e8b 544e4143  11673 	.data.b	67,65,78,84,80,95,83,84,65,84,85,83,95,78,79,84,95,73,78,73,84,73,65,76,73,90,69,68,32,67,65,78,84,80,95,79,70,70,0
00001e8f 54535f50 
00001e93 53555441 
00001e97 544f4e5f 
00001e9b 494e495f 
00001e9f 4c414954 
00001ea3 44455a49 
00001ea7 4e414320 
00001eab 4f5f5054 
00001eaf 004646 
00001eb2 01        11674 	.data.b	1
00001eb3 62        11675 	.data.b	98
00001eb4 544e4143  11676 	.data.b	67,65,78,84,80,95,83,84,65,84,85,83,95,73,78,73,84,73,65,76,73,90,69,68,32,67,65,78,84,80,95,79,78,0
00001eb8 54535f50 
00001ebc 53555441 
00001ec0 494e495f 
00001ec4 4c414954 
00001ec8 44455a49 

                                                                      Page 245
                                                              C:\Users\Fengyuan\AppData\Local\Temp\gh_0000kos1.s
00001ecc 4e414320 
00001ed0 4f5f5054 
00001ed4 004e 
00001ed6 01        11677 	.data.b	1
00001ed7 63        11678 	.data.b	99
00001ed8 544e4143  11679 	.data.b	67,65,78,84,80,95,83,84,65,84,85,83,95,83,72,85,84,68,79,87,78,32,67,65,78,84,80,95,83,84,65,84,85,83,95,78,79,84,95,73,78,73,84,73,65,76,73,90,69,68,0
00001edc 54535f50 
00001ee0 53555441 
00001ee4 5548535f 
00001ee8 574f4454 
00001eec 4143204e 
00001ef0 5f50544e 
00001ef4 54415453 
00001ef8 4e5f5355 
00001efc 495f544f 
00001f00 4954494e 
00001f04 5a494c41 
00001f08 004445 
00001f0b 01        11680 	.data.b	1
00001f0c 67        11681 	.data.b	103
00001f0d 544e4143  11682 	.data.b	67,65,78,84,80,95,84,88,83,84,65,84,69,95,73,68,76,69,32,40,48,120,48,48,117,41,0
00001f11 58545f50 
00001f15 54415453 
00001f19 44495f45 
00001f1d 2820454c 
00001f21 30307830 
00001f25 002975 
00001f28 01        11683 	.data.b	1
00001f29 68        11684 	.data.b	104
00001f2a 544e4143  11685 	.data.b	67,65,78,84,80,95,84,88,83,84,65,84,69,95,87,65,73,84,95,70,67,32,40,48,120,48,49,117,41,0
00001f2e 58545f50 
00001f32 54415453 
00001f36 41575f45 
00001f3a 465f5449 
00001f3e 30282043 
00001f42 75313078 
00001f46 0029 
00001f48 01        11686 	.data.b	1
00001f49 69        11687 	.data.b	105
00001f4a 544e4143  11688 	.data.b	67,65,78,84,80,95,84,88,83,84,65,84,69,95,87,65,73,84,95,83,84,77,73,78,95,73,78,84,69,82,78,32,40,48,120,48,50,117,41,0
00001f4e 58545f50 
00001f52 54415453 
00001f56 41575f45 
00001f5a 535f5449 
00001f5e 4e494d54 
00001f62 544e495f 
00001f66 204e5245 
00001f6a 30783028 
00001f6e 00297532 
00001f72 01        11689 	.data.b	1
00001f73 6b        11690 	.data.b	107
00001f74 544e4143  11691 	.data.b	67,65,78,84,80,95,84,88,83,84,65,84,69,95,84,82,65,78,83,77,73,84,95,65,78,89,32,40,48,120,49,48,117,41,0
00001f78 58545f50 
00001f7c 54415453 
00001f80 52545f45 
00001f84 4d534e41 
00001f88 415f5449 
00001f8c 2820594e 
00001f90 30317830 
00001f94 002975 
00001f97 01        11692 	.data.b	1

                                                                      Page 246
                                                              C:\Users\Fengyuan\AppData\Local\Temp\gh_0000kos1.s
00001f98 6c        11693 	.data.b	108
00001f99 544e4143  11694 	.data.b	67,65,78,84,80,95,84,88,83,84,65,84,69,95,84,82,65,78,83,77,73,84,95,65,78,89,95,77,65,83,75,32,40,48,120,69,70,117,41,0
00001f9d 58545f50 
00001fa1 54415453 
00001fa5 52545f45 
00001fa9 4d534e41 
00001fad 415f5449 
00001fb1 4d5f594e 
00001fb5 204b5341 
00001fb9 45783028 
00001fbd 00297546 
00001fc1 01        11695 	.data.b	1
00001fc2 6d        11696 	.data.b	109
00001fc3 544e4143  11697 	.data.b	67,65,78,84,80,95,84,88,83,84,65,84,69,95,84,82,65,78,83,77,73,84,95,83,70,32,40,48,120,49,49,117,41,0
00001fc7 58545f50 
00001fcb 54415453 
00001fcf 52545f45 
00001fd3 4d534e41 
00001fd7 535f5449 
00001fdb 30282046 
00001fdf 75313178 
00001fe3 0029 
00001fe5 01        11698 	.data.b	1
00001fe6 6e        11699 	.data.b	110
00001fe7 544e4143  11700 	.data.b	67,65,78,84,80,95,84,88,83,84,65,84,69,95,84,82,65,78,83,77,73,84,95,70,70,32,40,48,120,49,50,117,41,0
00001feb 58545f50 
00001fef 54415453 
00001ff3 52545f45 
00001ff7 4d534e41 
00001ffb 465f5449 
00001fff 30282046 
00002003 75323178 
00002007 0029 
00002009 01        11701 	.data.b	1
0000200a 6f        11702 	.data.b	111
0000200b 544e4143  11703 	.data.b	67,65,78,84,80,95,84,88,83,84,65,84,69,95,84,82,65,78,83,77,73,84,95,67,70,32,40,48,120,49,51,117,41,0
0000200f 58545f50 
00002013 54415453 
00002017 52545f45 
0000201b 4d534e41 
0000201f 435f5449 
00002023 30282046 
00002027 75333178 
0000202b 0029 
0000202d 01        11704 	.data.b	1
0000202e 70        11705 	.data.b	112
0000202f 544e4143  11706 	.data.b	67,65,78,84,80,95,84,88,83,84,65,84,69,95,87,65,73,84,95,84,88,67,79,78,70,95,65,78,89,32,40,48,120,50,48,117,41,0
00002033 58545f50 
00002037 54415453 
0000203b 41575f45 
0000203f 545f5449 
00002043 4e4f4358 
00002047 4e415f46 
0000204b 30282059 
0000204f 75303278 
00002053 0029 
00002055 01        11707 	.data.b	1
00002056 71        11708 	.data.b	113
00002057 544e4143  11709 	.data.b	67,65,78,84,80,95,84,88,83,84,65,84,69,95,87,65,73,84,95,84,88,67,79,78,70,95,83,70,32,40,48,120,50,49,117,41,0
0000205b 58545f50 
0000205f 54415453 

                                                                      Page 247
                                                              C:\Users\Fengyuan\AppData\Local\Temp\gh_0000kos1.s
00002063 41575f45 
00002067 545f5449 
0000206b 4e4f4358 
0000206f 46535f46 
00002073 78302820 
00002077 29753132 
0000207b 00 
0000207c 01        11710 	.data.b	1
0000207d 72        11711 	.data.b	114
0000207e 544e4143  11712 	.data.b	67,65,78,84,80,95,84,88,83,84,65,84,69,95,87,65,73,84,95,84,88,67,79,78,70,95,70,70,32,40,48,120,50,50,117,41,0
00002082 58545f50 
00002086 54415453 
0000208a 41575f45 
0000208e 545f5449 
00002092 4e4f4358 
00002096 46465f46 
0000209a 78302820 
0000209e 29753232 
000020a2 00 
000020a3 01        11713 	.data.b	1
000020a4 73        11714 	.data.b	115
000020a5 544e4143  11715 	.data.b	67,65,78,84,80,95,84,88,83,84,65,84,69,95,87,65,73,84,95,84,88,67,79,78,70,95,67,70,32,40,48,120,50,51,117,41,0
000020a9 58545f50 
000020ad 54415453 
000020b1 41575f45 
000020b5 545f5449 
000020b9 4e4f4358 
000020bd 46435f46 
000020c1 78302820 
000020c5 29753332 
000020c9 00 
000020ca 01        11716 	.data.b	1
000020cb 74        11717 	.data.b	116
000020cc 544e4143  11718 	.data.b	67,65,78,84,80,95,84,88,83,84,65,84,69,95,87,65,73,84,95,66,85,70,70,69,82,95,65,78,89,32,40,48,120,52,48,117,41,0
000020d0 58545f50 
000020d4 54415453 
000020d8 41575f45 
000020dc 425f5449 
000020e0 45464655 
000020e4 4e415f52 
000020e8 30282059 
000020ec 75303478 
000020f0 0029 
000020f2 01        11719 	.data.b	1
000020f3 75        11720 	.data.b	117
000020f4 544e4143  11721 	.data.b	67,65,78,84,80,95,84,88,83,84,65,84,69,95,87,65,73,84,95,66,85,70,70,69,82,95,83,70,32,40,48,120,52,49,117,41,0
000020f8 58545f50 
000020fc 54415453 
00002100 41575f45 
00002104 425f5449 
00002108 45464655 
0000210c 46535f52 
00002110 78302820 
00002114 29753134 
00002118 00 
00002119 01        11722 	.data.b	1
0000211a 76        11723 	.data.b	118
0000211b 544e4143  11724 	.data.b	67,65,78,84,80,95,84,88,83,84,65,84,69,95,87,65,73,84,95,66,85,70,70,69,82,95,70,70,32,40,48,120,52,50,117,41,0
0000211f 58545f50 
00002123 54415453 
00002127 41575f45 

                                                                      Page 248
                                                              C:\Users\Fengyuan\AppData\Local\Temp\gh_0000kos1.s
0000212b 425f5449 
0000212f 45464655 
00002133 46465f52 
00002137 78302820 
0000213b 29753234 
0000213f 00 
00002140 01        11725 	.data.b	1
00002141 77        11726 	.data.b	119
00002142 544e4143  11727 	.data.b	67,65,78,84,80,95,84,88,83,84,65,84,69,95,87,65,73,84,95,66,85,70,70,69,82,95,67,70,32,40,48,120,52,51,117,41,0
00002146 58545f50 
0000214a 54415453 
0000214e 41575f45 
00002152 425f5449 
00002156 45464655 
0000215a 46435f52 
0000215e 78302820 
00002162 29753334 
00002166 00 
00002167 01        11728 	.data.b	1
00002168 7b        11729 	.data.b	123
00002169 544e4143  11730 	.data.b	67,65,78,84,80,95,82,88,83,84,65,84,69,95,73,68,76,69,32,40,48,120,48,48,117,41,0
0000216d 58525f50 
00002171 54415453 
00002175 44495f45 
00002179 2820454c 
0000217d 30307830 
00002181 002975 
00002184 01        11731 	.data.b	1
00002185 7c        11732 	.data.b	124
00002186 544e4143  11733 	.data.b	67,65,78,84,80,95,82,88,83,84,65,84,69,95,87,65,73,84,95,67,70,32,40,48,120,48,49,117,41,0
0000218a 58525f50 
0000218e 54415453 
00002192 41575f45 
00002196 435f5449 
0000219a 30282046 
0000219e 75313078 
000021a2 0029 
000021a4 01        11734 	.data.b	1
000021a5 7d        11735 	.data.b	125
000021a6 544e4143  11736 	.data.b	67,65,78,84,80,95,82,88,83,84,65,84,69,95,87,65,73,84,95,78,69,88,84,95,70,67,87,65,73,84,32,40,48,120,48,50,117,41,0
000021aa 58525f50 
000021ae 54415453 
000021b2 41575f45 
000021b6 4e5f5449 
000021ba 5f545845 
000021be 41574346 
000021c2 28205449 
000021c6 32307830 
000021ca 002975 
000021cd 01        11737 	.data.b	1
000021ce 7e        11738 	.data.b	126
000021cf 544e4143  11739 	.data.b	67,65,78,84,80,95,82,88,83,84,65,84,69,95,84,82,65,78,83,77,73,84,95,70,67,95,65,78,89,32,40,48,120,49,48,117,41,0
000021d3 58525f50 
000021d7 54415453 
000021db 52545f45 
000021df 4d534e41 
000021e3 465f5449 
000021e7 4e415f43 
000021eb 30282059 
000021ef 75303178 
000021f3 0029 

                                                                      Page 249
                                                              C:\Users\Fengyuan\AppData\Local\Temp\gh_0000kos1.s
000021f5 01        11740 	.data.b	1
000021f6 7f        11741 	.data.b	127
000021f7 544e4143  11742 	.data.b	67,65,78,84,80,95,82,88,83,84,65,84,69,95,84,82,65,78,83,77,73,84,95,70,67,95,65,78,89,95,77,65,83,75,32,40,48,120,69,70,117,41,0
000021fb 58525f50 
000021ff 54415453 
00002203 52545f45 
00002207 4d534e41 
0000220b 465f5449 
0000220f 4e415f43 
00002213 414d5f59 
00002217 28204b53 
0000221b 46457830 
0000221f 002975 
00002222 01        11743 	.data.b	1
00002223 0180      11744 	.data.b	128,1
00002225 544e4143  11745 	.data.b	67,65,78,84,80,95,82,88,83,84,65,84,69,95,84,82,65,78,83,77,73,84,95,70,67,95,67,84,83,32,40,48,120,49,49,117,41,0
00002229 58525f50 
0000222d 54415453 
00002231 52545f45 
00002235 4d534e41 
00002239 465f5449 
0000223d 54435f43 
00002241 30282053 
00002245 75313178 
00002249 0029 
0000224b 01        11746 	.data.b	1
0000224c 0181      11747 	.data.b	129,1
0000224e 544e4143  11748 	.data.b	67,65,78,84,80,95,82,88,83,84,65,84,69,95,84,82,65,78,83,77,73,84,95,70,67,95,87,84,32,40,48,120,49,50,117,41,0
00002252 58525f50 
00002256 54415453 
0000225a 52545f45 
0000225e 4d534e41 
00002262 465f5449 
00002266 54575f43 
0000226a 78302820 
0000226e 29753231 
00002272 00 
00002273 01        11749 	.data.b	1
00002274 0182      11750 	.data.b	130,1
00002276 544e4143  11751 	.data.b	67,65,78,84,80,95,82,88,83,84,65,84,69,95,84,82,65,78,83,77,73,84,95,70,67,95,79,86,70,76,32,40,48,120,49,51,117,41,0
0000227a 58525f50 
0000227e 54415453 
00002282 52545f45 
00002286 4d534e41 
0000228a 465f5449 
0000228e 564f5f43 
00002292 28204c46 
00002296 33317830 
0000229a 002975 
0000229d 01        11752 	.data.b	1
0000229e 0183      11753 	.data.b	131,1
000022a0 544e4143  11754 	.data.b	67,65,78,84,80,95,82,88,83,84,65,84,69,95,87,65,73,84,95,84,88,67,79,78,70,70,67,95,65,78,89,32,40,48,120,50,48,117,41,0
000022a4 58525f50 
000022a8 54415453 
000022ac 41575f45 
000022b0 545f5449 
000022b4 4e4f4358 
000022b8 5f434646 
000022bc 20594e41 
000022c0 32783028 
000022c4 00297530 

                                                                      Page 250
                                                              C:\Users\Fengyuan\AppData\Local\Temp\gh_0000kos1.s
000022c8 01        11755 	.data.b	1
000022c9 0184      11756 	.data.b	132,1
000022cb 544e4143  11757 	.data.b	67,65,78,84,80,95,82,88,83,84,65,84,69,95,87,65,73,84,95,84,88,67,79,78,70,70,67,95,67,84,83,32,40,48,120,50,49,117,41,0
000022cf 58525f50 
000022d3 54415453 
000022d7 41575f45 
000022db 545f5449 
000022df 4e4f4358 
000022e3 5f434646 
000022e7 20535443 
000022eb 32783028 
000022ef 00297531 
000022f3 01        11758 	.data.b	1
000022f4 0185      11759 	.data.b	133,1
000022f6 544e4143  11760 	.data.b	67,65,78,84,80,95,82,88,83,84,65,84,69,95,87,65,73,84,95,84,88,67,79,78,70,70,67,95,87,84,32,40,48,120,50,50,117,41,0
000022fa 58525f50 
000022fe 54415453 
00002302 41575f45 
00002306 545f5449 
0000230a 4e4f4358 
0000230e 5f434646 
00002312 28205457 
00002316 32327830 
0000231a 002975 
0000231d 01        11761 	.data.b	1
0000231e 0186      11762 	.data.b	134,1
00002320 544e4143  11763 	.data.b	67,65,78,84,80,95,82,88,83,84,65,84,69,95,87,65,73,84,95,84,88,67,79,78,70,70,67,95,79,86,70,76,32,40,48,120,50,51,117,41,0
00002324 58525f50 
00002328 54415453 
0000232c 41575f45 
00002330 545f5449 
00002334 4e4f4358 
00002338 5f434646 
0000233c 4c46564f 
00002340 78302820 
00002344 29753332 
00002348 00 
00002349 01        11764 	.data.b	1
0000234a 0187      11765 	.data.b	135,1
0000234c 544e4143  11766 	.data.b	67,65,78,84,80,95,82,88,83,84,65,84,69,95,87,65,73,84,95,66,85,70,70,69,82,95,65,78,89,32,40,48,120,52,48,117,41,0
00002350 58525f50 
00002354 54415453 
00002358 41575f45 
0000235c 425f5449 
00002360 45464655 
00002364 4e415f52 
00002368 30282059 
0000236c 75303478 
00002370 0029 
00002372 01        11767 	.data.b	1
00002373 0188      11768 	.data.b	136,1
00002375 544e4143  11769 	.data.b	67,65,78,84,80,95,82,88,83,84,65,84,69,95,87,65,73,84,95,66,85,70,70,69,82,95,83,70,32,40,48,120,52,49,117,41,0
00002379 58525f50 
0000237d 54415453 
00002381 41575f45 
00002385 425f5449 
00002389 45464655 
0000238d 46535f52 
00002391 78302820 
00002395 29753134 
00002399 00 

                                                                      Page 251
                                                              C:\Users\Fengyuan\AppData\Local\Temp\gh_0000kos1.s
0000239a 01        11770 	.data.b	1
0000239b 0189      11771 	.data.b	137,1
0000239d 544e4143  11772 	.data.b	67,65,78,84,80,95,82,88,83,84,65,84,69,95,87,65,73,84,95,66,85,70,70,69,82,95,70,70,32,40,48,120,52,50,117,41,0
000023a1 58525f50 
000023a5 54415453 
000023a9 41575f45 
000023ad 425f5449 
000023b1 45464655 
000023b5 46465f52 
000023b9 78302820 
000023bd 29753234 
000023c1 00 
000023c2 01        11773 	.data.b	1
000023c3 018a      11774 	.data.b	138,1
000023c5 544e4143  11775 	.data.b	67,65,78,84,80,95,82,88,83,84,65,84,69,95,87,65,73,84,95,66,85,70,70,69,82,95,67,70,32,40,48,120,52,51,117,41,0
000023c9 58525f50 
000023cd 54415453 
000023d1 41575f45 
000023d5 425f5449 
000023d9 45464655 
000023dd 46435f52 
000023e1 78302820 
000023e5 29753334 
000023e9 00 
000023ea 01        11776 	.data.b	1
000023eb 018e      11777 	.data.b	142,1
000023ed 544e4143  11778 	.data.b	67,65,78,84,80,95,68,73,82,95,78,79,78,69,32,40,67,97,110,84,112,95,68,105,114,101,99,116,105,111,110,84,121,112,101,41,40,48,120,48,49,117,41,0
000023f1 49445f50 
000023f5 4f4e5f52 
000023f9 2820454e 
000023fd 546e6143 
00002401 69445f70 
00002405 74636572 
00002409 546e6f69 
0000240d 29657079 
00002411 30783028 
00002415 00297531 
00002419 01        11779 	.data.b	1
0000241a 018f      11780 	.data.b	143,1
0000241c 544e4143  11781 	.data.b	67,65,78,84,80,95,68,73,82,95,84,88,32,40,67,97,110,84,112,95,68,105,114,101,99,116,105,111,110,84,121,112,101,41,40,48,120,48,50,117,41,0
00002420 49445f50 
00002424 58545f52 
00002428 61432820 
0000242c 5f70546e 
00002430 65726944 
00002434 6f697463 
00002438 7079546e 
0000243c 30282965 
00002440 75323078 
00002444 0029 
00002446 01        11782 	.data.b	1
00002447 0190      11783 	.data.b	144,1
00002449 544e4143  11784 	.data.b	67,65,78,84,80,95,68,73,82,95,82,88,32,40,67,97,110,84,112,95,68,105,114,101,99,116,105,111,110,84,121,112,101,41,40,48,120,48,51,117,41,0
0000244d 49445f50 
00002451 58525f52 
00002455 61432820 
00002459 5f70546e 
0000245d 65726944 
00002461 6f697463 
00002465 7079546e 
00002469 30282965 

                                                                      Page 252
                                                              C:\Users\Fengyuan\AppData\Local\Temp\gh_0000kos1.s
0000246d 75333078 
00002471 0029 
00002473 01        11785 	.data.b	1
00002474 01a4      11786 	.data.b	164,1
00002476 544e4143  11787 	.data.b	67,65,78,84,80,95,78,79,84,73,70,89,95,79,75,32,40,83,116,100,95,82,101,116,117,114,110,84,121,112,101,41,69,95,79,75,0
0000247a 4f4e5f50 
0000247e 59464954 
00002482 204b4f5f 
00002486 64745328 
0000248a 7465525f 
0000248e 546e7275 
00002492 29657079 
00002496 4b4f5f45 
0000249a 00 
0000249b 01        11788 	.data.b	1
0000249c 01a5      11789 	.data.b	165,1
0000249e 544e4143  11790 	.data.b	67,65,78,84,80,95,78,79,84,73,70,89,95,78,79,84,95,79,75,32,40,83,116,100,95,82,101,116,117,114,110,84,121,112,101,41,69,95,78,79,84,95,79,75,0
000024a2 4f4e5f50 
000024a6 59464954 
000024aa 544f4e5f 
000024ae 204b4f5f 
000024b2 64745328 
000024b6 7465525f 
000024ba 546e7275 
000024be 29657079 
000024c2 4f4e5f45 
000024c6 4b4f5f54 
000024ca 00 
000024cb 01        11791 	.data.b	1
000024cc 01a6      11792 	.data.b	166,1
000024ce 544e4143  11793 	.data.b	67,65,78,84,80,95,78,79,84,73,70,89,95,84,73,77,69,79,85,84,95,65,32,40,83,116,100,95,82,101,116,117,114,110,84,121,112,101,41,69,95,78,79,84,95,79,75,0
000024d2 4f4e5f50 
000024d6 59464954 
000024da 4d49545f 
000024de 54554f45 
000024e2 2820415f 
000024e6 5f647453 
000024ea 75746552 
000024ee 79546e72 
000024f2 45296570 
000024f6 544f4e5f 
000024fa 004b4f5f 
000024fe 01        11794 	.data.b	1
000024ff 01a7      11795 	.data.b	167,1
00002501 544e4143  11796 	.data.b	67,65,78,84,80,95,78,79,84,73,70,89,95,84,73,77,69,79,85,84,95,66,32,40,83,116,100,95,82,101,116,117,114,110,84,121,112,101,41,69,95,78,79,84,95,79,75,0
00002505 4f4e5f50 
00002509 59464954 
0000250d 4d49545f 
00002511 54554f45 
00002515 2820425f 
00002519 5f647453 
0000251d 75746552 
00002521 79546e72 
00002525 45296570 
00002529 544f4e5f 
0000252d 004b4f5f 
00002531 01        11797 	.data.b	1
00002532 01a8      11798 	.data.b	168,1
00002534 544e4143  11799 	.data.b	67,65,78,84,80,95,78,79,84,73,70,89,95,84,73,77,69,79,85,84,95,67,32,40,83,116,100,95,82,101,116,117,114,110,84,121,112,101,41,69,95,78,79,84,95,79,75,0
00002538 4f4e5f50 
0000253c 59464954 

                                                                      Page 253
                                                              C:\Users\Fengyuan\AppData\Local\Temp\gh_0000kos1.s
00002540 4d49545f 
00002544 54554f45 
00002548 2820435f 
0000254c 5f647453 
00002550 75746552 
00002554 79546e72 
00002558 45296570 
0000255c 544f4e5f 
00002560 004b4f5f 
00002564 01        11800 	.data.b	1
00002565 01a9      11801 	.data.b	169,1
00002567 544e4143  11802 	.data.b	67,65,78,84,80,95,78,79,84,73,70,89,95,87,82,79,78,71,95,83,78,32,40,83,116,100,95,82,101,116,117,114,110,84,121,112,101,41,69,95,78,79,84,95,79,75,0
0000256b 4f4e5f50 
0000256f 59464954 
00002573 4f52575f 
00002577 535f474e 
0000257b 5328204e 
0000257f 525f6474 
00002583 72757465 
00002587 7079546e 
0000258b 5f452965 
0000258f 5f544f4e 
00002593 004b4f 
00002596 01        11803 	.data.b	1
00002597 01aa      11804 	.data.b	170,1
00002599 544e4143  11805 	.data.b	67,65,78,84,80,95,78,79,84,73,70,89,95,73,78,86,65,76,73,68,95,70,83,32,40,83,116,100,95,82,101,116,117,114,110,84,121,112,101,41,69,95,78,79,84,95,79,75,0
0000259d 4f4e5f50 
000025a1 59464954 
000025a5 564e495f 
000025a9 44494c41 
000025ad 2053465f 
000025b1 64745328 
000025b5 7465525f 
000025b9 546e7275 
000025bd 29657079 
000025c1 4f4e5f45 
000025c5 4b4f5f54 
000025c9 00 
000025ca 01        11806 	.data.b	1
000025cb 01ab      11807 	.data.b	171,1
000025cd 544e4143  11808 	.data.b	67,65,78,84,80,95,78,79,84,73,70,89,95,85,78,69,88,80,95,80,68,85,32,40,83,116,100,95,82,101,116,117,114,110,84,121,112,101,41,69,95,78,79,84,95,79,75,0
000025d1 4f4e5f50 
000025d5 59464954 
000025d9 454e555f 
000025dd 505f5058 
000025e1 28205544 
000025e5 5f647453 
000025e9 75746552 
000025ed 79546e72 
000025f1 45296570 
000025f5 544f4e5f 
000025f9 004b4f5f 
000025fd 01        11809 	.data.b	1
000025fe 01ac      11810 	.data.b	172,1
00002600 544e4143  11811 	.data.b	67,65,78,84,80,95,78,79,84,73,70,89,95,87,70,84,95,79,86,69,82,82,85,78,32,40,83,116,100,95,82,101,116,117,114,110,84,121,112,101,41,69,95,78,79,84,95,79,75,0
00002604 4f4e5f50 
00002608 59464954 
0000260c 5446575f 
00002610 45564f5f 
00002614 4e555252 
00002618 74532820 

                                                                      Page 254
                                                              C:\Users\Fengyuan\AppData\Local\Temp\gh_0000kos1.s
0000261c 65525f64 
00002620 6e727574 
00002624 65707954 
00002628 4e5f4529 
0000262c 4f5f544f 
00002630 004b 
00002632 01        11812 	.data.b	1
00002633 01ad      11813 	.data.b	173,1
00002635 544e4143  11814 	.data.b	67,65,78,84,80,95,78,79,84,73,70,89,95,78,79,95,66,85,70,70,69,82,32,40,83,116,100,95,82,101,116,117,114,110,84,121,112,101,41,69,95,78,79,84,95,79,75,0
00002639 4f4e5f50 
0000263d 59464954 
00002641 5f4f4e5f 
00002645 46465542 
00002649 28205245 
0000264d 5f647453 
00002651 75746552 
00002655 79546e72 
00002659 45296570 
0000265d 544f4e5f 
00002661 004b4f5f 
00002665 01        11815 	.data.b	1
00002666 01b0      11816 	.data.b	176,1
00002668 544e4143  11817 	.data.b	67,65,78,84,80,95,78,79,84,73,70,89,95,78,79,82,69,83,85,76,84,32,40,83,116,100,95,82,101,116,117,114,110,84,121,112,101,41,40,48,120,56,48,117,41,0
0000266c 4f4e5f50 
00002670 59464954 
00002674 524f4e5f 
00002678 4c555345 
0000267c 53282054 
00002680 525f6474 
00002684 72757465 
00002688 7079546e 
0000268c 30282965 
00002690 75303878 
00002694 0029 
00002696 01        11818 	.data.b	1
00002697 01b5      11819 	.data.b	181,1
00002699 544e4143  11820 	.data.b	67,65,78,84,80,95,66,85,70,82,69,81,95,79,75,32,40,67,97,110,84,112,95,66,117,102,102,101,114,83,116,97,116,101,84,121,112,101,41,66,85,70,82,69,81,95,79,75,0
0000269d 55425f50 
000026a1 51455246 
000026a5 204b4f5f 
000026a9 6e614328 
000026ad 425f7054 
000026b1 65666675 
000026b5 61745372 
000026b9 79546574 
000026bd 42296570 
000026c1 45524655 
000026c5 4b4f5f51 
000026c9 00 
000026ca 01        11821 	.data.b	1
000026cb 01b6      11822 	.data.b	182,1
000026cd 544e4143  11823 	.data.b	67,65,78,84,80,95,66,85,70,82,69,81,95,69,95,78,79,84,95,79,75,32,40,67,97,110,84,112,95,66,117,102,102,101,114,83,116,97,116,101,84,121,112,101,41,66,85,70,82,69,81,95,69,95,78,79,84,95,79,75
000026d1 55425f50 
000026d5 51455246 
000026d9 4e5f455f 
000026dd 4f5f544f 
000026e1 4328204b 
000026e5 70546e61 
000026e9 6675425f 
000026ed 53726566 
000026f1 65746174 

                                                                      Page 255
                                                              C:\Users\Fengyuan\AppData\Local\Temp\gh_0000kos1.s
000026f5 65707954 
000026f9 46554229 
000026fd 5f514552 
00002701 4f4e5f45 
00002705 4b4f5f54 
00002709 00        11824 	.data.b	0
0000270a 01        11825 	.data.b	1
0000270b 01b7      11826 	.data.b	183,1
0000270d 544e4143  11827 	.data.b	67,65,78,84,80,95,66,85,70,82,69,81,95,69,95,66,85,83,89,32,40,67,97,110,84,112,95,66,117,102,102,101,114,83,116,97,116,101,84,121,112,101,41,66,85,70,82,69,81,95,69,95,66,85,83,89,0
00002711 55425f50 
00002715 51455246 
00002719 425f455f 
0000271d 20595355 
00002721 6e614328 
00002725 425f7054 
00002729 65666675 
0000272d 61745372 
00002731 79546574 
00002735 42296570 
00002739 45524655 
0000273d 5f455f51 
00002741 59535542 
00002745 00 
00002746 01        11828 	.data.b	1
00002747 01b8      11829 	.data.b	184,1
00002749 544e4143  11830 	.data.b	67,65,78,84,80,95,66,85,70,82,69,81,95,69,95,79,86,70,76,32,40,67,97,110,84,112,95,66,117,102,102,101,114,83,116,97,116,101,84,121,112,101,41,66,85,70,82,69,81,95,69,95,79,86,70,76,0
0000274d 55425f50 
00002751 51455246 
00002755 4f5f455f 
00002759 204c4656 
0000275d 6e614328 
00002761 425f7054 
00002765 65666675 
00002769 61745372 
0000276d 79546574 
00002771 42296570 
00002775 45524655 
00002779 5f455f51 
0000277d 4c46564f 
00002781 00 
00002782 04        11831 	.data.b	4
00002783 03        11832 	.data.b	3
00002784 6c        11833 	.data.b	108
00002785 0f        11834 	.data.b	15
00002786 03        11835 	.data.b	3
00002787 0392      11836 	.data.b	146,3
00002789 10        11837 	.data.b	16
0000278a 04        11838 	.data.b	4
0000278b 03        11839 	.data.b	3
0000278c 0397      11840 	.data.b	151,3
0000278e 10        11841 	.data.b	16
0000278f 04        11842 	.data.b	4
00002790 03        11843 	.data.b	3
00002791 03ad      11844 	.data.b	173,3
00002793 10        11845 	.data.b	16
00002794 04        11846 	.data.b	4
00002795 03        11847 	.data.b	3
00002796 03b2      11848 	.data.b	178,3
00002798 10        11849 	.data.b	16
00002799 04        11850 	.data.b	4
0000279a 03        11851 	.data.b	3

                                                                      Page 256
                                                              C:\Users\Fengyuan\AppData\Local\Temp\gh_0000kos1.s
0000279b 03be      11852 	.data.b	190,3
0000279d 10        11853 	.data.b	16
0000279e 04        11854 	.data.b	4
0000279f 03        11855 	.data.b	3
000027a0 03c3      11856 	.data.b	195,3
000027a2 10        11857 	.data.b	16
000027a3 04        11858 	.data.b	4
000027a4 03        11859 	.data.b	3
000027a5 03d1      11860 	.data.b	209,3
000027a7 10        11861 	.data.b	16
000027a8 04        11862 	.data.b	4
000027a9 03        11863 	.data.b	3
000027aa 03d6      11864 	.data.b	214,3
000027ac 10        11865 	.data.b	16
000027ad 04        11866 	.data.b	4
000027ae 03        11867 	.data.b	3
000027af 03de      11868 	.data.b	222,3
000027b1 10        11869 	.data.b	16
000027b2 04        11870 	.data.b	4
000027b3 03        11871 	.data.b	3
000027b4 03e3      11872 	.data.b	227,3
000027b6 10        11873 	.data.b	16
000027b7 04        11874 	.data.b	4
000027b8 03        11875 	.data.b	3
000027b9 03eb      11876 	.data.b	235,3
000027bb 10        11877 	.data.b	16
000027bc 04        11878 	.data.b	4
000027bd 03        11879 	.data.b	3
000027be 03f0      11880 	.data.b	240,3
000027c0 10        11881 	.data.b	16
000027c1 04        11882 	.data.b	4
000027c2 03        11883 	.data.b	3
000027c3 03f8      11884 	.data.b	248,3
000027c5 10        11885 	.data.b	16
000027c6 04        11886 	.data.b	4
000027c7 03        11887 	.data.b	3
000027c8 03fd      11888 	.data.b	253,3
000027ca 10        11889 	.data.b	16
000027cb 04        11890 	.data.b	4
000027cc 03        11891 	.data.b	3
000027cd 0485      11892 	.data.b	133,4
000027cf 10        11893 	.data.b	16
000027d0 04        11894 	.data.b	4
000027d1 03        11895 	.data.b	3
000027d2 048a      11896 	.data.b	138,4
000027d4 10        11897 	.data.b	16
000027d5 04        11898 	.data.b	4
000027d6 04        11899 	.data.b	4
000027d7 03        11900 	.data.b	3
000027d8 6d        11901 	.data.b	109
000027d9 11        11902 	.data.b	17
000027da 04        11903 	.data.b	4
000027db 01        11904 	.data.b	1
000027dc 75        11905 	.data.b	117
000027dd 544e4143  11906 	.data.b	67,65,78,84,80,95,77,79,68,85,76,69,95,73,68,32,40,48,120,50,51,117,41,0
000027e1 4f4d5f50 
000027e5 454c5544 
000027e9 2044495f 
000027ed 32783028 
000027f1 00297533 
000027f5 01        11907 	.data.b	1

                                                                      Page 257
                                                              C:\Users\Fengyuan\AppData\Local\Temp\gh_0000kos1.s
000027f6 7f        11908 	.data.b	127
000027f7 544e4143  11909 	.data.b	67,65,78,84,80,95,83,87,95,77,65,74,79,82,95,86,69,82,83,73,79,78,32,40,51,117,41,0
000027fb 57535f50 
000027ff 4a414d5f 
00002803 565f524f 
00002807 49535245 
0000280b 28204e4f 
0000280f 00297533 
00002813 01        11910 	.data.b	1
00002814 0180      11911 	.data.b	128,1
00002816 544e4143  11912 	.data.b	67,65,78,84,80,95,83,87,95,77,73,78,79,82,95,86,69,82,83,73,79,78,32,40,51,117,41,0
0000281a 57535f50 
0000281e 4e494d5f 
00002822 565f524f 
00002826 49535245 
0000282a 28204e4f 
0000282e 00297533 
00002832 01        11913 	.data.b	1
00002833 0181      11914 	.data.b	129,1
00002835 544e4143  11915 	.data.b	67,65,78,84,80,95,83,87,95,80,65,84,67,72,95,86,69,82,83,73,79,78,32,40,51,117,41,0
00002839 57535f50 
0000283d 5441505f 
00002841 565f4843 
00002845 49535245 
00002849 28204e4f 
0000284d 00297533 
00002851 01        11916 	.data.b	1
00002852 0183      11917 	.data.b	131,1
00002854 544e4143  11918 	.data.b	67,65,78,84,80,95,73,78,83,84,65,78,67,69,95,73,68,95,68,69,84,32,40,48,120,48,48,117,41,0
00002858 4e495f50 
0000285c 4e415453 
00002860 495f4543 
00002864 45445f44 
00002868 30282054 
0000286c 75303078 
00002870 0029 
00002872 01        11919 	.data.b	1
00002873 0187      11920 	.data.b	135,1
00002875 544e4143  11921 	.data.b	67,65,78,84,80,95,83,73,68,95,73,78,73,84,32,40,48,120,48,49,117,41,0
00002879 49535f50 
0000287d 4e495f44 
00002881 28205449 
00002885 31307830 
00002889 002975 
0000288c 01        11922 	.data.b	1
0000288d 0188      11923 	.data.b	136,1
0000288f 544e4143  11924 	.data.b	67,65,78,84,80,95,83,73,68,95,83,72,85,84,68,79,87,78,32,40,48,120,48,50,117,41,0
00002893 49535f50 
00002897 48535f44 
0000289b 4f445455 
0000289f 28204e57 
000028a3 32307830 
000028a7 002975 
000028aa 01        11925 	.data.b	1
000028ab 0189      11926 	.data.b	137,1
000028ad 544e4143  11927 	.data.b	67,65,78,84,80,95,83,73,68,95,84,82,65,78,83,77,73,84,32,40,48,120,48,51,117,41,0
000028b1 49535f50 
000028b5 52545f44 
000028b9 4d534e41 
000028bd 28205449 
000028c1 33307830 

                                                                      Page 258
                                                              C:\Users\Fengyuan\AppData\Local\Temp\gh_0000kos1.s
000028c5 002975 
000028c8 01        11928 	.data.b	1
000028c9 018a      11929 	.data.b	138,1
000028cb 544e4143  11930 	.data.b	67,65,78,84,80,95,83,73,68,95,82,88,73,78,68,73,67,65,84,73,79,78,32,40,48,120,48,52,117,41,0
000028cf 49535f50 
000028d3 58525f44 
000028d7 49444e49 
000028db 49544143 
000028df 28204e4f 
000028e3 34307830 
000028e7 002975 
000028ea 01        11931 	.data.b	1
000028eb 018b      11932 	.data.b	139,1
000028ed 544e4143  11933 	.data.b	67,65,78,84,80,95,83,73,68,95,84,88,67,79,78,70,73,82,77,65,84,73,79,78,32,40,48,120,48,53,117,41,0
000028f1 49535f50 
000028f5 58545f44 
000028f9 464e4f43 
000028fd 414d5249 
00002901 4e4f4954 
00002905 78302820 
00002909 29753530 
0000290d 00 
0000290e 01        11934 	.data.b	1
0000290f 0192      11935 	.data.b	146,1
00002911 544e4143  11936 	.data.b	67,65,78,84,80,95,83,73,68,95,77,65,73,78,70,85,78,67,84,73,79,78,82,88,32,40,48,120,50,48,117,41,0
00002915 49535f50 
00002919 414d5f44 
0000291d 55464e49 
00002921 4954434e 
00002925 58524e4f 
00002929 78302820 
0000292d 29753032 
00002931 00 
00002932 01        11937 	.data.b	1
00002933 0193      11938 	.data.b	147,1
00002935 544e4143  11939 	.data.b	67,65,78,84,80,95,83,73,68,95,77,65,73,78,70,85,78,67,84,73,79,78,84,88,32,40,48,120,50,49,117,41,0
00002939 49535f50 
0000293d 414d5f44 
00002941 55464e49 
00002945 4954434e 
00002949 58544e4f 
0000294d 78302820 
00002951 29753132 
00002955 00 
00002956 01        11940 	.data.b	1
00002957 0196      11941 	.data.b	150,1
00002959 544e4143  11942 	.data.b	67,65,78,84,80,95,83,73,68,95,82,88,71,69,84,66,85,70,70,69,82,32,40,48,120,51,48,117,41,0
0000295d 49535f50 
00002961 58525f44 
00002965 42544547 
00002969 45464655 
0000296d 30282052 
00002971 75303378 
00002975 0029 
00002977 01        11943 	.data.b	1
00002978 0197      11944 	.data.b	151,1
0000297a 544e4143  11945 	.data.b	67,65,78,84,80,95,83,73,68,95,84,88,71,69,84,66,85,70,70,69,82,32,40,48,120,51,49,117,41,0
0000297e 49535f50 
00002982 58545f44 
00002986 42544547 
0000298a 45464655 

                                                                      Page 259
                                                              C:\Users\Fengyuan\AppData\Local\Temp\gh_0000kos1.s
0000298e 30282052 
00002992 75313378 
00002996 0029 
00002998 01        11946 	.data.b	1
00002999 0198      11947 	.data.b	152,1
0000299b 544e4143  11948 	.data.b	67,65,78,84,80,95,83,73,68,95,82,88,84,82,65,78,83,77,73,84,70,82,65,77,69,32,40,48,120,51,50,117,41,0
0000299f 49535f50 
000029a3 58525f44 
000029a7 4e415254 
000029ab 54494d53 
000029af 4d415246 
000029b3 30282045 
000029b7 75323378 
000029bb 0029 
000029bd 01        11949 	.data.b	1
000029be 0199      11950 	.data.b	153,1
000029c0 544e4143  11951 	.data.b	67,65,78,84,80,95,83,73,68,95,84,88,84,82,65,78,83,77,73,84,70,82,65,77,69,32,40,48,120,51,51,117,41,0
000029c4 49535f50 
000029c8 58545f44 
000029cc 4e415254 
000029d0 54494d53 
000029d4 4d415246 
000029d8 30282045 
000029dc 75333378 
000029e0 0029 
000029e2 01        11952 	.data.b	1
000029e3 019a      11953 	.data.b	154,1
000029e5 544e4143  11954 	.data.b	67,65,78,84,80,95,83,73,68,95,82,88,73,78,73,84,32,40,48,120,51,52,117,41,0
000029e9 49535f50 
000029ed 58525f44 
000029f1 54494e49 
000029f5 78302820 
000029f9 29753433 
000029fd 00 
000029fe 01        11955 	.data.b	1
000029ff 019b      11956 	.data.b	155,1
00002a01 544e4143  11957 	.data.b	67,65,78,84,80,95,83,73,68,95,84,88,73,78,73,84,32,40,48,120,51,53,117,41,0
00002a05 49535f50 
00002a09 58545f44 
00002a0d 54494e49 
00002a11 78302820 
00002a15 29753533 
00002a19 00 
00002a1a 01        11958 	.data.b	1
00002a1b 019f      11959 	.data.b	159,1
00002a1d 544e4143  11960 	.data.b	67,65,78,84,80,95,69,95,80,65,82,65,77,95,67,79,78,70,73,71,32,40,48,120,48,49,117,41,0
00002a21 5f455f50 
00002a25 41524150 
00002a29 4f435f4d 
00002a2d 4749464e 
00002a31 78302820 
00002a35 29753130 
00002a39 00 
00002a3a 01        11961 	.data.b	1
00002a3b 01a1      11962 	.data.b	161,1
00002a3d 544e4143  11963 	.data.b	67,65,78,84,80,95,69,95,80,65,82,65,77,95,80,79,73,78,84,69,82,32,40,48,120,48,51,117,41,0
00002a41 5f455f50 
00002a45 41524150 
00002a49 4f505f4d 
00002a4d 45544e49 
00002a51 30282052 

                                                                      Page 260
                                                              C:\Users\Fengyuan\AppData\Local\Temp\gh_0000kos1.s
00002a55 75333078 
00002a59 0029 
00002a5b 01        11964 	.data.b	1
00002a5c 01a2      11965 	.data.b	162,1
00002a5e 544e4143  11966 	.data.b	67,65,78,84,80,95,69,95,85,78,73,78,73,84,32,40,48,120,50,48,117,41,0
00002a62 5f455f50 
00002a66 4e494e55 
00002a6a 28205449 
00002a6e 30327830 
00002a72 002975 
00002a75 01        11967 	.data.b	1
00002a76 01a3      11968 	.data.b	163,1
00002a78 544e4143  11969 	.data.b	67,65,78,84,80,95,69,95,73,78,86,65,76,73,68,95,84,88,95,73,68,32,40,48,120,51,48,117,41,0
00002a7c 5f455f50 
00002a80 41564e49 
00002a84 5f44494c 
00002a88 495f5854 
00002a8c 30282044 
00002a90 75303378 
00002a94 0029 
00002a96 01        11970 	.data.b	1
00002a97 01a4      11971 	.data.b	164,1
00002a99 544e4143  11972 	.data.b	67,65,78,84,80,95,69,95,73,78,86,65,76,73,68,95,82,88,95,73,68,32,40,48,120,52,48,117,41,0
00002a9d 5f455f50 
00002aa1 41564e49 
00002aa5 5f44494c 
00002aa9 495f5852 
00002aad 30282044 
00002ab1 75303478 
00002ab5 0029 
00002ab7 01        11973 	.data.b	1
00002ab8 01a5      11974 	.data.b	165,1
00002aba 544e4143  11975 	.data.b	67,65,78,84,80,95,69,95,73,78,86,65,76,73,68,95,84,88,95,66,85,70,70,69,82,32,40,48,120,53,48,117,41,0
00002abe 5f455f50 
00002ac2 41564e49 
00002ac6 5f44494c 
00002aca 425f5854 
00002ace 45464655 
00002ad2 30282052 
00002ad6 75303578 
00002ada 0029 
00002adc 01        11976 	.data.b	1
00002add 01a6      11977 	.data.b	166,1
00002adf 544e4143  11978 	.data.b	67,65,78,84,80,95,69,95,73,78,86,65,76,73,68,95,82,88,95,66,85,70,70,69,82,32,40,48,120,54,48,117,41,0
00002ae3 5f455f50 
00002ae7 41564e49 
00002aeb 5f44494c 
00002aef 425f5852 
00002af3 45464655 
00002af7 30282052 
00002afb 75303678 
00002aff 0029 
00002b01 01        11979 	.data.b	1
00002b02 01a7      11980 	.data.b	167,1
00002b04 544e4143  11981 	.data.b	67,65,78,84,80,95,69,95,73,78,86,65,76,73,68,95,84,88,95,76,69,78,71,84,72,32,40,48,120,55,48,117,41,0
00002b08 5f455f50 
00002b0c 41564e49 
00002b10 5f44494c 
00002b14 4c5f5854 
00002b18 54474e45 
00002b1c 30282048 

                                                                      Page 261
                                                              C:\Users\Fengyuan\AppData\Local\Temp\gh_0000kos1.s
00002b20 75303778 
00002b24 0029 
00002b26 01        11982 	.data.b	1
00002b27 01a8      11983 	.data.b	168,1
00002b29 544e4143  11984 	.data.b	67,65,78,84,80,95,69,95,73,78,86,65,76,73,68,95,82,88,95,76,69,78,71,84,72,32,40,48,120,56,48,117,41,0
00002b2d 5f455f50 
00002b31 41564e49 
00002b35 5f44494c 
00002b39 4c5f5852 
00002b3d 54474e45 
00002b41 30282048 
00002b45 75303878 
00002b49 0029 
00002b4b 01        11985 	.data.b	1
00002b4c 01a9      11986 	.data.b	169,1
00002b4e 544e4143  11987 	.data.b	67,65,78,84,80,95,69,95,73,78,86,65,76,73,68,95,84,65,84,89,80,69,32,40,48,120,57,48,117,41,0
00002b52 5f455f50 
00002b56 41564e49 
00002b5a 5f44494c 
00002b5e 59544154 
00002b62 28204550 
00002b66 30397830 
00002b6a 002975 
00002b6d 01        11988 	.data.b	1
00002b6e 01ac      11989 	.data.b	172,1
00002b70 544e4143  11990 	.data.b	67,65,78,84,80,95,69,95,73,78,86,65,76,73,68,95,82,88,95,83,84,65,84,69,32,40,48,120,66,49,117,41,0
00002b74 5f455f50 
00002b78 41564e49 
00002b7c 5f44494c 
00002b80 535f5852 
00002b84 45544154 
00002b88 78302820 
00002b8c 29753142 
00002b90 00 
00002b91 01        11991 	.data.b	1
00002b92 01ad      11992 	.data.b	173,1
00002b94 544e4143  11993 	.data.b	67,65,78,84,80,95,69,95,73,78,86,65,76,73,68,95,84,88,95,83,84,65,84,69,32,40,48,120,66,50,117,41,0
00002b98 5f455f50 
00002b9c 41564e49 
00002ba0 5f44494c 
00002ba4 535f5854 
00002ba8 45544154 
00002bac 78302820 
00002bb0 29753242 
00002bb4 00 
00002bb5 01        11994 	.data.b	1
00002bb6 01b0      11995 	.data.b	176,1
00002bb8 544e4143  11996 	.data.b	67,65,78,84,80,95,69,95,82,88,95,84,73,77,69,79,85,84,95,65,82,32,40,48,120,67,49,117,41,0
00002bbc 5f455f50 
00002bc0 545f5852 
00002bc4 4f454d49 
00002bc8 415f5455 
00002bcc 30282052 
00002bd0 75314378 
00002bd4 0029 
00002bd6 01        11997 	.data.b	1
00002bd7 01b2      11998 	.data.b	178,1
00002bd9 544e4143  11999 	.data.b	67,65,78,84,80,95,69,95,82,88,95,84,73,77,69,79,85,84,95,67,82,32,40,48,120,67,51,117,41,0
00002bdd 5f455f50 
00002be1 545f5852 
00002be5 4f454d49 

                                                                      Page 262
                                                              C:\Users\Fengyuan\AppData\Local\Temp\gh_0000kos1.s
00002be9 435f5455 
00002bed 30282052 
00002bf1 75334378 
00002bf5 0029 
00002bf7 01        12000 	.data.b	1
00002bf8 01b3      12001 	.data.b	179,1
00002bfa 544e4143  12002 	.data.b	67,65,78,84,80,95,69,95,82,88,95,73,78,86,65,76,73,68,95,83,78,32,40,48,120,67,52,117,41,0
00002bfe 5f455f50 
00002c02 495f5852 
00002c06 4c41564e 
00002c0a 535f4449 
00002c0e 3028204e 
00002c12 75344378 
00002c16 0029 
00002c18 01        12003 	.data.b	1
00002c19 01b4      12004 	.data.b	180,1
00002c1b 544e4143  12005 	.data.b	67,65,78,84,80,95,69,95,82,88,95,87,70,84,77,65,88,32,40,48,120,67,53,117,41,0
00002c1f 5f455f50 
00002c23 575f5852 
00002c27 414d5446 
00002c2b 30282058 
00002c2f 75354378 
00002c33 0029 
00002c35 01        12006 	.data.b	1
00002c36 01b5      12007 	.data.b	181,1
00002c38 544e4143  12008 	.data.b	67,65,78,84,80,95,69,95,82,88,95,82,69,83,84,65,82,84,32,40,48,120,67,54,117,41,0
00002c3c 5f455f50 
00002c40 525f5852 
00002c44 41545345 
00002c48 28205452 
00002c4c 36437830 
00002c50 002975 
00002c53 01        12009 	.data.b	1
00002c54 01b6      12010 	.data.b	182,1
00002c56 544e4143  12011 	.data.b	67,65,78,84,80,95,69,95,82,88,95,84,82,65,78,83,77,73,84,95,69,82,82,79,82,32,40,48,120,67,55,117,41,0
00002c5a 5f455f50 
00002c5e 545f5852 
00002c62 534e4152 
00002c66 5f54494d 
00002c6a 4f525245 
00002c6e 30282052 
00002c72 75374378 
00002c76 0029 
00002c78 01        12012 	.data.b	1
00002c79 01b8      12013 	.data.b	184,1
00002c7b 544e4143  12014 	.data.b	67,65,78,84,80,95,69,95,84,88,95,84,73,77,69,79,85,84,95,65,83,32,40,48,120,68,49,117,41,0
00002c7f 5f455f50 
00002c83 545f5854 
00002c87 4f454d49 
00002c8b 415f5455 
00002c8f 30282053 
00002c93 75314478 
00002c97 0029 
00002c99 01        12015 	.data.b	1
00002c9a 01b9      12016 	.data.b	185,1
00002c9c 544e4143  12017 	.data.b	67,65,78,84,80,95,69,95,84,88,95,84,73,77,69,79,85,84,95,66,83,32,40,48,120,68,50,117,41,0
00002ca0 5f455f50 
00002ca4 545f5854 
00002ca8 4f454d49 
00002cac 425f5455 
00002cb0 30282053 

                                                                      Page 263
                                                              C:\Users\Fengyuan\AppData\Local\Temp\gh_0000kos1.s
00002cb4 75324478 
00002cb8 0029 
00002cba 01        12018 	.data.b	1
00002cbb 01ba      12019 	.data.b	186,1
00002cbd 544e4143  12020 	.data.b	67,65,78,84,80,95,69,95,84,88,95,84,73,77,69,79,85,84,95,67,83,32,40,48,120,68,51,117,41,0
00002cc1 5f455f50 
00002cc5 545f5854 
00002cc9 4f454d49 
00002ccd 435f5455 
00002cd1 30282053 
00002cd5 75334478 
00002cd9 0029 
00002cdb 01        12021 	.data.b	1
00002cdc 01bb      12022 	.data.b	187,1
00002cde 544e4143  12023 	.data.b	67,65,78,84,80,95,69,95,84,88,95,70,67,95,79,86,70,76,32,40,48,120,68,52,117,41,0
00002ce2 5f455f50 
00002ce6 465f5854 
00002cea 564f5f43 
00002cee 28204c46 
00002cf2 34447830 
00002cf6 002975 
00002cf9 01        12024 	.data.b	1
00002cfa 01bc      12025 	.data.b	188,1
00002cfc 544e4143  12026 	.data.b	67,65,78,84,80,95,69,95,84,88,95,73,78,86,65,76,73,68,95,70,83,32,40,48,120,68,53,117,41,0
00002d00 5f455f50 
00002d04 495f5854 
00002d08 4c41564e 
00002d0c 465f4449 
00002d10 30282053 
00002d14 75354478 
00002d18 0029 
00002d1a 01        12027 	.data.b	1
00002d1b 01be      12028 	.data.b	190,1
00002d1d 544e4143  12029 	.data.b	67,65,78,84,80,95,69,95,84,88,95,84,82,65,78,83,77,73,84,95,69,82,82,79,82,32,40,48,120,68,55,117,41,0
00002d21 5f455f50 
00002d25 545f5854 
00002d29 534e4152 
00002d2d 5f54494d 
00002d31 4f525245 
00002d35 30282052 
00002d39 75374478 
00002d3d 0029 
00002d3f 01        12030 	.data.b	1
00002d40 01bf      12031 	.data.b	191,1
00002d42 544e4143  12032 	.data.b	67,65,78,84,80,95,69,95,78,79,95,69,82,82,79,82,32,40,48,120,70,70,117,41,0
00002d46 5f455f50 
00002d4a 455f4f4e 
00002d4e 524f5252 
00002d52 78302820 
00002d56 29754646 
00002d5a 00 
00002d5b 01        12033 	.data.b	1
00002d5c 01c3      12034 	.data.b	195,1
00002d5e 544e4143  12035 	.data.b	67,65,78,84,80,95,79,70,70,32,40,48,120,48,48,41,0
00002d62 464f5f50 
00002d66 30282046 
00002d6a 29303078 
00002d6e 00 
00002d6f 01        12036 	.data.b	1
00002d70 01c4      12037 	.data.b	196,1
00002d72 544e4143  12038 	.data.b	67,65,78,84,80,95,79,78,32,40,48,120,48,49,41,0

                                                                      Page 264
                                                              C:\Users\Fengyuan\AppData\Local\Temp\gh_0000kos1.s
00002d76 4e4f5f50 
00002d7a 78302820 
00002d7e 00293130 
00002d82 01        12039 	.data.b	1
00002d83 01ca      12040 	.data.b	202,1
00002d85 544e4143  12041 	.data.b	67,65,78,84,80,95,65,80,80,76,95,82,88,95,83,70,95,73,78,68,73,67,65,84,73,79,78,32,83,84,68,95,79,70,70,0
00002d89 50415f50 
00002d8d 525f4c50 
00002d91 46535f58 
00002d95 444e495f 
00002d99 54414349 
00002d9d 204e4f49 
00002da1 5f445453 
00002da5 0046464f 
00002da9 01        12042 	.data.b	1
00002daa 01ce      12043 	.data.b	206,1
00002dac 544e4143  12044 	.data.b	67,65,78,84,80,95,65,80,80,76,95,82,88,95,70,70,95,73,78,68,73,67,65,84,73,79,78,32,83,84,68,95,79,70,70,0
00002db0 50415f50 
00002db4 525f4c50 
00002db8 46465f58 
00002dbc 444e495f 
00002dc0 54414349 
00002dc4 204e4f49 
00002dc8 5f445453 
00002dcc 0046464f 
00002dd0 01        12045 	.data.b	1
00002dd1 01d2      12046 	.data.b	210,1
00002dd3 544e4143  12047 	.data.b	67,65,78,84,80,95,65,80,80,76,95,82,88,95,67,70,95,73,78,68,73,67,65,84,73,79,78,32,83,84,68,95,79,70,70,0
00002dd7 50415f50 
00002ddb 525f4c50 
00002ddf 46435f58 
00002de3 444e495f 
00002de7 54414349 
00002deb 204e4f49 
00002def 5f445453 
00002df3 0046464f 
00002df7 01        12048 	.data.b	1
00002df8 01d6      12049 	.data.b	214,1
00002dfa 544e4143  12050 	.data.b	67,65,78,84,80,95,65,80,80,76,95,70,82,65,77,69,95,84,82,65,78,83,77,73,83,83,73,79,78,32,83,84,68,95,79,70,70,0
00002dfe 50415f50 
00002e02 465f4c50 
00002e06 454d4152 
00002e0a 4152545f 
00002e0e 494d534e 
00002e12 4f495353 
00002e16 5453204e 
00002e1a 464f5f44 
00002e1e 0046 
00002e20 01        12051 	.data.b	1
00002e21 01da      12052 	.data.b	218,1
00002e23 544e4143  12053 	.data.b	67,65,78,84,80,95,65,80,80,76,95,70,82,65,77,69,95,67,79,78,70,73,82,77,65,84,73,79,78,32,83,84,68,95,79,70,70,0
00002e27 50415f50 
00002e2b 465f4c50 
00002e2f 454d4152 
00002e33 4e4f435f 
00002e37 4d524946 
00002e3b 4f495441 
00002e3f 5453204e 
00002e43 464f5f44 
00002e47 0046 
00002e49 01        12054 	.data.b	1

                                                                      Page 265
                                                              C:\Users\Fengyuan\AppData\Local\Temp\gh_0000kos1.s
00002e4a 01de      12055 	.data.b	222,1
00002e4c 544e4143  12056 	.data.b	67,65,78,84,80,95,84,88,95,70,67,95,70,82,79,77,95,73,83,82,32,83,84,68,95,79,78,0
00002e50 58545f50 
00002e54 5f43465f 
00002e58 4d4f5246 
00002e5c 5253495f 
00002e60 44545320 
00002e64 004e4f5f 
00002e68 01        12057 	.data.b	1
00002e69 01e2      12058 	.data.b	226,1
00002e6b 544e4143  12059 	.data.b	67,65,78,84,80,95,82,88,95,71,69,84,95,66,85,70,70,69,82,95,70,82,79,77,95,73,83,82,32,83,84,68,95,79,78,0
00002e6f 58525f50 
00002e73 5445475f 
00002e77 4655425f 
00002e7b 5f524546 
00002e7f 4d4f5246 
00002e83 5253495f 
00002e87 44545320 
00002e8b 004e4f5f 
00002e8f 01        12060 	.data.b	1
00002e90 01e6      12061 	.data.b	230,1
00002e92 544e4143  12062 	.data.b	67,65,78,84,80,95,84,88,95,71,69,84,95,66,85,70,70,69,82,95,70,82,79,77,95,73,83,82,32,83,84,68,95,79,78,0
00002e96 58545f50 
00002e9a 5445475f 
00002e9e 4655425f 
00002ea2 5f524546 
00002ea6 4d4f5246 
00002eaa 5253495f 
00002eae 44545320 
00002eb2 004e4f5f 
00002eb6 01        12063 	.data.b	1
00002eb7 01ea      12064 	.data.b	234,1
00002eb9 544e4143  12065 	.data.b	67,65,78,84,80,95,70,65,85,76,84,95,84,79,76,69,82,65,78,84,95,82,88,66,85,70,70,69,82,32,83,84,68,95,79,70,70,0
00002ebd 41465f50 
00002ec1 5f544c55 
00002ec5 454c4f54 
00002ec9 544e4152 
00002ecd 4258525f 
00002ed1 45464655 
00002ed5 54532052 
00002ed9 464f5f44 
00002edd 0046 
00002edf 01        12066 	.data.b	1
00002ee0 01ee      12067 	.data.b	238,1
00002ee2 544e4143  12068 	.data.b	67,65,78,84,80,95,73,71,78,79,82,69,95,70,67,95,87,73,84,72,95,82,69,83,95,83,84,77,73,78,32,83,84,68,95,79,70,70,0
00002ee6 47495f50 
00002eea 45524f4e 
00002eee 5f43465f 
00002ef2 48544957 
00002ef6 5345525f 
00002efa 4d54535f 
00002efe 53204e49 
00002f02 4f5f4454 
00002f06 004646 
00002f09 01        12069 	.data.b	1
00002f0a 01f2      12070 	.data.b	242,1
00002f0c 544e4143  12071 	.data.b	67,65,78,84,80,95,73,71,78,79,82,69,95,67,70,95,87,73,84,72,95,87,82,79,78,71,95,83,78,32,83,84,68,95,79,70,70,0
00002f10 47495f50 
00002f14 45524f4e 
00002f18 5f46435f 
00002f1c 48544957 

                                                                      Page 266
                                                              C:\Users\Fengyuan\AppData\Local\Temp\gh_0000kos1.s
00002f20 4f52575f 
00002f24 535f474e 
00002f28 5453204e 
00002f2c 464f5f44 
00002f30 0046 
00002f32 01        12072 	.data.b	1
00002f33 01f6      12073 	.data.b	246,1
00002f35 544e4143  12074 	.data.b	67,65,78,84,80,95,73,71,78,79,82,69,95,70,67,95,79,86,70,76,95,73,78,86,65,76,73,68,95,70,83,32,83,84,68,95,79,70,70,0
00002f39 47495f50 
00002f3d 45524f4e 
00002f41 5f43465f 
00002f45 4c46564f 
00002f49 564e495f 
00002f4d 44494c41 
00002f51 2053465f 
00002f55 5f445453 
00002f59 0046464f 
00002f5d 03        12075 	.data.b	3
00002f5e 028f      12076 	.data.b	143,2
00002f60 10        12077 	.data.b	16
00002f61 04        12078 	.data.b	4
00002f62 03        12079 	.data.b	3
00002f63 03ce      12080 	.data.b	206,3
00002f65 10        12081 	.data.b	16
00002f66 04        12082 	.data.b	4
00002f67 04        12083 	.data.b	4
00002f68 03        12084 	.data.b	3
00002f69 6c        12085 	.data.b	108
00002f6a 12        12086 	.data.b	18
00002f6b 03        12087 	.data.b	3
00002f6c 40        12088 	.data.b	64
00002f6d 10        12089 	.data.b	16
00002f6e 04        12090 	.data.b	4
00002f6f 03        12091 	.data.b	3
00002f70 01d6      12092 	.data.b	214,1
00002f72 10        12093 	.data.b	16
00002f73 04        12094 	.data.b	4
00002f74 04        12095 	.data.b	4
00002f75 03        12096 	.data.b	3
00002f76 6f        12097 	.data.b	111
00002f77 13        12098 	.data.b	19
00002f78 03        12099 	.data.b	3
00002f79 26        12100 	.data.b	38
00002f7a 14        12101 	.data.b	20
00002f7b 03        12102 	.data.b	3
00002f7c 2a        12103 	.data.b	42
00002f7d 15        12104 	.data.b	21
00002f7e 01        12105 	.data.b	1
00002f7f 24        12106 	.data.b	36
00002f80 52554450  12107 	.data.b	80,68,85,82,95,77,65,88,95,78,85,77,66,69,82,95,79,70,95,67,79,82,69,83,32,49,0
00002f84 58414d5f 
00002f88 4d554e5f 
00002f8c 5f524542 
00002f90 435f464f 
00002f94 5345524f 
00002f98 003120 
00002f9b 04        12108 	.data.b	4
00002f9c 01        12109 	.data.b	1
00002f9d 01ca      12110 	.data.b	202,1
00002f9f 52756450  12111 	.data.b	80,100,117,82,67,111,110,102,95,80,100,117,82,68,101,115,116,80,100,117,95,109,115,103,95,100,105,97,103,95,82,101,115,112,111,110,115,101,95,77,121,69,67,85,95,111,67,65,78,48,48,95,52,53,51,49,49,50,57,52
00002fa3 666e6f43 

                                                                      Page 267
                                                              C:\Users\Fengyuan\AppData\Local\Temp\gh_0000kos1.s
00002fa7 7564505f 
00002fab 73654452 
00002faf 75645074 
00002fb3 67736d5f 
00002fb7 6169645f 
00002fbb 65525f67 
00002fbf 6e6f7073 
00002fc3 4d5f6573 
00002fc7 55434579 
00002fcb 41436f5f 
00002fcf 5f30304e 
00002fd3 31333534 
00002fd7 34393231 
00002fdb 2078545f  12112 	.data.b	95,84,120,32,48,117,0
00002fdf 007530 
00002fe2 04        12113 	.data.b	4
00002fe3 03        12114 	.data.b	3
00002fe4 3e        12115 	.data.b	62
00002fe5 10        12116 	.data.b	16
00002fe6 04        12117 	.data.b	4
00002fe7 03        12118 	.data.b	3
00002fe8 01e3      12119 	.data.b	227,1
00002fea 10        12120 	.data.b	16
00002feb 04        12121 	.data.b	4
00002fec 04        12122 	.data.b	4
00002fed 03        12123 	.data.b	3
00002fee 70        12124 	.data.b	112
00002fef 16        12125 	.data.b	22
00002ff0 03        12126 	.data.b	3
00002ff1 01ab      12127 	.data.b	171,1
00002ff3 17        12128 	.data.b	23
00002ff4 03        12129 	.data.b	3
00002ff5 2e        12130 	.data.b	46
00002ff6 18        12131 	.data.b	24
00002ff7 03        12132 	.data.b	3
00002ff8 03dd      12133 	.data.b	221,3
00002ffa 19        12134 	.data.b	25
00002ffb 03        12135 	.data.b	3
00002ffc 3a        12136 	.data.b	58
00002ffd 1a        12137 	.data.b	26
00002ffe 03        12138 	.data.b	3
00002fff 48        12139 	.data.b	72
00003000 1b        12140 	.data.b	27
00003001 04        12141 	.data.b	4
00003002 03        12142 	.data.b	3
00003003 4c        12143 	.data.b	76
00003004 1c        12144 	.data.b	28
00003005 04        12145 	.data.b	4
00003006 04        12146 	.data.b	4
00003007 01        12147 	.data.b	1
00003008 6c        12148 	.data.b	108
00003009 5f4e4143  12149 	.data.b	67,65,78,95,80,79,83,84,66,85,73,76,68,95,86,65,82,73,65,78,84,95,83,85,80,80,79,82,84,32,83,84,68,95,79,70,70,0
0000300d 54534f50 
00003011 4c495542 
00003015 41565f44 
00003019 4e414952 
0000301d 55535f54 
00003021 524f5050 
00003025 54532054 
00003029 464f5f44 
0000302d 0046 

                                                                      Page 268
                                                              C:\Users\Fengyuan\AppData\Local\Temp\gh_0000kos1.s
0000302f 01        12150 	.data.b	1
00003030 79        12151 	.data.b	121
00003031 5f4e4143  12152 	.data.b	67,65,78,95,71,69,78,95,67,79,77,95,83,84,65,67,75,95,76,73,66,32,0
00003035 5f4e4547 
00003039 5f4d4f43 
0000303d 43415453 
00003041 494c5f4b 
00003045 002042 
00003048 01        12153 	.data.b	1
00003049 7c        12154 	.data.b	124
0000304a 534f5f56  12155 	.data.b	86,95,79,83,84,89,80,69,95,65,85,84,79,83,65,82,32,0
0000304e 45505954 
00003052 5455415f 
00003056 5241534f 
0000305a 0020 
0000305c 01        12156 	.data.b	1
0000305d 019a      12157 	.data.b	154,1
0000305f 50435f43  12158 	.data.b	67,95,67,80,85,84,89,80,69,95,76,73,84,84,76,69,69,78,68,73,65,78,32,0
00003063 50595455 
00003067 494c5f45 
0000306b 454c5454 
0000306f 49444e45 
00003073 00204e41 
00003077 01        12159 	.data.b	1
00003078 01ab      12160 	.data.b	171,1
0000307a 50435f56  12161 	.data.b	86,95,67,80,85,95,83,51,50,32,0
0000307e 33535f55 
00003082 002032 
00003085 01        12162 	.data.b	1
00003086 01cc      12163 	.data.b	204,1
00003088 5f4e4143  12164 	.data.b	67,65,78,95,77,73,67,82,79,83,65,82,95,86,69,82,83,73,79,78,32,67,65,78,95,77,83,82,52,48,51,0
0000308c 5243494d 
00003090 5241534f 
00003094 5245565f 
00003098 4e4f4953 
0000309c 4e414320 
000030a0 52534d5f 
000030a4 00333034 
000030a8 01        12165 	.data.b	1
000030a9 01d2      12166 	.data.b	210,1
000030ab 5f4e4143  12167 	.data.b	67,65,78,95,73,78,83,84,65,78,67,69,95,73,68,32,48,0
000030af 54534e49 
000030b3 45434e41 
000030b7 2044495f 
000030bb 0030 
000030bd 01        12168 	.data.b	1
000030be 01df      12169 	.data.b	223,1
000030c0 5f4e4143  12170 	.data.b	67,65,78,95,73,78,84,69,82,82,85,80,84,32,48,117,0
000030c4 45544e49 
000030c8 50555252 
000030cc 75302054 
000030d0 00 
000030d1 01        12171 	.data.b	1
000030d2 01e0      12172 	.data.b	224,1
000030d4 5f4e4143  12173 	.data.b	67,65,78,95,80,79,76,76,73,78,71,32,49,117,0
000030d8 4c4c4f50 
000030dc 20474e49 
000030e0 007531 
000030e3 01        12174 	.data.b	1
000030e4 01e2      12175 	.data.b	226,1
000030e6 6e61436b  12176 	.data.b	107,67,97,110,67,104,97,110,110,101,108,78,111,116,85,115,101,100,32,67,65,78,95,78,79,95,67,65,78,73,70,67,72,65,78,78,69,76,73,68,0

                                                                      Page 269
                                                              C:\Users\Fengyuan\AppData\Local\Temp\gh_0000kos1.s
000030ea 6e616843 
000030ee 4e6c656e 
000030f2 7355746f 
000030f6 43206465 
000030fa 4e5f4e41 
000030fe 41435f4f 
00003102 4346494e 
00003106 4e4e4148 
0000310a 44494c45 
0000310e 00 
0000310f 01        12177 	.data.b	1
00003110 01e4      12178 	.data.b	228,1
00003112 5f4e4143  12179 	.data.b	67,65,78,95,78,79,78,69,32,48,117,0
00003116 454e4f4e 
0000311a 00753020 
0000311e 01        12180 	.data.b	1
0000311f 01e6      12181 	.data.b	230,1
00003121 5f4e4143  12182 	.data.b	67,65,78,95,78,79,84,73,70,89,95,73,83,83,85,69,32,49,117,0
00003125 49544f4e 
00003129 495f5946 
0000312d 45555353 
00003131 00753120 
00003135 01        12183 	.data.b	1
00003136 01e7      12184 	.data.b	231,1
00003138 5f4e4143  12185 	.data.b	67,65,78,95,78,79,84,73,70,89,95,77,65,73,76,66,79,88,32,50,117,0
0000313c 49544f4e 
00003140 4d5f5946 
00003144 424c4941 
00003148 3220584f 
0000314c 0075 
0000314e 01        12186 	.data.b	1
0000314f 01e8      12187 	.data.b	232,1
00003151 5f4e4143  12188 	.data.b	67,65,78,95,69,88,84,69,78,68,69,68,32,51,117,0
00003155 45545845 
00003159 4445444e 
0000315d 00753320 
00003161 01        12189 	.data.b	1
00003162 01ea      12190 	.data.b	234,1
00003164 5f4e4143  12191 	.data.b	67,65,78,95,68,82,73,86,69,82,32,49,117,0
00003168 56495244 
0000316c 31205245 
00003170 0075 
00003172 01        12192 	.data.b	1
00003173 01eb      12193 	.data.b	235,1
00003175 5f4e4143  12194 	.data.b	67,65,78,95,65,80,80,76,32,50,117,0
00003179 4c505041 
0000317d 00753220 
00003181 01        12195 	.data.b	1
00003182 01ec      12196 	.data.b	236,1
00003184 5f4e4143  12197 	.data.b	67,65,78,95,66,79,84,72,32,51,117,0
00003188 48544f42 
0000318c 00753320 
00003190 01        12198 	.data.b	1
00003191 01ee      12199 	.data.b	238,1
00003193 5f4e4143  12200 	.data.b	67,65,78,95,77,83,82,51,48,32,51,48,117,0
00003197 3352534d 
0000319b 30332030 
0000319f 0075 
000031a1 01        12201 	.data.b	1
000031a2 01ef      12202 	.data.b	239,1
000031a4 5f4e4143  12203 	.data.b	67,65,78,95,77,83,82,52,48,32,52,48,117,0

                                                                      Page 270
                                                              C:\Users\Fengyuan\AppData\Local\Temp\gh_0000kos1.s
000031a8 3452534d 
000031ac 30342030 
000031b0 0075 
000031b2 01        12204 	.data.b	1
000031b3 01f0      12205 	.data.b	240,1
000031b5 5f4e4143  12206 	.data.b	67,65,78,95,77,83,82,52,48,51,32,52,48,51,117,0
000031b9 3452534d 
000031bd 34203330 
000031c1 00753330 
000031c5 01        12207 	.data.b	1
000031c6 01f2      12208 	.data.b	242,1
000031c8 5f4e4143  12209 	.data.b	67,65,78,95,68,69,84,32,49,117,0
000031cc 20544544 
000031d0 007531 
000031d3 01        12210 	.data.b	1
000031d4 01f4      12211 	.data.b	244,1
000031d6 5f4e4143  12212 	.data.b	67,65,78,95,66,82,83,32,49,117,0
000031da 20535242 
000031de 007531 
000031e1 01        12213 	.data.b	1
000031e2 01f5      12214 	.data.b	245,1
000031e4 5f4e4143  12215 	.data.b	67,65,78,95,70,85,76,76,32,50,117,0
000031e8 4c4c5546 
000031ec 00753220 
000031f0 01        12216 	.data.b	1
000031f1 01fb      12217 	.data.b	251,1
000031f3 5f4e4143  12218 	.data.b	67,65,78,95,65,80,73,50,32,50,117,0
000031f7 32495041 
000031fb 00753220 
000031ff 01        12219 	.data.b	1
00003200 0285      12220 	.data.b	133,2
00003202 5f4e4143  12221 	.data.b	67,65,78,95,86,69,82,83,73,79,78,95,73,78,70,79,95,65,80,73,32,83,84,68,95,79,70,70,0
00003206 53524556 
0000320a 5f4e4f49 
0000320e 4f464e49 
00003212 4950415f 
00003216 44545320 
0000321a 46464f5f 
0000321e 00 
0000321f 01        12222 	.data.b	1
00003220 0287      12223 	.data.b	135,2
00003222 5f4e4143  12224 	.data.b	67,65,78,95,68,69,86,95,69,82,82,79,82,95,82,69,80,79,82,84,32,83,84,68,95,79,78,0
00003226 5f564544 
0000322a 4f525245 
0000322e 45525f52 
00003232 54524f50 
00003236 44545320 
0000323a 004e4f5f 
0000323e 01        12225 	.data.b	1
0000323f 0289      12226 	.data.b	137,2
00003241 5f4e4143  12227 	.data.b	67,65,78,95,68,69,86,95,84,73,77,69,79,85,84,95,68,69,84,69,67,84,32,83,84,68,95,79,70,70,0
00003245 5f564544 
00003249 454d4954 
0000324d 5f54554f 
00003251 45544544 
00003255 53205443 
00003259 4f5f4454 
0000325d 004646 
00003260 01        12228 	.data.b	1
00003261 028d      12229 	.data.b	141,2
00003263 5f4e4143  12230 	.data.b	67,65,78,95,84,88,95,80,82,79,67,69,83,83,73,78,71,32,67,65,78,95,73,78,84,69,82,82,85,80,84,0

                                                                      Page 271
                                                              C:\Users\Fengyuan\AppData\Local\Temp\gh_0000kos1.s
00003267 505f5854 
0000326b 45434f52 
0000326f 4e495353 
00003273 41432047 
00003277 4e495f4e 
0000327b 52524554 
0000327f 00545055 
00003283 01        12231 	.data.b	1
00003284 028e      12232 	.data.b	142,2
00003286 5f4e4143  12233 	.data.b	67,65,78,95,82,88,95,80,82,79,67,69,83,83,73,78,71,32,67,65,78,95,73,78,84,69,82,82,85,80,84,0
0000328a 505f5852 
0000328e 45434f52 
00003292 4e495353 
00003296 41432047 
0000329a 4e495f4e 
0000329e 52524554 
000032a2 00545055 
000032a6 01        12234 	.data.b	1
000032a7 028f      12235 	.data.b	143,2
000032a9 5f4e4143  12236 	.data.b	67,65,78,95,66,85,83,79,70,70,95,80,82,79,67,69,83,83,73,78,71,32,67,65,78,95,73,78,84,69,82,82,85,80,84,0
000032ad 4f535542 
000032b1 505f4646 
000032b5 45434f52 
000032b9 4e495353 
000032bd 41432047 
000032c1 4e495f4e 
000032c5 52524554 
000032c9 00545055 
000032cd 01        12237 	.data.b	1
000032ce 0290      12238 	.data.b	144,2
000032d0 5f4e4143  12239 	.data.b	67,65,78,95,87,65,75,69,85,80,95,80,82,79,67,69,83,83,73,78,71,32,67,65,78,95,73,78,84,69,82,82,85,80,84,0
000032d4 454b4157 
000032d8 505f5055 
000032dc 45434f52 
000032e0 4e495353 
000032e4 41432047 
000032e8 4e495f4e 
000032ec 52524554 
000032f0 00545055 
000032f4 01        12240 	.data.b	1
000032f5 0291      12241 	.data.b	145,2
000032f7 5f4e4143  12242 	.data.b	67,65,78,95,73,78,68,73,86,73,68,85,65,76,95,80,82,79,67,69,83,83,73,78,71,32,83,84,68,95,79,70,70,0
000032fb 49444e49 
000032ff 55444956 
00003303 505f4c41 
00003307 45434f52 
0000330b 4e495353 
0000330f 54532047 
00003313 464f5f44 
00003317 0046 
00003319 01        12243 	.data.b	1
0000331a 0294      12244 	.data.b	148,2
0000331c 4e455f43  12245 	.data.b	67,95,69,78,65,66,76,69,95,79,83,69,75,95,79,83,95,73,78,84,67,65,84,50,32,0
00003320 454c4241 
00003324 45534f5f 
00003328 534f5f4b 
0000332c 544e495f 
00003330 32544143 
00003334 0020 
00003336 01        12246 	.data.b	1
00003337 0296      12247 	.data.b	150,2

                                                                      Page 272
                                                              C:\Users\Fengyuan\AppData\Local\Temp\gh_0000kos1.s
00003339 5f4e4143  12248 	.data.b	67,65,78,95,73,78,84,76,79,67,75,32,67,65,78,95,68,82,73,86,69,82,0
0000333d 4c544e49 
00003341 204b434f 
00003345 5f4e4143 
00003349 56495244 
0000334d 005245 
00003350 01        12249 	.data.b	1
00003351 029c      12250 	.data.b	156,2
00003353 5f4e4143  12251 	.data.b	67,65,78,95,77,85,76,84,73,80,76,69,88,69,68,95,84,82,65,78,83,77,73,83,83,73,79,78,32,83,84,68,95,79,70,70,0
00003357 544c554d 
0000335b 454c5049 
0000335f 5f444558 
00003363 4e415254 
00003367 53494d53 
0000336b 4e4f4953 
0000336f 44545320 
00003373 46464f5f 
00003377 00 
00003378 01        12252 	.data.b	1
00003379 029d      12253 	.data.b	157,2
0000337b 5f4e4143  12254 	.data.b	67,65,78,95,72,87,95,84,82,65,78,83,77,73,84,95,67,65,78,67,69,76,76,65,84,73,79,78,32,83,84,68,95,79,70,70,0
0000337f 545f5748 
00003383 534e4152 
00003387 5f54494d 
0000338b 434e4143 
0000338f 414c4c45 
00003393 4e4f4954 
00003397 44545320 
0000339b 46464f5f 
0000339f 00 
000033a0 01        12255 	.data.b	1
000033a1 029f      12256 	.data.b	159,2
000033a3 5f4e4143  12257 	.data.b	67,65,78,95,77,85,76,84,73,80,76,69,95,66,65,83,73,67,67,65,78,95,84,88,32,83,84,68,95,79,70,70,0
000033a7 544c554d 
000033ab 454c5049 
000033af 5341425f 
000033b3 41434349 
000033b7 58545f4e 
000033bb 44545320 
000033bf 46464f5f 
000033c3 00 
000033c4 01        12258 	.data.b	1
000033c5 02a2      12259 	.data.b	162,2
000033c7 5f4e4143  12260 	.data.b	67,65,78,95,77,85,76,84,73,80,76,69,95,66,65,83,73,67,67,65,78,32,83,84,68,95,79,70,70,0
000033cb 544c554d 
000033cf 454c5049 
000033d3 5341425f 
000033d7 41434349 
000033db 5453204e 
000033df 464f5f44 
000033e3 0046 
000033e5 01        12261 	.data.b	1
000033e6 02a3      12262 	.data.b	163,2
000033e8 5f4e4143  12263 	.data.b	67,65,78,95,82,88,95,81,85,69,85,69,32,83,84,68,95,79,70,70,0
000033ec 515f5852 
000033f0 45554555 
000033f4 44545320 
000033f8 46464f5f 
000033fc 00 
000033fd 01        12264 	.data.b	1
000033fe 02a4      12265 	.data.b	164,2

                                                                      Page 273
                                                              C:\Users\Fengyuan\AppData\Local\Temp\gh_0000kos1.s
00003400 5f4e4143  12266 	.data.b	67,65,78,95,79,86,69,82,82,85,78,95,78,79,84,73,70,73,67,65,84,73,79,78,32,67,65,78,95,68,69,84,0
00003404 5245564f 
00003408 5f4e5552 
0000340c 49544f4e 
00003410 41434946 
00003414 4e4f4954 
00003418 4e414320 
0000341c 5445445f 
00003420 00 
00003421 01        12267 	.data.b	1
00003422 02a7      12268 	.data.b	167,2
00003424 5f4e4143  12269 	.data.b	67,65,78,95,83,76,69,69,80,95,83,85,80,80,79,82,84,32,83,84,68,95,79,70,70,0
00003428 45454c53 
0000342c 55535f50 
00003430 524f5050 
00003434 54532054 
00003438 464f5f44 
0000343c 0046 
0000343e 01        12270 	.data.b	1
0000343f 02ab      12271 	.data.b	171,2
00003441 5f4e4143  12272 	.data.b	67,65,78,95,72,65,82,68,87,65,82,69,95,67,65,78,67,69,76,76,65,84,73,79,78,32,83,84,68,95,79,70,70,0
00003445 44524148 
00003449 45524157 
0000344d 4e41435f 
00003451 4c4c4543 
00003455 4f495441 
00003459 5453204e 
0000345d 464f5f44 
00003461 0046 
00003463 01        12273 	.data.b	1
00003464 02ad      12274 	.data.b	173,2
00003466 5f4e4143  12275 	.data.b	67,65,78,95,76,79,79,80,95,77,65,88,32,53,117,0
0000346a 504f4f4c 
0000346e 58414d5f 
00003472 00753520 
00003476 01        12276 	.data.b	1
00003477 02b0      12277 	.data.b	176,2
00003479 5f4e4143  12278 	.data.b	67,65,78,95,69,88,84,69,78,68,69,68,95,83,84,65,84,69,95,77,65,67,72,73,78,69,32,83,84,68,95,79,70,70,0
0000347d 45545845 
00003481 4445444e 
00003485 4154535f 
00003489 4d5f4554 
0000348d 49484341 
00003491 5320454e 
00003495 4f5f4454 
00003499 004646 
0000349c 01        12279 	.data.b	1
0000349d 02b1      12280 	.data.b	177,2
0000349f 5f4e4143  12281 	.data.b	67,65,78,95,66,85,83,79,70,70,95,83,85,80,80,79,82,84,95,65,80,73,32,83,84,68,95,79,70,70,0
000034a3 4f535542 
000034a7 535f4646 
000034ab 4f505055 
000034af 415f5452 
000034b3 53204950 
000034b7 4f5f4454 
000034bb 004646 
000034be 01        12282 	.data.b	1
000034bf 02b2      12283 	.data.b	178,2
000034c1 5f4e4143  12284 	.data.b	67,65,78,95,72,87,95,76,79,79,80,95,83,85,80,80,79,82,84,95,65,80,73,32,83,84,68,95,79,70,70,0
000034c5 4c5f5748 
000034c9 5f504f4f 

                                                                      Page 274
                                                              C:\Users\Fengyuan\AppData\Local\Temp\gh_0000kos1.s
000034cd 50505553 
000034d1 5f54524f 
000034d5 20495041 
000034d9 5f445453 
000034dd 0046464f 
000034e1 01        12285 	.data.b	1
000034e2 02b3      12286 	.data.b	179,2
000034e4 5f4e4143  12287 	.data.b	67,65,78,95,71,69,78,69,82,73,67,95,80,82,69,67,79,80,89,32,83,84,68,95,79,70,70,0
000034e8 454e4547 
000034ec 5f434952 
000034f0 43455250 
000034f4 2059504f 
000034f8 5f445453 
000034fc 0046464f 
00003500 01        12288 	.data.b	1
00003501 02b4      12289 	.data.b	180,2
00003503 5f4e4143  12290 	.data.b	67,65,78,95,71,69,78,69,82,73,67,95,67,79,78,70,73,82,77,65,84,73,79,78,32,83,84,68,95,79,70,70,0
00003507 454e4547 
0000350b 5f434952 
0000350f 464e4f43 
00003513 414d5249 
00003517 4e4f4954 
0000351b 44545320 
0000351f 46464f5f 
00003523 00 
00003524 01        12291 	.data.b	1
00003525 02b5      12292 	.data.b	181,2
00003527 5f4e4143  12293 	.data.b	67,65,78,95,71,69,78,69,82,73,67,95,80,82,69,84,82,65,78,83,77,73,84,32,83,84,68,95,79,70,70,0
0000352b 454e4547 
0000352f 5f434952 
00003533 54455250 
00003537 534e4152 
0000353b 2054494d 
0000353f 5f445453 
00003543 0046464f 
00003547 01        12294 	.data.b	1
00003548 02b6      12295 	.data.b	182,2
0000354a 5f4e4143  12296 	.data.b	67,65,78,95,85,83,69,95,79,83,95,73,78,84,69,82,82,85,80,84,95,67,79,78,84,82,79,76,32,83,84,68,95,79,78,0
0000354e 5f455355 
00003552 495f534f 
00003556 5245544e 
0000355a 54505552 
0000355e 4e4f435f 
00003562 4c4f5254 
00003566 44545320 
0000356a 004e4f5f 
0000356e 01        12297 	.data.b	1
0000356f 02b9      12298 	.data.b	185,2
00003571 5f4e4143  12299 	.data.b	67,65,78,95,82,88,95,70,85,76,76,67,65,78,95,79,66,74,69,67,84,83,32,83,84,68,95,79,70,70,0
00003575 465f5852 
00003579 434c4c55 
0000357d 4f5f4e41 
00003581 43454a42 
00003585 53205354 
00003589 4f5f4454 
0000358d 004646 
00003590 01        12300 	.data.b	1
00003591 02ba      12301 	.data.b	186,2
00003593 5f4e4143  12302 	.data.b	67,65,78,95,84,88,95,70,85,76,76,67,65,78,95,79,66,74,69,67,84,83,32,83,84,68,95,79,70,70,0
00003597 465f5854 
0000359b 434c4c55 

                                                                      Page 275
                                                              C:\Users\Fengyuan\AppData\Local\Temp\gh_0000kos1.s
0000359f 4f5f4e41 
000035a3 43454a42 
000035a7 53205354 
000035ab 4f5f4454 
000035af 004646 
000035b2 01        12303 	.data.b	1
000035b3 02bb      12304 	.data.b	187,2
000035b5 5f4e4143  12305 	.data.b	67,65,78,95,82,88,95,66,65,83,73,67,67,65,78,95,79,66,74,69,67,84,83,32,83,84,68,95,79,78,0
000035b9 425f5852 
000035bd 43495341 
000035c1 5f4e4143 
000035c5 454a424f 
000035c9 20535443 
000035cd 5f445453 
000035d1 004e4f 
000035d4 01        12306 	.data.b	1
000035d5 02bc      12307 	.data.b	188,2
000035d7 5f4e4143  12308 	.data.b	67,65,78,95,69,88,84,69,78,68,69,68,95,73,68,32,83,84,68,95,79,70,70,0
000035db 45545845 
000035df 4445444e 
000035e3 2044495f 
000035e7 5f445453 
000035eb 0046464f 
000035ef 01        12309 	.data.b	1
000035f0 02bd      12310 	.data.b	189,2
000035f2 5f4e4143  12311 	.data.b	67,65,78,95,77,73,88,69,68,95,73,68,32,83,84,68,95,79,70,70,0
000035f6 4558494d 
000035fa 44495f44 
000035fe 44545320 
00003602 46464f5f 
00003606 00 
00003607 01        12312 	.data.b	1
00003608 02be      12313 	.data.b	190,2
0000360a 5f4e4143  12314 	.data.b	67,65,78,95,79,78,69,95,67,79,78,84,82,79,76,76,69,82,95,79,80,84,73,77,73,90,65,84,73,79,78,32,83,84,68,95,79,78,0
0000360e 5f454e4f 
00003612 544e4f43 
00003616 4c4c4f52 
0000361a 4f5f5245 
0000361e 4d495450 
00003622 54415a49 
00003626 204e4f49 
0000362a 5f445453 
0000362e 004e4f 
00003631 01        12315 	.data.b	1
00003632 02bf      12316 	.data.b	191,2
00003634 5f4e4143  12317 	.data.b	67,65,78,95,68,89,78,65,77,73,67,95,70,85,76,76,67,65,78,95,73,68,32,83,84,68,95,79,78,0
00003638 414e5944 
0000363c 5f43494d 
00003640 4c4c5546 
00003644 5f4e4143 
00003648 53204449 
0000364c 4f5f4454 
00003650 004e 
00003652 01        12318 	.data.b	1
00003653 02c0      12319 	.data.b	192,2
00003655 5f4e4143  12320 	.data.b	67,65,78,95,83,69,67,85,82,69,95,84,69,77,80,95,66,85,70,70,69,82,32,83,84,68,95,79,70,70,0
00003659 55434553 
0000365d 545f4552 
00003661 5f504d45 
00003665 46465542 
00003669 53205245 

                                                                      Page 276
                                                              C:\Users\Fengyuan\AppData\Local\Temp\gh_0000kos1.s
0000366d 4f5f4454 
00003671 004646 
00003674 01        12321 	.data.b	1
00003675 02c2      12322 	.data.b	194,2
00003677 5f4e4143  12323 	.data.b	67,65,78,95,67,72,65,78,71,69,95,66,65,85,68,82,65,84,69,95,65,80,73,32,83,84,68,95,79,70,70,0
0000367b 4e414843 
0000367f 425f4547 
00003683 52445541 
00003687 5f455441 
0000368b 20495041 
0000368f 5f445453 
00003693 0046464f 
00003697 01        12324 	.data.b	1
00003698 02c5      12325 	.data.b	197,2
0000369a 5f4e4143  12326 	.data.b	67,65,78,95,83,69,84,95,66,65,85,68,82,65,84,69,95,65,80,73,32,83,84,68,95,79,70,70,0
0000369e 5f544553 
000036a2 44554142 
000036a6 45544152 
000036aa 4950415f 
000036ae 44545320 
000036b2 46464f5f 
000036b6 00 
000036b7 01        12327 	.data.b	1
000036b8 02c6      12328 	.data.b	198,2
000036ba 5f4e4143  12329 	.data.b	67,65,78,95,70,68,95,83,85,80,80,79,82,84,32,67,65,78,95,78,79,78,69,0
000036be 535f4446 
000036c2 4f505055 
000036c6 43205452 
000036ca 4e5f4e41 
000036ce 00454e4f 
000036d2 01        12330 	.data.b	1
000036d3 02c9      12331 	.data.b	201,2
000036d5 5f4e4143  12332 	.data.b	67,65,78,95,77,85,76,84,73,95,69,67,85,95,67,79,78,70,73,71,32,83,84,68,95,79,70,70,0
000036d9 544c554d 
000036dd 43455f49 
000036e1 4f435f55 
000036e5 4749464e 
000036e9 44545320 
000036ed 46464f5f 
000036f1 00 
000036f2 01        12333 	.data.b	1
000036f3 02ca      12334 	.data.b	202,2
000036f5 5f4e4143  12335 	.data.b	67,65,78,95,67,79,77,77,79,78,95,67,65,78,32,83,84,68,95,79,70,70,0
000036f9 4d4d4f43 
000036fd 435f4e4f 
00003701 53204e41 
00003705 4f5f4454 
00003709 004646 
0000370c 01        12336 	.data.b	1
0000370d 02cb      12337 	.data.b	203,2
0000370f 5f4e4143  12338 	.data.b	67,65,78,95,80,65,82,84,73,65,76,95,78,69,84,87,79,82,75,32,83,84,68,95,79,70,70,0
00003713 54524150 
00003717 5f4c4149 
0000371b 5754454e 
0000371f 204b524f 
00003723 5f445453 
00003727 0046464f 
0000372b 01        12339 	.data.b	1
0000372c 02cc      12340 	.data.b	204,2
0000372e 5f4e4143  12341 	.data.b	67,65,78,95,82,65,77,95,67,72,69,67,75,32,67,65,78,95,78,79,78,69,0
00003732 5f4d4152 

                                                                      Page 277
                                                              C:\Users\Fengyuan\AppData\Local\Temp\gh_0000kos1.s
00003736 43454843 
0000373a 4143204b 
0000373e 4f4e5f4e 
00003742 00454e 
00003745 01        12342 	.data.b	1
00003746 02ce      12343 	.data.b	206,2
00003748 5f4e4143  12344 	.data.b	67,65,78,95,71,69,84,95,83,84,65,84,85,83,32,83,84,68,95,79,70,70,0
0000374c 5f544547 
00003750 54415453 
00003754 53205355 
00003758 4f5f4454 
0000375c 004646 
0000375f 01        12345 	.data.b	1
00003760 02d1      12346 	.data.b	209,2
00003762 5f4e4143  12347 	.data.b	67,65,78,95,77,73,82,82,79,82,95,77,79,68,69,32,83,84,68,95,79,70,70,0
00003766 5252494d 
0000376a 4d5f524f 
0000376e 2045444f 
00003772 5f445453 
00003776 0046464f 
0000377a 01        12348 	.data.b	1
0000377b 02d2      12349 	.data.b	210,2
0000377d 5f4e4143  12350 	.data.b	67,65,78,95,83,73,76,69,78,84,95,77,79,68,69,32,83,84,68,95,79,70,70,0
00003781 454c4953 
00003785 4d5f544e 
00003789 2045444f 
0000378d 5f445453 
00003791 0046464f 
00003795 01        12351 	.data.b	1
00003796 06c4      12352 	.data.b	196,6
00003798 5f4e4143  12353 	.data.b	67,65,78,95,85,83,69,95,69,67,85,77,95,66,83,87,95,69,82,82,79,82,95,72,79,79,75,32,83,84,68,95,79,70,70,0
0000379c 5f455355 
000037a0 4d554345 
000037a4 5753425f 
000037a8 5252455f 
000037ac 485f524f 
000037b0 204b4f4f 
000037b4 5f445453 
000037b8 0046464f 
000037bc 01        12354 	.data.b	1
000037bd 06c5      12355 	.data.b	197,6
000037bf 5f4e4143  12356 	.data.b	67,65,78,95,85,83,69,95,73,78,73,84,95,80,79,73,78,84,69,82,32,83,84,68,95,79,70,70,0
000037c3 5f455355 
000037c7 54494e49 
000037cb 494f505f 
000037cf 5245544e 
000037d3 44545320 
000037d7 46464f5f 
000037db 00 
000037dc 03        12357 	.data.b	3
000037dd 0ce8      12358 	.data.b	232,12
000037df 10        12359 	.data.b	16
000037e0 04        12360 	.data.b	4
000037e1 03        12361 	.data.b	3
000037e2 0ced      12362 	.data.b	237,12
000037e4 10        12363 	.data.b	16
000037e5 04        12364 	.data.b	4
000037e6 03        12365 	.data.b	3
000037e7 0d96      12366 	.data.b	150,13
000037e9 10        12367 	.data.b	16
000037ea 04        12368 	.data.b	4

                                                                      Page 278
                                                              C:\Users\Fengyuan\AppData\Local\Temp\gh_0000kos1.s
000037eb 03        12369 	.data.b	3
000037ec 0d9b      12370 	.data.b	155,13
000037ee 10        12371 	.data.b	16
000037ef 04        12372 	.data.b	4
000037f0 03        12373 	.data.b	3
000037f1 0dab      12374 	.data.b	171,13
000037f3 10        12375 	.data.b	16
000037f4 04        12376 	.data.b	4
000037f5 03        12377 	.data.b	3
000037f6 0db0      12378 	.data.b	176,13
000037f8 10        12379 	.data.b	16
000037f9 04        12380 	.data.b	4
000037fa 03        12381 	.data.b	3
000037fb 0dbc      12382 	.data.b	188,13
000037fd 10        12383 	.data.b	16
000037fe 04        12384 	.data.b	4
000037ff 03        12385 	.data.b	3
00003800 0dc1      12386 	.data.b	193,13
00003802 10        12387 	.data.b	16
00003803 04        12388 	.data.b	4
00003804 03        12389 	.data.b	3
00003805 0dd1      12390 	.data.b	209,13
00003807 10        12391 	.data.b	16
00003808 04        12392 	.data.b	4
00003809 03        12393 	.data.b	3
0000380a 0dd6      12394 	.data.b	214,13
0000380c 10        12395 	.data.b	16
0000380d 04        12396 	.data.b	4
0000380e 03        12397 	.data.b	3
0000380f 0de2      12398 	.data.b	226,13
00003811 10        12399 	.data.b	16
00003812 04        12400 	.data.b	4
00003813 03        12401 	.data.b	3
00003814 0de7      12402 	.data.b	231,13
00003816 10        12403 	.data.b	16
00003817 04        12404 	.data.b	4
00003818 03        12405 	.data.b	3
00003819 0df3      12406 	.data.b	243,13
0000381b 10        12407 	.data.b	16
0000381c 04        12408 	.data.b	4
0000381d 03        12409 	.data.b	3
0000381e 0df8      12410 	.data.b	248,13
00003820 10        12411 	.data.b	16
00003821 04        12412 	.data.b	4
00003822 03        12413 	.data.b	3
00003823 0e8c      12414 	.data.b	140,14
00003825 10        12415 	.data.b	16
00003826 04        12416 	.data.b	4
00003827 03        12417 	.data.b	3
00003828 0e91      12418 	.data.b	145,14
0000382a 10        12419 	.data.b	16
0000382b 04        12420 	.data.b	4
0000382c 03        12421 	.data.b	3
0000382d 0e9d      12422 	.data.b	157,14
0000382f 10        12423 	.data.b	16
00003830 04        12424 	.data.b	4
00003831 03        12425 	.data.b	3
00003832 0ea2      12426 	.data.b	162,14
00003834 10        12427 	.data.b	16
00003835 04        12428 	.data.b	4
00003836 03        12429 	.data.b	3

                                                                      Page 279
                                                              C:\Users\Fengyuan\AppData\Local\Temp\gh_0000kos1.s
00003837 0eb2      12430 	.data.b	178,14
00003839 10        12431 	.data.b	16
0000383a 04        12432 	.data.b	4
0000383b 03        12433 	.data.b	3
0000383c 0eb7      12434 	.data.b	183,14
0000383e 10        12435 	.data.b	16
0000383f 04        12436 	.data.b	4
00003840 03        12437 	.data.b	3
00003841 0ecf      12438 	.data.b	207,14
00003843 10        12439 	.data.b	16
00003844 04        12440 	.data.b	4
00003845 03        12441 	.data.b	3
00003846 0ed4      12442 	.data.b	212,14
00003848 10        12443 	.data.b	16
00003849 04        12444 	.data.b	4
0000384a 04        12445 	.data.b	4
0000384b 01        12446 	.data.b	1
0000384c 0487      12447 	.data.b	135,4
0000384e 5f4e4143  12448 	.data.b	67,65,78,95,69,78,65,66,76,69,95,77,73,67,82,79,83,65,82,95,86,69,82,83,73,79,78,95,77,83,82,52,48,51,32,0
00003852 42414e45 
00003856 4d5f454c 
0000385a 4f524349 
0000385e 5f524153 
00003862 53524556 
00003866 5f4e4f49 
0000386a 3452534d 
0000386e 00203330 
00003872 01        12449 	.data.b	1
00003873 0488      12450 	.data.b	136,4
00003875 5f4e4143  12451 	.data.b	67,65,78,95,69,78,65,66,76,69,95,77,73,67,82,79,83,65,82,95,86,69,82,83,73,79,78,95,77,83,82,52,48,88,32,0
00003879 42414e45 
0000387d 4d5f454c 
00003881 4f524349 
00003885 5f524153 
00003889 53524556 
0000388d 5f4e4f49 
00003891 3452534d 
00003895 00205830 
00003899 01        12452 	.data.b	1
0000389a 05bc      12453 	.data.b	188,5
0000389c 4e455f43  12454 	.data.b	67,95,69,78,65,66,76,69,95,79,83,69,75,95,79,83,32,0
000038a0 454c4241 
000038a4 45534f5f 
000038a8 534f5f4b 
000038ac 0020 
000038ae 01        12455 	.data.b	1
000038af 05e4      12456 	.data.b	228,5
000038b1 4e455f43  12457 	.data.b	67,95,69,78,65,66,76,69,95,82,88,95,66,65,83,73,67,67,65,78,95,79,66,74,69,67,84,83,32,0
000038b5 454c4241 
000038b9 5f58525f 
000038bd 49534142 
000038c1 4e414343 
000038c5 4a424f5f 
000038c9 53544345 
000038cd 0020 
000038cf 01        12458 	.data.b	1
000038d0 06bf      12459 	.data.b	191,6
000038d2 49535f43  12460 	.data.b	67,95,83,73,78,71,76,69,95,82,69,67,69,73,86,69,95,67,72,65,78,78,69,76,32,0
000038d6 454c474e 
000038da 4345525f 
000038de 45564945 

                                                                      Page 280
                                                              C:\Users\Fengyuan\AppData\Local\Temp\gh_0000kos1.s
000038e2 4148435f 
000038e6 4c454e4e 
000038ea 0020 
000038ec 01        12461 	.data.b	1
000038ed 06c6      12462 	.data.b	198,6
000038ef 5f4e4143  12463 	.data.b	67,65,78,95,72,87,95,67,72,65,78,78,69,76,95,67,65,78,84,89,80,69,95,79,78,76,89,32,118,111,105,100,0
000038f3 435f5748 
000038f7 4e4e4148 
000038fb 435f4c45 
000038ff 59544e41 
00003903 4f5f4550 
00003907 20594c4e 
0000390b 64696f76 
0000390f 00 
00003910 01        12464 	.data.b	1
00003911 07d8      12465 	.data.b	216,7
00003913 4f4e5f56  12466 	.data.b	86,95,78,79,78,69,32,0
00003917 0020454e 
0000391b 01        12467 	.data.b	1
0000391c 07ee      12468 	.data.b	238,7
0000391e 45445f56  12469 	.data.b	86,95,68,69,70,95,86,65,82,95,84,89,80,69,40,115,116,111,114,97,103,101,44,118,97,114,116,121,112,101,41,32,116,121,112,101,100,101,102,32,115,116,111,114,97,103,101,32,86,65,82,40,118,97,114,116,121,112,101,44
00003922 41565f46 
00003926 59545f52 
0000392a 73284550 
0000392e 61726f74 
00003932 762c6567 
00003936 79747261 
0000393a 20296570 
0000393e 65707974 
00003942 20666564 
00003946 726f7473 
0000394a 20656761 
0000394e 28524156 
00003952 74726176 
00003956 2c657079 
0000395a 50595420  12470 	.data.b	32,84,89,80,69,68,69,70,41,0
0000395e 46454445 
00003962 0029 
00003964 01        12471 	.data.b	1
00003965 07f0      12472 	.data.b	240,7
00003967 45445f56  12473 	.data.b	86,95,68,69,70,95,80,50,86,65,82,95,84,89,80,69,40,115,116,111,114,97,103,101,44,112,116,114,116,121,112,101,44,112,116,114,99,108,97,115,115,41,32,116,121,112,101,100,101,102,32,115,116,111,114,97,103,101,32,80
0000396b 32505f46 
0000396f 5f524156 
00003973 45505954 
00003977 6f747328 
0000397b 65676172 
0000397f 7274702c 
00003983 65707974 
00003987 7274702c 
0000398b 73616c63 
0000398f 74202973 
00003993 64657079 
00003997 73206665 
0000399b 61726f74 
0000399f 50206567 
000039a3 52415632  12474 	.data.b	50,86,65,82,40,112,116,114,116,121,112,101,44,32,84,89,80,69,68,69,70,44,32,67,65,78,95,32,35,35,32,112,116,114,99,108,97,115,115,32,41,0
000039a7 72747028 
000039ab 65707974 
000039af 5954202c 
000039b3 45444550 
000039b7 43202c46 

                                                                      Page 281
                                                              C:\Users\Fengyuan\AppData\Local\Temp\gh_0000kos1.s
000039bb 205f4e41 
000039bf 70202323 
000039c3 6c637274 
000039c7 20737361 
000039cb 0029 
000039cd 01        12475 	.data.b	1
000039ce 07f3      12476 	.data.b	243,7
000039d0 45445f56  12477 	.data.b	86,95,68,69,70,95,80,50,83,70,82,95,67,65,78,95,84,89,80,69,40,115,116,111,114,97,103,101,44,112,116,114,116,121,112,101,41,32,116,121,112,101,100,101,102,32,115,116,111,114,97,103,101,32,80,50,86,65,82,40
000039d4 32505f46 
000039d8 5f524653 
000039dc 5f4e4143 
000039e0 45505954 
000039e4 6f747328 
000039e8 65676172 
000039ec 7274702c 
000039f0 65707974 
000039f4 79742029 
000039f8 65646570 
000039fc 74732066 
00003a00 6761726f 
00003a04 32502065 
00003a08 28524156 
00003a0c 74727470  12478 	.data.b	112,116,114,116,121,112,101,44,32,84,89,80,69,68,69,70,44,32,67,65,78,95,82,69,71,95,67,65,78,67,69,76,76,41,0
00003a10 2c657079 
00003a14 50595420 
00003a18 46454445 
00003a1c 4143202c 
00003a20 45525f4e 
00003a24 41435f47 
00003a28 4c45434e 
00003a2c 00294c 
00003a2f 01        12479 	.data.b	1
00003a30 07f5      12480 	.data.b	245,7
00003a32 45445f56  12481 	.data.b	86,95,68,69,70,95,67,79,78,83,84,40,115,116,111,114,97,103,101,44,116,121,112,101,44,109,101,109,99,108,97,115,115,41,32,115,116,111,114,97,103,101,32,67,79,78,83,84,40,116,121,112,101,44,32,67,65,78,95,32
00003a36 4f435f46 
00003a3a 2854534e 
00003a3e 726f7473 
00003a42 2c656761 
00003a46 65707974 
00003a4a 6d656d2c 
00003a4e 73616c63 
00003a52 73202973 
00003a56 61726f74 
00003a5a 43206567 
00003a5e 54534e4f 
00003a62 70797428 
00003a66 43202c65 
00003a6a 205f4e41 
00003a6e 6d202323  12482 	.data.b	35,35,32,109,101,109,99,108,97,115,115,41,0
00003a72 6c636d65 
00003a76 29737361 
00003a7a 00 
00003a7b 01        12483 	.data.b	1
00003a7c 07f8      12484 	.data.b	248,7
00003a7e 45445f56  12485 	.data.b	86,95,68,69,70,95,80,50,67,79,78,83,84,95,84,89,80,69,40,115,116,111,114,97,103,101,44,112,116,114,116,121,112,101,44,112,116,114,99,108,97,115,115,41,32,116,121,112,101,100,101,102,32,115,116,111,114,97,103,101
00003a82 32505f46 
00003a86 534e4f43 
00003a8a 59545f54 
00003a8e 73284550 
00003a92 61726f74 
00003a96 702c6567 

                                                                      Page 282
                                                              C:\Users\Fengyuan\AppData\Local\Temp\gh_0000kos1.s
00003a9a 79747274 
00003a9e 702c6570 
00003aa2 6c637274 
00003aa6 29737361 
00003aaa 70797420 
00003aae 66656465 
00003ab2 6f747320 
00003ab6 65676172 
00003aba 43325020  12486 	.data.b	32,80,50,67,79,78,83,84,40,112,116,114,116,121,112,101,44,32,84,89,80,69,68,69,70,44,32,67,65,78,95,32,35,35,32,112,116,114,99,108,97,115,115,41,0
00003abe 54534e4f 
00003ac2 72747028 
00003ac6 65707974 
00003aca 5954202c 
00003ace 45444550 
00003ad2 43202c46 
00003ad6 205f4e41 
00003ada 70202323 
00003ade 6c637274 
00003ae2 29737361 
00003ae6 00 
00003ae7 01        12487 	.data.b	1
00003ae8 07fc      12488 	.data.b	252,7
00003aea 45445f56  12489 	.data.b	86,95,68,69,70,95,70,85,78,67,40,115,116,111,114,97,103,101,44,114,101,116,116,121,112,101,44,109,101,109,99,108,97,115,115,41,32,115,116,111,114,97,103,101,32,70,85,78,67,40,114,101,116,116,121,112,101,44,32,67
00003aee 55465f46 
00003af2 7328434e 
00003af6 61726f74 
00003afa 722c6567 
00003afe 79747465 
00003b02 6d2c6570 
00003b06 6c636d65 
00003b0a 29737361 
00003b0e 6f747320 
00003b12 65676172 
00003b16 4e554620 
00003b1a 65722843 
00003b1e 70797474 
00003b22 43202c65 
00003b26 205f4e41  12490 	.data.b	65,78,95,32,35,35,32,109,101,109,99,108,97,115,115,41,0
00003b2a 6d202323 
00003b2e 6c636d65 
00003b32 29737361 
00003b36 00 
00003b37 01        12491 	.data.b	1
00003b38 07fd      12492 	.data.b	253,7
00003b3a 45445f56  12493 	.data.b	86,95,68,69,70,95,70,85,78,67,95,65,80,73,40,115,116,111,114,97,103,101,44,114,101,116,116,121,112,101,44,109,101,109,99,108,97,115,115,41,32,115,116,111,114,97,103,101,32,70,85,78,67,40,114,101,116,116,121,112
00003b3e 55465f46 
00003b42 415f434e 
00003b46 73284950 
00003b4a 61726f74 
00003b4e 722c6567 
00003b52 79747465 
00003b56 6d2c6570 
00003b5a 6c636d65 
00003b5e 29737361 
00003b62 6f747320 
00003b66 65676172 
00003b6a 4e554620 
00003b6e 65722843 
00003b72 70797474 
00003b76 43202c65  12494 	.data.b	101,44,32,67,65,78,95,32,35,35,32,109,101,109,99,108,97,115,115,41,0
00003b7a 205f4e41 

                                                                      Page 283
                                                              C:\Users\Fengyuan\AppData\Local\Temp\gh_0000kos1.s
00003b7e 6d202323 
00003b82 6c636d65 
00003b86 29737361 
00003b8a 00 
00003b8b 01        12495 	.data.b	1
00003b8c 0883      12496 	.data.b	131,8
00003b8e 5f4e4143  12497 	.data.b	67,65,78,95,72,76,95,78,79,95,86,95,68,69,70,32,0
00003b92 4e5f4c48 
00003b96 5f565f4f 
00003b9a 20464544 
00003b9e 00 
00003b9f 01        12498 	.data.b	1
00003ba0 0884      12499 	.data.b	132,8
00003ba2 6e697576  12500 	.data.b	118,117,105,110,116,56,32,117,105,110,116,56,0
00003ba6 75203874 
00003baa 38746e69 
00003bae 00 
00003baf 01        12501 	.data.b	1
00003bb0 0887      12502 	.data.b	135,8
00003bb2 6e697376  12503 	.data.b	118,115,105,110,116,56,32,115,105,110,116,56,0
00003bb6 73203874 
00003bba 38746e69 
00003bbe 00 
00003bbf 01        12504 	.data.b	1
00003bc0 088a      12505 	.data.b	138,8
00003bc2 6e697576  12506 	.data.b	118,117,105,110,116,49,54,32,117,105,110,116,49,54,0
00003bc6 20363174 
00003bca 746e6975 
00003bce 003631 
00003bd1 01        12507 	.data.b	1
00003bd2 088d      12508 	.data.b	141,8
00003bd4 6e697376  12509 	.data.b	118,115,105,110,116,49,54,32,115,105,110,116,49,54,0
00003bd8 20363174 
00003bdc 746e6973 
00003be0 003631 
00003be3 01        12510 	.data.b	1
00003be4 0890      12511 	.data.b	144,8
00003be6 6e697576  12512 	.data.b	118,117,105,110,116,51,50,32,117,105,110,116,51,50,0
00003bea 20323374 
00003bee 746e6975 
00003bf2 003233 
00003bf5 01        12513 	.data.b	1
00003bf6 0893      12514 	.data.b	147,8
00003bf8 6e697376  12515 	.data.b	118,115,105,110,116,51,50,32,115,105,110,116,51,50,0
00003bfc 20323374 
00003c00 746e6973 
00003c04 003233 
00003c07 01        12516 	.data.b	1
00003c08 08af      12517 	.data.b	175,8
00003c0a 4e455f43  12518 	.data.b	67,95,69,78,65,66,76,69,95,67,65,78,95,66,85,83,79,70,70,95,73,78,84,69,82,82,85,80,84,32,0
00003c0e 454c4241 
00003c12 4e41435f 
00003c16 5355425f 
00003c1a 5f46464f 
00003c1e 45544e49 
00003c22 50555252 
00003c26 002054 
00003c29 01        12519 	.data.b	1
00003c2a 08b5      12520 	.data.b	181,8
00003c2c 4e455f43  12521 	.data.b	67,95,69,78,65,66,76,69,95,67,65,78,95,82,88,84,88,95,73,78,84,69,82,82,85,80,84,32,0
00003c30 454c4241 

                                                                      Page 284
                                                              C:\Users\Fengyuan\AppData\Local\Temp\gh_0000kos1.s
00003c34 4e41435f 
00003c38 5458525f 
00003c3c 4e495f58 
00003c40 52524554 
00003c44 20545055 
00003c48 00 
00003c49 03        12522 	.data.b	3
00003c4a 0bc6      12523 	.data.b	198,11
00003c4c 10        12524 	.data.b	16
00003c4d 04        12525 	.data.b	4
00003c4e 01        12526 	.data.b	1
00003c4f 0fe6      12527 	.data.b	230,15
00003c51 4e455f43  12528 	.data.b	67,95,69,78,65,66,76,69,95,73,83,82,95,80,82,79,84,79,84,89,80,69,32,0
00003c55 454c4241 
00003c59 5253495f 
00003c5d 4f52505f 
00003c61 59544f54 
00003c65 00204550 
00003c69 03        12529 	.data.b	3
00003c6a 1292      12530 	.data.b	146,18
00003c6c 10        12531 	.data.b	16
00003c6d 04        12532 	.data.b	4
00003c6e 03        12533 	.data.b	3
00003c6f 1295      12534 	.data.b	149,18
00003c71 10        12535 	.data.b	16
00003c72 04        12536 	.data.b	4
00003c73 03        12537 	.data.b	3
00003c74 14e5      12538 	.data.b	229,20
00003c76 10        12539 	.data.b	16
00003c77 04        12540 	.data.b	4
00003c78 04        12541 	.data.b	4
00003c79 01        12542 	.data.b	1
00003c7a 48        12543 	.data.b	72
00003c7b 494e4143  12544 	.data.b	67,65,78,73,70,95,83,84,65,84,73,67,95,70,68,95,84,88,81,85,69,85,69,32,83,84,68,95,79,70,70,0
00003c7f 54535f46 
00003c83 43495441 
00003c87 5f44465f 
00003c8b 55515854 
00003c8f 20455545 
00003c93 5f445453 
00003c97 0046464f 
00003c9b 01        12545 	.data.b	1
00003c9c 49        12546 	.data.b	73
00003c9d 494e4143  12547 	.data.b	67,65,78,73,70,95,87,65,75,69,85,80,95,83,85,80,80,79,82,84,32,83,84,68,95,79,70,70,0
00003ca1 41575f46 
00003ca5 5055454b 
00003ca9 5055535f 
00003cad 54524f50 
00003cb1 44545320 
00003cb5 46464f5f 
00003cb9 00 
00003cba 01        12548 	.data.b	1
00003cbb 4a        12549 	.data.b	74
00003cbc 494e4143  12550 	.data.b	67,65,78,73,70,95,87,65,75,69,85,80,95,86,65,76,73,68,65,84,73,79,78,32,83,84,68,95,79,70,70,0
00003cc0 41575f46 
00003cc4 5055454b 
00003cc8 4c41565f 
00003ccc 54414449 
00003cd0 204e4f49 
00003cd4 5f445453 
00003cd8 0046464f 

                                                                      Page 285
                                                              C:\Users\Fengyuan\AppData\Local\Temp\gh_0000kos1.s
00003cdc 01        12551 	.data.b	1
00003cdd 4d        12552 	.data.b	77
00003cde 494e4143  12553 	.data.b	67,65,78,73,70,95,68,69,86,95,69,82,82,79,82,95,68,69,84,69,67,84,32,83,84,68,95,79,78,0
00003ce2 45445f46 
00003ce6 52455f56 
00003cea 5f524f52 
00003cee 45544544 
00003cf2 53205443 
00003cf6 4f5f4454 
00003cfa 004e 
00003cfc 01        12554 	.data.b	1
00003cfd 50        12555 	.data.b	80
00003cfe 494e4143  12556 	.data.b	67,65,78,73,70,95,67,65,78,67,69,76,95,83,85,80,80,79,82,84,95,65,80,73,32,83,84,68,95,79,70,70,0
00003d02 41435f46 
00003d06 4c45434e 
00003d0a 5055535f 
00003d0e 54524f50 
00003d12 4950415f 
00003d16 44545320 
00003d1a 46464f5f 
00003d1e 00 
00003d1f 01        12557 	.data.b	1
00003d20 51        12558 	.data.b	81
00003d21 494e4143  12559 	.data.b	67,65,78,73,70,95,86,69,82,83,73,79,78,95,73,78,70,79,95,65,80,73,32,83,84,68,95,79,70,70,0
00003d25 45565f46 
00003d29 4f495352 
00003d2d 4e495f4e 
00003d31 415f4f46 
00003d35 53204950 
00003d39 4f5f4454 
00003d3d 004646 
00003d40 01        12560 	.data.b	1
00003d41 54        12561 	.data.b	84
00003d42 494e4143  12562 	.data.b	67,65,78,73,70,95,84,82,67,86,95,72,65,78,68,76,73,78,71,32,83,84,68,95,79,70,70,0
00003d46 52545f46 
00003d4a 485f5643 
00003d4e 4c444e41 
00003d52 20474e49 
00003d56 5f445453 
00003d5a 0046464f 
00003d5e 01        12563 	.data.b	1
00003d5f 56        12564 	.data.b	86
00003d60 494e4143  12565 	.data.b	67,65,78,73,70,95,80,78,95,84,82,67,86,95,72,65,78,68,76,73,78,71,32,83,84,68,95,79,70,70,0
00003d64 4e505f46 
00003d68 4352545f 
00003d6c 41485f56 
00003d70 494c444e 
00003d74 5320474e 
00003d78 4f5f4454 
00003d7c 004646 
00003d7f 01        12566 	.data.b	1
00003d80 59        12567 	.data.b	89
00003d81 494e4143  12568 	.data.b	67,65,78,73,70,95,83,69,84,68,89,78,65,77,73,67,84,88,73,68,95,65,80,73,32,83,84,68,95,79,70,70,0
00003d85 45535f46 
00003d89 4e594454 
00003d8d 43494d41 
00003d91 44495854 
00003d95 4950415f 
00003d99 44545320 
00003d9d 46464f5f 
00003da1 00 

                                                                      Page 286
                                                              C:\Users\Fengyuan\AppData\Local\Temp\gh_0000kos1.s
00003da2 01        12569 	.data.b	1
00003da3 5a        12570 	.data.b	90
00003da4 494e4143  12571 	.data.b	67,65,78,73,70,95,80,78,95,87,85,95,84,88,95,80,68,85,95,70,73,76,84,69,82,32,83,84,68,95,79,70,70,0
00003da8 4e505f46 
00003dac 5f55575f 
00003db0 505f5854 
00003db4 465f5544 
00003db8 45544c49 
00003dbc 54532052 
00003dc0 464f5f44 
00003dc4 0046 
00003dc6 01        12572 	.data.b	1
00003dc7 5b        12573 	.data.b	91
00003dc8 494e4143  12574 	.data.b	67,65,78,73,70,95,80,85,66,76,73,67,95,84,88,95,67,79,78,70,73,82,77,95,80,79,76,76,73,78,71,95,83,85,80,80,79,82,84,32,83,84,68,95,79,70,70,0
00003dcc 55505f46 
00003dd0 43494c42 
00003dd4 5f58545f 
00003dd8 464e4f43 
00003ddc 5f4d5249 
00003de0 4c4c4f50 
00003de4 5f474e49 
00003de8 50505553 
00003dec 2054524f 
00003df0 5f445453 
00003df4 0046464f 
00003df8 01        12575 	.data.b	1
00003df9 5e        12576 	.data.b	94
00003dfa 494e4143  12577 	.data.b	67,65,78,73,70,95,67,72,65,78,71,69,95,66,65,85,68,82,65,84,69,95,83,85,80,80,79,82,84,32,83,84,68,95,79,70,70,0
00003dfe 48435f46 
00003e02 45474e41 
00003e06 5541425f 
00003e0a 54415244 
00003e0e 55535f45 
00003e12 524f5050 
00003e16 54532054 
00003e1a 464f5f44 
00003e1e 0046 
00003e20 01        12578 	.data.b	1
00003e21 5f        12579 	.data.b	95
00003e22 494e4143  12580 	.data.b	67,65,78,73,70,95,83,69,84,95,66,65,85,68,82,65,84,69,95,65,80,73,32,83,84,68,95,79,70,70,0
00003e26 45535f46 
00003e2a 41425f54 
00003e2e 41524455 
00003e32 415f4554 
00003e36 53204950 
00003e3a 4f5f4454 
00003e3e 004646 
00003e41 01        12581 	.data.b	1
00003e42 60        12582 	.data.b	96
00003e43 494e4143  12583 	.data.b	67,65,78,73,70,95,77,69,84,65,95,68,65,84,65,95,82,88,95,83,85,80,80,79,82,84,32,83,84,68,95,79,70,70,0
00003e47 454d5f46 
00003e4b 445f4154 
00003e4f 5f415441 
00003e53 535f5852 
00003e57 4f505055 
00003e5b 53205452 
00003e5f 4f5f4454 
00003e63 004646 
00003e66 01        12584 	.data.b	1
00003e67 61        12585 	.data.b	97
00003e68 494e4143  12586 	.data.b	67,65,78,73,70,95,77,69,84,65,95,68,65,84,65,95,84,88,95,83,85,80,80,79,82,84,32,83,84,68,95,79,70,70,0

                                                                      Page 287
                                                              C:\Users\Fengyuan\AppData\Local\Temp\gh_0000kos1.s
00003e6c 454d5f46 
00003e70 445f4154 
00003e74 5f415441 
00003e78 535f5854 
00003e7c 4f505055 
00003e80 53205452 
00003e84 4f5f4454 
00003e88 004646 
00003e8b 01        12587 	.data.b	1
00003e8c 62        12588 	.data.b	98
00003e8d 494e4143  12589 	.data.b	67,65,78,73,70,95,74,49,57,51,57,95,68,89,78,95,65,68,68,82,95,83,85,80,80,79,82,84,32,67,65,78,73,70,95,74,49,57,51,57,95,68,89,78,95,65,68,68,82,95,68,73,83,65,66,76,69,68,0
00003e91 314a5f46 
00003e95 5f393339 
00003e99 5f4e5944 
00003e9d 52444441 
00003ea1 5055535f 
00003ea5 54524f50 
00003ea9 4e414320 
00003ead 4a5f4649 
00003eb1 39333931 
00003eb5 4e59445f 
00003eb9 4444415f 
00003ebd 49445f52 
00003ec1 4c424153 
00003ec5 004445 
00003ec8 01        12590 	.data.b	1
00003ec9 63        12591 	.data.b	99
00003eca 494e4143  12592 	.data.b	67,65,78,73,70,95,77,85,76,84,73,80,76,69,95,67,65,78,68,82,86,95,83,85,80,80,79,82,84,32,83,84,68,95,79,70,70,0
00003ece 554d5f46 
00003ed2 5049544c 
00003ed6 435f454c 
00003eda 52444e41 
00003ede 55535f56 
00003ee2 524f5050 
00003ee6 54532054 
00003eea 464f5f44 
00003eee 0046 
00003ef0 01        12593 	.data.b	1
00003ef1 64        12594 	.data.b	100
00003ef2 494e4143  12595 	.data.b	67,65,78,73,70,95,82,88,95,83,69,65,82,67,72,95,67,79,78,83,73,68,69,82,95,77,83,71,95,84,89,80,69,32,83,84,68,95,79,70,70,0
00003ef6 58525f46 
00003efa 4145535f 
00003efe 5f484352 
00003f02 534e4f43 
00003f06 52454449 
00003f0a 47534d5f 
00003f0e 5059545f 
00003f12 54532045 
00003f16 464f5f44 
00003f1a 0046 
00003f1c 01        12596 	.data.b	1
00003f1d 66        12597 	.data.b	102
00003f1e 494e4143  12598 	.data.b	67,65,78,73,70,95,69,88,84,69,78,68,69,68,95,82,65,77,95,67,72,69,67,75,95,83,85,80,80,79,82,84,32,83,84,68,95,79,70,70,0
00003f22 58455f46 
00003f26 444e4554 
00003f2a 525f4445 
00003f2e 435f4d41 
00003f32 4b434548 
00003f36 5055535f 
00003f3a 54524f50 
00003f3e 44545320 

                                                                      Page 288
                                                              C:\Users\Fengyuan\AppData\Local\Temp\gh_0000kos1.s
00003f42 46464f5f 
00003f46 00 
00003f47 01        12599 	.data.b	1
00003f48 67        12600 	.data.b	103
00003f49 494e4143  12601 	.data.b	67,65,78,73,70,95,68,65,84,65,95,67,72,69,67,75,83,85,77,95,82,88,95,83,85,80,80,79,82,84,32,83,84,68,95,79,70,70,0
00003f4d 41445f46 
00003f51 435f4154 
00003f55 4b434548 
00003f59 5f4d5553 
00003f5d 535f5852 
00003f61 4f505055 
00003f65 53205452 
00003f69 4f5f4454 
00003f6d 004646 
00003f70 01        12602 	.data.b	1
00003f71 68        12603 	.data.b	104
00003f72 494e4143  12604 	.data.b	67,65,78,73,70,95,68,65,84,65,95,67,72,69,67,75,83,85,77,95,84,88,95,83,85,80,80,79,82,84,32,83,84,68,95,79,70,70,0
00003f76 41445f46 
00003f7a 435f4154 
00003f7e 4b434548 
00003f82 5f4d5553 
00003f86 535f5854 
00003f8a 4f505055 
00003f8e 53205452 
00003f92 4f5f4454 
00003f96 004646 
00003f99 01        12605 	.data.b	1
00003f9a 69        12606 	.data.b	105
00003f9b 494e4143  12607 	.data.b	67,65,78,73,70,95,83,69,84,95,80,68,85,95,82,69,67,69,80,84,73,79,78,95,77,79,68,69,95,83,85,80,80,79,82,84,32,83,84,68,95,79,70,70,0
00003f9f 45535f46 
00003fa3 44505f54 
00003fa7 45525f55 
00003fab 54504543 
00003faf 5f4e4f49 
00003fb3 45444f4d 
00003fb7 5055535f 
00003fbb 54524f50 
00003fbf 44545320 
00003fc3 46464f5f 
00003fc7 00 
00003fc8 01        12608 	.data.b	1
00003fc9 019e      12609 	.data.b	158,1
00003fcb 494e4143  12610 	.data.b	67,65,78,73,70,95,83,69,65,82,67,72,95,65,76,71,79,82,73,84,72,77,32,67,65,78,73,70,95,76,73,78,69,65,82,0
00003fcf 45535f46 
00003fd3 48435241 
00003fd7 474c415f 
00003fdb 5449524f 
00003fdf 43204d48 
00003fe3 46494e41 
00003fe7 4e494c5f 
00003feb 00524145 
00003fef 01        12611 	.data.b	1
00003ff0 01a4      12612 	.data.b	164,1
00003ff2 494e4143  12613 	.data.b	67,65,78,73,70,95,67,79,78,70,73,71,95,86,65,82,73,65,78,84,32,67,65,78,73,70,95,67,70,71,86,65,82,95,80,82,69,67,79,77,80,73,76,69,84,73,77,69,0
00003ff6 4f435f46 
00003ffa 4749464e 
00003ffe 5241565f 
00004002 544e4149 
00004006 4e414320 
0000400a 435f4649 
0000400e 41564746 

                                                                      Page 289
                                                              C:\Users\Fengyuan\AppData\Local\Temp\gh_0000kos1.s
00004012 52505f52 
00004016 4d4f4345 
0000401a 454c4950 
0000401e 454d4954 
00004022 00 
00004023 03        12614 	.data.b	3
00004024 01b4      12615 	.data.b	180,1
00004026 1d        12616 	.data.b	29
00004027 01        12617 	.data.b	1
00004028 49        12618 	.data.b	73
00004029 494e4143  12619 	.data.b	67,65,78,73,70,95,67,70,71,86,65,82,95,80,82,69,67,79,77,80,73,76,69,84,73,77,69,32,49,117,0
0000402d 46435f46 
00004031 52415647 
00004035 4552505f 
00004039 504d4f43 
0000403d 54454c49 
00004041 20454d49 
00004045 007531 
00004048 01        12620 	.data.b	1
00004049 4b        12621 	.data.b	75
0000404a 494e4143  12622 	.data.b	67,65,78,73,70,95,67,70,71,86,65,82,95,80,79,83,84,66,85,73,76,68,84,73,77,69,32,51,117,0
0000404e 46435f46 
00004052 52415647 
00004056 534f505f 
0000405a 49554254 
0000405e 4954444c 
00004062 3320454d 
00004066 0075 
00004068 01        12623 	.data.b	1
00004069 01c8      12624 	.data.b	200,1
0000406b 494e4143  12625 	.data.b	67,65,78,73,70,95,74,49,57,51,57,95,68,89,78,95,65,68,68,82,95,68,73,83,65,66,76,69,68,32,48,117,0
0000406f 314a5f46 
00004073 5f393339 
00004077 5f4e5944 
0000407b 52444441 
0000407f 5349445f 
00004083 454c4241 
00004087 75302044 
0000408b 00 
0000408c 01        12626 	.data.b	1
0000408d 01cd      12627 	.data.b	205,1
0000408f 494e4143  12628 	.data.b	67,65,78,73,70,95,83,84,65,84,73,67,95,66,85,70,70,69,82,95,83,73,90,69,32,56,117,0
00004093 54535f46 
00004097 43495441 
0000409b 4655425f 
0000409f 5f524546 
000040a3 455a4953 
000040a7 00753820 
000040ab 01        12629 	.data.b	1
000040ac 02a0      12630 	.data.b	160,2
000040ae 496e6143  12631 	.data.b	67,97,110,73,102,95,72,119,72,97,110,100,108,101,84,121,112,101,32,67,97,110,95,72,119,72,97,110,100,108,101,84,121,112,101,0
000040b2 77485f66 
000040b6 646e6148 
000040ba 7954656c 
000040be 43206570 
000040c2 485f6e61 
000040c6 6e614877 
000040ca 54656c64 
000040ce 00657079 
000040d2 04        12632 	.data.b	4
000040d3 01        12633 	.data.b	1

                                                                      Page 290
                                                              C:\Users\Fengyuan\AppData\Local\Temp\gh_0000kos1.s
000040d4 01f5      12634 	.data.b	245,1
000040d6 496e6143  12635 	.data.b	67,97,110,73,102,67,111,110,102,95,67,97,110,73,102,84,120,80,100,117,67,102,103,95,109,115,103,95,100,105,97,103,95,82,101,115,112,111,110,115,101,95,77,121,69,67,85,95,84,112,95,111,67,65,78,48,48,95,53,57
000040da 6e6f4366 
000040de 61435f66 
000040e2 5466496e 
000040e6 75645078 
000040ea 5f676643 
000040ee 5f67736d 
000040f2 67616964 
000040f6 7365525f 
000040fa 736e6f70 
000040fe 794d5f65 
00004102 5f554345 
00004106 6f5f7054 
0000410a 304e4143 
0000410e 39355f30 
00004112 66383465  12636 	.data.b	101,52,56,102,55,97,95,84,120,32,48,117,0
00004116 545f6137 
0000411a 75302078 
0000411e 00 
0000411f 01        12637 	.data.b	1
00004120 04e1      12638 	.data.b	225,4
00004122 494e4143  12639 	.data.b	67,65,78,73,70,95,85,83,69,95,73,78,73,84,95,80,79,73,78,84,69,82,32,83,84,68,95,79,70,70,0
00004126 53555f46 
0000412a 4e495f45 
0000412e 505f5449 
00004132 544e494f 
00004136 53205245 
0000413a 4f5f4454 
0000413e 004646 
00004141 03        12640 	.data.b	3
00004142 0ad0      12641 	.data.b	208,10
00004144 10        12642 	.data.b	16
00004145 04        12643 	.data.b	4
00004146 03        12644 	.data.b	3
00004147 0ad5      12645 	.data.b	213,10
00004149 10        12646 	.data.b	16
0000414a 04        12647 	.data.b	4
0000414b 03        12648 	.data.b	3
0000414c 0ae5      12649 	.data.b	229,10
0000414e 10        12650 	.data.b	16
0000414f 04        12651 	.data.b	4
00004150 03        12652 	.data.b	3
00004151 0aea      12653 	.data.b	234,10
00004153 10        12654 	.data.b	16
00004154 04        12655 	.data.b	4
00004155 03        12656 	.data.b	3
00004156 0af2      12657 	.data.b	242,10
00004158 10        12658 	.data.b	16
00004159 04        12659 	.data.b	4
0000415a 03        12660 	.data.b	3
0000415b 0af7      12661 	.data.b	247,10
0000415d 10        12662 	.data.b	16
0000415e 04        12663 	.data.b	4
0000415f 03        12664 	.data.b	3
00004160 0b8b      12665 	.data.b	139,11
00004162 10        12666 	.data.b	16
00004163 04        12667 	.data.b	4
00004164 03        12668 	.data.b	3
00004165 0b90      12669 	.data.b	144,11
00004167 10        12670 	.data.b	16

                                                                      Page 291
                                                              C:\Users\Fengyuan\AppData\Local\Temp\gh_0000kos1.s
00004168 04        12671 	.data.b	4
00004169 03        12672 	.data.b	3
0000416a 0b9f      12673 	.data.b	159,11
0000416c 10        12674 	.data.b	16
0000416d 04        12675 	.data.b	4
0000416e 03        12676 	.data.b	3
0000416f 0ba4      12677 	.data.b	164,11
00004171 10        12678 	.data.b	16
00004172 04        12679 	.data.b	4
00004173 03        12680 	.data.b	3
00004174 0bb4      12681 	.data.b	180,11
00004176 10        12682 	.data.b	16
00004177 04        12683 	.data.b	4
00004178 03        12684 	.data.b	3
00004179 0bb9      12685 	.data.b	185,11
0000417b 10        12686 	.data.b	16
0000417c 04        12687 	.data.b	4
0000417d 03        12688 	.data.b	3
0000417e 0bcc      12689 	.data.b	204,11
00004180 10        12690 	.data.b	16
00004181 04        12691 	.data.b	4
00004182 03        12692 	.data.b	3
00004183 0bd1      12693 	.data.b	209,11
00004185 10        12694 	.data.b	16
00004186 04        12695 	.data.b	4
00004187 03        12696 	.data.b	3
00004188 0be3      12697 	.data.b	227,11
0000418a 10        12698 	.data.b	16
0000418b 04        12699 	.data.b	4
0000418c 03        12700 	.data.b	3
0000418d 0be8      12701 	.data.b	232,11
0000418f 10        12702 	.data.b	16
00004190 04        12703 	.data.b	4
00004191 03        12704 	.data.b	3
00004192 0bf7      12705 	.data.b	247,11
00004194 10        12706 	.data.b	16
00004195 04        12707 	.data.b	4
00004196 03        12708 	.data.b	3
00004197 0bfc      12709 	.data.b	252,11
00004199 10        12710 	.data.b	16
0000419a 04        12711 	.data.b	4
0000419b 03        12712 	.data.b	3
0000419c 0c88      12713 	.data.b	136,12
0000419e 10        12714 	.data.b	16
0000419f 04        12715 	.data.b	4
000041a0 03        12716 	.data.b	3
000041a1 0c8d      12717 	.data.b	141,12
000041a3 10        12718 	.data.b	16
000041a4 04        12719 	.data.b	4
000041a5 03        12720 	.data.b	3
000041a6 0ca1      12721 	.data.b	161,12
000041a8 10        12722 	.data.b	16
000041a9 04        12723 	.data.b	4
000041aa 03        12724 	.data.b	3
000041ab 0ca6      12725 	.data.b	166,12
000041ad 10        12726 	.data.b	16
000041ae 04        12727 	.data.b	4
000041af 03        12728 	.data.b	3
000041b0 0cb5      12729 	.data.b	181,12
000041b2 10        12730 	.data.b	16
000041b3 04        12731 	.data.b	4

                                                                      Page 292
                                                              C:\Users\Fengyuan\AppData\Local\Temp\gh_0000kos1.s
000041b4 03        12732 	.data.b	3
000041b5 0cba      12733 	.data.b	186,12
000041b7 10        12734 	.data.b	16
000041b8 04        12735 	.data.b	4
000041b9 03        12736 	.data.b	3
000041ba 0cc9      12737 	.data.b	201,12
000041bc 10        12738 	.data.b	16
000041bd 04        12739 	.data.b	4
000041be 03        12740 	.data.b	3
000041bf 0cce      12741 	.data.b	206,12
000041c1 10        12742 	.data.b	16
000041c2 04        12743 	.data.b	4
000041c3 03        12744 	.data.b	3
000041c4 0cda      12745 	.data.b	218,12
000041c6 10        12746 	.data.b	16
000041c7 04        12747 	.data.b	4
000041c8 03        12748 	.data.b	3
000041c9 0cdf      12749 	.data.b	223,12
000041cb 10        12750 	.data.b	16
000041cc 04        12751 	.data.b	4
000041cd 03        12752 	.data.b	3
000041ce 0ceb      12753 	.data.b	235,12
000041d0 10        12754 	.data.b	16
000041d1 04        12755 	.data.b	4
000041d2 03        12756 	.data.b	3
000041d3 0cf0      12757 	.data.b	240,12
000041d5 10        12758 	.data.b	16
000041d6 04        12759 	.data.b	4
000041d7 04        12760 	.data.b	4
000041d8 03        12761 	.data.b	3
000041d9 01e6      12762 	.data.b	230,1
000041db 10        12763 	.data.b	16
000041dc 04        12764 	.data.b	4
000041dd 03        12765 	.data.b	3
000041de 06ed      12766 	.data.b	237,6
000041e0 10        12767 	.data.b	16
000041e1 04        12768 	.data.b	4
000041e2 03        12769 	.data.b	3
000041e3 06f3      12770 	.data.b	243,6
000041e5 10        12771 	.data.b	16
000041e6 04        12772 	.data.b	4
000041e7 03        12773 	.data.b	3
000041e8 06fa      12774 	.data.b	250,6
000041ea 10        12775 	.data.b	16
000041eb 04        12776 	.data.b	4
000041ec 04        12777 	.data.b	4
000041ed 03        12778 	.data.b	3
000041ee 77        12779 	.data.b	119
000041ef 1e        12780 	.data.b	30
000041f0 03        12781 	.data.b	3
000041f1 1c        12782 	.data.b	28
000041f2 1f        12783 	.data.b	31
000041f3 03        12784 	.data.b	3
000041f4 1c        12785 	.data.b	28
000041f5 20        12786 	.data.b	32
000041f6 03        12787 	.data.b	3
000041f7 1a        12788 	.data.b	26
000041f8 21        12789 	.data.b	33
000041f9 03        12790 	.data.b	3
000041fa 28        12791 	.data.b	40
000041fb 22        12792 	.data.b	34

                                                                      Page 293
                                                              C:\Users\Fengyuan\AppData\Local\Temp\gh_0000kos1.s
000041fc 04        12793 	.data.b	4
000041fd 04        12794 	.data.b	4
000041fe 03        12795 	.data.b	3
000041ff 01c4      12796 	.data.b	196,1
00004201 23        12797 	.data.b	35
00004202 04        12798 	.data.b	4
00004203 04        12799 	.data.b	4
00004204 04        12800 	.data.b	4
00004205 03        12801 	.data.b	3
00004206 1e        12802 	.data.b	30
00004207 24        12803 	.data.b	36
00004208 03        12804 	.data.b	3
00004209 0388      12805 	.data.b	136,3
0000420b 25        12806 	.data.b	37
0000420c 03        12807 	.data.b	3
0000420d 27        12808 	.data.b	39
0000420e 26        12809 	.data.b	38
0000420f 01        12810 	.data.b	1
00004210 21        12811 	.data.b	33
00004211 4c5f534f  12812 	.data.b	79,83,95,76,67,70,71,95,72,32,0
00004215 5f474643 
00004219 002048 
0000421c 03        12813 	.data.b	3
0000421d 2b        12814 	.data.b	43
0000421e 27        12815 	.data.b	39
0000421f 01        12816 	.data.b	1
00004220 21        12817 	.data.b	33
00004221 435f534f  12818 	.data.b	79,83,95,67,70,71,95,72,32,0
00004225 485f4746 
00004229 0020 
0000422b 03        12819 	.data.b	3
0000422c 2e        12820 	.data.b	46
0000422d 28        12821 	.data.b	40
0000422e 04        12822 	.data.b	4
0000422f 01        12823 	.data.b	1
00004230 4e        12824 	.data.b	78
00004231 435f534f  12825 	.data.b	79,83,95,67,70,71,95,80,82,69,84,65,83,75,72,79,79,75,32,40,83,84,68,95,79,70,70,41,0
00004235 505f4746 
00004239 41544552 
0000423d 4f484b53 
00004241 28204b4f 
00004245 5f445453 
00004249 2946464f 
0000424d 00 
0000424e 01        12826 	.data.b	1
0000424f 51        12827 	.data.b	81
00004250 435f534f  12828 	.data.b	79,83,95,67,70,71,95,80,79,83,84,84,65,83,75,72,79,79,75,32,40,83,84,68,95,79,70,70,41,0
00004254 505f4746 
00004258 5454534f 
0000425c 484b5341 
00004260 204b4f4f 
00004264 44545328 
00004268 46464f5f 
0000426c 0029 
0000426e 01        12829 	.data.b	1
0000426f 54        12830 	.data.b	84
00004270 435f534f  12831 	.data.b	79,83,95,67,70,71,95,80,65,78,73,67,72,79,79,75,32,40,83,84,68,95,79,78,41,0
00004274 505f4746 
00004278 43494e41 
0000427c 4b4f4f48 
00004280 54532820 

                                                                      Page 294
                                                              C:\Users\Fengyuan\AppData\Local\Temp\gh_0000kos1.s
00004284 4e4f5f44 
00004288 0029 
0000428a 01        12832 	.data.b	1
0000428b 57        12833 	.data.b	87
0000428c 435f534f  12834 	.data.b	79,83,95,67,70,71,95,83,84,65,82,84,85,80,72,79,79,75,95,83,89,83,84,69,77,32,40,83,84,68,95,79,70,70,41,0
00004290 535f4746 
00004294 54524154 
00004298 4f485055 
0000429c 535f4b4f 
000042a0 45545359 
000042a4 5328204d 
000042a8 4f5f4454 
000042ac 00294646 
000042b0 01        12835 	.data.b	1
000042b1 5a        12836 	.data.b	90
000042b2 435f534f  12837 	.data.b	79,83,95,67,70,71,95,83,72,85,84,68,79,87,78,72,79,79,75,95,83,89,83,84,69,77,32,40,83,84,68,95,79,70,70,41,0
000042b6 535f4746 
000042ba 44545548 
000042be 484e574f 
000042c2 5f4b4f4f 
000042c6 54535953 
000042ca 28204d45 
000042ce 5f445453 
000042d2 2946464f 
000042d6 00 
000042d7 01        12838 	.data.b	1
000042d8 5d        12839 	.data.b	93
000042d9 435f534f  12840 	.data.b	79,83,95,67,70,71,95,69,82,82,79,82,72,79,79,75,95,83,89,83,84,69,77,32,40,83,84,68,95,79,78,41,0
000042dd 455f4746 
000042e1 524f5252 
000042e5 4b4f4f48 
000042e9 5359535f 
000042ed 204d4554 
000042f1 44545328 
000042f5 294e4f5f 
000042f9 00 
000042fa 01        12841 	.data.b	1
000042fb 60        12842 	.data.b	96
000042fc 435f534f  12843 	.data.b	79,83,95,67,70,71,95,80,82,79,84,69,67,84,73,79,78,72,79,79,75,95,83,89,83,84,69,77,32,40,83,84,68,95,79,70,70,41,0
00004300 505f4746 
00004304 45544f52 
00004308 4f495443 
0000430c 4f4f484e 
00004310 59535f4b 
00004314 4d455453 
00004318 54532820 
0000431c 464f5f44 
00004320 002946 
00004323 01        12844 	.data.b	1
00004324 63        12845 	.data.b	99
00004325 435f534f  12846 	.data.b	79,83,95,67,70,71,95,80,69,82,73,80,72,69,82,65,76,95,67,79,77,80,65,84,73,66,73,76,73,84,89,32,40,83,84,68,95,79,70,70,41,0
00004329 505f4746 
0000432d 50495245 
00004331 41524548 
00004335 4f435f4c 
00004339 5441504d 
0000433d 4c494249 
00004341 20595449 
00004345 44545328 
00004349 46464f5f 
0000434d 0029 

                                                                      Page 295
                                                              C:\Users\Fengyuan\AppData\Local\Temp\gh_0000kos1.s
0000434f 04        12847 	.data.b	4
00004350 03        12848 	.data.b	3
00004351 2c        12849 	.data.b	44
00004352 29        12850 	.data.b	41
00004353 03        12851 	.data.b	3
00004354 27        12852 	.data.b	39
00004355 2a        12853 	.data.b	42
00004356 01        12854 	.data.b	1
00004357 21        12855 	.data.b	33
00004358 545f534f  12856 	.data.b	79,83,95,84,89,80,69,83,95,76,67,70,71,95,72,32,0
0000435c 53455059 
00004360 46434c5f 
00004364 20485f47 
00004368 00 
00004369 01        12857 	.data.b	1
0000436a 35        12858 	.data.b	53
0000436b 74737953  12859 	.data.b	83,121,115,116,101,109,65,112,112,108,105,99,97,116,105,111,110,95,79,115,67,111,114,101,48,32,83,121,115,116,101,109,65,112,112,108,105,99,97,116,105,111,110,95,79,115,67,111,114,101,48,0
0000436f 70416d65 
00004373 63696c70 
00004377 6f697461 
0000437b 734f5f6e 
0000437f 65726f43 
00004383 79532030 
00004387 6d657473 
0000438b 6c707041 
0000438f 74616369 
00004393 5f6e6f69 
00004397 6f43734f 
0000439b 00306572 
0000439f 01        12860 	.data.b	1
000043a0 3e        12861 	.data.b	62
000043a1 61666544  12862 	.data.b	68,101,102,97,117,108,116,95,73,110,105,116,95,84,97,115,107,32,68,101,102,97,117,108,116,95,73,110,105,116,95,84,97,115,107,0
000043a5 5f746c75 
000043a9 74696e49 
000043ad 7361545f 
000043b1 6544206b 
000043b5 6c756166 
000043b9 6e495f74 
000043bd 545f7469 
000043c1 006b7361 
000043c5 01        12863 	.data.b	1
000043c6 3f        12864 	.data.b	63
000043c7 656c6449  12865 	.data.b	73,100,108,101,84,97,115,107,95,79,115,67,111,114,101,48,32,73,100,108,101,84,97,115,107,95,79,115,67,111,114,101,48,0
000043cb 6b736154 
000043cf 43734f5f 
000043d3 3065726f 
000043d7 6c644920 
000043db 73615465 
000043df 734f5f6b 
000043e3 65726f43 
000043e7 0030 
000043e9 01        12866 	.data.b	1
000043ea 40        12867 	.data.b	64
000043eb 6154734f  12868 	.data.b	79,115,84,97,115,107,95,65,80,80,32,79,115,84,97,115,107,95,65,80,80,0
000043ef 415f6b73 
000043f3 4f205050 
000043f7 73615473 
000043fb 50415f6b 
000043ff 0050 
00004401 01        12869 	.data.b	1
00004402 41        12870 	.data.b	65

                                                                      Page 296
                                                              C:\Users\Fengyuan\AppData\Local\Temp\gh_0000kos1.s
00004403 6154734f  12871 	.data.b	79,115,84,97,115,107,95,66,83,87,95,83,67,72,77,32,79,115,84,97,115,107,95,66,83,87,95,83,67,72,77,0
00004407 425f6b73 
0000440b 535f5753 
0000440f 204d4843 
00004413 6154734f 
00004417 425f6b73 
0000441b 535f5753 
0000441f 004d4843 
00004423 01        12872 	.data.b	1
00004424 44        12873 	.data.b	68
00004425 496e6143  12874 	.data.b	67,97,110,73,115,114,95,48,95,66,117,115,79,102,102,32,67,97,110,73,115,114,95,48,95,66,117,115,79,102,102,0
00004429 305f7273 
0000442d 7375425f 
00004431 2066664f 
00004435 496e6143 
00004439 305f7273 
0000443d 7375425f 
00004441 0066664f 
00004445 01        12875 	.data.b	1
00004446 45        12876 	.data.b	69
00004447 496e6143  12877 	.data.b	67,97,110,73,115,114,95,48,95,77,66,48,48,84,111,49,53,32,67,97,110,73,115,114,95,48,95,77,66,48,48,84,111,49,53,0
0000444b 305f7273 
0000444f 30424d5f 
00004453 316f5430 
00004457 61432035 
0000445b 7273496e 
0000445f 4d5f305f 
00004463 54303042 
00004467 0035316f 
0000446b 01        12878 	.data.b	1
0000446c 46        12879 	.data.b	70
0000446d 496e6143  12880 	.data.b	67,97,110,73,115,114,95,48,95,77,66,49,54,84,111,51,49,32,67,97,110,73,115,114,95,48,95,77,66,49,54,84,111,51,49,0
00004471 305f7273 
00004475 31424d5f 
00004479 336f5436 
0000447d 61432031 
00004481 7273496e 
00004485 4d5f305f 
00004489 54363142 
0000448d 0031336f 
00004491 01        12881 	.data.b	1
00004492 47        12882 	.data.b	71
00004493 6e756f43  12883 	.data.b	67,111,117,110,116,101,114,73,115,114,95,83,121,115,116,101,109,84,105,109,101,114,32,67,111,117,110,116,101,114,73,115,114,95,83,121,115,116,101,109,84,105,109,101,114,0
00004497 49726574 
0000449b 535f7273 
0000449f 65747379 
000044a3 6d69546d 
000044a7 43207265 
000044ab 746e756f 
000044af 73497265 
000044b3 79535f72 
000044b7 6d657473 
000044bb 656d6954 
000044bf 0072 
000044c1 01        12884 	.data.b	1
000044c2 4a        12885 	.data.b	74
000044c3 5f657452  12886 	.data.b	82,116,101,95,65,108,95,84,69,50,95,79,115,84,97,115,107,95,66,83,87,95,83,67,72,77,95,48,95,49,48,109,115,32,82,116,101,95,65,108,95,84,69,50,95,79,115,84,97,115,107,95,66,83,87,95,83,67,72,77
000044c7 545f6c41 
000044cb 4f5f3245 
000044cf 73615473 
000044d3 53425f6b 

                                                                      Page 297
                                                              C:\Users\Fengyuan\AppData\Local\Temp\gh_0000kos1.s
000044d7 43535f57 
000044db 305f4d48 
000044df 6d30315f 
000044e3 74522073 
000044e7 6c415f65 
000044eb 3245545f 
000044ef 54734f5f 
000044f3 5f6b7361 
000044f7 5f575342 
000044fb 4d484353 
000044ff 315f305f  12887 	.data.b	95,48,95,49,48,109,115,0
00004503 00736d30 
00004507 01        12888 	.data.b	1
00004508 4b        12889 	.data.b	75
00004509 5f657452  12890 	.data.b	82,116,101,95,65,108,95,84,69,50,95,79,115,84,97,115,107,95,66,83,87,95,83,67,72,77,95,48,95,50,48,109,115,32,82,116,101,95,65,108,95,84,69,50,95,79,115,84,97,115,107,95,66,83,87,95,83,67,72,77
0000450d 545f6c41 
00004511 4f5f3245 
00004515 73615473 
00004519 53425f6b 
0000451d 43535f57 
00004521 305f4d48 
00004525 6d30325f 
00004529 74522073 
0000452d 6c415f65 
00004531 3245545f 
00004535 54734f5f 
00004539 5f6b7361 
0000453d 5f575342 
00004541 4d484353 
00004545 325f305f  12891 	.data.b	95,48,95,50,48,109,115,0
00004549 00736d30 
0000454d 01        12892 	.data.b	1
0000454e 4c        12893 	.data.b	76
0000454f 5f657452  12894 	.data.b	82,116,101,95,65,108,95,84,69,95,67,97,110,84,112,95,67,97,110,84,112,95,77,97,105,110,70,117,110,99,116,105,111,110,32,82,116,101,95,65,108,95,84,69,95,67,97,110,84,112,95,67,97,110,84,112,95,77,97,105
00004553 545f6c41 
00004557 61435f45 
0000455b 5f70546e 
0000455f 546e6143 
00004563 614d5f70 
00004567 75466e69 
0000456b 6974636e 
0000456f 52206e6f 
00004573 415f6574 
00004577 45545f6c 
0000457b 6e61435f 
0000457f 435f7054 
00004583 70546e61 
00004587 69614d5f 
0000458b 6e75466e  12895 	.data.b	110,70,117,110,99,116,105,111,110,0
0000458f 6f697463 
00004593 006e 
00004595 01        12896 	.data.b	1
00004596 4d        12897 	.data.b	77
00004597 5f657452  12898 	.data.b	82,116,101,95,65,108,95,84,69,95,67,100,100,95,83,66,67,95,85,74,65,49,49,54,57,95,83,98,99,95,84,101,115,116,95,82,117,110,110,97,98,108,101,32,82,116,101,95,65,108,95,84,69,95,67,100,100,95,83,66
0000459b 545f6c41 
0000459f 64435f45 
000045a3 42535f64 
000045a7 4a555f43 
000045ab 36313141 
000045af 62535f39 
000045b3 65545f63 

                                                                      Page 298
                                                              C:\Users\Fengyuan\AppData\Local\Temp\gh_0000kos1.s
000045b7 525f7473 
000045bb 616e6e75 
000045bf 20656c62 
000045c3 5f657452 
000045c7 545f6c41 
000045cb 64435f45 
000045cf 42535f64 
000045d3 4a555f43  12899 	.data.b	67,95,85,74,65,49,49,54,57,95,83,98,99,95,84,101,115,116,95,82,117,110,110,97,98,108,101,0
000045d7 36313141 
000045db 62535f39 
000045df 65545f63 
000045e3 525f7473 
000045e7 616e6e75 
000045eb 00656c62 
000045ef 01        12900 	.data.b	1
000045f0 4e        12901 	.data.b	78
000045f1 5f657452  12902 	.data.b	82,116,101,95,65,108,95,84,69,95,67,112,76,101,100,84,97,115,107,95,76,101,100,82,117,110,110,97,98,108,101,32,82,116,101,95,65,108,95,84,69,95,67,112,76,101,100,84,97,115,107,95,76,101,100,82,117,110,110,97
000045f5 545f6c41 
000045f9 70435f45 
000045fd 5464654c 
00004601 5f6b7361 
00004605 5264654c 
00004609 616e6e75 
0000460d 20656c62 
00004611 5f657452 
00004615 545f6c41 
00004619 70435f45 
0000461d 5464654c 
00004621 5f6b7361 
00004625 5264654c 
00004629 616e6e75 
0000462d 00656c62  12903 	.data.b	98,108,101,0
00004631 01        12904 	.data.b	1
00004632 51        12905 	.data.b	81
00004633 74737953  12906 	.data.b	83,121,115,116,101,109,84,105,109,101,114,32,83,121,115,116,101,109,84,105,109,101,114,0
00004637 69546d65 
0000463b 2072656d 
0000463f 74737953 
00004643 69546d65 
00004647 0072656d 
0000464b 01        12907 	.data.b	1
0000464c 56        12908 	.data.b	86
0000464d 6552734f  12909 	.data.b	79,115,82,101,115,111,117,114,99,101,32,79,115,82,101,115,111,117,114,99,101,0
00004651 72756f73 
00004655 4f206563 
00004659 73655273 
0000465d 6372756f 
00004661 0065 
00004663 04        12910 	.data.b	4
00004664 03        12911 	.data.b	3
00004665 2b        12912 	.data.b	43
00004666 2b        12913 	.data.b	43
00004667 01        12914 	.data.b	1
00004668 1c        12915 	.data.b	28
00004669 485f534f  12916 	.data.b	79,83,95,72,65,76,95,79,83,95,84,89,80,69,83,95,72,32,0
0000466d 4f5f4c41 
00004671 59545f53 
00004675 5f534550 
00004679 002048 
0000467c 04        12917 	.data.b	4
0000467d 01        12918 	.data.b	1

                                                                      Page 299
                                                              C:\Users\Fengyuan\AppData\Local\Temp\gh_0000kos1.s
0000467e 33        12919 	.data.b	51
0000467f 534f5f45  12920 	.data.b	69,95,79,83,95,65,67,67,69,83,83,32,40,40,83,116,97,116,117,115,84,121,112,101,41,48,120,48,49,41,0
00004683 4343415f 
00004687 20535345 
0000468b 74532828 
0000468f 73757461 
00004693 65707954 
00004697 30783029 
0000469b 002931 
0000469e 01        12921 	.data.b	1
0000469f 35        12922 	.data.b	53
000046a0 534f5f45  12923 	.data.b	69,95,79,83,95,67,65,76,76,69,86,69,76,32,40,40,83,116,97,116,117,115,84,121,112,101,41,48,120,48,50,41,0
000046a4 4c41435f 
000046a8 4556454c 
000046ac 2828204c 
000046b0 74617453 
000046b4 79547375 
000046b8 30296570 
000046bc 29323078 
000046c0 00 
000046c1 01        12924 	.data.b	1
000046c2 37        12925 	.data.b	55
000046c3 534f5f45  12926 	.data.b	69,95,79,83,95,73,68,32,40,40,83,116,97,116,117,115,84,121,112,101,41,48,120,48,51,41,0
000046c7 2044495f 
000046cb 74532828 
000046cf 73757461 
000046d3 65707954 
000046d7 30783029 
000046db 002933 
000046de 01        12927 	.data.b	1
000046df 39        12928 	.data.b	57
000046e0 534f5f45  12929 	.data.b	69,95,79,83,95,76,73,77,73,84,32,40,40,83,116,97,116,117,115,84,121,112,101,41,48,120,48,52,41,0
000046e4 4d494c5f 
000046e8 28205449 
000046ec 61745328 
000046f0 54737574 
000046f4 29657079 
000046f8 34307830 
000046fc 0029 
000046fe 01        12930 	.data.b	1
000046ff 3b        12931 	.data.b	59
00004700 534f5f45  12932 	.data.b	69,95,79,83,95,78,79,70,85,78,67,32,40,40,83,116,97,116,117,115,84,121,112,101,41,48,120,48,53,41,0
00004704 464f4e5f 
00004708 20434e55 
0000470c 74532828 
00004710 73757461 
00004714 65707954 
00004718 30783029 
0000471c 002935 
0000471f 01        12933 	.data.b	1
00004720 3d        12934 	.data.b	61
00004721 534f5f45  12935 	.data.b	69,95,79,83,95,82,69,83,79,85,82,67,69,32,40,40,83,116,97,116,117,115,84,121,112,101,41,48,120,48,54,41,0
00004725 5345525f 
00004729 4352554f 
0000472d 28282045 
00004731 74617453 
00004735 79547375 
00004739 30296570 
0000473d 29363078 
00004741 00 
00004742 01        12936 	.data.b	1

                                                                      Page 300
                                                              C:\Users\Fengyuan\AppData\Local\Temp\gh_0000kos1.s
00004743 3f        12937 	.data.b	63
00004744 534f5f45  12938 	.data.b	69,95,79,83,95,83,84,65,84,69,32,40,40,83,116,97,116,117,115,84,121,112,101,41,48,120,48,55,41,0
00004748 4154535f 
0000474c 28204554 
00004750 61745328 
00004754 54737574 
00004758 29657079 
0000475c 37307830 
00004760 0029 
00004762 01        12939 	.data.b	1
00004763 41        12940 	.data.b	65
00004764 534f5f45  12941 	.data.b	69,95,79,83,95,86,65,76,85,69,32,40,40,83,116,97,116,117,115,84,121,112,101,41,48,120,48,56,41,0
00004768 4c41565f 
0000476c 28204555 
00004770 61745328 
00004774 54737574 
00004778 29657079 
0000477c 38307830 
00004780 0029 
00004782 01        12942 	.data.b	1
00004783 45        12943 	.data.b	69
00004784 534f5f45  12944 	.data.b	69,95,79,83,95,83,69,82,86,73,67,69,73,68,32,40,40,83,116,97,116,117,115,84,121,112,101,41,48,120,48,57,41,0
00004788 5245535f 
0000478c 45434956 
00004790 28204449 
00004794 61745328 
00004798 54737574 
0000479c 29657079 
000047a0 39307830 
000047a4 0029 
000047a6 01        12945 	.data.b	1
000047a7 49        12946 	.data.b	73
000047a8 534f5f45  12947 	.data.b	69,95,79,83,95,73,76,76,69,71,65,76,95,65,68,68,82,69,83,83,32,40,40,83,116,97,116,117,115,84,121,112,101,41,48,120,48,65,41,0
000047ac 4c4c495f 
000047b0 4c414745 
000047b4 4444415f 
000047b8 53534552 
000047bc 53282820 
000047c0 75746174 
000047c4 70795473 
000047c8 78302965 
000047cc 00294130 
000047d0 01        12948 	.data.b	1
000047d1 4b        12949 	.data.b	75
000047d2 534f5f45  12950 	.data.b	69,95,79,83,95,77,73,83,83,73,78,71,69,78,68,32,40,40,83,116,97,116,117,115,84,121,112,101,41,48,120,48,66,41,0
000047d6 53494d5f 
000047da 474e4953 
000047de 20444e45 
000047e2 74532828 
000047e6 73757461 
000047ea 65707954 
000047ee 30783029 
000047f2 002942 
000047f5 01        12951 	.data.b	1
000047f6 4d        12952 	.data.b	77
000047f7 534f5f45  12953 	.data.b	69,95,79,83,95,68,73,83,65,66,76,69,68,73,78,84,32,40,40,83,116,97,116,117,115,84,121,112,101,41,48,120,48,67,41,0
000047fb 5349445f 
000047ff 454c4241 
00004803 544e4944 
00004807 53282820 
0000480b 75746174 

                                                                      Page 301
                                                              C:\Users\Fengyuan\AppData\Local\Temp\gh_0000kos1.s
0000480f 70795473 
00004813 78302965 
00004817 00294330 
0000481b 01        12954 	.data.b	1
0000481c 4f        12955 	.data.b	79
0000481d 534f5f45  12956 	.data.b	69,95,79,83,95,83,84,65,67,75,70,65,85,76,84,32,40,40,83,116,97,116,117,115,84,121,112,101,41,48,120,48,68,41,0
00004821 4154535f 
00004825 41464b43 
00004829 20544c55 
0000482d 74532828 
00004831 73757461 
00004835 65707954 
00004839 30783029 
0000483d 002944 
00004840 01        12957 	.data.b	1
00004841 51        12958 	.data.b	81
00004842 534f5f45  12959 	.data.b	69,95,79,83,95,80,82,79,84,69,67,84,73,79,78,95,77,69,77,79,82,89,32,40,40,83,116,97,116,117,115,84,121,112,101,41,48,120,48,69,41,0
00004846 4f52505f 
0000484a 54434554 
0000484e 5f4e4f49 
00004852 4f4d454d 
00004856 28205952 
0000485a 61745328 
0000485e 54737574 
00004862 29657079 
00004866 45307830 
0000486a 0029 
0000486c 01        12960 	.data.b	1
0000486d 53        12961 	.data.b	83
0000486e 534f5f45  12962 	.data.b	69,95,79,83,95,80,82,79,84,69,67,84,73,79,78,95,84,73,77,69,32,40,40,83,116,97,116,117,115,84,121,112,101,41,48,120,48,70,41,0
00004872 4f52505f 
00004876 54434554 
0000487a 5f4e4f49 
0000487e 454d4954 
00004882 53282820 
00004886 75746174 
0000488a 70795473 
0000488e 78302965 
00004892 00294630 
00004896 01        12963 	.data.b	1
00004897 55        12964 	.data.b	85
00004898 534f5f45  12965 	.data.b	69,95,79,83,95,80,82,79,84,69,67,84,73,79,78,95,65,82,82,73,86,65,76,32,40,40,83,116,97,116,117,115,84,121,112,101,41,48,120,49,48,41,0
0000489c 4f52505f 
000048a0 54434554 
000048a4 5f4e4f49 
000048a8 49525241 
000048ac 204c4156 
000048b0 74532828 
000048b4 73757461 
000048b8 65707954 
000048bc 31783029 
000048c0 002930 
000048c3 01        12966 	.data.b	1
000048c4 57        12967 	.data.b	87
000048c5 534f5f45  12968 	.data.b	69,95,79,83,95,80,82,79,84,69,67,84,73,79,78,95,76,79,67,75,69,68,32,40,40,83,116,97,116,117,115,84,121,112,101,41,48,120,49,49,41,0
000048c9 4f52505f 
000048cd 54434554 
000048d1 5f4e4f49 
000048d5 4b434f4c 
000048d9 28204445 
000048dd 61745328 

                                                                      Page 302
                                                              C:\Users\Fengyuan\AppData\Local\Temp\gh_0000kos1.s
000048e1 54737574 
000048e5 29657079 
000048e9 31317830 
000048ed 0029 
000048ef 01        12969 	.data.b	1
000048f0 59        12970 	.data.b	89
000048f1 534f5f45  12971 	.data.b	69,95,79,83,95,80,82,79,84,69,67,84,73,79,78,95,69,88,67,69,80,84,73,79,78,32,40,40,83,116,97,116,117,115,84,121,112,101,41,48,120,49,50,41,0
000048f5 4f52505f 
000048f9 54434554 
000048fd 5f4e4f49 
00004901 45435845 
00004905 4f495450 
00004909 2828204e 
0000490d 74617453 
00004911 79547375 
00004915 30296570 
00004919 29323178 
0000491d 00 
0000491e 01        12972 	.data.b	1
0000491f 5b        12973 	.data.b	91
00004920 534f5f45  12974 	.data.b	69,95,79,83,95,73,78,84,69,82,70,69,82,69,78,67,69,95,68,69,65,68,76,79,67,75,32,40,40,83,116,97,116,117,115,84,121,112,101,41,48,120,49,51,41,0
00004924 544e495f 
00004928 45465245 
0000492c 434e4552 
00004930 45445f45 
00004934 4f4c4441 
00004938 28204b43 
0000493c 61745328 
00004940 54737574 
00004944 29657079 
00004948 33317830 
0000494c 0029 
0000494e 01        12975 	.data.b	1
0000494f 5d        12976 	.data.b	93
00004950 534f5f45  12977 	.data.b	69,95,79,83,95,78,69,83,84,73,78,71,95,68,69,65,68,76,79,67,75,32,40,40,83,116,97,116,117,115,84,121,112,101,41,48,120,49,52,41,0
00004954 53454e5f 
00004958 474e4954 
0000495c 4145445f 
00004960 434f4c44 
00004964 2828204b 
00004968 74617453 
0000496c 79547375 
00004970 30296570 
00004974 29343178 
00004978 00 
00004979 01        12978 	.data.b	1
0000497a 5f        12979 	.data.b	95
0000497b 534f5f45  12980 	.data.b	69,95,79,83,95,83,80,73,78,76,79,67,75,32,40,40,83,116,97,116,117,115,84,121,112,101,41,48,120,49,53,41,0
0000497f 4950535f 
00004983 434f4c4e 
00004987 2828204b 
0000498b 74617453 
0000498f 79547375 
00004993 30296570 
00004997 29353178 
0000499b 00 
0000499c 01        12981 	.data.b	1
0000499d 61        12982 	.data.b	97
0000499e 534f5f45  12983 	.data.b	69,95,79,83,95,67,79,82,69,32,40,40,83,116,97,116,117,115,84,121,112,101,41,48,120,49,54,41,0
000049a2 524f435f 
000049a6 28282045 

                                                                      Page 303
                                                              C:\Users\Fengyuan\AppData\Local\Temp\gh_0000kos1.s
000049aa 74617453 
000049ae 79547375 
000049b2 30296570 
000049b6 29363178 
000049ba 00 
000049bb 01        12984 	.data.b	1
000049bc 63        12985 	.data.b	99
000049bd 534f5f45  12986 	.data.b	69,95,79,83,95,80,65,82,65,77,95,80,79,73,78,84,69,82,32,40,40,83,116,97,116,117,115,84,121,112,101,41,48,120,49,55,41,0
000049c1 5241505f 
000049c5 505f4d41 
000049c9 544e494f 
000049cd 28205245 
000049d1 61745328 
000049d5 54737574 
000049d9 29657079 
000049dd 37317830 
000049e1 0029 
000049e3 01        12987 	.data.b	1
000049e4 67        12988 	.data.b	103
000049e5 534f5f45  12989 	.data.b	69,95,79,83,95,83,89,83,95,78,79,95,66,65,82,82,73,69,82,95,80,65,82,84,73,67,73,80,65,78,84,32,40,40,83,116,97,116,117,115,84,121,112,101,41,48,120,70,50,41,0
000049e9 5359535f 
000049ed 5f4f4e5f 
000049f1 52524142 
000049f5 5f524549 
000049f9 54524150 
000049fd 50494349 
00004a01 20544e41 
00004a05 74532828 
00004a09 73757461 
00004a0d 65707954 
00004a11 46783029 
00004a15 002932 
00004a18 01        12990 	.data.b	1
00004a19 6a        12991 	.data.b	106
00004a1a 534f5f45  12992 	.data.b	69,95,79,83,95,83,89,83,95,85,78,73,77,80,76,69,77,69,78,84,69,68,95,70,85,78,67,84,73,79,78,65,76,73,84,89,32,40,40,83,116,97,116,117,115,84,121,112,101,41,48,120,70,51,41,0
00004a1e 5359535f 
00004a22 494e555f 
00004a26 454c504d 
00004a2a 544e454d 
00004a2e 465f4445 
00004a32 54434e55 
00004a36 414e4f49 
00004a3a 5954494c 
00004a3e 53282820 
00004a42 75746174 
00004a46 70795473 
00004a4a 78302965 
00004a4e 00293346 
00004a52 01        12993 	.data.b	1
00004a53 6c        12994 	.data.b	108
00004a54 534f5f45  12995 	.data.b	69,95,79,83,95,83,89,83,95,78,79,95,78,84,70,83,84,65,67,75,32,40,40,83,116,97,116,117,115,84,121,112,101,41,48,120,70,52,41,0
00004a58 5359535f 
00004a5c 5f4f4e5f 
00004a60 5346544e 
00004a64 4b434154 
00004a68 53282820 
00004a6c 75746174 
00004a70 70795473 
00004a74 78302965 
00004a78 00293446 
00004a7c 01        12996 	.data.b	1

                                                                      Page 304
                                                              C:\Users\Fengyuan\AppData\Local\Temp\gh_0000kos1.s
00004a7d 6e        12997 	.data.b	110
00004a7e 534f5f45  12998 	.data.b	69,95,79,83,95,83,89,83,95,79,86,69,82,70,76,79,87,32,40,40,83,116,97,116,117,115,84,121,112,101,41,48,120,70,53,41,0
00004a82 5359535f 
00004a86 45564f5f 
00004a8a 4f4c4652 
00004a8e 28282057 
00004a92 74617453 
00004a96 79547375 
00004a9a 30296570 
00004a9e 29354678 
00004aa2 00 
00004aa3 01        12999 	.data.b	1
00004aa4 70        13000 	.data.b	112
00004aa5 534f5f45  13001 	.data.b	69,95,79,83,95,83,89,83,95,75,73,76,76,95,75,69,82,78,69,76,95,79,66,74,32,40,40,83,116,97,116,117,115,84,121,112,101,41,48,120,70,54,41,0
00004aa9 5359535f 
00004aad 4c494b5f 
00004ab1 454b5f4c 
00004ab5 4c454e52 
00004ab9 4a424f5f 
00004abd 53282820 
00004ac1 75746174 
00004ac5 70795473 
00004ac9 78302965 
00004acd 00293646 
00004ad1 01        13002 	.data.b	1
00004ad2 72        13003 	.data.b	114
00004ad3 534f5f45  13004 	.data.b	69,95,79,83,95,83,89,83,95,78,79,95,82,69,83,84,65,82,84,84,65,83,75,32,40,40,83,116,97,116,117,115,84,121,112,101,41,48,120,70,55,41,0
00004ad7 5359535f 
00004adb 5f4f4e5f 
00004adf 54534552 
00004ae3 54545241 
00004ae7 204b5341 
00004aeb 74532828 
00004aef 73757461 
00004af3 65707954 
00004af7 46783029 
00004afb 002937 
00004afe 01        13005 	.data.b	1
00004aff 74        13006 	.data.b	116
00004b00 534f5f45  13007 	.data.b	69,95,79,83,95,83,89,83,95,67,65,76,76,95,78,79,84,95,65,76,76,79,87,69,68,32,40,40,83,116,97,116,117,115,84,121,112,101,41,48,120,70,56,41,0
00004b04 5359535f 
00004b08 4c41435f 
00004b0c 4f4e5f4c 
00004b10 4c415f54 
00004b14 45574f4c 
00004b18 28282044 
00004b1c 74617453 
00004b20 79547375 
00004b24 30296570 
00004b28 29384678 
00004b2c 00 
00004b2d 01        13008 	.data.b	1
00004b2e 76        13009 	.data.b	118
00004b2f 534f5f45  13010 	.data.b	69,95,79,83,95,83,89,83,95,70,85,78,67,84,73,79,78,95,85,78,65,86,65,73,76,65,66,76,69,32,40,40,83,116,97,116,117,115,84,121,112,101,41,48,120,70,57,41,0
00004b33 5359535f 
00004b37 4e55465f 
00004b3b 4f495443 
00004b3f 4e555f4e 
00004b43 49415641 
00004b47 4c42414c 
00004b4b 28282045 

                                                                      Page 305
                                                              C:\Users\Fengyuan\AppData\Local\Temp\gh_0000kos1.s
00004b4f 74617453 
00004b53 79547375 
00004b57 30296570 
00004b5b 29394678 
00004b5f 00 
00004b60 01        13011 	.data.b	1
00004b61 78        13012 	.data.b	120
00004b62 534f5f45  13013 	.data.b	69,95,79,83,95,83,89,83,95,80,82,79,84,69,67,84,73,79,78,95,83,89,83,67,65,76,76,32,40,40,83,116,97,116,117,115,84,121,112,101,41,48,120,70,65,41,0
00004b66 5359535f 
00004b6a 4f52505f 
00004b6e 54434554 
00004b72 5f4e4f49 
00004b76 43535953 
00004b7a 204c4c41 
00004b7e 74532828 
00004b82 73757461 
00004b86 65707954 
00004b8a 46783029 
00004b8e 002941 
00004b91 01        13014 	.data.b	1
00004b92 7a        13015 	.data.b	122
00004b93 534f5f45  13016 	.data.b	69,95,79,83,95,83,89,83,95,80,82,79,84,69,67,84,73,79,78,95,73,82,81,32,40,40,83,116,97,116,117,115,84,121,112,101,41,48,120,70,66,41,0
00004b97 5359535f 
00004b9b 4f52505f 
00004b9f 54434554 
00004ba3 5f4e4f49 
00004ba7 20515249 
00004bab 74532828 
00004baf 73757461 
00004bb3 65707954 
00004bb7 46783029 
00004bbb 002942 
00004bbe 01        13017 	.data.b	1
00004bbf 7c        13018 	.data.b	124
00004bc0 534f5f45  13019 	.data.b	69,95,79,83,95,83,89,83,95,65,80,73,95,69,82,82,79,82,32,40,40,83,116,97,116,117,115,84,121,112,101,41,48,120,70,67,41,0
00004bc4 5359535f 
00004bc8 4950415f 
00004bcc 5252455f 
00004bd0 2820524f 
00004bd4 61745328 
00004bd8 54737574 
00004bdc 29657079 
00004be0 43467830 
00004be4 0029 
00004be6 01        13020 	.data.b	1
00004be7 7e        13021 	.data.b	126
00004be8 534f5f45  13022 	.data.b	69,95,79,83,95,83,89,83,95,65,83,83,69,82,84,73,79,78,32,40,40,83,116,97,116,117,115,84,121,112,101,41,48,120,70,68,41,0
00004bec 5359535f 
00004bf0 5353415f 
00004bf4 49545245 
00004bf8 28204e4f 
00004bfc 61745328 
00004c00 54737574 
00004c04 29657079 
00004c08 44467830 
00004c0c 0029 
00004c0e 01        13023 	.data.b	1
00004c0f 0180      13024 	.data.b	128,1
00004c11 534f5f45  13025 	.data.b	69,95,79,83,95,83,89,83,95,79,86,69,82,76,79,65,68,32,40,40,83,116,97,116,117,115,84,121,112,101,41,48,120,70,69,41,0
00004c15 5359535f 
00004c19 45564f5f 

                                                                      Page 306
                                                              C:\Users\Fengyuan\AppData\Local\Temp\gh_0000kos1.s
00004c1d 414f4c52 
00004c21 28282044 
00004c25 74617453 
00004c29 79547375 
00004c2d 30296570 
00004c31 29454678 
00004c35 00 
00004c36 01        13026 	.data.b	1
00004c37 01bd      13027 	.data.b	189,1
00004c39 535f534f  13028 	.data.b	79,83,95,83,84,65,84,85,83,95,84,89,80,69,95,86,65,82,73,65,78,84,40,83,116,97,116,117,115,44,86,97,114,105,97,110,116,41,32,40,40,117,105,110,116,51,50,41,32,40,40,40,117,105,110,116,51,50,41,40
00004c3d 55544154 
00004c41 59545f53 
00004c45 565f4550 
00004c49 41495241 
00004c4d 5328544e 
00004c51 75746174 
00004c55 61562c73 
00004c59 6e616972 
00004c5d 28202974 
00004c61 6e697528 
00004c65 29323374 
00004c69 28282820 
00004c6d 746e6975 
00004c71 28293233 
00004c75 69726156  13029 	.data.b	86,97,114,105,97,110,116,41,41,32,60,60,32,40,115,105,122,101,111,102,40,83,116,97,116,117,115,84,121,112,101,41,42,56,41,41,32,124,32,40,117,105,110,116,51,50,41,40,83,116,97,116,117,115,41,41,0
00004c79 29746e61 
00004c7d 3c3c2029 
00004c81 69732820 
00004c85 666f657a 
00004c89 61745328 
00004c8d 54737574 
00004c91 29657079 
00004c95 2929382a 
00004c99 28207c20 
00004c9d 746e6975 
00004ca1 28293233 
00004ca5 74617453 
00004ca9 29297375 
00004cad 00 
00004cae 04        13030 	.data.b	4
00004caf 03        13031 	.data.b	3
00004cb0 2d        13032 	.data.b	45
00004cb1 2a        13033 	.data.b	42
00004cb2 04        13034 	.data.b	4
00004cb3 03        13035 	.data.b	3
00004cb4 32        13036 	.data.b	50
00004cb5 2c        13037 	.data.b	44
00004cb6 03        13038 	.data.b	3
00004cb7 2b        13039 	.data.b	43
00004cb8 27        13040 	.data.b	39
00004cb9 04        13041 	.data.b	4
00004cba 01        13042 	.data.b	1
00004cbb 37        13043 	.data.b	55
00004cbc 435f534f  13044 	.data.b	79,83,95,67,79,82,69,95,73,68,95,48,32,79,83,95,67,79,82,69,95,73,68,95,48,0
00004cc0 5f45524f 
00004cc4 305f4449 
00004cc8 5f534f20 
00004ccc 45524f43 
00004cd0 5f44495f 
00004cd4 0030 
00004cd6 04        13045 	.data.b	4

                                                                      Page 307
                                                              C:\Users\Fengyuan\AppData\Local\Temp\gh_0000kos1.s
00004cd7 03        13046 	.data.b	3
00004cd8 50        13047 	.data.b	80
00004cd9 10        13048 	.data.b	16
00004cda 04        13049 	.data.b	4
00004cdb 03        13050 	.data.b	3
00004cdc 58        13051 	.data.b	88
00004cdd 10        13052 	.data.b	16
00004cde 04        13053 	.data.b	4
00004cdf 03        13054 	.data.b	3
00004ce0 5c        13055 	.data.b	92
00004ce1 10        13056 	.data.b	16
00004ce2 04        13057 	.data.b	4
00004ce3 03        13058 	.data.b	3
00004ce4 64        13059 	.data.b	100
00004ce5 10        13060 	.data.b	16
00004ce6 04        13061 	.data.b	4
00004ce7 03        13062 	.data.b	3
00004ce8 68        13063 	.data.b	104
00004ce9 10        13064 	.data.b	16
00004cea 04        13065 	.data.b	4
00004ceb 03        13066 	.data.b	3
00004cec 70        13067 	.data.b	112
00004ced 10        13068 	.data.b	16
00004cee 04        13069 	.data.b	4
00004cef 03        13070 	.data.b	3
00004cf0 74        13071 	.data.b	116
00004cf1 10        13072 	.data.b	16
00004cf2 04        13073 	.data.b	4
00004cf3 03        13074 	.data.b	3
00004cf4 7c        13075 	.data.b	124
00004cf5 10        13076 	.data.b	16
00004cf6 04        13077 	.data.b	4
00004cf7 03        13078 	.data.b	3
00004cf8 0180      13079 	.data.b	128,1
00004cfa 10        13080 	.data.b	16
00004cfb 04        13081 	.data.b	4
00004cfc 03        13082 	.data.b	3
00004cfd 0188      13083 	.data.b	136,1
00004cff 10        13084 	.data.b	16
00004d00 04        13085 	.data.b	4
00004d01 04        13086 	.data.b	4
00004d02 03        13087 	.data.b	3
00004d03 2d        13088 	.data.b	45
00004d04 2d        13089 	.data.b	45
00004d05 01        13090 	.data.b	1
00004d06 21        13091 	.data.b	33
00004d07 485f534f  13092 	.data.b	79,83,95,72,65,76,95,79,83,73,78,84,95,72,32,0
00004d0b 4f5f4c41 
00004d0f 544e4953 
00004d13 0020485f 
00004d17 03        13093 	.data.b	3
00004d18 2a        13094 	.data.b	42
00004d19 2b        13095 	.data.b	43
00004d1a 04        13096 	.data.b	4
00004d1b 03        13097 	.data.b	3
00004d1c 2d        13098 	.data.b	45
00004d1d 26        13099 	.data.b	38
00004d1e 04        13100 	.data.b	4
00004d1f 04        13101 	.data.b	4
00004d20 03        13102 	.data.b	3
00004d21 02e4      13103 	.data.b	228,2

                                                                      Page 308
                                                              C:\Users\Fengyuan\AppData\Local\Temp\gh_0000kos1.s
00004d23 10        13104 	.data.b	16
00004d24 04        13105 	.data.b	4
00004d25 03        13106 	.data.b	3
00004d26 02fd      13107 	.data.b	253,2
00004d28 10        13108 	.data.b	16
00004d29 04        13109 	.data.b	4
00004d2a 03        13110 	.data.b	3
00004d2b 03e0      13111 	.data.b	224,3
00004d2d 10        13112 	.data.b	16
00004d2e 04        13113 	.data.b	4
00004d2f 03        13114 	.data.b	3
00004d30 03f4      13115 	.data.b	244,3
00004d32 10        13116 	.data.b	16
00004d33 04        13117 	.data.b	4
00004d34 04        13118 	.data.b	4
00004d35 03        13119 	.data.b	3
00004d36 0389      13120 	.data.b	137,3
00004d38 27        13121 	.data.b	39
00004d39 04        13122 	.data.b	4
00004d3a 03        13123 	.data.b	3
00004d3b 038a      13124 	.data.b	138,3
00004d3d 2a        13125 	.data.b	42
00004d3e 04        13126 	.data.b	4
00004d3f 03        13127 	.data.b	3
00004d40 038f      13128 	.data.b	143,3
00004d42 2e        13129 	.data.b	46
00004d43 03        13130 	.data.b	3
00004d44 7b        13131 	.data.b	123
00004d45 2d        13132 	.data.b	45
00004d46 04        13133 	.data.b	4
00004d47 03        13134 	.data.b	3
00004d48 7e        13135 	.data.b	126
00004d49 26        13136 	.data.b	38
00004d4a 04        13137 	.data.b	4
00004d4b 04        13138 	.data.b	4
00004d4c 01        13139 	.data.b	1
00004d4d 03f7      13140 	.data.b	247,3
00004d4f 535f534f  13141 	.data.b	79,83,95,83,84,65,82,84,95,83,69,67,95,67,79,68,69,32,0
00004d53 54524154 
00004d57 4345535f 
00004d5b 444f435f 
00004d5f 002045 
00004d62 03        13142 	.data.b	3
00004d63 03f8      13143 	.data.b	248,3
00004d65 2f        13144 	.data.b	47
00004d66 01        13145 	.data.b	1
00004d67 24        13146 	.data.b	36
00004d68 4d4d454d  13147 	.data.b	77,69,77,77,65,80,95,69,82,82,79,82,32,0
00004d6c 455f5041 
00004d70 524f5252 
00004d74 0020 
00004d76 03        13148 	.data.b	3
00004d77 26        13149 	.data.b	38
00004d78 30        13150 	.data.b	48
00004d79 01        13151 	.data.b	1
00004d7a 26        13152 	.data.b	38
00004d7b 4d5f534f  13153 	.data.b	79,83,95,77,69,77,77,65,80,95,83,69,67,84,73,79,78,95,79,80,69,78,32,0
00004d7f 414d4d45 
00004d83 45535f50 
00004d87 4f495443 
00004d8b 504f5f4e 

                                                                      Page 309
                                                              C:\Users\Fengyuan\AppData\Local\Temp\gh_0000kos1.s
00004d8f 00204e45 
00004d93 01        13154 	.data.b	1
00004d94 27        13155 	.data.b	39
00004d95 435f534f  13156 	.data.b	79,83,95,67,79,68,69,95,79,80,69,78,32,0
00004d99 5f45444f 
00004d9d 4e45504f 
00004da1 0020 
00004da3 04        13157 	.data.b	4
00004da4 04        13158 	.data.b	4
00004da5 01        13159 	.data.b	1
00004da6 29d2      13160 	.data.b	210,41
00004da8 535f534f  13161 	.data.b	79,83,95,83,84,79,80,95,83,69,67,95,67,79,68,69,32,0
00004dac 5f504f54 
00004db0 5f434553 
00004db4 45444f43 
00004db8 0020 
00004dba 03        13162 	.data.b	3
00004dbb 29d3      13163 	.data.b	211,41
00004dbd 2f        13164 	.data.b	47
00004dbe 01        13165 	.data.b	1
00004dbf 24        13166 	.data.b	36
00004dc0 4d4d454d  13167 	.data.b	77,69,77,77,65,80,95,69,82,82,79,82,32,0
00004dc4 455f5041 
00004dc8 524f5252 
00004dcc 0020 
00004dce 03        13168 	.data.b	3
00004dcf 26        13169 	.data.b	38
00004dd0 30        13170 	.data.b	48
00004dd1 04        13171 	.data.b	4
00004dd2 04        13172 	.data.b	4
00004dd3 04        13173 	.data.b	4
00004dd4 03        13174 	.data.b	3
00004dd5 21        13175 	.data.b	33
00004dd6 10        13176 	.data.b	16
00004dd7 04        13177 	.data.b	4
00004dd8 03        13178 	.data.b	3
00004dd9 26        13179 	.data.b	38
00004dda 10        13180 	.data.b	16
00004ddb 04        13181 	.data.b	4
00004ddc 01        13182 	.data.b	1
00004ddd 28        13183 	.data.b	40
00004dde 4d686353  13184 	.data.b	83,99,104,77,95,69,110,116,101,114,95,67,97,110,84,112,95,67,65,78,84,80,95,69,88,67,76,85,83,73,86,69,95,65,82,69,65,95,48,40,41,32,83,117,115,112,101,110,100,65,108,108,73,110,116,101,114,114,117,112
00004de2 746e455f 
00004de6 435f7265 
00004dea 70546e61 
00004dee 4e41435f 
00004df2 455f5054 
00004df6 554c4358 
00004dfa 45564953 
00004dfe 4552415f 
00004e02 28305f41 
00004e06 75532029 
00004e0a 6e657073 
00004e0e 6c6c4164 
00004e12 65746e49 
00004e16 70757272 
00004e1a 29287374  13185 	.data.b	116,115,40,41,0
00004e1e 00 
00004e1f 01        13186 	.data.b	1
00004e20 2a        13187 	.data.b	42
00004e21 4d686353  13188 	.data.b	83,99,104,77,95,69,120,105,116,95,67,97,110,84,112,95,67,65,78,84,80,95,69,88,67,76,85,83,73,86,69,95,65,82,69,65,95,48,40,41,32,82,101,115,117,109,101,65,108,108,73,110,116,101,114,114,117,112,116,115

                                                                      Page 310
                                                              C:\Users\Fengyuan\AppData\Local\Temp\gh_0000kos1.s
00004e25 6978455f 
00004e29 61435f74 
00004e2d 5f70546e 
00004e31 544e4143 
00004e35 58455f50 
00004e39 53554c43 
00004e3d 5f455649 
00004e41 41455241 
00004e45 2928305f 
00004e49 73655220 
00004e4d 41656d75 
00004e51 6e496c6c 
00004e55 72726574 
00004e59 73747075 
00004e5d 002928    13189 	.data.b	40,41,0
00004e60 04        13190 	.data.b	4
00004e61 03        13191 	.data.b	3
00004e62 7b        13192 	.data.b	123
00004e63 31        13193 	.data.b	49
00004e64 03        13194 	.data.b	3
00004e65 4e        13195 	.data.b	78
00004e66 32        13196 	.data.b	50
00004e67 01        13197 	.data.b	1
00004e68 2b        13198 	.data.b	43
00004e69 5f544544  13199 	.data.b	68,69,84,95,69,78,65,66,76,69,68,32,83,84,68,95,79,78,0
00004e6d 42414e45 
00004e71 2044454c 
00004e75 5f445453 
00004e79 004e4f 
00004e7c 01        13200 	.data.b	1
00004e7d 2c        13201 	.data.b	44
00004e7e 5f544544  13202 	.data.b	68,69,84,95,86,69,82,83,73,79,78,95,73,78,70,79,95,65,80,73,32,83,84,68,95,79,70,70,0
00004e82 53524556 
00004e86 5f4e4f49 
00004e8a 4f464e49 
00004e8e 4950415f 
00004e92 44545320 
00004e96 46464f5f 
00004e9a 00 
00004e9b 01        13203 	.data.b	1
00004e9c 2d        13204 	.data.b	45
00004e9d 5f544544  13205 	.data.b	68,69,84,95,68,69,66,85,71,95,69,78,65,66,76,69,68,32,83,84,68,95,79,70,70,0
00004ea1 55424544 
00004ea5 4e455f47 
00004ea9 454c4241 
00004ead 54532044 
00004eb1 464f5f44 
00004eb5 0046 
00004eb7 03        13206 	.data.b	3
00004eb8 0288      13207 	.data.b	136,2
00004eba 10        13208 	.data.b	16
00004ebb 04        13209 	.data.b	4
00004ebc 03        13210 	.data.b	3
00004ebd 028e      13211 	.data.b	142,2
00004ebf 10        13212 	.data.b	16
00004ec0 04        13213 	.data.b	4
00004ec1 04        13214 	.data.b	4
00004ec2 03        13215 	.data.b	3
00004ec3 01d5      13216 	.data.b	213,1
00004ec5 10        13217 	.data.b	16
00004ec6 04        13218 	.data.b	4

                                                                      Page 311
                                                              C:\Users\Fengyuan\AppData\Local\Temp\gh_0000kos1.s
00004ec7 03        13219 	.data.b	3
00004ec8 02d3      13220 	.data.b	211,2
00004eca 10        13221 	.data.b	16
00004ecb 04        13222 	.data.b	4
00004ecc 04        13223 	.data.b	4
00004ecd 03        13224 	.data.b	3
00004ece 0184      13225 	.data.b	132,1
00004ed0 33        13226 	.data.b	51
00004ed1 01        13227 	.data.b	1
00004ed2 2c        13228 	.data.b	44
00004ed3 544e4143  13229 	.data.b	67,65,78,84,80,95,80,67,73,95,84,89,80,69,95,83,70,32,40,48,120,48,48,117,41,0
00004ed7 43505f50 
00004edb 59545f49 
00004edf 535f4550 
00004ee3 30282046 
00004ee7 75303078 
00004eeb 0029 
00004eed 01        13230 	.data.b	1
00004eee 2d        13231 	.data.b	45
00004eef 544e4143  13232 	.data.b	67,65,78,84,80,95,80,67,73,95,84,89,80,69,95,70,70,32,40,48,120,49,48,117,41,0
00004ef3 43505f50 
00004ef7 59545f49 
00004efb 465f4550 
00004eff 30282046 
00004f03 75303178 
00004f07 0029 
00004f09 01        13233 	.data.b	1
00004f0a 2e        13234 	.data.b	46
00004f0b 544e4143  13235 	.data.b	67,65,78,84,80,95,80,67,73,95,84,89,80,69,95,67,70,32,40,48,120,50,48,117,41,0
00004f0f 43505f50 
00004f13 59545f49 
00004f17 435f4550 
00004f1b 30282046 
00004f1f 75303278 
00004f23 0029 
00004f25 01        13236 	.data.b	1
00004f26 2f        13237 	.data.b	47
00004f27 544e4143  13238 	.data.b	67,65,78,84,80,95,80,67,73,95,84,89,80,69,95,70,67,32,40,48,120,51,48,117,41,0
00004f2b 43505f50 
00004f2f 59545f49 
00004f33 465f4550 
00004f37 30282043 
00004f3b 75303378 
00004f3f 0029 
00004f41 01        13239 	.data.b	1
00004f42 33        13240 	.data.b	51
00004f43 544e4143  13241 	.data.b	67,65,78,84,80,95,80,67,73,95,84,89,80,69,95,77,65,83,75,32,40,48,120,70,48,117,41,0
00004f47 43505f50 
00004f4b 59545f49 
00004f4f 4d5f4550 
00004f53 204b5341 
00004f57 46783028 
00004f5b 00297530 
00004f5f 01        13242 	.data.b	1
00004f60 34        13243 	.data.b	52
00004f61 544e4143  13244 	.data.b	67,65,78,84,80,95,80,67,73,95,83,78,95,77,65,83,75,32,40,48,120,48,70,117,41,0
00004f65 43505f50 
00004f69 4e535f49 
00004f6d 53414d5f 
00004f71 3028204b 
00004f75 75463078 

                                                                      Page 312
                                                              C:\Users\Fengyuan\AppData\Local\Temp\gh_0000kos1.s
00004f79 0029 
00004f7b 01        13245 	.data.b	1
00004f7c 37        13246 	.data.b	55
00004f7d 544e4143  13247 	.data.b	67,65,78,84,80,95,80,67,73,95,76,69,78,71,84,72,95,83,70,32,49,0
00004f81 43505f50 
00004f85 454c5f49 
00004f89 4854474e 
00004f8d 2046535f 
00004f91 0031 
00004f93 01        13248 	.data.b	1
00004f94 38        13249 	.data.b	56
00004f95 544e4143  13250 	.data.b	67,65,78,84,80,95,80,67,73,95,76,69,78,71,84,72,95,70,70,32,50,0
00004f99 43505f50 
00004f9d 454c5f49 
00004fa1 4854474e 
00004fa5 2046465f 
00004fa9 0032 
00004fab 01        13251 	.data.b	1
00004fac 39        13252 	.data.b	57
00004fad 544e4143  13253 	.data.b	67,65,78,84,80,95,80,67,73,95,76,69,78,71,84,72,95,67,70,32,49,0
00004fb1 43505f50 
00004fb5 454c5f49 
00004fb9 4854474e 
00004fbd 2046435f 
00004fc1 0031 
00004fc3 01        13254 	.data.b	1
00004fc4 3a        13255 	.data.b	58
00004fc5 544e4143  13256 	.data.b	67,65,78,84,80,95,80,67,73,95,76,69,78,71,84,72,95,70,67,32,51,0
00004fc9 43505f50 
00004fcd 454c5f49 
00004fd1 4854474e 
00004fd5 2043465f 
00004fd9 0033 
00004fdb 01        13257 	.data.b	1
00004fdc 3f        13258 	.data.b	63
00004fdd 544e4143  13259 	.data.b	67,65,78,84,80,95,67,65,78,50,48,95,70,82,65,77,69,95,76,69,78,71,84,72,32,56,0
00004fe1 41435f50 
00004fe5 5f30324e 
00004fe9 4d415246 
00004fed 454c5f45 
00004ff1 4854474e 
00004ff5 003820 
00004ff8 01        13260 	.data.b	1
00004ff9 40        13261 	.data.b	64
00004ffa 544e4143  13262 	.data.b	67,65,78,84,80,95,70,70,95,68,76,95,49,50,66,73,84,32,52,48,57,53,0
00004ffe 46465f50 
00005002 5f4c445f 
00005006 49423231 
0000500a 30342054 
0000500e 003539 
00005011 01        13263 	.data.b	1
00005012 44        13264 	.data.b	68
00005013 544e4143  13265 	.data.b	67,65,78,84,80,95,77,65,83,75,95,83,70,95,76,69,78,71,84,72,32,40,48,120,48,70,117,41,0
00005017 414d5f50 
0000501b 535f4b53 
0000501f 454c5f46 
00005023 4854474e 
00005027 78302820 
0000502b 29754630 
0000502f 00 
00005030 01        13266 	.data.b	1

                                                                      Page 313
                                                              C:\Users\Fengyuan\AppData\Local\Temp\gh_0000kos1.s
00005031 45        13267 	.data.b	69
00005032 544e4143  13268 	.data.b	67,65,78,84,80,95,77,65,83,75,95,70,70,95,76,69,78,71,84,72,32,40,48,120,48,70,117,41,0
00005036 414d5f50 
0000503a 465f4b53 
0000503e 454c5f46 
00005042 4854474e 
00005046 78302820 
0000504a 29754630 
0000504e 00 
0000504f 01        13269 	.data.b	1
00005050 47        13270 	.data.b	71
00005051 544e4143  13271 	.data.b	67,65,78,84,80,95,77,65,83,75,95,70,83,32,40,48,120,48,70,117,41,0
00005055 414d5f50 
00005059 465f4b53 
0000505d 30282053 
00005061 75463078 
00005065 0029 
00005067 01        13272 	.data.b	1
00005068 4a        13273 	.data.b	74
00005069 544e4143  13274 	.data.b	67,65,78,84,80,95,70,76,79,87,83,84,65,84,85,83,95,67,84,83,32,40,48,120,48,48,117,41,0
0000506d 4c465f50 
00005071 5453574f 
00005075 53555441 
00005079 5354435f 
0000507d 78302820 
00005081 29753030 
00005085 00 
00005086 01        13275 	.data.b	1
00005087 4b        13276 	.data.b	75
00005088 544e4143  13277 	.data.b	67,65,78,84,80,95,70,76,79,87,83,84,65,84,85,83,95,87,84,32,40,48,120,48,49,117,41,0
0000508c 4c465f50 
00005090 5453574f 
00005094 53555441 
00005098 2054575f 
0000509c 30783028 
000050a0 00297531 
000050a4 01        13278 	.data.b	1
000050a5 4c        13279 	.data.b	76
000050a6 544e4143  13280 	.data.b	67,65,78,84,80,95,70,76,79,87,83,84,65,84,85,83,95,79,86,70,76,32,40,48,120,48,50,117,41,0
000050aa 4c465f50 
000050ae 5453574f 
000050b2 53555441 
000050b6 46564f5f 
000050ba 3028204c 
000050be 75323078 
000050c2 0029 
000050c4 01        13281 	.data.b	1
000050c5 4f        13282 	.data.b	79
000050c6 544e4143  13283 	.data.b	67,65,78,84,80,95,83,84,77,73,78,95,77,73,76,76,73,83,69,67,95,77,65,88,32,40,48,120,55,70,117,41,0
000050ca 54535f50 
000050ce 5f4e494d 
000050d2 4c4c494d 
000050d6 43455349 
000050da 58414d5f 
000050de 78302820 
000050e2 29754637 
000050e6 00 
000050e7 01        13284 	.data.b	1
000050e8 50        13285 	.data.b	80
000050e9 544e4143  13286 	.data.b	67,65,78,84,80,95,83,84,77,73,78,95,77,73,67,82,79,83,69,67,95,77,73,78,32,40,48,120,70,49,117,41,0
000050ed 54535f50 

                                                                      Page 314
                                                              C:\Users\Fengyuan\AppData\Local\Temp\gh_0000kos1.s
000050f1 5f4e494d 
000050f5 5243494d 
000050f9 4345534f 
000050fd 4e494d5f 
00005101 78302820 
00005105 29753146 
00005109 00 
0000510a 01        13287 	.data.b	1
0000510b 51        13288 	.data.b	81
0000510c 544e4143  13289 	.data.b	67,65,78,84,80,95,83,84,77,73,78,95,77,73,67,82,79,83,69,67,95,77,65,88,32,40,48,120,70,57,117,41,0
00005110 54535f50 
00005114 5f4e494d 
00005118 5243494d 
0000511c 4345534f 
00005120 58414d5f 
00005124 78302820 
00005128 29753946 
0000512c 00 
0000512d 01        13290 	.data.b	1
0000512e 54        13291 	.data.b	84
0000512f 544e4143  13292 	.data.b	67,65,78,84,80,95,83,78,95,70,73,82,83,84,95,67,70,32,40,48,120,48,49,117,41,0
00005133 4e535f50 
00005137 5249465f 
0000513b 435f5453 
0000513f 30282046 
00005143 75313078 
00005147 0029 
00005149 01        13293 	.data.b	1
0000514a 57        13294 	.data.b	87
0000514b 544e4143  13295 	.data.b	67,65,78,84,80,95,65,80,80,76,95,78,79,84,95,73,78,70,79,82,77,69,68,32,40,48,120,48,48,117,41,0
0000514f 50415f50 
00005153 4e5f4c50 
00005157 495f544f 
0000515b 524f464e 
0000515f 2044454d 
00005163 30783028 
00005167 00297530 
0000516b 01        13296 	.data.b	1
0000516c 58        13297 	.data.b	88
0000516d 544e4143  13298 	.data.b	67,65,78,84,80,95,65,80,80,76,95,73,78,70,79,82,77,69,68,32,40,48,120,48,49,117,41,0
00005171 50415f50 
00005175 495f4c50 
00005179 524f464e 
0000517d 2044454d 
00005181 30783028 
00005185 00297531 
00005189 01        13299 	.data.b	1
0000518a 5b        13300 	.data.b	91
0000518b 544e4143  13301 	.data.b	67,65,78,84,80,95,70,82,65,77,69,95,79,70,70,83,69,84,95,70,67,95,66,83,32,49,0
0000518f 52465f50 
00005193 5f454d41 
00005197 5346464f 
0000519b 465f5445 
0000519f 53425f43 
000051a3 003120 
000051a6 01        13302 	.data.b	1
000051a7 5c        13303 	.data.b	92
000051a8 544e4143  13304 	.data.b	67,65,78,84,80,95,70,82,65,77,69,95,79,70,70,83,69,84,95,70,67,95,83,84,77,73,78,32,50,0
000051ac 52465f50 
000051b0 5f454d41 
000051b4 5346464f 

                                                                      Page 315
                                                              C:\Users\Fengyuan\AppData\Local\Temp\gh_0000kos1.s
000051b8 465f5445 
000051bc 54535f43 
000051c0 204e494d 
000051c4 0032 
000051c6 01        13305 	.data.b	1
000051c7 60        13306 	.data.b	96
000051c8 544e4143  13307 	.data.b	67,65,78,84,80,95,70,82,65,77,69,95,70,67,95,77,65,88,95,76,69,78,71,84,72,32,56,0
000051cc 52465f50 
000051d0 5f454d41 
000051d4 4d5f4346 
000051d8 4c5f5841 
000051dc 54474e45 
000051e0 00382048 
000051e4 01        13308 	.data.b	1
000051e5 69        13309 	.data.b	105
000051e6 544e4143  13310 	.data.b	67,65,78,84,80,95,77,79,68,73,70,73,69,68,95,82,69,83,95,83,84,77,73,78,95,72,65,78,68,76,73,78,71,32,83,84,68,95,79,70,70,0
000051ea 4f4d5f50 
000051ee 49464944 
000051f2 525f4445 
000051f6 535f5345 
000051fa 4e494d54 
000051fe 4e41485f 
00005202 4e494c44 
00005206 54532047 
0000520a 464f5f44 
0000520e 0046 
00005210 01        13311 	.data.b	1
00005211 6f        13312 	.data.b	111
00005212 544e4143  13313 	.data.b	67,65,78,84,80,95,67,65,78,73,70,95,69,78,65,66,76,69,95,84,67,32,67,65,78,73,70,95,67,65,78,67,69,76,95,83,85,80,80,79,82,84,95,65,80,73,0
00005216 41435f50 
0000521a 5f46494e 
0000521e 42414e45 
00005222 545f454c 
00005226 41432043 
0000522a 5f46494e 
0000522e 434e4143 
00005232 535f4c45 
00005236 4f505055 
0000523a 415f5452 
0000523e 004950 
00005241 01        13314 	.data.b	1
00005242 79        13315 	.data.b	121
00005243 544e4143  13316 	.data.b	67,65,78,84,80,95,80,65,68,68,73,78,71,95,83,85,80,80,79,82,84,95,82,69,81,85,73,82,69,68,32,83,84,68,95,79,78,0
00005247 41505f50 
0000524b 4e494444 
0000524f 55535f47 
00005253 524f5050 
00005257 45525f54 
0000525b 52495551 
0000525f 53204445 
00005263 4f5f4454 
00005267 004e 
00005269 01        13317 	.data.b	1
0000526a 0180      13318 	.data.b	128,1
0000526c 544e4143  13319 	.data.b	67,65,78,84,80,95,79,80,84,95,90,69,82,79,95,83,68,85,32,48,0
00005270 504f5f50 
00005274 455a5f54 
00005278 535f4f52 
0000527c 30205544 
00005280 00 
00005281 01        13320 	.data.b	1

                                                                      Page 316
                                                              C:\Users\Fengyuan\AppData\Local\Temp\gh_0000kos1.s
00005282 0181      13321 	.data.b	129,1
00005284 544e4143  13322 	.data.b	67,65,78,84,80,95,79,80,84,95,83,73,78,71,76,69,95,83,68,85,32,49,0
00005288 504f5f50 
0000528c 49535f54 
00005290 454c474e 
00005294 5544535f 
00005298 003120 
0000529b 01        13323 	.data.b	1
0000529c 0182      13324 	.data.b	130,1
0000529e 544e4143  13325 	.data.b	67,65,78,84,80,95,79,80,84,95,77,85,76,84,73,95,83,68,85,32,50,0
000052a2 504f5f50 
000052a6 554d5f54 
000052aa 5f49544c 
000052ae 20554453 
000052b2 0032 
000052b4 01        13326 	.data.b	1
000052b5 018b      13327 	.data.b	139,1
000052b7 544e4143  13328 	.data.b	67,65,78,84,80,95,82,88,95,79,80,84,73,77,73,90,65,84,73,79,78,32,67,65,78,84,80,95,79,80,84,95,77,85,76,84,73,95,83,68,85,0
000052bb 58525f50 
000052bf 54504f5f 
000052c3 5a494d49 
000052c7 4f495441 
000052cb 4143204e 
000052cf 5f50544e 
000052d3 5f54504f 
000052d7 544c554d 
000052db 44535f49 
000052df 0055 
000052e1 01        13329 	.data.b	1
000052e2 0192      13330 	.data.b	146,1
000052e4 544e4143  13331 	.data.b	67,65,78,84,80,95,84,88,95,79,80,84,73,77,73,90,65,84,73,79,78,32,67,65,78,84,80,95,79,80,84,95,83,73,78,71,76,69,95,83,68,85,0
000052e8 58545f50 
000052ec 54504f5f 
000052f0 5a494d49 
000052f4 4f495441 
000052f8 4143204e 
000052fc 5f50544e 
00005300 5f54504f 
00005304 474e4953 
00005308 535f454c 
0000530c 005544 
0000530f 01        13332 	.data.b	1
00005310 01ad      13333 	.data.b	173,1
00005312 544e4143  13334 	.data.b	67,65,78,84,80,95,82,88,95,72,65,83,95,72,65,76,70,95,68,85,80,76,69,88,32,83,84,68,95,79,70,70,0
00005316 58525f50 
0000531a 5341485f 
0000531e 4c41485f 
00005322 55445f46 
00005326 58454c50 
0000532a 44545320 
0000532e 46464f5f 
00005332 00 
00005333 01        13335 	.data.b	1
00005334 01b0      13336 	.data.b	176,1
00005336 544e4143  13337 	.data.b	67,65,78,84,80,95,82,88,95,72,65,83,95,70,85,76,76,95,68,85,80,76,69,88,32,83,84,68,95,79,78,0
0000533a 58525f50 
0000533e 5341485f 
00005342 4c55465f 
00005346 55445f4c 
0000534a 58454c50 
0000534e 44545320 

                                                                      Page 317
                                                              C:\Users\Fengyuan\AppData\Local\Temp\gh_0000kos1.s
00005352 004e4f5f 
00005356 01        13338 	.data.b	1
00005357 01b7      13339 	.data.b	183,1
00005359 544e4143  13340 	.data.b	67,65,78,84,80,95,82,88,95,67,72,69,67,75,95,72,65,76,70,95,68,85,80,76,69,88,32,83,84,68,95,79,70,70,0
0000535d 58525f50 
00005361 4548435f 
00005365 485f4b43 
00005369 5f464c41 
0000536d 4c505544 
00005371 53205845 
00005375 4f5f4454 
00005379 004646 
0000537c 01        13341 	.data.b	1
0000537d 01bd      13342 	.data.b	189,1
0000537f 544e4143  13343 	.data.b	67,65,78,84,80,95,84,88,95,72,65,83,95,72,65,76,70,95,68,85,80,76,69,88,32,83,84,68,95,79,70,70,0
00005383 58545f50 
00005387 5341485f 
0000538b 4c41485f 
0000538f 55445f46 
00005393 58454c50 
00005397 44545320 
0000539b 46464f5f 
0000539f 00 
000053a0 01        13344 	.data.b	1
000053a1 01c0      13345 	.data.b	192,1
000053a3 544e4143  13346 	.data.b	67,65,78,84,80,95,84,88,95,72,65,83,95,70,85,76,76,95,68,85,80,76,69,88,32,83,84,68,95,79,78,0
000053a7 58545f50 
000053ab 5341485f 
000053af 4c55465f 
000053b3 55445f4c 
000053b7 58454c50 
000053bb 44545320 
000053bf 004e4f5f 
000053c3 01        13347 	.data.b	1
000053c4 01c7      13348 	.data.b	199,1
000053c6 544e4143  13349 	.data.b	67,65,78,84,80,95,84,88,95,67,72,69,67,75,95,72,65,76,70,95,68,85,80,76,69,88,32,83,84,68,95,79,70,70,0
000053ca 58545f50 
000053ce 4548435f 
000053d2 485f4b43 
000053d6 5f464c41 
000053da 4c505544 
000053de 53205845 
000053e2 4f5f4454 
000053e6 004646 
000053e9 01        13350 	.data.b	1
000053ea 01cf      13351 	.data.b	207,1
000053ec 544e4143  13352 	.data.b	67,65,78,84,80,95,82,88,95,72,65,83,95,84,65,84,89,80,69,95,70,85,78,67,84,73,79,78,65,76,32,67,65,78,84,80,95,69,88,73,83,84,83,95,70,85,78,67,84,73,79,78,65,76,95,82,88,84,65,84
000053f0 58525f50 
000053f4 5341485f 
000053f8 5441545f 
000053fc 5f455059 
00005400 434e5546 
00005404 4e4f4954 
00005408 43204c41 
0000540c 50544e41 
00005410 4958455f 
00005414 5f535453 
00005418 434e5546 
0000541c 4e4f4954 
00005420 525f4c41 
00005424 54415458 

                                                                      Page 318
                                                              C:\Users\Fengyuan\AppData\Local\Temp\gh_0000kos1.s
00005428 4f455059  13353 	.data.b	89,80,69,79,70,82,88,83,68,85,67,70,71,0
0000542c 53585246 
00005430 46435544 
00005434 0047 
00005436 01        13354 	.data.b	1
00005437 01d0      13355 	.data.b	208,1
00005439 544e4143  13356 	.data.b	67,65,78,84,80,95,84,88,95,72,65,83,95,84,65,84,89,80,69,95,70,85,78,67,84,73,79,78,65,76,32,67,65,78,84,80,95,69,88,73,83,84,83,95,70,85,78,67,84,73,79,78,65,76,95,84,88,84,65,84
0000543d 58545f50 
00005441 5341485f 
00005445 5441545f 
00005449 5f455059 
0000544d 434e5546 
00005451 4e4f4954 
00005455 43204c41 
00005459 50544e41 
0000545d 4958455f 
00005461 5f535453 
00005465 434e5546 
00005469 4e4f4954 
0000546d 545f4c41 
00005471 54415458 
00005475 4f455059  13357 	.data.b	89,80,69,79,70,84,88,83,68,85,67,70,71,0
00005479 53585446 
0000547d 46435544 
00005481 0047 
00005483 01        13358 	.data.b	1
00005484 01d8      13359 	.data.b	216,1
00005486 544e4143  13360 	.data.b	67,65,78,84,80,95,82,88,95,72,65,83,95,67,65,78,70,68,32,83,84,68,95,79,70,70,0
0000548a 58525f50 
0000548e 5341485f 
00005492 4e41435f 
00005496 53204446 
0000549a 4f5f4454 
0000549e 004646 
000054a1 01        13361 	.data.b	1
000054a2 01da      13362 	.data.b	218,1
000054a4 544e4143  13363 	.data.b	67,65,78,84,80,95,82,88,95,72,65,83,95,67,65,78,50,48,32,67,65,78,84,80,95,69,88,73,83,84,83,95,67,65,78,50,48,95,67,65,78,84,89,80,69,79,70,82,88,83,68,85,67,70,71,0
000054a8 58525f50 
000054ac 5341485f 
000054b0 4e41435f 
000054b4 43203032 
000054b8 50544e41 
000054bc 4958455f 
000054c0 5f535453 
000054c4 324e4143 
000054c8 41435f30 
000054cc 5059544e 
000054d0 52464f45 
000054d4 55445358 
000054d8 00474643 
000054dc 01        13364 	.data.b	1
000054dd 01de      13365 	.data.b	222,1
000054df 544e4143  13366 	.data.b	67,65,78,84,80,95,82,88,95,67,72,69,67,75,95,67,65,78,84,89,80,69,32,83,84,68,95,79,70,70,0
000054e3 58525f50 
000054e7 4548435f 
000054eb 435f4b43 
000054ef 59544e41 
000054f3 53204550 
000054f7 4f5f4454 
000054fb 004646 
000054fe 01        13367 	.data.b	1

                                                                      Page 319
                                                              C:\Users\Fengyuan\AppData\Local\Temp\gh_0000kos1.s
000054ff 01e4      13368 	.data.b	228,1
00005501 544e4143  13369 	.data.b	67,65,78,84,80,95,84,88,95,72,65,83,95,67,65,78,70,68,32,83,84,68,95,79,70,70,0
00005505 58545f50 
00005509 5341485f 
0000550d 4e41435f 
00005511 53204446 
00005515 4f5f4454 
00005519 004646 
0000551c 01        13370 	.data.b	1
0000551d 01e6      13371 	.data.b	230,1
0000551f 544e4143  13372 	.data.b	67,65,78,84,80,95,84,88,95,72,65,83,95,67,65,78,50,48,32,67,65,78,84,80,95,69,88,73,83,84,83,95,67,65,78,50,48,95,67,65,78,84,89,80,69,79,70,84,88,83,68,85,67,70,71,0
00005523 58545f50 
00005527 5341485f 
0000552b 4e41435f 
0000552f 43203032 
00005533 50544e41 
00005537 4958455f 
0000553b 5f535453 
0000553f 324e4143 
00005543 41435f30 
00005547 5059544e 
0000554b 54464f45 
0000554f 55445358 
00005553 00474643 
00005557 01        13373 	.data.b	1
00005558 01ea      13374 	.data.b	234,1
0000555a 544e4143  13375 	.data.b	67,65,78,84,80,95,84,88,95,67,72,69,67,75,95,67,65,78,84,89,80,69,32,83,84,68,95,79,70,70,0
0000555e 58545f50 
00005562 4548435f 
00005566 435f4b43 
0000556a 59544e41 
0000556e 53204550 
00005572 4f5f4454 
00005576 004646 
00005579 01        13376 	.data.b	1
0000557a 01f3      13377 	.data.b	243,1
0000557c 544e4143  13378 	.data.b	67,65,78,84,80,95,82,88,95,72,65,83,95,83,84,65,78,68,65,82,68,95,65,68,68,82,69,83,83,73,78,71,32,83,84,68,95,79,78,0
00005580 58525f50 
00005584 5341485f 
00005588 4154535f 
0000558c 5241444e 
00005590 44415f44 
00005594 53455244 
00005598 474e4953 
0000559c 44545320 
000055a0 004e4f5f 
000055a4 01        13379 	.data.b	1
000055a5 01fa      13380 	.data.b	250,1
000055a7 544e4143  13381 	.data.b	67,65,78,84,80,95,82,88,95,72,65,83,95,69,88,84,69,78,68,69,68,95,65,68,68,82,69,83,83,73,78,71,32,83,84,68,95,79,70,70,0
000055ab 58525f50 
000055af 5341485f 
000055b3 5458455f 
000055b7 45444e45 
000055bb 44415f44 
000055bf 53455244 
000055c3 474e4953 
000055c7 44545320 
000055cb 46464f5f 
000055cf 00 
000055d0 01        13382 	.data.b	1
000055d1 01ff      13383 	.data.b	255,1

                                                                      Page 320
                                                              C:\Users\Fengyuan\AppData\Local\Temp\gh_0000kos1.s
000055d3 544e4143  13384 	.data.b	67,65,78,84,80,95,82,88,95,72,65,83,95,77,73,88,69,68,49,49,95,65,68,68,82,69,83,83,73,78,71,32,83,84,68,95,79,70,70,0
000055d7 58525f50 
000055db 5341485f 
000055df 58494d5f 
000055e3 31314445 
000055e7 4444415f 
000055eb 53534552 
000055ef 20474e49 
000055f3 5f445453 
000055f7 0046464f 
000055fb 01        13385 	.data.b	1
000055fc 0286      13386 	.data.b	134,2
000055fe 544e4143  13387 	.data.b	67,65,78,84,80,95,82,88,95,67,72,69,67,75,95,65,68,68,82,69,83,83,73,78,71,95,70,79,82,77,65,84,32,83,84,68,95,79,70,70,0
00005602 58525f50 
00005606 4548435f 
0000560a 415f4b43 
0000560e 45524444 
00005612 4e495353 
00005616 4f465f47 
0000561a 54414d52 
0000561e 44545320 
00005622 46464f5f 
00005626 00 
00005627 01        13388 	.data.b	1
00005628 028b      13389 	.data.b	139,2
0000562a 544e4143  13390 	.data.b	67,65,78,84,80,95,84,88,95,72,65,83,95,83,84,65,78,68,65,82,68,95,65,68,68,82,69,83,83,73,78,71,32,83,84,68,95,79,78,0
0000562e 58545f50 
00005632 5341485f 
00005636 4154535f 
0000563a 5241444e 
0000563e 44415f44 
00005642 53455244 
00005646 474e4953 
0000564a 44545320 
0000564e 004e4f5f 
00005652 01        13391 	.data.b	1
00005653 0292      13392 	.data.b	146,2
00005655 544e4143  13393 	.data.b	67,65,78,84,80,95,84,88,95,72,65,83,95,69,88,84,69,78,68,69,68,95,65,68,68,82,69,83,83,73,78,71,32,83,84,68,95,79,70,70,0
00005659 58545f50 
0000565d 5341485f 
00005661 5458455f 
00005665 45444e45 
00005669 44415f44 
0000566d 53455244 
00005671 474e4953 
00005675 44545320 
00005679 46464f5f 
0000567d 00 
0000567e 01        13394 	.data.b	1
0000567f 0297      13395 	.data.b	151,2
00005681 544e4143  13396 	.data.b	67,65,78,84,80,95,84,88,95,72,65,83,95,77,73,88,69,68,49,49,95,65,68,68,82,69,83,83,73,78,71,32,83,84,68,95,79,70,70,0
00005685 58545f50 
00005689 5341485f 
0000568d 58494d5f 
00005691 31314445 
00005695 4444415f 
00005699 53534552 
0000569d 20474e49 
000056a1 5f445453 
000056a5 0046464f 
000056a9 01        13397 	.data.b	1

                                                                      Page 321
                                                              C:\Users\Fengyuan\AppData\Local\Temp\gh_0000kos1.s
000056aa 029f      13398 	.data.b	159,2
000056ac 544e4143  13399 	.data.b	67,65,78,84,80,95,84,88,95,67,72,69,67,75,95,65,68,68,82,69,83,83,73,78,71,95,70,79,82,77,65,84,32,83,84,68,95,79,70,70,0
000056b0 58545f50 
000056b4 4548435f 
000056b8 415f4b43 
000056bc 45524444 
000056c0 4e495353 
000056c4 4f465f47 
000056c8 54414d52 
000056cc 44545320 
000056d0 46464f5f 
000056d4 00 
000056d5 01        13400 	.data.b	1
000056d6 02a6      13401 	.data.b	166,2
000056d8 544e4143  13402 	.data.b	67,65,78,84,80,95,83,85,80,80,79,82,84,95,77,85,76,84,73,80,76,69,95,65,68,68,82,69,83,83,73,78,71,32,83,84,68,95,79,70,70,0
000056dc 55535f50 
000056e0 524f5050 
000056e4 554d5f54 
000056e8 5049544c 
000056ec 415f454c 
000056f0 45524444 
000056f4 4e495353 
000056f8 54532047 
000056fc 464f5f44 
00005700 0046 
00005702 01        13403 	.data.b	1
00005703 02a9      13404 	.data.b	169,2
00005705 544e4143  13405 	.data.b	67,65,78,84,80,95,83,85,80,80,79,82,84,95,83,84,65,78,68,65,82,68,95,65,68,68,82,69,83,83,73,78,71,32,83,84,68,95,79,78,0
00005709 55535f50 
0000570d 524f5050 
00005711 54535f54 
00005715 41444e41 
00005719 415f4452 
0000571d 45524444 
00005721 4e495353 
00005725 54532047 
00005729 4e4f5f44 
0000572d 00 
0000572e 01        13406 	.data.b	1
0000572f 02b0      13407 	.data.b	176,2
00005731 544e4143  13408 	.data.b	67,65,78,84,80,95,83,85,80,80,79,82,84,95,69,88,84,69,78,68,69,68,95,65,68,68,82,69,83,83,73,78,71,32,83,84,68,95,79,70,70,0
00005735 55535f50 
00005739 524f5050 
0000573d 58455f54 
00005741 444e4554 
00005745 415f4445 
00005749 45524444 
0000574d 4e495353 
00005751 54532047 
00005755 464f5f44 
00005759 0046 
0000575b 01        13409 	.data.b	1
0000575c 02b5      13410 	.data.b	181,2
0000575e 544e4143  13411 	.data.b	67,65,78,84,80,95,83,85,80,80,79,82,84,95,77,73,88,69,68,49,49,95,65,68,68,82,69,83,83,73,78,71,32,83,84,68,95,79,70,70,0
00005762 55535f50 
00005766 524f5050 
0000576a 494d5f54 
0000576e 31444558 
00005772 44415f31 
00005776 53455244 
0000577a 474e4953 

                                                                      Page 322
                                                              C:\Users\Fengyuan\AppData\Local\Temp\gh_0000kos1.s
0000577e 44545320 
00005782 46464f5f 
00005786 00 
00005787 01        13412 	.data.b	1
00005788 02c0      13413 	.data.b	192,2
0000578a 546e6143  13414 	.data.b	67,97,110,84,112,95,67,102,103,95,71,101,116,78,117,109,82,120,67,104,97,110,110,101,108,115,40,41,32,40,40,80,100,117,73,100,84,121,112,101,41,40,67,97,110,84,112,95,71,101,116,83,105,122,101,79,102,82,120,83
0000578e 66435f70 
00005792 65475f67 
00005796 6d754e74 
0000579a 68437852 
0000579e 656e6e61 
000057a2 2928736c 
000057a6 50282820 
000057aa 64497564 
000057ae 65707954 
000057b2 61432829 
000057b6 5f70546e 
000057ba 53746547 
000057be 4f657a69 
000057c2 53785266 
000057c6 65746174  13415 	.data.b	116,97,116,101,40,41,41,41,0
000057ca 29292928 
000057ce 00 
000057cf 01        13416 	.data.b	1
000057d0 02c1      13417 	.data.b	193,2
000057d2 546e6143  13418 	.data.b	67,97,110,84,112,95,67,102,103,95,71,101,116,78,117,109,82,120,72,100,108,115,40,41,32,40,40,80,100,117,73,100,84,121,112,101,41,40,67,97,110,84,112,95,71,101,116,83,105,122,101,79,102,82,120,83,100,117,67,102
000057d6 66435f70 
000057da 65475f67 
000057de 6d754e74 
000057e2 64487852 
000057e6 2928736c 
000057ea 50282820 
000057ee 64497564 
000057f2 65707954 
000057f6 61432829 
000057fa 5f70546e 
000057fe 53746547 
00005802 4f657a69 
00005806 53785266 
0000580a 66437564 
0000580e 29292867  13419 	.data.b	103,40,41,41,41,0
00005812 0029 
00005814 01        13420 	.data.b	1
00005815 02c2      13421 	.data.b	194,2
00005817 546e6143  13422 	.data.b	67,97,110,84,112,95,67,102,103,95,71,101,116,78,117,109,82,120,80,100,117,115,40,41,32,40,40,80,100,117,73,100,84,121,112,101,41,40,67,97,110,84,112,95,71,101,116,83,105,122,101,79,102,82,120,80,100,117,77,97
0000581b 66435f70 
0000581f 65475f67 
00005823 6d754e74 
00005827 64507852 
0000582b 29287375 
0000582f 50282820 
00005833 64497564 
00005837 65707954 
0000583b 61432829 
0000583f 5f70546e 
00005843 53746547 
00005847 4f657a69 
0000584b 50785266 
0000584f 614d7564 
00005853 29292870  13423 	.data.b	112,40,41,41,41,0
00005857 0029 

                                                                      Page 323
                                                              C:\Users\Fengyuan\AppData\Local\Temp\gh_0000kos1.s
00005859 01        13424 	.data.b	1
0000585a 02c4      13425 	.data.b	196,2
0000585c 546e6143  13426 	.data.b	67,97,110,84,112,95,67,102,103,95,71,101,116,78,117,109,82,120,83,100,117,73,100,115,40,41,32,40,40,80,100,117,73,100,84,121,112,101,41,40,67,97,110,84,112,95,71,101,116,83,105,122,101,79,102,82,120,83,100,117
00005860 66435f70 
00005864 65475f67 
00005868 6d754e74 
0000586c 64537852 
00005870 73644975 
00005874 28202928 
00005878 75645028 
0000587c 79546449 
00005880 28296570 
00005884 546e6143 
00005888 65475f70 
0000588c 7a695374 
00005890 52664f65 
00005894 75645378 
00005898 32766e53  13427 	.data.b	83,110,118,50,72,100,108,40,41,41,41,0
0000589c 286c6448 
000058a0 00292929 
000058a4 01        13428 	.data.b	1
000058a5 02c9      13429 	.data.b	201,2
000058a7 546e6143  13430 	.data.b	67,97,110,84,112,95,67,102,103,95,71,101,116,78,117,109,84,120,67,104,97,110,110,101,108,115,40,41,32,40,40,80,100,117,73,100,84,121,112,101,41,40,67,97,110,84,112,95,71,101,116,83,105,122,101,79,102,84,120,83
000058ab 66435f70 
000058af 65475f67 
000058b3 6d754e74 
000058b7 68437854 
000058bb 656e6e61 
000058bf 2928736c 
000058c3 50282820 
000058c7 64497564 
000058cb 65707954 
000058cf 61432829 
000058d3 5f70546e 
000058d7 53746547 
000058db 4f657a69 
000058df 53785466 
000058e3 65746174  13431 	.data.b	116,97,116,101,40,41,41,41,0
000058e7 29292928 
000058eb 00 
000058ec 01        13432 	.data.b	1
000058ed 02ca      13433 	.data.b	202,2
000058ef 546e6143  13434 	.data.b	67,97,110,84,112,95,67,102,103,95,71,101,116,78,117,109,84,120,67,111,110,102,80,100,117,115,40,41,32,40,40,80,100,117,73,100,84,121,112,101,41,40,67,97,110,84,112,95,71,101,116,83,105,122,101,79,102,84,120,83
000058f3 66435f70 
000058f7 65475f67 
000058fb 6d754e74 
000058ff 6f437854 
00005903 6450666e 
00005907 29287375 
0000590b 50282820 
0000590f 64497564 
00005913 65707954 
00005917 61432829 
0000591b 5f70546e 
0000591f 53746547 
00005923 4f657a69 
00005927 53785466 
0000592b 70616d65  13435 	.data.b	101,109,97,112,104,111,114,101,115,40,41,41,41,0
0000592f 65726f68 
00005933 29292873 
00005937 0029 

                                                                      Page 324
                                                              C:\Users\Fengyuan\AppData\Local\Temp\gh_0000kos1.s
00005939 01        13436 	.data.b	1
0000593a 02cd      13437 	.data.b	205,2
0000593c 546e6143  13438 	.data.b	67,97,110,84,112,95,67,102,103,95,71,101,116,78,117,109,84,120,83,100,117,73,100,115,40,41,32,40,40,80,100,117,73,100,84,121,112,101,41,40,67,97,110,84,112,95,71,101,116,83,105,122,101,79,102,84,120,83,100,117
00005940 66435f70 
00005944 65475f67 
00005948 6d754e74 
0000594c 64537854 
00005950 73644975 
00005954 28202928 
00005958 75645028 
0000595c 79546449 
00005960 28296570 
00005964 546e6143 
00005968 65475f70 
0000596c 7a695374 
00005970 54664f65 
00005974 75645378 
00005978 32766e53  13439 	.data.b	83,110,118,50,72,100,108,40,41,41,41,0
0000597c 286c6448 
00005980 00292929 
00005984 01        13440 	.data.b	1
00005985 02d5      13441 	.data.b	213,2
00005987 546e6143  13442 	.data.b	67,97,110,84,112,95,67,102,103,95,71,101,116,84,97,115,107,67,121,99,108,101,40,41,32,40,40,67,65,78,84,80,95,84,65,83,75,95,67,89,67,76,69,41,41,0
0000598b 66435f70 
0000598f 65475f67 
00005993 73615474 
00005997 6379436b 
0000599b 2928656c 
0000599f 43282820 
000059a3 50544e41 
000059a7 5341545f 
000059ab 59435f4b 
000059af 29454c43 
000059b3 0029 
000059b5 01        13443 	.data.b	1
000059b6 02d7      13444 	.data.b	215,2
000059b8 546e6143  13445 	.data.b	67,97,110,84,112,95,82,120,67,102,103,95,71,101,116,66,83,40,73,110,100,101,120,41,32,40,40,117,105,110,116,56,41,40,67,97,110,84,112,95,71,101,116,66,108,111,99,107,83,105,122,101,79,102,82,120,83,100,117,67
000059bc 78525f70 
000059c0 5f676643 
000059c4 42746547 
000059c8 6e492853 
000059cc 29786564 
000059d0 75282820 
000059d4 38746e69 
000059d8 61432829 
000059dc 5f70546e 
000059e0 42746547 
000059e4 6b636f6c 
000059e8 657a6953 
000059ec 7852664f 
000059f0 43756453 
000059f4 28286766  13446 	.data.b	102,103,40,40,73,110,100,101,120,41,41,41,41,0
000059f8 65646e49 
000059fc 29292978 
00005a00 0029 
00005a02 01        13447 	.data.b	1
00005a03 02d8      13448 	.data.b	216,2
00005a05 546e6143  13449 	.data.b	67,97,110,84,112,95,82,120,67,102,103,95,71,101,116,67,97,110,73,102,84,120,70,99,80,100,117,73,100,40,73,110,100,101,120,41,32,40,40,80,100,117,73,100,84,121,112,101,41,40,67,97,110,84,112,95,71,101,116,67
00005a09 78525f70 
00005a0d 5f676643 
00005a11 43746547 

                                                                      Page 325
                                                              C:\Users\Fengyuan\AppData\Local\Temp\gh_0000kos1.s
00005a15 66496e61 
00005a19 63467854 
00005a1d 49756450 
00005a21 6e492864 
00005a25 29786564 
00005a29 50282820 
00005a2d 64497564 
00005a31 65707954 
00005a35 61432829 
00005a39 5f70546e 
00005a3d 43746547 
00005a41 66496e61  13450 	.data.b	97,110,73,102,84,120,70,99,80,100,117,73,100,79,102,82,120,83,100,117,67,102,103,40,40,73,110,100,101,120,41,41,41,41,0
00005a45 63467854 
00005a49 49756450 
00005a4d 52664f64 
00005a51 75645378 
00005a55 28676643 
00005a59 646e4928 
00005a5d 29297865 
00005a61 002929 
00005a64 01        13451 	.data.b	1
00005a65 02d9      13452 	.data.b	217,2
00005a67 546e6143  13453 	.data.b	67,97,110,84,112,95,82,120,67,102,103,95,71,101,116,67,97,110,84,121,112,101,40,73,110,100,101,120,41,32,40,40,67,97,110,84,112,95,71,101,116,67,97,110,84,121,112,101,79,102,82,120,83,100,117,67,102,103,40,40
00005a6b 78525f70 
00005a6f 5f676643 
00005a73 43746547 
00005a77 79546e61 
00005a7b 49286570 
00005a7f 7865646e 
00005a83 28282029 
00005a87 546e6143 
00005a8b 65475f70 
00005a8f 6e614374 
00005a93 65707954 
00005a97 7852664f 
00005a9b 43756453 
00005a9f 28286766 
00005aa3 65646e49  13454 	.data.b	73,110,100,101,120,41,41,41,41,0
00005aa7 29292978 
00005aab 0029 
00005aad 01        13455 	.data.b	1
00005aae 02db      13456 	.data.b	219,2
00005ab0 546e6143  13457 	.data.b	67,97,110,84,112,95,82,120,67,102,103,95,71,101,116,77,97,120,80,97,121,108,111,97,100,40,73,110,100,101,120,41,32,40,40,117,105,110,116,56,41,40,67,97,110,84,112,95,71,101,116,82,120,77,97,120,80,97,121,108
00005ab4 78525f70 
00005ab8 5f676643 
00005abc 4d746547 
00005ac0 61507861 
00005ac4 616f6c79 
00005ac8 6e492864 
00005acc 29786564 
00005ad0 75282820 
00005ad4 38746e69 
00005ad8 61432829 
00005adc 5f70546e 
00005ae0 52746547 
00005ae4 78614d78 
00005ae8 6c796150 
00005aec 4c64616f  13458 	.data.b	111,97,100,76,101,110,103,116,104,79,102,82,120,83,100,117,67,102,103,40,40,73,110,100,101,120,41,41,41,41,0
00005af0 74676e65 
00005af4 52664f68 
00005af8 75645378 

                                                                      Page 326
                                                              C:\Users\Fengyuan\AppData\Local\Temp\gh_0000kos1.s
00005afc 28676643 
00005b00 646e4928 
00005b04 29297865 
00005b08 002929 
00005b0b 01        13459 	.data.b	1
00005b0c 02dc      13460 	.data.b	220,2
00005b0e 546e6143  13461 	.data.b	67,97,110,84,112,95,82,120,67,102,103,95,71,101,116,78,65,114,40,73,110,100,101,120,41,32,40,40,117,105,110,116,49,54,41,40,67,97,110,84,112,95,71,101,116,78,65,114,79,102,82,120,83,100,117,67,102,103,40,40
00005b12 78525f70 
00005b16 5f676643 
00005b1a 4e746547 
00005b1e 49287241 
00005b22 7865646e 
00005b26 28282029 
00005b2a 746e6975 
00005b2e 28293631 
00005b32 546e6143 
00005b36 65475f70 
00005b3a 72414e74 
00005b3e 7852664f 
00005b42 43756453 
00005b46 28286766 
00005b4a 65646e49  13462 	.data.b	73,110,100,101,120,41,41,41,41,0
00005b4e 29292978 
00005b52 0029 
00005b54 01        13463 	.data.b	1
00005b55 02dd      13464 	.data.b	221,2
00005b57 546e6143  13465 	.data.b	67,97,110,84,112,95,82,120,67,102,103,95,71,101,116,78,66,114,40,73,110,100,101,120,41,32,40,40,117,105,110,116,49,54,41,40,67,97,110,84,112,95,71,101,116,78,66,114,79,102,82,120,83,100,117,67,102,103,40,40
00005b5b 78525f70 
00005b5f 5f676643 
00005b63 4e746547 
00005b67 49287242 
00005b6b 7865646e 
00005b6f 28282029 
00005b73 746e6975 
00005b77 28293631 
00005b7b 546e6143 
00005b7f 65475f70 
00005b83 72424e74 
00005b87 7852664f 
00005b8b 43756453 
00005b8f 28286766 
00005b93 65646e49  13466 	.data.b	73,110,100,101,120,41,41,41,41,0
00005b97 29292978 
00005b9b 0029 
00005b9d 01        13467 	.data.b	1
00005b9e 02de      13468 	.data.b	222,2
00005ba0 546e6143  13469 	.data.b	67,97,110,84,112,95,82,120,67,102,103,95,71,101,116,78,67,114,40,73,110,100,101,120,41,32,40,40,117,105,110,116,49,54,41,40,67,97,110,84,112,95,71,101,116,78,67,114,79,102,82,120,83,100,117,67,102,103,40,40
00005ba4 78525f70 
00005ba8 5f676643 
00005bac 4e746547 
00005bb0 49287243 
00005bb4 7865646e 
00005bb8 28282029 
00005bbc 746e6975 
00005bc0 28293631 
00005bc4 546e6143 
00005bc8 65475f70 
00005bcc 72434e74 
00005bd0 7852664f 
00005bd4 43756453 
00005bd8 28286766 

                                                                      Page 327
                                                              C:\Users\Fengyuan\AppData\Local\Temp\gh_0000kos1.s
00005bdc 65646e49  13470 	.data.b	73,110,100,101,120,41,41,41,41,0
00005be0 29292978 
00005be4 0029 
00005be6 01        13471 	.data.b	1
00005be7 02df      13472 	.data.b	223,2
00005be9 546e6143  13473 	.data.b	67,97,110,84,112,95,82,120,67,102,103,95,71,101,116,80,97,100,100,105,110,103,65,99,116,105,118,97,116,105,111,110,40,73,110,100,101,120,41,32,40,40,98,111,111,108,101,97,110,41,40,67,97,110,84,112,95,73,115,82
00005bed 78525f70 
00005bf1 5f676643 
00005bf5 50746547 
00005bf9 69646461 
00005bfd 6341676e 
00005c01 61766974 
00005c05 6e6f6974 
00005c09 646e4928 
00005c0d 20297865 
00005c11 6f622828 
00005c15 61656c6f 
00005c19 4328296e 
00005c1d 70546e61 
00005c21 5273495f 
00005c25 64615078  13474 	.data.b	120,80,97,100,100,105,110,103,65,99,116,105,118,97,116,105,111,110,79,102,82,120,83,100,117,67,102,103,40,40,73,110,100,101,120,41,41,41,41,0
00005c29 676e6964 
00005c2d 69746341 
00005c31 69746176 
00005c35 664f6e6f 
00005c39 64537852 
00005c3d 67664375 
00005c41 6e492828 
00005c45 29786564 
00005c49 00292929 
00005c4d 01        13475 	.data.b	1
00005c4e 02e0      13476 	.data.b	224,2
00005c50 546e6143  13477 	.data.b	67,97,110,84,112,95,82,120,67,102,103,95,71,101,116,80,100,117,82,82,120,83,100,117,73,100,40,73,110,100,101,120,41,32,40,40,80,100,117,73,100,84,121,112,101,41,40,67,97,110,84,112,95,71,101,116,80,100,117,82
00005c54 78525f70 
00005c58 5f676643 
00005c5c 50746547 
00005c60 52527564 
00005c64 75645378 
00005c68 49286449 
00005c6c 7865646e 
00005c70 28282029 
00005c74 49756450 
00005c78 70795464 
00005c7c 43282965 
00005c80 70546e61 
00005c84 7465475f 
00005c88 52756450 
00005c8c 64537852  13478 	.data.b	82,120,83,100,117,73,100,79,102,82,120,83,100,117,67,102,103,40,40,73,110,100,101,120,41,41,41,41,0
00005c90 4f644975 
00005c94 53785266 
00005c98 66437564 
00005c9c 49282867 
00005ca0 7865646e 
00005ca4 29292929 
00005ca8 00 
00005ca9 01        13479 	.data.b	1
00005caa 02e3      13480 	.data.b	227,2
00005cac 546e6143  13481 	.data.b	67,97,110,84,112,95,82,120,67,102,103,95,71,101,116,83,84,109,105,110,40,73,110,100,101,120,41,32,40,40,117,105,110,116,56,41,40,67,97,110,84,112,95,71,101,116,83,84,109,105,110,79,102,82,120,83,100,117,67,102
00005cb0 78525f70 
00005cb4 5f676643 
00005cb8 53746547 

                                                                      Page 328
                                                              C:\Users\Fengyuan\AppData\Local\Temp\gh_0000kos1.s
00005cbc 6e696d54 
00005cc0 646e4928 
00005cc4 20297865 
00005cc8 69752828 
00005ccc 2938746e 
00005cd0 6e614328 
00005cd4 475f7054 
00005cd8 54537465 
00005cdc 4f6e696d 
00005ce0 53785266 
00005ce4 66437564 
00005ce8 49282867  13482 	.data.b	103,40,40,73,110,100,101,120,41,41,41,41,0
00005cec 7865646e 
00005cf0 29292929 
00005cf4 00 
00005cf5 01        13483 	.data.b	1
00005cf6 02e5      13484 	.data.b	229,2
00005cf8 546e6143  13485 	.data.b	67,97,110,84,112,95,82,120,67,102,103,95,71,101,116,84,65,84,121,112,101,40,73,110,100,101,120,41,32,40,40,67,97,110,84,112,95,71,101,116,82,120,84,97,84,121,112,101,79,102,82,120,83,100,117,67,102,103,40,40
00005cfc 78525f70 
00005d00 5f676643 
00005d04 54746547 
00005d08 70795441 
00005d0c 6e492865 
00005d10 29786564 
00005d14 43282820 
00005d18 70546e61 
00005d1c 7465475f 
00005d20 61547852 
00005d24 65707954 
00005d28 7852664f 
00005d2c 43756453 
00005d30 28286766 
00005d34 65646e49  13486 	.data.b	73,110,100,101,120,41,41,41,41,0
00005d38 29292978 
00005d3c 0029 
00005d3e 01        13487 	.data.b	1
00005d3f 02e7      13488 	.data.b	231,2
00005d41 546e6143  13489 	.data.b	67,97,110,84,112,95,82,120,67,102,103,95,71,101,116,84,120,70,99,67,111,110,102,80,100,117,73,100,40,73,110,100,101,120,41,32,40,40,80,100,117,73,100,84,121,112,101,41,40,67,97,110,84,112,95,71,101,116,84,120
00005d45 78525f70 
00005d49 5f676643 
00005d4d 54746547 
00005d51 43634678 
00005d55 50666e6f 
00005d59 64497564 
00005d5d 646e4928 
00005d61 20297865 
00005d65 64502828 
00005d69 54644975 
00005d6d 29657079 
00005d71 6e614328 
00005d75 475f7054 
00005d79 78547465 
00005d7d 64506346  13490 	.data.b	70,99,80,100,117,67,111,110,102,105,114,109,97,116,105,111,110,80,100,117,73,100,79,102,82,120,83,100,117,67,102,103,40,40,73,110,100,101,120,41,41,41,41,0
00005d81 6e6f4375 
00005d85 6d726966 
00005d89 6f697461 
00005d8d 7564506e 
00005d91 664f6449 
00005d95 64537852 
00005d99 67664375 
00005d9d 6e492828 

                                                                      Page 329
                                                              C:\Users\Fengyuan\AppData\Local\Temp\gh_0000kos1.s
00005da1 29786564 
00005da5 00292929 
00005da9 01        13491 	.data.b	1
00005daa 02e9      13492 	.data.b	233,2
00005dac 546e6143  13493 	.data.b	67,97,110,84,112,95,82,120,67,102,103,95,71,101,116,87,70,84,109,97,120,40,73,110,100,101,120,41,32,40,40,117,105,110,116,49,54,41,40,67,97,110,84,112,95,71,101,116,82,120,87,102,116,77,97,120,79,102,82,120
00005db0 78525f70 
00005db4 5f676643 
00005db8 57746547 
00005dbc 616d5446 
00005dc0 6e492878 
00005dc4 29786564 
00005dc8 75282820 
00005dcc 31746e69 
00005dd0 43282936 
00005dd4 70546e61 
00005dd8 7465475f 
00005ddc 66577852 
00005de0 78614d74 
00005de4 7852664f 
00005de8 43756453  13494 	.data.b	83,100,117,67,102,103,40,40,73,110,100,101,120,41,41,41,41,0
00005dec 28286766 
00005df0 65646e49 
00005df4 29292978 
00005df8 0029 
00005dfa 01        13495 	.data.b	1
00005dfb 02eb      13496 	.data.b	235,2
00005dfd 546e6143  13497 	.data.b	67,97,110,84,112,95,84,120,67,102,103,95,71,101,116,67,97,110,73,102,84,120,80,100,117,73,100,40,73,110,100,101,120,41,32,40,40,80,100,117,73,100,84,121,112,101,41,40,67,97,110,84,112,95,71,101,116,67,97,110
00005e01 78545f70 
00005e05 5f676643 
00005e09 43746547 
00005e0d 66496e61 
00005e11 64507854 
00005e15 28644975 
00005e19 65646e49 
00005e1d 28202978 
00005e21 75645028 
00005e25 79546449 
00005e29 28296570 
00005e2d 546e6143 
00005e31 65475f70 
00005e35 6e614374 
00005e39 78546649  13498 	.data.b	73,102,84,120,80,100,117,73,100,79,102,84,120,83,100,117,67,102,103,40,40,73,110,100,101,120,41,41,41,41,0
00005e3d 49756450 
00005e41 54664f64 
00005e45 75645378 
00005e49 28676643 
00005e4d 646e4928 
00005e51 29297865 
00005e55 002929 
00005e58 01        13499 	.data.b	1
00005e59 02ec      13500 	.data.b	236,2
00005e5b 546e6143  13501 	.data.b	67,97,110,84,112,95,84,120,67,102,103,95,71,101,116,67,97,110,84,121,112,101,40,73,110,100,101,120,41,32,40,40,67,97,110,84,112,95,71,101,116,67,97,110,84,121,112,101,79,102,84,120,83,100,117,67,102,103,40,40
00005e5f 78545f70 
00005e63 5f676643 
00005e67 43746547 
00005e6b 79546e61 
00005e6f 49286570 
00005e73 7865646e 
00005e77 28282029 
00005e7b 546e6143 
00005e7f 65475f70 

                                                                      Page 330
                                                              C:\Users\Fengyuan\AppData\Local\Temp\gh_0000kos1.s
00005e83 6e614374 
00005e87 65707954 
00005e8b 7854664f 
00005e8f 43756453 
00005e93 28286766 
00005e97 65646e49  13502 	.data.b	73,110,100,101,120,41,41,41,41,0
00005e9b 29292978 
00005e9f 0029 
00005ea1 01        13503 	.data.b	1
00005ea2 02ee      13504 	.data.b	238,2
00005ea4 546e6143  13505 	.data.b	67,97,110,84,112,95,84,120,67,102,103,95,71,101,116,77,97,120,80,97,121,108,111,97,100,40,73,110,100,101,120,41,32,40,40,117,105,110,116,56,41,40,67,97,110,84,112,95,71,101,116,84,120,77,97,120,80,97,121,108
00005ea8 78545f70 
00005eac 5f676643 
00005eb0 4d746547 
00005eb4 61507861 
00005eb8 616f6c79 
00005ebc 6e492864 
00005ec0 29786564 
00005ec4 75282820 
00005ec8 38746e69 
00005ecc 61432829 
00005ed0 5f70546e 
00005ed4 54746547 
00005ed8 78614d78 
00005edc 6c796150 
00005ee0 4c64616f  13506 	.data.b	111,97,100,76,101,110,103,116,104,79,102,84,120,83,100,117,67,102,103,40,40,73,110,100,101,120,41,41,41,41,0
00005ee4 74676e65 
00005ee8 54664f68 
00005eec 75645378 
00005ef0 28676643 
00005ef4 646e4928 
00005ef8 29297865 
00005efc 002929 
00005eff 01        13507 	.data.b	1
00005f00 02ef      13508 	.data.b	239,2
00005f02 546e6143  13509 	.data.b	67,97,110,84,112,95,84,120,67,102,103,95,71,101,116,78,65,115,40,73,110,100,101,120,41,32,40,40,117,105,110,116,49,54,41,40,67,97,110,84,112,95,71,101,116,78,65,115,79,102,84,120,83,100,117,67,102,103,40,40
00005f06 78545f70 
00005f0a 5f676643 
00005f0e 4e746547 
00005f12 49287341 
00005f16 7865646e 
00005f1a 28282029 
00005f1e 746e6975 
00005f22 28293631 
00005f26 546e6143 
00005f2a 65475f70 
00005f2e 73414e74 
00005f32 7854664f 
00005f36 43756453 
00005f3a 28286766 
00005f3e 65646e49  13510 	.data.b	73,110,100,101,120,41,41,41,41,0
00005f42 29292978 
00005f46 0029 
00005f48 01        13511 	.data.b	1
00005f49 02f0      13512 	.data.b	240,2
00005f4b 546e6143  13513 	.data.b	67,97,110,84,112,95,84,120,67,102,103,95,71,101,116,78,66,115,40,73,110,100,101,120,41,32,40,40,117,105,110,116,49,54,41,40,67,97,110,84,112,95,71,101,116,78,66,115,79,102,84,120,83,100,117,67,102,103,40,40
00005f4f 78545f70 
00005f53 5f676643 
00005f57 4e746547 
00005f5b 49287342 
00005f5f 7865646e 

                                                                      Page 331
                                                              C:\Users\Fengyuan\AppData\Local\Temp\gh_0000kos1.s
00005f63 28282029 
00005f67 746e6975 
00005f6b 28293631 
00005f6f 546e6143 
00005f73 65475f70 
00005f77 73424e74 
00005f7b 7854664f 
00005f7f 43756453 
00005f83 28286766 
00005f87 65646e49  13514 	.data.b	73,110,100,101,120,41,41,41,41,0
00005f8b 29292978 
00005f8f 0029 
00005f91 01        13515 	.data.b	1
00005f92 02f1      13516 	.data.b	241,2
00005f94 546e6143  13517 	.data.b	67,97,110,84,112,95,84,120,67,102,103,95,71,101,116,78,67,115,40,73,110,100,101,120,41,32,40,40,117,105,110,116,49,54,41,40,67,97,110,84,112,95,71,101,116,78,67,115,79,102,84,120,83,100,117,67,102,103,40,40
00005f98 78545f70 
00005f9c 5f676643 
00005fa0 4e746547 
00005fa4 49287343 
00005fa8 7865646e 
00005fac 28282029 
00005fb0 746e6975 
00005fb4 28293631 
00005fb8 546e6143 
00005fbc 65475f70 
00005fc0 73434e74 
00005fc4 7854664f 
00005fc8 43756453 
00005fcc 28286766 
00005fd0 65646e49  13518 	.data.b	73,110,100,101,120,41,41,41,41,0
00005fd4 29292978 
00005fd8 0029 
00005fda 01        13519 	.data.b	1
00005fdb 02f2      13520 	.data.b	242,2
00005fdd 546e6143  13521 	.data.b	67,97,110,84,112,95,84,120,67,102,103,95,71,101,116,80,97,100,100,105,110,103,65,99,116,105,118,97,116,105,111,110,40,73,110,100,101,120,41,32,40,40,98,111,111,108,101,97,110,41,40,67,97,110,84,112,95,73,115,84
00005fe1 78545f70 
00005fe5 5f676643 
00005fe9 50746547 
00005fed 69646461 
00005ff1 6341676e 
00005ff5 61766974 
00005ff9 6e6f6974 
00005ffd 646e4928 
00006001 20297865 
00006005 6f622828 
00006009 61656c6f 
0000600d 4328296e 
00006011 70546e61 
00006015 5473495f 
00006019 64615078  13522 	.data.b	120,80,97,100,100,105,110,103,65,99,116,105,118,97,116,105,111,110,79,102,84,120,83,100,117,67,102,103,40,40,73,110,100,101,120,41,41,41,41,0
0000601d 676e6964 
00006021 69746341 
00006025 69746176 
00006029 664f6e6f 
0000602d 64537854 
00006031 67664375 
00006035 6e492828 
00006039 29786564 
0000603d 00292929 
00006041 01        13523 	.data.b	1
00006042 02f3      13524 	.data.b	243,2

                                                                      Page 332
                                                              C:\Users\Fengyuan\AppData\Local\Temp\gh_0000kos1.s
00006044 546e6143  13525 	.data.b	67,97,110,84,112,95,84,120,67,102,103,95,71,101,116,80,100,117,82,84,120,83,100,117,73,100,40,73,110,100,101,120,41,32,40,40,80,100,117,73,100,84,121,112,101,41,40,67,97,110,84,112,95,71,101,116,80,100,117,82
00006048 78545f70 
0000604c 5f676643 
00006050 50746547 
00006054 54527564 
00006058 75645378 
0000605c 49286449 
00006060 7865646e 
00006064 28282029 
00006068 49756450 
0000606c 70795464 
00006070 43282965 
00006074 70546e61 
00006078 7465475f 
0000607c 52756450 
00006080 64537854  13526 	.data.b	84,120,83,100,117,73,100,79,102,84,120,83,100,117,67,102,103,40,40,73,110,100,101,120,41,41,41,41,0
00006084 4f644975 
00006088 53785466 
0000608c 66437564 
00006090 49282867 
00006094 7865646e 
00006098 29292929 
0000609c 00 
0000609d 01        13527 	.data.b	1
0000609e 02fb      13528 	.data.b	251,2
000060a0 546e6143  13529 	.data.b	67,97,110,84,112,95,84,120,67,102,103,95,71,101,116,84,120,67,111,110,102,80,100,117,73,100,40,73,110,100,101,120,41,32,40,40,80,100,117,73,100,84,121,112,101,41,40,67,97,110,84,112,95,71,101,116,84,120,80,100
000060a4 78545f70 
000060a8 5f676643 
000060ac 54746547 
000060b0 6e6f4378 
000060b4 75645066 
000060b8 49286449 
000060bc 7865646e 
000060c0 28282029 
000060c4 49756450 
000060c8 70795464 
000060cc 43282965 
000060d0 70546e61 
000060d4 7465475f 
000060d8 64507854 
000060dc 6e6f4375  13530 	.data.b	117,67,111,110,102,105,114,109,97,116,105,111,110,80,100,117,73,100,79,102,84,120,83,100,117,67,102,103,40,40,73,110,100,101,120,41,41,41,41,0
000060e0 6d726966 
000060e4 6f697461 
000060e8 7564506e 
000060ec 664f6449 
000060f0 64537854 
000060f4 67664375 
000060f8 6e492828 
000060fc 29786564 
00006100 00292929 
00006104 01        13531 	.data.b	1
00006105 0385      13532 	.data.b	133,3
00006107 546e6143  13533 	.data.b	67,97,110,84,112,95,82,120,71,101,116,65,100,114,79,102,102,115,101,116,40,82,120,72,100,108,41,32,40,117,105,110,116,56,41,48,0
0000610b 78525f70 
0000610f 41746547 
00006113 664f7264 
00006117 74657366 
0000611b 48785228 
0000611f 20296c64 
00006123 6e697528 
00006127 30293874 

                                                                      Page 333
                                                              C:\Users\Fengyuan\AppData\Local\Temp\gh_0000kos1.s
0000612b 00 
0000612c 01        13534 	.data.b	1
0000612d 0392      13535 	.data.b	146,3
0000612f 546e6143  13536 	.data.b	67,97,110,84,112,95,84,120,71,101,116,65,100,114,79,102,102,115,101,116,40,84,120,72,100,108,41,32,40,117,105,110,116,56,41,48,0
00006133 78545f70 
00006137 41746547 
0000613b 664f7264 
0000613f 74657366 
00006143 48785428 
00006147 20296c64 
0000614b 6e697528 
0000614f 30293874 
00006153 00 
00006154 01        13537 	.data.b	1
00006155 039d      13538 	.data.b	157,3
00006157 546e6143  13539 	.data.b	67,97,110,84,112,95,82,120,67,102,103,95,71,101,116,77,97,120,80,97,121,108,111,97,100,83,70,40,82,120,72,100,108,41,32,40,40,117,105,110,116,56,41,40,67,65,78,84,80,95,67,65,78,50,48,95,70,82,65,77
0000615b 78525f70 
0000615f 5f676643 
00006163 4d746547 
00006167 61507861 
0000616b 616f6c79 
0000616f 28465364 
00006173 64487852 
00006177 2820296c 
0000617b 6e697528 
0000617f 28293874 
00006183 544e4143 
00006187 41435f50 
0000618b 5f30324e 
0000618f 4d415246 
00006193 454c5f45  13540 	.data.b	69,95,76,69,78,71,84,72,32,45,32,40,67,97,110,84,112,95,82,120,71,101,116,65,100,114,79,102,102,115,101,116,40,40,82,120,72,100,108,41,41,32,43,32,67,65,78,84,80,95,80,67,73,95,76,69,78,71,84,72
00006197 4854474e 
0000619b 28202d20 
0000619f 546e6143 
000061a3 78525f70 
000061a7 41746547 
000061ab 664f7264 
000061af 74657366 
000061b3 78522828 
000061b7 296c6448 
000061bb 202b2029 
000061bf 544e4143 
000061c3 43505f50 
000061c7 454c5f49 
000061cb 4854474e 
000061cf 2946535f  13541 	.data.b	95,83,70,41,41,41,0
000061d3 002929 
000061d6 01        13542 	.data.b	1
000061d7 039f      13543 	.data.b	159,3
000061d9 546e6143  13544 	.data.b	67,97,110,84,112,95,82,120,67,102,103,95,71,101,116,77,97,120,80,97,121,108,111,97,100,70,70,40,82,120,83,100,117,72,100,108,41,32,40,40,117,105,110,116,56,41,40,67,97,110,84,112,95,82,120,67,102,103,95,71
000061dd 78525f70 
000061e1 5f676643 
000061e5 4d746547 
000061e9 61507861 
000061ed 616f6c79 
000061f1 28464664 
000061f5 64537852 
000061f9 6c644875 
000061fd 28282029 
00006201 746e6975 
00006205 43282938 

                                                                      Page 334
                                                              C:\Users\Fengyuan\AppData\Local\Temp\gh_0000kos1.s
00006209 70546e61 
0000620d 4378525f 
00006211 475f6766 
00006215 614d7465  13545 	.data.b	101,116,77,97,120,80,97,121,108,111,97,100,40,40,82,120,83,100,117,72,100,108,41,41,45,49,41,41,0
00006219 79615078 
0000621d 64616f6c 
00006221 78522828 
00006225 48756453 
00006229 29296c64 
0000622d 2929312d 
00006231 00 
00006232 01        13546 	.data.b	1
00006233 03a1      13547 	.data.b	161,3
00006235 546e6143  13548 	.data.b	67,97,110,84,112,95,82,120,67,102,103,95,71,101,116,77,97,120,80,97,121,108,111,97,100,67,70,40,82,120,83,100,117,72,100,108,41,32,40,40,117,105,110,116,56,41,40,67,97,110,84,112,95,82,120,67,102,103,95,71
00006239 78525f70 
0000623d 5f676643 
00006241 4d746547 
00006245 61507861 
00006249 616f6c79 
0000624d 28464364 
00006251 64537852 
00006255 6c644875 
00006259 28282029 
0000625d 746e6975 
00006261 43282938 
00006265 70546e61 
00006269 4378525f 
0000626d 475f6766 
00006271 614d7465  13549 	.data.b	101,116,77,97,120,80,97,121,108,111,97,100,40,40,82,120,83,100,117,72,100,108,41,41,41,41,0
00006275 79615078 
00006279 64616f6c 
0000627d 78522828 
00006281 48756453 
00006285 29296c64 
00006289 002929 
0000628c 01        13550 	.data.b	1
0000628d 03a3      13551 	.data.b	163,3
0000628f 546e6143  13552 	.data.b	67,97,110,84,112,95,84,120,67,102,103,95,71,101,116,77,97,120,80,97,121,108,111,97,100,83,70,40,84,120,72,100,108,41,32,40,40,117,105,110,116,56,41,40,67,65,78,84,80,95,67,65,78,50,48,95,70,82,65,77
00006293 78545f70 
00006297 5f676643 
0000629b 4d746547 
0000629f 61507861 
000062a3 616f6c79 
000062a7 28465364 
000062ab 64487854 
000062af 2820296c 
000062b3 6e697528 
000062b7 28293874 
000062bb 544e4143 
000062bf 41435f50 
000062c3 5f30324e 
000062c7 4d415246 
000062cb 454c5f45  13553 	.data.b	69,95,76,69,78,71,84,72,32,45,32,40,67,97,110,84,112,95,84,120,71,101,116,65,100,114,79,102,102,115,101,116,40,40,84,120,72,100,108,41,41,32,43,32,67,65,78,84,80,95,80,67,73,95,76,69,78,71,84,72
000062cf 4854474e 
000062d3 28202d20 
000062d7 546e6143 
000062db 78545f70 
000062df 41746547 
000062e3 664f7264 
000062e7 74657366 
000062eb 78542828 

                                                                      Page 335
                                                              C:\Users\Fengyuan\AppData\Local\Temp\gh_0000kos1.s
000062ef 296c6448 
000062f3 202b2029 
000062f7 544e4143 
000062fb 43505f50 
000062ff 454c5f49 
00006303 4854474e 
00006307 2946535f  13554 	.data.b	95,83,70,41,41,41,0
0000630b 002929 
0000630e 01        13555 	.data.b	1
0000630f 03a5      13556 	.data.b	165,3
00006311 546e6143  13557 	.data.b	67,97,110,84,112,95,84,120,67,102,103,95,71,101,116,77,97,120,80,97,121,108,111,97,100,70,70,40,84,120,72,100,108,41,32,40,40,117,105,110,116,56,41,40,67,97,110,84,112,95,84,120,67,102,103,95,71,101,116,77
00006315 78545f70 
00006319 5f676643 
0000631d 4d746547 
00006321 61507861 
00006325 616f6c79 
00006329 28464664 
0000632d 64487854 
00006331 2820296c 
00006335 6e697528 
00006339 28293874 
0000633d 546e6143 
00006341 78545f70 
00006345 5f676643 
00006349 4d746547 
0000634d 61507861  13558 	.data.b	97,120,80,97,121,108,111,97,100,40,40,84,120,72,100,108,41,41,45,49,41,41,0
00006351 616f6c79 
00006355 54282864 
00006359 6c644878 
0000635d 312d2929 
00006361 002929 
00006364 01        13559 	.data.b	1
00006365 03a7      13560 	.data.b	167,3
00006367 546e6143  13561 	.data.b	67,97,110,84,112,95,84,120,67,102,103,95,71,101,116,77,97,120,80,97,121,108,111,97,100,67,70,40,84,120,72,100,108,41,32,40,40,117,105,110,116,56,41,40,67,97,110,84,112,95,84,120,67,102,103,95,71,101,116,77
0000636b 78545f70 
0000636f 5f676643 
00006373 4d746547 
00006377 61507861 
0000637b 616f6c79 
0000637f 28464364 
00006383 64487854 
00006387 2820296c 
0000638b 6e697528 
0000638f 28293874 
00006393 546e6143 
00006397 78545f70 
0000639b 5f676643 
0000639f 4d746547 
000063a3 61507861  13562 	.data.b	97,120,80,97,121,108,111,97,100,40,40,84,120,72,100,108,41,41,41,41,0
000063a7 616f6c79 
000063ab 54282864 
000063af 6c644878 
000063b3 29292929 
000063b7 00 
000063b8 01        13563 	.data.b	1
000063b9 03b1      13564 	.data.b	177,3
000063bb 546e6143  13565 	.data.b	67,97,110,84,112,95,82,120,67,102,103,95,71,101,116,77,97,120,83,70,68,97,116,97,76,101,110,103,116,104,40,82,120,72,100,108,44,68,76,67,41,32,67,97,110,84,112,95,82,120,67,102,103,95,71,101,116,77,97,120
000063bf 78525f70 
000063c3 5f676643 
000063c7 4d746547 
000063cb 46537861 

                                                                      Page 336
                                                              C:\Users\Fengyuan\AppData\Local\Temp\gh_0000kos1.s
000063cf 61746144 
000063d3 676e654c 
000063d7 52286874 
000063db 6c644878 
000063df 434c442c 
000063e3 61432029 
000063e7 5f70546e 
000063eb 66437852 
000063ef 65475f67 
000063f3 78614d74 
000063f7 6c796150  13566 	.data.b	80,97,121,108,111,97,100,83,70,40,40,82,120,72,100,108,41,41,0
000063fb 5364616f 
000063ff 52282846 
00006403 6c644878 
00006407 002929 
0000640a 01        13567 	.data.b	1
0000640b 03bd      13568 	.data.b	189,3
0000640d 546e6143  13569 	.data.b	67,97,110,84,112,95,84,120,67,102,103,95,71,101,116,77,97,120,83,70,68,97,116,97,76,101,110,103,116,104,40,84,120,72,100,108,41,32,67,97,110,84,112,95,84,120,67,102,103,95,71,101,116,77,97,120,80,97,121,108
00006411 78545f70 
00006415 5f676643 
00006419 4d746547 
0000641d 46537861 
00006421 61746144 
00006425 676e654c 
00006429 54286874 
0000642d 6c644878 
00006431 61432029 
00006435 5f70546e 
00006439 66437854 
0000643d 65475f67 
00006441 78614d74 
00006445 6c796150 
00006449 5364616f  13570 	.data.b	111,97,100,83,70,40,40,84,120,72,100,108,41,41,0
0000644d 54282846 
00006451 6c644878 
00006455 002929 
00006458 01        13571 	.data.b	1
00006459 03c3      13572 	.data.b	195,3
0000645b 546e6143  13573 	.data.b	67,97,110,84,112,95,68,97,116,97,95,82,120,83,116,97,116,101,40,82,120,67,104,97,110,110,101,108,41,32,67,97,110,84,112,95,71,101,116,82,120,83,116,97,116,101,40,40,82,120,67,104,97,110,110,101,108,41,41,0
0000645f 61445f70 
00006463 525f6174 
00006467 61745378 
0000646b 52286574 
0000646f 61684378 
00006473 6c656e6e 
00006477 61432029 
0000647b 5f70546e 
0000647f 52746547 
00006483 61745378 
00006487 28286574 
0000648b 68437852 
0000648f 656e6e61 
00006493 0029296c 
00006497 01        13574 	.data.b	1
00006498 03c4      13575 	.data.b	196,3
0000649a 546e6143  13576 	.data.b	67,97,110,84,112,95,68,97,116,97,95,84,120,83,116,97,116,101,40,84,120,67,104,97,110,110,101,108,41,32,67,97,110,84,112,95,71,101,116,84,120,83,116,97,116,101,40,40,84,120,67,104,97,110,110,101,108,41,41,0
0000649e 61445f70 
000064a2 545f6174 
000064a6 61745378 
000064aa 54286574 
000064ae 61684378 

                                                                      Page 337
                                                              C:\Users\Fengyuan\AppData\Local\Temp\gh_0000kos1.s
000064b2 6c656e6e 
000064b6 61432029 
000064ba 5f70546e 
000064be 54746547 
000064c2 61745378 
000064c6 28286574 
000064ca 68437854 
000064ce 656e6e61 
000064d2 0029296c 
000064d6 01        13577 	.data.b	1
000064d7 03c7      13578 	.data.b	199,3
000064d9 546e6143  13579 	.data.b	67,97,110,84,112,95,68,97,116,97,95,67,97,108,99,66,83,40,82,120,72,100,108,41,32,67,97,110,84,112,95,71,101,116,67,97,108,99,66,83,40,40,82,120,72,100,108,41,41,0
000064dd 61445f70 
000064e1 435f6174 
000064e5 42636c61 
000064e9 78522853 
000064ed 296c6448 
000064f1 6e614320 
000064f5 475f7054 
000064f9 61437465 
000064fd 5342636c 
00006501 78522828 
00006505 296c6448 
00006509 0029 
0000650b 01        13580 	.data.b	1
0000650c 03c9      13581 	.data.b	201,3
0000650e 546e6143  13582 	.data.b	67,97,110,84,112,95,68,97,116,97,95,84,120,83,101,109,97,112,104,111,114,101,40,84,120,80,100,117,41,32,67,97,110,84,112,95,71,101,116,84,120,83,101,109,97,112,104,111,114,101,115,40,40,84,120,80,100,117,41,41
00006512 61445f70 
00006516 545f6174 
0000651a 6d655378 
0000651e 6f687061 
00006522 54286572 
00006526 75645078 
0000652a 61432029 
0000652e 5f70546e 
00006532 54746547 
00006536 6d655378 
0000653a 6f687061 
0000653e 28736572 
00006542 50785428 
00006546 29297564 
0000654a 00        13583 	.data.b	0
0000654b 01        13584 	.data.b	1
0000654c 03cb      13585 	.data.b	203,3
0000654e 546e6143  13586 	.data.b	67,97,110,84,112,95,68,97,116,97,95,73,110,105,116,83,116,97,116,101,40,41,32,67,97,110,84,112,95,73,110,105,116,83,116,97,116,101,0
00006552 61445f70 
00006556 495f6174 
0000655a 5374696e 
0000655e 65746174 
00006562 43202928 
00006566 70546e61 
0000656a 696e495f 
0000656e 61745374 
00006572 006574 
00006575 01        13587 	.data.b	1
00006576 03d0      13588 	.data.b	208,3
00006578 546e6143  13589 	.data.b	67,97,110,84,112,95,85,116,105,108,95,77,97,107,101,49,54,66,105,116,40,104,105,66,121,116,101,44,108,111,66,121,116,101,41,32,40,40,117,105,110,116,49,54,41,40,40,40,40,117,105,110,116,49,54,41,40,104,105,66
0000657c 74555f70 
00006580 4d5f6c69 
00006584 31656b61 
00006588 74694236 

                                                                      Page 338
                                                              C:\Users\Fengyuan\AppData\Local\Temp\gh_0000kos1.s
0000658c 42696828 
00006590 2c657479 
00006594 79426f6c 
00006598 20296574 
0000659c 69752828 
000065a0 3631746e 
000065a4 28282829 
000065a8 6e697528 
000065ac 29363174 
000065b0 42696828 
000065b4 29657479  13590 	.data.b	121,116,101,41,41,32,60,60,32,56,41,32,124,32,40,40,117,105,110,116,49,54,41,40,108,111,66,121,116,101,41,41,41,41,0
000065b8 3c3c2029 
000065bc 20293820 
000065c0 2828207c 
000065c4 746e6975 
000065c8 28293631 
000065cc 79426f6c 
000065d0 29296574 
000065d4 002929 
000065d7 01        13591 	.data.b	1
000065d8 03d5      13592 	.data.b	213,3
000065da 546e6143  13593 	.data.b	67,97,110,84,112,95,85,116,105,108,95,71,101,116,72,105,66,121,116,101,40,100,97,116,97,41,32,40,40,117,105,110,116,56,41,40,40,40,117,105,110,116,49,54,41,40,100,97,116,97,41,41,32,62,62,32,56,41,41,0
000065de 74555f70 
000065e2 475f6c69 
000065e6 69487465 
000065ea 65747942 
000065ee 74616428 
000065f2 28202961 
000065f6 6e697528 
000065fa 28293874 
000065fe 69752828 
00006602 3631746e 
00006606 61642829 
0000660a 29296174 
0000660e 203e3e20 
00006612 00292938 
00006616 01        13594 	.data.b	1
00006617 03d6      13595 	.data.b	214,3
00006619 546e6143  13596 	.data.b	67,97,110,84,112,95,85,116,105,108,95,71,101,116,76,111,66,121,116,101,40,100,97,116,97,41,32,40,40,117,105,110,116,56,41,40,100,97,116,97,41,41,0
0000661d 74555f70 
00006621 475f6c69 
00006625 6f4c7465 
00006629 65747942 
0000662d 74616428 
00006631 28202961 
00006635 6e697528 
00006639 28293874 
0000663d 61746164 
00006641 002929 
00006644 01        13597 	.data.b	1
00006645 03e2      13598 	.data.b	226,3
00006647 546e6143  13599 	.data.b	67,97,110,84,112,95,82,120,83,100,117,83,110,118,73,115,65,118,97,105,108,97,98,108,101,40,67,97,110,84,112,82,120,83,100,117,73,100,41,32,67,97,110,84,112,95,73,115,82,120,83,100,117,67,102,103,85,115,101,100
0000664b 78525f70 
0000664f 53756453 
00006653 7349766e 
00006657 69617641 
0000665b 6c62616c 
0000665f 61432865 
00006663 5270546e 
00006667 75645378 
0000666b 20296449 

                                                                      Page 339
                                                              C:\Users\Fengyuan\AppData\Local\Temp\gh_0000kos1.s
0000666f 546e6143 
00006673 73495f70 
00006677 64537852 
0000667b 67664375 
0000667f 64657355 
00006683 7852664f  13600 	.data.b	79,102,82,120,83,100,117,83,110,118,50,72,100,108,40,40,67,97,110,84,112,82,120,83,100,117,73,100,41,41,0
00006687 53756453 
0000668b 4832766e 
0000668f 28286c64 
00006693 546e6143 
00006697 53785270 
0000669b 64497564 
0000669f 002929 
000066a2 01        13601 	.data.b	1
000066a3 03e3      13602 	.data.b	227,3
000066a5 546e6143  13603 	.data.b	67,97,110,84,112,95,84,120,83,100,117,83,110,118,73,115,65,118,97,105,108,97,98,108,101,40,67,97,110,84,112,84,120,83,100,117,73,100,41,32,67,97,110,84,112,95,73,115,84,120,83,100,117,67,102,103,85,115,101,100
000066a9 78545f70 
000066ad 53756453 
000066b1 7349766e 
000066b5 69617641 
000066b9 6c62616c 
000066bd 61432865 
000066c1 5470546e 
000066c5 75645378 
000066c9 20296449 
000066cd 546e6143 
000066d1 73495f70 
000066d5 64537854 
000066d9 67664375 
000066dd 64657355 
000066e1 7854664f  13604 	.data.b	79,102,84,120,83,100,117,83,110,118,50,72,100,108,40,40,67,97,110,84,112,84,120,83,100,117,73,100,41,41,0
000066e5 53756453 
000066e9 4832766e 
000066ed 28286c64 
000066f1 546e6143 
000066f5 53785470 
000066f9 64497564 
000066fd 002929 
00006700 01        13605 	.data.b	1
00006701 03ea      13606 	.data.b	234,3
00006703 546e6143  13607 	.data.b	67,97,110,84,112,95,67,97,110,73,102,82,120,80,100,117,72,97,115,84,120,83,100,117,82,101,102,40,67,97,110,84,112,82,120,80,100,117,73,100,41,32,67,97,110,84,112,95,73,115,84,120,83,100,117,67,102,103,73,110
00006707 61435f70 
0000670b 5266496e 
0000670f 75645078 
00006713 54736148 
00006717 75645378 
0000671b 28666552 
0000671f 546e6143 
00006723 50785270 
00006727 64497564 
0000672b 61432029 
0000672f 5f70546e 
00006733 78547349 
00006737 43756453 
0000673b 6e496766 
0000673f 65735564  13608 	.data.b	100,85,115,101,100,79,102,82,120,80,100,117,77,97,112,40,40,67,97,110,84,112,82,120,80,100,117,73,100,41,41,0
00006743 52664f64 
00006747 75645078 
0000674b 2870614d 
0000674f 6e614328 
00006753 78527054 

                                                                      Page 340
                                                              C:\Users\Fengyuan\AppData\Local\Temp\gh_0000kos1.s
00006757 49756450 
0000675b 00292964 
0000675f 01        13609 	.data.b	1
00006760 03ef      13610 	.data.b	239,3
00006762 546e6143  13611 	.data.b	67,97,110,84,112,95,67,97,110,73,102,82,120,80,100,117,72,97,115,82,120,83,100,117,82,101,102,40,67,97,110,84,112,82,120,80,100,117,73,100,41,32,67,97,110,84,112,95,73,115,82,120,83,100,117,67,102,103,73,110
00006766 61435f70 
0000676a 5266496e 
0000676e 75645078 
00006772 52736148 
00006776 75645378 
0000677a 28666552 
0000677e 546e6143 
00006782 50785270 
00006786 64497564 
0000678a 61432029 
0000678e 5f70546e 
00006792 78527349 
00006796 43756453 
0000679a 6e496766 
0000679e 65735564  13612 	.data.b	100,85,115,101,100,79,102,82,120,80,100,117,77,97,112,40,40,67,97,110,84,112,82,120,80,100,117,73,100,41,41,0
000067a2 52664f64 
000067a6 75645078 
000067aa 2870614d 
000067ae 6e614328 
000067b2 78527054 
000067b6 49756450 
000067ba 00292964 
000067be 01        13613 	.data.b	1
000067bf 03f6      13614 	.data.b	246,3
000067c1 546e6143  13615 	.data.b	67,97,110,84,112,95,82,120,71,101,116,83,100,117,72,100,108,66,121,83,100,117,73,100,40,67,97,110,84,112,82,120,83,100,117,73,100,41,32,40,80,100,117,73,100,84,121,112,101,41,67,97,110,84,112,95,71,101,116,82
000067c5 78525f70 
000067c9 53746547 
000067cd 64487564 
000067d1 5379426c 
000067d5 64497564 
000067d9 6e614328 
000067dd 78527054 
000067e1 49756453 
000067e5 28202964 
000067e9 49756450 
000067ed 70795464 
000067f1 61432965 
000067f5 5f70546e 
000067f9 52746547 
000067fd 75645378  13616 	.data.b	120,83,100,117,67,102,103,73,100,120,79,102,82,120,83,100,117,83,110,118,50,72,100,108,40,40,67,97,110,84,112,82,120,83,100,117,73,100,41,41,0
00006801 49676643 
00006805 664f7864 
00006809 64537852 
0000680d 766e5375 
00006811 6c644832 
00006815 61432828 
00006819 5270546e 
0000681d 75645378 
00006821 29296449 
00006825 00 
00006826 01        13617 	.data.b	1
00006827 03fb      13618 	.data.b	251,3
00006829 546e6143  13619 	.data.b	67,97,110,84,112,95,84,120,71,101,116,83,100,117,72,100,108,66,121,83,100,117,73,100,40,67,97,110,84,112,84,120,83,100,117,73,100,41,32,40,80,100,117,73,100,84,121,112,101,41,67,97,110,84,112,95,71,101,116,84
0000682d 78545f70 
00006831 53746547 
00006835 64487564 

                                                                      Page 341
                                                              C:\Users\Fengyuan\AppData\Local\Temp\gh_0000kos1.s
00006839 5379426c 
0000683d 64497564 
00006841 6e614328 
00006845 78547054 
00006849 49756453 
0000684d 28202964 
00006851 49756450 
00006855 70795464 
00006859 61432965 
0000685d 5f70546e 
00006861 54746547 
00006865 75645378  13620 	.data.b	120,83,100,117,67,102,103,73,100,120,79,102,84,120,83,100,117,83,110,118,50,72,100,108,40,40,67,97,110,84,112,84,120,83,100,117,73,100,41,41,0
00006869 49676643 
0000686d 664f7864 
00006871 64537854 
00006875 766e5375 
00006879 6c644832 
0000687d 61432828 
00006881 5470546e 
00006885 75645378 
00006889 29296449 
0000688d 00 
0000688e 01        13621 	.data.b	1
0000688f 048e      13622 	.data.b	142,4
00006891 546e6143  13623 	.data.b	67,97,110,84,112,95,82,120,71,101,116,67,104,97,110,110,101,108,80,116,114,40,82,120,72,100,108,41,32,38,67,97,110,84,112,95,68,97,116,97,95,82,120,83,116,97,116,101,40,40,82,120,72,100,108,41,41,0
00006895 78525f70 
00006899 43746547 
0000689d 6e6e6168 
000068a1 74506c65 
000068a5 78522872 
000068a9 296c6448 
000068ad 61432620 
000068b1 5f70546e 
000068b5 61746144 
000068b9 5378525f 
000068bd 65746174 
000068c1 78522828 
000068c5 296c6448 
000068c9 0029 
000068cb 01        13624 	.data.b	1
000068cc 048f      13625 	.data.b	143,4
000068ce 546e6143  13626 	.data.b	67,97,110,84,112,95,84,120,71,101,116,67,104,97,110,110,101,108,80,116,114,40,84,120,72,100,108,41,32,38,67,97,110,84,112,95,68,97,116,97,95,84,120,83,116,97,116,101,40,40,84,120,72,100,108,41,41,0
000068d2 78545f70 
000068d6 43746547 
000068da 6e6e6168 
000068de 74506c65 
000068e2 78542872 
000068e6 296c6448 
000068ea 61432620 
000068ee 5f70546e 
000068f2 61746144 
000068f6 5378545f 
000068fa 65746174 
000068fe 78542828 
00006902 296c6448 
00006906 0029 
00006908 01        13627 	.data.b	1
00006909 0491      13628 	.data.b	145,4
0000690b 546e6143  13629 	.data.b	67,97,110,84,112,95,82,120,67,104,97,110,110,101,108,73,115,73,100,108,101,40,82,120,72,100,108,41,32,40,67,97,110,84,112,95,68,97,116,97,95,82,120,83,116,97,116,101,40,40,82,120,72,100,108,41,41,46,67,104
0000690f 78525f70 
00006913 6e616843 

                                                                      Page 342
                                                              C:\Users\Fengyuan\AppData\Local\Temp\gh_0000kos1.s
00006917 496c656e 
0000691b 6c644973 
0000691f 78522865 
00006923 296c6448 
00006927 61432820 
0000692b 5f70546e 
0000692f 61746144 
00006933 5378525f 
00006937 65746174 
0000693b 78522828 
0000693f 296c6448 
00006943 68432e29 
00006947 656e6e61  13630 	.data.b	97,110,110,101,108,83,116,97,116,101,32,61,61,32,67,65,78,84,80,95,82,88,83,84,65,84,69,95,73,68,76,69,32,41,0
0000694b 6174536c 
0000694f 3d206574 
00006953 4143203d 
00006957 5f50544e 
0000695b 54535852 
0000695f 5f455441 
00006963 454c4449 
00006967 002920 
0000696a 01        13631 	.data.b	1
0000696b 0492      13632 	.data.b	146,4
0000696d 546e6143  13633 	.data.b	67,97,110,84,112,95,84,120,67,104,97,110,110,101,108,73,115,73,100,108,101,40,84,120,72,100,108,41,32,40,67,97,110,84,112,95,68,97,116,97,95,84,120,83,116,97,116,101,40,40,84,120,72,100,108,41,41,46,67,104
00006971 78545f70 
00006975 6e616843 
00006979 496c656e 
0000697d 6c644973 
00006981 78542865 
00006985 296c6448 
00006989 61432820 
0000698d 5f70546e 
00006991 61746144 
00006995 5378545f 
00006999 65746174 
0000699d 78542828 
000069a1 296c6448 
000069a5 68432e29 
000069a9 656e6e61  13634 	.data.b	97,110,110,101,108,83,116,97,116,101,32,61,61,32,67,65,78,84,80,95,84,88,83,84,65,84,69,95,73,68,76,69,41,0
000069ad 6174536c 
000069b1 3d206574 
000069b5 4143203d 
000069b9 5f50544e 
000069bd 54535854 
000069c1 5f455441 
000069c5 454c4449 
000069c9 0029 
000069cb 01        13635 	.data.b	1
000069cc 04a8      13636 	.data.b	168,4
000069ce 546e6143  13637 	.data.b	67,97,110,84,112,95,82,120,71,101,116,67,117,114,114,101,110,116,83,84,109,105,110,40,82,120,72,100,108,41,32,67,97,110,84,112,95,82,120,67,102,103,95,71,101,116,83,84,109,105,110,40,40,82,120,72,100,108,41,41
000069d2 78525f70 
000069d6 43746547 
000069da 65727275 
000069de 5453746e 
000069e2 286e696d 
000069e6 64487852 
000069ea 4320296c 
000069ee 70546e61 
000069f2 4378525f 
000069f6 475f6766 
000069fa 54537465 

                                                                      Page 343
                                                              C:\Users\Fengyuan\AppData\Local\Temp\gh_0000kos1.s
000069fe 286e696d 
00006a02 48785228 
00006a06 29296c64 
00006a0a 00        13638 	.data.b	0
00006a0b 01        13639 	.data.b	1
00006a0c 04a9      13640 	.data.b	169,4
00006a0e 546e6143  13641 	.data.b	67,97,110,84,112,95,82,120,71,101,116,67,117,114,114,101,110,116,66,83,40,82,120,72,100,108,41,32,67,97,110,84,112,95,82,120,67,102,103,95,71,101,116,66,83,40,40,82,120,72,100,108,41,41,0
00006a12 78525f70 
00006a16 43746547 
00006a1a 65727275 
00006a1e 5342746e 
00006a22 48785228 
00006a26 20296c64 
00006a2a 546e6143 
00006a2e 78525f70 
00006a32 5f676643 
00006a36 42746547 
00006a3a 52282853 
00006a3e 6c644878 
00006a42 002929 
00006a45 01        13642 	.data.b	1
00006a46 04b7      13643 	.data.b	183,4
00006a48 544e4143  13644 	.data.b	67,65,78,84,80,95,84,88,95,79,75,32,69,95,79,75,0
00006a4c 58545f50 
00006a50 204b4f5f 
00006a54 4b4f5f45 
00006a58 00 
00006a59 01        13645 	.data.b	1
00006a5a 04b8      13646 	.data.b	184,4
00006a5c 544e4143  13647 	.data.b	67,65,78,84,80,95,84,88,95,78,79,84,95,79,75,32,69,95,78,79,84,95,79,75,0
00006a60 58545f50 
00006a64 544f4e5f 
00006a68 204b4f5f 
00006a6c 4f4e5f45 
00006a70 4b4f5f54 
00006a74 00 
00006a75 01        13648 	.data.b	1
00006a76 04b9      13649 	.data.b	185,4
00006a78 544e4143  13650 	.data.b	67,65,78,84,80,95,84,88,95,66,85,83,89,32,40,48,120,48,70,117,41,0
00006a7c 58545f50 
00006a80 5355425f 
00006a84 30282059 
00006a88 75463078 
00006a8c 0029 
00006a8e 01        13651 	.data.b	1
00006a8f 04bd      13652 	.data.b	189,4
00006a91 544e4143  13653 	.data.b	67,65,78,84,80,95,82,69,83,69,84,95,66,85,84,95,75,69,69,80,95,77,65,80,80,73,78,71,32,40,67,97,110,84,112,95,82,101,115,101,116,67,111,110,116,114,111,108,84,121,112,101,41,40,48,120,48,48,117,41
00006a95 45525f50 
00006a99 5f544553 
00006a9d 5f545542 
00006aa1 5045454b 
00006aa5 50414d5f 
00006aa9 474e4950 
00006aad 61432820 
00006ab1 5f70546e 
00006ab5 65736552 
00006ab9 6e6f4374 
00006abd 6c6f7274 
00006ac1 65707954 
00006ac5 78302829 
00006ac9 29753030 

                                                                      Page 344
                                                              C:\Users\Fengyuan\AppData\Local\Temp\gh_0000kos1.s
00006acd 00        13654 	.data.b	0
00006ace 01        13655 	.data.b	1
00006acf 04be      13656 	.data.b	190,4
00006ad1 544e4143  13657 	.data.b	67,65,78,84,80,95,82,69,83,69,84,95,65,76,76,32,40,67,97,110,84,112,95,82,101,115,101,116,67,111,110,116,114,111,108,84,121,112,101,41,40,48,120,48,49,117,41,0
00006ad5 45525f50 
00006ad9 5f544553 
00006add 204c4c41 
00006ae1 6e614328 
00006ae5 525f7054 
00006ae9 74657365 
00006aed 746e6f43 
00006af1 546c6f72 
00006af5 29657079 
00006af9 30783028 
00006afd 00297531 
00006b01 04        13658 	.data.b	4
00006b02 01        13659 	.data.b	1
00006b03 019d      13660 	.data.b	157,1
00006b05 544e4143  13661 	.data.b	67,65,78,84,80,95,76,79,67,65,76,32,115,116,97,116,105,99,0
00006b09 4f4c5f50 
00006b0d 204c4143 
00006b11 74617473 
00006b15 006369 
00006b18 01        13662 	.data.b	1
00006b19 01a1      13663 	.data.b	161,1
00006b1b 544e4143  13664 	.data.b	67,65,78,84,80,95,76,79,67,65,76,95,73,78,76,73,78,69,32,76,79,67,65,76,95,73,78,76,73,78,69,0
00006b1f 4f4c5f50 
00006b23 5f4c4143 
00006b27 494c4e49 
00006b2b 4c20454e 
00006b2f 4c41434f 
00006b33 4c4e495f 
00006b37 00454e49 
00006b3b 01        13665 	.data.b	1
00006b3c 01ae      13666 	.data.b	174,1
00006b3e 546e6143  13667 	.data.b	67,97,110,84,112,95,80,100,117,82,82,120,73,110,100,105,99,97,116,105,111,110,40,67,97,110,84,112,82,120,80,100,117,73,100,44,82,101,115,117,108,116,41,32,40,80,100,117,82,95,67,97,110,84,112,82,120,73,110,100
00006b42 64505f70 
00006b46 78525275 
00006b4a 69646e49 
00006b4e 69746163 
00006b52 43286e6f 
00006b56 70546e61 
00006b5a 64507852 
00006b5e 2c644975 
00006b62 75736552 
00006b66 2029746c 
00006b6a 75645028 
00006b6e 61435f52 
00006b72 5270546e 
00006b76 646e4978 
00006b7a 74616369  13668 	.data.b	105,99,97,116,105,111,110,40,32,40,67,97,110,84,112,82,120,80,100,117,73,100,41,44,32,40,82,101,115,117,108,116,41,32,41,41,0
00006b7e 286e6f69 
00006b82 61432820 
00006b86 5270546e 
00006b8a 75645078 
00006b8e 2c296449 
00006b92 65522820 
00006b96 746c7573 
00006b9a 29292029 
00006b9e 00 
00006b9f 01        13669 	.data.b	1

                                                                      Page 345
                                                              C:\Users\Fengyuan\AppData\Local\Temp\gh_0000kos1.s
00006ba0 01b1      13670 	.data.b	177,1
00006ba2 546e6143  13671 	.data.b	67,97,110,84,112,95,80,100,117,82,84,120,67,111,110,102,105,114,109,97,116,105,111,110,40,67,97,110,84,112,84,120,80,100,117,73,100,44,82,101,115,117,108,116,41,32,40,80,100,117,82,95,67,97,110,84,112,84,120,67
00006ba6 64505f70 
00006baa 78545275 
00006bae 666e6f43 
00006bb2 616d7269 
00006bb6 6e6f6974 
00006bba 6e614328 
00006bbe 78547054 
00006bc2 49756450 
00006bc6 65522c64 
00006bca 746c7573 
00006bce 50282029 
00006bd2 5f527564 
00006bd6 546e6143 
00006bda 43785470 
00006bde 69666e6f  13672 	.data.b	111,110,102,105,114,109,97,116,105,111,110,40,32,40,67,97,110,84,112,84,120,80,100,117,73,100,41,44,32,40,82,101,115,117,108,116,41,32,41,41,0
00006be2 74616d72 
00006be6 286e6f69 
00006bea 61432820 
00006bee 5470546e 
00006bf2 75645078 
00006bf6 2c296449 
00006bfa 65522820 
00006bfe 746c7573 
00006c02 29292029 
00006c06 00 
00006c07 01        13673 	.data.b	1
00006c08 01b7      13674 	.data.b	183,1
00006c0a 546e6143  13675 	.data.b	67,97,110,84,112,95,80,100,117,82,83,116,97,114,116,79,102,82,101,99,101,112,116,105,111,110,40,67,97,110,84,112,82,120,80,100,117,73,100,44,83,100,117,76,101,110,103,116,104,44,82,120,66,117,102,83,105,122,101,80
00006c0e 64505f70 
00006c12 74535275 
00006c16 4f747261 
00006c1a 63655266 
00006c1e 69747065 
00006c22 43286e6f 
00006c26 70546e61 
00006c2a 64507852 
00006c2e 2c644975 
00006c32 4c756453 
00006c36 74676e65 
00006c3a 78522c68 
00006c3e 53667542 
00006c42 50657a69 
00006c46 20297274  13676 	.data.b	116,114,41,32,40,67,97,110,84,112,95,66,117,102,102,101,114,83,116,97,116,101,84,121,112,101,41,40,80,100,117,82,95,67,97,110,84,112,83,116,97,114,116,79,102,82,101,99,101,112,116,105,111,110,40,32,40,67,97,110
00006c4a 6e614328 
00006c4e 425f7054 
00006c52 65666675 
00006c56 61745372 
00006c5a 79546574 
00006c5e 28296570 
00006c62 52756450 
00006c66 6e61435f 
00006c6a 74537054 
00006c6e 4f747261 
00006c72 63655266 
00006c76 69747065 
00006c7a 20286e6f 
00006c7e 6e614328 
00006c82 78527054  13677 	.data.b	84,112,82,120,80,100,117,73,100,41,44,32,78,85,76,76,95,80,84,82,44,32,40,83,100,117,76,101,110,103,116,104,41,44,32,40,82,120,66,117,102,83,105,122,101,80,116,114,41,32,41,41,0
00006c86 49756450 

                                                                      Page 346
                                                              C:\Users\Fengyuan\AppData\Local\Temp\gh_0000kos1.s
00006c8a 202c2964 
00006c8e 4c4c554e 
00006c92 5254505f 
00006c96 5328202c 
00006c9a 654c7564 
00006c9e 6874676e 
00006ca2 28202c29 
00006ca6 75427852 
00006caa 7a695366 
00006cae 72745065 
00006cb2 29292029 
00006cb6 00 
00006cb7 01        13678 	.data.b	1
00006cb8 01bb      13679 	.data.b	187,1
00006cba 546e6143  13680 	.data.b	67,97,110,84,112,95,80,100,117,82,67,111,112,121,82,120,68,97,116,97,40,67,97,110,84,112,82,120,80,100,117,73,100,44,80,100,117,73,110,102,111,80,116,114,44,82,120,66,117,102,83,105,122,101,80,116,114,41,32,40
00006cbe 64505f70 
00006cc2 6f435275 
00006cc6 78527970 
00006cca 61746144 
00006cce 6e614328 
00006cd2 78527054 
00006cd6 49756450 
00006cda 64502c64 
00006cde 666e4975 
00006ce2 7274506f 
00006ce6 4278522c 
00006cea 69536675 
00006cee 7450657a 
00006cf2 28202972 
00006cf6 546e6143  13681 	.data.b	67,97,110,84,112,95,66,117,102,102,101,114,83,116,97,116,101,84,121,112,101,41,40,80,100,117,82,95,67,97,110,84,112,67,111,112,121,82,120,68,97,116,97,40,32,40,67,97,110,84,112,82,120,80,100,117,73,100,41,44
00006cfa 75425f70 
00006cfe 72656666 
00006d02 74617453 
00006d06 70795465 
00006d0a 50282965 
00006d0e 5f527564 
00006d12 546e6143 
00006d16 706f4370 
00006d1a 44785279 
00006d1e 28617461 
00006d22 61432820 
00006d26 5270546e 
00006d2a 75645078 
00006d2e 2c296449 
00006d32 64502820  13682 	.data.b	32,40,80,100,117,73,110,102,111,80,116,114,41,44,32,40,82,120,66,117,102,83,105,122,101,80,116,114,41,32,41,41,0
00006d36 666e4975 
00006d3a 7274506f 
00006d3e 28202c29 
00006d42 75427852 
00006d46 7a695366 
00006d4a 72745065 
00006d4e 29292029 
00006d52 00 
00006d53 01        13683 	.data.b	1
00006d54 01be      13684 	.data.b	190,1
00006d56 546e6143  13685 	.data.b	67,97,110,84,112,95,80,100,117,82,67,111,112,121,84,120,68,97,116,97,40,67,97,110,84,112,82,120,80,100,117,73,100,44,80,100,117,73,110,102,111,80,116,114,44,82,101,116,114,121,73,110,102,111,80,116,114,44,82,120
00006d5a 64505f70 
00006d5e 6f435275 
00006d62 78547970 
00006d66 61746144 
00006d6a 6e614328 

                                                                      Page 347
                                                              C:\Users\Fengyuan\AppData\Local\Temp\gh_0000kos1.s
00006d6e 78527054 
00006d72 49756450 
00006d76 64502c64 
00006d7a 666e4975 
00006d7e 7274506f 
00006d82 7465522c 
00006d86 6e497972 
00006d8a 74506f66 
00006d8e 78522c72 
00006d92 53667542  13686 	.data.b	66,117,102,83,105,122,101,80,116,114,41,32,40,67,97,110,84,112,95,66,117,102,102,101,114,83,116,97,116,101,84,121,112,101,41,40,80,100,117,82,95,67,97,110,84,112,67,111,112,121,84,120,68,97,116,97,40,32,40,67
00006d96 50657a69 
00006d9a 20297274 
00006d9e 6e614328 
00006da2 425f7054 
00006da6 65666675 
00006daa 61745372 
00006dae 79546574 
00006db2 28296570 
00006db6 52756450 
00006dba 6e61435f 
00006dbe 6f437054 
00006dc2 78547970 
00006dc6 61746144 
00006dca 43282028 
00006dce 70546e61  13687 	.data.b	97,110,84,112,82,120,80,100,117,73,100,41,44,32,40,80,100,117,73,110,102,111,80,116,114,41,44,32,78,85,76,76,95,80,84,82,44,32,40,82,120,66,117,102,83,105,122,101,80,116,114,41,32,41,41,0
00006dd2 64507852 
00006dd6 29644975 
00006dda 5028202c 
00006dde 6e497564 
00006de2 74506f66 
00006de6 202c2972 
00006dea 4c4c554e 
00006dee 5254505f 
00006df2 5228202c 
00006df6 66754278 
00006dfa 657a6953 
00006dfe 29727450 
00006e02 00292920 
00006e06 01        13688 	.data.b	1
00006e07 01c3      13689 	.data.b	195,1
00006e09 546e6143  13690 	.data.b	67,97,110,84,112,95,67,97,110,73,102,84,114,97,110,115,109,105,116,40,80,100,117,73,100,44,80,100,117,73,110,102,111,41,32,40,67,97,110,73,102,95,84,114,97,110,115,109,105,116,40,32,40,80,100,117,73,100,41,44
00006e0d 61435f70 
00006e11 5466496e 
00006e15 736e6172 
00006e19 2874696d 
00006e1d 49756450 
00006e21 64502c64 
00006e25 666e4975 
00006e29 2820296f 
00006e2d 496e6143 
00006e31 72545f66 
00006e35 6d736e61 
00006e39 20287469 
00006e3d 75645028 
00006e41 2c296449 
00006e45 64502820  13691 	.data.b	32,40,80,100,117,73,110,102,111,41,32,41,41,0
00006e49 666e4975 
00006e4d 2920296f 
00006e51 0029 
00006e53 01        13692 	.data.b	1
00006e54 01c9      13693 	.data.b	201,1

                                                                      Page 348
                                                              C:\Users\Fengyuan\AppData\Local\Temp\gh_0000kos1.s
00006e56 546e6143  13694 	.data.b	67,97,110,84,112,95,67,97,110,73,102,67,97,110,99,101,108,84,114,97,110,115,109,105,116,40,80,100,117,73,100,41,32,0
00006e5a 61435f70 
00006e5e 4366496e 
00006e62 65636e61 
00006e66 6172546c 
00006e6a 696d736e 
00006e6e 64502874 
00006e72 29644975 
00006e76 0020 
00006e78 01        13695 	.data.b	1
00006e79 01d0      13696 	.data.b	208,1
00006e7b 546e6143  13697 	.data.b	67,97,110,84,112,95,68,101,116,82,101,112,111,114,116,69,114,114,111,114,40,65,112,105,73,100,44,69,114,114,111,114,73,100,41,32,40,40,118,111,105,100,41,68,101,116,95,82,101,112,111,114,116,69,114,114,111,114,40,67
00006e7f 65445f70 
00006e83 70655274 
00006e87 4574726f 
00006e8b 726f7272 
00006e8f 69704128 
00006e93 452c6449 
00006e97 726f7272 
00006e9b 20296449 
00006e9f 6f762828 
00006ea3 44296469 
00006ea7 525f7465 
00006eab 726f7065 
00006eaf 72724574 
00006eb3 4328726f 
00006eb7 50544e41  13698 	.data.b	65,78,84,80,95,77,79,68,85,76,69,95,73,68,44,32,67,65,78,84,80,95,73,78,83,84,65,78,67,69,95,73,68,95,68,69,84,44,32,40,65,112,105,73,100,41,44,32,40,69,114,114,111,114,73,100,41,32,41,41
00006ebb 444f4d5f 
00006ebf 5f454c55 
00006ec3 202c4449 
00006ec7 544e4143 
00006ecb 4e495f50 
00006ecf 4e415453 
00006ed3 495f4543 
00006ed7 45445f44 
00006edb 28202c54 
00006edf 49697041 
00006ee3 202c2964 
00006ee7 72724528 
00006eeb 6449726f 
00006eef 29292029 
00006ef3 003b      13699 	.data.b	59,0
00006ef5 01        13700 	.data.b	1
00006ef6 01ed      13701 	.data.b	237,1
00006ef8 546e6143  13702 	.data.b	67,97,110,84,112,95,65,112,112,108,82,120,83,70,73,110,100,105,99,97,116,105,111,110,40,80,100,117,82,82,120,80,100,117,73,100,44,80,100,117,73,110,102,111,41,32,0
00006efc 70415f70 
00006f00 78526c70 
00006f04 6e494653 
00006f08 61636964 
00006f0c 6e6f6974 
00006f10 75645028 
00006f14 50785252 
00006f18 64497564 
00006f1c 7564502c 
00006f20 6f666e49 
00006f24 002029 
00006f27 01        13703 	.data.b	1
00006f28 01f3      13704 	.data.b	243,1
00006f2a 546e6143  13705 	.data.b	67,97,110,84,112,95,65,112,112,108,82,120,70,70,73,110,100,105,99,97,116,105,111,110,40,80,100,117,82,82,120,80,100,117,73,100,44,80,100,117,73,110,102,111,41,32,0
00006f2e 70415f70 
00006f32 78526c70 

                                                                      Page 349
                                                              C:\Users\Fengyuan\AppData\Local\Temp\gh_0000kos1.s
00006f36 6e494646 
00006f3a 61636964 
00006f3e 6e6f6974 
00006f42 75645028 
00006f46 50785252 
00006f4a 64497564 
00006f4e 7564502c 
00006f52 6f666e49 
00006f56 002029 
00006f59 01        13706 	.data.b	1
00006f5a 01f9      13707 	.data.b	249,1
00006f5c 546e6143  13708 	.data.b	67,97,110,84,112,95,65,112,112,108,82,120,67,70,73,110,100,105,99,97,116,105,111,110,40,80,100,117,82,82,120,80,100,117,73,100,44,80,100,117,73,110,102,111,41,32,0
00006f60 70415f70 
00006f64 78526c70 
00006f68 6e494643 
00006f6c 61636964 
00006f70 6e6f6974 
00006f74 75645028 
00006f78 50785252 
00006f7c 64497564 
00006f80 7564502c 
00006f84 6f666e49 
00006f88 002029 
00006f8b 01        13709 	.data.b	1
00006f8c 01ff      13710 	.data.b	255,1
00006f8e 546e6143  13711 	.data.b	67,97,110,84,112,95,65,112,112,108,70,114,97,109,101,84,114,97,110,115,109,105,115,115,105,111,110,40,67,97,110,73,102,84,120,80,100,117,73,100,44,80,100,117,73,110,102,111,41,32,0
00006f92 70415f70 
00006f96 72466c70 
00006f9a 54656d61 
00006f9e 736e6172 
00006fa2 7373696d 
00006fa6 286e6f69 
00006faa 496e6143 
00006fae 50785466 
00006fb2 64497564 
00006fb6 7564502c 
00006fba 6f666e49 
00006fbe 002029 
00006fc1 01        13712 	.data.b	1
00006fc2 0285      13713 	.data.b	133,2
00006fc4 546e6143  13714 	.data.b	67,97,110,84,112,95,65,112,112,108,70,114,97,109,101,84,120,67,111,110,102,105,114,109,97,116,105,111,110,40,67,97,110,73,102,84,120,80,100,117,73,100,41,32,0
00006fc8 70415f70 
00006fcc 72466c70 
00006fd0 54656d61 
00006fd4 6e6f4378 
00006fd8 6d726966 
00006fdc 6f697461 
00006fe0 6143286e 
00006fe4 5466496e 
00006fe8 75645078 
00006fec 20296449 
00006ff0 00 
00006ff1 01        13715 	.data.b	1
00006ff2 028c      13716 	.data.b	140,2
00006ff4 546e6143  13717 	.data.b	67,97,110,84,112,95,82,120,84,114,97,110,115,109,105,116,70,114,97,109,101,95,73,83,82,40,112,116,114,41,32,40,67,97,110,84,112,95,82,120,84,114,97,110,115,109,105,116,70,114,97,109,101,40,32,40,112,116,114,41
00006ff8 78525f70 
00006ffc 6e617254 
00007000 74696d73 
00007004 6d617246 
00007008 53495f65 
0000700c 74702852 

                                                                      Page 350
                                                              C:\Users\Fengyuan\AppData\Local\Temp\gh_0000kos1.s
00007010 28202972 
00007014 546e6143 
00007018 78525f70 
0000701c 6e617254 
00007020 74696d73 
00007024 6d617246 
00007028 28202865 
0000702c 29727470 
00007030 3b292920  13718 	.data.b	32,41,41,59,0
00007034 00 
00007035 01        13719 	.data.b	1
00007036 0294      13720 	.data.b	148,2
00007038 546e6143  13721 	.data.b	67,97,110,84,112,95,82,120,71,101,116,66,117,102,102,101,114,95,73,83,82,40,112,116,114,41,32,40,67,97,110,84,112,95,82,120,71,101,116,66,117,102,102,101,114,40,32,40,112,116,114,41,32,41,41,59,0
0000703c 78525f70 
00007040 42746547 
00007044 65666675 
00007048 53495f72 
0000704c 74702852 
00007050 28202972 
00007054 546e6143 
00007058 78525f70 
0000705c 42746547 
00007060 65666675 
00007064 28202872 
00007068 29727470 
0000706c 3b292920 
00007070 00 
00007071 01        13722 	.data.b	1
00007072 029c      13723 	.data.b	156,2
00007074 546e6143  13724 	.data.b	67,97,110,84,112,95,84,120,71,101,116,66,117,102,102,101,114,95,73,83,82,40,112,116,114,41,32,40,67,97,110,84,112,95,84,120,71,101,116,66,117,102,102,101,114,40,32,40,112,116,114,41,32,41,41,59,0
00007078 78545f70 
0000707c 42746547 
00007080 65666675 
00007084 53495f72 
00007088 74702852 
0000708c 28202972 
00007090 546e6143 
00007094 78545f70 
00007098 42746547 
0000709c 65666675 
000070a0 28202872 
000070a4 29727470 
000070a8 3b292920 
000070ac 00 
000070ad 01        13725 	.data.b	1
000070ae 02a7      13726 	.data.b	167,2
000070b0 546e6143  13727 	.data.b	67,97,110,84,112,95,68,101,116,65,115,115,101,114,116,40,67,104,101,99,107,44,65,112,105,73,100,44,69,114,114,111,114,73,100,41,32,123,32,105,102,32,40,33,40,67,104,101,99,107,41,41,32,123,67,97,110,84,112,95
000070b4 65445f70 
000070b8 73734174 
000070bc 28747265 
000070c0 63656843 
000070c4 70412c6b 
000070c8 2c644969 
000070cc 6f727245 
000070d0 29644972 
000070d4 69207b20 
000070d8 21282066 
000070dc 65684328 
000070e0 29296b63 
000070e4 61437b20 
000070e8 5f70546e 

                                                                      Page 351
                                                              C:\Users\Fengyuan\AppData\Local\Temp\gh_0000kos1.s
000070ec 52746544  13728 	.data.b	68,101,116,82,101,112,111,114,116,69,114,114,111,114,40,32,40,65,112,105,73,100,41,44,32,40,69,114,114,111,114,73,100,41,32,41,32,125,125,0
000070f0 726f7065 
000070f4 72724574 
000070f8 2028726f 
000070fc 69704128 
00007100 2c296449 
00007104 72452820 
00007108 49726f72 
0000710c 29202964 
00007110 007d7d20 
00007114 01        13729 	.data.b	1
00007115 02b0      13730 	.data.b	176,2
00007117 546e6143  13731 	.data.b	67,97,110,84,112,95,69,110,116,101,114,67,114,105,116,105,99,97,108,40,41,32,83,99,104,77,95,69,110,116,101,114,95,67,97,110,84,112,95,67,65,78,84,80,95,69,88,67,76,85,83,73,86,69,95,65,82,69,65,95
0000711b 6e455f70 
0000711f 43726574 
00007123 69746972 
00007127 286c6163 
0000712b 63532029 
0000712f 455f4d68 
00007133 7265746e 
00007137 6e61435f 
0000713b 435f7054 
0000713f 50544e41 
00007143 4358455f 
00007147 4953554c 
0000714b 415f4556 
0000714f 5f414552 
00007153 00292830  13732 	.data.b	48,40,41,0
00007157 01        13733 	.data.b	1
00007158 02b1      13734 	.data.b	177,2
0000715a 546e6143  13735 	.data.b	67,97,110,84,112,95,76,101,97,118,101,67,114,105,116,105,99,97,108,40,41,32,83,99,104,77,95,69,120,105,116,95,67,97,110,84,112,95,67,65,78,84,80,95,69,88,67,76,85,83,73,86,69,95,65,82,69,65,95,48
0000715e 654c5f70 
00007162 43657661 
00007166 69746972 
0000716a 286c6163 
0000716e 63532029 
00007172 455f4d68 
00007176 5f746978 
0000717a 546e6143 
0000717e 41435f70 
00007182 5f50544e 
00007186 4c435845 
0000718a 56495355 
0000718e 52415f45 
00007192 305f4145 
00007196 002928    13736 	.data.b	40,41,0
00007199 03        13737 	.data.b	3
0000719a 02c0      13738 	.data.b	192,2
0000719c 10        13739 	.data.b	16
0000719d 04        13740 	.data.b	4
0000719e 03        13741 	.data.b	3
0000719f 02c3      13742 	.data.b	195,2
000071a1 10        13743 	.data.b	16
000071a2 04        13744 	.data.b	4
000071a3 03        13745 	.data.b	3
000071a4 02e4      13746 	.data.b	228,2
000071a6 10        13747 	.data.b	16
000071a7 04        13748 	.data.b	4
000071a8 03        13749 	.data.b	3
000071a9 2bdc      13750 	.data.b	220,43
000071ab 10        13751 	.data.b	16

                                                                      Page 352
                                                              C:\Users\Fengyuan\AppData\Local\Temp\gh_0000kos1.s
000071ac 04        13752 	.data.b	4
000071ad 04        13753 	.data.b	4
000071ae 00        13754 	.data.b	0
                   13755 	.section	.debug_abbrev
000001cb 00        13756 	.data.b	0
                   13757 	.section	.debug_info
                   13758 .Ldw_end:
