                                                                      Page 1
                                                              C:\Users\Fengyuan\AppData\Local\Temp\gh_0000fuk1.s
Command Line: C:\ghs\comp_201714\asarm.exe -elf -b0 -I../../../bsw/../thirdparty/mcal_s32k/supply/s32k14x_mcal4_2_rtm_hf3_1_0_1/eclipse/plugins/base_ts_t40d2m10i1r0/include -I../../../bsw/../thirdparty/mcal_s32k/supply/s32k14x_mcal4_2_rtm_hf3_1_0_1/eclipse/plugins/dio_ts_t40d2m10i1r0/include -I../../../bsw/../thirdparty/mcal_s32k/supply/s32k14x_mcal4_2_rtm_hf3_1_0_1/eclipse/plugins/mcu_ts_t40d2m10i1r0/include -I../../../bsw/../thirdparty/mcal_s32k/supply/s32k14x_mcal4_2_rtm_hf3_1_0_1/eclipse/plugins/port_ts_t40d2m10i1r0/include -I../../../bsw/../thirdparty/mcal_s32k/supply/s32k14x_mcal4_2_rtm_hf3_1_0_1/eclipse/plugins/spi_ts_t40d2m10i1r0/include -I../../../bsw/_common -I../../../bsw/bswm -I../../../bsw/can -I../../../bsw/canif -I../../../bsw/cansm -I../../../bsw/cantp -I../../../bsw/com -I../../../bsw/comm -I../../../bsw/dcm -I../../../bsw/dem -I../../../bsw/det -I../../../bsw/ecum -I../../../bsw/gendata -I../../../bsw/iohwab -I../../../bsw/mcal_s32k -I../../../bsw/os -I../../../bsw/pdur -I../../../bsw/vstdlib -I./shared/zbrs_armcommon -I./shared/zbrs_asrembeddedruntimesystemcfg5 -I./shared/zbrs_s32arm -Ic:/ghs/comp_201714/ansi -Ic:/ghs/comp_201714/include/arm -Igendata -Igendata/components -Igendata/include -Iinclude -IC:\ghs\comp_201714\lib\thumb2 -cpu=cortexm4 -fpu=soft -patch_dbo=C:\Vector\CBD1800257_D01_S32K1xx\Applications\S32K144_Start_new\Appl\obj\Com.dbo -source=Com.c -o obj\gh_0000fuk1.o -list=lst/Com.lst C:\Users\Fengyuan\AppData\Local\Temp\gh_0000fuk1.s 
Original File: C:\Users\Fengyuan\AppData\Local\Temp\gh_0000fuk1.s
Source File: Com.c
Directory: C:\Vector\CBD1800257_D01_S32K1xx\Applications\S32K144_Start_new\Appl
Host OS: Windows
EASE: Copyright (C) 1983-2016 Green Hills Software.  All Rights Reserved.
Release: Compiler v2017.1.4
Build Directory: [Directory] COMP-VAL-WIN47:l:/compiler/release-branch-2017-1-comp/build/v2017.1-2017-04-09/win32-comp-ecom
Revision: [VCInfo] http://toolsvc/branches/release-branch-2017-1-comp/src@589570 (built by auto-compiler)
Revision Date: Mon Apr 10 10:52:57 2017

Release Date: Mon Apr 10 08:00:05 2017

                       1 ;Driver Command: ccarm -DBRS_DERIVATIVE_S32K144 -DBRS_OSC_CLK=8
                       2 ;		-DBRS_TIMEBASE_CLOCK=96 -DBRS_OS_USECASE_OSGEN7 -DBRS_EVA_BOARD_
                       3 ;		-DBRS_PROGRAM_CODE_LOCATION_FLASH
                       4 ;		-DBRS_VECTOR_TABLE_LOCATION_FLASH -DBRS_CPU_CORE_CORTEX_M4
                       5 ;		-DBRS_STACK_SIZE=0xC800 -DBRS_PLATFORM_ARM -DBRS_COMP_GHS
                       6 ;		-DBRS_INSTRUCTION_SET_ARM -DBRS_OPTIONBYTES_ADR=1
                       7 ;		-DBRS_RAM_ETH_SIZE=0 -DBRS_RAM_ETH_MAPPING=0
                       8 ;		-DBRS_RAM_SIZE=0x0000F000 -DBRS_RAM_MAPPING=0x1FFF8000 -c
                       9 ;		-object_dir=obj -list=lst/Com.lst --diag_suppress=1 -cpu=cortexm4
                      10 ;		-noobj --long_long -g -dual_debug -farcalls -dwarf2
                      11 ;		-no_misalign_pack -nostartfiles -act_like=2015.1
                      12 ;		-pragma_asm_inline -thumb -thumb_lib -Osize -object_dir= -e
                      13 ;		Startup_Handler
                      14 ;		-I../../../bsw/../thirdparty/mcal_s32k/supply/s32k14x_mcal4_2_rtm_hf3_1_0_1/eclipse/plugins/base_ts_t40d2m10i1r0/include
                      15 ;		-I../../../bsw/../thirdparty/mcal_s32k/supply/s32k14x_mcal4_2_rtm_hf3_1_0_1/eclipse/plugins/dio_ts_t40d2m10i1r0/include
                      16 ;		-I../../../bsw/../thirdparty/mcal_s32k/supply/s32k14x_mcal4_2_rtm_hf3_1_0_1/eclipse/plugins/mcu_ts_t40d2m10i1r0/include
                      17 ;		-I../../../bsw/../thirdparty/mcal_s32k/supply/s32k14x_mcal4_2_rtm_hf3_1_0_1/eclipse/plugins/port_ts_t40d2m10i1r0/include
                      18 ;		-I../../../bsw/../thirdparty/mcal_s32k/supply/s32k14x_mcal4_2_rtm_hf3_1_0_1/eclipse/plugins/spi_ts_t40d2m10i1r0/include
                      19 ;		-I../../../bsw/_common -I../../../bsw/bswm -I../../../bsw/can
                      20 ;		-I../../../bsw/canif -I../../../bsw/cansm -I../../../bsw/cantp
                      21 ;		-I../../../bsw/com -I../../../bsw/comm -I../../../bsw/dcm
                      22 ;		-I../../../bsw/dem -I../../../bsw/det -I../../../bsw/ecum
                      23 ;		-I../../../bsw/gendata -I../../../bsw/iohwab
                      24 ;		-I../../../bsw/mcal_s32k -I../../../bsw/os -I../../../bsw/pdur
                      25 ;		-I../../../bsw/vstdlib -I./shared/zbrs_armcommon
                      26 ;		-I./shared/zbrs_asrembeddedruntimesystemcfg5
                      27 ;		-I./shared/zbrs_s32arm -Ic:/ghs/comp_201714/ansi
                      28 ;		-Ic:/ghs/comp_201714/include/arm -Igendata -Igendata/components
                      29 ;		-Igendata/include -Iinclude ../../../BSW/Com/Com.c
                      30 ;Source File:   ../../../BSW/Com/Com.c
                      31 ;Directory:     
                      32 ;		C:\Vector\CBD1800257_D01_S32K1xx\Applications\S32K144_Start_new\Appl
                      33 ;Compile Date:  Fri Jun 18 09:57:08 2021
                      34 ;Host OS:       Win32
                      35 ;Version:       C-ARM 2017.1.4 RELEASE VERSION
                      36 ;Release:       Compiler v2017.1.4
                      37 ;Revision Date: Tue Apr 11 01:37:22 2017
                      38 ;Release Date:  Mon Apr 10 08:00:05 2017
                      39 ; ecom  -g -w -OMS
                      40 	.text
                      41 ..bof.C.3A.5CVector.5CCBD1800257_D01_S32K1xx.5CApplications.5CS32K144_Start_new.5CAppl.5Cobj.5CCom...43.3A.5CVector.5CCBD1800257_D01_S32K1xx.5CApplications.5CS32K144_Start_new.5CAppl..60CBFD75..0::
                      42 	.align	2
                      43 ..gh.f.a.1.e.0:
                      44 	.endo	..gh.f.a.1.e.0
                      45 	.thumb2
                      46 Com_Init::
00000000 b570         47 	push	{r4-r6,lr}
                      48 .LDW01:
00000002 49b4*        49 	ldr	r1,.L2111
00000004 2500         50 	movs	r5,0

                                                                      Page 2
                                                              C:\Users\Fengyuan\AppData\Local\Temp\gh_0000fuk1.s
00000006 7808         51 	ldrb	r0,[r1]
00000008 b100*        52 	cbz	r0,.L1262
0000000a 2504         53 	movs	r5,4
                      54 .L1262:
0000000c 2100         55 	movs	r1,0
                      56 .L1263:
0000000e 4bb2*        57 	ldr	r3,.L2112
00000010 ebd10281     58 	rsbs	r2,r1,r1 lsl 2
00000014 5c98         59 	ldrb	r0,[r3,r2]
00000016 b138*        60 	cbz	r0,.L1270
00000018 18d2         61 	adds	r2,r2,r3
0000001a 7892         62 	ldrb	r2,[r2,2]
0000001c b2c8         63 	uxtb	r0,r1
0000001e b91a*        64 	cbnz	r2,.L1270
00000020 4cae*        65 	ldr	r4,.L2113
00000022 4aaf*        66 	ldr	r2,.L2114
00000024 7823         67 	ldrb	r3,[r4]
00000026 5413         68 	strb	r3,[r2,r0]
                      69 .L1270:
00000028 3101         70 	adds	r1,1
0000002a 2903         71 	cmp	r1,3
0000002c d3ef*        72 	blo	.L1263
0000002e 49ad*        73 	ldr	r1,.L2115
00000030 7808         74 	ldrb	r0,[r1]
00000032 b110*        75 	cbz	r0,.L1277
00000034 49ac*        76 	ldr	r1,.L2116
00000036 2000         77 	movs	r0,0
00000038 8008         78 	strh	r0,[r1]
                      79 .L1277:
0000003a 49ac*        80 	ldr	r1,.L2117
0000003c 4604         81 	cpy	r4,r0
                      82 ;line13701
                      83 ..lin.a55385e..b691a697.0_1::
                      84 .LDWlin1:
0000003e 7008         85 	strb	r0,[r1]
                      86 .L1285:
00000040 49ab*        87 	ldr	r1,.L2118
00000042 4bac*        88 	ldr	r3,.L2119
00000044 eb110184     89 	adds	r1,r1,r4 lsl 2
00000048 788a         90 	ldrb	r2,[r1,2]
0000004a 0060         91 	lsls	r0,r4,1
0000004c 52c2         92 	strh	r2,[r0,r3]
0000004e 78c8         93 	ldrb	r0,[r1,3]
00000050 49a9*        94 	ldr	r1,.L2120
00000052 4baa*        95 	ldr	r3,.L2121
00000054 1841         96 	adds	r1,r0,r1
00000056 18c0         97 	adds	r0,r0,r3
00000058 4ba9*        98 	ldr	r3,.L2122
0000005a 4798         99 	blx	r3
0000005c 4ba9*       100 	ldr	r3,.L2123
0000005e 4aaa*       101 	ldr	r2,.L2124
00000060 f8130014    102 	ldrb	r0,[r3,r4 lsl 1]
00000064 3800        103 	subs	r0,0
00000066 bf18        104 	it	ne
00000068 2001        105 	mov	r0,1
0000006a 5510        106 	strb	r0,[r2,r4]
0000006c b128*       107 	cbz	r0,.L1300
0000006e 49a7*       108 	ldr	r1,.L2125
00000070 7808        109 	ldrb	r0,[r1]
00000072 3800        110 	subs	r0,0
00000074 bf18        111 	it	ne

                                                                      Page 3
                                                              C:\Users\Fengyuan\AppData\Local\Temp\gh_0000fuk1.s
00000076 2001        112 	mov	r0,1
00000078 e004*       113 	b	.L1301
                     114 .L1300:
0000007a 49a5*       115 	ldr	r1,.L2126
0000007c 7808        116 	ldrb	r0,[r1]
0000007e 3800        117 	subs	r0,0
00000080 bf18        118 	it	ne
00000082 2001        119 	mov	r0,1
                     120 .L1301:
00000084 4aa3*       121 	ldr	r2,.L2127
00000086 2101        122 	movs	r1,1
00000088 b118*       123 	cbz	r0,.L1303
0000008a 4608        124 	cpy	r0,r1
0000008c 5511        125 	strb	r1,[r2,r4]
0000008e 4ba2*       126 	ldr	r3,.L2128
00000090 e000*       127 	b	.L1296
                     128 .L1303:
00000092 4613        129 	cpy	r3,r2
                     130 .L1296:
00000094 5518        131 	strb	r0,[r3,r4]
00000096 4ba1*       132 	ldr	r3,.L2129
00000098 2600        133 	movs	r6,0
0000009a 551e        134 	strb	r6,[r3,r4]
0000009c b108*       135 	cbz	r0,.L1281
0000009e 4a9e*       136 	ldr	r2,.L2128
000000a0 5511        137 	strb	r1,[r2,r4]
                     138 .L1281:
000000a2 489f*       139 	ldr	r0,.L2130
000000a4 5506        140 	strb	r6,[r0,r4]
000000a6 3401        141 	adds	r4,1
000000a8 2c02        142 	cmp	r4,2
000000aa d3c9*       143 	blo	.L1285
                     144 ;line13748
                     145 ..lin.a55385e..b691a697.0_2::
                     146 .LDWlin2:
000000ac 4a9d*       147 	ldr	r2,.L2131
000000ae 8011        148 	strh	r1,[r2]
000000b0 4a9d*       149 	ldr	r2,.L2132
000000b2 8011        150 	strh	r1,[r2]
000000b4 4a9d*       151 	ldr	r2,.L2133
000000b6 8011        152 	strh	r1,[r2]
000000b8 4a9d*       153 	ldr	r2,.L2134
000000ba 8011        154 	strh	r1,[r2]
000000bc 4a9d*       155 	ldr	r2,.L2135
000000be 8011        156 	strh	r1,[r2]
000000c0 4a84*       157 	ldr	r2,.L2111
000000c2 002b        158 	movs	r3,r5
000000c4 7011        159 	strb	r1,[r2]
000000c6 d004*       160 	beq	.L1246
                     161 ;line13785
                     162 ..lin.a55385e..b691a697.0_3::
                     163 .LDWlin3:
000000c8 2032        164 	movs	r0,50
000000ca 4c9b*       165 	ldr	r4,.L2136
000000cc 460a        166 	cpy	r2,r1
000000ce 4631        167 	cpy	r1,r6
000000d0 47a0        168 	blx	r4
                     169 .L1246:
                     170 .LDW11:
000000d2 bd70        171 	pop	{r4-r6,pc}
                     172 __ghs_eofn_Com_Init::

                                                                      Page 4
                                                              C:\Users\Fengyuan\AppData\Local\Temp\gh_0000fuk1.s
                     173 	.endf	Com_Init
                     174 ;errorId	r5	local
                     175 ;com_RxAccessInfoIdx	r0	local
                     176 ;idxDestValue	r0	local
                     177 ;ComTxPduId	r4	local
                     178 
                     179 ;config	none	param
                     180 
                     181 	.section ".bss","awb"
                     182 .L1900:
                     183 	.endo	.L1900
                     184 	.text
                     185 ..gh.f.a.1.e.1:
                     186 	.endo	..gh.f.a.1.e.1
                     187 Com_InitMemory::
                     188 .LDW21:
000000d4 497f*       189 	ldr	r1,.L2111
000000d6 2000        190 	movs	r0,0
000000d8 7008        191 	strb	r0,[r1]
                     192 .LDW31:
000000da 4770        193 	ret
                     194 __ghs_eofn_Com_InitMemory::
                     195 	.endf	Com_InitMemory
                     196 
                     197 	.section ".bss","awb"
                     198 .L2158:
                     199 	.endo	.L2158
                     200 	.text
                     201 ..gh.f.a.1.e.2:
                     202 	.endo	..gh.f.a.1.e.2
                     203 Com_DeInit::
000000dc b510        204 	push	{r4,lr}
000000de b081        205 	sub	sp,4
                     206 .LDW41:
000000e0 497c*       207 	ldr	r1,.L2111
000000e2 7808        208 	ldrb	r0,[r1]
000000e4 b160*       209 	cbz	r0,.L2182
                     210 .LDW51:
                     211 
000000e6 4995*       212 	ldr	r1,.L2271
000000e8 4668        213 	mov	r0,sp
000000ea 3003        214 	adds	r0,3
000000ec 4788        215 	blx	r1
000000ee 4668        216 	mov	r0,sp
000000f0 4a93*       217 	ldr	r2,.L2272
000000f2 3003        218 	adds	r0,3
000000f4 2100        219 	movs	r1,0
                     220 .LDW61:
                     221 
000000f6 4790        222 	blx	r2
000000f8 4b76*       223 	ldr	r3,.L2111
000000fa 2000        224 	movs	r0,0
000000fc 7018        225 	strb	r0,[r3]
000000fe e005*       226 	b	.L2176
                     227 .L2182:
                     228 ;line13899
                     229 ..lin.a55385e..95376900.0_4::
                     230 .LDWlin4:
00000100 2032        231 	movs	r0,50
00000102 2302        232 	movs	r3,2
00000104 4c8c*       233 	ldr	r4,.L2136

                                                                      Page 5
                                                              C:\Users\Fengyuan\AppData\Local\Temp\gh_0000fuk1.s
00000106 461a        234 	cpy	r2,r3
00000108 2100        235 	movs	r1,0
0000010a 47a0        236 	blx	r4
                     237 .L2176:
                     238 .LDW71:
0000010c b001        239 	add	sp,4
0000010e bd10        240 	pop	{r4,pc}
                     241 __ghs_eofn_Com_DeInit::
                     242 	.endf	Com_DeInit
                     243 ;clearIpduGroupVector	[sp,3]	local
                     244 
                     245 	.section ".bss","awb"
                     246 .L2229:
                     247 	.endo	.L2229
                     248 	.text
                     249 ..gh.f.a.1.e.3:
                     250 	.endo	..gh.f.a.1.e.3
                     251 Com_IpduGroupControl::
00000110 b5f0        252 	push	{r4-r7,lr}
00000112 b082        253 	sub	sp,8
00000114 9001        254 	str	r0,[sp,4]
00000116 460e        255 	cpy	r6,r1
                     256 .LDW81:
00000118 486e*       257 	ldr	r0,.L2111
0000011a 7801        258 	ldrb	r1,[r0]
0000011c 2900        259 	cmp	r1,0
0000011e f00080bb*   260 	beq	.L2404
                     261 ;line13935
                     262 ..lin.a55385e..7871f363.0_5::
                     263 .LDWlin5:
00000122 4988*       264 	ldr	r1,.L4543
00000124 4788        265 	blx	r1
00000126 2100        266 	movs	r1,0
00000128 460b        267 	cpy	r3,r1
0000012a 460c        268 	cpy	r4,r1
                     269 .L2282:
0000012c 9d01        270 	ldr	r5,[sp,4]
0000012e 1c5a        271 	adds	r2,r3,1
00000130 5d2d        272 	ldrb	r5,[r5,r4]
00000132 402a        273 	ands	r2,r5
00000134 d000*       274 	beq	.L2285
00000136 2101        275 	movs	r1,1
                     276 .L2285:
00000138 3401        277 	adds	r4,1
0000013a 3301        278 	adds	r3,1
0000013c b2db        279 	uxtb	r3,r3
0000013e ea510203    280 	orrs	r2,r1,r3
00000142 d0f3*       281 	beq	.L2282
00000144 4d69*       282 	ldr	r5,.L2117
00000146 782a        283 	ldrb	r2,[r5]
00000148 3a00        284 	subs	r2,0
0000014a bf18        285 	it	ne
0000014c 2201        286 	mov	r2,1
0000014e 428a        287 	cmp	r2,r1
00000150 d01b*       288 	beq	.L2324
00000152 b1c9*       289 	cbz	r1,.L2544
00000154 2e01        290 	cmp	r6,1
00000156 d116*       291 	bne	.L2292
00000158 2300        292 	movs	r3,0
                     293 .L2306:
0000015a 4c5f*       294 	ldr	r4,.L2112

                                                                      Page 6
                                                              C:\Users\Fengyuan\AppData\Local\Temp\gh_0000fuk1.s
0000015c ebd30283    295 	rsbs	r2,r3,r3 lsl 2
00000160 5ca0        296 	ldrb	r0,[r4,r2]
00000162 b138*       297 	cbz	r0,.L2313
00000164 1912        298 	adds	r2,r2,r4
00000166 7892        299 	ldrb	r2,[r2,2]
00000168 b2d9        300 	uxtb	r1,r3
0000016a b91a*       301 	cbnz	r2,.L2313
0000016c 485b*       302 	ldr	r0,.L2113
0000016e 4a5c*       303 	ldr	r2,.L2114
00000170 7800        304 	ldrb	r0,[r0]
00000172 5450        305 	strb	r0,[r2,r1]
                     306 .L2313:
00000174 3301        307 	adds	r3,1
00000176 2b03        308 	cmp	r3,3
00000178 d3ef*       309 	blo	.L2306
0000017a 485a*       310 	ldr	r0,.L2115
0000017c 7801        311 	ldrb	r1,[r0]
0000017e b111*       312 	cbz	r1,.L2292
00000180 4859*       313 	ldr	r0,.L2116
00000182 2100        314 	movs	r1,0
00000184 8001        315 	strh	r1,[r0]
                     316 .L2292:
00000186 2101        317 	movs	r1,1
                     318 .L2544:
00000188 7029        319 	strb	r1,[r5]
                     320 .L2324:
0000018a 4866*       321 	ldr	r0,.L2131
0000018c 8801        322 	ldrh	r1,[r0]
0000018e b929*       323 	cbnz	r1,.L2333
00000190 2301        324 	movs	r3,1
00000192 496d*       325 	ldr	r1,.L4544
00000194 8003        326 	strh	r3,[r0]
00000196 4788        327 	blx	r1
00000198 496a*       328 	ldr	r1,.L4543
0000019a 4788        329 	blx	r1
                     330 .L2333:
0000019c 4a61*       331 	ldr	r2,.L2131
0000019e 2301        332 	movs	r3,1
000001a0 4969*       333 	ldr	r1,.L4544
000001a2 8013        334 	strh	r3,[r2]
                     335 .LDW91:
                     336 
                     337 ;line13939
                     338 ..lin.a55385e..7871f363.0_6::
                     339 .LDWlin6:
000001a4 4788        340 	blx	r1
000001a6 4967*       341 	ldr	r1,.L4543
000001a8 4788        342 	blx	r1
000001aa 2500        343 	movs	r5,0
                     344 .L2341:
                     345 .LDW02:
                     346 
000001ac 4967*       347 	ldr	r1,.L4545
000001ae 462c        348 	cpy	r4,r5
000001b0 2200        349 	movs	r2,0
000001b2 5d0f        350 	ldrb	r7,[r1,r4]
000001b4 4639        351 	cpy	r1,r7
000001b6 4613        352 	cpy	r3,r2
000001b8 e00b*       353 	b	.L2348
                     354 .L2345:
000001ba b402        355 	push	{r1}

                                                                      Page 7
                                                              C:\Users\Fengyuan\AppData\Local\Temp\gh_0000fuk1.s
000001bc 1c48        356 	adds	r0,r1,1
000001be b2c1        357 	uxtb	r1,r0
000001c0 9802        358 	ldr	r0,[sp,8]
000001c2 5cc0        359 	ldrb	r0,[r0,r3]
000001c4 4008        360 	ands	r0,r1
000001c6 bc02        361 	pop	{r1}
000001c8 d000*       362 	beq	.L2347
000001ca 2201        363 	movs	r2,1
                     364 .L2347:
000001cc 3301        365 	adds	r3,1
000001ce 3101        366 	adds	r1,1
000001d0 b2c9        367 	uxtb	r1,r1
                     368 .L2348:
000001d2 1c78        369 	adds	r0,r7,1
000001d4 b2c0        370 	uxtb	r0,r0
000001d6 4281        371 	cmp	r1,r0
000001d8 d201*       372 	bhs	.L2342
000001da 2a00        373 	cmp	r2,0
000001dc d0ed*       374 	beq	.L2345
                     375 .L2342:
                     376 ;line13953
                     377 ..lin.a55385e..7871f363.0_7::
                     378 .LDWlin7:
000001de 4f50*       379 	ldr	r7,.L2130
000001e0 5d39        380 	ldrb	r1,[r7,r4]
000001e2 3900        381 	subs	r1,0
000001e4 bf18        382 	it	ne
000001e6 2101        383 	mov	r1,1
000001e8 4291        384 	cmp	r1,r2
000001ea d040*       385 	beq	.L2392
000001ec 2a01        386 	cmp	r2,1
000001ee d135*       387 	bne	.L2388
000001f0 2e01        388 	cmp	r6,1
000001f2 d130*       389 	bne	.L2359
000001f4 4a3e*       390 	ldr	r2,.L2118
000001f6 483f*       391 	ldr	r0,.L2119
000001f8 eb120385    392 	adds	r3,r2,r5 lsl 2
000001fc 789a        393 	ldrb	r2,[r3,2]
000001fe 0069        394 	lsls	r1,r5,1
00000200 520a        395 	strh	r2,[r1,r0]
00000202 493d*       396 	ldr	r1,.L2120
00000204 78db        397 	ldrb	r3,[r3,3]
00000206 483d*       398 	ldr	r0,.L2121
00000208 1859        399 	adds	r1,r3,r1
0000020a 1818        400 	adds	r0,r3,r0
0000020c 4b3c*       401 	ldr	r3,.L2122
0000020e 4798        402 	blx	r3
00000210 b2ea        403 	uxtb	r2,r5
00000212 483c*       404 	ldr	r0,.L2123
00000214 4b3c*       405 	ldr	r3,.L2124
00000216 f8101012    406 	ldrb	r1,[r0,r2 lsl 1]
0000021a 3900        407 	subs	r1,0
0000021c bf18        408 	it	ne
0000021e 2101        409 	mov	r1,1
00000220 5499        410 	strb	r1,[r3,r2]
00000222 b129*       411 	cbz	r1,.L2381
00000224 4839*       412 	ldr	r0,.L2125
00000226 7801        413 	ldrb	r1,[r0]
00000228 3900        414 	subs	r1,0
0000022a bf18        415 	it	ne
0000022c 2101        416 	mov	r1,1

                                                                      Page 8
                                                              C:\Users\Fengyuan\AppData\Local\Temp\gh_0000fuk1.s
0000022e e004*       417 	b	.L2382
                     418 .L2381:
00000230 4837*       419 	ldr	r0,.L2126
00000232 7801        420 	ldrb	r1,[r0]
00000234 3900        421 	subs	r1,0
00000236 bf18        422 	it	ne
00000238 2101        423 	mov	r1,1
                     424 .L2382:
0000023a b2ea        425 	uxtb	r2,r5
0000023c 4b35*       426 	ldr	r3,.L2127
0000023e b111*       427 	cbz	r1,.L2377
00000240 4631        428 	cpy	r1,r6
00000242 549e        429 	strb	r6,[r3,r2]
00000244 4b34*       430 	ldr	r3,.L2128
                     431 .L2377:
00000246 5499        432 	strb	r1,[r3,r2]
00000248 4b34*       433 	ldr	r3,.L2129
0000024a b2ea        434 	uxtb	r2,r5
0000024c 2000        435 	movs	r0,0
0000024e 5498        436 	strb	r0,[r3,r2]
00000250 b109*       437 	cbz	r1,.L2359
00000252 4931*       438 	ldr	r1,.L2128
00000254 548e        439 	strb	r6,[r1,r2]
                     440 .L2359:
00000256 2101        441 	movs	r1,1
00000258 5539        442 	strb	r1,[r7,r4]
0000025a e008*       443 	b	.L2392
                     444 .L2388:
0000025c 492f*       445 	ldr	r1,.L2129
0000025e b2e8        446 	uxtb	r0,r5
00000260 2200        447 	movs	r2,0
00000262 540a        448 	strb	r2,[r1,r0]
00000264 492c*       449 	ldr	r1,.L2128
00000266 2201        450 	movs	r2,1
00000268 540a        451 	strb	r2,[r1,r0]
0000026a 2100        452 	movs	r1,0
0000026c 5439        453 	strb	r1,[r7,r0]
                     454 .L2392:
                     455 ;line13955
                     456 ..lin.a55385e..7871f363.0_8::
                     457 .LDWlin8:
0000026e 482e*       458 	ldr	r0,.L2132
00000270 8801        459 	ldrh	r1,[r0]
00000272 3901        460 	subs	r1,1
00000274 d301*       461 	blo	.L2394
00000276 8001        462 	strh	r1,[r0]
00000278 e005*       463 	b	.L2390
                     464 .L2394:
0000027a 2301        465 	movs	r3,1
0000027c 4932*       466 	ldr	r1,.L4544
0000027e 8003        467 	strh	r3,[r0]
00000280 4788        468 	blx	r1
00000282 4930*       469 	ldr	r1,.L4543
00000284 4788        470 	blx	r1
                     471 .L2390:
                     472 .LDW12:
                     473 
                     474 ;line13945
                     475 ..lin.a55385e..7871f363.0_9::
                     476 .LDWlin9:
00000286 3501        477 	adds	r5,1

                                                                      Page 9
                                                              C:\Users\Fengyuan\AppData\Local\Temp\gh_0000fuk1.s
00000288 2d02        478 	cmp	r5,2
0000028a d38f*       479 	blo	.L2341
                     480 ;line13958
                     481 ..lin.a55385e..7871f363.0_10::
                     482 .LDWlin10:
0000028c 4a26*       483 	ldr	r2,.L2132
0000028e 2301        484 	movs	r3,1
00000290 492d*       485 	ldr	r1,.L4544
00000292 8013        486 	strh	r3,[r2]
00000294 4788        487 	blx	r1
00000296 e004*       488 	b	.L2273
                     489 .L2404:
                     490 .LDW22:
                     491 
                     492 ;line13970
                     493 ..lin.a55385e..7871f363.0_11::
                     494 .LDWlin11:
00000298 2032        495 	movs	r0,50
0000029a 4c27*       496 	ldr	r4,.L2136
0000029c 2302        497 	movs	r3,2
0000029e 2203        498 	movs	r2,3
000002a0 47a0        499 	blx	r4
                     500 .L2273:
                     501 .LDW32:
000002a2 b002        502 	add	sp,8
000002a4 bdf0        503 	pop	{r4-r7,pc}
                     504 __ghs_eofn_Com_IpduGroupControl::
                     505 	.endf	Com_IpduGroupControl
                     506 ;bRequestedActiveState	r1	local
                     507 ;pduGrpVectorIdx	r3	local
                     508 ;iByteIndex	r4	local
                     509 ;com_RxAccessInfoIdx	r1	local
                     510 ;idxDestValue	r1	local
                     511 ;idx	r5	local
                     512 ;ComTxPduId	r4	local
                     513 ;bRequestedActiveState	r2	local
                     514 ;bRequestedActiveState	r2	local
                     515 ;pduGrpVectorIdx	r1	local
                     516 ;iByteIndex	r3	local
                     517 
                     518 ;ipduGroupVector	[sp,4]	param
                     519 ;initialize	r6	param
                     520 
                     521 	.section ".bss","awb"
                     522 .L4101:
                     523 	.endo	.L4101
                     524 	.text
                     525 ..gh.f.a.1.e.4:
                     526 	.endo	..gh.f.a.1.e.4
                     527 Com_ReceptionDMControl::
000002a6 b510        528 	push	{r4,lr}
                     529 .LDW42:
000002a8 490a*       530 	ldr	r1,.L2111
000002aa 7808        531 	ldrb	r0,[r1]
000002ac b928*       532 	cbnz	r0,.L4546
000002ae 2032        533 	movs	r0,50
000002b0 2302        534 	movs	r3,2
000002b2 4c21*       535 	ldr	r4,.L2136
000002b4 2206        536 	movs	r2,6
000002b6 2100        537 	movs	r1,0
000002b8 47a0        538 	blx	r4

                                                                      Page 10
                                                              C:\Users\Fengyuan\AppData\Local\Temp\gh_0000fuk1.s
                     539 .L4546:
                     540 .LDW52:
000002ba bd10        541 	pop	{r4,pc}
                     542 __ghs_eofn_Com_ReceptionDMControl::
                     543 	.endf	Com_ReceptionDMControl
                     544 
                     545 ;ipduGroupVector	none	param
                     546 
                     547 	.section ".bss","awb"
                     548 .L4597:
                     549 	.endo	.L4597
                     550 	.text
                     551 ..gh.f.a.1.e.5:
                     552 	.endo	..gh.f.a.1.e.5
                     553 Com_IpduGroupStart::
000002bc b510        554 	push	{r4,lr}
                     555 .LDW62:
000002be 4905*       556 	ldr	r1,.L2111
000002c0 2302        557 	movs	r3,2
000002c2 7808        558 	ldrb	r0,[r1]
000002c4 b100*       559 	cbz	r0,.L4636
000002c6 2301        560 	movs	r3,1
                     561 .L4636:
000002c8 2032        562 	movs	r0,50
000002ca 4c1b*       563 	ldr	r4,.L2136
000002cc 2203        564 	movs	r2,3
000002ce 2100        565 	movs	r1,0
000002d0 47a0        566 	blx	r4
                     567 .LDW72:
000002d2 bd10        568 	pop	{r4,pc}
                     569 __ghs_eofn_Com_IpduGroupStart::
                     570 	.endf	Com_IpduGroupStart
                     571 	.align	4
000002d4 00000000*   572 .L2111:	.data.w	Com_Initialized
                     573 	.endo	.L2111
                     574 
000002d8 00000000*   575 .L2112:	.data.w	Com_RxAccessInfo
                     576 	.endo	.L2112
                     577 
000002dc 00000000*   578 .L2113:	.data.w	Com_ConstValueUInt8
                     579 	.endo	.L2113
                     580 
000002e0 00000000*   581 .L2114:	.data.w	Com_RxSigBufferUInt8
                     582 	.endo	.L2114
                     583 
000002e4 00000000*   584 .L2115:	.data.w	Com_RxPduInfo
                     585 	.endo	.L2115
                     586 
000002e8 00000000*   587 .L2116:	.data.w	Com_HandleRxPduDeferred
                     588 	.endo	.L2116
                     589 
000002ec 00000000*   590 .L2117:	.data.w	Com_RxPduGrpActive
                     591 	.endo	.L2117
                     592 
000002f0 00000000*   593 .L2118:	.data.w	Com_TxPduInfo
                     594 	.endo	.L2118
                     595 
000002f4 00000000*   596 .L2119:	.data.w	Com_TxSduLength
                     597 	.endo	.L2119
                     598 
000002f8 00000000*   599 .L2120:	.data.w	Com_TxPduInitValue

                                                                      Page 11
                                                              C:\Users\Fengyuan\AppData\Local\Temp\gh_0000fuk1.s
                     600 	.endo	.L2120
                     601 
000002fc 00000000*   602 .L2121:	.data.w	Com_TxBuffer
                     603 	.endo	.L2121
                     604 
00000300 00000000*   605 .L2122:	.data.w	VStdLib_MemCpy
                     606 	.endo	.L2122
                     607 
00000304 00000000*   608 .L2123:	.data.w	Com_TxModeInfo
                     609 	.endo	.L2123
                     610 
00000308 00000000*   611 .L2124:	.data.w	Com_CurrentTxMode
                     612 	.endo	.L2124
                     613 
0000030c 00000000*   614 .L2125:	.data.w	Com_TxModeTrue
                     615 	.endo	.L2125
                     616 
00000310 00000000*   617 .L2126:	.data.w	Com_TxModeFalse
                     618 	.endo	.L2126
                     619 
00000314 00000000*   620 .L2127:	.data.w	Com_CyclicSendRequest
                     621 	.endo	.L2127
                     622 
00000318 00000000*   623 .L2128:	.data.w	Com_CycleTimeCnt
                     624 	.endo	.L2128
                     625 
0000031c 00000000*   626 .L2129:	.data.w	Com_TransmitRequest
                     627 	.endo	.L2129
                     628 
00000320 00000000*   629 .L2130:	.data.w	Com_TxPduGrpActive
                     630 	.endo	.L2130
                     631 
00000324 00000000*   632 .L2131:	.data.w	Com_RxIPduGroupISRLockCounter
                     633 	.endo	.L2131
                     634 
00000328 00000000*   635 .L2132:	.data.w	Com_TxIPduGroupISRLockCounter
                     636 	.endo	.L2132
                     637 
0000032c 00000000*   638 .L2133:	.data.w	Com_RxDeferredProcessingISRLockCounter
                     639 	.endo	.L2133
                     640 
00000330 00000000*   641 .L2134:	.data.w	Com_TxCyclicProcessingISRLockCounter
                     642 	.endo	.L2134
                     643 
00000334 00000000*   644 .L2135:	.data.w	Com_TxProcessingISRLockCounter
                     645 	.endo	.L2135
                     646 
00000338 00000000*   647 .L2136:	.data.w	Det_ReportError
                     648 	.endo	.L2136
                     649 
0000033c 00000000*   650 .L2271:	.data.w	Com_ClearIpduGroupVector
                     651 	.endo	.L2271
                     652 
00000340 00000000*   653 .L2272:	.data.w	Com_IpduGroupControl
                     654 	.endo	.L2272
                     655 
00000344 00000000*   656 .L4543:	.data.w	SuspendAllInterrupts
                     657 	.endo	.L4543
                     658 
00000348 00000000*   659 .L4544:	.data.w	ResumeAllInterrupts
                     660 	.endo	.L4544

                                                                      Page 12
                                                              C:\Users\Fengyuan\AppData\Local\Temp\gh_0000fuk1.s
                     661 
0000034c 00000000*   662 .L4545:	.data.w	Com_TxPduGrpInfo
                     663 	.endo	.L4545
                     664 
                     665 ;errorId	r3	local
                     666 
                     667 ;IpduGroupId	none	param
                     668 ;Initialize	none	param
                     669 
                     670 	.section ".bss","awb"
                     671 .L4671:
                     672 	.endo	.L4671
                     673 	.text
                     674 ..gh.f.a.1.e.6:
                     675 	.endo	..gh.f.a.1.e.6
                     676 Com_IpduGroupStop::
00000350 b510        677 	push	{r4,lr}
                     678 .LDW82:
00000352 49b0*       679 	ldr	r1,.L4793
00000354 2302        680 	movs	r3,2
00000356 7808        681 	ldrb	r0,[r1]
00000358 b100*       682 	cbz	r0,.L4719
0000035a 2301        683 	movs	r3,1
                     684 .L4719:
0000035c 2032        685 	movs	r0,50
0000035e 4cae*       686 	ldr	r4,.L4794
00000360 2203        687 	movs	r2,3
00000362 2100        688 	movs	r1,0
00000364 47a0        689 	blx	r4
                     690 .LDW92:
00000366 bd10        691 	pop	{r4,pc}
                     692 __ghs_eofn_Com_IpduGroupStop::
                     693 	.endf	Com_IpduGroupStop
                     694 ;errorId	r3	local
                     695 
                     696 ;IpduGroupId	none	param
                     697 
                     698 	.section ".bss","awb"
                     699 .L4751:
                     700 	.endo	.L4751
                     701 	.text
                     702 ..gh.f.a.1.e.7:
                     703 	.endo	..gh.f.a.1.e.7
                     704 Com_EnableReceptionDM::
00000368 b510        705 	push	{r4,lr}
                     706 .LDW03:
0000036a 49aa*       707 	ldr	r1,.L4793
0000036c 2302        708 	movs	r3,2
0000036e 7808        709 	ldrb	r0,[r1]
00000370 b100*       710 	cbz	r0,.L4801
00000372 2301        711 	movs	r3,1
                     712 .L4801:
00000374 2032        713 	movs	r0,50
00000376 4ca8*       714 	ldr	r4,.L4794
00000378 2206        715 	movs	r2,6
0000037a 2100        716 	movs	r1,0
0000037c 47a0        717 	blx	r4
                     718 .LDW13:
0000037e bd10        719 	pop	{r4,pc}
                     720 __ghs_eofn_Com_EnableReceptionDM::
                     721 	.endf	Com_EnableReceptionDM

                                                                      Page 13
                                                              C:\Users\Fengyuan\AppData\Local\Temp\gh_0000fuk1.s
                     722 ;errorId	r3	local
                     723 
                     724 ;IpduGroupId	none	param
                     725 
                     726 	.section ".bss","awb"
                     727 .L4847:
                     728 	.endo	.L4847
                     729 	.text
                     730 ..gh.f.a.1.e.8:
                     731 	.endo	..gh.f.a.1.e.8
                     732 Com_DisableReceptionDM::
00000380 b510        733 	push	{r4,lr}
                     734 .LDW23:
00000382 49a4*       735 	ldr	r1,.L4793
00000384 2302        736 	movs	r3,2
00000386 7808        737 	ldrb	r0,[r1]
00000388 b100*       738 	cbz	r0,.L4895
0000038a 2301        739 	movs	r3,1
                     740 .L4895:
0000038c 2032        741 	movs	r0,50
0000038e 4ca2*       742 	ldr	r4,.L4794
00000390 2206        743 	movs	r2,6
00000392 2100        744 	movs	r1,0
00000394 47a0        745 	blx	r4
                     746 .LDW33:
00000396 bd10        747 	pop	{r4,pc}
                     748 __ghs_eofn_Com_DisableReceptionDM::
                     749 	.endf	Com_DisableReceptionDM
                     750 ;errorId	r3	local
                     751 
                     752 ;IpduGroupId	none	param
                     753 
                     754 	.section ".bss","awb"
                     755 .L4927:
                     756 	.endo	.L4927
                     757 	.text
                     758 ..gh.f.a.1.e.9:
                     759 	.endo	..gh.f.a.1.e.9
                     760 Com_MainFunctionRx::
00000398 b570        761 	push	{r4-r6,lr}
0000039a b081        762 	sub	sp,4
                     763 .LDW43:
0000039c 499d*       764 	ldr	r1,.L4793
0000039e 7808        765 	ldrb	r0,[r1]
000003a0 b3c8*       766 	cbz	r0,.L4969
000003a2 489e*       767 	ldr	r0,.L5643
000003a4 4780        768 	blx	r0
000003a6 499e*       769 	ldr	r1,.L5644
000003a8 7808        770 	ldrb	r0,[r1]
000003aa b338*       771 	cbz	r0,.L5030
000003ac 499d*       772 	ldr	r1,.L5645
000003ae 7808        773 	ldrb	r0,[r1]
000003b0 b320*       774 	cbz	r0,.L5030
000003b2 499d*       775 	ldr	r1,.L5646
000003b4 8808        776 	ldrh	r0,[r1]
000003b6 1e45        777 	subs	r5,r0,1
000003b8 d320*       778 	blo	.L5030
000003ba b2ad        779 	uxth	r5,r5
000003bc 4e9b*       780 	ldr	r6,.L5647
000003be 2000        781 	movs	r0,0
000003c0 8008        782 	strh	r0,[r1]

                                                                      Page 14
                                                              C:\Users\Fengyuan\AppData\Local\Temp\gh_0000fuk1.s
                     783 .L5006:
000003c2 499b*       784 	ldr	r1,.L5648
000003c4 5c09        785 	ldrb	r1,[r1,r0]
000003c6 428d        786 	cmp	r5,r1
000003c8 d315*       787 	blo	.L5009
000003ca 4b9a*       788 	ldr	r3,.L5649
000003cc 0084        789 	lsls	r4,r0,2
000003ce 1a21        790 	subs	r1,r4,r0
000003d0 18c9        791 	adds	r1,r1,r3
000003d2 7889        792 	ldrb	r1,[r1,2]
000003d4 b979*       793 	cbnz	r1,.L5009
000003d6 1a21        794 	subs	r1,r4,r0
000003d8 18cc        795 	adds	r4,r1,r3
000003da 78a1        796 	ldrb	r1,[r4,2]
000003dc 198a        797 	adds	r2,r1,r6
000003de 7864        798 	ldrb	r4,[r4,1]
000003e0 2300        799 	movs	r3,0
000003e2 f0040407    800 	and	r4,r4,7
000003e6 b919*       801 	cbnz	r1,.L5026
000003e8 7813        802 	ldrb	r3,[r2]
000003ea 4123        803 	asrs	r3,r4
000003ec f0030301    804 	and	r3,r3,1
                     805 .L5026:
000003f0 4991*       806 	ldr	r1,.L5650
000003f2 b2c2        807 	uxtb	r2,r0
000003f4 548b        808 	strb	r3,[r1,r2]
                     809 .L5009:
000003f6 3001        810 	adds	r0,1
000003f8 2803        811 	cmp	r0,3
000003fa d3e2*       812 	blo	.L5006
                     813 .L5030:
000003fc 4c8f*       814 	ldr	r4,.L5651
000003fe 8820        815 	ldrh	r0,[r4]
00000400 b928*       816 	cbnz	r0,.L5039
00000402 2001        817 	movs	r0,1
00000404 8020        818 	strh	r0,[r4]
00000406 488e*       819 	ldr	r0,.L5652
00000408 4780        820 	blx	r0
0000040a 4884*       821 	ldr	r0,.L5643
0000040c 4780        822 	blx	r0
                     823 .L5039:
0000040e 2001        824 	movs	r0,1
00000410 8020        825 	strh	r0,[r4]
00000412 488b*       826 	ldr	r0,.L5652
00000414 4780        827 	blx	r0
                     828 .L4969:
                     829 .LDW53:
                     830 ;line14341
                     831 ..lin.a55385e..231cb978.0_12::
                     832 .LDWlin12:
00000416 b001        833 	add	sp,4
00000418 bd70        834 	pop	{r4-r6,pc}
                     835 __ghs_eofn_Com_MainFunctionRx::
                     836 	.endf	Com_MainFunctionRx
                     837 ;idxRxSigInfo	r0	local
                     838 ;idxRxAccessInfo	r2	local
                     839 ;SignalBusSourcePtr	[sp]	local
                     840 ;tmpNewValue	r3	local
                     841 ;signalStartBit	r4	local
                     842 
                     843 	.section ".bss","awb"

                                                                      Page 15
                                                              C:\Users\Fengyuan\AppData\Local\Temp\gh_0000fuk1.s
                     844 .L5481:
                     845 	.endo	.L5481
                     846 	.text
                     847 ..gh.f.a.1.e.10:
                     848 	.endo	..gh.f.a.1.e.10
                     849 Com_MainFunctionTx::
0000041a b5f0        850 	push	{r4-r7,lr}
                     851 .LDW63:
0000041c 497d*       852 	ldr	r1,.L4793
0000041e 7808        853 	ldrb	r0,[r1]
00000420 2800        854 	cmp	r0,0
00000422 d048*       855 	beq	.L5653
                     856 ;line14375
                     857 ..lin.a55385e..231cb9ba.0_13::
                     858 .LDWlin13:
00000424 487d*       859 	ldr	r0,.L5643
00000426 4780        860 	blx	r0
00000428 2400        861 	movs	r4,0
                     862 .L5660:
0000042a 4d86*       863 	ldr	r5,.L6059
0000042c 2601        864 	movs	r6,1
0000042e 5d28        865 	ldrb	r0,[r5,r4]
00000430 b180*       866 	cbz	r0,.L5680
00000432 4885*       867 	ldr	r0,.L6060
00000434 5d00        868 	ldrb	r0,[r0,r4]
00000436 b168*       869 	cbz	r0,.L5680
00000438 4984*       870 	ldr	r1,.L6061
0000043a 5d08        871 	ldrb	r0,[r1,r4]
0000043c 3801        872 	subs	r0,1
0000043e 5508        873 	strb	r0,[r1,r4]
00000440 0600        874 	lsls	r0,r0,24
00000442 d107*       875 	bne	.L5680
00000444 4882*       876 	ldr	r0,.L6062
00000446 4a83*       877 	ldr	r2,.L6063
00000448 5506        878 	strb	r6,[r0,r4]
0000044a eb120044    879 	adds	r0,r2,r4 lsl 1
0000044e 7840        880 	ldrb	r0,[r0,1]
00000450 300a        881 	adds	r0,10
00000452 5508        882 	strb	r0,[r1,r4]
                     883 .L5680:
00000454 4980*       884 	ldr	r1,.L6064
00000456 8808        885 	ldrh	r0,[r1]
00000458 3801        886 	subs	r0,1
0000045a d301*       887 	blo	.L5682
0000045c 8008        888 	strh	r0,[r1]
0000045e e004*       889 	b	.L5678
                     890 .L5682:
00000460 4877*       891 	ldr	r0,.L5652
00000462 800e        892 	strh	r6,[r1]
00000464 4780        893 	blx	r0
00000466 486d*       894 	ldr	r0,.L5643
00000468 4780        895 	blx	r0
                     896 .L5678:
0000046a 3401        897 	adds	r4,1
0000046c 2c02        898 	cmp	r4,2
0000046e d3dc*       899 	blo	.L5660
00000470 4979*       900 	ldr	r1,.L6064
00000472 4873*       901 	ldr	r0,.L5652
00000474 800e        902 	strh	r6,[r1]
00000476 4780        903 	blx	r0
                     904 ;line14402

                                                                      Page 16
                                                              C:\Users\Fengyuan\AppData\Local\Temp\gh_0000fuk1.s
                     905 ..lin.a55385e..231cb9ba.0_14::
                     906 .LDWlin14:
00000478 4868*       907 	ldr	r0,.L5643
0000047a 4780        908 	blx	r0
0000047c 2400        909 	movs	r4,0
                     910 .L5703:
0000047e 5d28        911 	ldrb	r0,[r5,r4]
00000480 b138*       912 	cbz	r0,.L5709
00000482 4f73*       913 	ldr	r7,.L6062
00000484 5d38        914 	ldrb	r0,[r7,r4]
00000486 b120*       915 	cbz	r0,.L5709
00000488 4974*       916 	ldr	r1,.L6065
0000048a 4620        917 	cpy	r0,r4
0000048c 4788        918 	blx	r1
0000048e 2000        919 	movs	r0,0
00000490 5538        920 	strb	r0,[r7,r4]
                     921 .L5709:
00000492 4973*       922 	ldr	r1,.L6066
00000494 8808        923 	ldrh	r0,[r1]
00000496 3801        924 	subs	r0,1
00000498 d301*       925 	blo	.L5711
0000049a 8008        926 	strh	r0,[r1]
0000049c e004*       927 	b	.L5707
                     928 .L5711:
0000049e 4868*       929 	ldr	r0,.L5652
000004a0 800e        930 	strh	r6,[r1]
000004a2 4780        931 	blx	r0
000004a4 485d*       932 	ldr	r0,.L5643
000004a6 4780        933 	blx	r0
                     934 .L5707:
000004a8 3401        935 	adds	r4,1
000004aa 2c02        936 	cmp	r4,2
000004ac d3e7*       937 	blo	.L5703
000004ae 496c*       938 	ldr	r1,.L6066
000004b0 4863*       939 	ldr	r0,.L5652
000004b2 800e        940 	strh	r6,[r1]
000004b4 4780        941 	blx	r0
                     942 .L5653:
                     943 .LDW73:
                     944 ;line14410
                     945 ..lin.a55385e..231cb9ba.0_15::
                     946 .LDWlin15:
000004b6 bdf0        947 	pop	{r4-r7,pc}
                     948 __ghs_eofn_Com_MainFunctionTx::
                     949 	.endf	Com_MainFunctionTx
                     950 
                     951 	.section ".bss","awb"
                     952 .L5873:
                     953 	.endo	.L5873
                     954 	.text
                     955 ..gh.f.a.1.e.11:
                     956 	.endo	..gh.f.a.1.e.11
                     957 Com_GetConfigurationId::
000004b8 b510        958 	push	{r4,lr}
                     959 .LDW83:
000004ba 4956*       960 	ldr	r1,.L4793
000004bc 7808        961 	ldrb	r0,[r1]
000004be b928*       962 	cbnz	r0,.L6072
000004c0 2208        963 	movs	r2,8
000004c2 2032        964 	movs	r0,50
000004c4 4c54*       965 	ldr	r4,.L4794

                                                                      Page 17
                                                              C:\Users\Fengyuan\AppData\Local\Temp\gh_0000fuk1.s
000004c6 2302        966 	movs	r3,2
000004c8 2100        967 	movs	r1,0
000004ca 47a0        968 	blx	r4
                     969 .L6072:
000004cc 2000        970 	movs	r0,0
                     971 .LDW93:
000004ce bd10        972 	pop	{r4,pc}
                     973 __ghs_eofn_Com_GetConfigurationId::
                     974 	.endf	Com_GetConfigurationId
                     975 
                     976 	.section ".bss","awb"
                     977 .L6135:
                     978 	.endo	.L6135
                     979 	.text
                     980 ..gh.f.a.1.e.12:
                     981 	.endo	..gh.f.a.1.e.12
                     982 Com_GetStatus::
                     983 .LDW04:
000004d0 4950*       984 	ldr	r1,.L4793
000004d2 7808        985 	ldrb	r0,[r1]
000004d4 3800        986 	subs	r0,0
000004d6 bf18        987 	it	ne
000004d8 2001        988 	mov	r0,1
                     989 .LDW14:
000004da 4770        990 	ret
                     991 __ghs_eofn_Com_GetStatus::
                     992 	.endf	Com_GetStatus
                     993 
                     994 	.section ".bss","awb"
                     995 .L6206:
                     996 	.endo	.L6206
                     997 	.text
                     998 ..gh.f.a.1.e.13:
                     999 	.endo	..gh.f.a.1.e.13
                    1000 Com_TriggerIPDUSend::
000004dc b510       1001 	push	{r4,lr}
                    1002 .LDW24:
000004de 4a4d*      1003 	ldr	r2,.L4793
000004e0 2302       1004 	movs	r3,2
000004e2 7811       1005 	ldrb	r1,[r2]
000004e4 b141*      1006 	cbz	r1,.L6238
000004e6 2301       1007 	movs	r3,1
000004e8 2802       1008 	cmp	r0,2
000004ea d205*      1009 	bhs	.L6238
                    1010 ;line14550
                    1011 ..lin.a55385e..2e6c3973.0_16::
                    1012 .LDWlin16:
000004ec 4955*      1013 	ldr	r1,.L6059
000004ee 5c09       1014 	ldrb	r1,[r1,r0]
000004f0 b139*      1015 	cbz	r1,.L6224
000004f2 4957*      1016 	ldr	r1,.L6062
000004f4 540b       1017 	strb	r3,[r1,r0]
000004f6 e004*      1018 	b	.L6224
                    1019 .L6238:
                    1020 ;line14560
                    1021 ..lin.a55385e..2e6c3973.0_17::
                    1022 .LDWlin17:
000004f8 2217       1023 	movs	r2,23
000004fa 4c47*      1024 	ldr	r4,.L4794
000004fc 2032       1025 	movs	r0,50
000004fe 2100       1026 	movs	r1,0

                                                                      Page 18
                                                              C:\Users\Fengyuan\AppData\Local\Temp\gh_0000fuk1.s
00000500 47a0       1027 	blx	r4
                    1028 .L6224:
                    1029 .LDW34:
00000502 bd10       1030 	pop	{r4,pc}
                    1031 __ghs_eofn_Com_TriggerIPDUSend::
                    1032 	.endf	Com_TriggerIPDUSend
                    1033 ;errorId	r3	local
                    1034 
                    1035 ;PduId	r0	param
                    1036 
                    1037 	.section ".bss","awb"
                    1038 .L6305:
                    1039 	.endo	.L6305
                    1040 	.text
                    1041 ..gh.f.a.1.e.14:
                    1042 	.endo	..gh.f.a.1.e.14
                    1043 Com_ClearIpduGroupVector::
                    1044 .LDW44:
00000504 4b57*      1045 	ldr	r3,.L6421
00000506 2201       1046 	movs	r2,1
00000508 2100       1047 	movs	r1,0
0000050a 4718       1048 	bx	r3
                    1049 .LDW54:
                    1050 __ghs_eofn_Com_ClearIpduGroupVector::
                    1051 	.endf	Com_ClearIpduGroupVector
                    1052 
                    1053 ;ipduGroupVector	none	param
                    1054 
                    1055 	.section ".bss","awb"
                    1056 .L6398:
                    1057 	.endo	.L6398
                    1058 	.text
                    1059 ..gh.f.a.1.e.15:
                    1060 	.endo	..gh.f.a.1.e.15
                    1061 Com_SetIpduGroup::
0000050c b530       1062 	push	{r4-r5,lr}
                    1063 .LDW64:
0000050e 4d41*      1064 	ldr	r5,.L4793
00000510 2302       1065 	movs	r3,2
00000512 782c       1066 	ldrb	r4,[r5]
00000514 b18c*      1067 	cbz	r4,.L6434
00000516 2301       1068 	movs	r3,1
00000518 2902       1069 	cmp	r1,2
0000051a d80e*      1070 	bhi	.L6434
                    1071 ;line14690
                    1072 ..lin.a55385e..77c87b6e.0_18::
                    1073 .LDWlin18:
0000051c 10cb       1074 	asrs	r3,r1,3
0000051e f0010407   1075 	and	r4,r1,7
00000522 2101       1076 	movs	r1,1
00000524 40a1       1077 	lsls	r1,r4
00000526 b922*      1078 	cbnz	r2,.L6430
00000528 43ca       1079 	mvns	r2,r1
0000052a 5cc1       1080 	ldrb	r1,[r0,r3]
0000052c 4011       1081 	ands	r1,r2
0000052e 54c1       1082 	strb	r1,[r0,r3]
00000530 e008*      1083 	b	.L6422
                    1084 .L6430:
00000532 5cc2       1085 	ldrb	r2,[r0,r3]
00000534 430a       1086 	orrs	r2,r1
00000536 54c2       1087 	strb	r2,[r0,r3]

                                                                      Page 19
                                                              C:\Users\Fengyuan\AppData\Local\Temp\gh_0000fuk1.s
00000538 e004*      1088 	b	.L6422
                    1089 .L6434:
                    1090 ;line14707
                    1091 ..lin.a55385e..77c87b6e.0_19::
                    1092 .LDWlin19:
0000053a 221d       1093 	movs	r2,29
0000053c 4c36*      1094 	ldr	r4,.L4794
0000053e 2032       1095 	movs	r0,50
00000540 2100       1096 	movs	r1,0
00000542 47a0       1097 	blx	r4
                    1098 .L6422:
                    1099 .LDW74:
00000544 bd30       1100 	pop	{r4-r5,pc}
                    1101 __ghs_eofn_Com_SetIpduGroup::
                    1102 	.endf	Com_SetIpduGroup
                    1103 ;errorId	r3	local
                    1104 
                    1105 ;ipduGroupVector	r0	param
                    1106 ;ipduGroupId	r1	param
                    1107 ;bitval	r2	param
                    1108 
                    1109 	.section ".bss","awb"
                    1110 .L6529:
                    1111 	.endo	.L6529
                    1112 	.text
                    1113 ..gh.f.a.1.e.16:
                    1114 	.endo	..gh.f.a.1.e.16
                    1115 Com_RxIndication::
00000546 b510       1116 	push	{r4,lr}
00000548 460c       1117 	cpy	r4,r1
                    1118 .LDW84:
0000054a 4a32*      1119 	ldr	r2,.L4793
0000054c 7811       1120 	ldrb	r1,[r2]
0000054e b931*      1121 	cbnz	r1,.L6603
00000550 2302       1122 	movs	r3,2
                    1123 .L6630:
00000552 2242       1124 	movs	r2,66
00000554 4c30*      1125 	ldr	r4,.L4794
00000556 2032       1126 	movs	r0,50
00000558 2100       1127 	movs	r1,0
0000055a 47a0       1128 	blx	r4
0000055c e01d*      1129 	b	.L6601
                    1130 .L6603:
                    1131 ;line14743
                    1132 ..lin.a55385e..9a945bef.0_20::
                    1133 .LDWlin20:
0000055e b108*      1134 	cbz	r0,.L6606
00000560 2301       1135 	movs	r3,1
00000562 e7f6*      1136 	b	.L6630
                    1137 .L6606:
                    1138 ;line14754
                    1139 ..lin.a55385e..9a945bef.0_21::
                    1140 .LDWlin21:
00000564 b11c*      1141 	cbz	r4,.L6613
00000566 6820       1142 	ldr	r0,[r4]
00000568 b918*      1143 	cbnz	r0,.L6618
0000056a 88a0       1144 	ldrh	r0,[r4,4]
0000056c b108*      1145 	cbz	r0,.L6618
                    1146 .L6613:
0000056e 2303       1147 	movs	r3,3
00000570 e7ef*      1148 	b	.L6630

                                                                      Page 20
                                                              C:\Users\Fengyuan\AppData\Local\Temp\gh_0000fuk1.s
                    1149 .L6618:
                    1150 ;line14768
                    1151 ..lin.a55385e..9a945bef.0_22::
                    1152 .LDWlin22:
00000572 492c*      1153 	ldr	r1,.L5645
00000574 7808       1154 	ldrb	r0,[r1]
00000576 b180*      1155 	cbz	r0,.L6601
00000578 4929*      1156 	ldr	r1,.L5644
0000057a 7808       1157 	ldrb	r0,[r1]
0000057c b168*      1158 	cbz	r0,.L6601
0000057e 4827*      1159 	ldr	r0,.L5643
00000580 4780       1160 	blx	r0
00000582 6821       1161 	ldr	r1,[r4]
00000584 b119*      1162 	cbz	r1,.L6627
00000586 4829*      1163 	ldr	r0,.L5647
00000588 4b37*      1164 	ldr	r3,.L6942
0000058a 2201       1165 	movs	r2,1
0000058c 4798       1166 	blx	r3
                    1167 .L6627:
0000058e 88a0       1168 	ldrh	r0,[r4,4]
00000590 4925*      1169 	ldr	r1,.L5646
00000592 3001       1170 	adds	r0,1
00000594 8008       1171 	strh	r0,[r1]
00000596 482a*      1172 	ldr	r0,.L5652
00000598 4780       1173 	blx	r0
                    1174 .L6601:
                    1175 .LDW94:
0000059a bd10       1176 	pop	{r4,pc}
                    1177 __ghs_eofn_Com_RxIndication::
                    1178 	.endf	Com_RxIndication
                    1179 
                    1180 ;RxPduId	r0	param
                    1181 ;PduInfoPtr	r4	param
                    1182 
                    1183 	.section ".bss","awb"
                    1184 .L6801:
                    1185 	.endo	.L6801
                    1186 	.text
                    1187 ..gh.f.a.1.e.17:
                    1188 	.endo	..gh.f.a.1.e.17
                    1189 Com_ReceiveSignal::
0000059c b530       1190 	push	{r4-r5,lr}
                    1191 .LDW05:
0000059e 4d1d*      1192 	ldr	r5,.L4793
000005a0 2480       1193 	movs	r4,128
000005a2 2302       1194 	movs	r3,2
000005a4 782a       1195 	ldrb	r2,[r5]
000005a6 b19a*      1196 	cbz	r2,.L6963
000005a8 2301       1197 	movs	r3,1
000005aa 2803       1198 	cmp	r0,3
000005ac d210*      1199 	bhs	.L6963
                    1200 ;line15125
                    1201 ..lin.a55385e..70655364.0_23::
                    1202 .LDWlin23:
000005ae 2303       1203 	movs	r3,3
000005b0 b171*      1204 	cbz	r1,.L6963
000005b2 4b20*      1205 	ldr	r3,.L5649
000005b4 ebd00280   1206 	rsbs	r2,r0,r0 lsl 2
000005b8 189a       1207 	adds	r2,r3,r2
000005ba 7892       1208 	ldrb	r2,[r2,2]
000005bc b91a*      1209 	cbnz	r2,.L6954

                                                                      Page 21
                                                              C:\Users\Fengyuan\AppData\Local\Temp\gh_0000fuk1.s
000005be 4a1e*      1210 	ldr	r2,.L5650
000005c0 b2c0       1211 	uxtb	r0,r0
000005c2 5c10       1212 	ldrb	r0,[r2,r0]
000005c4 7008       1213 	strb	r0,[r1]
                    1214 .L6954:
000005c6 4917*      1215 	ldr	r1,.L5645
000005c8 7808       1216 	ldrb	r0,[r1]
000005ca b130*      1217 	cbz	r0,.L6962
000005cc 2400       1218 	movs	r4,0
000005ce e004*      1219 	b	.L6962
                    1220 .L6963:
                    1221 ;line15157
                    1222 ..lin.a55385e..70655364.0_24::
                    1223 .LDWlin24:
000005d0 220b       1224 	movs	r2,11
000005d2 4d11*      1225 	ldr	r5,.L4794
000005d4 2032       1226 	movs	r0,50
000005d6 2100       1227 	movs	r1,0
000005d8 47a8       1228 	blx	r5
                    1229 .L6962:
000005da 4620       1230 	cpy	r0,r4
                    1231 .LDW15:
000005dc bd30       1232 	pop	{r4-r5,pc}
                    1233 __ghs_eofn_Com_ReceiveSignal::
                    1234 	.endf	Com_ReceiveSignal
                    1235 ;errorId	r3	local
                    1236 ;retVal	r4	local
                    1237 
                    1238 ;SignalId	r0	param
                    1239 ;SignalDataPtr	r1	param
                    1240 
                    1241 	.section ".bss","awb"
                    1242 .L7088:
                    1243 	.endo	.L7088
                    1244 	.text
                    1245 ..gh.f.a.1.e.18:
                    1246 	.endo	..gh.f.a.1.e.18
                    1247 Com_ReceiveSignalGroup::
000005de b510       1248 	push	{r4,lr}
                    1249 .LDW25:
000005e0 490c*      1250 	ldr	r1,.L4793
000005e2 2302       1251 	movs	r3,2
000005e4 7808       1252 	ldrb	r0,[r1]
000005e6 b100*      1253 	cbz	r0,.L7197
000005e8 2301       1254 	movs	r3,1
                    1255 .L7197:
000005ea 220e       1256 	movs	r2,14
000005ec 4c0a*      1257 	ldr	r4,.L4794
000005ee 2032       1258 	movs	r0,50
000005f0 2100       1259 	movs	r1,0
000005f2 47a0       1260 	blx	r4
000005f4 2080       1261 	movs	r0,128
                    1262 .LDW35:
000005f6 bd10       1263 	pop	{r4,pc}
                    1264 __ghs_eofn_Com_ReceiveSignalGroup::
                    1265 	.endf	Com_ReceiveSignalGroup
                    1266 ;errorId	r3	local
                    1267 
                    1268 ;SignalGroupId	none	param
                    1269 
                    1270 	.section ".bss","awb"

                                                                      Page 22
                                                              C:\Users\Fengyuan\AppData\Local\Temp\gh_0000fuk1.s
                    1271 .L7236:
                    1272 	.endo	.L7236
                    1273 	.text
                    1274 ..gh.f.a.1.e.19:
                    1275 	.endo	..gh.f.a.1.e.19
                    1276 Com_InvalidateSignal::
000005f8 b510       1277 	push	{r4,lr}
                    1278 .LDW45:
000005fa 4906*      1279 	ldr	r1,.L4793
000005fc 2302       1280 	movs	r3,2
000005fe 7808       1281 	ldrb	r0,[r1]
00000600 b100*      1282 	cbz	r0,.L7289
00000602 2301       1283 	movs	r3,1
                    1284 .L7289:
00000604 2210       1285 	movs	r2,16
00000606 4c04*      1286 	ldr	r4,.L4794
00000608 2032       1287 	movs	r0,50
0000060a 2100       1288 	movs	r1,0
0000060c 47a0       1289 	blx	r4
0000060e 2080       1290 	movs	r0,128
                    1291 .LDW55:
00000610 bd10       1292 	pop	{r4,pc}
                    1293 __ghs_eofn_Com_InvalidateSignal::
                    1294 	.endf	Com_InvalidateSignal
00000612 bf00       1295 	.align	4
00000614 00000000*  1296 .L4793:	.data.w	Com_Initialized
                    1297 	.endo	.L4793
                    1298 
00000618 00000000*  1299 .L4794:	.data.w	Det_ReportError
                    1300 	.endo	.L4794
                    1301 
0000061c 00000000*  1302 .L5643:	.data.w	SuspendAllInterrupts
                    1303 	.endo	.L5643
                    1304 
00000620 00000000*  1305 .L5644:	.data.w	Com_RxPduInfo
                    1306 	.endo	.L5644
                    1307 
00000624 00000000*  1308 .L5645:	.data.w	Com_RxPduGrpActive
                    1309 	.endo	.L5645
                    1310 
00000628 00000000*  1311 .L5646:	.data.w	Com_HandleRxPduDeferred
                    1312 	.endo	.L5646
                    1313 
0000062c 00000000*  1314 .L5647:	.data.w	Com_RxDefPduBuffer
                    1315 	.endo	.L5647
                    1316 
00000630 00000000*  1317 .L5648:	.data.w	Com_RxSigInfo
                    1318 	.endo	.L5648
                    1319 
00000634 00000000*  1320 .L5649:	.data.w	Com_RxAccessInfo
                    1321 	.endo	.L5649
                    1322 
00000638 00000000*  1323 .L5650:	.data.w	Com_RxSigBufferUInt8
                    1324 	.endo	.L5650
                    1325 
0000063c 00000000*  1326 .L5651:	.data.w	Com_RxDeferredProcessingISRLockCounter
                    1327 	.endo	.L5651
                    1328 
00000640 00000000*  1329 .L5652:	.data.w	ResumeAllInterrupts
                    1330 	.endo	.L5652
                    1331 

                                                                      Page 23
                                                              C:\Users\Fengyuan\AppData\Local\Temp\gh_0000fuk1.s
00000644 00000000*  1332 .L6059:	.data.w	Com_TxPduGrpActive
                    1333 	.endo	.L6059
                    1334 
00000648 00000000*  1335 .L6060:	.data.w	Com_CyclicSendRequest
                    1336 	.endo	.L6060
                    1337 
0000064c 00000000*  1338 .L6061:	.data.w	Com_CycleTimeCnt
                    1339 	.endo	.L6061
                    1340 
00000650 00000000*  1341 .L6062:	.data.w	Com_TransmitRequest
                    1342 	.endo	.L6062
                    1343 
00000654 00000000*  1344 .L6063:	.data.w	Com_TxModeInfo
                    1345 	.endo	.L6063
                    1346 
00000658 00000000*  1347 .L6064:	.data.w	Com_TxCyclicProcessingISRLockCounter
                    1348 	.endo	.L6064
                    1349 
0000065c 00000000*  1350 .L6065:	.data.w	Com_TxLLIf_Transmit
                    1351 	.endo	.L6065
                    1352 
00000660 00000000*  1353 .L6066:	.data.w	Com_TxProcessingISRLockCounter
                    1354 	.endo	.L6066
                    1355 
00000664 00000000*  1356 .L6421:	.data.w	VStdLib_MemSet
                    1357 	.endo	.L6421
                    1358 
00000668 00000000*  1359 .L6942:	.data.w	VStdLib_MemCpy
                    1360 	.endo	.L6942
                    1361 
                    1362 ;errorId	r3	local
                    1363 
                    1364 ;SignalId	none	param
                    1365 
                    1366 	.section ".bss","awb"
                    1367 .L7336:
                    1368 	.endo	.L7336
                    1369 	.text
                    1370 ..gh.f.a.1.e.20:
                    1371 	.endo	..gh.f.a.1.e.20
                    1372 Com_InvalidateSignalGroup::
0000066c b510       1373 	push	{r4,lr}
                    1374 .LDW65:
0000066e 4959*      1375 	ldr	r1,.L7472
00000670 2302       1376 	movs	r3,2
00000672 7808       1377 	ldrb	r0,[r1]
00000674 b100*      1378 	cbz	r0,.L7386
00000676 2301       1379 	movs	r3,1
                    1380 .L7386:
00000678 221b       1381 	movs	r2,27
0000067a 4c57*      1382 	ldr	r4,.L7473
0000067c 2032       1383 	movs	r0,50
0000067e 2100       1384 	movs	r1,0
00000680 47a0       1385 	blx	r4
00000682 2080       1386 	movs	r0,128
                    1387 .LDW75:
00000684 bd10       1388 	pop	{r4,pc}
                    1389 __ghs_eofn_Com_InvalidateSignalGroup::
                    1390 	.endf	Com_InvalidateSignalGroup
                    1391 ;errorId	r3	local
                    1392 

                                                                      Page 24
                                                              C:\Users\Fengyuan\AppData\Local\Temp\gh_0000fuk1.s
                    1393 ;SignalGroupId	none	param
                    1394 
                    1395 	.section ".bss","awb"
                    1396 .L7428:
                    1397 	.endo	.L7428
                    1398 	.text
                    1399 ..gh.f.a.1.e.21:
                    1400 	.endo	..gh.f.a.1.e.21
                    1401 Com_TxConfirmation::
00000686 b510       1402 	push	{r4,lr}
                    1403 .LDW85:
00000688 4a52*      1404 	ldr	r2,.L7472
0000068a 2302       1405 	movs	r3,2
0000068c 7811       1406 	ldrb	r1,[r2]
0000068e b139*      1407 	cbz	r1,.L7489
00000690 2301       1408 	movs	r3,1
00000692 2802       1409 	cmp	r0,2
00000694 d204*      1410 	bhs	.L7489
                    1411 ;line15781
                    1412 ..lin.a55385e..c77f4138.0_25::
                    1413 .LDWlin25:
00000696 4851*      1414 	ldr	r0,.L7628
00000698 4780       1415 	blx	r0
0000069a 4851*      1416 	ldr	r0,.L7629
0000069c 4780       1417 	blx	r0
0000069e e004*      1418 	b	.L7474
                    1419 .L7489:
                    1420 ;line15788
                    1421 ..lin.a55385e..c77f4138.0_26::
                    1422 .LDWlin26:
000006a0 2240       1423 	movs	r2,64
000006a2 4c4d*      1424 	ldr	r4,.L7473
000006a4 2032       1425 	movs	r0,50
000006a6 2100       1426 	movs	r1,0
000006a8 47a0       1427 	blx	r4
                    1428 .L7474:
                    1429 .LDW95:
000006aa bd10       1430 	pop	{r4,pc}
                    1431 __ghs_eofn_Com_TxConfirmation::
                    1432 	.endf	Com_TxConfirmation
                    1433 ;errorId	r3	local
                    1434 
                    1435 ;TxPduId	r0	param
                    1436 
                    1437 	.section ".bss","awb"
                    1438 .L7571:
                    1439 	.endo	.L7571
                    1440 	.text
                    1441 ..gh.f.a.1.e.22:
                    1442 	.endo	..gh.f.a.1.e.22
                    1443 Com_TxLLIf_Transmit::
000006ac b500       1444 	push	{lr}
000006ae b082       1445 	sub	sp,8
                    1446 .LDW06:
000006b0 4a4c*      1447 	ldr	r2,.L7722
000006b2 2100       1448 	movs	r1,0
000006b4 9100       1449 	str	r1,[sp]
000006b6 f8121020   1450 	ldrb	r1,[r2,r0 lsl 2]
000006ba b129*      1451 	cbz	r1,.L7632
000006bc eb120180   1452 	adds	r1,r2,r0 lsl 2
000006c0 4a49*      1453 	ldr	r2,.L7723

                                                                      Page 25
                                                              C:\Users\Fengyuan\AppData\Local\Temp\gh_0000fuk1.s
000006c2 78c9       1454 	ldrb	r1,[r1,3]
000006c4 1851       1455 	adds	r1,r2,r1
000006c6 9100       1456 	str	r1,[sp]
                    1457 .L7632:
000006c8 4a48*      1458 	ldr	r2,.L7724
000006ca 0041       1459 	lsls	r1,r0,1
000006cc 5a89       1460 	ldrh	r1,[r1,r2]
000006ce f8ad1004   1461 	strh	r1,[sp,4]
000006d2 4a47*      1462 	ldr	r2,.L7725
000006d4 4669       1463 	mov	r1,sp
000006d6 4790       1464 	blx	r2
                    1465 .LDW16:
000006d8 b002       1466 	add	sp,8
000006da bd00       1467 	pop	{pc}
                    1468 __ghs_eofn_Com_TxLLIf_Transmit::
                    1469 	.endf	Com_TxLLIf_Transmit
                    1470 ;PduInfo	[sp]	local
                    1471 
                    1472 ;ComTxPduId	r0	param
                    1473 
                    1474 	.section ".bss","awb"
                    1475 .L7680:
                    1476 	.endo	.L7680
                    1477 	.text
                    1478 ..gh.f.a.1.e.23:
                    1479 	.endo	..gh.f.a.1.e.23
                    1480 Com_SwitchIpduTxMode::
000006dc b510       1481 	push	{r4,lr}
                    1482 .LDW26:
000006de 4c3d*      1483 	ldr	r4,.L7472
000006e0 2302       1484 	movs	r3,2
000006e2 7822       1485 	ldrb	r2,[r4]
000006e4 b312*      1486 	cbz	r2,.L7746
000006e6 2301       1487 	movs	r3,1
000006e8 2802       1488 	cmp	r0,2
000006ea d21f*      1489 	bhs	.L7746
                    1490 ;line16262
                    1491 ..lin.a55385e..3ec90578.0_27::
                    1492 .LDWlin27:
000006ec 4a41*      1493 	ldr	r2,.L8063
000006ee 5c13       1494 	ldrb	r3,[r2,r0]
000006f0 3b00       1495 	subs	r3,0
000006f2 bf18       1496 	it	ne
000006f4 2301       1497 	mov	r3,1
000006f6 428b       1498 	cmp	r3,r1
000006f8 d01d*      1499 	beq	.L7726
                    1500 ;line16264
                    1501 ..lin.a55385e..3ec90578.0_28::
                    1502 .LDWlin28:
000006fa 5411       1503 	strb	r1,[r2,r0]
000006fc b129*      1504 	cbz	r1,.L7740
000006fe 4a3e*      1505 	ldr	r2,.L8064
00000700 7811       1506 	ldrb	r1,[r2]
00000702 3900       1507 	subs	r1,0
00000704 bf18       1508 	it	ne
00000706 2101       1509 	mov	r1,1
00000708 e004*      1510 	b	.L7741
                    1511 .L7740:
0000070a 4a3c*      1512 	ldr	r2,.L8065
0000070c 7811       1513 	ldrb	r1,[r2]
0000070e 3900       1514 	subs	r1,0

                                                                      Page 26
                                                              C:\Users\Fengyuan\AppData\Local\Temp\gh_0000fuk1.s
00000710 bf18       1515 	it	ne
00000712 2101       1516 	mov	r1,1
                    1517 .L7741:
00000714 4a3a*      1518 	ldr	r2,.L8066
00000716 b121*      1519 	cbz	r1,.L7743
00000718 2101       1520 	movs	r1,1
0000071a 5411       1521 	strb	r1,[r2,r0]
0000071c 4939*      1522 	ldr	r1,.L8067
0000071e 2201       1523 	movs	r2,1
00000720 e002*      1524 	b	.L8051
                    1525 .L7743:
00000722 5411       1526 	strb	r1,[r2,r0]
00000724 4938*      1527 	ldr	r1,.L8068
00000726 2200       1528 	movs	r2,0
                    1529 .L8051:
                    1530 
00000728 540a       1531 	strb	r2,[r1,r0]
0000072a e004*      1532 	b	.L7726
                    1533 .L7746:
                    1534 ;line16302
                    1535 ..lin.a55385e..3ec90578.0_29::
                    1536 .LDWlin29:
0000072c 2227       1537 	movs	r2,39
0000072e 4c2a*      1538 	ldr	r4,.L7473
00000730 2032       1539 	movs	r0,50
00000732 2100       1540 	movs	r1,0
00000734 47a0       1541 	blx	r4
                    1542 .L7726:
                    1543 .LDW36:
00000736 bd10       1544 	pop	{r4,pc}
                    1545 __ghs_eofn_Com_SwitchIpduTxMode::
                    1546 	.endf	Com_SwitchIpduTxMode
                    1547 ;errorId	r3	local
                    1548 
                    1549 ;PduId	r0	param
                    1550 ;Mode	r1	param
                    1551 
                    1552 	.section ".bss","awb"
                    1553 .L7954:
                    1554 	.endo	.L7954
                    1555 	.text
                    1556 ..gh.f.a.1.e.24:
                    1557 	.endo	..gh.f.a.1.e.24
                    1558 Com_SendSignal::
00000738 b5f0       1559 	push	{r4-r7,lr}
0000073a 4606       1560 	cpy	r6,r0
0000073c 460d       1561 	cpy	r5,r1
                    1562 .LDW46:
0000073e 4925*      1563 	ldr	r1,.L7472
00000740 2480       1564 	movs	r4,128
00000742 2302       1565 	movs	r3,2
00000744 7808       1566 	ldrb	r0,[r1]
00000746 b380*      1567 	cbz	r0,.L8094
00000748 2301       1568 	movs	r3,1
0000074a 2e02       1569 	cmp	r6,2
0000074c d22d*      1570 	bhs	.L8094
                    1571 ;line16425
                    1572 ..lin.a55385e..f1419f6b.0_30::
                    1573 .LDWlin30:
0000074e 2303       1574 	movs	r3,3
00000750 b35d*      1575 	cbz	r5,.L8094

                                                                      Page 27
                                                              C:\Users\Fengyuan\AppData\Local\Temp\gh_0000fuk1.s
00000752 4822*      1576 	ldr	r0,.L7628
00000754 4780       1577 	blx	r0
00000756 4a2d*      1578 	ldr	r2,.L8396
00000758 2000       1579 	movs	r0,0
0000075a eb160186   1580 	adds	r1,r6,r6 lsl 2
0000075e 1854       1581 	adds	r4,r2,r1
00000760 78e1       1582 	ldrb	r1,[r4,3]
00000762 b2f3       1583 	uxtb	r3,r6
00000764 b1c9*      1584 	cbz	r1,.L8089
00000766 7862       1585 	ldrb	r2,[r4,1]
00000768 4629       1586 	cpy	r1,r5
0000076a f0020507   1587 	and	r5,r2,7
0000076e 78a2       1588 	ldrb	r2,[r4,2]
00000770 2a01       1589 	cmp	r2,1
00000772 d302*      1590 	blo	.L8085
00000774 d111*      1591 	bne	.L8089
00000776 780a       1592 	ldrb	r2,[r1]
00000778 e00c*      1593 	b	.L8134
                    1594 .L8085:
0000077a 4a1b*      1595 	ldr	r2,.L7723
0000077c 7926       1596 	ldrb	r6,[r4,4]
0000077e 7827       1597 	ldrb	r7,[r4]
00000780 5d92       1598 	ldrb	r2,[r2,r6]
00000782 26ff       1599 	movs	r6,255
00000784 40be       1600 	lsls	r6,r7
00000786 43f6       1601 	mvns	r6,r6
00000788 40ae       1602 	lsls	r6,r5
0000078a 7809       1603 	ldrb	r1,[r1]
0000078c 43b2       1604 	bics	r2,r6
0000078e 40a9       1605 	lsls	r1,r5
00000790 4031       1606 	ands	r1,r6
00000792 430a       1607 	orrs	r2,r1
                    1608 .L8134:
00000794 4914*      1609 	ldr	r1,.L7723
00000796 7924       1610 	ldrb	r4,[r4,4]
00000798 550a       1611 	strb	r2,[r1,r4]
                    1612 .L8089:
0000079a 491d*      1613 	ldr	r1,.L8397
0000079c 5cc9       1614 	ldrb	r1,[r1,r3]
0000079e b901*      1615 	cbnz	r1,.L8080
000007a0 2080       1616 	movs	r0,128
                    1617 .L8080:
000007a2 4604       1618 	cpy	r4,r0
                    1619 ;line16437
                    1620 ..lin.a55385e..f1419f6b.0_31::
                    1621 .LDWlin31:
000007a4 480e*      1622 	ldr	r0,.L7629
000007a6 4780       1623 	blx	r0
000007a8 e004*      1624 	b	.L8093
                    1625 .L8094:
                    1626 ;line16447
                    1627 ..lin.a55385e..f1419f6b.0_32::
                    1628 .LDWlin32:
000007aa 220a       1629 	movs	r2,10
000007ac 4d0a*      1630 	ldr	r5,.L7473
000007ae 2032       1631 	movs	r0,50
000007b0 2100       1632 	movs	r1,0
000007b2 47a8       1633 	blx	r5
                    1634 .L8093:
000007b4 4620       1635 	cpy	r0,r4
                    1636 .LDW56:

                                                                      Page 28
                                                              C:\Users\Fengyuan\AppData\Local\Temp\gh_0000fuk1.s
000007b6 bdf0       1637 	pop	{r4-r7,pc}
                    1638 __ghs_eofn_Com_SendSignal::
                    1639 	.endf	Com_SendSignal
                    1640 ;errorId	r3	local
                    1641 ;retVal	r4	local
                    1642 ;retVal	r0	local
                    1643 ;idxTxPduInfo	r3	local
                    1644 ;SignalApplSourcePtrInternal	r1	local
                    1645 ;signalStartBit	r5	local
                    1646 ;signalBusDest	r2	local
                    1647 ;mask	r6	local
                    1648 
                    1649 ;SignalId	r6	param
                    1650 ;SignalDataPtr	r5	param
                    1651 
                    1652 	.section ".bss","awb"
                    1653 .L8253:
                    1654 	.endo	.L8253
                    1655 	.text
                    1656 ..gh.f.a.1.e.25:
                    1657 	.endo	..gh.f.a.1.e.25
                    1658 Com_SendSignalGroup::
000007b8 b510       1659 	push	{r4,lr}
                    1660 .LDW66:
000007ba 4906*      1661 	ldr	r1,.L7472
000007bc 2302       1662 	movs	r3,2
000007be 7808       1663 	ldrb	r0,[r1]
000007c0 b100*      1664 	cbz	r0,.L8404
000007c2 2301       1665 	movs	r3,1
                    1666 .L8404:
000007c4 220d       1667 	movs	r2,13
000007c6 4c04*      1668 	ldr	r4,.L7473
000007c8 2032       1669 	movs	r0,50
000007ca 2100       1670 	movs	r1,0
000007cc 47a0       1671 	blx	r4
000007ce 2080       1672 	movs	r0,128
                    1673 .LDW76:
000007d0 bd10       1674 	pop	{r4,pc}
                    1675 __ghs_eofn_Com_SendSignalGroup::
                    1676 	.endf	Com_SendSignalGroup
                    1677 ;errorId	r3	local
                    1678 
                    1679 ;SignalGroupId	none	param
                    1680 
                    1681 	.section ".bss","awb"
                    1682 .L8452:
                    1683 	.endo	.L8452
                    1684 	.text
000007d2 bf00       1685 	.align	4
000007d4 00000000*  1686 .L7472:	.data.w	Com_Initialized
                    1687 	.endo	.L7472
                    1688 
000007d8 00000000*  1689 .L7473:	.data.w	Det_ReportError
                    1690 	.endo	.L7473
                    1691 
000007dc 00000000*  1692 .L7628:	.data.w	SuspendAllInterrupts
                    1693 	.endo	.L7628
                    1694 
000007e0 00000000*  1695 .L7629:	.data.w	ResumeAllInterrupts
                    1696 	.endo	.L7629
                    1697 

                                                                      Page 29
                                                              C:\Users\Fengyuan\AppData\Local\Temp\gh_0000fuk1.s
000007e4 00000000*  1698 .L7722:	.data.w	Com_TxPduInfo
                    1699 	.endo	.L7722
                    1700 
000007e8 00000000*  1701 .L7723:	.data.w	Com_TxBuffer
                    1702 	.endo	.L7723
                    1703 
000007ec 00000000*  1704 .L7724:	.data.w	Com_TxSduLength
                    1705 	.endo	.L7724
                    1706 
000007f0 00000000*  1707 .L7725:	.data.w	PduR_ComTransmit
                    1708 	.endo	.L7725
                    1709 
000007f4 00000000*  1710 .L8063:	.data.w	Com_CurrentTxMode
                    1711 	.endo	.L8063
                    1712 
000007f8 00000000*  1713 .L8064:	.data.w	Com_TxModeTrue
                    1714 	.endo	.L8064
                    1715 
000007fc 00000000*  1716 .L8065:	.data.w	Com_TxModeFalse
                    1717 	.endo	.L8065
                    1718 
00000800 00000000*  1719 .L8066:	.data.w	Com_CyclicSendRequest
                    1720 	.endo	.L8066
                    1721 
00000804 00000000*  1722 .L8067:	.data.w	Com_CycleTimeCnt
                    1723 	.endo	.L8067
                    1724 
00000808 00000000*  1725 .L8068:	.data.w	Com_TransmitRequest
                    1726 	.endo	.L8068
                    1727 
0000080c 00000000*  1728 .L8396:	.data.w	Com_TxSigInfo
                    1729 	.endo	.L8396
                    1730 
00000810 00000000*  1731 .L8397:	.data.w	Com_TxPduGrpActive
                    1732 	.endo	.L8397
                    1733 
                    1734 ;Com_ConstValueUInt8	Com_ConstValueUInt8	import
                    1735 ;Com_RxAccessInfo	Com_RxAccessInfo	import
                    1736 ;Com_RxPduInfo	Com_RxPduInfo	import
                    1737 ;Com_RxSigInfo	Com_RxSigInfo	import
                    1738 ;Com_TxModeFalse	Com_TxModeFalse	import
                    1739 ;Com_TxModeInfo	Com_TxModeInfo	import
                    1740 ;Com_TxModeTrue	Com_TxModeTrue	import
                    1741 ;Com_TxPduGrpInfo	Com_TxPduGrpInfo	import
                    1742 ;Com_TxPduInfo	Com_TxPduInfo	import
                    1743 ;Com_TxPduInitValue	Com_TxPduInitValue	import
                    1744 ;Com_TxSigInfo	Com_TxSigInfo	import
                    1745 ;Com_CurrentTxMode	Com_CurrentTxMode	import
                    1746 ;Com_CycleTimeCnt	Com_CycleTimeCnt	import
                    1747 ;Com_CyclicSendRequest	Com_CyclicSendRequest	import
                    1748 ;Com_HandleRxPduDeferred	Com_HandleRxPduDeferred	import
                    1749 ;Com_Initialized	Com_Initialized	import
                    1750 ;Com_RxDefPduBuffer	Com_RxDefPduBuffer	import
                    1751 ;Com_RxDeferredProcessingISRLockCounter	Com_RxDeferredProcessingISRLockCounter	import
                    1752 ;Com_RxIPduGroupISRLockCounter	Com_RxIPduGroupISRLockCounter	import
                    1753 ;Com_RxPduGrpActive	Com_RxPduGrpActive	import
                    1754 ;Com_RxSigBufferUInt8	Com_RxSigBufferUInt8	import
                    1755 ;Com_TransmitRequest	Com_TransmitRequest	import
                    1756 ;Com_TxBuffer	Com_TxBuffer	import
                    1757 ;Com_TxCyclicProcessingISRLockCounter	Com_TxCyclicProcessingISRLockCounter	import
                    1758 ;Com_TxIPduGroupISRLockCounter	Com_TxIPduGroupISRLockCounter	import

                                                                      Page 30
                                                              C:\Users\Fengyuan\AppData\Local\Temp\gh_0000fuk1.s
                    1759 ;Com_TxPduGrpActive	Com_TxPduGrpActive	import
                    1760 ;Com_TxProcessingISRLockCounter	Com_TxProcessingISRLockCounter	import
                    1761 ;Com_TxSduLength	Com_TxSduLength	import
                    1762 
                    1763 	.ghsnote info, 19, 3, 640
                    1764 	.align	2
                    1765 ..eof.C.3A.5CVector.5CCBD1800257_D01_S32K1xx.5CApplications.5CS32K144_Start_new.5CAppl.5Cobj.5CCom...43.3A.5CVector.5CCBD1800257_D01_S32K1xx.5CApplications.5CS32K144_Start_new.5CAppl..60CBFD75..0::
                    1766 	.section	.debug_info
                    1767 .Ldw_begin:
00000000 00000000*  1768 	.data.w	.Ldw_end-.Ldw_begin-4
00000004 0002       1769 	.data.b	2,0
00000006 00000000*  1770 	.data.w	.Ldw_abbr_begin
0000000a 04         1771 	.data.b	4
                    1772 	.section	.debug_abbrev
                    1773 .Ldw_abbr_begin:
                    1774 	.section	.debug_info
0000000b 01         1775 	.data.b	1
0000000c 00000000*  1776 	.data.w	..bof.C.3A.5CVector.5CCBD1800257_D01_S32K1xx.5CApplications.5CS32K144_Start_new.5CAppl.5Cobj.5CCom...43.3A.5CVector.5CCBD1800257_D01_S32K1xx.5CApplications.5CS32K144_Start_new.5CAppl..60CBFD75..0
00000010 00000000*  1777 	.data.w	..eof.C.3A.5CVector.5CCBD1800257_D01_S32K1xx.5CApplications.5CS32K144_Start_new.5CAppl.5Cobj.5CCom...43.3A.5CVector.5CCBD1800257_D01_S32K1xx.5CApplications.5CS32K144_Start_new.5CAppl..60CBFD75..0
00000014 2e2f2e2e   1778 	.data.b	46,46,47,46,46,47,46,46,47,66,83,87,47,67,111,109,47,67,111,109,46,99,0
00000018 2e2e2f2e 
0000001c 5753422f 
00000020 6d6f432f 
00000024 6d6f432f 
00000028 00632e 
0000002b 565c3a43   1779 	.data.b	67,58,92,86,101,99,116,111,114,92,67,66,68,49,56,48,48,50,53,55,95,68,48,49,95,83,51,50,75,49,120,120,92,65,112,112,108,105,99,97,116,105,111,110,115,92,83,51,50,75,49,52,52,95,83,116,97,114,116,95
0000002f 6f746365 
00000033 42435c72 
00000037 30383144 
0000003b 37353230 
0000003f 3130445f 
00000043 3233535f 
00000047 7878314b 
0000004b 7070415c 
0000004f 6163696c 
00000053 6e6f6974 
00000057 33535c73 
0000005b 34314b32 
0000005f 74535f34 
00000063 5f747261 
00000067 5c77656e   1780 	.data.b	110,101,119,92,65,112,112,108,0
0000006b 6c707041 
0000006f 00 
00000070 20534847   1781 	.data.b	71,72,83,32,67,32,50,48,49,55,46,49,46,52,32,91,100,117,97,108,93,0
00000074 30322043 
00000078 312e3731 
0000007c 5b20342e 
00000080 6c617564 
00000084 005d 
00000086 0001       1782 	.data.b	1,0
00000088 00000000*  1783 	.data.w	.Ldw_line_begin
0000008c 00000000*  1784 	.data.w	.Ldw_macinfo_begin
00000090 00         1785 	.data.b	0
                    1786 
                    1787 	.section	.debug_abbrev
00000000 01         1788 	.data.b	1
00000001 11         1789 	.data.b	17
00000002 01         1790 	.data.b	1
00000003 0111       1791 	.data.b	17,1
00000005 0112       1792 	.data.b	18,1
00000007 0803       1793 	.data.b	3,8

                                                                      Page 31
                                                              C:\Users\Fengyuan\AppData\Local\Temp\gh_0000fuk1.s
00000009 081b       1794 	.data.b	27,8
0000000b 0825       1795 	.data.b	37,8
0000000d 0513       1796 	.data.b	19,5
0000000f 0610       1797 	.data.b	16,6
00000011 0643       1798 	.data.b	67,6
00000013 0b42       1799 	.data.b	66,11
00000015 0000       1800 	.data.b	0,0
                    1801 
                    1802 	.section	.debug_line
                    1803 .Ldw_line_begin:
00000000 00000000*  1804 	.data.w	.Ldw_line_end-.Ldw_line_begin-4
00000004 0002       1805 	.data.b	2,0
00000006 00000000*  1806 	.data.w	.Ldw_lpro_end-.Ldw_lpro_begin
                    1807 .Ldw_lpro_begin:
0000000a 01         1808 	.data.b	1
0000000b 00         1809 	.data.b	0
0000000c 00         1810 	.data.b	0
0000000d 04         1811 	.data.b	4
0000000e 0a         1812 	.data.b	10
0000000f 010100     1813 	.data.b	0,1,1
00000012 000101     1814 	.data.b	1,1,0
00000015 010000     1815 	.data.b	0,0,1
00000018 00         1816 	.data.b	0
00000019 2e2f2e2e   1817 	.data.b	46,46,47,46,46,47,46,46,47,66,83,87,47,67,111,109,47,67,111,109,46,99,0
0000001d 2e2e2f2e 
00000021 5753422f 
00000025 6d6f432f 
00000029 6d6f432f 
0000002d 00632e 
00000030 000000     1818 	.data.b	0,0,0
00000033 2e2f2e2e   1819 	.data.b	46,46,47,46,46,47,46,46,47,66,83,87,47,67,111,109,47,67,111,109,46,104,0
00000037 2e2e2f2e 
0000003b 5753422f 
0000003f 6d6f432f 
00000043 6d6f432f 
00000047 00682e 
0000004a 000000     1820 	.data.b	0,0,0
0000004d 646e6567   1821 	.data.b	103,101,110,100,97,116,97,92,67,111,109,95,67,102,103,46,104,0
00000051 5c617461 
00000055 5f6d6f43 
00000059 2e676643 
0000005d 0068 
0000005f 000000     1822 	.data.b	0,0,0
00000062 646e6567   1823 	.data.b	103,101,110,100,97,116,97,92,67,111,109,95,84,121,112,101,115,46,104,0
00000066 5c617461 
0000006a 5f6d6f43 
0000006e 65707954 
00000072 00682e73 
00000076 000000     1824 	.data.b	0,0,0
00000079 2e2f2e2e   1825 	.data.b	46,46,47,46,46,47,46,46,47,98,115,119,47,95,99,111,109,109,111,110,47,67,111,109,83,116,97,99,107,95,84,121,112,101,115,46,104,0
0000007d 2e2e2f2e 
00000081 7773622f 
00000085 6f635f2f 
00000089 6e6f6d6d 
0000008d 6d6f432f 
00000091 63617453 
00000095 79545f6b 
00000099 2e736570 
0000009d 0068 
0000009f 000000     1826 	.data.b	0,0,0
000000a2 2e2f2e2e   1827 	.data.b	46,46,47,46,46,47,46,46,47,98,115,119,47,95,99,111,109,109,111,110,47,83,116,100,95,84,121,112,101,115,46,104,0

                                                                      Page 32
                                                              C:\Users\Fengyuan\AppData\Local\Temp\gh_0000fuk1.s
000000a6 2e2e2f2e 
000000aa 7773622f 
000000ae 6f635f2f 
000000b2 6e6f6d6d 
000000b6 6474532f 
000000ba 7079545f 
000000be 682e7365 
000000c2 00 
000000c3 000000     1828 	.data.b	0,0,0
000000c6 2e2f2e2e   1829 	.data.b	46,46,47,46,46,47,46,46,47,98,115,119,47,95,99,111,109,109,111,110,47,80,108,97,116,102,111,114,109,95,84,121,112,101,115,46,104,0
000000ca 2e2e2f2e 
000000ce 7773622f 
000000d2 6f635f2f 
000000d6 6e6f6d6d 
000000da 616c502f 
000000de 726f6674 
000000e2 79545f6d 
000000e6 2e736570 
000000ea 0068 
000000ec 000000     1830 	.data.b	0,0,0
000000ef 2e2f2e2e   1831 	.data.b	46,46,47,46,46,47,46,46,47,98,115,119,47,95,99,111,109,109,111,110,47,67,111,109,112,105,108,101,114,46,104,0
000000f3 2e2e2f2e 
000000f7 7773622f 
000000fb 6f635f2f 
000000ff 6e6f6d6d 
00000103 6d6f432f 
00000107 656c6970 
0000010b 00682e72 
0000010f 000000     1832 	.data.b	0,0,0
00000112 6c636e69   1833 	.data.b	105,110,99,108,117,100,101,92,67,111,109,112,105,108,101,114,95,67,102,103,46,104,0
00000116 5c656475 
0000011a 706d6f43 
0000011e 72656c69 
00000122 6766435f 
00000126 00682e 
00000129 000000     1834 	.data.b	0,0,0
0000012c 646e6567   1835 	.data.b	103,101,110,100,97,116,97,92,82,116,101,95,67,111,109,112,105,108,101,114,95,67,102,103,46,104,0
00000130 5c617461 
00000134 5f657452 
00000138 706d6f43 
0000013c 72656c69 
00000140 6766435f 
00000144 00682e 
00000147 000000     1836 	.data.b	0,0,0
0000014a 6c636e69   1837 	.data.b	105,110,99,108,117,100,101,92,67,100,100,95,84,112,95,67,111,109,112,105,108,101,114,95,67,102,103,46,104,0
0000014e 5c656475 
00000152 5f646443 
00000156 435f7054 
0000015a 69706d6f 
0000015e 5f72656c 
00000162 2e676643 
00000166 0068 
00000168 000000     1838 	.data.b	0,0,0
0000016b 6c636e69   1839 	.data.b	105,110,99,108,117,100,101,92,67,100,100,95,67,111,109,95,67,111,109,112,105,108,101,114,95,67,102,103,46,104,0
0000016f 5c656475 
00000173 5f646443 
00000177 5f6d6f43 
0000017b 706d6f43 
0000017f 72656c69 
00000183 6766435f 
00000187 00682e 

                                                                      Page 33
                                                              C:\Users\Fengyuan\AppData\Local\Temp\gh_0000fuk1.s
0000018a 000000     1840 	.data.b	0,0,0
0000018d 646e6567   1841 	.data.b	103,101,110,100,97,116,97,92,79,115,95,67,111,109,112,105,108,101,114,95,67,102,103,46,104,0
00000191 5c617461 
00000195 435f734f 
00000199 69706d6f 
0000019d 5f72656c 
000001a1 2e676643 
000001a5 0068 
000001a7 000000     1842 	.data.b	0,0,0
000001aa 646e6567   1843 	.data.b	103,101,110,100,97,116,97,92,67,111,109,83,116,97,99,107,95,67,102,103,46,104,0
000001ae 5c617461 
000001b2 536d6f43 
000001b6 6b636174 
000001ba 6766435f 
000001be 00682e 
000001c1 000000     1844 	.data.b	0,0,0
000001c4 646e6567   1845 	.data.b	103,101,110,100,97,116,97,92,67,111,109,95,80,66,99,102,103,46,104,0
000001c8 5c617461 
000001cc 5f6d6f43 
000001d0 66634250 
000001d4 00682e67 
000001d8 000000     1846 	.data.b	0,0,0
000001db 646e6567   1847 	.data.b	103,101,110,100,97,116,97,92,67,111,109,95,67,98,107,46,104,0
000001df 5c617461 
000001e3 5f6d6f43 
000001e7 2e6b6243 
000001eb 0068 
000001ed 000000     1848 	.data.b	0,0,0
000001f0 646e6567   1849 	.data.b	103,101,110,100,97,116,97,92,67,111,109,95,67,111,116,46,104,0
000001f4 5c617461 
000001f8 5f6d6f43 
000001fc 2e746f43 
00000200 0068 
00000202 000000     1850 	.data.b	0,0,0
00000205 6c636e69   1851 	.data.b	105,110,99,108,117,100,101,92,77,101,109,77,97,112,46,104,0
00000209 5c656475 
0000020d 4d6d654d 
00000211 682e7061 
00000215 00 
00000216 000000     1852 	.data.b	0,0,0
00000219 646e6567   1853 	.data.b	103,101,110,100,97,116,97,92,80,100,117,82,95,67,102,103,46,104,0
0000021d 5c617461 
00000221 52756450 
00000225 6766435f 
00000229 00682e 
0000022c 000000     1854 	.data.b	0,0,0
0000022f 646e6567   1855 	.data.b	103,101,110,100,97,116,97,92,80,100,117,82,95,84,121,112,101,115,46,104,0
00000233 5c617461 
00000237 52756450 
0000023b 7079545f 
0000023f 682e7365 
00000243 00 
00000244 000000     1856 	.data.b	0,0,0
00000247 2e2f2e2e   1857 	.data.b	46,46,47,46,46,47,46,46,47,98,115,119,47,100,101,116,47,68,101,116,46,104,0
0000024b 2e2e2f2e 
0000024f 7773622f 
00000253 7465642f 
00000257 7465442f 
0000025b 00682e 
0000025e 000000     1858 	.data.b	0,0,0
00000261 646e6567   1859 	.data.b	103,101,110,100,97,116,97,92,68,101,116,95,67,102,103,46,104,0

                                                                      Page 34
                                                              C:\Users\Fengyuan\AppData\Local\Temp\gh_0000fuk1.s
00000265 5c617461 
00000269 5f746544 
0000026d 2e676643 
00000271 0068 
00000273 000000     1860 	.data.b	0,0,0
00000276 2e2f2e2e   1861 	.data.b	46,46,47,46,46,47,46,46,47,98,115,119,47,118,115,116,100,108,105,98,47,118,115,116,100,108,105,98,46,104,0
0000027a 2e2e2f2e 
0000027e 7773622f 
00000282 7473762f 
00000286 62696c64 
0000028a 7473762f 
0000028e 62696c64 
00000292 00682e 
00000295 000000     1862 	.data.b	0,0,0
00000298 6c636e69   1863 	.data.b	105,110,99,108,117,100,101,92,86,83,116,100,76,105,98,95,67,102,103,46,104,0
0000029c 5c656475 
000002a0 64745356 
000002a4 5f62694c 
000002a8 2e676643 
000002ac 0068 
000002ae 000000     1864 	.data.b	0,0,0
000002b1 646e6567   1865 	.data.b	103,101,110,100,97,116,97,92,80,100,117,82,95,67,111,109,46,104,0
000002b5 5c617461 
000002b9 52756450 
000002bd 6d6f435f 
000002c1 00682e 
000002c4 000000     1866 	.data.b	0,0,0
000002c7 646e6567   1867 	.data.b	103,101,110,100,97,116,97,92,67,111,109,95,76,99,102,103,46,104,0
000002cb 5c617461 
000002cf 5f6d6f43 
000002d3 6766634c 
000002d7 00682e 
000002da 000000     1868 	.data.b	0,0,0
000002dd 646e6567   1869 	.data.b	103,101,110,100,97,116,97,92,83,99,104,77,95,67,111,109,46,104,0
000002e1 5c617461 
000002e5 4d686353 
000002e9 6d6f435f 
000002ed 00682e 
000002f0 000000     1870 	.data.b	0,0,0
000002f3 646e6567   1871 	.data.b	103,101,110,100,97,116,97,92,83,99,104,77,95,67,111,109,95,84,121,112,101,46,104,0
000002f7 5c617461 
000002fb 4d686353 
000002ff 6d6f435f 
00000303 7079545f 
00000307 00682e65 
0000030b 000000     1872 	.data.b	0,0,0
0000030e 646e6567   1873 	.data.b	103,101,110,100,97,116,97,92,82,116,101,95,84,121,112,101,46,104,0
00000312 5c617461 
00000316 5f657452 
0000031a 65707954 
0000031e 00682e 
00000321 000000     1874 	.data.b	0,0,0
00000324 646e6567   1875 	.data.b	103,101,110,100,97,116,97,92,82,116,101,46,104,0
00000328 5c617461 
0000032c 2e657452 
00000330 0068 
00000332 000000     1876 	.data.b	0,0,0
00000335 646e6567   1877 	.data.b	103,101,110,100,97,116,97,92,82,116,101,95,85,115,101,114,84,121,112,101,115,46,104,0
00000339 5c617461 
0000033d 5f657452 
00000341 72657355 

                                                                      Page 35
                                                              C:\Users\Fengyuan\AppData\Local\Temp\gh_0000fuk1.s
00000345 65707954 
00000349 00682e73 
0000034d 000000     1878 	.data.b	0,0,0
00000350 646e6567   1879 	.data.b	103,101,110,100,97,116,97,92,82,116,101,95,68,97,116,97,72,97,110,100,108,101,84,121,112,101,46,104,0
00000354 5c617461 
00000358 5f657452 
0000035c 61746144 
00000360 646e6148 
00000364 7954656c 
00000368 682e6570 
0000036c 00 
0000036d 000000     1880 	.data.b	0,0,0
00000370 2e2f2e2e   1881 	.data.b	46,46,47,46,46,47,46,46,47,98,115,119,47,111,115,47,79,115,46,104,0
00000374 2e2e2f2e 
00000378 7773622f 
0000037c 2f736f2f 
00000380 682e734f 
00000384 00 
00000385 000000     1882 	.data.b	0,0,0
00000388 2e2f2e2e   1883 	.data.b	46,46,47,46,46,47,46,46,47,98,115,119,47,111,115,47,79,115,73,110,116,46,104,0
0000038c 2e2e2f2e 
00000390 7773622f 
00000394 2f736f2f 
00000398 6e49734f 
0000039c 00682e74 
000003a0 000000     1884 	.data.b	0,0,0
000003a3 646e6567   1885 	.data.b	103,101,110,100,97,116,97,92,79,115,95,76,99,102,103,46,104,0
000003a7 5c617461 
000003ab 4c5f734f 
000003af 2e676663 
000003b3 0068 
000003b5 000000     1886 	.data.b	0,0,0
000003b8 646e6567   1887 	.data.b	103,101,110,100,97,116,97,92,79,115,95,67,102,103,46,104,0
000003bc 5c617461 
000003c0 435f734f 
000003c4 682e6766 
000003c8 00 
000003c9 000000     1888 	.data.b	0,0,0
000003cc 646e6567   1889 	.data.b	103,101,110,100,97,116,97,92,79,115,95,72,97,108,95,67,102,103,46,104,0
000003d0 5c617461 
000003d4 485f734f 
000003d8 435f6c61 
000003dc 682e6766 
000003e0 00 
000003e1 000000     1890 	.data.b	0,0,0
000003e4 2e2f2e2e   1891 	.data.b	46,46,47,46,46,47,46,46,47,98,115,119,47,111,115,47,79,115,95,84,121,112,101,115,46,104,0
000003e8 2e2e2f2e 
000003ec 7773622f 
000003f0 2f736f2f 
000003f4 545f734f 
000003f8 73657079 
000003fc 00682e 
000003ff 000000     1892 	.data.b	0,0,0
00000402 646e6567   1893 	.data.b	103,101,110,100,97,116,97,92,79,115,95,84,121,112,101,115,95,76,99,102,103,46,104,0
00000406 5c617461 
0000040a 545f734f 
0000040e 73657079 
00000412 66634c5f 
00000416 00682e67 
0000041a 000000     1894 	.data.b	0,0,0
0000041d 2e2f2e2e   1895 	.data.b	46,46,47,46,46,47,46,46,47,98,115,119,47,111,115,47,79,115,95,72,97,108,95,79,115,95,84,121,112,101,115,46,104,0

                                                                      Page 36
                                                              C:\Users\Fengyuan\AppData\Local\Temp\gh_0000fuk1.s
00000421 2e2e2f2e 
00000425 7773622f 
00000429 2f736f2f 
0000042d 485f734f 
00000431 4f5f6c61 
00000435 79545f73 
00000439 2e736570 
0000043d 0068 
0000043f 000000     1896 	.data.b	0,0,0
00000442 646e6567   1897 	.data.b	103,101,110,100,97,116,97,92,79,115,95,72,97,108,95,76,99,102,103,46,104,0
00000446 5c617461 
0000044a 485f734f 
0000044e 4c5f6c61 
00000452 2e676663 
00000456 0068 
00000458 000000     1898 	.data.b	0,0,0
0000045b 2e2f2e2e   1899 	.data.b	46,46,47,46,46,47,46,46,47,98,115,119,47,111,115,47,79,115,95,72,97,108,95,79,115,73,110,116,46,104,0
0000045f 2e2e2f2e 
00000463 7773622f 
00000467 2f736f2f 
0000046b 485f734f 
0000046f 4f5f6c61 
00000473 746e4973 
00000477 00682e 
0000047a 000000     1900 	.data.b	0,0,0
0000047d 2e2f2e2e   1901 	.data.b	46,46,47,46,46,47,46,46,47,98,115,119,47,111,115,47,79,115,95,72,97,108,95,79,115,46,104,0
00000481 2e2e2f2e 
00000485 7773622f 
00000489 2f736f2f 
0000048d 485f734f 
00000491 4f5f6c61 
00000495 00682e73 
00000499 000000     1902 	.data.b	0,0,0
0000049c 2e2f2e2e   1903 	.data.b	46,46,47,46,46,47,46,46,47,98,115,119,47,111,115,47,79,115,95,77,101,109,77,97,112,95,79,115,67,111,100,101,46,104,0
000004a0 2e2e2f2e 
000004a4 7773622f 
000004a8 2f736f2f 
000004ac 4d5f734f 
000004b0 614d6d65 
000004b4 734f5f70 
000004b8 65646f43 
000004bc 00682e 
000004bf 000000     1904 	.data.b	0,0,0
000004c2 646e6567   1905 	.data.b	103,101,110,100,97,116,97,92,79,115,95,77,101,109,77,97,112,95,79,115,67,111,100,101,73,110,116,46,104,0
000004c6 5c617461 
000004ca 4d5f734f 
000004ce 614d6d65 
000004d2 734f5f70 
000004d6 65646f43 
000004da 2e746e49 
000004de 0068 
000004e0 000000     1906 	.data.b	0,0,0
000004e3 00         1907 	.data.b	0
                    1908 .Ldw_lpro_end:
                    1909 	.section	.debug_macinfo
                    1910 .Ldw_macinfo_begin:
                    1911 	.section	.debug_frame
                    1912 .LDW_5f79490:
00000000 00000000*  1913 	.data.w	.LDW_unq_2-.LDW_unq_1
                    1914 .LDW_unq_1:
00000004 ffffffff   1915 	.data.b	255,255,255,255

                                                                      Page 37
                                                              C:\Users\Fengyuan\AppData\Local\Temp\gh_0000fuk1.s
00000008 01         1916 	.data.b	1
00000009 00         1917 	.data.b	0
0000000a 01         1918 	.data.b	1
0000000b 01         1919 	.data.b	1
0000000c 00         1920 	.data.b	0
0000000d 0c         1921 	.data.b	12
0000000e 0d         1922 	.data.b	13
0000000f 00         1923 	.data.b	0
00000010 07         1924 	.data.b	7
00000011 00         1925 	.data.b	0
00000012 07         1926 	.data.b	7
00000013 01         1927 	.data.b	1
00000014 07         1928 	.data.b	7
00000015 02         1929 	.data.b	2
00000016 07         1930 	.data.b	7
00000017 03         1931 	.data.b	3
00000018 07         1932 	.data.b	7
00000019 04         1933 	.data.b	4
0000001a 07         1934 	.data.b	7
0000001b 05         1935 	.data.b	5
0000001c 07         1936 	.data.b	7
0000001d 06         1937 	.data.b	6
0000001e 07         1938 	.data.b	7
0000001f 07         1939 	.data.b	7
00000020 07         1940 	.data.b	7
00000021 08         1941 	.data.b	8
00000022 07         1942 	.data.b	7
00000023 09         1943 	.data.b	9
00000024 07         1944 	.data.b	7
00000025 0a         1945 	.data.b	10
00000026 07         1946 	.data.b	7
00000027 0b         1947 	.data.b	11
00000028 07         1948 	.data.b	7
00000029 0c         1949 	.data.b	12
0000002a 07         1950 	.data.b	7
0000002b 0d         1951 	.data.b	13
0000002c 07         1952 	.data.b	7
0000002d 0e         1953 	.data.b	14
0000002e 07         1954 	.data.b	7
0000002f 0f         1955 	.data.b	15
00000030 07         1956 	.data.b	7
00000031 10         1957 	.data.b	16
00000032 07         1958 	.data.b	7
00000033 11         1959 	.data.b	17
00000034 07         1960 	.data.b	7
00000035 12         1961 	.data.b	18
00000036 07         1962 	.data.b	7
00000037 13         1963 	.data.b	19
00000038 07         1964 	.data.b	7
00000039 14         1965 	.data.b	20
0000003a 07         1966 	.data.b	7
0000003b 15         1967 	.data.b	21
0000003c 07         1968 	.data.b	7
0000003d 16         1969 	.data.b	22
0000003e 07         1970 	.data.b	7
0000003f 17         1971 	.data.b	23
00000040 07         1972 	.data.b	7
00000041 18         1973 	.data.b	24
00000042 07         1974 	.data.b	7
00000043 19         1975 	.data.b	25
00000044 07         1976 	.data.b	7

                                                                      Page 38
                                                              C:\Users\Fengyuan\AppData\Local\Temp\gh_0000fuk1.s
00000045 1a         1977 	.data.b	26
00000046 07         1978 	.data.b	7
00000047 1b         1979 	.data.b	27
00000048 07         1980 	.data.b	7
00000049 1c         1981 	.data.b	28
0000004a 07         1982 	.data.b	7
0000004b 1d         1983 	.data.b	29
0000004c 07         1984 	.data.b	7
0000004d 1e         1985 	.data.b	30
0000004e 07         1986 	.data.b	7
0000004f 1f         1987 	.data.b	31
00000050 07         1988 	.data.b	7
00000051 20         1989 	.data.b	32
00000052 07         1990 	.data.b	7
00000053 21         1991 	.data.b	33
00000054 07         1992 	.data.b	7
00000055 22         1993 	.data.b	34
00000056 07         1994 	.data.b	7
00000057 23         1995 	.data.b	35
00000058 07         1996 	.data.b	7
00000059 24         1997 	.data.b	36
0000005a 07         1998 	.data.b	7
0000005b 25         1999 	.data.b	37
0000005c 07         2000 	.data.b	7
0000005d 26         2001 	.data.b	38
0000005e 07         2002 	.data.b	7
0000005f 27         2003 	.data.b	39
00000060 07         2004 	.data.b	7
00000061 28         2005 	.data.b	40
00000062 07         2006 	.data.b	7
00000063 29         2007 	.data.b	41
00000064 07         2008 	.data.b	7
00000065 2a         2009 	.data.b	42
00000066 07         2010 	.data.b	7
00000067 2b         2011 	.data.b	43
00000068 07         2012 	.data.b	7
00000069 2c         2013 	.data.b	44
0000006a 07         2014 	.data.b	7
0000006b 2d         2015 	.data.b	45
0000006c 07         2016 	.data.b	7
0000006d 2e         2017 	.data.b	46
0000006e 07         2018 	.data.b	7
0000006f 2f         2019 	.data.b	47
00000070 07         2020 	.data.b	7
00000071 30         2021 	.data.b	48
00000072 07         2022 	.data.b	7
00000073 31         2023 	.data.b	49
00000074 07         2024 	.data.b	7
00000075 32         2025 	.data.b	50
00000076 07         2026 	.data.b	7
00000077 33         2027 	.data.b	51
00000078 07         2028 	.data.b	7
00000079 34         2029 	.data.b	52
0000007a 07         2030 	.data.b	7
0000007b 35         2031 	.data.b	53
0000007c 07         2032 	.data.b	7
0000007d 36         2033 	.data.b	54
0000007e 07         2034 	.data.b	7
0000007f 37         2035 	.data.b	55
00000080 07         2036 	.data.b	7
00000081 38         2037 	.data.b	56

                                                                      Page 39
                                                              C:\Users\Fengyuan\AppData\Local\Temp\gh_0000fuk1.s
00000082 07         2038 	.data.b	7
00000083 39         2039 	.data.b	57
00000084 07         2040 	.data.b	7
00000085 3a         2041 	.data.b	58
00000086 07         2042 	.data.b	7
00000087 3b         2043 	.data.b	59
00000088 07         2044 	.data.b	7
00000089 3c         2045 	.data.b	60
0000008a 07         2046 	.data.b	7
0000008b 3d         2047 	.data.b	61
0000008c 07         2048 	.data.b	7
0000008d 3e         2049 	.data.b	62
0000008e 07         2050 	.data.b	7
0000008f 3f         2051 	.data.b	63
                    2052 .LDW_unq_2:
                    2053 	.section	.debug_info
                    2054 .LDW_49cd338:
00000091 27         2055 	.data.b	39
00000092 69736e75   2056 	.data.b	117,110,115,105,103,110,101,100,32,99,104,97,114,0
00000096 64656e67 
0000009a 61686320 
0000009e 0072 
000000a0 08         2057 	.data.b	8
000000a1 01         2058 	.data.b	1
                    2059 
                    2060 	.section	.debug_abbrev
00000017 27         2061 	.data.b	39
00000018 24         2062 	.data.b	36
00000019 00         2063 	.data.b	0
0000001a 0803       2064 	.data.b	3,8
0000001c 0b3e       2065 	.data.b	62,11
0000001e 0b0b       2066 	.data.b	11,11
00000020 0000       2067 	.data.b	0,0
                    2068 
                    2069 	.section	.debug_info
                    2070 .LDW_49cd3a8:
000000a2 47         2071 	.data.b	71
000000a3 01         2072 	.data.b	1
                    2073 
                    2074 	.section	.debug_abbrev
00000022 47         2075 	.data.b	71
00000023 15         2076 	.data.b	21
00000024 01         2077 	.data.b	1
00000025 0c27       2078 	.data.b	39,12
00000027 0000       2079 	.data.b	0,0
                    2080 
                    2081 	.section	.debug_info
                    2082 .LDW_49b0298:
000000a4 14         2083 	.data.b	20
000000a5 00000000*  2084 	.data.w	.LDW_5e8ef58
000000a9 00         2085 	.data.b	0
                    2086 
                    2087 	.section	.debug_abbrev
00000029 14         2088 	.data.b	20
0000002a 05         2089 	.data.b	5
0000002b 00         2090 	.data.b	0
0000002c 1049       2091 	.data.b	73,16
0000002e 0c4b       2092 	.data.b	75,12
00000030 0000       2093 	.data.b	0,0
                    2094 
                    2095 	.section	.debug_info

                                                                      Page 40
                                                              C:\Users\Fengyuan\AppData\Local\Temp\gh_0000fuk1.s
000000aa 00         2096 	.data.b	0
                    2097 
                    2098 .LDW_49cd680:
000000ab 47         2099 	.data.b	71
000000ac 01         2100 	.data.b	1
                    2101 
                    2102 .LDW_49b02f8:
000000ad 14         2103 	.data.b	20
000000ae 00000000*  2104 	.data.w	.LDW_5e8ef58
000000b2 00         2105 	.data.b	0
                    2106 
000000b3 00         2107 	.data.b	0
                    2108 
                    2109 .LDW_49cd450:
000000b4 27         2110 	.data.b	39
000000b5 69736e75   2111 	.data.b	117,110,115,105,103,110,101,100,32,108,111,110,103,0
000000b9 64656e67 
000000bd 6e6f6c20 
000000c1 0067 
000000c3 07         2112 	.data.b	7
000000c4 04         2113 	.data.b	4
                    2114 
                    2115 .LDW_49cd140:
000000c5 47         2116 	.data.b	71
000000c6 01         2117 	.data.b	1
                    2118 
                    2119 .LDW_49b0538:
000000c7 14         2120 	.data.b	20
000000c8 00000000*  2121 	.data.w	.LDW_49f9598
000000cc 00         2122 	.data.b	0
                    2123 
000000cd 00         2124 	.data.b	0
                    2125 
                    2126 .LDW_49cd258:
000000ce 47         2127 	.data.b	71
000000cf 01         2128 	.data.b	1
                    2129 
                    2130 .LDW_49b05f8:
000000d0 14         2131 	.data.b	20
000000d1 00000000*  2132 	.data.w	.LDW_49f96e0
000000d5 00         2133 	.data.b	0
                    2134 
                    2135 .LDW_49b0568:
000000d6 14         2136 	.data.b	20
000000d7 00000000*  2137 	.data.w	.LDW_49f9738
000000db 00         2138 	.data.b	0
                    2139 
000000dc 00         2140 	.data.b	0
                    2141 
                    2142 .LDW_49cd4f8:
000000dd 47         2143 	.data.b	71
000000de 01         2144 	.data.b	1
                    2145 
                    2146 .LDW_49b0658:
000000df 14         2147 	.data.b	20
000000e0 00000000*  2148 	.data.w	.LDW_49f9598
000000e4 00         2149 	.data.b	0
                    2150 
                    2151 .LDW_49b0508:
000000e5 14         2152 	.data.b	20
000000e6 00000000*  2153 	.data.w	.LDW_49f9738

                                                                      Page 41
                                                              C:\Users\Fengyuan\AppData\Local\Temp\gh_0000fuk1.s
000000ea 00         2154 	.data.b	0
                    2155 
000000eb 00         2156 	.data.b	0
                    2157 
                    2158 .LDW_49cd610:
000000ec 31         2159 	.data.b	49
000000ed 00000000*  2160 	.data.w	.LDW_5e8ef00
                    2161 
                    2162 	.section	.debug_abbrev
00000032 31         2163 	.data.b	49
00000033 0f         2164 	.data.b	15
00000034 00         2165 	.data.b	0
00000035 1049       2166 	.data.b	73,16
00000037 0000       2167 	.data.b	0,0
                    2168 
                    2169 	.section	.debug_info
                    2170 .LDW_49cd760:
000000f1 47         2171 	.data.b	71
000000f2 01         2172 	.data.b	1
                    2173 
                    2174 .LDW_49fb768:
000000f3 14         2175 	.data.b	20
000000f4 00000000*  2176 	.data.w	.LDW_49cd610
000000f8 00         2177 	.data.b	0
                    2178 
                    2179 .LDW_49fbaf8:
000000f9 14         2180 	.data.b	20
000000fa 00000000*  2181 	.data.w	.LDW_49f9738
000000fe 00         2182 	.data.b	0
                    2183 
000000ff 00         2184 	.data.b	0
                    2185 
                    2186 .LDW_49cd6b8:
00000100 47         2187 	.data.b	71
00000101 01         2188 	.data.b	1
                    2189 
                    2190 .LDW_49fbb58:
00000102 14         2191 	.data.b	20
00000103 00000000*  2192 	.data.w	.LDW_49f96e0
00000107 00         2193 	.data.b	0
                    2194 
00000108 00         2195 	.data.b	0
                    2196 
                    2197 .LDW_49cd7d0:
00000109 47         2198 	.data.b	71
0000010a 01         2199 	.data.b	1
                    2200 
                    2201 .LDW_49fb7f8:
0000010b 14         2202 	.data.b	20
0000010c 00000000*  2203 	.data.w	.LDW_49f9598
00000110 00         2204 	.data.b	0
                    2205 
00000111 00         2206 	.data.b	0
                    2207 
                    2208 .LDW_49cd530:
00000112 47         2209 	.data.b	71
00000113 01         2210 	.data.b	1
                    2211 
                    2212 .LDW_49fb858:
00000114 14         2213 	.data.b	20
00000115 00000000*  2214 	.data.w	.LDW_49f9598

                                                                      Page 42
                                                              C:\Users\Fengyuan\AppData\Local\Temp\gh_0000fuk1.s
00000119 00         2215 	.data.b	0
                    2216 
                    2217 .LDW_49fbbe8:
0000011a 14         2218 	.data.b	20
0000011b 00000000*  2219 	.data.w	.LDW_49f9738
0000011f 00         2220 	.data.b	0
                    2221 
                    2222 .LDW_49fb948:
00000120 14         2223 	.data.b	20
00000121 00000000*  2224 	.data.w	.LDW_49f9738
00000125 00         2225 	.data.b	0
                    2226 
00000126 00         2227 	.data.b	0
                    2228 
                    2229 .LDW_49cd728:
00000127 46         2230 	.data.b	70
00000128 00000000*  2231 	.data.w	.LDW_49f9738
0000012c 01         2232 	.data.b	1
                    2233 
                    2234 	.section	.debug_abbrev
00000039 46         2235 	.data.b	70
0000003a 15         2236 	.data.b	21
0000003b 01         2237 	.data.b	1
0000003c 1049       2238 	.data.b	73,16
0000003e 0c27       2239 	.data.b	39,12
00000040 0000       2240 	.data.b	0,0
                    2241 
                    2242 	.section	.debug_info
                    2243 .LDW_49fbbb8:
0000012d 14         2244 	.data.b	20
0000012e 00000000*  2245 	.data.w	.LDW_49cd610
00000132 00         2246 	.data.b	0
                    2247 
                    2248 .LDW_49fbc18:
00000133 14         2249 	.data.b	20
00000134 00000000*  2250 	.data.w	.LDW_49f9598
00000138 00         2251 	.data.b	0
                    2252 
00000139 00         2253 	.data.b	0
                    2254 
                    2255 .LDW_49cd1e8:
0000013a 47         2256 	.data.b	71
0000013b 01         2257 	.data.b	1
                    2258 
0000013c 00         2259 	.data.b	0
                    2260 
                    2261 .LDW_49cd220:
0000013d 47         2262 	.data.b	71
0000013e 01         2263 	.data.b	1
                    2264 
0000013f 00         2265 	.data.b	0
                    2266 
                    2267 .LDW_49cd108:
00000140 47         2268 	.data.b	71
00000141 01         2269 	.data.b	1
                    2270 
00000142 00         2271 	.data.b	0
                    2272 
                    2273 .LDW_49cd178:
00000143 47         2274 	.data.b	71
00000144 01         2275 	.data.b	1

                                                                      Page 43
                                                              C:\Users\Fengyuan\AppData\Local\Temp\gh_0000fuk1.s
                    2276 
00000145 00         2277 	.data.b	0
                    2278 
                    2279 .LDW_49cd290:
00000146 47         2280 	.data.b	71
00000147 01         2281 	.data.b	1
                    2282 
00000148 00         2283 	.data.b	0
                    2284 
                    2285 .LDW_49cd2c8:
00000149 47         2286 	.data.b	71
0000014a 01         2287 	.data.b	1
                    2288 
0000014b 00         2289 	.data.b	0
                    2290 
                    2291 .LDW_49cd370:
0000014c 47         2292 	.data.b	71
0000014d 01         2293 	.data.b	1
                    2294 
0000014e 00         2295 	.data.b	0
                    2296 
                    2297 .LDW_49cd840:
0000014f 47         2298 	.data.b	71
00000150 01         2299 	.data.b	1
                    2300 
00000151 00         2301 	.data.b	0
                    2302 
                    2303 .LDW_49cd878:
00000152 27         2304 	.data.b	39
00000153 69736e75   2305 	.data.b	117,110,115,105,103,110,101,100,32,115,104,111,114,116,0
00000157 64656e67 
0000015b 6f687320 
0000015f 007472 
00000162 07         2306 	.data.b	7
00000163 02         2307 	.data.b	2
                    2308 
                    2309 .LDW_5ef2958:
00000164 2b         2310 	.data.b	43
00000165 00000000*  2311 	.data.w	.LDW_5e8ef00
                    2312 
                    2313 	.section	.debug_abbrev
00000042 2b         2314 	.data.b	43
00000043 26         2315 	.data.b	38
00000044 00         2316 	.data.b	0
00000045 1049       2317 	.data.b	73,16
00000047 0000       2318 	.data.b	0,0
                    2319 
                    2320 	.section	.debug_info
                    2321 .LDW_5ef4418:
00000169 31         2322 	.data.b	49
0000016a 00000000*  2323 	.data.w	.LDW_5ef2958
                    2324 
                    2325 .LDW_49cd808:
0000016e 47         2326 	.data.b	71
0000016f 01         2327 	.data.b	1
                    2328 
                    2329 .LDW_49fbc78:
00000170 14         2330 	.data.b	20
00000171 00000000*  2331 	.data.w	.LDW_5ef2748
00000175 00         2332 	.data.b	0
                    2333 

                                                                      Page 44
                                                              C:\Users\Fengyuan\AppData\Local\Temp\gh_0000fuk1.s
                    2334 .LDW_49fb8b8:
00000176 14         2335 	.data.b	20
00000177 00000000*  2336 	.data.w	.LDW_5ef4418
0000017b 00         2337 	.data.b	0
                    2338 
0000017c 00         2339 	.data.b	0
                    2340 
                    2341 .LDW_5ef46b8:
0000017d 46         2342 	.data.b	70
0000017e 00000000*  2343 	.data.w	.LDW_5e8ef00
00000182 01         2344 	.data.b	1
                    2345 
                    2346 .LDW_49fbcd8:
00000183 14         2347 	.data.b	20
00000184 00000000*  2348 	.data.w	.LDW_5ef2328
00000188 00         2349 	.data.b	0
                    2350 
                    2351 .LDW_49fb798:
00000189 14         2352 	.data.b	20
0000018a 00000000*  2353 	.data.w	.LDW_5ef4418
0000018e 00         2354 	.data.b	0
                    2355 
0000018f 00         2356 	.data.b	0
                    2357 
                    2358 .LDW_5ef4680:
00000190 47         2359 	.data.b	71
00000191 01         2360 	.data.b	1
                    2361 
                    2362 .LDW_49fba08:
00000192 14         2363 	.data.b	20
00000193 00000000*  2364 	.data.w	.LDW_5ef2328
00000197 00         2365 	.data.b	0
                    2366 
                    2367 .LDW_49fbd38:
00000198 14         2368 	.data.b	20
00000199 00000000*  2369 	.data.w	.LDW_49cd610
0000019d 00         2370 	.data.b	0
                    2371 
                    2372 .LDW_49fbeb8:
0000019e 14         2373 	.data.b	20
0000019f 00000000*  2374 	.data.w	.LDW_5ef4418
000001a3 00         2375 	.data.b	0
                    2376 
                    2377 .LDW_49fbd68:
000001a4 14         2378 	.data.b	20
000001a5 00000000*  2379 	.data.w	.LDW_5ef2b10
000001a9 00         2380 	.data.b	0
                    2381 
000001aa 00         2382 	.data.b	0
                    2383 
                    2384 .LDW_5ef4450:
000001ab 27         2385 	.data.b	39
000001ac 69736e75   2386 	.data.b	117,110,115,105,103,110,101,100,32,108,111,110,103,32,108,111,110,103,0
000001b0 64656e67 
000001b4 6e6f6c20 
000001b8 6f6c2067 
000001bc 00676e 
000001bf 07         2387 	.data.b	7
000001c0 08         2388 	.data.b	8
                    2389 
                    2390 .LDW_5ef46f0:

                                                                      Page 45
                                                              C:\Users\Fengyuan\AppData\Local\Temp\gh_0000fuk1.s
000001c1 47         2391 	.data.b	71
000001c2 01         2392 	.data.b	1
                    2393 
                    2394 .LDW_49fbdc8:
000001c3 14         2395 	.data.b	20
000001c4 00000000*  2396 	.data.w	.LDW_5ef2328
000001c8 00         2397 	.data.b	0
                    2398 
                    2399 .LDW_49fbe28:
000001c9 14         2400 	.data.b	20
000001ca 00000000*  2401 	.data.w	.LDW_5ef2850
000001ce 00         2402 	.data.b	0
                    2403 
                    2404 .LDW_49fbe58:
000001cf 14         2405 	.data.b	20
000001d0 00000000*  2406 	.data.w	.LDW_5ef2380
000001d4 00         2407 	.data.b	0
                    2408 
000001d5 00         2409 	.data.b	0
                    2410 
                    2411 .LDW_5ef2430:
000001d6 2b         2412 	.data.b	43
000001d7 00000000*  2413 	.data.w	.LDW_5ef2a60
                    2414 
                    2415 .LDW_5ef45a0:
000001db 31         2416 	.data.b	49
000001dc 00000000*  2417 	.data.w	.LDW_5ef2430
                    2418 
                    2419 .LDW_5ef4290:
000001e0 47         2420 	.data.b	71
000001e1 01         2421 	.data.b	1
                    2422 
                    2423 .LDW_49fbdf8:
000001e2 14         2424 	.data.b	20
000001e3 00000000*  2425 	.data.w	.LDW_5e8ef58
000001e7 00         2426 	.data.b	0
                    2427 
                    2428 .LDW_6017420:
000001e8 14         2429 	.data.b	20
000001e9 00000000*  2430 	.data.w	.LDW_5ef45a0
000001ed 00         2431 	.data.b	0
                    2432 
000001ee 00         2433 	.data.b	0
                    2434 
                    2435 .LDW_5ef4370:
000001ef 27         2436 	.data.b	39
000001f0 64696f76   2437 	.data.b	118,111,105,100,42,0
000001f4 002a 
000001f6 01         2438 	.data.b	1
000001f7 04         2439 	.data.b	4
                    2440 
                    2441 .LDW_5ef4258:
000001f8 47         2442 	.data.b	71
000001f9 01         2443 	.data.b	1
                    2444 
                    2445 .LDW_60176f0:
000001fa 14         2446 	.data.b	20
000001fb 00000000*  2447 	.data.w	.LDW_5ef2748
000001ff 00         2448 	.data.b	0
                    2449 
                    2450 .LDW_6017780:

                                                                      Page 46
                                                              C:\Users\Fengyuan\AppData\Local\Temp\gh_0000fuk1.s
00000200 14         2451 	.data.b	20
00000201 00000000*  2452 	.data.w	.LDW_5ef4370
00000205 00         2453 	.data.b	0
                    2454 
00000206 00         2455 	.data.b	0
                    2456 
                    2457 .LDW_5ef4108:
00000207 47         2458 	.data.b	71
00000208 01         2459 	.data.b	1
                    2460 
                    2461 .LDW_60176c0:
00000209 14         2462 	.data.b	20
0000020a 00000000*  2463 	.data.w	.LDW_5e8ef58
0000020e 00         2464 	.data.b	0
                    2465 
0000020f 00         2466 	.data.b	0
                    2467 
                    2468 .LDW_5ef41e8:
00000210 47         2469 	.data.b	71
00000211 01         2470 	.data.b	1
                    2471 
00000212 00         2472 	.data.b	0
                    2473 
                    2474 .LDW_5ef4728:
00000213 31         2475 	.data.b	49
00000214 00000000*  2476 	.data.w	.LDW_5ef2dd0
                    2477 
                    2478 .LDW_5ef4530:
00000218 47         2479 	.data.b	71
00000219 01         2480 	.data.b	1
                    2481 
                    2482 .LDW_60173c0:
0000021a 14         2483 	.data.b	20
0000021b 00000000*  2484 	.data.w	.LDW_5ef4728
0000021f 00         2485 	.data.b	0
                    2486 
00000220 00         2487 	.data.b	0
                    2488 
                    2489 .LDW_5ef42c8:
00000221 47         2490 	.data.b	71
00000222 01         2491 	.data.b	1
                    2492 
                    2493 .LDW_6017840:
00000223 14         2494 	.data.b	20
00000224 00000000*  2495 	.data.w	.LDW_5e8ef58
00000228 00         2496 	.data.b	0
                    2497 
                    2498 .LDW_6017810:
00000229 14         2499 	.data.b	20
0000022a 00000000*  2500 	.data.w	.LDW_5ef4728
0000022e 00         2501 	.data.b	0
                    2502 
0000022f 00         2503 	.data.b	0
                    2504 
                    2505 .LDW_5ef4488:
00000230 47         2506 	.data.b	71
00000231 01         2507 	.data.b	1
                    2508 
                    2509 .LDW_6017360:
00000232 14         2510 	.data.b	20
00000233 00000000*  2511 	.data.w	.LDW_5e8ef58

                                                                      Page 47
                                                              C:\Users\Fengyuan\AppData\Local\Temp\gh_0000fuk1.s
00000237 00         2512 	.data.b	0
                    2513 
                    2514 .LDW_6017480:
00000238 14         2515 	.data.b	20
00000239 00000000*  2516 	.data.w	.LDW_5ef45a0
0000023d 00         2517 	.data.b	0
                    2518 
0000023e 00         2519 	.data.b	0
                    2520 
                    2521 .LDW_5ef44c0:
0000023f 47         2522 	.data.b	71
00000240 01         2523 	.data.b	1
                    2524 
                    2525 .LDW_60175a0:
00000241 14         2526 	.data.b	20
00000242 00000000*  2527 	.data.w	.LDW_5e8ef58
00000246 00         2528 	.data.b	0
                    2529 
                    2530 .LDW_60175d0:
00000247 14         2531 	.data.b	20
00000248 00000000*  2532 	.data.w	.LDW_5ef45a0
0000024c 00         2533 	.data.b	0
                    2534 
                    2535 .LDW_60173f0:
0000024d 14         2536 	.data.b	20
0000024e 00000000*  2537 	.data.w	.LDW_5ef4728
00000252 00         2538 	.data.b	0
                    2539 
00000253 00         2540 	.data.b	0
                    2541 
                    2542 .LDW_5ef4760:
00000254 46         2543 	.data.b	70
00000255 00000000*  2544 	.data.w	.LDW_60183f0
00000259 01         2545 	.data.b	1
                    2546 
                    2547 .LDW_60174b0:
0000025a 14         2548 	.data.b	20
0000025b 00000000*  2549 	.data.w	.LDW_5ef45a0
0000025f 00         2550 	.data.b	0
                    2551 
                    2552 .LDW_6017690:
00000260 14         2553 	.data.b	20
00000261 00000000*  2554 	.data.w	.LDW_6017c60
00000265 00         2555 	.data.b	0
                    2556 
00000266 00         2557 	.data.b	0
                    2558 
                    2559 .LDW_5ef40d0:
00000267 46         2560 	.data.b	70
00000268 00000000*  2561 	.data.w	.LDW_60183f0
0000026c 01         2562 	.data.b	1
                    2563 
                    2564 .LDW_6017750:
0000026d 14         2565 	.data.b	20
0000026e 00000000*  2566 	.data.w	.LDW_5ef45a0
00000272 00         2567 	.data.b	0
                    2568 
                    2569 .LDW_6017390:
00000273 14         2570 	.data.b	20
00000274 00000000*  2571 	.data.w	.LDW_5ef2328
00000278 00         2572 	.data.b	0

                                                                      Page 48
                                                              C:\Users\Fengyuan\AppData\Local\Temp\gh_0000fuk1.s
                    2573 
00000279 00         2574 	.data.b	0
                    2575 
                    2576 .LDW_5ef4178:
0000027a 47         2577 	.data.b	71
0000027b 01         2578 	.data.b	1
                    2579 
0000027c 00         2580 	.data.b	0
                    2581 
                    2582 .LDW_5ef4648:
0000027d 47         2583 	.data.b	71
0000027e 01         2584 	.data.b	1
                    2585 
0000027f 00         2586 	.data.b	0
                    2587 
                    2588 .LDW_5ef4220:
00000280 47         2589 	.data.b	71
00000281 01         2590 	.data.b	1
                    2591 
                    2592 .LDW_6017a20:
00000282 14         2593 	.data.b	20
00000283 00000000*  2594 	.data.w	.LDW_5ef4728
00000287 00         2595 	.data.b	0
                    2596 
00000288 00         2597 	.data.b	0
                    2598 
                    2599 .LDW_5ef4798:
00000289 46         2600 	.data.b	70
0000028a 00000000*  2601 	.data.w	.LDW_49f9738
0000028e 01         2602 	.data.b	1
                    2603 
                    2604 .LDW_60179f0:
0000028f 14         2605 	.data.b	20
00000290 00000000*  2606 	.data.w	.LDW_5ef2e80
00000294 00         2607 	.data.b	0
                    2608 
00000295 00         2609 	.data.b	0
                    2610 
                    2611 .LDW_5ef44f8:
00000296 47         2612 	.data.b	71
00000297 01         2613 	.data.b	1
                    2614 
                    2615 .LDW_60178d0:
00000298 14         2616 	.data.b	20
00000299 00000000*  2617 	.data.w	.LDW_49f9598
0000029d 00         2618 	.data.b	0
                    2619 
0000029e 00         2620 	.data.b	0
                    2621 
                    2622 .LDW_5ef41b0:
0000029f 47         2623 	.data.b	71
000002a0 01         2624 	.data.b	1
                    2625 
                    2626 .LDW_6017930:
000002a1 14         2627 	.data.b	20
000002a2 00000000*  2628 	.data.w	.LDW_49f9598
000002a6 00         2629 	.data.b	0
                    2630 
000002a7 00         2631 	.data.b	0
                    2632 
                    2633 .LDW_5ef4300:

                                                                      Page 49
                                                              C:\Users\Fengyuan\AppData\Local\Temp\gh_0000fuk1.s
000002a8 47         2634 	.data.b	71
000002a9 01         2635 	.data.b	1
                    2636 
                    2637 .LDW_60179c0:
000002aa 14         2638 	.data.b	20
000002ab 00000000*  2639 	.data.w	.LDW_5e8ef58
000002af 00         2640 	.data.b	0
                    2641 
000002b0 00         2642 	.data.b	0
                    2643 
                    2644 .LDW_5ef4338:
000002b1 47         2645 	.data.b	71
000002b2 01         2646 	.data.b	1
                    2647 
                    2648 .LDW_6020bd8:
000002b3 14         2649 	.data.b	20
000002b4 00000000*  2650 	.data.w	.LDW_5e8ef58
000002b8 00         2651 	.data.b	0
                    2652 
000002b9 00         2653 	.data.b	0
                    2654 
                    2655 .LDW_5ef43a8:
000002ba 47         2656 	.data.b	71
000002bb 01         2657 	.data.b	1
                    2658 
000002bc 00         2659 	.data.b	0
                    2660 
                    2661 .LDW_5ef4568:
000002bd 47         2662 	.data.b	71
000002be 01         2663 	.data.b	1
                    2664 
000002bf 00         2665 	.data.b	0
                    2666 
                    2667 .LDW_5ef43e0:
000002c0 47         2668 	.data.b	71
000002c1 01         2669 	.data.b	1
                    2670 
000002c2 00         2671 	.data.b	0
                    2672 
                    2673 .LDW_5ef45d8:
000002c3 47         2674 	.data.b	71
000002c4 01         2675 	.data.b	1
                    2676 
000002c5 00         2677 	.data.b	0
                    2678 
                    2679 .LDW_5ef4610:
000002c6 47         2680 	.data.b	71
000002c7 01         2681 	.data.b	1
                    2682 
000002c8 00         2683 	.data.b	0
                    2684 
                    2685 .LDW_5ef4808:
000002c9 47         2686 	.data.b	71
000002ca 01         2687 	.data.b	1
                    2688 
000002cb 00         2689 	.data.b	0
                    2690 
                    2691 .LDW_5ef47d0:
000002cc 47         2692 	.data.b	71
000002cd 01         2693 	.data.b	1
                    2694 

                                                                      Page 50
                                                              C:\Users\Fengyuan\AppData\Local\Temp\gh_0000fuk1.s
000002ce 00         2695 	.data.b	0
                    2696 
                    2697 .LDW_5ef4840:
000002cf 47         2698 	.data.b	71
000002d0 01         2699 	.data.b	1
                    2700 
000002d1 00         2701 	.data.b	0
                    2702 
                    2703 .LDW_6033458:
000002d2 47         2704 	.data.b	71
000002d3 01         2705 	.data.b	1
                    2706 
                    2707 .LDW_6020ab8:
000002d4 14         2708 	.data.b	20
000002d5 00000000*  2709 	.data.w	.LDW_5e8ef58
000002d9 00         2710 	.data.b	0
                    2711 
000002da 00         2712 	.data.b	0
                    2713 
                    2714 .LDW_6018658:
000002db 2b         2715 	.data.b	43
000002dc 00000000*  2716 	.data.w	.LDW_5e8ef58
                    2717 
                    2718 .LDW_60334c8:
000002e0 47         2719 	.data.b	71
000002e1 01         2720 	.data.b	1
                    2721 
                    2722 .LDW_6021028:
000002e2 14         2723 	.data.b	20
000002e3 00000000*  2724 	.data.w	.LDW_6018658
000002e7 00         2725 	.data.b	0
                    2726 
000002e8 00         2727 	.data.b	0
                    2728 
                    2729 .LDW_6033880:
000002e9 47         2730 	.data.b	71
000002ea 01         2731 	.data.b	1
                    2732 
                    2733 .LDW_6020b78:
000002eb 14         2734 	.data.b	20
000002ec 00000000*  2735 	.data.w	.LDW_6018658
000002f0 00         2736 	.data.b	0
                    2737 
000002f1 00         2738 	.data.b	0
                    2739 
                    2740 .LDW_6033928:
000002f2 47         2741 	.data.b	71
000002f3 01         2742 	.data.b	1
                    2743 
                    2744 .LDW_6020f38:
000002f4 14         2745 	.data.b	20
000002f5 00000000*  2746 	.data.w	.LDW_6018658
000002f9 00         2747 	.data.b	0
                    2748 
000002fa 00         2749 	.data.b	0
                    2750 
                    2751 .LDW_6033500:
000002fb 47         2752 	.data.b	71
000002fc 01         2753 	.data.b	1
                    2754 
                    2755 .LDW_6020c38:

                                                                      Page 51
                                                              C:\Users\Fengyuan\AppData\Local\Temp\gh_0000fuk1.s
000002fd 14         2756 	.data.b	20
000002fe 00000000*  2757 	.data.w	.LDW_5e8ef58
00000302 00         2758 	.data.b	0
                    2759 
00000303 00         2760 	.data.b	0
                    2761 
                    2762 .LDW_60186b0:
00000304 2c         2763 	.data.b	44
                    2764 
                    2765 	.section	.debug_abbrev
00000049 2c         2766 	.data.b	44
0000004a 26         2767 	.data.b	38
0000004b 00         2768 	.data.b	0
0000004c 0000       2769 	.data.b	0,0
                    2770 
                    2771 	.section	.debug_info
                    2772 .LDW_6033570:
00000305 31         2773 	.data.b	49
00000306 00000000*  2774 	.data.w	.LDW_60186b0
                    2775 
                    2776 .LDW_6033378:
0000030a 47         2777 	.data.b	71
0000030b 01         2778 	.data.b	1
                    2779 
                    2780 .LDW_6020cf8:
0000030c 14         2781 	.data.b	20
0000030d 00000000*  2782 	.data.w	.LDW_5ef2748
00000311 00         2783 	.data.b	0
                    2784 
                    2785 .LDW_6020d58:
00000312 14         2786 	.data.b	20
00000313 00000000*  2787 	.data.w	.LDW_6033570
00000317 00         2788 	.data.b	0
                    2789 
                    2790 .LDW_6020d88:
00000318 14         2791 	.data.b	20
00000319 00000000*  2792 	.data.w	.LDW_5ef2118
0000031d 00         2793 	.data.b	0
                    2794 
                    2795 .LDW_6020db8:
0000031e 14         2796 	.data.b	20
0000031f 00000000*  2797 	.data.w	.LDW_5e8ef58
00000323 00         2798 	.data.b	0
                    2799 
00000324 00         2800 	.data.b	0
                    2801 
                    2802 .LDW_60338b8:
00000325 46         2803 	.data.b	70
00000326 00000000*  2804 	.data.w	.LDW_5e8ef00
0000032a 01         2805 	.data.b	1
                    2806 
                    2807 .LDW_6020ea8:
0000032b 14         2808 	.data.b	20
0000032c 00000000*  2809 	.data.w	.LDW_5ef2748
00000330 00         2810 	.data.b	0
                    2811 
                    2812 .LDW_6020e48:
00000331 14         2813 	.data.b	20
00000332 00000000*  2814 	.data.w	.LDW_6033570
00000336 00         2815 	.data.b	0
                    2816 

                                                                      Page 52
                                                              C:\Users\Fengyuan\AppData\Local\Temp\gh_0000fuk1.s
                    2817 .LDW_6020e78:
00000337 14         2818 	.data.b	20
00000338 00000000*  2819 	.data.w	.LDW_5ef2118
0000033c 00         2820 	.data.b	0
                    2821 
0000033d 00         2822 	.data.b	0
                    2823 
                    2824 .LDW_6043fb0:
0000033e 2b         2825 	.data.b	43
0000033f 00000000*  2826 	.data.w	.LDW_6043f58
                    2827 
                    2828 .LDW_60337d8:
00000343 31         2829 	.data.b	49
00000344 00000000*  2830 	.data.w	.LDW_6043fb0
                    2831 
                    2832 .LDW_6033768:
00000348 47         2833 	.data.b	71
00000349 01         2834 	.data.b	1
                    2835 
                    2836 .LDW_6020f98:
0000034a 14         2837 	.data.b	20
0000034b 00000000*  2838 	.data.w	.LDW_60337d8
0000034f 00         2839 	.data.b	0
                    2840 
00000350 00         2841 	.data.b	0
                    2842 
                    2843 .LDW_6033618:
00000351 47         2844 	.data.b	71
00000352 01         2845 	.data.b	1
                    2846 
00000353 00         2847 	.data.b	0
                    2848 
                    2849 .LDW_60335a8:
00000354 47         2850 	.data.b	71
00000355 01         2851 	.data.b	1
                    2852 
00000356 00         2853 	.data.b	0
                    2854 
                    2855 .LDW_60335e0:
00000357 27         2856 	.data.b	39
00000358 00746e69   2857 	.data.b	105,110,116,0
0000035c 05         2858 	.data.b	5
0000035d 04         2859 	.data.b	4
                    2860 
                    2861 .LDW_5ef4fd8:
0000035e 3c         2862 	.data.b	60
0000035f 00         2863 	.data.b	0
00000360 01         2864 	.data.b	1
00000361 00000000*  2865 	.data.w	.LDW_5e8ef00
                    2866 
                    2867 	.section	.debug_abbrev
0000004e 3c         2868 	.data.b	60
0000004f 01         2869 	.data.b	1
00000050 01         2870 	.data.b	1
00000051 0b09       2871 	.data.b	9,11
00000053 0f0b       2872 	.data.b	11,15
00000055 1049       2873 	.data.b	73,16
00000057 0000       2874 	.data.b	0,0
                    2875 
                    2876 	.section	.debug_info
00000365 34         2877 	.data.b	52

                                                                      Page 53
                                                              C:\Users\Fengyuan\AppData\Local\Temp\gh_0000fuk1.s
00000366 00000000*  2878 	.data.w	.LDW_60335e0
0000036a 04         2879 	.data.b	4
0000036b 00         2880 	.data.b	0
0000036c 00         2881 	.data.b	0
                    2882 
                    2883 	.section	.debug_abbrev
00000059 34         2884 	.data.b	52
0000005a 21         2885 	.data.b	33
0000005b 00         2886 	.data.b	0
0000005c 1049       2887 	.data.b	73,16
0000005e 0f0b       2888 	.data.b	11,15
00000060 0d22       2889 	.data.b	34,13
00000062 0d2f       2890 	.data.b	47,13
00000064 0000       2891 	.data.b	0,0
                    2892 
                    2893 	.section	.debug_info
0000036d 00         2894 	.data.b	0
                    2895 
                    2896 .LDW_60338f0:
0000036e 47         2897 	.data.b	71
0000036f 01         2898 	.data.b	1
                    2899 
                    2900 .LDW_60211a8:
00000370 14         2901 	.data.b	20
00000371 00000000*  2902 	.data.w	.LDW_49cd610
00000375 00         2903 	.data.b	0
                    2904 
                    2905 .LDW_6021118:
00000376 14         2906 	.data.b	20
00000377 00000000*  2907 	.data.w	.LDW_49f9738
0000037b 00         2908 	.data.b	0
                    2909 
0000037c 00         2910 	.data.b	0
                    2911 
                    2912 .LDW_60337a0:
0000037d 47         2913 	.data.b	71
0000037e 01         2914 	.data.b	1
                    2915 
                    2916 .LDW_60210e8:
0000037f 14         2917 	.data.b	20
00000380 00000000*  2918 	.data.w	.LDW_49cd610
00000384 00         2919 	.data.b	0
                    2920 
00000385 00         2921 	.data.b	0
                    2922 
                    2923 .LDW_6033960:
00000386 47         2924 	.data.b	71
00000387 01         2925 	.data.b	1
                    2926 
                    2927 .LDW_6054c10:
00000388 14         2928 	.data.b	20
00000389 00000000*  2929 	.data.w	.LDW_6044168
0000038d 00         2930 	.data.b	0
                    2931 
                    2932 .LDW_6054c70:
0000038e 14         2933 	.data.b	20
0000038f 00000000*  2934 	.data.w	.LDW_49f9738
00000393 00         2935 	.data.b	0
                    2936 
00000394 00         2937 	.data.b	0
                    2938 

                                                                      Page 54
                                                              C:\Users\Fengyuan\AppData\Local\Temp\gh_0000fuk1.s
                    2939 .LDW_6033998:
00000395 47         2940 	.data.b	71
00000396 01         2941 	.data.b	1
                    2942 
                    2943 .LDW_6054ee0:
00000397 14         2944 	.data.b	20
00000398 00000000*  2945 	.data.w	.LDW_6044168
0000039c 00         2946 	.data.b	0
                    2947 
0000039d 00         2948 	.data.b	0
                    2949 
                    2950 .LDW_6033538:
0000039e 47         2951 	.data.b	71
0000039f 01         2952 	.data.b	1
                    2953 
                    2954 .LDW_6054d60:
000003a0 14         2955 	.data.b	20
000003a1 00000000*  2956 	.data.w	.LDW_6044168
000003a5 00         2957 	.data.b	0
                    2958 
000003a6 00         2959 	.data.b	0
                    2960 
                    2961 .LDW_6033650:
000003a7 47         2962 	.data.b	71
000003a8 01         2963 	.data.b	1
                    2964 
                    2965 .LDW_6054f70:
000003a9 14         2966 	.data.b	20
000003aa 00000000*  2967 	.data.w	.LDW_6044168
000003ae 00         2968 	.data.b	0
                    2969 
000003af 00         2970 	.data.b	0
                    2971 
                    2972 .LDW_60332d0:
000003b0 47         2973 	.data.b	71
000003b1 01         2974 	.data.b	1
                    2975 
000003b2 00         2976 	.data.b	0
                    2977 
                    2978 .LDW_6033848:
000003b3 47         2979 	.data.b	71
000003b4 01         2980 	.data.b	1
                    2981 
000003b5 00         2982 	.data.b	0
                    2983 
                    2984 .LDW_6033688:
000003b6 46         2985 	.data.b	70
000003b7 00000000*  2986 	.data.w	.LDW_5ef2b10
000003bb 01         2987 	.data.b	1
                    2988 
000003bc 00         2989 	.data.b	0
                    2990 
                    2991 .LDW_6033810:
000003bd 46         2992 	.data.b	70
000003be 00000000*  2993 	.data.w	.LDW_60445e0
000003c2 01         2994 	.data.b	1
                    2995 
000003c3 00         2996 	.data.b	0
                    2997 
                    2998 .LDW_6033308:
000003c4 47         2999 	.data.b	71

                                                                      Page 55
                                                              C:\Users\Fengyuan\AppData\Local\Temp\gh_0000fuk1.s
000003c5 01         3000 	.data.b	1
                    3001 
                    3002 .LDW_6054fd0:
000003c6 14         3003 	.data.b	20
000003c7 00000000*  3004 	.data.w	.LDW_5e8ef58
000003cb 00         3005 	.data.b	0
                    3006 
000003cc 00         3007 	.data.b	0
                    3008 
                    3009 .LDW_60336c0:
000003cd 47         3010 	.data.b	71
000003ce 01         3011 	.data.b	1
                    3012 
                    3013 .LDW_6054cd0:
000003cf 14         3014 	.data.b	20
000003d0 00000000*  3015 	.data.w	.LDW_49cd610
000003d4 00         3016 	.data.b	0
                    3017 
000003d5 00         3018 	.data.b	0
                    3019 
                    3020 .LDW_6033340:
000003d6 47         3021 	.data.b	71
000003d7 01         3022 	.data.b	1
                    3023 
                    3024 .LDW_6055090:
000003d8 14         3025 	.data.b	20
000003d9 00000000*  3026 	.data.w	.LDW_49cd610
000003dd 00         3027 	.data.b	0
                    3028 
                    3029 .LDW_6054b50:
000003de 14         3030 	.data.b	20
000003df 00000000*  3031 	.data.w	.LDW_6044168
000003e3 00         3032 	.data.b	0
                    3033 
                    3034 .LDW_6055030:
000003e4 14         3035 	.data.b	20
000003e5 00000000*  3036 	.data.w	.LDW_49f9738
000003e9 00         3037 	.data.b	0
                    3038 
000003ea 00         3039 	.data.b	0
                    3040 
                    3041 .LDW_60336f8:
000003eb 47         3042 	.data.b	71
000003ec 01         3043 	.data.b	1
                    3044 
                    3045 .LDW_60550c0:
000003ed 14         3046 	.data.b	20
000003ee 00000000*  3047 	.data.w	.LDW_5e8ef58
000003f2 00         3048 	.data.b	0
                    3049 
                    3050 .LDW_6054af0:
000003f3 14         3051 	.data.b	20
000003f4 00000000*  3052 	.data.w	.LDW_5ef45a0
000003f8 00         3053 	.data.b	0
                    3054 
000003f9 00         3055 	.data.b	0
                    3056 
                    3057 .LDW_60333b0:
000003fa 46         3058 	.data.b	70
000003fb 00000000*  3059 	.data.w	.LDW_5e8ef00
000003ff 01         3060 	.data.b	1

                                                                      Page 56
                                                              C:\Users\Fengyuan\AppData\Local\Temp\gh_0000fuk1.s
                    3061 
                    3062 .LDW_6054bb0:
00000400 14         3063 	.data.b	20
00000401 00000000*  3064 	.data.w	.LDW_5ef2748
00000405 00         3065 	.data.b	0
                    3066 
                    3067 .LDW_6054c40:
00000406 14         3068 	.data.b	20
00000407 00000000*  3069 	.data.w	.LDW_5ef4370
0000040b 00         3070 	.data.b	0
                    3071 
0000040c 00         3072 	.data.b	0
                    3073 
                    3074 .LDW_60333e8:
0000040d 46         3075 	.data.b	70
0000040e 00000000*  3076 	.data.w	.LDW_5e8ef00
00000412 01         3077 	.data.b	1
                    3078 
                    3079 .LDW_6054ca0:
00000413 14         3080 	.data.b	20
00000414 00000000*  3081 	.data.w	.LDW_6056230
00000418 00         3082 	.data.b	0
                    3083 
00000419 00         3084 	.data.b	0
                    3085 
                    3086 .LDW_6033420:
0000041a 46         3087 	.data.b	70
0000041b 00000000*  3088 	.data.w	.LDW_5e8ef00
0000041f 01         3089 	.data.b	1
                    3090 
                    3091 .LDW_6054d90:
00000420 14         3092 	.data.b	20
00000421 00000000*  3093 	.data.w	.LDW_5ef2748
00000425 00         3094 	.data.b	0
                    3095 
00000426 00         3096 	.data.b	0
                    3097 
                    3098 .LDW_6033490:
00000427 46         3099 	.data.b	70
00000428 00000000*  3100 	.data.w	.LDW_5e8ef00
0000042c 01         3101 	.data.b	1
                    3102 
                    3103 .LDW_6055270:
0000042d 14         3104 	.data.b	20
0000042e 00000000*  3105 	.data.w	.LDW_6056230
00000432 00         3106 	.data.b	0
                    3107 
00000433 00         3108 	.data.b	0
                    3109 
                    3110 .LDW_6033730:
00000434 47         3111 	.data.b	71
00000435 01         3112 	.data.b	1
                    3113 
                    3114 .LDW_6055390:
00000436 14         3115 	.data.b	20
00000437 00000000*  3116 	.data.w	.LDW_5e8ef58
0000043b 00         3117 	.data.b	0
                    3118 
0000043c 00         3119 	.data.b	0
                    3120 
                    3121 .LDW_60339d0:

                                                                      Page 57
                                                              C:\Users\Fengyuan\AppData\Local\Temp\gh_0000fuk1.s
0000043d 46         3122 	.data.b	70
0000043e 00000000*  3123 	.data.w	.LDW_6055fc8
00000442 01         3124 	.data.b	1
                    3125 
                    3126 .LDW_60553c0:
00000443 14         3127 	.data.b	20
00000444 00000000*  3128 	.data.w	.LDW_5e8ef58
00000448 00         3129 	.data.b	0
                    3130 
00000449 00         3131 	.data.b	0
                    3132 
                    3133 .LDW_6033a40:
0000044a 47         3134 	.data.b	71
0000044b 01         3135 	.data.b	1
                    3136 
                    3137 .LDW_60551e0:
0000044c 14         3138 	.data.b	20
0000044d 00000000*  3139 	.data.w	.LDW_5e8ef58
00000451 00         3140 	.data.b	0
                    3141 
                    3142 .LDW_60554e0:
00000452 14         3143 	.data.b	20
00000453 00000000*  3144 	.data.w	.LDW_49f9738
00000457 00         3145 	.data.b	0
                    3146 
00000458 00         3147 	.data.b	0
                    3148 
                    3149 .LDW_6033a08:
00000459 46         3150 	.data.b	70
0000045a 00000000*  3151 	.data.w	.LDW_5e8ef00
0000045e 01         3152 	.data.b	1
                    3153 
                    3154 .LDW_6055450:
0000045f 14         3155 	.data.b	20
00000460 00000000*  3156 	.data.w	.LDW_5ef2748
00000464 00         3157 	.data.b	0
                    3158 
                    3159 .LDW_60552d0:
00000465 14         3160 	.data.b	20
00000466 00000000*  3161 	.data.w	.LDW_6033570
0000046a 00         3162 	.data.b	0
                    3163 
0000046b 00         3164 	.data.b	0
                    3165 
                    3166 .LDW_6077130:
0000046c 46         3167 	.data.b	70
0000046d 00000000*  3168 	.data.w	.LDW_5e8ef00
00000471 01         3169 	.data.b	1
                    3170 
                    3171 .LDW_6055300:
00000472 14         3172 	.data.b	20
00000473 00000000*  3173 	.data.w	.LDW_6056230
00000477 00         3174 	.data.b	0
                    3175 
00000478 00         3176 	.data.b	0
                    3177 
                    3178 .LDW_6076db0:
00000479 31         3179 	.data.b	49
0000047a 00000000*  3180 	.data.w	.LDW_5ef2a60
                    3181 
                    3182 .LDW_607cc18:

                                                                      Page 58
                                                              C:\Users\Fengyuan\AppData\Local\Temp\gh_0000fuk1.s
0000047e 3c         3183 	.data.b	60
0000047f 00         3184 	.data.b	0
00000480 02         3185 	.data.b	2
00000481 00000000*  3186 	.data.w	.LDW_60782b0
                    3187 
00000485 34         3188 	.data.b	52
00000486 00000000*  3189 	.data.w	.LDW_60335e0
0000048a 04         3190 	.data.b	4
0000048b 00         3191 	.data.b	0
0000048c 00         3192 	.data.b	0
                    3193 
0000048d 00         3194 	.data.b	0
                    3195 
                    3196 .LDW_607cca0:
0000048e 3c         3197 	.data.b	60
0000048f 00         3198 	.data.b	0
00000490 01         3199 	.data.b	1
00000491 00000000*  3200 	.data.w	.LDW_6077cd8
                    3201 
00000495 34         3202 	.data.b	52
00000496 00000000*  3203 	.data.w	.LDW_60335e0
0000049a 04         3204 	.data.b	4
0000049b 00         3205 	.data.b	0
0000049c 00         3206 	.data.b	0
                    3207 
0000049d 00         3208 	.data.b	0
                    3209 
                    3210 .LDW_607c608:
0000049e 2b         3211 	.data.b	43
0000049f 00000000*  3212 	.data.w	.LDW_60780f8
                    3213 
                    3214 .LDW_6076f70:
000004a3 31         3215 	.data.b	49
000004a4 00000000*  3216 	.data.w	.LDW_607c608
                    3217 
                    3218 .LDW_6077018:
000004a8 31         3219 	.data.b	49
000004a9 00000000*  3220 	.data.w	.LDW_6078150
                    3221 
                    3222 .LDW_6077050:
000004ad 31         3223 	.data.b	49
000004ae 00000000*  3224 	.data.w	.LDW_6077c80
                    3225 
                    3226 .LDW_6077088:
000004b2 31         3227 	.data.b	49
000004b3 00000000*  3228 	.data.w	.LDW_60784c0
                    3229 
                    3230 .LDW_6077210:
000004b7 31         3231 	.data.b	49
000004b8 00000000*  3232 	.data.w	.LDW_60782b0
                    3233 
                    3234 .LDW_607ac40:
000004bc 2b         3235 	.data.b	43
000004bd 00000000*  3236 	.data.w	.LDW_607a370
                    3237 
                    3238 .LDW_607e310:
000004c1 31         3239 	.data.b	49
000004c2 00000000*  3240 	.data.w	.LDW_607ac40
                    3241 
                    3242 .LDW_607e000:
000004c6 31         3243 	.data.b	49

                                                                      Page 59
                                                              C:\Users\Fengyuan\AppData\Local\Temp\gh_0000fuk1.s
000004c7 00000000*  3244 	.data.w	.LDW_6077cd8
                    3245 
                    3246 .LDW_607e1c0:
000004cb 31         3247 	.data.b	49
000004cc 00000000*  3248 	.data.w	.LDW_60789e8
                    3249 
                    3250 .LDW_607b320:
000004d0 2b         3251 	.data.b	43
000004d1 00000000*  3252 	.data.w	.LDW_607a000
                    3253 
                    3254 .LDW_607de08:
000004d5 31         3255 	.data.b	49
000004d6 00000000*  3256 	.data.w	.LDW_607b320
                    3257 
                    3258 .LDW_607dd98:
000004da 31         3259 	.data.b	49
000004db 00000000*  3260 	.data.w	.LDW_6079368
                    3261 
                    3262 .LDW_607ad48:
000004df 2b         3263 	.data.b	43
000004e0 00000000*  3264 	.data.w	.LDW_607a0b0
                    3265 
                    3266 .LDW_607deb0:
000004e4 31         3267 	.data.b	49
000004e5 00000000*  3268 	.data.w	.LDW_607ad48
                    3269 
                    3270 .LDW_607dee8:
000004e9 31         3271 	.data.b	49
000004ea 00000000*  3272 	.data.w	.LDW_6079838
                    3273 
                    3274 .LDW_607e348:
000004ee 31         3275 	.data.b	49
000004ef 00000000*  3276 	.data.w	.LDW_60797e0
                    3277 
                    3278 .LDW_607b428:
000004f3 2b         3279 	.data.b	43
000004f4 00000000*  3280 	.data.w	.LDW_607a1b8
                    3281 
                    3282 .LDW_607e188:
000004f8 31         3283 	.data.b	49
000004f9 00000000*  3284 	.data.w	.LDW_607b428
                    3285 
                    3286 .LDW_607b1c0:
000004fd 2b         3287 	.data.b	43
000004fe 00000000*  3288 	.data.w	.LDW_607a478
                    3289 
                    3290 .LDW_607e230:
00000502 31         3291 	.data.b	49
00000503 00000000*  3292 	.data.w	.LDW_607b1c0
                    3293 
                    3294 .LDW_607b218:
00000507 2b         3295 	.data.b	43
00000508 00000000*  3296 	.data.w	.LDW_607c4a8
                    3297 
                    3298 .LDW_607dfc8:
0000050c 31         3299 	.data.b	49
0000050d 00000000*  3300 	.data.w	.LDW_607b218
                    3301 
                    3302 .LDW_607e038:
00000511 31         3303 	.data.b	49
00000512 00000000*  3304 	.data.w	.LDW_607aaa8

                                                                      Page 60
                                                              C:\Users\Fengyuan\AppData\Local\Temp\gh_0000fuk1.s
                    3305 
                    3306 .LDW_607b9a8:
00000516 2b         3307 	.data.b	43
00000517 00000000*  3308 	.data.w	.LDW_607c920
                    3309 
                    3310 .LDW_607df20:
0000051b 31         3311 	.data.b	49
0000051c 00000000*  3312 	.data.w	.LDW_607b9a8
                    3313 
                    3314 .LDW_607c0e0:
00000520 2b         3315 	.data.b	43
00000521 00000000*  3316 	.data.w	.LDW_607c348
                    3317 
                    3318 .LDW_607ddd0:
00000525 31         3319 	.data.b	49
00000526 00000000*  3320 	.data.w	.LDW_607c0e0
                    3321 
                    3322 .LDW_607b8a0:
0000052a 2b         3323 	.data.b	43
0000052b 00000000*  3324 	.data.w	.LDW_607a528
                    3325 
                    3326 .LDW_607e0e0:
0000052f 31         3327 	.data.b	49
00000530 00000000*  3328 	.data.w	.LDW_607b8a0
                    3329 
                    3330 .LDW_607e3f0:
00000534 31         3331 	.data.b	49
00000535 00000000*  3332 	.data.w	.LDW_607a580
                    3333 
                    3334 .LDW_607c138:
00000539 2b         3335 	.data.b	43
0000053a 00000000*  3336 	.data.w	.LDW_607c298
                    3337 
                    3338 .LDW_607dd60:
0000053e 31         3339 	.data.b	49
0000053f 00000000*  3340 	.data.w	.LDW_607c138
                    3341 
                    3342 .LDW_607e2a0:
00000543 27         3343 	.data.b	39
00000544 69736e75   3344 	.data.b	117,110,115,105,103,110,101,100,32,105,110,116,0
00000548 64656e67 
0000054c 746e6920 
00000550 00 
00000551 07         3345 	.data.b	7
00000552 04         3346 	.data.b	4
                    3347 
                    3348 .LDW_6081d48:
00000553 31         3349 	.data.b	49
00000554 00000000*  3350 	.data.w	.LDW_5ef2b10
                    3351 
                    3352 .LDW_6087f98:
00000558 3c         3353 	.data.b	60
00000559 00         3354 	.data.b	0
0000055a 01         3355 	.data.b	1
0000055b 00000000*  3356 	.data.w	.LDW_607c608
                    3357 
0000055f 34         3358 	.data.b	52
00000560 00000000*  3359 	.data.w	.LDW_60335e0
00000564 04         3360 	.data.b	4
00000565 00         3361 	.data.b	0
00000566 00         3362 	.data.b	0

                                                                      Page 61
                                                              C:\Users\Fengyuan\AppData\Local\Temp\gh_0000fuk1.s
                    3363 
00000567 00         3364 	.data.b	0
                    3365 
                    3366 .LDW_6088020:
00000568 3c         3367 	.data.b	60
00000569 00         3368 	.data.b	0
0000056a 09         3369 	.data.b	9
0000056b 00000000*  3370 	.data.w	.LDW_607ac40
                    3371 
0000056f 34         3372 	.data.b	52
00000570 00000000*  3373 	.data.w	.LDW_60335e0
00000574 04         3374 	.data.b	4
00000575 00         3375 	.data.b	0
00000576 02         3376 	.data.b	2
                    3377 
00000577 00         3378 	.data.b	0
                    3379 
                    3380 .LDW_6088bf8:
00000578 3c         3381 	.data.b	60
00000579 00         3382 	.data.b	0
0000057a 01         3383 	.data.b	1
0000057b 00000000*  3384 	.data.w	.LDW_607b320
                    3385 
0000057f 34         3386 	.data.b	52
00000580 00000000*  3387 	.data.w	.LDW_60335e0
00000584 04         3388 	.data.b	4
00000585 00         3389 	.data.b	0
00000586 00         3390 	.data.b	0
                    3391 
00000587 00         3392 	.data.b	0
                    3393 
                    3394 .LDW_6088ae8:
00000588 3c         3395 	.data.b	60
00000589 00         3396 	.data.b	0
0000058a 03         3397 	.data.b	3
0000058b 00000000*  3398 	.data.w	.LDW_607ad48
                    3399 
0000058f 34         3400 	.data.b	52
00000590 00000000*  3401 	.data.w	.LDW_60335e0
00000594 04         3402 	.data.b	4
00000595 00         3403 	.data.b	0
00000596 02         3404 	.data.b	2
                    3405 
00000597 00         3406 	.data.b	0
                    3407 
                    3408 .LDW_6088d08:
00000598 3c         3409 	.data.b	60
00000599 00         3410 	.data.b	0
0000059a 01         3411 	.data.b	1
0000059b 00000000*  3412 	.data.w	.LDW_607b428
                    3413 
0000059f 34         3414 	.data.b	52
000005a0 00000000*  3415 	.data.w	.LDW_60335e0
000005a4 04         3416 	.data.b	4
000005a5 00         3417 	.data.b	0
000005a6 00         3418 	.data.b	0
                    3419 
000005a7 00         3420 	.data.b	0
                    3421 
                    3422 .LDW_6088f28:
000005a8 3c         3423 	.data.b	60

                                                                      Page 62
                                                              C:\Users\Fengyuan\AppData\Local\Temp\gh_0000fuk1.s
000005a9 00         3424 	.data.b	0
000005aa 04         3425 	.data.b	4
000005ab 00000000*  3426 	.data.w	.LDW_607b1c0
                    3427 
000005af 34         3428 	.data.b	52
000005b0 00000000*  3429 	.data.w	.LDW_60335e0
000005b4 04         3430 	.data.b	4
000005b5 00         3431 	.data.b	0
000005b6 01         3432 	.data.b	1
                    3433 
000005b7 00         3434 	.data.b	0
                    3435 
                    3436 .LDW_6088268:
000005b8 3c         3437 	.data.b	60
000005b9 00         3438 	.data.b	0
000005ba 01         3439 	.data.b	1
000005bb 00000000*  3440 	.data.w	.LDW_607b218
                    3441 
000005bf 34         3442 	.data.b	52
000005c0 00000000*  3443 	.data.w	.LDW_60335e0
000005c4 04         3444 	.data.b	4
000005c5 00         3445 	.data.b	0
000005c6 00         3446 	.data.b	0
                    3447 
000005c7 00         3448 	.data.b	0
                    3449 
                    3450 .LDW_6088b70:
000005c8 3c         3451 	.data.b	60
000005c9 00         3452 	.data.b	0
000005ca 02         3453 	.data.b	2
000005cb 00000000*  3454 	.data.w	.LDW_607b9a8
                    3455 
000005cf 34         3456 	.data.b	52
000005d0 00000000*  3457 	.data.w	.LDW_60335e0
000005d4 04         3458 	.data.b	4
000005d5 00         3459 	.data.b	0
000005d6 01         3460 	.data.b	1
                    3461 
000005d7 00         3462 	.data.b	0
                    3463 
                    3464 .LDW_6088e18:
000005d8 3c         3465 	.data.b	60
000005d9 00         3466 	.data.b	0
000005da 08         3467 	.data.b	8
000005db 00000000*  3468 	.data.w	.LDW_607c0e0
                    3469 
000005df 34         3470 	.data.b	52
000005e0 00000000*  3471 	.data.w	.LDW_60335e0
000005e4 04         3472 	.data.b	4
000005e5 00         3473 	.data.b	0
000005e6 01         3474 	.data.b	1
                    3475 
000005e7 00         3476 	.data.b	0
                    3477 
                    3478 .LDW_6088840:
000005e8 3c         3479 	.data.b	60
000005e9 00         3480 	.data.b	0
000005ea 09         3481 	.data.b	9
000005eb 00000000*  3482 	.data.w	.LDW_607b8a0
                    3483 
000005ef 34         3484 	.data.b	52

                                                                      Page 63
                                                              C:\Users\Fengyuan\AppData\Local\Temp\gh_0000fuk1.s
000005f0 00000000*  3485 	.data.w	.LDW_60335e0
000005f4 04         3486 	.data.b	4
000005f5 00         3487 	.data.b	0
000005f6 08         3488 	.data.b	8
                    3489 
000005f7 00         3490 	.data.b	0
                    3491 
                    3492 .LDW_6088d90:
000005f8 3c         3493 	.data.b	60
000005f9 00         3494 	.data.b	0
000005fa 0a         3495 	.data.b	10
000005fb 00000000*  3496 	.data.w	.LDW_607c138
                    3497 
000005ff 34         3498 	.data.b	52
00000600 00000000*  3499 	.data.w	.LDW_60335e0
00000604 04         3500 	.data.b	4
00000605 00         3501 	.data.b	0
00000606 01         3502 	.data.b	1
                    3503 
00000607 00         3504 	.data.b	0
                    3505 
                    3506 .LDW_6088730:
00000608 3c         3507 	.data.b	60
00000609 00         3508 	.data.b	0
0000060a 02         3509 	.data.b	2
0000060b 00000000*  3510 	.data.w	.LDW_6078150
                    3511 
0000060f 34         3512 	.data.b	52
00000610 00000000*  3513 	.data.w	.LDW_60335e0
00000614 04         3514 	.data.b	4
00000615 00         3515 	.data.b	0
00000616 01         3516 	.data.b	1
                    3517 
00000617 00         3518 	.data.b	0
                    3519 
                    3520 .LDW_6088620:
00000618 3c         3521 	.data.b	60
00000619 00         3522 	.data.b	0
0000061a 02         3523 	.data.b	2
0000061b 00000000*  3524 	.data.w	.LDW_6077c80
                    3525 
0000061f 34         3526 	.data.b	52
00000620 00000000*  3527 	.data.w	.LDW_60335e0
00000624 04         3528 	.data.b	4
00000625 00         3529 	.data.b	0
00000626 01         3530 	.data.b	1
                    3531 
00000627 00         3532 	.data.b	0
                    3533 
                    3534 .LDW_60882f0:
00000628 3c         3535 	.data.b	60
00000629 00         3536 	.data.b	0
0000062a 02         3537 	.data.b	2
0000062b 00000000*  3538 	.data.w	.LDW_60784c0
                    3539 
0000062f 34         3540 	.data.b	52
00000630 00000000*  3541 	.data.w	.LDW_60335e0
00000634 04         3542 	.data.b	4
00000635 00         3543 	.data.b	0
00000636 01         3544 	.data.b	1
                    3545 

                                                                      Page 64
                                                              C:\Users\Fengyuan\AppData\Local\Temp\gh_0000fuk1.s
00000637 00         3546 	.data.b	0
                    3547 
                    3548 .LDW_6088400:
00000638 3c         3549 	.data.b	60
00000639 00         3550 	.data.b	0
0000063a 01         3551 	.data.b	1
0000063b 00000000*  3552 	.data.w	.LDW_60789e8
                    3553 
0000063f 34         3554 	.data.b	52
00000640 00000000*  3555 	.data.w	.LDW_60335e0
00000644 04         3556 	.data.b	4
00000645 00         3557 	.data.b	0
00000646 00         3558 	.data.b	0
                    3559 
00000647 00         3560 	.data.b	0
                    3561 
                    3562 .LDW_6088488:
00000648 3c         3563 	.data.b	60
00000649 00         3564 	.data.b	0
0000064a 03         3565 	.data.b	3
0000064b 00000000*  3566 	.data.w	.LDW_6079368
                    3567 
0000064f 34         3568 	.data.b	52
00000650 00000000*  3569 	.data.w	.LDW_60335e0
00000654 04         3570 	.data.b	4
00000655 00         3571 	.data.b	0
00000656 02         3572 	.data.b	2
                    3573 
00000657 00         3574 	.data.b	0
                    3575 
                    3576 .LDW_6088fb0:
00000658 3c         3577 	.data.b	60
00000659 00         3578 	.data.b	0
0000065a 02         3579 	.data.b	2
0000065b 00000000*  3580 	.data.w	.LDW_6079838
                    3581 
0000065f 34         3582 	.data.b	52
00000660 00000000*  3583 	.data.w	.LDW_60335e0
00000664 04         3584 	.data.b	4
00000665 00         3585 	.data.b	0
00000666 01         3586 	.data.b	1
                    3587 
00000667 00         3588 	.data.b	0
                    3589 
                    3590 .LDW_60880d0:
00000668 3c         3591 	.data.b	60
00000669 00         3592 	.data.b	0
0000066a 09         3593 	.data.b	9
0000066b 00000000*  3594 	.data.w	.LDW_60797e0
                    3595 
0000066f 34         3596 	.data.b	52
00000670 00000000*  3597 	.data.w	.LDW_60335e0
00000674 04         3598 	.data.b	4
00000675 00         3599 	.data.b	0
00000676 08         3600 	.data.b	8
                    3601 
00000677 00         3602 	.data.b	0
                    3603 
                    3604 .LDW_60887b8:
00000678 3c         3605 	.data.b	60
00000679 00         3606 	.data.b	0

                                                                      Page 65
                                                              C:\Users\Fengyuan\AppData\Local\Temp\gh_0000fuk1.s
0000067a 02         3607 	.data.b	2
0000067b 00000000*  3608 	.data.w	.LDW_607aaa8
                    3609 
0000067f 34         3610 	.data.b	52
00000680 00000000*  3611 	.data.w	.LDW_60335e0
00000684 04         3612 	.data.b	4
00000685 00         3613 	.data.b	0
00000686 01         3614 	.data.b	1
                    3615 
00000687 00         3616 	.data.b	0
                    3617 
                    3618 .LDW_6088598:
00000688 3c         3619 	.data.b	60
00000689 00         3620 	.data.b	0
0000068a 04         3621 	.data.b	4
0000068b 00000000*  3622 	.data.w	.LDW_607a580
                    3623 
0000068f 34         3624 	.data.b	52
00000690 00000000*  3625 	.data.w	.LDW_60335e0
00000694 04         3626 	.data.b	4
00000695 00         3627 	.data.b	0
00000696 01         3628 	.data.b	1
                    3629 
00000697 00         3630 	.data.b	0
                    3631 
                    3632 .LDW_6081e60:
00000698 46         3633 	.data.b	70
00000699 00000000*  3634 	.data.w	.LDW_6055fc8
0000069d 01         3635 	.data.b	1
                    3636 
                    3637 .LDW_60552a0:
0000069e 14         3638 	.data.b	20
0000069f 00000000*  3639 	.data.w	.LDW_5ef2118
000006a3 00         3640 	.data.b	0
                    3641 
                    3642 .LDW_60555a0:
000006a4 14         3643 	.data.b	20
000006a5 00000000*  3644 	.data.w	.LDW_5e8ef00
000006a9 00         3645 	.data.b	0
                    3646 
                    3647 .LDW_60553f0:
000006aa 14         3648 	.data.b	20
000006ab 00000000*  3649 	.data.w	.LDW_5e8ef00
000006af 00         3650 	.data.b	0
                    3651 
                    3652 .LDW_60555d0:
000006b0 14         3653 	.data.b	20
000006b1 00000000*  3654 	.data.w	.LDW_5e8ef00
000006b5 00         3655 	.data.b	0
                    3656 
000006b6 00         3657 	.data.b	0
                    3658 
                    3659 .LDW_6081878:
000006b7 47         3660 	.data.b	71
000006b8 01         3661 	.data.b	1
                    3662 
                    3663 .LDW_6055750:
000006b9 14         3664 	.data.b	20
000006ba 00000000*  3665 	.data.w	.LDW_5ef4370
000006be 00         3666 	.data.b	0
                    3667 

                                                                      Page 66
                                                              C:\Users\Fengyuan\AppData\Local\Temp\gh_0000fuk1.s
                    3668 .LDW_60556f0:
000006bf 14         3669 	.data.b	20
000006c0 00000000*  3670 	.data.w	.LDW_5e8ef00
000006c4 00         3671 	.data.b	0
                    3672 
                    3673 .LDW_60557b0:
000006c5 14         3674 	.data.b	20
000006c6 00000000*  3675 	.data.w	.LDW_607ba00
000006ca 00         3676 	.data.b	0
                    3677 
000006cb 00         3678 	.data.b	0
                    3679 
                    3680 .LDW_60818b0:
000006cc 47         3681 	.data.b	71
000006cd 01         3682 	.data.b	1
                    3683 
                    3684 .LDW_6055900:
000006ce 14         3685 	.data.b	20
000006cf 00000000*  3686 	.data.w	.LDW_5ef4370
000006d3 00         3687 	.data.b	0
                    3688 
                    3689 .LDW_60559f0:
000006d4 14         3690 	.data.b	20
000006d5 00000000*  3691 	.data.w	.LDW_6033570
000006d9 00         3692 	.data.b	0
                    3693 
                    3694 .LDW_6055960:
000006da 14         3695 	.data.b	20
000006db 00000000*  3696 	.data.w	.LDW_607ba00
000006df 00         3697 	.data.b	0
                    3698 
000006e0 00         3699 	.data.b	0
                    3700 
                    3701 .LDW_6081a70:
000006e1 46         3702 	.data.b	70
000006e2 00000000*  3703 	.data.w	.LDW_6055fc8
000006e6 01         3704 	.data.b	1
                    3705 
                    3706 .LDW_6055a50:
000006e7 14         3707 	.data.b	20
000006e8 00000000*  3708 	.data.w	.LDW_5e8ef58
000006ec 00         3709 	.data.b	0
                    3710 
                    3711 .LDW_6089fe0:
000006ed 14         3712 	.data.b	20
000006ee 00000000*  3713 	.data.w	.LDW_5ef45a0
000006f2 00         3714 	.data.b	0
                    3715 
000006f3 00         3716 	.data.b	0
                    3717 
                    3718 .LDW_608c7c8:
000006f4 47         3719 	.data.b	71
000006f5 01         3720 	.data.b	1
                    3721 
000006f6 00         3722 	.data.b	0
                    3723 
                    3724 .LDW_608c800:
000006f7 47         3725 	.data.b	71
000006f8 01         3726 	.data.b	1
                    3727 
000006f9 00         3728 	.data.b	0

                                                                      Page 67
                                                              C:\Users\Fengyuan\AppData\Local\Temp\gh_0000fuk1.s
                    3729 
                    3730 .LDW_49f9738:
000006fa 2a         3731 	.data.b	42
000006fb 6c6f6f62   3732 	.data.b	98,111,111,108,101,97,110,0
000006ff 006e6165 
00000703 7a         3733 	.data.b	122
00000704 1d         3734 	.data.b	29
00000705 07         3735 	.data.b	7
00000706 00000000*  3736 	.data.w	.LDW_49cd338
                    3737 
                    3738 	.section	.debug_abbrev
00000066 2a         3739 	.data.b	42
00000067 16         3740 	.data.b	22
00000068 00         3741 	.data.b	0
00000069 0803       3742 	.data.b	3,8
0000006b 0f3b       3743 	.data.b	59,15
0000006d 0f39       3744 	.data.b	57,15
0000006f 0f3a       3745 	.data.b	58,15
00000071 1049       3746 	.data.b	73,16
00000073 0000       3747 	.data.b	0,0
                    3748 
                    3749 	.section	.debug_info
                    3750 .LDW_5e8ef00:
0000070a 2a         3751 	.data.b	42
0000070b 746e6975   3752 	.data.b	117,105,110,116,56,0
0000070f 0038 
00000711 7d         3753 	.data.b	125
00000712 1d         3754 	.data.b	29
00000713 07         3755 	.data.b	7
00000714 00000000*  3756 	.data.w	.LDW_49cd338
                    3757 
                    3758 .LDW_5ef2118:
00000718 2a         3759 	.data.b	42
00000719 746e6975   3760 	.data.b	117,105,110,116,49,54,0
0000071d 003631 
00000720 7f         3761 	.data.b	127
00000721 1d         3762 	.data.b	29
00000722 07         3763 	.data.b	7
00000723 00000000*  3764 	.data.w	.LDW_49cd878
                    3765 
                    3766 .LDW_5ef2b10:
00000727 2a         3767 	.data.b	42
00000728 746e6975   3768 	.data.b	117,105,110,116,51,50,0
0000072c 003233 
0000072f 0181       3769 	.data.b	129,1
00000731 1d         3770 	.data.b	29
00000732 07         3771 	.data.b	7
00000733 00000000*  3772 	.data.w	.LDW_49cd450
                    3773 
                    3774 .LDW_5ef2380:
00000737 2a         3775 	.data.b	42
00000738 746e6975   3776 	.data.b	117,105,110,116,54,52,0
0000073c 003436 
0000073f 0184       3777 	.data.b	132,1
00000741 1d         3778 	.data.b	29
00000742 07         3779 	.data.b	7
00000743 00000000*  3780 	.data.w	.LDW_5ef4450
                    3781 
                    3782 .LDW_49f9540:
00000747 2a         3783 	.data.b	42
00000748 746e6975   3784 	.data.b	117,105,110,116,56,95,108,101,97,115,116,0

                                                                      Page 68
                                                              C:\Users\Fengyuan\AppData\Local\Temp\gh_0000fuk1.s
0000074c 656c5f38 
00000750 00747361 
00000754 0185       3785 	.data.b	133,1
00000756 1d         3786 	.data.b	29
00000757 07         3787 	.data.b	7
00000758 00000000*  3788 	.data.w	.LDW_49cd450
                    3789 
                    3790 .LDW_60565f8:
0000075c 2a         3791 	.data.b	42
0000075d 746e6975   3792 	.data.b	117,105,110,116,49,54,95,108,101,97,115,116,0
00000761 6c5f3631 
00000765 74736165 
00000769 00 
0000076a 0186       3793 	.data.b	134,1
0000076c 1d         3794 	.data.b	29
0000076d 07         3795 	.data.b	7
0000076e 00000000*  3796 	.data.w	.LDW_49cd450
                    3797 
                    3798 .LDW_5ef2850:
00000772 2a         3799 	.data.b	42
00000773 746e6975   3800 	.data.b	117,105,110,116,51,50,95,108,101,97,115,116,0
00000777 6c5f3233 
0000077b 74736165 
0000077f 00 
00000780 0187       3801 	.data.b	135,1
00000782 1d         3802 	.data.b	29
00000783 07         3803 	.data.b	7
00000784 00000000*  3804 	.data.w	.LDW_49cd450
                    3805 
                    3806 .LDW_6055fc8:
00000788 2a         3807 	.data.b	42
00000789 5f647453   3808 	.data.b	83,116,100,95,82,101,116,117,114,110,84,121,112,101,0
0000078d 75746552 
00000791 79546e72 
00000795 006570 
00000798 0184       3809 	.data.b	132,1
0000079a 0f         3810 	.data.b	15
0000079b 06         3811 	.data.b	6
0000079c 00000000*  3812 	.data.w	.LDW_5e8ef00
                    3813 
                    3814 .LDW_5e8ef58:
000007a0 2a         3815 	.data.b	42
000007a1 49756450   3816 	.data.b	80,100,117,73,100,84,121,112,101,0
000007a5 70795464 
000007a9 0065 
000007ab 33         3817 	.data.b	51
000007ac 0f         3818 	.data.b	15
000007ad 0e         3819 	.data.b	14
000007ae 00000000*  3820 	.data.w	.LDW_5e8ef00
                    3821 
                    3822 .LDW_6056808:
000007b2 2a         3823 	.data.b	42
000007b3 4c756450   3824 	.data.b	80,100,117,76,101,110,103,116,104,84,121,112,101,0
000007b7 74676e65 
000007bb 70795468 
000007bf 0065 
000007c1 35         3825 	.data.b	53
000007c2 10         3826 	.data.b	16
000007c3 0e         3827 	.data.b	14
000007c4 00000000*  3828 	.data.w	.LDW_5ef2118
                    3829 

                                                                      Page 69
                                                              C:\Users\Fengyuan\AppData\Local\Temp\gh_0000fuk1.s
                    3830 .LDW_6056968:
000007c8 2a         3831 	.data.b	42
000007c9 44756453   3832 	.data.b	83,100,117,68,97,116,97,80,116,114,84,121,112,101,0
000007cd 50617461 
000007d1 79547274 
000007d5 006570 
000007d8 01c2       3833 	.data.b	194,1
000007da 36         3834 	.data.b	54
000007db 05         3835 	.data.b	5
000007dc 00000000*  3836 	.data.w	.LDW_49cd610
                    3837 
                    3838 .LDW_5ef2220:
000007e0 43         3839 	.data.b	67
000007e1 01c4       3840 	.data.b	196,1
000007e3 01         3841 	.data.b	1
000007e4 05         3842 	.data.b	5
000007e5 08         3843 	.data.b	8
000007e6 01         3844 	.data.b	1
                    3845 
                    3846 	.section	.debug_abbrev
00000075 43         3847 	.data.b	67
00000076 13         3848 	.data.b	19
00000077 01         3849 	.data.b	1
00000078 0f3b       3850 	.data.b	59,15
0000007a 0f39       3851 	.data.b	57,15
0000007c 0f3a       3852 	.data.b	58,15
0000007e 0f0b       3853 	.data.b	11,15
00000080 0b32       3854 	.data.b	50,11
00000082 0000       3855 	.data.b	0,0
                    3856 
                    3857 	.section	.debug_info
                    3858 .LDW_5ea08a8:
000007e7 25         3859 	.data.b	37
000007e8 44756453   3860 	.data.b	83,100,117,68,97,116,97,80,116,114,0
000007ec 50617461 
000007f0 007274 
000007f3 01c5       3861 	.data.b	197,1
000007f5 12         3862 	.data.b	18
000007f6 05         3863 	.data.b	5
000007f7 00000000*  3864 	.data.w	.LDW_6056968
000007fb 2302       3865 	.data.b	2,35
000007fd 00         3866 	.data.b	0
000007fe 01         3867 	.data.b	1
                    3868 
                    3869 	.section	.debug_abbrev
00000084 25         3870 	.data.b	37
00000085 0d         3871 	.data.b	13
00000086 00         3872 	.data.b	0
00000087 0803       3873 	.data.b	3,8
00000089 0f3b       3874 	.data.b	59,15
0000008b 0f39       3875 	.data.b	57,15
0000008d 0f3a       3876 	.data.b	58,15
0000008f 1049       3877 	.data.b	73,16
00000091 0a38       3878 	.data.b	56,10
00000093 0b32       3879 	.data.b	50,11
00000095 0000       3880 	.data.b	0,0
                    3881 
                    3882 	.section	.debug_info
                    3883 .LDW_5ea07d0:
000007ff 25         3884 	.data.b	37
00000800 4c756453   3885 	.data.b	83,100,117,76,101,110,103,116,104,0

                                                                      Page 70
                                                              C:\Users\Fengyuan\AppData\Local\Temp\gh_0000fuk1.s
00000804 74676e65 
00000808 0068 
0000080a 01c6       3886 	.data.b	198,1
0000080c 11         3887 	.data.b	17
0000080d 05         3888 	.data.b	5
0000080e 00000000*  3889 	.data.w	.LDW_6056808
00000812 2302       3890 	.data.b	2,35
00000814 04         3891 	.data.b	4
00000815 01         3892 	.data.b	1
                    3893 
00000816 00         3894 	.data.b	0
                    3895 
                    3896 .LDW_5ef2a60:
00000817 2a         3897 	.data.b	42
00000818 49756450   3898 	.data.b	80,100,117,73,110,102,111,84,121,112,101,0
0000081c 546f666e 
00000820 00657079 
00000824 01c7       3899 	.data.b	199,1
00000826 03         3900 	.data.b	3
00000827 05         3901 	.data.b	5
00000828 00000000*  3902 	.data.w	.LDW_5ef2220
                    3903 
                    3904 .LDW_5ef2748:
0000082c 2a         3905 	.data.b	42
0000082d 5f6d6f43   3906 	.data.b	67,111,109,95,83,105,103,110,97,108,73,100,84,121,112,101,0
00000831 6e676953 
00000835 64496c61 
00000839 65707954 
0000083d 00 
0000083e 43         3907 	.data.b	67
0000083f 10         3908 	.data.b	16
00000840 04         3909 	.data.b	4
00000841 00000000*  3910 	.data.w	.LDW_5ef2118
                    3911 
                    3912 .LDW_6056230:
00000845 2a         3913 	.data.b	42
00000846 5f6d6f43   3914 	.data.b	67,111,109,95,83,105,103,110,97,108,71,114,111,117,112,73,100,84,121,112,101,0
0000084a 6e676953 
0000084e 72476c61 
00000852 4970756f 
00000856 70795464 
0000085a 0065 
0000085c 46         3915 	.data.b	70
0000085d 10         3916 	.data.b	16
0000085e 04         3917 	.data.b	4
0000085f 00000000*  3918 	.data.w	.LDW_5ef2118
                    3919 
                    3920 .LDW_6044168:
00000863 2a         3921 	.data.b	42
00000864 5f6d6f43   3922 	.data.b	67,111,109,95,73,112,100,117,71,114,111,117,112,73,100,84,121,112,101,0
00000868 75647049 
0000086c 756f7247 
00000870 54644970 
00000874 00657079 
00000878 49         3923 	.data.b	73
00000879 10         3924 	.data.b	16
0000087a 04         3925 	.data.b	4
0000087b 00000000*  3926 	.data.w	.LDW_5ef2118
                    3927 
                    3928 .LDW_6044378:
0000087f 2a         3929 	.data.b	42

                                                                      Page 71
                                                              C:\Users\Fengyuan\AppData\Local\Temp\gh_0000fuk1.s
00000880 5f6d6f43   3930 	.data.b	67,111,109,95,73,112,100,117,71,114,111,117,112,86,101,99,116,111,114,0
00000884 75647049 
00000888 756f7247 
0000088c 63655670 
00000890 00726f74 
00000894 4b         3931 	.data.b	75
00000895 0f         3932 	.data.b	15
00000896 04         3933 	.data.b	4
00000897 00000000*  3934 	.data.w	.LDW_5ef4fd8
                    3935 
                    3936 .LDW_49f9ba8:
0000089b 2a         3937 	.data.b	42
0000089c 5f6d6f43   3938 	.data.b	67,111,109,95,65,99,116,105,118,97,116,97,98,108,101,82,120,67,111,109,73,80,100,117,115,73,116,101,114,84,121,112,101,0
000008a0 69746341 
000008a4 61746176 
000008a8 52656c62 
000008ac 6d6f4378 
000008b0 75645049 
000008b4 65744973 
000008b8 70795472 
000008bc 0065 
000008be 10d3       3939 	.data.b	211,16
000008c0 15         3940 	.data.b	21
000008c1 03         3941 	.data.b	3
000008c2 00000000*  3942 	.data.w	.LDW_49f9540
                    3943 
                    3944 .LDW_60440b8:
000008c6 2a         3945 	.data.b	42
000008c7 5f6d6f43   3946 	.data.b	67,111,109,95,65,99,116,105,118,97,116,97,98,108,101,84,120,67,111,109,73,80,100,117,115,73,116,101,114,84,121,112,101,0
000008cb 69746341 
000008cf 61746176 
000008d3 54656c62 
000008d7 6d6f4378 
000008db 75645049 
000008df 65744973 
000008e3 70795472 
000008e7 0065 
000008e9 10d6       3947 	.data.b	214,16
000008eb 15         3948 	.data.b	21
000008ec 03         3949 	.data.b	3
000008ed 00000000*  3950 	.data.w	.LDW_49f9540
                    3951 
                    3952 .LDW_5ef2328:
000008f1 2a         3953 	.data.b	42
000008f2 5f6d6f43   3954 	.data.b	67,111,109,95,82,120,65,99,99,101,115,115,73,110,102,111,73,116,101,114,84,121,112,101,0
000008f6 63417852 
000008fa 73736563 
000008fe 6f666e49 
00000902 72657449 
00000906 65707954 
0000090a 00 
0000090b 10e2       3955 	.data.b	226,16
0000090d 15         3956 	.data.b	21
0000090e 03         3957 	.data.b	3
0000090f 00000000*  3958 	.data.w	.LDW_49f9540
                    3959 
                    3960 .LDW_49f96e0:
00000913 2a         3961 	.data.b	42
00000914 5f6d6f43   3962 	.data.b	67,111,109,95,82,120,80,100,117,73,110,102,111,73,116,101,114,84,121,112,101,0
00000918 64507852 
0000091c 666e4975 

                                                                      Page 72
                                                              C:\Users\Fengyuan\AppData\Local\Temp\gh_0000fuk1.s
00000920 6574496f 
00000924 70795472 
00000928 0065 
0000092a 10ee       3963 	.data.b	238,16
0000092c 15         3964 	.data.b	21
0000092d 03         3965 	.data.b	3
0000092e 00000000*  3966 	.data.w	.LDW_49f9540
                    3967 
                    3968 .LDW_6017e18:
00000932 2a         3969 	.data.b	42
00000933 5f6d6f43   3970 	.data.b	67,111,109,95,82,120,83,105,103,73,110,102,111,73,116,101,114,84,121,112,101,0
00000937 69537852 
0000093b 666e4967 
0000093f 6574496f 
00000943 70795472 
00000947 0065 
00000949 10f4       3971 	.data.b	244,16
0000094b 15         3972 	.data.b	21
0000094c 03         3973 	.data.b	3
0000094d 00000000*  3974 	.data.w	.LDW_49f9540
                    3975 
                    3976 .LDW_49f9598:
00000951 2a         3977 	.data.b	42
00000952 5f6d6f43   3978 	.data.b	67,111,109,95,84,120,80,100,117,73,110,102,111,73,116,101,114,84,121,112,101,0
00000956 64507854 
0000095a 666e4975 
0000095e 6574496f 
00000962 70795472 
00000966 0065 
00000968 1186       3979 	.data.b	134,17
0000096a 15         3980 	.data.b	21
0000096b 03         3981 	.data.b	3
0000096c 00000000*  3982 	.data.w	.LDW_49f9540
                    3983 
                    3984 .LDW_6077f40:
00000970 2a         3985 	.data.b	42
00000971 5f6d6f43   3986 	.data.b	67,111,109,95,82,120,80,100,117,73,110,102,111,73,100,120,79,102,65,99,116,105,118,97,116,97,98,108,101,82,120,67,111,109,73,80,100,117,115,84,121,112,101,0
00000975 64507852 
00000979 666e4975 
0000097d 7864496f 
00000981 6341664f 
00000985 61766974 
00000989 6c626174 
0000098d 43785265 
00000991 50496d6f 
00000995 54737564 
00000999 00657079 
0000099d 11bf       3987 	.data.b	191,17
0000099f 0f         3988 	.data.b	15
000009a0 03         3989 	.data.b	3
000009a1 00000000*  3990 	.data.w	.LDW_5e8ef00
                    3991 
                    3992 .LDW_6078258:
000009a5 2a         3993 	.data.b	42
000009a6 5f6d6f43   3994 	.data.b	67,111,109,95,84,120,80,100,117,73,110,102,111,73,100,120,79,102,65,99,116,105,118,97,116,97,98,108,101,84,120,67,111,109,73,80,100,117,115,84,121,112,101,0
000009aa 64507854 
000009ae 666e4975 
000009b2 7864496f 
000009b6 6341664f 
000009ba 61766974 
000009be 6c626174 

                                                                      Page 73
                                                              C:\Users\Fengyuan\AppData\Local\Temp\gh_0000fuk1.s
000009c2 43785465 
000009c6 50496d6f 
000009ca 54737564 
000009ce 00657079 
000009d2 11c2       3995 	.data.b	194,17
000009d4 0f         3996 	.data.b	15
000009d5 03         3997 	.data.b	3
000009d6 00000000*  3998 	.data.w	.LDW_5e8ef00
                    3999 
                    4000 .LDW_60780f8:
000009da 2a         4001 	.data.b	42
000009db 5f6d6f43   4002 	.data.b	67,111,109,95,67,111,110,115,116,86,97,108,117,101,85,73,110,116,56,84,121,112,101,0
000009df 736e6f43 
000009e3 6c615674 
000009e7 49556575 
000009eb 5438746e 
000009ef 00657079 
000009f3 11c8       4003 	.data.b	200,17
000009f5 0f         4004 	.data.b	15
000009f6 03         4005 	.data.b	3
000009f7 00000000*  4006 	.data.w	.LDW_5e8ef00
                    4007 
                    4008 .LDW_6078150:
000009fb 2a         4009 	.data.b	42
000009fc 5f6d6f43   4010 	.data.b	67,111,109,95,67,117,114,114,101,110,116,84,120,77,111,100,101,84,121,112,101,0
00000a00 72727543 
00000a04 54746e65 
00000a08 646f4d78 
00000a0c 70795465 
00000a10 0065 
00000a12 11cb       4011 	.data.b	203,17
00000a14 11         4012 	.data.b	17
00000a15 03         4013 	.data.b	3
00000a16 00000000*  4014 	.data.w	.LDW_49f9738
                    4015 
                    4016 .LDW_6077c80:
00000a1a 2a         4017 	.data.b	42
00000a1b 5f6d6f43   4018 	.data.b	67,111,109,95,67,121,99,108,101,84,105,109,101,67,110,116,84,121,112,101,0
00000a1f 6c637943 
00000a23 6d695465 
00000a27 746e4365 
00000a2b 65707954 
00000a2f 00 
00000a30 11ce       4019 	.data.b	206,17
00000a32 0f         4020 	.data.b	15
00000a33 03         4021 	.data.b	3
00000a34 00000000*  4022 	.data.w	.LDW_5e8ef00
                    4023 
                    4024 .LDW_60784c0:
00000a38 2a         4025 	.data.b	42
00000a39 5f6d6f43   4026 	.data.b	67,111,109,95,67,121,99,108,105,99,83,101,110,100,82,101,113,117,101,115,116,84,121,112,101,0
00000a3d 6c637943 
00000a41 65536369 
00000a45 6552646e 
00000a49 73657571 
00000a4d 70795474 
00000a51 0065 
00000a53 11d1       4027 	.data.b	209,17
00000a55 11         4028 	.data.b	17
00000a56 03         4029 	.data.b	3
00000a57 00000000*  4030 	.data.w	.LDW_49f9738

                                                                      Page 74
                                                              C:\Users\Fengyuan\AppData\Local\Temp\gh_0000fuk1.s
                    4031 
                    4032 .LDW_60782b0:
00000a5b 2a         4033 	.data.b	42
00000a5c 5f6d6f43   4034 	.data.b	67,111,109,95,72,97,110,100,108,101,82,120,80,100,117,68,101,102,101,114,114,101,100,84,121,112,101,0
00000a60 646e6148 
00000a64 7852656c 
00000a68 44756450 
00000a6c 72656665 
00000a70 54646572 
00000a74 00657079 
00000a78 11da       4035 	.data.b	218,17
00000a7a 17         4036 	.data.b	23
00000a7b 03         4037 	.data.b	3
00000a7c 00000000*  4038 	.data.w	.LDW_6056808
                    4039 
                    4040 .LDW_60781a8:
00000a80 2a         4041 	.data.b	42
00000a81 5f6d6f43   4042 	.data.b	67,111,109,95,73,110,105,116,105,97,108,105,122,101,100,84,121,112,101,0
00000a85 74696e49 
00000a89 696c6169 
00000a8d 5464657a 
00000a91 00657079 
00000a95 11dd       4043 	.data.b	221,17
00000a97 11         4044 	.data.b	17
00000a98 03         4045 	.data.b	3
00000a99 00000000*  4046 	.data.w	.LDW_49f9738
                    4047 
                    4048 .LDW_6077e90:
00000a9d 2a         4049 	.data.b	42
00000a9e 5f6d6f43   4050 	.data.b	67,111,109,95,80,100,117,71,114,112,86,101,99,116,111,114,84,121,112,101,0
00000aa2 47756450 
00000aa6 65567072 
00000aaa 726f7463 
00000aae 65707954 
00000ab2 00 
00000ab3 11e3       4051 	.data.b	227,17
00000ab5 0f         4052 	.data.b	15
00000ab6 03         4053 	.data.b	3
00000ab7 00000000*  4054 	.data.w	.LDW_5e8ef00
                    4055 
                    4056 .LDW_6078468:
00000abb 2a         4057 	.data.b	42
00000abc 5f6d6f43   4058 	.data.b	67,111,109,95,66,105,116,76,101,110,103,116,104,79,102,82,120,65,99,99,101,115,115,73,110,102,111,84,121,112,101,0
00000ac0 4c746942 
00000ac4 74676e65 
00000ac8 52664f68 
00000acc 63634178 
00000ad0 49737365 
00000ad4 546f666e 
00000ad8 00657079 
00000adc 11ef       4059 	.data.b	239,17
00000ade 0f         4060 	.data.b	15
00000adf 03         4061 	.data.b	3
00000ae0 00000000*  4062 	.data.w	.LDW_5e8ef00
                    4063 
                    4064 .LDW_5ef2590:
00000ae4 2a         4065 	.data.b	42
00000ae5 5f6d6f43   4066 	.data.b	67,111,109,95,66,105,116,80,111,115,105,116,105,111,110,79,102,82,120,65,99,99,101,115,115,73,110,102,111,84,121,112,101,0
00000ae9 50746942 
00000aed 7469736f 
00000af1 4f6e6f69 

                                                                      Page 75
                                                              C:\Users\Fengyuan\AppData\Local\Temp\gh_0000fuk1.s
00000af5 41785266 
00000af9 73656363 
00000afd 666e4973 
00000b01 7079546f 
00000b05 0065 
00000b07 11f2       4067 	.data.b	242,17
00000b09 0f         4068 	.data.b	15
00000b0a 03         4069 	.data.b	3
00000b0b 00000000*  4070 	.data.w	.LDW_5e8ef00
                    4071 
                    4072 .LDW_6018028:
00000b0f 2a         4073 	.data.b	42
00000b10 5f6d6f43   4074 	.data.b	67,111,109,95,66,117,102,102,101,114,73,100,120,79,102,82,120,65,99,99,101,115,115,73,110,102,111,84,121,112,101,0
00000b14 66667542 
00000b18 64497265 
00000b1c 52664f78 
00000b20 63634178 
00000b24 49737365 
00000b28 546f666e 
00000b2c 00657079 
00000b30 11f5       4075 	.data.b	245,17
00000b32 0f         4076 	.data.b	15
00000b33 03         4077 	.data.b	3
00000b34 00000000*  4078 	.data.w	.LDW_5e8ef00
                    4079 
                    4080 .LDW_6077f98:
00000b38 2a         4081 	.data.b	42
00000b39 5f6d6f43   4082 	.data.b	67,111,109,95,66,117,115,65,99,99,79,102,82,120,65,99,99,101,115,115,73,110,102,111,84,121,112,101,0
00000b3d 41737542 
00000b41 664f6363 
00000b45 63417852 
00000b49 73736563 
00000b4d 6f666e49 
00000b51 65707954 
00000b55 00 
00000b56 11fb       4083 	.data.b	251,17
00000b58 0f         4084 	.data.b	15
00000b59 03         4085 	.data.b	3
00000b5a 00000000*  4086 	.data.w	.LDW_5e8ef00
                    4087 
                    4088 .LDW_6078570:
00000b5e 2a         4089 	.data.b	42
00000b5f 5f6d6f43   4090 	.data.b	67,111,109,95,73,110,105,116,86,97,108,117,101,85,115,101,100,79,102,82,120,65,99,99,101,115,115,73,110,102,111,84,121,112,101,0
00000b63 74696e49 
00000b67 756c6156 
00000b6b 65735565 
00000b6f 52664f64 
00000b73 63634178 
00000b77 49737365 
00000b7b 546f666e 
00000b7f 00657079 
00000b83 1287       4091 	.data.b	135,18
00000b85 11         4092 	.data.b	17
00000b86 03         4093 	.data.b	3
00000b87 00000000*  4094 	.data.w	.LDW_49f9738
                    4095 
                    4096 .LDW_6078678:
00000b8b 2a         4097 	.data.b	42
00000b8c 5f6d6f43   4098 	.data.b	67,111,109,95,82,120,65,99,99,101,115,115,73,110,102,111,73,110,100,84,121,112,101,0
00000b90 63417852 
00000b94 73736563 

                                                                      Page 76
                                                              C:\Users\Fengyuan\AppData\Local\Temp\gh_0000fuk1.s
00000b98 6f666e49 
00000b9c 54646e49 
00000ba0 00657079 
00000ba4 1290       4099 	.data.b	144,18
00000ba6 0f         4100 	.data.b	15
00000ba7 03         4101 	.data.b	3
00000ba8 00000000*  4102 	.data.w	.LDW_5e8ef00
                    4103 
                    4104 .LDW_6077cd8:
00000bac 2a         4105 	.data.b	42
00000bad 5f6d6f43   4106 	.data.b	67,111,109,95,82,120,68,101,102,80,100,117,66,117,102,102,101,114,84,121,112,101,0
00000bb1 65447852 
00000bb5 75645066 
00000bb9 66667542 
00000bbd 79547265 
00000bc1 006570 
00000bc4 1296       4107 	.data.b	150,18
00000bc6 0f         4108 	.data.b	15
00000bc7 03         4109 	.data.b	3
00000bc8 00000000*  4110 	.data.w	.LDW_5e8ef00
                    4111 
                    4112 .LDW_6077d88:
00000bcc 2a         4113 	.data.b	42
00000bcd 5f6d6f43   4114 	.data.b	67,111,109,95,82,120,68,101,102,101,114,114,101,100,80,114,111,99,101,115,115,105,110,103,73,83,82,76,111,99,107,67,111,117,110,116,101,114,84,121,112,101,0
00000bd1 65447852 
00000bd5 72726566 
00000bd9 72506465 
00000bdd 7365636f 
00000be1 676e6973 
00000be5 4c525349 
00000be9 436b636f 
00000bed 746e756f 
00000bf1 79547265 
00000bf5 006570 
00000bf8 1299       4115 	.data.b	153,18
00000bfa 10         4116 	.data.b	16
00000bfb 03         4117 	.data.b	3
00000bfc 00000000*  4118 	.data.w	.LDW_5ef2118
                    4119 
                    4120 .LDW_6077e38:
00000c00 2a         4121 	.data.b	42
00000c01 5f6d6f43   4122 	.data.b	67,111,109,95,82,120,73,80,100,117,71,114,111,117,112,73,83,82,76,111,99,107,67,111,117,110,116,101,114,84,121,112,101,0
00000c05 50497852 
00000c09 72477564 
00000c0d 4970756f 
00000c11 6f4c5253 
00000c15 6f436b63 
00000c19 65746e75 
00000c1d 70795472 
00000c21 0065 
00000c23 129f       4123 	.data.b	159,18
00000c25 10         4124 	.data.b	16
00000c26 03         4125 	.data.b	3
00000c27 00000000*  4126 	.data.w	.LDW_5ef2118
                    4127 
                    4128 .LDW_60789e8:
00000c2b 2a         4129 	.data.b	42
00000c2c 5f6d6f43   4130 	.data.b	67,111,109,95,82,120,80,100,117,71,114,112,65,99,116,105,118,101,84,121,112,101,0
00000c30 64507852 
00000c34 70724775 
00000c38 69746341 

                                                                      Page 77
                                                              C:\Users\Fengyuan\AppData\Local\Temp\gh_0000fuk1.s
00000c3c 79546576 
00000c40 006570 
00000c43 12a5       4131 	.data.b	165,18
00000c45 11         4132 	.data.b	17
00000c46 03         4133 	.data.b	3
00000c47 00000000*  4134 	.data.w	.LDW_49f9738
                    4135 
                    4136 .LDW_49fa020:
00000c4b 2a         4137 	.data.b	42
00000c4c 5f6d6f43   4138 	.data.b	67,111,109,95,80,100,117,71,114,112,86,101,99,116,111,114,69,110,100,73,100,120,79,102,82,120,80,100,117,71,114,112,73,110,102,111,84,121,112,101,0
00000c50 47756450 
00000c54 65567072 
00000c58 726f7463 
00000c5c 49646e45 
00000c60 664f7864 
00000c64 64507852 
00000c68 70724775 
00000c6c 6f666e49 
00000c70 65707954 
00000c74 00 
00000c75 12a8       4139 	.data.b	168,18
00000c77 0f         4140 	.data.b	15
00000c78 03         4141 	.data.b	3
00000c79 00000000*  4142 	.data.w	.LDW_5e8ef00
                    4143 
                    4144 .LDW_6078990:
00000c7d 2a         4145 	.data.b	42
00000c7e 5f6d6f43   4146 	.data.b	67,111,109,95,80,100,117,71,114,112,86,101,99,116,111,114,83,116,97,114,116,73,100,120,79,102,82,120,80,100,117,71,114,112,73,110,102,111,84,121,112,101,0
00000c82 47756450 
00000c86 65567072 
00000c8a 726f7463 
00000c8e 72617453 
00000c92 78644974 
00000c96 7852664f 
00000c9a 47756450 
00000c9e 6e497072 
00000ca2 79546f66 
00000ca6 006570 
00000ca9 12ab       4147 	.data.b	171,18
00000cab 0f         4148 	.data.b	15
00000cac 03         4149 	.data.b	3
00000cad 00000000*  4150 	.data.w	.LDW_5e8ef00
                    4151 
                    4152 .LDW_6078b48:
00000cb1 2a         4153 	.data.b	42
00000cb2 5f6d6f43   4154 	.data.b	67,111,109,95,72,97,110,100,108,101,82,120,80,100,117,68,101,102,101,114,114,101,100,73,100,120,79,102,82,120,80,100,117,73,110,102,111,84,121,112,101,0
00000cb6 646e6148 
00000cba 7852656c 
00000cbe 44756450 
00000cc2 72656665 
00000cc6 49646572 
00000cca 664f7864 
00000cce 64507852 
00000cd2 666e4975 
00000cd6 7079546f 
00000cda 0065 
00000cdc 12b1       4155 	.data.b	177,18
00000cde 0f         4156 	.data.b	15
00000cdf 03         4157 	.data.b	3
00000ce0 00000000*  4158 	.data.w	.LDW_5e8ef00
                    4159 

                                                                      Page 78
                                                              C:\Users\Fengyuan\AppData\Local\Temp\gh_0000fuk1.s
                    4160 .LDW_5ef2f88:
00000ce4 2a         4161 	.data.b	42
00000ce5 5f6d6f43   4162 	.data.b	67,111,109,95,82,120,65,99,99,101,115,115,73,110,102,111,73,110,100,69,110,100,73,100,120,79,102,82,120,80,100,117,73,110,102,111,84,121,112,101,0
00000ce9 63417852 
00000ced 73736563 
00000cf1 6f666e49 
00000cf5 45646e49 
00000cf9 6449646e 
00000cfd 52664f78 
00000d01 75645078 
00000d05 6f666e49 
00000d09 65707954 
00000d0d 00 
00000d0e 12b7       4163 	.data.b	183,18
00000d10 0f         4164 	.data.b	15
00000d11 03         4165 	.data.b	3
00000d12 00000000*  4166 	.data.w	.LDW_5e8ef00
                    4167 
                    4168 .LDW_60788e0:
00000d16 2a         4169 	.data.b	42
00000d17 5f6d6f43   4170 	.data.b	67,111,109,95,82,120,65,99,99,101,115,115,73,110,102,111,73,110,100,83,116,97,114,116,73,100,120,79,102,82,120,80,100,117,73,110,102,111,84,121,112,101,0
00000d1b 63417852 
00000d1f 73736563 
00000d23 6f666e49 
00000d27 53646e49 
00000d2b 74726174 
00000d2f 4f786449 
00000d33 50785266 
00000d37 6e497564 
00000d3b 79546f66 
00000d3f 006570 
00000d42 12ba       4171 	.data.b	186,18
00000d44 0f         4172 	.data.b	15
00000d45 03         4173 	.data.b	3
00000d46 00000000*  4174 	.data.w	.LDW_5e8ef00
                    4175 
                    4176 .LDW_6078938:
00000d4a 2a         4177 	.data.b	42
00000d4b 5f6d6f43   4178 	.data.b	67,111,109,95,82,120,65,99,99,101,115,115,73,110,102,111,73,110,100,85,115,101,100,79,102,82,120,80,100,117,73,110,102,111,84,121,112,101,0
00000d4f 63417852 
00000d53 73736563 
00000d57 6f666e49 
00000d5b 55646e49 
00000d5f 4f646573 
00000d63 50785266 
00000d67 6e497564 
00000d6b 79546f66 
00000d6f 006570 
00000d72 12bd       4179 	.data.b	189,18
00000d74 11         4180 	.data.b	17
00000d75 03         4181 	.data.b	3
00000d76 00000000*  4182 	.data.w	.LDW_49f9738
                    4183 
                    4184 .LDW_6078a98:
00000d7a 2a         4185 	.data.b	42
00000d7b 5f6d6f43   4186 	.data.b	67,111,109,95,82,120,68,101,102,80,100,117,66,117,102,102,101,114,76,101,110,103,116,104,79,102,82,120,80,100,117,73,110,102,111,84,121,112,101,0
00000d7f 65447852 
00000d83 75645066 
00000d87 66667542 
00000d8b 654c7265 
00000d8f 6874676e 

                                                                      Page 79
                                                              C:\Users\Fengyuan\AppData\Local\Temp\gh_0000fuk1.s
00000d93 7852664f 
00000d97 49756450 
00000d9b 546f666e 
00000d9f 00657079 
00000da3 12c3       4187 	.data.b	195,18
00000da5 0f         4188 	.data.b	15
00000da6 03         4189 	.data.b	3
00000da7 00000000*  4190 	.data.w	.LDW_5e8ef00
                    4191 
                    4192 .LDW_6078af0:
00000dab 2a         4193 	.data.b	42
00000dac 5f6d6f43   4194 	.data.b	67,111,109,95,82,120,68,101,102,80,100,117,66,117,102,102,101,114,83,116,97,114,116,73,100,120,79,102,82,120,80,100,117,73,110,102,111,84,121,112,101,0
00000db0 65447852 
00000db4 75645066 
00000db8 66667542 
00000dbc 74537265 
00000dc0 49747261 
00000dc4 664f7864 
00000dc8 64507852 
00000dcc 666e4975 
00000dd0 7079546f 
00000dd4 0065 
00000dd6 12c6       4195 	.data.b	198,18
00000dd8 0f         4196 	.data.b	15
00000dd9 03         4197 	.data.b	3
00000dda 00000000*  4198 	.data.w	.LDW_5e8ef00
                    4199 
                    4200 .LDW_6078780:
00000dde 2a         4201 	.data.b	42
00000ddf 5f6d6f43   4202 	.data.b	67,111,109,95,82,120,83,105,103,73,110,102,111,69,110,100,73,100,120,79,102,82,120,80,100,117,73,110,102,111,84,121,112,101,0
00000de3 69537852 
00000de7 666e4967 
00000deb 646e456f 
00000def 4f786449 
00000df3 50785266 
00000df7 6e497564 
00000dfb 79546f66 
00000dff 006570 
00000e02 12cc       4203 	.data.b	204,18
00000e04 0f         4204 	.data.b	15
00000e05 03         4205 	.data.b	3
00000e06 00000000*  4206 	.data.w	.LDW_5e8ef00
                    4207 
                    4208 .LDW_6078830:
00000e0a 2a         4209 	.data.b	42
00000e0b 5f6d6f43   4210 	.data.b	67,111,109,95,82,120,83,105,103,73,110,102,111,83,116,97,114,116,73,100,120,79,102,82,120,80,100,117,73,110,102,111,84,121,112,101,0
00000e0f 69537852 
00000e13 666e4967 
00000e17 6174536f 
00000e1b 64497472 
00000e1f 52664f78 
00000e23 75645078 
00000e27 6f666e49 
00000e2b 65707954 
00000e2f 00 
00000e30 12cf       4211 	.data.b	207,18
00000e32 0f         4212 	.data.b	15
00000e33 03         4213 	.data.b	3
00000e34 00000000*  4214 	.data.w	.LDW_5e8ef00
                    4215 
                    4216 .LDW_60796d8:

                                                                      Page 80
                                                              C:\Users\Fengyuan\AppData\Local\Temp\gh_0000fuk1.s
00000e38 2a         4217 	.data.b	42
00000e39 5f6d6f43   4218 	.data.b	67,111,109,95,84,121,112,101,79,102,82,120,80,100,117,73,110,102,111,84,121,112,101,0
00000e3d 65707954 
00000e41 7852664f 
00000e45 49756450 
00000e49 546f666e 
00000e4d 00657079 
00000e51 12d8       4219 	.data.b	216,18
00000e53 0f         4220 	.data.b	15
00000e54 03         4221 	.data.b	3
00000e55 00000000*  4222 	.data.w	.LDW_5e8ef00
                    4223 
                    4224 .LDW_6079368:
00000e59 2a         4225 	.data.b	42
00000e5a 5f6d6f43   4226 	.data.b	67,111,109,95,82,120,83,105,103,66,117,102,102,101,114,85,73,110,116,56,84,121,112,101,0
00000e5e 69537852 
00000e62 66754267 
00000e66 55726566 
00000e6a 38746e49 
00000e6e 65707954 
00000e72 00 
00000e73 12db       4227 	.data.b	219,18
00000e75 0f         4228 	.data.b	15
00000e76 03         4229 	.data.b	3
00000e77 00000000*  4230 	.data.w	.LDW_5e8ef00
                    4231 
                    4232 .LDW_6017c60:
00000e7b 2a         4233 	.data.b	42
00000e7c 5f6d6f43   4234 	.data.b	67,111,109,95,82,120,65,99,99,101,115,115,73,110,102,111,73,100,120,79,102,82,120,83,105,103,73,110,102,111,84,121,112,101,0
00000e80 63417852 
00000e84 73736563 
00000e88 6f666e49 
00000e8c 4f786449 
00000e90 53785266 
00000e94 6e496769 
00000e98 79546f66 
00000e9c 006570 
00000e9f 12de       4235 	.data.b	222,18
00000ea1 0f         4236 	.data.b	15
00000ea2 03         4237 	.data.b	3
00000ea3 00000000*  4238 	.data.w	.LDW_5e8ef00
                    4239 
                    4240 .LDW_6079578:
00000ea7 2a         4241 	.data.b	42
00000ea8 5f6d6f43   4242 	.data.b	67,111,109,95,86,97,108,105,100,68,108,99,79,102,82,120,83,105,103,73,110,102,111,84,121,112,101,0
00000eac 696c6156 
00000eb0 636c4464 
00000eb4 7852664f 
00000eb8 49676953 
00000ebc 546f666e 
00000ec0 00657079 
00000ec4 12e4       4243 	.data.b	228,18
00000ec6 0f         4244 	.data.b	15
00000ec7 03         4245 	.data.b	3
00000ec8 00000000*  4246 	.data.w	.LDW_5e8ef00
                    4247 
                    4248 .LDW_5ef2e80:
00000ecc 2a         4249 	.data.b	42
00000ecd 5f6d6f43   4250 	.data.b	67,111,109,95,83,105,122,101,79,102,82,120,80,100,117,73,110,102,111,84,121,112,101,0
00000ed1 657a6953 
00000ed5 7852664f 

                                                                      Page 81
                                                              C:\Users\Fengyuan\AppData\Local\Temp\gh_0000fuk1.s
00000ed9 49756450 
00000edd 546f666e 
00000ee1 00657079 
00000ee5 1397       4251 	.data.b	151,19
00000ee7 0f         4252 	.data.b	15
00000ee8 03         4253 	.data.b	3
00000ee9 00000000*  4254 	.data.w	.LDW_5e8ef00
                    4255 
                    4256 .LDW_6079838:
00000eed 2a         4257 	.data.b	42
00000eee 5f6d6f43   4258 	.data.b	67,111,109,95,84,114,97,110,115,109,105,116,82,101,113,117,101,115,116,84,121,112,101,0
00000ef2 6e617254 
00000ef6 74696d73 
00000efa 75716552 
00000efe 54747365 
00000f02 00657079 
00000f06 13c1       4259 	.data.b	193,19
00000f08 11         4260 	.data.b	17
00000f09 03         4261 	.data.b	3
00000f0a 00000000*  4262 	.data.w	.LDW_49f9738
                    4263 
                    4264 .LDW_60797e0:
00000f0e 2a         4265 	.data.b	42
00000f0f 5f6d6f43   4266 	.data.b	67,111,109,95,84,120,66,117,102,102,101,114,84,121,112,101,0
00000f13 75427854 
00000f17 72656666 
00000f1b 65707954 
00000f1f 00 
00000f20 13c4       4267 	.data.b	196,19
00000f22 0f         4268 	.data.b	15
00000f23 03         4269 	.data.b	3
00000f24 00000000*  4270 	.data.w	.LDW_5e8ef00
                    4271 
                    4272 .LDW_6079b50:
00000f28 2a         4273 	.data.b	42
00000f29 5f6d6f43   4274 	.data.b	67,111,109,95,84,120,67,121,99,108,105,99,80,114,111,99,101,115,115,105,110,103,73,83,82,76,111,99,107,67,111,117,110,116,101,114,84,121,112,101,0
00000f2d 79437854 
00000f31 63696c63 
00000f35 636f7250 
00000f39 69737365 
00000f3d 5349676e 
00000f41 636f4c52 
00000f45 756f436b 
00000f49 7265746e 
00000f4d 65707954 
00000f51 00 
00000f52 13c7       4275 	.data.b	199,19
00000f54 10         4276 	.data.b	16
00000f55 03         4277 	.data.b	3
00000f56 00000000*  4278 	.data.w	.LDW_5ef2118
                    4279 
                    4280 .LDW_6079788:
00000f5a 2a         4281 	.data.b	42
00000f5b 5f6d6f43   4282 	.data.b	67,111,109,95,84,120,73,80,100,117,71,114,111,117,112,73,83,82,76,111,99,107,67,111,117,110,116,101,114,84,121,112,101,0
00000f5f 50497854 
00000f63 72477564 
00000f67 4970756f 
00000f6b 6f4c5253 
00000f6f 6f436b63 
00000f73 65746e75 
00000f77 70795472 

                                                                      Page 82
                                                              C:\Users\Fengyuan\AppData\Local\Temp\gh_0000fuk1.s
00000f7b 0065 
00000f7d 13d0       4283 	.data.b	208,19
00000f7f 10         4284 	.data.b	16
00000f80 03         4285 	.data.b	3
00000f81 00000000*  4286 	.data.w	.LDW_5ef2118
                    4287 
                    4288 .LDW_6079998:
00000f85 2a         4289 	.data.b	42
00000f86 5f6d6f43   4290 	.data.b	67,111,109,95,80,101,114,105,111,100,105,99,79,102,84,120,77,111,100,101,70,97,108,115,101,84,121,112,101,0
00000f8a 69726550 
00000f8e 6369646f 
00000f92 7854664f 
00000f96 65646f4d 
00000f9a 736c6146 
00000f9e 70795465 
00000fa2 0065 
00000fa4 13d6       4291 	.data.b	214,19
00000fa6 11         4292 	.data.b	17
00000fa7 03         4293 	.data.b	3
00000fa8 00000000*  4294 	.data.w	.LDW_49f9738
                    4295 
                    4296 .LDW_60799f0:
00000fac 2a         4297 	.data.b	42
00000fad 5f6d6f43   4298 	.data.b	67,111,109,95,84,105,109,101,80,101,114,105,111,100,79,102,84,120,77,111,100,101,70,97,108,115,101,84,121,112,101,0
00000fb1 656d6954 
00000fb5 69726550 
00000fb9 664f646f 
00000fbd 6f4d7854 
00000fc1 61466564 
00000fc5 5465736c 
00000fc9 00657079 
00000fcd 13d9       4299 	.data.b	217,19
00000fcf 0f         4300 	.data.b	15
00000fd0 03         4301 	.data.b	3
00000fd1 00000000*  4302 	.data.w	.LDW_5e8ef00
                    4303 
                    4304 .LDW_6079aa0:
00000fd5 2a         4305 	.data.b	42
00000fd6 5f6d6f43   4306 	.data.b	67,111,109,95,73,110,105,116,77,111,100,101,79,102,84,120,77,111,100,101,73,110,102,111,84,121,112,101,0
00000fda 74696e49 
00000fde 65646f4d 
00000fe2 7854664f 
00000fe6 65646f4d 
00000fea 6f666e49 
00000fee 65707954 
00000ff2 00 
00000ff3 13dc       4307 	.data.b	220,19
00000ff5 11         4308 	.data.b	17
00000ff6 03         4309 	.data.b	3
00000ff7 00000000*  4310 	.data.w	.LDW_49f9738
                    4311 
                    4312 .LDW_6079ba8:
00000ffb 2a         4313 	.data.b	42
00000ffc 5f6d6f43   4314 	.data.b	67,111,109,95,84,120,77,111,100,101,84,114,117,101,73,100,120,79,102,84,120,77,111,100,101,73,110,102,111,84,121,112,101,0
00001000 6f4d7854 
00001004 72546564 
00001008 64496575 
0000100c 54664f78 
00001010 646f4d78 
00001014 666e4965 
00001018 7079546f 

                                                                      Page 83
                                                              C:\Users\Fengyuan\AppData\Local\Temp\gh_0000fuk1.s
0000101c 0065 
0000101e 13e2       4315 	.data.b	226,19
00001020 0f         4316 	.data.b	15
00001021 03         4317 	.data.b	3
00001022 00000000*  4318 	.data.w	.LDW_5e8ef00
                    4319 
                    4320 .LDW_607a9a0:
00001026 2a         4321 	.data.b	42
00001027 5f6d6f43   4322 	.data.b	67,111,109,95,80,101,114,105,111,100,105,99,79,102,84,120,77,111,100,101,84,114,117,101,84,121,112,101,0
0000102b 69726550 
0000102f 6369646f 
00001033 7854664f 
00001037 65646f4d 
0000103b 65757254 
0000103f 65707954 
00001043 00 
00001044 13e5       4323 	.data.b	229,19
00001046 11         4324 	.data.b	17
00001047 03         4325 	.data.b	3
00001048 00000000*  4326 	.data.w	.LDW_49f9738
                    4327 
                    4328 .LDW_607abb0:
0000104c 2a         4329 	.data.b	42
0000104d 5f6d6f43   4330 	.data.b	67,111,109,95,84,105,109,101,80,101,114,105,111,100,79,102,84,120,77,111,100,101,84,114,117,101,84,121,112,101,0
00001051 656d6954 
00001055 69726550 
00001059 664f646f 
0000105d 6f4d7854 
00001061 72546564 
00001065 79546575 
00001069 006570 
0000106c 13e8       4331 	.data.b	232,19
0000106e 0f         4332 	.data.b	15
0000106f 03         4333 	.data.b	3
00001070 00000000*  4334 	.data.w	.LDW_5e8ef00
                    4335 
                    4336 .LDW_607aaa8:
00001074 2a         4337 	.data.b	42
00001075 5f6d6f43   4338 	.data.b	67,111,109,95,84,120,80,100,117,71,114,112,65,99,116,105,118,101,84,121,112,101,0
00001079 64507854 
0000107d 70724775 
00001081 69746341 
00001085 79546576 
00001089 006570 
0000108c 13eb       4339 	.data.b	235,19
0000108e 11         4340 	.data.b	17
0000108f 03         4341 	.data.b	3
00001090 00000000*  4342 	.data.w	.LDW_49f9738
                    4343 
                    4344 .LDW_49f9af8:
00001094 2a         4345 	.data.b	42
00001095 5f6d6f43   4346 	.data.b	67,111,109,95,80,100,117,71,114,112,86,101,99,116,111,114,69,110,100,73,100,120,79,102,84,120,80,100,117,71,114,112,73,110,102,111,84,121,112,101,0
00001099 47756450 
0000109d 65567072 
000010a1 726f7463 
000010a5 49646e45 
000010a9 664f7864 
000010ad 64507854 
000010b1 70724775 
000010b5 6f666e49 
000010b9 65707954 

                                                                      Page 84
                                                              C:\Users\Fengyuan\AppData\Local\Temp\gh_0000fuk1.s
000010bd 00 
000010be 13ee       4347 	.data.b	238,19
000010c0 0f         4348 	.data.b	15
000010c1 03         4349 	.data.b	3
000010c2 00000000*  4350 	.data.w	.LDW_5e8ef00
                    4351 
                    4352 .LDW_607a8f0:
000010c6 2a         4353 	.data.b	42
000010c7 5f6d6f43   4354 	.data.b	67,111,109,95,80,100,117,71,114,112,86,101,99,116,111,114,83,116,97,114,116,73,100,120,79,102,84,120,80,100,117,71,114,112,73,110,102,111,84,121,112,101,0
000010cb 47756450 
000010cf 65567072 
000010d3 726f7463 
000010d7 72617453 
000010db 78644974 
000010df 7854664f 
000010e3 47756450 
000010e7 6e497072 
000010eb 79546f66 
000010ef 006570 
000010f2 13f1       4355 	.data.b	241,19
000010f4 0f         4356 	.data.b	15
000010f5 03         4357 	.data.b	3
000010f6 00000000*  4358 	.data.w	.LDW_5e8ef00
                    4359 
                    4360 .LDW_607a790:
000010fa 2a         4361 	.data.b	42
000010fb 5f6d6f43   4362 	.data.b	67,111,109,95,69,120,116,101,114,110,97,108,73,100,79,102,84,120,80,100,117,73,110,102,111,84,121,112,101,0
000010ff 65747845 
00001103 6c616e72 
00001107 664f6449 
0000110b 64507854 
0000110f 666e4975 
00001113 7079546f 
00001117 0065 
00001119 13f7       4363 	.data.b	247,19
0000111b 0f         4364 	.data.b	15
0000111c 03         4365 	.data.b	3
0000111d 00000000*  4366 	.data.w	.LDW_5e8ef00
                    4367 
                    4368 .LDW_607ab00:
00001121 2a         4369 	.data.b	42
00001122 5f6d6f43   4370 	.data.b	67,111,109,95,77,101,116,97,68,97,116,97,76,101,110,103,116,104,79,102,84,120,80,100,117,73,110,102,111,84,121,112,101,0
00001126 6174654d 
0000112a 61746144 
0000112e 676e654c 
00001132 664f6874 
00001136 64507854 
0000113a 666e4975 
0000113e 7079546f 
00001142 0065 
00001144 13fa       4371 	.data.b	250,19
00001146 0f         4372 	.data.b	15
00001147 03         4373 	.data.b	3
00001148 00000000*  4374 	.data.w	.LDW_5e8ef00
                    4375 
                    4376 .LDW_607a840:
0000114c 2a         4377 	.data.b	42
0000114d 5f6d6f43   4378 	.data.b	67,111,109,95,84,120,66,117,102,102,101,114,76,101,110,103,116,104,79,102,84,120,80,100,117,73,110,102,111,84,121,112,101,0
00001151 75427854 
00001155 72656666 
00001159 676e654c 

                                                                      Page 85
                                                              C:\Users\Fengyuan\AppData\Local\Temp\gh_0000fuk1.s
0000115d 664f6874 
00001161 64507854 
00001165 666e4975 
00001169 7079546f 
0000116d 0065 
0000116f 1483       4379 	.data.b	131,20
00001171 0f         4380 	.data.b	15
00001172 03         4381 	.data.b	3
00001173 00000000*  4382 	.data.w	.LDW_5e8ef00
                    4383 
                    4384 .LDW_607ab58:
00001177 2a         4385 	.data.b	42
00001178 5f6d6f43   4386 	.data.b	67,111,109,95,84,120,80,100,117,73,110,105,116,86,97,108,117,101,83,116,97,114,116,73,100,120,79,102,84,120,80,100,117,73,110,102,111,84,121,112,101,0
0000117c 64507854 
00001180 696e4975 
00001184 6c615674 
00001188 74536575 
0000118c 49747261 
00001190 664f7864 
00001194 64507854 
00001198 666e4975 
0000119c 7079546f 
000011a0 0065 
000011a2 148f       4387 	.data.b	143,20
000011a4 0f         4388 	.data.b	15
000011a5 03         4389 	.data.b	3
000011a6 00000000*  4390 	.data.w	.LDW_5e8ef00
                    4391 
                    4392 .LDW_607a318:
000011aa 2a         4393 	.data.b	42
000011ab 5f6d6f43   4394 	.data.b	67,111,109,95,84,120,80,100,117,73,110,105,116,86,97,108,117,101,85,115,101,100,79,102,84,120,80,100,117,73,110,102,111,84,121,112,101,0
000011af 64507854 
000011b3 696e4975 
000011b7 6c615674 
000011bb 73556575 
000011bf 664f6465 
000011c3 64507854 
000011c7 666e4975 
000011cb 7079546f 
000011cf 0065 
000011d1 1492       4395 	.data.b	146,20
000011d3 11         4396 	.data.b	17
000011d4 03         4397 	.data.b	3
000011d5 00000000*  4398 	.data.w	.LDW_49f9738
                    4399 
                    4400 .LDW_607a528:
000011d9 2a         4401 	.data.b	42
000011da 5f6d6f43   4402 	.data.b	67,111,109,95,84,120,80,100,117,73,110,105,116,86,97,108,117,101,84,121,112,101,0
000011de 64507854 
000011e2 696e4975 
000011e6 6c615674 
000011ea 79546575 
000011ee 006570 
000011f1 1495       4403 	.data.b	149,20
000011f3 0f         4404 	.data.b	15
000011f4 03         4405 	.data.b	3
000011f5 00000000*  4406 	.data.w	.LDW_5e8ef00
                    4407 
                    4408 .LDW_607a3c8:
000011f9 2a         4409 	.data.b	42
000011fa 5f6d6f43   4410 	.data.b	67,111,109,95,84,120,80,114,111,99,101,115,115,105,110,103,73,83,82,76,111,99,107,67,111,117,110,116,101,114,84,121,112,101,0

                                                                      Page 86
                                                              C:\Users\Fengyuan\AppData\Local\Temp\gh_0000fuk1.s
000011fe 72507854 
00001202 7365636f 
00001206 676e6973 
0000120a 4c525349 
0000120e 436b636f 
00001212 746e756f 
00001216 79547265 
0000121a 006570 
0000121d 1498       4411 	.data.b	152,20
0000121f 10         4412 	.data.b	16
00001220 03         4413 	.data.b	3
00001221 00000000*  4414 	.data.w	.LDW_5ef2118
                    4415 
                    4416 .LDW_607a580:
00001225 2a         4417 	.data.b	42
00001226 5f6d6f43   4418 	.data.b	67,111,109,95,84,120,83,100,117,76,101,110,103,116,104,84,121,112,101,0
0000122a 64537854 
0000122e 6e654c75 
00001232 54687467 
00001236 00657079 
0000123a 149e       4419 	.data.b	158,20
0000123c 17         4420 	.data.b	23
0000123d 03         4421 	.data.b	3
0000123e 00000000*  4422 	.data.w	.LDW_6056808
                    4423 
                    4424 .LDW_6079ea0:
00001242 2a         4425 	.data.b	42
00001243 5f6d6f43   4426 	.data.b	67,111,109,95,66,105,116,76,101,110,103,116,104,79,102,84,120,83,105,103,73,110,102,111,84,121,112,101,0
00001247 4c746942 
0000124b 74676e65 
0000124f 54664f68 
00001253 67695378 
00001257 6f666e49 
0000125b 65707954 
0000125f 00 
00001260 14a4       4427 	.data.b	164,20
00001262 0f         4428 	.data.b	15
00001263 03         4429 	.data.b	3
00001264 00000000*  4430 	.data.w	.LDW_5e8ef00
                    4431 
                    4432 .LDW_5ef2278:
00001268 2a         4433 	.data.b	42
00001269 5f6d6f43   4434 	.data.b	67,111,109,95,66,105,116,80,111,115,105,116,105,111,110,79,102,84,120,83,105,103,73,110,102,111,84,121,112,101,0
0000126d 50746942 
00001271 7469736f 
00001275 4f6e6f69 
00001279 53785466 
0000127d 6e496769 
00001281 79546f66 
00001285 006570 
00001288 14a7       4435 	.data.b	167,20
0000128a 0f         4436 	.data.b	15
0000128b 03         4437 	.data.b	3
0000128c 00000000*  4438 	.data.w	.LDW_5e8ef00
                    4439 
                    4440 .LDW_607a5d8:
00001290 2a         4441 	.data.b	42
00001291 5f6d6f43   4442 	.data.b	67,111,109,95,66,121,116,101,76,101,110,103,116,104,79,102,84,120,83,105,103,73,110,102,111,84,121,112,101,0
00001295 65747942 
00001299 676e654c 
0000129d 664f6874 

                                                                      Page 87
                                                              C:\Users\Fengyuan\AppData\Local\Temp\gh_0000fuk1.s
000012a1 69537854 
000012a5 666e4967 
000012a9 7079546f 
000012ad 0065 
000012af 14ad       4443 	.data.b	173,20
000012b1 0f         4444 	.data.b	15
000012b2 03         4445 	.data.b	3
000012b3 00000000*  4446 	.data.w	.LDW_5e8ef00
                    4447 
                    4448 .LDW_607a630:
000012b7 2a         4449 	.data.b	42
000012b8 5f6d6f43   4450 	.data.b	67,111,109,95,84,120,66,117,102,102,101,114,76,101,110,103,116,104,79,102,84,120,83,105,103,73,110,102,111,84,121,112,101,0
000012bc 75427854 
000012c0 72656666 
000012c4 676e654c 
000012c8 664f6874 
000012cc 69537854 
000012d0 666e4967 
000012d4 7079546f 
000012d8 0065 
000012da 14b9       4451 	.data.b	185,20
000012dc 0f         4452 	.data.b	15
000012dd 03         4453 	.data.b	3
000012de 00000000*  4454 	.data.w	.LDW_5e8ef00
                    4455 
                    4456 .LDW_607a688:
000012e2 2a         4457 	.data.b	42
000012e3 5f6d6f43   4458 	.data.b	67,111,109,95,84,120,66,117,102,102,101,114,83,116,97,114,116,73,100,120,79,102,84,120,83,105,103,73,110,102,111,84,121,112,101,0
000012e7 75427854 
000012eb 72656666 
000012ef 72617453 
000012f3 78644974 
000012f7 7854664f 
000012fb 49676953 
000012ff 546f666e 
00001303 00657079 
00001307 14bc       4459 	.data.b	188,20
00001309 0f         4460 	.data.b	15
0000130a 03         4461 	.data.b	3
0000130b 00000000*  4462 	.data.w	.LDW_5e8ef00
                    4463 
                    4464 .LDW_6043f00:
0000130f 2a         4465 	.data.b	42
00001310 5f6d6f43   4466 	.data.b	67,111,109,95,84,120,80,100,117,73,110,102,111,73,100,120,79,102,84,120,83,105,103,73,110,102,111,84,121,112,101,0
00001314 64507854 
00001318 666e4975 
0000131c 7864496f 
00001320 7854664f 
00001324 49676953 
00001328 546f666e 
0000132c 00657079 
00001330 14c2       4467 	.data.b	194,20
00001332 0f         4468 	.data.b	15
00001333 03         4469 	.data.b	3
00001334 00000000*  4470 	.data.w	.LDW_5e8ef00
                    4471 
                    4472 .LDW_6079f50:
00001338 42         4473 	.data.b	66
00001339 6d6f4373   4474 	.data.b	115,67,111,109,95,82,120,65,99,99,101,115,115,73,110,102,111,84,121,112,101,0
0000133d 4178525f 
00001341 73656363 

                                                                      Page 88
                                                              C:\Users\Fengyuan\AppData\Local\Temp\gh_0000fuk1.s
00001345 666e4973 
00001349 7079546f 
0000134d 0065 
0000134f 14de       4475 	.data.b	222,20
00001351 10         4476 	.data.b	16
00001352 03         4477 	.data.b	3
00001353 03         4478 	.data.b	3
00001354 01         4479 	.data.b	1
                    4480 
                    4481 	.section	.debug_abbrev
00000097 42         4482 	.data.b	66
00000098 13         4483 	.data.b	19
00000099 01         4484 	.data.b	1
0000009a 0803       4485 	.data.b	3,8
0000009c 0f3b       4486 	.data.b	59,15
0000009e 0f39       4487 	.data.b	57,15
000000a0 0f3a       4488 	.data.b	58,15
000000a2 0f0b       4489 	.data.b	11,15
000000a4 0b32       4490 	.data.b	50,11
000000a6 0000       4491 	.data.b	0,0
                    4492 
                    4493 	.section	.debug_info
                    4494 .LDW_5ea0938:
00001355 25         4495 	.data.b	37
00001356 74696e49   4496 	.data.b	73,110,105,116,86,97,108,117,101,85,115,101,100,79,102,82,120,65,99,99,101,115,115,73,110,102,111,0
0000135a 756c6156 
0000135e 65735565 
00001362 52664f64 
00001366 63634178 
0000136a 49737365 
0000136e 006f666e 
00001372 14e0       4497 	.data.b	224,20
00001374 27         4498 	.data.b	39
00001375 03         4499 	.data.b	3
00001376 00000000*  4500 	.data.w	.LDW_6078570
0000137a 2302       4501 	.data.b	2,35
0000137c 00         4502 	.data.b	0
0000137d 01         4503 	.data.b	1
                    4504 
                    4505 .LDW_5ea0d28:
0000137e 25         4506 	.data.b	37
0000137f 50746942   4507 	.data.b	66,105,116,80,111,115,105,116,105,111,110,79,102,82,120,65,99,99,101,115,115,73,110,102,111,0
00001383 7469736f 
00001387 4f6e6f69 
0000138b 41785266 
0000138f 73656363 
00001393 666e4973 
00001397 006f 
00001399 14e1       4508 	.data.b	225,20
0000139b 25         4509 	.data.b	37
0000139c 03         4510 	.data.b	3
0000139d 00000000*  4511 	.data.w	.LDW_5ef2590
000013a1 2302       4512 	.data.b	2,35
000013a3 01         4513 	.data.b	1
000013a4 01         4514 	.data.b	1
                    4515 
                    4516 .LDW_5ea0ae8:
000013a5 25         4517 	.data.b	37
000013a6 41737542   4518 	.data.b	66,117,115,65,99,99,79,102,82,120,65,99,99,101,115,115,73,110,102,111,0
000013aa 664f6363 
000013ae 63417852 

                                                                      Page 89
                                                              C:\Users\Fengyuan\AppData\Local\Temp\gh_0000fuk1.s
000013b2 73736563 
000013b6 6f666e49 
000013ba 00 
000013bb 14e2       4519 	.data.b	226,20
000013bd 20         4520 	.data.b	32
000013be 03         4521 	.data.b	3
000013bf 00000000*  4522 	.data.w	.LDW_6077f98
000013c3 2302       4523 	.data.b	2,35
000013c5 02         4524 	.data.b	2
000013c6 01         4525 	.data.b	1
                    4526 
000013c7 00         4527 	.data.b	0
                    4528 
                    4529 .LDW_607a370:
000013c8 2a         4530 	.data.b	42
000013c9 5f6d6f43   4531 	.data.b	67,111,109,95,82,120,65,99,99,101,115,115,73,110,102,111,84,121,112,101,0
000013cd 63417852 
000013d1 73736563 
000013d5 6f666e49 
000013d9 65707954 
000013dd 00 
000013de 14e3       4532 	.data.b	227,20
000013e0 03         4533 	.data.b	3
000013e1 03         4534 	.data.b	3
000013e2 00000000*  4535 	.data.w	.LDW_6079f50
                    4536 
                    4537 .LDW_6079ef8:
000013e6 42         4538 	.data.b	66
000013e7 6d6f4373   4539 	.data.b	115,67,111,109,95,82,120,80,100,117,73,110,102,111,84,121,112,101,0
000013eb 5078525f 
000013ef 6e497564 
000013f3 79546f66 
000013f7 006570 
000013fa 14ec       4540 	.data.b	236,20
000013fc 10         4541 	.data.b	16
000013fd 03         4542 	.data.b	3
000013fe 01         4543 	.data.b	1
000013ff 01         4544 	.data.b	1
                    4545 
                    4546 .LDW_5ea0db8:
00001400 25         4547 	.data.b	37
00001401 63417852   4548 	.data.b	82,120,65,99,99,101,115,115,73,110,102,111,73,110,100,85,115,101,100,79,102,82,120,80,100,117,73,110,102,111,0
00001405 73736563 
00001409 6f666e49 
0000140d 55646e49 
00001411 4f646573 
00001415 50785266 
00001419 6e497564 
0000141d 006f66 
00001420 14ee       4549 	.data.b	238,20
00001422 2a         4550 	.data.b	42
00001423 03         4551 	.data.b	3
00001424 00000000*  4552 	.data.w	.LDW_6078938
00001428 2302       4553 	.data.b	2,35
0000142a 00         4554 	.data.b	0
0000142b 01         4555 	.data.b	1
                    4556 
0000142c 00         4557 	.data.b	0
                    4558 
                    4559 .LDW_607a000:
0000142d 2a         4560 	.data.b	42

                                                                      Page 90
                                                              C:\Users\Fengyuan\AppData\Local\Temp\gh_0000fuk1.s
0000142e 5f6d6f43   4561 	.data.b	67,111,109,95,82,120,80,100,117,73,110,102,111,84,121,112,101,0
00001432 64507852 
00001436 666e4975 
0000143a 7079546f 
0000143e 0065 
00001440 14ef       4562 	.data.b	239,20
00001442 03         4563 	.data.b	3
00001443 03         4564 	.data.b	3
00001444 00000000*  4565 	.data.w	.LDW_6079ef8
                    4566 
                    4567 .LDW_607a058:
00001448 42         4568 	.data.b	66
00001449 6d6f4373   4569 	.data.b	115,67,111,109,95,82,120,83,105,103,73,110,102,111,84,121,112,101,0
0000144d 5378525f 
00001451 6e496769 
00001455 79546f66 
00001459 006570 
0000145c 14f2       4570 	.data.b	242,20
0000145e 10         4571 	.data.b	16
0000145f 03         4572 	.data.b	3
00001460 01         4573 	.data.b	1
00001461 01         4574 	.data.b	1
                    4575 
                    4576 .LDW_5ea0980:
00001462 25         4577 	.data.b	37
00001463 696c6156   4578 	.data.b	86,97,108,105,100,68,108,99,79,102,82,120,83,105,103,73,110,102,111,0
00001467 636c4464 
0000146b 7852664f 
0000146f 49676953 
00001473 006f666e 
00001477 14f4       4579 	.data.b	244,20
00001479 1f         4580 	.data.b	31
0000147a 03         4581 	.data.b	3
0000147b 00000000*  4582 	.data.w	.LDW_6079578
0000147f 2302       4583 	.data.b	2,35
00001481 00         4584 	.data.b	0
00001482 01         4585 	.data.b	1
                    4586 
00001483 00         4587 	.data.b	0
                    4588 
                    4589 .LDW_607a0b0:
00001484 2a         4590 	.data.b	42
00001485 5f6d6f43   4591 	.data.b	67,111,109,95,82,120,83,105,103,73,110,102,111,84,121,112,101,0
00001489 69537852 
0000148d 666e4967 
00001491 7079546f 
00001495 0065 
00001497 14f5       4592 	.data.b	245,20
00001499 03         4593 	.data.b	3
0000149a 03         4594 	.data.b	3
0000149b 00000000*  4595 	.data.w	.LDW_607a058
                    4596 
                    4597 .LDW_607a108:
0000149f 42         4598 	.data.b	66
000014a0 6d6f4373   4599 	.data.b	115,67,111,109,95,84,120,77,111,100,101,70,97,108,115,101,84,121,112,101,0
000014a4 4d78545f 
000014a8 4665646f 
000014ac 65736c61 
000014b0 65707954 
000014b4 00 
000014b5 14f8       4600 	.data.b	248,20

                                                                      Page 91
                                                              C:\Users\Fengyuan\AppData\Local\Temp\gh_0000fuk1.s
000014b7 10         4601 	.data.b	16
000014b8 03         4602 	.data.b	3
000014b9 01         4603 	.data.b	1
000014ba 01         4604 	.data.b	1
                    4605 
                    4606 .LDW_5ea0b30:
000014bb 25         4607 	.data.b	37
000014bc 69726550   4608 	.data.b	80,101,114,105,111,100,105,99,79,102,84,120,77,111,100,101,70,97,108,115,101,0
000014c0 6369646f 
000014c4 7854664f 
000014c8 65646f4d 
000014cc 736c6146 
000014d0 0065 
000014d2 14fa       4609 	.data.b	250,20
000014d4 21         4610 	.data.b	33
000014d5 03         4611 	.data.b	3
000014d6 00000000*  4612 	.data.w	.LDW_6079998
000014da 2302       4613 	.data.b	2,35
000014dc 00         4614 	.data.b	0
000014dd 01         4615 	.data.b	1
                    4616 
000014de 00         4617 	.data.b	0
                    4618 
                    4619 .LDW_607a1b8:
000014df 2a         4620 	.data.b	42
000014e0 5f6d6f43   4621 	.data.b	67,111,109,95,84,120,77,111,100,101,70,97,108,115,101,84,121,112,101,0
000014e4 6f4d7854 
000014e8 61466564 
000014ec 5465736c 
000014f0 00657079 
000014f4 14fb       4622 	.data.b	251,20
000014f6 03         4623 	.data.b	3
000014f7 03         4624 	.data.b	3
000014f8 00000000*  4625 	.data.w	.LDW_607a108
                    4626 
                    4627 .LDW_607a2c0:
000014fc 42         4628 	.data.b	66
000014fd 6d6f4373   4629 	.data.b	115,67,111,109,95,84,120,77,111,100,101,73,110,102,111,84,121,112,101,0
00001501 4d78545f 
00001505 4965646f 
00001509 546f666e 
0000150d 00657079 
00001511 14fe       4630 	.data.b	254,20
00001513 10         4631 	.data.b	16
00001514 03         4632 	.data.b	3
00001515 02         4633 	.data.b	2
00001516 01         4634 	.data.b	1
                    4635 
                    4636 .LDW_5ea0aa0:
00001517 25         4637 	.data.b	37
00001518 74696e49   4638 	.data.b	73,110,105,116,77,111,100,101,79,102,84,120,77,111,100,101,73,110,102,111,0
0000151c 65646f4d 
00001520 7854664f 
00001524 65646f4d 
00001528 6f666e49 
0000152c 00 
0000152d 1580       4639 	.data.b	128,21
0000152f 20         4640 	.data.b	32
00001530 03         4641 	.data.b	3
00001531 00000000*  4642 	.data.w	.LDW_6079aa0
00001535 2302       4643 	.data.b	2,35

                                                                      Page 92
                                                              C:\Users\Fengyuan\AppData\Local\Temp\gh_0000fuk1.s
00001537 00         4644 	.data.b	0
00001538 01         4645 	.data.b	1
                    4646 
                    4647 .LDW_5ea0f68:
00001539 25         4648 	.data.b	37
0000153a 6f4d7854   4649 	.data.b	84,120,77,111,100,101,84,114,117,101,73,100,120,79,102,84,120,77,111,100,101,73,110,102,111,0
0000153e 72546564 
00001542 64496575 
00001546 54664f78 
0000154a 646f4d78 
0000154e 666e4965 
00001552 006f 
00001554 1581       4650 	.data.b	129,21
00001556 25         4651 	.data.b	37
00001557 03         4652 	.data.b	3
00001558 00000000*  4653 	.data.w	.LDW_6079ba8
0000155c 2302       4654 	.data.b	2,35
0000155e 01         4655 	.data.b	1
0000155f 01         4656 	.data.b	1
                    4657 
00001560 00         4658 	.data.b	0
                    4659 
                    4660 .LDW_607a478:
00001561 2a         4661 	.data.b	42
00001562 5f6d6f43   4662 	.data.b	67,111,109,95,84,120,77,111,100,101,73,110,102,111,84,121,112,101,0
00001566 6f4d7854 
0000156a 6e496564 
0000156e 79546f66 
00001572 006570 
00001575 1582       4663 	.data.b	130,21
00001577 03         4664 	.data.b	3
00001578 03         4665 	.data.b	3
00001579 00000000*  4666 	.data.w	.LDW_607a2c0
                    4667 
                    4668 .LDW_607a4d0:
0000157d 42         4669 	.data.b	66
0000157e 6d6f4373   4670 	.data.b	115,67,111,109,95,84,120,77,111,100,101,84,114,117,101,84,121,112,101,0
00001582 4d78545f 
00001586 5465646f 
0000158a 54657572 
0000158e 00657079 
00001592 1585       4671 	.data.b	133,21
00001594 10         4672 	.data.b	16
00001595 03         4673 	.data.b	3
00001596 01         4674 	.data.b	1
00001597 01         4675 	.data.b	1
                    4676 
                    4677 .LDW_5ea09c8:
00001598 25         4678 	.data.b	37
00001599 69726550   4679 	.data.b	80,101,114,105,111,100,105,99,79,102,84,120,77,111,100,101,84,114,117,101,0
0000159d 6369646f 
000015a1 7854664f 
000015a5 65646f4d 
000015a9 65757254 
000015ad 00 
000015ae 1587       4680 	.data.b	135,21
000015b0 20         4681 	.data.b	32
000015b1 03         4682 	.data.b	3
000015b2 00000000*  4683 	.data.w	.LDW_607a9a0
000015b6 2302       4684 	.data.b	2,35
000015b8 00         4685 	.data.b	0

                                                                      Page 93
                                                              C:\Users\Fengyuan\AppData\Local\Temp\gh_0000fuk1.s
000015b9 01         4686 	.data.b	1
                    4687 
000015ba 00         4688 	.data.b	0
                    4689 
                    4690 .LDW_607c4a8:
000015bb 2a         4691 	.data.b	42
000015bc 5f6d6f43   4692 	.data.b	67,111,109,95,84,120,77,111,100,101,84,114,117,101,84,121,112,101,0
000015c0 6f4d7854 
000015c4 72546564 
000015c8 79546575 
000015cc 006570 
000015cf 1588       4693 	.data.b	136,21
000015d1 03         4694 	.data.b	3
000015d2 03         4695 	.data.b	3
000015d3 00000000*  4696 	.data.w	.LDW_607a4d0
                    4697 
                    4698 .LDW_607c9d0:
000015d7 42         4699 	.data.b	66
000015d8 6d6f4373   4700 	.data.b	115,67,111,109,95,84,120,80,100,117,71,114,112,73,110,102,111,84,121,112,101,0
000015dc 5078545f 
000015e0 72477564 
000015e4 666e4970 
000015e8 7079546f 
000015ec 0065 
000015ee 158b       4701 	.data.b	139,21
000015f0 10         4702 	.data.b	16
000015f1 03         4703 	.data.b	3
000015f2 01         4704 	.data.b	1
000015f3 01         4705 	.data.b	1
                    4706 
                    4707 .LDW_5ea0ff8:
000015f4 25         4708 	.data.b	37
000015f5 47756450   4709 	.data.b	80,100,117,71,114,112,86,101,99,116,111,114,83,116,97,114,116,73,100,120,79,102,84,120,80,100,117,71,114,112,73,110,102,111,0
000015f9 65567072 
000015fd 726f7463 
00001601 72617453 
00001605 78644974 
00001609 7854664f 
0000160d 47756450 
00001611 6e497072 
00001615 006f66 
00001618 158d       4710 	.data.b	141,21
0000161a 2e         4711 	.data.b	46
0000161b 03         4712 	.data.b	3
0000161c 00000000*  4713 	.data.w	.LDW_607a8f0
00001620 2302       4714 	.data.b	2,35
00001622 00         4715 	.data.b	0
00001623 01         4716 	.data.b	1
                    4717 
00001624 00         4718 	.data.b	0
                    4719 
                    4720 .LDW_607c920:
00001625 2a         4721 	.data.b	42
00001626 5f6d6f43   4722 	.data.b	67,111,109,95,84,120,80,100,117,71,114,112,73,110,102,111,84,121,112,101,0
0000162a 64507854 
0000162e 70724775 
00001632 6f666e49 
00001636 65707954 
0000163a 00 
0000163b 158e       4723 	.data.b	142,21
0000163d 03         4724 	.data.b	3

                                                                      Page 94
                                                              C:\Users\Fengyuan\AppData\Local\Temp\gh_0000fuk1.s
0000163e 03         4725 	.data.b	3
0000163f 00000000*  4726 	.data.w	.LDW_607c9d0
                    4727 
                    4728 .LDW_607c710:
00001643 42         4729 	.data.b	66
00001644 6d6f4373   4730 	.data.b	115,67,111,109,95,84,120,80,100,117,73,110,102,111,84,121,112,101,0
00001648 5078545f 
0000164c 6e497564 
00001650 79546f66 
00001654 006570 
00001657 1591       4731 	.data.b	145,21
00001659 10         4732 	.data.b	16
0000165a 03         4733 	.data.b	3
0000165b 04         4734 	.data.b	4
0000165c 01         4735 	.data.b	1
                    4736 
                    4737 .LDW_5ea0a10:
0000165d 25         4738 	.data.b	37
0000165e 64507854   4739 	.data.b	84,120,80,100,117,73,110,105,116,86,97,108,117,101,85,115,101,100,79,102,84,120,80,100,117,73,110,102,111,0
00001662 696e4975 
00001666 6c615674 
0000166a 73556575 
0000166e 664f6465 
00001672 64507854 
00001676 666e4975 
0000167a 006f 
0000167c 1593       4740 	.data.b	147,21
0000167e 29         4741 	.data.b	41
0000167f 03         4742 	.data.b	3
00001680 00000000*  4743 	.data.w	.LDW_607a318
00001684 2302       4744 	.data.b	2,35
00001686 00         4745 	.data.b	0
00001687 01         4746 	.data.b	1
                    4747 
                    4748 .LDW_5ea0ce0:
00001688 25         4749 	.data.b	37
00001689 6174654d   4750 	.data.b	77,101,116,97,68,97,116,97,76,101,110,103,116,104,79,102,84,120,80,100,117,73,110,102,111,0
0000168d 61746144 
00001691 676e654c 
00001695 664f6874 
00001699 64507854 
0000169d 666e4975 
000016a1 006f 
000016a3 1594       4751 	.data.b	148,21
000016a5 25         4752 	.data.b	37
000016a6 03         4753 	.data.b	3
000016a7 00000000*  4754 	.data.w	.LDW_607ab00
000016ab 2302       4755 	.data.b	2,35
000016ad 01         4756 	.data.b	1
000016ae 01         4757 	.data.b	1
                    4758 
                    4759 .LDW_5ea0e90:
000016af 25         4760 	.data.b	37
000016b0 75427854   4761 	.data.b	84,120,66,117,102,102,101,114,76,101,110,103,116,104,79,102,84,120,80,100,117,73,110,102,111,0
000016b4 72656666 
000016b8 676e654c 
000016bc 664f6874 
000016c0 64507854 
000016c4 666e4975 
000016c8 006f 
000016ca 1595       4762 	.data.b	149,21

                                                                      Page 95
                                                              C:\Users\Fengyuan\AppData\Local\Temp\gh_0000fuk1.s
000016cc 25         4763 	.data.b	37
000016cd 03         4764 	.data.b	3
000016ce 00000000*  4765 	.data.w	.LDW_607a840
000016d2 2302       4766 	.data.b	2,35
000016d4 02         4767 	.data.b	2
000016d5 01         4768 	.data.b	1
                    4769 
                    4770 .LDW_5ea0e48:
000016d6 25         4771 	.data.b	37
000016d7 64507854   4772 	.data.b	84,120,80,100,117,73,110,105,116,86,97,108,117,101,83,116,97,114,116,73,100,120,79,102,84,120,80,100,117,73,110,102,111,0
000016db 696e4975 
000016df 6c615674 
000016e3 74536575 
000016e7 49747261 
000016eb 664f7864 
000016ef 64507854 
000016f3 666e4975 
000016f7 006f 
000016f9 1596       4773 	.data.b	150,21
000016fb 2d         4774 	.data.b	45
000016fc 03         4775 	.data.b	3
000016fd 00000000*  4776 	.data.w	.LDW_607ab58
00001701 2302       4777 	.data.b	2,35
00001703 03         4778 	.data.b	3
00001704 01         4779 	.data.b	1
                    4780 
00001705 00         4781 	.data.b	0
                    4782 
                    4783 .LDW_607c348:
00001706 2a         4784 	.data.b	42
00001707 5f6d6f43   4785 	.data.b	67,111,109,95,84,120,80,100,117,73,110,102,111,84,121,112,101,0
0000170b 64507854 
0000170f 666e4975 
00001713 7079546f 
00001717 0065 
00001719 1597       4786 	.data.b	151,21
0000171b 03         4787 	.data.b	3
0000171c 03         4788 	.data.b	3
0000171d 00000000*  4789 	.data.w	.LDW_607c710
                    4790 
                    4791 .LDW_607c500:
00001721 42         4792 	.data.b	66
00001722 6d6f4373   4793 	.data.b	115,67,111,109,95,84,120,83,105,103,73,110,102,111,84,121,112,101,0
00001726 5378545f 
0000172a 6e496769 
0000172e 79546f66 
00001732 006570 
00001735 159a       4794 	.data.b	154,21
00001737 10         4795 	.data.b	16
00001738 03         4796 	.data.b	3
00001739 05         4797 	.data.b	5
0000173a 01         4798 	.data.b	1
                    4799 
                    4800 .LDW_5ea0e00:
0000173b 25         4801 	.data.b	37
0000173c 4c746942   4802 	.data.b	66,105,116,76,101,110,103,116,104,79,102,84,120,83,105,103,73,110,102,111,0
00001740 74676e65 
00001744 54664f68 
00001748 67695378 
0000174c 6f666e49 
00001750 00 

                                                                      Page 96
                                                              C:\Users\Fengyuan\AppData\Local\Temp\gh_0000fuk1.s
00001751 159c       4803 	.data.b	156,21
00001753 20         4804 	.data.b	32
00001754 03         4805 	.data.b	3
00001755 00000000*  4806 	.data.w	.LDW_6079ea0
00001759 2302       4807 	.data.b	2,35
0000175b 00         4808 	.data.b	0
0000175c 01         4809 	.data.b	1
                    4810 
                    4811 .LDW_5ea0d70:
0000175d 25         4812 	.data.b	37
0000175e 50746942   4813 	.data.b	66,105,116,80,111,115,105,116,105,111,110,79,102,84,120,83,105,103,73,110,102,111,0
00001762 7469736f 
00001766 4f6e6f69 
0000176a 53785466 
0000176e 6e496769 
00001772 006f66 
00001775 159d       4814 	.data.b	157,21
00001777 22         4815 	.data.b	34
00001778 03         4816 	.data.b	3
00001779 00000000*  4817 	.data.w	.LDW_5ef2278
0000177d 2302       4818 	.data.b	2,35
0000177f 01         4819 	.data.b	1
00001780 01         4820 	.data.b	1
                    4821 
                    4822 .LDW_5ea0ed8:
00001781 25         4823 	.data.b	37
00001782 65747942   4824 	.data.b	66,121,116,101,76,101,110,103,116,104,79,102,84,120,83,105,103,73,110,102,111,0
00001786 676e654c 
0000178a 664f6874 
0000178e 69537854 
00001792 666e4967 
00001796 006f 
00001798 159e       4825 	.data.b	158,21
0000179a 21         4826 	.data.b	33
0000179b 03         4827 	.data.b	3
0000179c 00000000*  4828 	.data.w	.LDW_607a5d8
000017a0 2302       4829 	.data.b	2,35
000017a2 02         4830 	.data.b	2
000017a3 01         4831 	.data.b	1
                    4832 
                    4833 .LDW_5ea0bc0:
000017a4 25         4834 	.data.b	37
000017a5 75427854   4835 	.data.b	84,120,66,117,102,102,101,114,76,101,110,103,116,104,79,102,84,120,83,105,103,73,110,102,111,0
000017a9 72656666 
000017ad 676e654c 
000017b1 664f6874 
000017b5 69537854 
000017b9 666e4967 
000017bd 006f 
000017bf 159f       4836 	.data.b	159,21
000017c1 25         4837 	.data.b	37
000017c2 03         4838 	.data.b	3
000017c3 00000000*  4839 	.data.w	.LDW_607a630
000017c7 2302       4840 	.data.b	2,35
000017c9 03         4841 	.data.b	3
000017ca 01         4842 	.data.b	1
                    4843 
                    4844 .LDW_5ea0c08:
000017cb 25         4845 	.data.b	37
000017cc 75427854   4846 	.data.b	84,120,66,117,102,102,101,114,83,116,97,114,116,73,100,120,79,102,84,120,83,105,103,73,110,102,111,0
000017d0 72656666 

                                                                      Page 97
                                                              C:\Users\Fengyuan\AppData\Local\Temp\gh_0000fuk1.s
000017d4 72617453 
000017d8 78644974 
000017dc 7854664f 
000017e0 49676953 
000017e4 006f666e 
000017e8 15a0       4847 	.data.b	160,21
000017ea 27         4848 	.data.b	39
000017eb 03         4849 	.data.b	3
000017ec 00000000*  4850 	.data.w	.LDW_607a688
000017f0 2302       4851 	.data.b	2,35
000017f2 04         4852 	.data.b	4
000017f3 01         4853 	.data.b	1
                    4854 
000017f4 00         4855 	.data.b	0
                    4856 
                    4857 .LDW_607c298:
000017f5 2a         4858 	.data.b	42
000017f6 5f6d6f43   4859 	.data.b	67,111,109,95,84,120,83,105,103,73,110,102,111,84,121,112,101,0
000017fa 69537854 
000017fe 666e4967 
00001802 7079546f 
00001806 0065 
00001808 15a1       4860 	.data.b	161,21
0000180a 03         4861 	.data.b	3
0000180b 03         4862 	.data.b	3
0000180c 00000000*  4863 	.data.w	.LDW_607c500
                    4864 
                    4865 .LDW_607ca80:
00001810 42         4866 	.data.b	66
00001811 5f6d6f43   4867 	.data.b	67,111,109,95,72,97,110,100,108,101,82,120,80,100,117,68,101,102,101,114,114,101,100,83,116,114,117,99,116,83,84,97,103,0
00001815 646e6148 
00001819 7852656c 
0000181d 44756450 
00001821 72656665 
00001825 53646572 
00001829 63757274 
0000182d 61545374 
00001831 0067 
00001833 15ad       4868 	.data.b	173,21
00001835 10         4869 	.data.b	16
00001836 03         4870 	.data.b	3
00001837 02         4871 	.data.b	2
00001838 01         4872 	.data.b	1
                    4873 
                    4874 .LDW_5ea0b78:
00001839 25         4875 	.data.b	37
0000183a 5f67736d   4876 	.data.b	109,115,103,95,82,101,99,101,105,118,101,95,111,67,65,78,48,48,95,50,98,52,53,54,101,51,102,95,82,120,0
0000183e 65636552 
00001842 5f657669 
00001846 4e41436f 
0000184a 325f3030 
0000184e 36353462 
00001852 5f663365 
00001856 007852 
00001859 15af       4877 	.data.b	175,21
0000185b 1f         4878 	.data.b	31
0000185c 03         4879 	.data.b	3
0000185d 00000000*  4880 	.data.w	.LDW_60782b0
00001861 2302       4881 	.data.b	2,35
00001863 00         4882 	.data.b	0
00001864 01         4883 	.data.b	1

                                                                      Page 98
                                                              C:\Users\Fengyuan\AppData\Local\Temp\gh_0000fuk1.s
                    4884 
00001865 00         4885 	.data.b	0
                    4886 
                    4887 .LDW_607c6b8:
00001866 2a         4888 	.data.b	42
00001867 5f6d6f43   4889 	.data.b	67,111,109,95,72,97,110,100,108,101,82,120,80,100,117,68,101,102,101,114,114,101,100,83,116,114,117,99,116,83,84,121,112,101,0
0000186b 646e6148 
0000186f 7852656c 
00001873 44756450 
00001877 72656665 
0000187b 53646572 
0000187f 63757274 
00001883 79545374 
00001887 006570 
0000188a 15b0       4890 	.data.b	176,21
0000188c 03         4891 	.data.b	3
0000188d 03         4892 	.data.b	3
0000188e 00000000*  4893 	.data.w	.LDW_607ca80
                    4894 
                    4895 .LDW_607c3a0:
00001892 42         4896 	.data.b	66
00001893 5f6d6f43   4897 	.data.b	67,111,109,95,82,120,68,101,102,80,100,117,66,117,102,102,101,114,83,116,114,117,99,116,83,84,97,103,0
00001897 65447852 
0000189b 75645066 
0000189f 66667542 
000018a3 74537265 
000018a7 74637572 
000018ab 67615453 
000018af 00 
000018b0 15b3       4898 	.data.b	179,21
000018b2 10         4899 	.data.b	16
000018b3 03         4900 	.data.b	3
000018b4 01         4901 	.data.b	1
000018b5 01         4902 	.data.b	1
                    4903 
                    4904 .LDW_5ea0fb0:
000018b6 25         4905 	.data.b	37
000018b7 5f67736d   4906 	.data.b	109,115,103,95,82,101,99,101,105,118,101,95,111,67,65,78,48,48,95,50,98,52,53,54,101,51,102,95,82,120,0
000018bb 65636552 
000018bf 5f657669 
000018c3 4e41436f 
000018c7 325f3030 
000018cb 36353462 
000018cf 5f663365 
000018d3 007852 
000018d6 15b5       4907 	.data.b	181,21
000018d8 1a         4908 	.data.b	26
000018d9 03         4909 	.data.b	3
000018da 00000000*  4910 	.data.w	.LDW_6077cd8
000018de 2302       4911 	.data.b	2,35
000018e0 00         4912 	.data.b	0
000018e1 01         4913 	.data.b	1
                    4914 
000018e2 00         4915 	.data.b	0
                    4916 
                    4917 .LDW_607c3f8:
000018e3 2a         4918 	.data.b	42
000018e4 5f6d6f43   4919 	.data.b	67,111,109,95,82,120,68,101,102,80,100,117,66,117,102,102,101,114,83,116,114,117,99,116,83,84,121,112,101,0
000018e8 65447852 
000018ec 75645066 
000018f0 66667542 

                                                                      Page 99
                                                              C:\Users\Fengyuan\AppData\Local\Temp\gh_0000fuk1.s
000018f4 74537265 
000018f8 74637572 
000018fc 70795453 
00001900 0065 
00001902 15b6       4920 	.data.b	182,21
00001904 03         4921 	.data.b	3
00001905 03         4922 	.data.b	3
00001906 00000000*  4923 	.data.w	.LDW_607c3a0
                    4924 
                    4925 .LDW_607c450:
0000190a 44         4926 	.data.b	68
0000190b 5f6d6f43   4927 	.data.b	67,111,109,95,72,97,110,100,108,101,82,120,80,100,117,68,101,102,101,114,114,101,100,85,84,97,103,0
0000190f 646e6148 
00001913 7852656c 
00001917 44756450 
0000191b 72656665 
0000191f 55646572 
00001923 00676154 
00001927 15c2       4928 	.data.b	194,21
00001929 0f         4929 	.data.b	15
0000192a 03         4930 	.data.b	3
0000192b 02         4931 	.data.b	2
0000192c 01         4932 	.data.b	1
                    4933 
                    4934 	.section	.debug_abbrev
000000a8 44         4935 	.data.b	68
000000a9 17         4936 	.data.b	23
000000aa 01         4937 	.data.b	1
000000ab 0803       4938 	.data.b	3,8
000000ad 0f3b       4939 	.data.b	59,15
000000af 0f39       4940 	.data.b	57,15
000000b1 0f3a       4941 	.data.b	58,15
000000b3 0f0b       4942 	.data.b	11,15
000000b5 0b32       4943 	.data.b	50,11
000000b7 0000       4944 	.data.b	0,0
                    4945 
                    4946 	.section	.debug_info
                    4947 .LDW_5ea0a58:
0000192d 25         4948 	.data.b	37
0000192e 00776172   4949 	.data.b	114,97,119,0
00001932 15c4       4950 	.data.b	196,21
00001934 1f         4951 	.data.b	31
00001935 03         4952 	.data.b	3
00001936 00000000*  4953 	.data.w	.LDW_607cc18
0000193a 2302       4954 	.data.b	2,35
0000193c 00         4955 	.data.b	0
0000193d 01         4956 	.data.b	1
                    4957 
                    4958 .LDW_5ea0c50:
0000193e 25         4959 	.data.b	37
0000193f 00727473   4960 	.data.b	115,116,114,0
00001943 15c5       4961 	.data.b	197,21
00001945 26         4962 	.data.b	38
00001946 03         4963 	.data.b	3
00001947 00000000*  4964 	.data.w	.LDW_607c6b8
0000194b 2302       4965 	.data.b	2,35
0000194d 00         4966 	.data.b	0
0000194e 01         4967 	.data.b	1
                    4968 
0000194f 00         4969 	.data.b	0
                    4970 

                                                                      Page 100
                                                              C:\Users\Fengyuan\AppData\Local\Temp\gh_0000fuk1.s
                    4971 .LDW_607c558:
00001950 2a         4972 	.data.b	42
00001951 5f6d6f43   4973 	.data.b	67,111,109,95,72,97,110,100,108,101,82,120,80,100,117,68,101,102,101,114,114,101,100,85,84,121,112,101,0
00001955 646e6148 
00001959 7852656c 
0000195d 44756450 
00001961 72656665 
00001965 55646572 
00001969 65707954 
0000196d 00 
0000196e 15c6       4974 	.data.b	198,21
00001970 03         4975 	.data.b	3
00001971 03         4976 	.data.b	3
00001972 00000000*  4977 	.data.w	.LDW_607c450
                    4978 
                    4979 .LDW_607ca28:
00001976 44         4980 	.data.b	68
00001977 5f6d6f43   4981 	.data.b	67,111,109,95,82,120,68,101,102,80,100,117,66,117,102,102,101,114,85,84,97,103,0
0000197b 65447852 
0000197f 75645066 
00001983 66667542 
00001987 54557265 
0000198b 006761 
0000198e 15c9       4982 	.data.b	201,21
00001990 0f         4983 	.data.b	15
00001991 03         4984 	.data.b	3
00001992 01         4985 	.data.b	1
00001993 01         4986 	.data.b	1
                    4987 
                    4988 .LDW_5ea0c98:
00001994 25         4989 	.data.b	37
00001995 00776172   4990 	.data.b	114,97,119,0
00001999 15cb       4991 	.data.b	203,21
0000199b 1a         4992 	.data.b	26
0000199c 03         4993 	.data.b	3
0000199d 00000000*  4994 	.data.w	.LDW_607cca0
000019a1 2302       4995 	.data.b	2,35
000019a3 00         4996 	.data.b	0
000019a4 01         4997 	.data.b	1
                    4998 
                    4999 .LDW_607cd58:
000019a5 25         5000 	.data.b	37
000019a6 00727473   5001 	.data.b	115,116,114,0
000019aa 15cc       5002 	.data.b	204,21
000019ac 21         5003 	.data.b	33
000019ad 03         5004 	.data.b	3
000019ae 00000000*  5005 	.data.w	.LDW_607c3f8
000019b2 2302       5006 	.data.b	2,35
000019b4 00         5007 	.data.b	0
000019b5 01         5008 	.data.b	1
                    5009 
000019b6 00         5010 	.data.b	0
                    5011 
                    5012 .LDW_607c5b0:
000019b7 2a         5013 	.data.b	42
000019b8 5f6d6f43   5014 	.data.b	67,111,109,95,82,120,68,101,102,80,100,117,66,117,102,102,101,114,85,84,121,112,101,0
000019bc 65447852 
000019c0 75645066 
000019c4 66667542 
000019c8 54557265 
000019cc 00657079 

                                                                      Page 101
                                                              C:\Users\Fengyuan\AppData\Local\Temp\gh_0000fuk1.s
000019d0 15cd       5015 	.data.b	205,21
000019d2 03         5016 	.data.b	3
000019d3 03         5017 	.data.b	3
000019d4 00000000*  5018 	.data.w	.LDW_607ca28
                    5019 
                    5020 .LDW_6043df8:
000019d8 42         5021 	.data.b	66
000019d9 6d6f4373   5022 	.data.b	115,67,111,109,95,80,67,67,111,110,102,105,103,84,121,112,101,0
000019dd 4343505f 
000019e1 69666e6f 
000019e5 70795467 
000019e9 0065 
000019eb 16d7       5023 	.data.b	215,22
000019ed 10         5024 	.data.b	16
000019ee 03         5025 	.data.b	3
000019ef 01         5026 	.data.b	1
000019f0 01         5027 	.data.b	1
                    5028 
                    5029 .LDW_607d148:
000019f1 25         5030 	.data.b	37
000019f2 5f6d6f43   5031 	.data.b	67,111,109,95,80,67,67,111,110,102,105,103,78,101,118,101,114,85,115,101,100,0
000019f6 6f434350 
000019fa 6769666e 
000019fe 6576654e 
00001a02 65735572 
00001a06 0064 
00001a08 16d9       5032 	.data.b	217,22
00001a0a 09         5033 	.data.b	9
00001a0b 03         5034 	.data.b	3
00001a0c 00000000*  5035 	.data.w	.LDW_5e8ef00
00001a10 2302       5036 	.data.b	2,35
00001a12 00         5037 	.data.b	0
00001a13 01         5038 	.data.b	1
                    5039 
00001a14 00         5040 	.data.b	0
                    5041 
                    5042 .LDW_6044588:
00001a15 2a         5043 	.data.b	42
00001a16 5f6d6f43   5044 	.data.b	67,111,109,95,80,67,67,111,110,102,105,103,84,121,112,101,0
00001a1a 6f434350 
00001a1e 6769666e 
00001a22 65707954 
00001a26 00 
00001a27 16da       5045 	.data.b	218,22
00001a29 03         5046 	.data.b	3
00001a2a 03         5047 	.data.b	3
00001a2b 00000000*  5048 	.data.w	.LDW_6043df8
                    5049 
                    5050 .LDW_6043f58:
00001a2f 2a         5051 	.data.b	42
00001a30 5f6d6f43   5052 	.data.b	67,111,109,95,67,111,110,102,105,103,84,121,112,101,0
00001a34 666e6f43 
00001a38 79546769 
00001a3c 006570 
00001a3f 16dc       5053 	.data.b	220,22
00001a41 1a         5054 	.data.b	26
00001a42 03         5055 	.data.b	3
00001a43 00000000*  5056 	.data.w	.LDW_6044588
                    5057 
                    5058 .LDW_607ba00:
00001a47 2a         5059 	.data.b	42

                                                                      Page 102
                                                              C:\Users\Fengyuan\AppData\Local\Temp\gh_0000fuk1.s
00001a48 64745356   5060 	.data.b	86,83,116,100,76,105,98,95,67,110,116,84,121,112,101,0
00001a4c 5f62694c 
00001a50 54746e43 
00001a54 00657079 
00001a58 019a       5061 	.data.b	154,1
00001a5a 16         5062 	.data.b	22
00001a5b 17         5063 	.data.b	23
00001a5c 00000000*  5064 	.data.w	.LDW_5ef2850
                    5065 
                    5066 .LDW_6044848:
00001a60 30         5067 	.data.b	48
00001a61 00         5068 	.data.b	0
00001a62 02f9       5069 	.data.b	249,2
00001a64 01         5070 	.data.b	1
00001a65 02         5071 	.data.b	2
00001a66 04         5072 	.data.b	4
00001a67 01         5073 	.data.b	1
                    5074 
                    5075 	.section	.debug_abbrev
000000b9 30         5076 	.data.b	48
000000ba 04         5077 	.data.b	4
000000bb 01         5078 	.data.b	1
000000bc 0803       5079 	.data.b	3,8
000000be 0f3b       5080 	.data.b	59,15
000000c0 0f39       5081 	.data.b	57,15
000000c2 0f3a       5082 	.data.b	58,15
000000c4 0f0b       5083 	.data.b	11,15
000000c6 0b32       5084 	.data.b	50,11
000000c8 0000       5085 	.data.b	0,0
                    5086 
                    5087 	.section	.debug_info
                    5088 .LDW_5ef5060:
00001a68 2f         5089 	.data.b	47
00001a69 5f4d4f43   5090 	.data.b	67,79,77,95,85,78,73,78,73,84,0
00001a6d 4e494e55 
00001a71 005449 
00001a74 02fa       5091 	.data.b	250,2
00001a76 03         5092 	.data.b	3
00001a77 02         5093 	.data.b	2
00001a78 00         5094 	.data.b	0
                    5095 
                    5096 	.section	.debug_abbrev
000000ca 2f         5097 	.data.b	47
000000cb 28         5098 	.data.b	40
000000cc 00         5099 	.data.b	0
000000cd 0803       5100 	.data.b	3,8
000000cf 0f3b       5101 	.data.b	59,15
000000d1 0f39       5102 	.data.b	57,15
000000d3 0f3a       5103 	.data.b	58,15
000000d5 0d1c       5104 	.data.b	28,13
000000d7 0000       5105 	.data.b	0,0
                    5106 
                    5107 	.section	.debug_info
                    5108 .LDW_49fc6b8:
00001a79 2f         5109 	.data.b	47
00001a7a 5f4d4f43   5110 	.data.b	67,79,77,95,73,78,73,84,0
00001a7e 54494e49 
00001a82 00 
00001a83 02fb       5111 	.data.b	251,2
00001a85 03         5112 	.data.b	3
00001a86 02         5113 	.data.b	2

                                                                      Page 103
                                                              C:\Users\Fengyuan\AppData\Local\Temp\gh_0000fuk1.s
00001a87 01         5114 	.data.b	1
                    5115 
00001a88 00         5116 	.data.b	0
                    5117 
                    5118 .LDW_60445e0:
00001a89 2a         5119 	.data.b	42
00001a8a 5f6d6f43   5120 	.data.b	67,111,109,95,83,116,97,116,117,115,84,121,112,101,0
00001a8e 74617453 
00001a92 79547375 
00001a96 006570 
00001a99 02fc       5121 	.data.b	252,2
00001a9b 03         5122 	.data.b	3
00001a9c 02         5123 	.data.b	2
00001a9d 00000000*  5124 	.data.w	.LDW_6044848
                    5125 
                    5126 .LDW_607ba58:
00001aa1 30         5127 	.data.b	48
00001aa2 00         5128 	.data.b	0
00001aa3 038a       5129 	.data.b	138,3
00001aa5 01         5130 	.data.b	1
00001aa6 02         5131 	.data.b	2
00001aa7 04         5132 	.data.b	4
00001aa8 01         5133 	.data.b	1
                    5134 
                    5135 .LDW_6077710:
00001aa9 2f         5136 	.data.b	47
00001aaa 534d4f43   5137 	.data.b	67,79,77,83,101,114,118,105,99,101,73,100,95,73,110,105,116,0
00001aae 69767265 
00001ab2 64496563 
00001ab6 696e495f 
00001aba 0074 
00001abc 038b       5138 	.data.b	139,3
00001abe 03         5139 	.data.b	3
00001abf 02         5140 	.data.b	2
00001ac0 01         5141 	.data.b	1
                    5142 
                    5143 .LDW_6077a10:
00001ac1 2f         5144 	.data.b	47
00001ac2 534d4f43   5145 	.data.b	67,79,77,83,101,114,118,105,99,101,73,100,95,68,101,73,110,105,116,0
00001ac6 69767265 
00001aca 64496563 
00001ace 4965445f 
00001ad2 0074696e 
00001ad6 038c       5146 	.data.b	140,3
00001ad8 03         5147 	.data.b	3
00001ad9 02         5148 	.data.b	2
00001ada 02         5149 	.data.b	2
                    5150 
                    5151 .LDW_60774d0:
00001adb 2f         5152 	.data.b	47
00001adc 534d4f43   5153 	.data.b	67,79,77,83,101,114,118,105,99,101,73,100,95,73,112,100,117,71,114,111,117,112,67,111,110,116,114,111,108,0
00001ae0 69767265 
00001ae4 64496563 
00001ae8 6470495f 
00001aec 6f724775 
00001af0 6f437075 
00001af4 6f72746e 
00001af8 006c 
00001afa 038d       5154 	.data.b	141,3
00001afc 03         5155 	.data.b	3
00001afd 02         5156 	.data.b	2

                                                                      Page 104
                                                              C:\Users\Fengyuan\AppData\Local\Temp\gh_0000fuk1.s
00001afe 03         5157 	.data.b	3
                    5158 
                    5159 .LDW_6077ad0:
00001aff 2f         5160 	.data.b	47
00001b00 534d4f43   5161 	.data.b	67,79,77,83,101,114,118,105,99,101,73,100,95,82,101,99,101,112,116,105,111,110,68,77,67,111,110,116,114,111,108,0
00001b04 69767265 
00001b08 64496563 
00001b0c 6365525f 
00001b10 69747065 
00001b14 4d446e6f 
00001b18 746e6f43 
00001b1c 006c6f72 
00001b20 038e       5162 	.data.b	142,3
00001b22 03         5163 	.data.b	3
00001b23 02         5164 	.data.b	2
00001b24 06         5165 	.data.b	6
                    5166 
                    5167 .LDW_6077a50:
00001b25 2f         5168 	.data.b	47
00001b26 534d4f43   5169 	.data.b	67,79,77,83,101,114,118,105,99,101,73,100,95,71,101,116,83,116,97,116,117,115,0
00001b2a 69767265 
00001b2e 64496563 
00001b32 7465475f 
00001b36 74617453 
00001b3a 007375 
00001b3d 038f       5170 	.data.b	143,3
00001b3f 03         5171 	.data.b	3
00001b40 02         5172 	.data.b	2
00001b41 07         5173 	.data.b	7
                    5174 
                    5175 .LDW_6077990:
00001b42 2f         5176 	.data.b	47
00001b43 534d4f43   5177 	.data.b	67,79,77,83,101,114,118,105,99,101,73,100,95,71,101,116,67,111,110,102,105,103,117,114,97,116,105,111,110,73,100,0
00001b47 69767265 
00001b4b 64496563 
00001b4f 7465475f 
00001b53 666e6f43 
00001b57 72756769 
00001b5b 6f697461 
00001b5f 0064496e 
00001b63 0390       5178 	.data.b	144,3
00001b65 03         5179 	.data.b	3
00001b66 02         5180 	.data.b	2
00001b67 08         5181 	.data.b	8
                    5182 
                    5183 .LDW_60773d0:
00001b68 2f         5184 	.data.b	47
00001b69 534d4f43   5185 	.data.b	67,79,77,83,101,114,118,105,99,101,73,100,95,71,101,116,86,101,114,115,105,111,110,73,110,102,111,0
00001b6d 69767265 
00001b71 64496563 
00001b75 7465475f 
00001b79 73726556 
00001b7d 496e6f69 
00001b81 006f666e 
00001b85 0391       5186 	.data.b	145,3
00001b87 03         5187 	.data.b	3
00001b88 02         5188 	.data.b	2
00001b89 09         5189 	.data.b	9
                    5190 
                    5191 .LDW_60776d0:
00001b8a 2f         5192 	.data.b	47

                                                                      Page 105
                                                              C:\Users\Fengyuan\AppData\Local\Temp\gh_0000fuk1.s
00001b8b 534d4f43   5193 	.data.b	67,79,77,83,101,114,118,105,99,101,73,100,95,83,101,110,100,83,105,103,110,97,108,0
00001b8f 69767265 
00001b93 64496563 
00001b97 6e65535f 
00001b9b 67695364 
00001b9f 006c616e 
00001ba3 0392       5194 	.data.b	146,3
00001ba5 03         5195 	.data.b	3
00001ba6 02         5196 	.data.b	2
00001ba7 0a         5197 	.data.b	10
                    5198 
                    5199 .LDW_6077550:
00001ba8 2f         5200 	.data.b	47
00001ba9 534d4f43   5201 	.data.b	67,79,77,83,101,114,118,105,99,101,73,100,95,82,101,99,101,105,118,101,83,105,103,110,97,108,0
00001bad 69767265 
00001bb1 64496563 
00001bb5 6365525f 
00001bb9 65766965 
00001bbd 6e676953 
00001bc1 006c61 
00001bc4 0393       5202 	.data.b	147,3
00001bc6 03         5203 	.data.b	3
00001bc7 02         5204 	.data.b	2
00001bc8 0b         5205 	.data.b	11
                    5206 
                    5207 .LDW_6077a90:
00001bc9 2f         5208 	.data.b	47
00001bca 534d4f43   5209 	.data.b	67,79,77,83,101,114,118,105,99,101,73,100,95,83,101,110,100,83,105,103,110,97,108,71,114,111,117,112,0
00001bce 69767265 
00001bd2 64496563 
00001bd6 6e65535f 
00001bda 67695364 
00001bde 476c616e 
00001be2 70756f72 
00001be6 00 
00001be7 0394       5210 	.data.b	148,3
00001be9 03         5211 	.data.b	3
00001bea 02         5212 	.data.b	2
00001beb 0d         5213 	.data.b	13
                    5214 
                    5215 .LDW_6077590:
00001bec 2f         5216 	.data.b	47
00001bed 534d4f43   5217 	.data.b	67,79,77,83,101,114,118,105,99,101,73,100,95,82,101,99,101,105,118,101,83,105,103,110,97,108,71,114,111,117,112,0
00001bf1 69767265 
00001bf5 64496563 
00001bf9 6365525f 
00001bfd 65766965 
00001c01 6e676953 
00001c05 72476c61 
00001c09 0070756f 
00001c0d 0395       5218 	.data.b	149,3
00001c0f 03         5219 	.data.b	3
00001c10 02         5220 	.data.b	2
00001c11 0e         5221 	.data.b	14
                    5222 
                    5223 .LDW_6077690:
00001c12 2f         5224 	.data.b	47
00001c13 534d4f43   5225 	.data.b	67,79,77,83,101,114,118,105,99,101,73,100,95,73,110,118,97,108,105,100,97,116,101,83,105,103,110,97,108,0
00001c17 69767265 
00001c1b 64496563 
00001c1f 766e495f 

                                                                      Page 106
                                                              C:\Users\Fengyuan\AppData\Local\Temp\gh_0000fuk1.s
00001c23 64696c61 
00001c27 53657461 
00001c2b 616e6769 
00001c2f 006c 
00001c31 0396       5226 	.data.b	150,3
00001c33 03         5227 	.data.b	3
00001c34 02         5228 	.data.b	2
00001c35 10         5229 	.data.b	16
                    5230 
                    5231 .LDW_6077b10:
00001c36 2f         5232 	.data.b	47
00001c37 534d4f43   5233 	.data.b	67,79,77,83,101,114,118,105,99,101,73,100,95,84,114,105,103,103,101,114,73,80,68,85,83,101,110,100,0
00001c3b 69767265 
00001c3f 64496563 
00001c43 6972545f 
00001c47 72656767 
00001c4b 55445049 
00001c4f 646e6553 
00001c53 00 
00001c54 0397       5234 	.data.b	151,3
00001c56 03         5235 	.data.b	3
00001c57 02         5236 	.data.b	2
00001c58 17         5237 	.data.b	23
                    5238 
                    5239 .LDW_6077390:
00001c59 2f         5240 	.data.b	47
00001c5a 534d4f43   5241 	.data.b	67,79,77,83,101,114,118,105,99,101,73,100,95,77,97,105,110,70,117,110,99,116,105,111,110,82,120,0
00001c5e 69767265 
00001c62 64496563 
00001c66 69614d5f 
00001c6a 6e75466e 
00001c6e 6f697463 
00001c72 0078526e 
00001c76 0398       5242 	.data.b	152,3
00001c78 03         5243 	.data.b	3
00001c79 02         5244 	.data.b	2
00001c7a 18         5245 	.data.b	24
                    5246 
                    5247 .LDW_6077410:
00001c7b 2f         5248 	.data.b	47
00001c7c 534d4f43   5249 	.data.b	67,79,77,83,101,114,118,105,99,101,73,100,95,77,97,105,110,70,117,110,99,116,105,111,110,84,120,0
00001c80 69767265 
00001c84 64496563 
00001c88 69614d5f 
00001c8c 6e75466e 
00001c90 6f697463 
00001c94 0078546e 
00001c98 0399       5250 	.data.b	153,3
00001c9a 03         5251 	.data.b	3
00001c9b 02         5252 	.data.b	2
00001c9c 19         5253 	.data.b	25
                    5254 
                    5255 .LDW_6077750:
00001c9d 2f         5256 	.data.b	47
00001c9e 534d4f43   5257 	.data.b	67,79,77,83,101,114,118,105,99,101,73,100,95,77,97,105,110,70,117,110,99,116,105,111,110,82,111,117,116,101,83,105,103,110,97,108,115,0
00001ca2 69767265 
00001ca6 64496563 
00001caa 69614d5f 
00001cae 6e75466e 
00001cb2 6f697463 
00001cb6 756f526e 

                                                                      Page 107
                                                              C:\Users\Fengyuan\AppData\Local\Temp\gh_0000fuk1.s
00001cba 69536574 
00001cbe 6c616e67 
00001cc2 0073 
00001cc4 039a       5258 	.data.b	154,3
00001cc6 03         5259 	.data.b	3
00001cc7 02         5260 	.data.b	2
00001cc8 1a         5261 	.data.b	26
                    5262 
                    5263 .LDW_6077450:
00001cc9 2f         5264 	.data.b	47
00001cca 534d4f43   5265 	.data.b	67,79,77,83,101,114,118,105,99,101,73,100,95,73,110,118,97,108,105,100,97,116,101,83,105,103,110,97,108,71,114,111,117,112,0
00001cce 69767265 
00001cd2 64496563 
00001cd6 766e495f 
00001cda 64696c61 
00001cde 53657461 
00001ce2 616e6769 
00001ce6 6f72476c 
00001cea 007075 
00001ced 039b       5266 	.data.b	155,3
00001cef 03         5267 	.data.b	3
00001cf0 02         5268 	.data.b	2
00001cf1 1b         5269 	.data.b	27
                    5270 
                    5271 .LDW_60777d0:
00001cf2 2f         5272 	.data.b	47
00001cf3 534d4f43   5273 	.data.b	67,79,77,83,101,114,118,105,99,101,73,100,95,67,108,101,97,114,73,112,100,117,71,114,111,117,112,86,101,99,116,111,114,0
00001cf7 69767265 
00001cfb 64496563 
00001cff 656c435f 
00001d03 70497261 
00001d07 72477564 
00001d0b 5670756f 
00001d0f 6f746365 
00001d13 0072 
00001d15 039c       5274 	.data.b	156,3
00001d17 03         5275 	.data.b	3
00001d18 02         5276 	.data.b	2
00001d19 1c         5277 	.data.b	28
                    5278 
                    5279 .LDW_6077610:
00001d1a 2f         5280 	.data.b	47
00001d1b 534d4f43   5281 	.data.b	67,79,77,83,101,114,118,105,99,101,73,100,95,83,101,116,73,112,100,117,71,114,111,117,112,0
00001d1f 69767265 
00001d23 64496563 
00001d27 7465535f 
00001d2b 75647049 
00001d2f 756f7247 
00001d33 0070 
00001d35 039d       5282 	.data.b	157,3
00001d37 03         5283 	.data.b	3
00001d38 02         5284 	.data.b	2
00001d39 1d         5285 	.data.b	29
                    5286 
                    5287 .LDW_6077650:
00001d3a 2f         5288 	.data.b	47
00001d3b 534d4f43   5289 	.data.b	67,79,77,83,101,114,118,105,99,101,73,100,95,83,101,110,100,68,121,110,83,105,103,110,97,108,0
00001d3f 69767265 
00001d43 64496563 
00001d47 6e65535f 
00001d4b 6e794464 

                                                                      Page 108
                                                              C:\Users\Fengyuan\AppData\Local\Temp\gh_0000fuk1.s
00001d4f 6e676953 
00001d53 006c61 
00001d56 039e       5290 	.data.b	158,3
00001d58 03         5291 	.data.b	3
00001d59 02         5292 	.data.b	2
00001d5a 21         5293 	.data.b	33
                    5294 
                    5295 .LDW_6077810:
00001d5b 2f         5296 	.data.b	47
00001d5c 534d4f43   5297 	.data.b	67,79,77,83,101,114,118,105,99,101,73,100,95,82,101,99,101,105,118,101,68,121,110,83,105,103,110,97,108,0
00001d60 69767265 
00001d64 64496563 
00001d68 6365525f 
00001d6c 65766965 
00001d70 536e7944 
00001d74 616e6769 
00001d78 006c 
00001d7a 039f       5298 	.data.b	159,3
00001d7c 03         5299 	.data.b	3
00001d7d 02         5300 	.data.b	2
00001d7e 22         5301 	.data.b	34
                    5302 
                    5303 .LDW_6077850:
00001d7f 2f         5304 	.data.b	47
00001d80 534d4f43   5305 	.data.b	67,79,77,83,101,114,118,105,99,101,73,100,95,83,101,110,100,83,105,103,110,97,108,71,114,111,117,112,65,114,114,97,121,0
00001d84 69767265 
00001d88 64496563 
00001d8c 6e65535f 
00001d90 67695364 
00001d94 476c616e 
00001d98 70756f72 
00001d9c 61727241 
00001da0 0079 
00001da2 03a0       5306 	.data.b	160,3
00001da4 03         5307 	.data.b	3
00001da5 02         5308 	.data.b	2
00001da6 23         5309 	.data.b	35
                    5310 
                    5311 .LDW_6077510:
00001da7 2f         5312 	.data.b	47
00001da8 534d4f43   5313 	.data.b	67,79,77,83,101,114,118,105,99,101,73,100,95,82,101,99,101,105,118,101,83,105,103,110,97,108,71,114,111,117,112,65,114,114,97,121,0
00001dac 69767265 
00001db0 64496563 
00001db4 6365525f 
00001db8 65766965 
00001dbc 6e676953 
00001dc0 72476c61 
00001dc4 4170756f 
00001dc8 79617272 
00001dcc 00 
00001dcd 03a1       5314 	.data.b	161,3
00001dcf 03         5315 	.data.b	3
00001dd0 02         5316 	.data.b	2
00001dd1 24         5317 	.data.b	36
                    5318 
                    5319 .LDW_6077890:
00001dd2 2f         5320 	.data.b	47
00001dd3 534d4f43   5321 	.data.b	67,79,77,83,101,114,118,105,99,101,73,100,95,83,119,105,116,99,104,73,112,100,117,84,120,77,111,100,101,0
00001dd7 69767265 
00001ddb 64496563 
00001ddf 6977535f 

                                                                      Page 109
                                                              C:\Users\Fengyuan\AppData\Local\Temp\gh_0000fuk1.s
00001de3 49686374 
00001de7 54756470 
00001deb 646f4d78 
00001def 0065 
00001df1 03a2       5322 	.data.b	162,3
00001df3 03         5323 	.data.b	3
00001df4 02         5324 	.data.b	2
00001df5 27         5325 	.data.b	39
                    5326 
                    5327 .LDW_60775d0:
00001df6 2f         5328 	.data.b	47
00001df7 534d4f43   5329 	.data.b	67,79,77,83,101,114,118,105,99,101,73,100,95,84,114,105,103,103,101,114,73,80,68,85,83,101,110,100,87,105,116,104,77,101,116,97,68,97,116,97,0
00001dfb 69767265 
00001dff 64496563 
00001e03 6972545f 
00001e07 72656767 
00001e0b 55445049 
00001e0f 646e6553 
00001e13 68746957 
00001e17 6174654d 
00001e1b 61746144 
00001e1f 00 
00001e20 03a3       5330 	.data.b	163,3
00001e22 03         5331 	.data.b	3
00001e23 02         5332 	.data.b	2
00001e24 28         5333 	.data.b	40
                    5334 
                    5335 .LDW_60778d0:
00001e25 2f         5336 	.data.b	47
00001e26 534d4f43   5337 	.data.b	67,79,77,83,101,114,118,105,99,101,73,100,95,84,120,67,111,110,102,105,114,109,97,116,105,111,110,0
00001e2a 69767265 
00001e2e 64496563 
00001e32 4378545f 
00001e36 69666e6f 
00001e3a 74616d72 
00001e3e 006e6f69 
00001e42 03a4       5338 	.data.b	164,3
00001e44 03         5339 	.data.b	3
00001e45 02         5340 	.data.b	2
00001e46 00c0       5341 	.data.b	192,0
                    5342 
                    5343 .LDW_6077910:
00001e48 2f         5344 	.data.b	47
00001e49 534d4f43   5345 	.data.b	67,79,77,83,101,114,118,105,99,101,73,100,95,84,114,105,103,103,101,114,84,114,97,110,115,109,105,116,0
00001e4d 69767265 
00001e51 64496563 
00001e55 6972545f 
00001e59 72656767 
00001e5d 6e617254 
00001e61 74696d73 
00001e65 00 
00001e66 03a5       5346 	.data.b	165,3
00001e68 03         5347 	.data.b	3
00001e69 02         5348 	.data.b	2
00001e6a 00c1       5349 	.data.b	193,0
                    5350 
                    5351 .LDW_6077950:
00001e6c 2f         5352 	.data.b	47
00001e6d 534d4f43   5353 	.data.b	67,79,77,83,101,114,118,105,99,101,73,100,95,82,120,73,110,100,105,99,97,116,105,111,110,0
00001e71 69767265 
00001e75 64496563 

                                                                      Page 110
                                                              C:\Users\Fengyuan\AppData\Local\Temp\gh_0000fuk1.s
00001e79 4978525f 
00001e7d 6369646e 
00001e81 6f697461 
00001e85 006e 
00001e87 03a6       5354 	.data.b	166,3
00001e89 03         5355 	.data.b	3
00001e8a 02         5356 	.data.b	2
00001e8b 00c2       5357 	.data.b	194,0
                    5358 
                    5359 .LDW_60779d0:
00001e8d 2f         5360 	.data.b	47
00001e8e 534d4f43   5361 	.data.b	67,79,77,83,101,114,118,105,99,101,73,100,95,67,111,112,121,84,120,68,97,116,97,0
00001e92 69767265 
00001e96 64496563 
00001e9a 706f435f 
00001e9e 44785479 
00001ea2 00617461 
00001ea6 03a7       5362 	.data.b	167,3
00001ea8 03         5363 	.data.b	3
00001ea9 02         5364 	.data.b	2
00001eaa 00c3       5365 	.data.b	195,0
                    5366 
                    5367 .LDW_607e8a8:
00001eac 2f         5368 	.data.b	47
00001ead 534d4f43   5369 	.data.b	67,79,77,83,101,114,118,105,99,101,73,100,95,67,111,112,121,82,120,68,97,116,97,0
00001eb1 69767265 
00001eb5 64496563 
00001eb9 706f435f 
00001ebd 44785279 
00001ec1 00617461 
00001ec5 03a8       5370 	.data.b	168,3
00001ec7 03         5371 	.data.b	3
00001ec8 02         5372 	.data.b	2
00001ec9 00c4       5373 	.data.b	196,0
                    5374 
                    5375 .LDW_607ece8:
00001ecb 2f         5376 	.data.b	47
00001ecc 534d4f43   5377 	.data.b	67,79,77,83,101,114,118,105,99,101,73,100,95,84,112,82,120,73,110,100,105,99,97,116,105,111,110,0
00001ed0 69767265 
00001ed4 64496563 
00001ed8 5270545f 
00001edc 646e4978 
00001ee0 74616369 
00001ee4 006e6f69 
00001ee8 03a9       5378 	.data.b	169,3
00001eea 03         5379 	.data.b	3
00001eeb 02         5380 	.data.b	2
00001eec 00c5       5381 	.data.b	197,0
                    5382 
                    5383 .LDW_607e9a8:
00001eee 2f         5384 	.data.b	47
00001eef 534d4f43   5385 	.data.b	67,79,77,83,101,114,118,105,99,101,73,100,95,83,116,97,114,116,79,102,82,101,99,101,112,116,105,111,110,0
00001ef3 69767265 
00001ef7 64496563 
00001efb 6174535f 
00001eff 664f7472 
00001f03 65636552 
00001f07 6f697470 
00001f0b 006e 
00001f0d 03aa       5386 	.data.b	170,3
00001f0f 03         5387 	.data.b	3

                                                                      Page 111
                                                              C:\Users\Fengyuan\AppData\Local\Temp\gh_0000fuk1.s
00001f10 02         5388 	.data.b	2
00001f11 00c6       5389 	.data.b	198,0
                    5390 
                    5391 .LDW_607eba8:
00001f13 2f         5392 	.data.b	47
00001f14 534d4f43   5393 	.data.b	67,79,77,83,101,114,118,105,99,101,73,100,95,84,112,84,120,67,111,110,102,105,114,109,97,116,105,111,110,0
00001f18 69767265 
00001f1c 64496563 
00001f20 5470545f 
00001f24 6e6f4378 
00001f28 6d726966 
00001f2c 6f697461 
00001f30 006e 
00001f32 03ab       5394 	.data.b	171,3
00001f34 03         5395 	.data.b	3
00001f35 02         5396 	.data.b	2
00001f36 00c8       5397 	.data.b	200,0
                    5398 
00001f38 00         5399 	.data.b	0
                    5400 
                    5401 .LDW_607b848:
00001f39 2a         5402 	.data.b	42
00001f3a 5f6d6f43   5403 	.data.b	67,111,109,95,83,101,114,118,105,99,101,73,100,84,121,112,101,0
00001f3e 76726553 
00001f42 49656369 
00001f46 70795464 
00001f4a 0065 
00001f4c 03ac       5404 	.data.b	172,3
00001f4e 03         5405 	.data.b	3
00001f4f 02         5406 	.data.b	2
00001f50 00000000*  5407 	.data.w	.LDW_607ba58
                    5408 
                    5409 .LDW_607fdc0:
00001f54 30         5410 	.data.b	48
00001f55 00         5411 	.data.b	0
00001f56 6c         5412 	.data.b	108
00001f57 01         5413 	.data.b	1
00001f58 27         5414 	.data.b	39
00001f59 04         5415 	.data.b	4
00001f5a 01         5416 	.data.b	1
                    5417 
                    5418 .LDW_607e7e8:
00001f5b 2f         5419 	.data.b	47
00001f5c 74737953   5420 	.data.b	83,121,115,116,101,109,65,112,112,108,105,99,97,116,105,111,110,95,79,115,67,111,114,101,48,0
00001f60 70416d65 
00001f64 63696c70 
00001f68 6f697461 
00001f6c 734f5f6e 
00001f70 65726f43 
00001f74 0030 
00001f76 6d         5421 	.data.b	109
00001f77 03         5422 	.data.b	3
00001f78 27         5423 	.data.b	39
00001f79 00         5424 	.data.b	0
                    5425 
                    5426 .LDW_607e6a8:
00001f7a 2f         5427 	.data.b	47
00001f7b 415f534f   5428 	.data.b	79,83,95,65,80,80,73,68,95,67,79,85,78,84,0
00001f7f 44495050 
00001f83 554f435f 
00001f87 00544e 

                                                                      Page 112
                                                              C:\Users\Fengyuan\AppData\Local\Temp\gh_0000fuk1.s
00001f8a 6e         5429 	.data.b	110
00001f8b 03         5430 	.data.b	3
00001f8c 27         5431 	.data.b	39
00001f8d 01         5432 	.data.b	1
                    5433 
                    5434 .LDW_607eca8:
00001f8e 2f         5435 	.data.b	47
00001f8f 41564e49   5436 	.data.b	73,78,86,65,76,73,68,95,79,83,65,80,80,76,73,67,65,84,73,79,78,0
00001f93 5f44494c 
00001f97 5041534f 
00001f9b 43494c50 
00001f9f 4f495441 
00001fa3 004e 
00001fa5 6f         5437 	.data.b	111
00001fa6 03         5438 	.data.b	3
00001fa7 27         5439 	.data.b	39
00001fa8 01         5440 	.data.b	1
                    5441 
00001fa9 00         5442 	.data.b	0
                    5443 
                    5444 .LDW_607f790:
00001faa 2a         5445 	.data.b	42
00001fab 6c707041   5446 	.data.b	65,112,112,108,105,99,97,116,105,111,110,84,121,112,101,0
00001faf 74616369 
00001fb3 546e6f69 
00001fb7 00657079 
00001fbb 70         5447 	.data.b	112
00001fbc 03         5448 	.data.b	3
00001fbd 27         5449 	.data.b	39
00001fbe 00000000*  5450 	.data.w	.LDW_607fdc0
                    5451 
                    5452 .LDW_607f840:
00001fc2 30         5453 	.data.b	48
00001fc3 00         5454 	.data.b	0
00001fc4 0186       5455 	.data.b	134,1
00001fc6 01         5456 	.data.b	1
00001fc7 27         5457 	.data.b	39
00001fc8 04         5458 	.data.b	4
00001fc9 01         5459 	.data.b	1
                    5460 
                    5461 .LDW_607e9e8:
00001fca 2f         5462 	.data.b	47
00001fcb 61666544   5463 	.data.b	68,101,102,97,117,108,116,95,73,110,105,116,95,84,97,115,107,0
00001fcf 5f746c75 
00001fd3 74696e49 
00001fd7 7361545f 
00001fdb 006b 
00001fdd 0187       5464 	.data.b	135,1
00001fdf 03         5465 	.data.b	3
00001fe0 27         5466 	.data.b	39
00001fe1 00         5467 	.data.b	0
                    5468 
                    5469 .LDW_607ed28:
00001fe2 2f         5470 	.data.b	47
00001fe3 656c6449   5471 	.data.b	73,100,108,101,84,97,115,107,95,79,115,67,111,114,101,48,0
00001fe7 6b736154 
00001feb 43734f5f 
00001fef 3065726f 
00001ff3 00 
00001ff4 0188       5472 	.data.b	136,1
00001ff6 03         5473 	.data.b	3

                                                                      Page 113
                                                              C:\Users\Fengyuan\AppData\Local\Temp\gh_0000fuk1.s
00001ff7 27         5474 	.data.b	39
00001ff8 01         5475 	.data.b	1
                    5476 
                    5477 .LDW_607e868:
00001ff9 2f         5478 	.data.b	47
00001ffa 6154734f   5479 	.data.b	79,115,84,97,115,107,95,65,80,80,0
00001ffe 415f6b73 
00002002 005050 
00002005 0189       5480 	.data.b	137,1
00002007 03         5481 	.data.b	3
00002008 27         5482 	.data.b	39
00002009 02         5483 	.data.b	2
                    5484 
                    5485 .LDW_607e568:
0000200a 2f         5486 	.data.b	47
0000200b 6154734f   5487 	.data.b	79,115,84,97,115,107,95,66,83,87,95,83,67,72,77,0
0000200f 425f6b73 
00002013 535f5753 
00002017 004d4843 
0000201b 018a       5488 	.data.b	138,1
0000201d 03         5489 	.data.b	3
0000201e 27         5490 	.data.b	39
0000201f 03         5491 	.data.b	3
                    5492 
                    5493 .LDW_607ec28:
00002020 2f         5494 	.data.b	47
00002021 545f534f   5495 	.data.b	79,83,95,84,65,83,75,73,68,95,67,79,85,78,84,0
00002025 494b5341 
00002029 4f435f44 
0000202d 00544e55 
00002031 018b       5496 	.data.b	139,1
00002033 03         5497 	.data.b	3
00002034 27         5498 	.data.b	39
00002035 04         5499 	.data.b	4
                    5500 
                    5501 .LDW_607e5a8:
00002036 2f         5502 	.data.b	47
00002037 41564e49   5503 	.data.b	73,78,86,65,76,73,68,95,84,65,83,75,0
0000203b 5f44494c 
0000203f 4b534154 
00002043 00 
00002044 018c       5504 	.data.b	140,1
00002046 03         5505 	.data.b	3
00002047 27         5506 	.data.b	39
00002048 04         5507 	.data.b	4
                    5508 
00002049 00         5509 	.data.b	0
                    5510 
                    5511 .LDW_607f8f0:
0000204a 2a         5512 	.data.b	42
0000204b 6b736154   5513 	.data.b	84,97,115,107,84,121,112,101,0
0000204f 65707954 
00002053 00 
00002054 018d       5514 	.data.b	141,1
00002056 03         5515 	.data.b	3
00002057 27         5516 	.data.b	39
00002058 00000000*  5517 	.data.w	.LDW_607f840
                    5518 
                    5519 .LDW_607fe18:
0000205c 30         5520 	.data.b	48
0000205d 00         5521 	.data.b	0

                                                                      Page 114
                                                              C:\Users\Fengyuan\AppData\Local\Temp\gh_0000fuk1.s
0000205e 0191       5522 	.data.b	145,1
00002060 01         5523 	.data.b	1
00002061 27         5524 	.data.b	39
00002062 04         5525 	.data.b	4
00002063 01         5526 	.data.b	1
                    5527 
                    5528 .LDW_607e828:
00002064 2f         5529 	.data.b	47
00002065 496e6143   5530 	.data.b	67,97,110,73,115,114,95,48,95,66,117,115,79,102,102,0
00002069 305f7273 
0000206d 7375425f 
00002071 0066664f 
00002075 0192       5531 	.data.b	146,1
00002077 03         5532 	.data.b	3
00002078 27         5533 	.data.b	39
00002079 00         5534 	.data.b	0
                    5535 
                    5536 .LDW_607e928:
0000207a 2f         5537 	.data.b	47
0000207b 496e6143   5538 	.data.b	67,97,110,73,115,114,95,48,95,77,66,48,48,84,111,49,53,0
0000207f 305f7273 
00002083 30424d5f 
00002087 316f5430 
0000208b 0035 
0000208d 0193       5539 	.data.b	147,1
0000208f 03         5540 	.data.b	3
00002090 27         5541 	.data.b	39
00002091 01         5542 	.data.b	1
                    5543 
                    5544 .LDW_607e728:
00002092 2f         5545 	.data.b	47
00002093 496e6143   5546 	.data.b	67,97,110,73,115,114,95,48,95,77,66,49,54,84,111,51,49,0
00002097 305f7273 
0000209b 31424d5f 
0000209f 336f5436 
000020a3 0031 
000020a5 0194       5547 	.data.b	148,1
000020a7 03         5548 	.data.b	3
000020a8 27         5549 	.data.b	39
000020a9 02         5550 	.data.b	2
                    5551 
                    5552 .LDW_607e5e8:
000020aa 2f         5553 	.data.b	47
000020ab 6e756f43   5554 	.data.b	67,111,117,110,116,101,114,73,115,114,95,83,121,115,116,101,109,84,105,109,101,114,0
000020af 49726574 
000020b3 535f7273 
000020b7 65747379 
000020bb 6d69546d 
000020bf 007265 
000020c2 0195       5555 	.data.b	149,1
000020c4 03         5556 	.data.b	3
000020c5 27         5557 	.data.b	39
000020c6 03         5558 	.data.b	3
                    5559 
                    5560 .LDW_607e628:
000020c7 2f         5561 	.data.b	47
000020c8 495f534f   5562 	.data.b	79,83,95,73,83,82,73,68,95,67,79,85,78,84,0
000020cc 44495253 
000020d0 554f435f 
000020d4 00544e 
000020d7 0196       5563 	.data.b	150,1

                                                                      Page 115
                                                              C:\Users\Fengyuan\AppData\Local\Temp\gh_0000fuk1.s
000020d9 03         5564 	.data.b	3
000020da 27         5565 	.data.b	39
000020db 04         5566 	.data.b	4
                    5567 
                    5568 .LDW_607e668:
000020dc 2f         5569 	.data.b	47
000020dd 41564e49   5570 	.data.b	73,78,86,65,76,73,68,95,73,83,82,0
000020e1 5f44494c 
000020e5 00525349 
000020e9 0197       5571 	.data.b	151,1
000020eb 03         5572 	.data.b	3
000020ec 27         5573 	.data.b	39
000020ed 04         5574 	.data.b	4
                    5575 
000020ee 00         5576 	.data.b	0
                    5577 
                    5578 .LDW_607faa8:
000020ef 2a         5579 	.data.b	42
000020f0 54525349   5580 	.data.b	73,83,82,84,121,112,101,0
000020f4 00657079 
000020f8 0198       5581 	.data.b	152,1
000020fa 03         5582 	.data.b	3
000020fb 27         5583 	.data.b	39
000020fc 00000000*  5584 	.data.w	.LDW_607fe18
                    5585 
                    5586 .LDW_607ffd0:
00002100 30         5587 	.data.b	48
00002101 00         5588 	.data.b	0
00002102 01bb       5589 	.data.b	187,1
00002104 01         5590 	.data.b	1
00002105 27         5591 	.data.b	39
00002106 04         5592 	.data.b	4
00002107 01         5593 	.data.b	1
                    5594 
                    5595 .LDW_607f368:
00002108 2f         5596 	.data.b	47
00002109 535f534f   5597 	.data.b	79,83,95,83,80,73,78,76,79,67,75,73,68,95,67,79,85,78,84,0
0000210d 4c4e4950 
00002111 494b434f 
00002115 4f435f44 
00002119 00544e55 
0000211d 01bc       5598 	.data.b	188,1
0000211f 03         5599 	.data.b	3
00002120 27         5600 	.data.b	39
00002121 00         5601 	.data.b	0
                    5602 
                    5603 .LDW_607eda8:
00002122 2f         5604 	.data.b	47
00002123 41564e49   5605 	.data.b	73,78,86,65,76,73,68,95,83,80,73,78,76,79,67,75,0
00002127 5f44494c 
0000212b 4e495053 
0000212f 4b434f4c 
00002133 00 
00002134 01bd       5606 	.data.b	189,1
00002136 03         5607 	.data.b	3
00002137 27         5608 	.data.b	39
00002138 00         5609 	.data.b	0
                    5610 
00002139 00         5611 	.data.b	0
                    5612 
                    5613 .LDW_6080028:

                                                                      Page 116
                                                              C:\Users\Fengyuan\AppData\Local\Temp\gh_0000fuk1.s
0000213a 2a         5614 	.data.b	42
0000213b 6e697053   5615 	.data.b	83,112,105,110,108,111,99,107,73,100,84,121,112,101,0
0000213f 6b636f6c 
00002143 79546449 
00002147 006570 
0000214a 01be       5616 	.data.b	190,1
0000214c 03         5617 	.data.b	3
0000214d 27         5618 	.data.b	39
0000214e 00000000*  5619 	.data.w	.LDW_607ffd0
                    5620 
                    5621 .LDW_6080b80:
00002152 30         5622 	.data.b	48
00002153 00         5623 	.data.b	0
00002154 01ce       5624 	.data.b	206,1
00002156 01         5625 	.data.b	1
00002157 27         5626 	.data.b	39
00002158 04         5627 	.data.b	4
00002159 01         5628 	.data.b	1
                    5629 
                    5630 .LDW_607f3e8:
0000215a 2f         5631 	.data.b	47
0000215b 545f534f   5632 	.data.b	79,83,95,84,82,65,67,69,95,84,72,82,69,65,68,73,68,95,67,79,85,78,84,0
0000215f 45434152 
00002163 5248545f 
00002167 49444145 
0000216b 4f435f44 
0000216f 00544e55 
00002173 01cf       5633 	.data.b	207,1
00002175 03         5634 	.data.b	3
00002176 27         5635 	.data.b	39
00002177 00         5636 	.data.b	0
                    5637 
                    5638 .LDW_607ed68:
00002178 2f         5639 	.data.b	47
00002179 545f534f   5640 	.data.b	79,83,95,84,82,65,67,69,95,73,78,86,65,76,73,68,95,84,72,82,69,65,68,0
0000217d 45434152 
00002181 564e495f 
00002185 44494c41 
00002189 5248545f 
0000218d 00444145 
00002191 01d0       5641 	.data.b	208,1
00002193 03         5642 	.data.b	3
00002194 27         5643 	.data.b	39
00002195 01         5644 	.data.b	1
                    5645 
00002196 00         5646 	.data.b	0
                    5647 
                    5648 .LDW_6080bd8:
00002197 2a         5649 	.data.b	42
00002198 545f734f   5650 	.data.b	79,115,95,84,114,97,99,101,84,104,114,101,97,100,73,100,84,121,112,101,0
0000219c 65636172 
000021a0 65726854 
000021a4 64496461 
000021a8 65707954 
000021ac 00 
000021ad 01d1       5651 	.data.b	209,1
000021af 03         5652 	.data.b	3
000021b0 27         5653 	.data.b	39
000021b1 00000000*  5654 	.data.w	.LDW_6080b80
                    5655 
                    5656 .LDW_60802e8:

                                                                      Page 117
                                                              C:\Users\Fengyuan\AppData\Local\Temp\gh_0000fuk1.s
000021b5 30         5657 	.data.b	48
000021b6 00         5658 	.data.b	0
000021b7 01d5       5659 	.data.b	213,1
000021b9 01         5660 	.data.b	1
000021ba 27         5661 	.data.b	39
000021bb 04         5662 	.data.b	4
000021bc 01         5663 	.data.b	1
                    5664 
                    5665 .LDW_607f068:
000021bd 2f         5666 	.data.b	47
000021be 545f534f   5667 	.data.b	79,83,95,84,82,65,67,69,95,78,85,77,66,69,82,95,79,70,95,67,79,78,70,73,71,85,82,69,68,95,83,80,73,78,76,79,67,75,83,0
000021c2 45434152 
000021c6 4d554e5f 
000021ca 5f524542 
000021ce 435f464f 
000021d2 49464e4f 
000021d6 45525547 
000021da 50535f44 
000021de 4f4c4e49 
000021e2 00534b43 
000021e6 01d6       5668 	.data.b	214,1
000021e8 03         5669 	.data.b	3
000021e9 27         5670 	.data.b	39
000021ea 00         5671 	.data.b	0
                    5672 
                    5673 .LDW_607f4e8:
000021eb 2f         5674 	.data.b	47
000021ec 545f534f   5675 	.data.b	79,83,95,84,82,65,67,69,95,78,85,77,66,69,82,95,79,70,95,65,76,76,95,83,80,73,78,76,79,67,75,83,0
000021f0 45434152 
000021f4 4d554e5f 
000021f8 5f524542 
000021fc 415f464f 
00002200 535f4c4c 
00002204 4c4e4950 
00002208 534b434f 
0000220c 00 
0000220d 01d7       5676 	.data.b	215,1
0000220f 03         5677 	.data.b	3
00002210 27         5678 	.data.b	39
00002211 00         5679 	.data.b	0
                    5680 
                    5681 .LDW_607f028:
00002212 2f         5682 	.data.b	47
00002213 545f534f   5683 	.data.b	79,83,95,84,82,65,67,69,95,73,78,86,65,76,73,68,95,83,80,73,78,76,79,67,75,0
00002217 45434152 
0000221b 564e495f 
0000221f 44494c41 
00002223 4950535f 
00002227 434f4c4e 
0000222b 004b 
0000222d 01d8       5684 	.data.b	216,1
0000222f 03         5685 	.data.b	3
00002230 27         5686 	.data.b	39
00002231 01         5687 	.data.b	1
                    5688 
00002232 00         5689 	.data.b	0
                    5690 
                    5691 .LDW_6080448:
00002233 2a         5692 	.data.b	42
00002234 545f734f   5693 	.data.b	79,115,95,84,114,97,99,101,83,112,105,110,108,111,99,107,73,100,84,121,112,101,0
00002238 65636172 

                                                                      Page 118
                                                              C:\Users\Fengyuan\AppData\Local\Temp\gh_0000fuk1.s
0000223c 6e697053 
00002240 6b636f6c 
00002244 79546449 
00002248 006570 
0000224b 01d9       5694 	.data.b	217,1
0000224d 03         5695 	.data.b	3
0000224e 27         5696 	.data.b	39
0000224f 00000000*  5697 	.data.w	.LDW_60802e8
                    5698 
                    5699 .LDW_6017ec8:
00002253 30         5700 	.data.b	48
00002254 00         5701 	.data.b	0
00002255 03c4       5702 	.data.b	196,3
00002257 01         5703 	.data.b	1
00002258 01         5704 	.data.b	1
00002259 04         5705 	.data.b	4
0000225a 01         5706 	.data.b	1
                    5707 
                    5708 .LDW_49fa4c8:
0000225b 2f         5709 	.data.b	47
0000225c 494c4156   5710 	.data.b	86,65,76,73,68,0
00002260 0044 
00002262 03c5       5711 	.data.b	197,3
00002264 03         5712 	.data.b	3
00002265 01         5713 	.data.b	1
00002266 00         5714 	.data.b	0
                    5715 
                    5716 .LDW_49fa508:
00002267 2f         5717 	.data.b	47
00002268 41564e49   5718 	.data.b	73,78,86,65,76,73,68,0
0000226c 0044494c 
00002270 03c6       5719 	.data.b	198,3
00002272 03         5720 	.data.b	3
00002273 01         5721 	.data.b	1
00002274 01         5722 	.data.b	1
                    5723 
                    5724 .LDW_49fc678:
00002275 2f         5725 	.data.b	47
00002276 544c4946   5726 	.data.b	70,73,76,84,69,82,69,68,0
0000227a 44455245 
0000227e 00 
0000227f 03c7       5727 	.data.b	199,3
00002281 03         5728 	.data.b	3
00002282 01         5729 	.data.b	1
00002283 02         5730 	.data.b	2
                    5731 
00002284 00         5732 	.data.b	0
                    5733 
                    5734 .LDW_60183f0:
00002285 2a         5735 	.data.b	42
00002286 5f6d6f43   5736 	.data.b	67,111,109,95,82,120,83,105,103,80,114,111,99,101,115,115,83,116,97,116,101,0
0000228a 69537852 
0000228e 6f725067 
00002292 73736563 
00002296 74617453 
0000229a 0065 
0000229c 03c8       5737 	.data.b	200,3
0000229e 03         5738 	.data.b	3
0000229f 01         5739 	.data.b	1
000022a0 00000000*  5740 	.data.w	.LDW_6017ec8
                    5741 

                                                                      Page 119
                                                              C:\Users\Fengyuan\AppData\Local\Temp\gh_0000fuk1.s
                    5742 .LDW_5ef2c70:
000022a4 43         5743 	.data.b	67
000022a5 03ce       5744 	.data.b	206,3
000022a7 01         5745 	.data.b	1
000022a8 01         5746 	.data.b	1
000022a9 0c         5747 	.data.b	12
000022aa 01         5748 	.data.b	1
                    5749 
                    5750 .LDW_607ce78:
000022ab 25         5751 	.data.b	37
000022ac 54727470   5752 	.data.b	112,116,114,84,111,67,97,99,104,101,0
000022b0 6361436f 
000022b4 006568 
000022b7 03cf       5753 	.data.b	207,3
000022b9 2a         5754 	.data.b	42
000022ba 01         5755 	.data.b	1
000022bb 00000000*  5756 	.data.w	.LDW_6081d48
000022bf 2302       5757 	.data.b	2,35
000022c1 00         5758 	.data.b	0
000022c2 01         5759 	.data.b	1
                    5760 
                    5761 .LDW_607d4f0:
000022c3 25         5762 	.data.b	37
000022c4 68636163   5763 	.data.b	99,97,99,104,101,73,110,100,101,120,0
000022c8 646e4965 
000022cc 007865 
000022cf 03d0       5764 	.data.b	208,3
000022d1 0a         5765 	.data.b	10
000022d2 01         5766 	.data.b	1
000022d3 00000000*  5767 	.data.w	.LDW_5ef2b10
000022d7 2302       5768 	.data.b	2,35
000022d9 04         5769 	.data.b	4
000022da 01         5770 	.data.b	1
                    5771 
                    5772 .LDW_607d2f8:
000022db 25         5773 	.data.b	37
000022dc 68636163   5774 	.data.b	99,97,99,104,101,83,105,122,101,0
000022e0 7a695365 
000022e4 0065 
000022e6 03d1       5775 	.data.b	209,3
000022e8 0a         5776 	.data.b	10
000022e9 01         5777 	.data.b	1
000022ea 00000000*  5778 	.data.w	.LDW_5ef2b10
000022ee 2302       5779 	.data.b	2,35
000022f0 08         5780 	.data.b	8
000022f1 01         5781 	.data.b	1
                    5782 
000022f2 00         5783 	.data.b	0
                    5784 
                    5785 .LDW_5ef2dd0:
000022f3 2a         5786 	.data.b	42
000022f4 50746346   5787 	.data.b	70,99,116,80,116,114,67,97,99,104,101,83,116,114,99,116,0
000022f8 61437274 
000022fc 53656863 
00002300 74637274 
00002304 00 
00002305 03d2       5788 	.data.b	210,3
00002307 03         5789 	.data.b	3
00002308 01         5790 	.data.b	1
00002309 00000000*  5791 	.data.w	.LDW_5ef2c70
                    5792 

                                                                      Page 120
                                                              C:\Users\Fengyuan\AppData\Local\Temp\gh_0000fuk1.s
                    5793 .LDW_6082af8:
0000230d 07         5794 	.data.b	7
0000230e 5f6d6f43   5795 	.data.b	67,111,109,95,67,111,110,115,116,86,97,108,117,101,85,73,110,116,56,0
00002312 736e6f43 
00002316 6c615674 
0000231a 49556575 
0000231e 0038746e 
00002322 16f6       5796 	.data.b	246,22
00002324 32         5797 	.data.b	50
00002325 03         5798 	.data.b	3
00002326 00000000*  5799 	.data.w	.LDW_6087f98
0000232a 01         5800 	.data.b	1
0000232b 01         5801 	.data.b	1
                    5802 
                    5803 	.section	.debug_abbrev
000000d9 07         5804 	.data.b	7
000000da 34         5805 	.data.b	52
000000db 00         5806 	.data.b	0
000000dc 0803       5807 	.data.b	3,8
000000de 0f3b       5808 	.data.b	59,15
000000e0 0f39       5809 	.data.b	57,15
000000e2 0f3a       5810 	.data.b	58,15
000000e4 1049       5811 	.data.b	73,16
000000e6 0c3f       5812 	.data.b	63,12
000000e8 0c3c       5813 	.data.b	60,12
000000ea 0000       5814 	.data.b	0,0
                    5815 
                    5816 	.section	.debug_info
                    5817 .LDW_6082d08:
0000232c 07         5818 	.data.b	7
0000232d 5f6d6f43   5819 	.data.b	67,111,109,95,82,120,65,99,99,101,115,115,73,110,102,111,0
00002331 63417852 
00002335 73736563 
00002339 6f666e49 
0000233d 00 
0000233e 178c       5820 	.data.b	140,23
00002340 2f         5821 	.data.b	47
00002341 03         5822 	.data.b	3
00002342 00000000*  5823 	.data.w	.LDW_6088020
00002346 01         5824 	.data.b	1
00002347 01         5825 	.data.b	1
                    5826 
                    5827 .LDW_6082b50:
00002348 07         5828 	.data.b	7
00002349 5f6d6f43   5829 	.data.b	67,111,109,95,82,120,80,100,117,73,110,102,111,0
0000234d 64507852 
00002351 666e4975 
00002355 006f 
00002357 17a0       5830 	.data.b	160,23
00002359 2c         5831 	.data.b	44
0000235a 03         5832 	.data.b	3
0000235b 00000000*  5833 	.data.w	.LDW_6088bf8
0000235f 01         5834 	.data.b	1
00002360 01         5835 	.data.b	1
                    5836 
                    5837 .LDW_6082d60:
00002361 07         5838 	.data.b	7
00002362 5f6d6f43   5839 	.data.b	67,111,109,95,82,120,83,105,103,73,110,102,111,0
00002366 69537852 
0000236a 666e4967 
0000236e 006f 

                                                                      Page 121
                                                              C:\Users\Fengyuan\AppData\Local\Temp\gh_0000fuk1.s
00002370 17b4       5840 	.data.b	180,23
00002372 2c         5841 	.data.b	44
00002373 03         5842 	.data.b	3
00002374 00000000*  5843 	.data.w	.LDW_6088ae8
00002378 01         5844 	.data.b	1
00002379 01         5845 	.data.b	1
                    5846 
                    5847 .LDW_60830d0:
0000237a 07         5848 	.data.b	7
0000237b 5f6d6f43   5849 	.data.b	67,111,109,95,84,120,77,111,100,101,70,97,108,115,101,0
0000237f 6f4d7854 
00002383 61466564 
00002387 0065736c 
0000238b 17c8       5850 	.data.b	200,23
0000238d 2e         5851 	.data.b	46
0000238e 03         5852 	.data.b	3
0000238f 00000000*  5853 	.data.w	.LDW_6088d08
00002393 01         5854 	.data.b	1
00002394 01         5855 	.data.b	1
                    5856 
                    5857 .LDW_6083128:
00002395 07         5858 	.data.b	7
00002396 5f6d6f43   5859 	.data.b	67,111,109,95,84,120,77,111,100,101,73,110,102,111,0
0000239a 6f4d7854 
0000239e 6e496564 
000023a2 006f66 
000023a5 17dd       5860 	.data.b	221,23
000023a7 2d         5861 	.data.b	45
000023a8 03         5862 	.data.b	3
000023a9 00000000*  5863 	.data.w	.LDW_6088f28
000023ad 01         5864 	.data.b	1
000023ae 01         5865 	.data.b	1
                    5866 
                    5867 .LDW_6082f18:
000023af 07         5868 	.data.b	7
000023b0 5f6d6f43   5869 	.data.b	67,111,109,95,84,120,77,111,100,101,84,114,117,101,0
000023b4 6f4d7854 
000023b8 72546564 
000023bc 006575 
000023bf 17f1       5870 	.data.b	241,23
000023c1 2d         5871 	.data.b	45
000023c2 03         5872 	.data.b	3
000023c3 00000000*  5873 	.data.w	.LDW_6088268
000023c7 01         5874 	.data.b	1
000023c8 01         5875 	.data.b	1
                    5876 
                    5877 .LDW_6082ba8:
000023c9 07         5878 	.data.b	7
000023ca 5f6d6f43   5879 	.data.b	67,111,109,95,84,120,80,100,117,71,114,112,73,110,102,111,0
000023ce 64507854 
000023d2 70724775 
000023d6 6f666e49 
000023da 00 
000023db 1885       5880 	.data.b	133,24
000023dd 2f         5881 	.data.b	47
000023de 03         5882 	.data.b	3
000023df 00000000*  5883 	.data.w	.LDW_6088b70
000023e3 01         5884 	.data.b	1
000023e4 01         5885 	.data.b	1
                    5886 
                    5887 .LDW_6082c00:

                                                                      Page 122
                                                              C:\Users\Fengyuan\AppData\Local\Temp\gh_0000fuk1.s
000023e5 07         5888 	.data.b	7
000023e6 5f6d6f43   5889 	.data.b	67,111,109,95,84,120,80,100,117,73,110,102,111,0
000023ea 64507854 
000023ee 666e4975 
000023f2 006f 
000023f4 189c       5890 	.data.b	156,24
000023f6 2c         5891 	.data.b	44
000023f7 03         5892 	.data.b	3
000023f8 00000000*  5893 	.data.w	.LDW_6088e18
000023fc 01         5894 	.data.b	1
000023fd 01         5895 	.data.b	1
                    5896 
                    5897 .LDW_6083230:
000023fe 07         5898 	.data.b	7
000023ff 5f6d6f43   5899 	.data.b	67,111,109,95,84,120,80,100,117,73,110,105,116,86,97,108,117,101,0
00002403 64507854 
00002407 696e4975 
0000240b 6c615674 
0000240f 006575 
00002412 18ad       5900 	.data.b	173,24
00002414 31         5901 	.data.b	49
00002415 03         5902 	.data.b	3
00002416 00000000*  5903 	.data.w	.LDW_6088840
0000241a 01         5904 	.data.b	1
0000241b 01         5905 	.data.b	1
                    5906 
                    5907 .LDW_6083288:
0000241c 07         5908 	.data.b	7
0000241d 5f6d6f43   5909 	.data.b	67,111,109,95,84,120,83,105,103,73,110,102,111,0
00002421 69537854 
00002425 666e4967 
00002429 006f 
0000242b 18c5       5910 	.data.b	197,24
0000242d 2c         5911 	.data.b	44
0000242e 03         5912 	.data.b	3
0000242f 00000000*  5913 	.data.w	.LDW_6088d90
00002433 01         5914 	.data.b	1
00002434 01         5915 	.data.b	1
                    5916 
                    5917 .LDW_6083020:
00002435 07         5918 	.data.b	7
00002436 5f6d6f43   5919 	.data.b	67,111,109,95,67,117,114,114,101,110,116,84,120,77,111,100,101,0
0000243a 72727543 
0000243e 54746e65 
00002442 646f4d78 
00002446 0065 
00002448 18d6       5920 	.data.b	214,24
0000244a 33         5921 	.data.b	51
0000244b 03         5922 	.data.b	3
0000244c 00000000*  5923 	.data.w	.LDW_6088730
00002450 01         5924 	.data.b	1
00002451 01         5925 	.data.b	1
                    5926 
                    5927 .LDW_6082e10:
00002452 07         5928 	.data.b	7
00002453 5f6d6f43   5929 	.data.b	67,111,109,95,67,121,99,108,101,84,105,109,101,67,110,116,0
00002457 6c637943 
0000245b 6d695465 
0000245f 746e4365 
00002463 00 
00002464 18e7       5930 	.data.b	231,24

                                                                      Page 123
                                                              C:\Users\Fengyuan\AppData\Local\Temp\gh_0000fuk1.s
00002466 32         5931 	.data.b	50
00002467 03         5932 	.data.b	3
00002468 00000000*  5933 	.data.w	.LDW_6088620
0000246c 01         5934 	.data.b	1
0000246d 01         5935 	.data.b	1
                    5936 
                    5937 .LDW_6082aa0:
0000246e 07         5938 	.data.b	7
0000246f 5f6d6f43   5939 	.data.b	67,111,109,95,67,121,99,108,105,99,83,101,110,100,82,101,113,117,101,115,116,0
00002473 6c637943 
00002477 65536369 
0000247b 6552646e 
0000247f 73657571 
00002483 0074 
00002485 18f8       5940 	.data.b	248,24
00002487 37         5941 	.data.b	55
00002488 03         5942 	.data.b	3
00002489 00000000*  5943 	.data.w	.LDW_60882f0
0000248d 01         5944 	.data.b	1
0000248e 01         5945 	.data.b	1
                    5946 
                    5947 .LDW_60833e8:
0000248f 07         5948 	.data.b	7
00002490 5f6d6f43   5949 	.data.b	67,111,109,95,72,97,110,100,108,101,82,120,80,100,117,68,101,102,101,114,114,101,100,0
00002494 646e6148 
00002498 7852656c 
0000249c 44756450 
000024a0 72656665 
000024a4 00646572 
000024a8 19a7       5950 	.data.b	167,25
000024aa 3a         5951 	.data.b	58
000024ab 03         5952 	.data.b	3
000024ac 00000000*  5953 	.data.w	.LDW_607c558
000024b0 01         5954 	.data.b	1
000024b1 01         5955 	.data.b	1
                    5956 
                    5957 .LDW_60832e0:
000024b2 07         5958 	.data.b	7
000024b3 5f6d6f43   5959 	.data.b	67,111,109,95,73,110,105,116,105,97,108,105,122,101,100,0
000024b7 74696e49 
000024bb 696c6169 
000024bf 0064657a 
000024c3 19b8       5960 	.data.b	184,25
000024c5 34         5961 	.data.b	52
000024c6 03         5962 	.data.b	3
000024c7 00000000*  5963 	.data.w	.LDW_60781a8
000024cb 01         5964 	.data.b	1
000024cc 01         5965 	.data.b	1
                    5966 
                    5967 .LDW_6082f70:
000024cd 07         5968 	.data.b	7
000024ce 5f6d6f43   5969 	.data.b	67,111,109,95,82,120,68,101,102,80,100,117,66,117,102,102,101,114,0
000024d2 65447852 
000024d6 75645066 
000024da 66667542 
000024de 007265 
000024e1 19f8       5970 	.data.b	248,25
000024e3 35         5971 	.data.b	53
000024e4 03         5972 	.data.b	3
000024e5 00000000*  5973 	.data.w	.LDW_607c5b0
000024e9 01         5974 	.data.b	1

                                                                      Page 124
                                                              C:\Users\Fengyuan\AppData\Local\Temp\gh_0000fuk1.s
000024ea 01         5975 	.data.b	1
                    5976 
                    5977 .LDW_6083440:
000024eb 07         5978 	.data.b	7
000024ec 5f6d6f43   5979 	.data.b	67,111,109,95,82,120,68,101,102,101,114,114,101,100,80,114,111,99,101,115,115,105,110,103,73,83,82,76,111,99,107,67,111,117,110,116,101,114,0
000024f0 65447852 
000024f4 72726566 
000024f8 72506465 
000024fc 7365636f 
00002500 676e6973 
00002504 4c525349 
00002508 436b636f 
0000250c 746e756f 
00002510 007265 
00002513 1a85       5980 	.data.b	133,26
00002515 48         5981 	.data.b	72
00002516 03         5982 	.data.b	3
00002517 00000000*  5983 	.data.w	.LDW_6077d88
0000251b 01         5984 	.data.b	1
0000251c 01         5985 	.data.b	1
                    5986 
                    5987 .LDW_6083548:
0000251d 07         5988 	.data.b	7
0000251e 5f6d6f43   5989 	.data.b	67,111,109,95,82,120,73,80,100,117,71,114,111,117,112,73,83,82,76,111,99,107,67,111,117,110,116,101,114,0
00002522 50497852 
00002526 72477564 
0000252a 4970756f 
0000252e 6f4c5253 
00002532 6f436b63 
00002536 65746e75 
0000253a 0072 
0000253c 1a92       5990 	.data.b	146,26
0000253e 3f         5991 	.data.b	63
0000253f 03         5992 	.data.b	3
00002540 00000000*  5993 	.data.w	.LDW_6077e38
00002544 01         5994 	.data.b	1
00002545 01         5995 	.data.b	1
                    5996 
                    5997 .LDW_6083ac8:
00002546 07         5998 	.data.b	7
00002547 5f6d6f43   5999 	.data.b	67,111,109,95,82,120,80,100,117,71,114,112,65,99,116,105,118,101,0
0000254b 64507852 
0000254f 70724775 
00002553 69746341 
00002557 006576 
0000255a 1aa3       6000 	.data.b	163,26
0000255c 34         6001 	.data.b	52
0000255d 03         6002 	.data.b	3
0000255e 00000000*  6003 	.data.w	.LDW_6088400
00002562 01         6004 	.data.b	1
00002563 01         6005 	.data.b	1
                    6006 
                    6007 .LDW_6083d88:
00002564 07         6008 	.data.b	7
00002565 5f6d6f43   6009 	.data.b	67,111,109,95,82,120,83,105,103,66,117,102,102,101,114,85,73,110,116,56,0
00002569 69537852 
0000256d 66754267 
00002571 55726566 
00002575 38746e49 
00002579 00 
0000257a 1ab4       6010 	.data.b	180,26

                                                                      Page 125
                                                              C:\Users\Fengyuan\AppData\Local\Temp\gh_0000fuk1.s
0000257c 36         6011 	.data.b	54
0000257d 03         6012 	.data.b	3
0000257e 00000000*  6013 	.data.w	.LDW_6088488
00002582 01         6014 	.data.b	1
00002583 01         6015 	.data.b	1
                    6016 
                    6017 .LDW_6083910:
00002584 07         6018 	.data.b	7
00002585 5f6d6f43   6019 	.data.b	67,111,109,95,84,114,97,110,115,109,105,116,82,101,113,117,101,115,116,0
00002589 6e617254 
0000258d 74696d73 
00002591 75716552 
00002595 00747365 
00002599 1ac5       6020 	.data.b	197,26
0000259b 35         6021 	.data.b	53
0000259c 03         6022 	.data.b	3
0000259d 00000000*  6023 	.data.w	.LDW_6088fb0
000025a1 01         6024 	.data.b	1
000025a2 01         6025 	.data.b	1
                    6026 
                    6027 .LDW_6083a18:
000025a3 07         6028 	.data.b	7
000025a4 5f6d6f43   6029 	.data.b	67,111,109,95,84,120,66,117,102,102,101,114,0
000025a8 75427854 
000025ac 72656666 
000025b0 00 
000025b1 1ad6       6030 	.data.b	214,26
000025b3 2e         6031 	.data.b	46
000025b4 03         6032 	.data.b	3
000025b5 00000000*  6033 	.data.w	.LDW_60880d0
000025b9 01         6034 	.data.b	1
000025ba 01         6035 	.data.b	1
                    6036 
                    6037 .LDW_6083de0:
000025bb 07         6038 	.data.b	7
000025bc 5f6d6f43   6039 	.data.b	67,111,109,95,84,120,67,121,99,108,105,99,80,114,111,99,101,115,115,105,110,103,73,83,82,76,111,99,107,67,111,117,110,116,101,114,0
000025c0 79437854 
000025c4 63696c63 
000025c8 636f7250 
000025cc 69737365 
000025d0 5349676e 
000025d4 636f4c52 
000025d8 756f436b 
000025dc 7265746e 
000025e0 00 
000025e1 1ae3       6040 	.data.b	227,26
000025e3 46         6041 	.data.b	70
000025e4 03         6042 	.data.b	3
000025e5 00000000*  6043 	.data.w	.LDW_6079b50
000025e9 01         6044 	.data.b	1
000025ea 01         6045 	.data.b	1
                    6046 
                    6047 .LDW_6083860:
000025eb 07         6048 	.data.b	7
000025ec 5f6d6f43   6049 	.data.b	67,111,109,95,84,120,73,80,100,117,71,114,111,117,112,73,83,82,76,111,99,107,67,111,117,110,116,101,114,0
000025f0 50497854 
000025f4 72477564 
000025f8 4970756f 
000025fc 6f4c5253 
00002600 6f436b63 
00002604 65746e75 

                                                                      Page 126
                                                              C:\Users\Fengyuan\AppData\Local\Temp\gh_0000fuk1.s
00002608 0072 
0000260a 1afd       6050 	.data.b	253,26
0000260c 3f         6051 	.data.b	63
0000260d 03         6052 	.data.b	3
0000260e 00000000*  6053 	.data.w	.LDW_6079788
00002612 01         6054 	.data.b	1
00002613 01         6055 	.data.b	1
                    6056 
                    6057 .LDW_6083758:
00002614 07         6058 	.data.b	7
00002615 5f6d6f43   6059 	.data.b	67,111,109,95,84,120,80,100,117,71,114,112,65,99,116,105,118,101,0
00002619 64507854 
0000261d 70724775 
00002621 69746341 
00002625 006576 
00002628 1b8e       6060 	.data.b	142,27
0000262a 34         6061 	.data.b	52
0000262b 03         6062 	.data.b	3
0000262c 00000000*  6063 	.data.w	.LDW_60887b8
00002630 01         6064 	.data.b	1
00002631 01         6065 	.data.b	1
                    6066 
                    6067 .LDW_6083808:
00002632 07         6068 	.data.b	7
00002633 5f6d6f43   6069 	.data.b	67,111,109,95,84,120,80,114,111,99,101,115,115,105,110,103,73,83,82,76,111,99,107,67,111,117,110,116,101,114,0
00002637 72507854 
0000263b 7365636f 
0000263f 676e6973 
00002643 4c525349 
00002647 436b636f 
0000264b 746e756f 
0000264f 007265 
00002652 1b9b       6070 	.data.b	155,27
00002654 40         6071 	.data.b	64
00002655 03         6072 	.data.b	3
00002656 00000000*  6073 	.data.w	.LDW_607a3c8
0000265a 01         6074 	.data.b	1
0000265b 01         6075 	.data.b	1
                    6076 
                    6077 .LDW_60835a0:
0000265c 07         6078 	.data.b	7
0000265d 5f6d6f43   6079 	.data.b	67,111,109,95,84,120,83,100,117,76,101,110,103,116,104,0
00002661 64537854 
00002665 6e654c75 
00002669 00687467 
0000266d 1bac       6080 	.data.b	172,27
0000266f 31         6081 	.data.b	49
00002670 03         6082 	.data.b	3
00002671 00000000*  6083 	.data.w	.LDW_6088598
00002675 01         6084 	.data.b	1
00002676 01         6085 	.data.b	1
                    6086 
                    6087 .LDW_6032f48:
00002677 18         6088 	.data.b	24
00002678 5f746544   6089 	.data.b	68,101,116,95,82,101,112,111,114,116,69,114,114,111,114,0
0000267c 6f706552 
00002680 72457472 
00002684 00726f72 
00002688 0296       6090 	.data.b	150,2
0000268a 20         6091 	.data.b	32
0000268b 15         6092 	.data.b	21

                                                                      Page 127
                                                              C:\Users\Fengyuan\AppData\Local\Temp\gh_0000fuk1.s
0000268c 00000000*  6093 	.data.w	.LDW_6055fc8
00002690 01         6094 	.data.b	1
00002691 00         6095 	.data.b	0
00002692 01         6096 	.data.b	1
00002693 01         6097 	.data.b	1
00002694 00         6098 	.data.b	0
00002695 01         6099 	.data.b	1
                    6100 
                    6101 	.section	.debug_abbrev
000000ec 18         6102 	.data.b	24
000000ed 2e         6103 	.data.b	46
000000ee 01         6104 	.data.b	1
000000ef 0803       6105 	.data.b	3,8
000000f1 0f3b       6106 	.data.b	59,15
000000f3 0f39       6107 	.data.b	57,15
000000f5 0f3a       6108 	.data.b	58,15
000000f7 1049       6109 	.data.b	73,16
000000f9 0c3c       6110 	.data.b	60,12
000000fb 0b20       6111 	.data.b	32,11
000000fd 0c3f       6112 	.data.b	63,12
000000ff 0b32       6113 	.data.b	50,11
00000101 0b4c       6114 	.data.b	76,11
00000103 0c27       6115 	.data.b	39,12
00000105 0000       6116 	.data.b	0,0
                    6117 
                    6118 	.section	.debug_info
00002696 00         6119 	.data.b	0
                    6120 
                    6121 .LDW_6032828:
00002697 17         6122 	.data.b	23
00002698 64745356   6123 	.data.b	86,83,116,100,76,105,98,95,77,101,109,83,101,116,0
0000269c 5f62694c 
000026a0 536d654d 
000026a4 007465 
000026a7 0397       6124 	.data.b	151,3
000026a9 1a         6125 	.data.b	26
000026aa 17         6126 	.data.b	23
000026ab 01         6127 	.data.b	1
000026ac 00         6128 	.data.b	0
000026ad 01         6129 	.data.b	1
000026ae 01         6130 	.data.b	1
000026af 00         6131 	.data.b	0
000026b0 01         6132 	.data.b	1
                    6133 
                    6134 	.section	.debug_abbrev
00000107 17         6135 	.data.b	23
00000108 2e         6136 	.data.b	46
00000109 01         6137 	.data.b	1
0000010a 0803       6138 	.data.b	3,8
0000010c 0f3b       6139 	.data.b	59,15
0000010e 0f39       6140 	.data.b	57,15
00000110 0f3a       6141 	.data.b	58,15
00000112 0c3c       6142 	.data.b	60,12
00000114 0b20       6143 	.data.b	32,11
00000116 0c3f       6144 	.data.b	63,12
00000118 0b32       6145 	.data.b	50,11
0000011a 0b4c       6146 	.data.b	76,11
0000011c 0c27       6147 	.data.b	39,12
0000011e 0000       6148 	.data.b	0,0
                    6149 
                    6150 	.section	.debug_info

                                                                      Page 128
                                                              C:\Users\Fengyuan\AppData\Local\Temp\gh_0000fuk1.s
000026b1 00         6151 	.data.b	0
                    6152 
                    6153 .LDW_6032a88:
000026b2 17         6154 	.data.b	23
000026b3 64745356   6155 	.data.b	86,83,116,100,76,105,98,95,77,101,109,67,112,121,0
000026b7 5f62694c 
000026bb 436d654d 
000026bf 007970 
000026c2 03ab       6156 	.data.b	171,3
000026c4 1a         6157 	.data.b	26
000026c5 17         6158 	.data.b	23
000026c6 01         6159 	.data.b	1
000026c7 00         6160 	.data.b	0
000026c8 01         6161 	.data.b	1
000026c9 01         6162 	.data.b	1
000026ca 00         6163 	.data.b	0
000026cb 01         6164 	.data.b	1
                    6165 
000026cc 00         6166 	.data.b	0
                    6167 
                    6168 .LDW_60325c8:
000026cd 18         6169 	.data.b	24
000026ce 52756450   6170 	.data.b	80,100,117,82,95,67,111,109,84,114,97,110,115,109,105,116,0
000026d2 6d6f435f 
000026d6 6e617254 
000026da 74696d73 
000026de 00 
000026df 59         6171 	.data.b	89
000026e0 21         6172 	.data.b	33
000026e1 19         6173 	.data.b	25
000026e2 00000000*  6174 	.data.w	.LDW_6055fc8
000026e6 01         6175 	.data.b	1
000026e7 00         6176 	.data.b	0
000026e8 01         6177 	.data.b	1
000026e9 01         6178 	.data.b	1
000026ea 00         6179 	.data.b	0
000026eb 01         6180 	.data.b	1
                    6181 
000026ec 00         6182 	.data.b	0
                    6183 
                    6184 .LDW_608b480:
000026ed 17         6185 	.data.b	23
000026ee 70737553   6186 	.data.b	83,117,115,112,101,110,100,65,108,108,73,110,116,101,114,114,117,112,116,115,0
000026f2 41646e65 
000026f6 6e496c6c 
000026fa 72726574 
000026fe 73747075 
00002702 00 
00002703 0a97       6187 	.data.b	151,10
00002705 15         6188 	.data.b	21
00002706 21         6189 	.data.b	33
00002707 01         6190 	.data.b	1
00002708 00         6191 	.data.b	0
00002709 01         6192 	.data.b	1
0000270a 01         6193 	.data.b	1
0000270b 00         6194 	.data.b	0
0000270c 01         6195 	.data.b	1
                    6196 
0000270d 00         6197 	.data.b	0
                    6198 
                    6199 .LDW_608b518:

                                                                      Page 129
                                                              C:\Users\Fengyuan\AppData\Local\Temp\gh_0000fuk1.s
0000270e 17         6200 	.data.b	23
0000270f 75736552   6201 	.data.b	82,101,115,117,109,101,65,108,108,73,110,116,101,114,114,117,112,116,115,0
00002713 6c41656d 
00002717 746e496c 
0000271b 75727265 
0000271f 00737470 
00002723 0aaa       6202 	.data.b	170,10
00002725 15         6203 	.data.b	21
00002726 21         6204 	.data.b	33
00002727 01         6205 	.data.b	1
00002728 00         6206 	.data.b	0
00002729 01         6207 	.data.b	1
0000272a 01         6208 	.data.b	1
0000272b 00         6209 	.data.b	0
0000272c 01         6210 	.data.b	1
                    6211 
0000272d 00         6212 	.data.b	0
                    6213 
                    6214 .LDW_5ceb868:
0000272e 17         6215 	.data.b	23
0000272f 5f6d6f43   6216 	.data.b	67,111,109,95,76,77,103,116,95,68,101,97,99,116,105,118,97,116,101,82,120,80,100,117,0
00002733 74674d4c 
00002737 6165445f 
0000273b 76697463 
0000273f 52657461 
00002743 75645078 
00002747 00 
00002748 198c       6217 	.data.b	140,25
0000274a 23         6218 	.data.b	35
0000274b 01         6219 	.data.b	1
0000274c 00         6220 	.data.b	0
0000274d 03         6221 	.data.b	3
0000274e 00         6222 	.data.b	0
0000274f 01         6223 	.data.b	1
00002750 00         6224 	.data.b	0
00002751 01         6225 	.data.b	1
                    6226 
                    6227 .LDW_5ceb900:
00002752 12         6228 	.data.b	18
00002753 506d6f43   6229 	.data.b	67,111,109,80,100,117,73,100,0
00002757 64497564 
0000275b 00 
0000275c 198c       6230 	.data.b	140,25
0000275e 46         6231 	.data.b	70
0000275f 01         6232 	.data.b	1
00002760 00000000*  6233 	.data.w	.LDW_5e8ef58
00002764 00         6234 	.data.b	0
                    6235 
                    6236 	.section	.debug_abbrev
00000120 12         6237 	.data.b	18
00000121 05         6238 	.data.b	5
00000122 00         6239 	.data.b	0
00000123 0803       6240 	.data.b	3,8
00000125 0f3b       6241 	.data.b	59,15
00000127 0f39       6242 	.data.b	57,15
00000129 0f3a       6243 	.data.b	58,15
0000012b 1049       6244 	.data.b	73,16
0000012d 0c4b       6245 	.data.b	75,12
0000012f 0000       6246 	.data.b	0,0
                    6247 
                    6248 	.section	.debug_info

                                                                      Page 130
                                                              C:\Users\Fengyuan\AppData\Local\Temp\gh_0000fuk1.s
                    6249 .LDW_49b02c8:
00002765 22         6250 	.data.b	34
                    6251 
                    6252 	.section	.debug_abbrev
00000131 22         6253 	.data.b	34
00000132 0b         6254 	.data.b	11
00000133 01         6255 	.data.b	1
00000134 0000       6256 	.data.b	0,0
                    6257 
                    6258 	.section	.debug_info
00002766 00         6259 	.data.b	0
                    6260 
00002767 00         6261 	.data.b	0
                    6262 
                    6263 .LDW_5ee9f80:
00002768 17         6264 	.data.b	23
00002769 5f6d6f43   6265 	.data.b	67,111,109,95,76,77,103,116,95,73,110,105,116,82,120,73,112,100,117,0
0000276d 74674d4c 
00002771 696e495f 
00002775 49785274 
00002779 00756470 
0000277d 19aa       6266 	.data.b	170,25
0000277f 23         6267 	.data.b	35
00002780 01         6268 	.data.b	1
00002781 00         6269 	.data.b	0
00002782 03         6270 	.data.b	3
00002783 00         6271 	.data.b	0
00002784 01         6272 	.data.b	1
00002785 00         6273 	.data.b	0
00002786 01         6274 	.data.b	1
                    6275 
                    6276 .LDW_5eea018:
00002787 12         6277 	.data.b	18
00002788 506d6f43   6278 	.data.b	67,111,109,80,100,117,73,100,0
0000278c 64497564 
00002790 00 
00002791 19aa       6279 	.data.b	170,25
00002793 41         6280 	.data.b	65
00002794 01         6281 	.data.b	1
00002795 00000000*  6282 	.data.w	.LDW_5e8ef58
00002799 00         6283 	.data.b	0
                    6284 
                    6285 .LDW_49b0598:
0000279a 22         6286 	.data.b	34
                    6287 
0000279b 00         6288 	.data.b	0
                    6289 
0000279c 00         6290 	.data.b	0
                    6291 
                    6292 .LDW_49f95f0:
0000279d 17         6293 	.data.b	23
0000279e 5f6d6f43   6294 	.data.b	67,111,109,95,76,77,103,116,95,73,110,105,116,84,120,73,112,100,117,0
000027a2 74674d4c 
000027a6 696e495f 
000027aa 49785474 
000027ae 00756470 
000027b2 19d8       6295 	.data.b	216,25
000027b4 23         6296 	.data.b	35
000027b5 01         6297 	.data.b	1
000027b6 00         6298 	.data.b	0
000027b7 03         6299 	.data.b	3

                                                                      Page 131
                                                              C:\Users\Fengyuan\AppData\Local\Temp\gh_0000fuk1.s
000027b8 00         6300 	.data.b	0
000027b9 01         6301 	.data.b	1
000027ba 00         6302 	.data.b	0
000027bb 01         6303 	.data.b	1
                    6304 
                    6305 .LDW_49f9688:
000027bc 12         6306 	.data.b	18
000027bd 506d6f43   6307 	.data.b	67,111,109,80,100,117,73,100,0
000027c1 64497564 
000027c5 00 
000027c6 19d8       6308 	.data.b	216,25
000027c8 4d         6309 	.data.b	77
000027c9 01         6310 	.data.b	1
000027ca 00000000*  6311 	.data.w	.LDW_49f9598
000027ce 00         6312 	.data.b	0
                    6313 
                    6314 .LDW_49b05c8:
000027cf 22         6315 	.data.b	34
                    6316 
000027d0 00         6317 	.data.b	0
                    6318 
000027d1 00         6319 	.data.b	0
                    6320 
                    6321 .LDW_49f9790:
000027d2 17         6322 	.data.b	23
000027d3 5f6d6f43   6323 	.data.b	67,111,109,95,65,99,116,105,118,97,116,101,82,120,67,111,109,73,80,100,117,0
000027d7 69746341 
000027db 65746176 
000027df 6f437852 
000027e3 6450496d 
000027e7 0075 
000027e9 1aa4       6324 	.data.b	164,26
000027eb 23         6325 	.data.b	35
000027ec 01         6326 	.data.b	1
000027ed 00         6327 	.data.b	0
000027ee 03         6328 	.data.b	3
000027ef 00         6329 	.data.b	0
000027f0 01         6330 	.data.b	1
000027f1 00         6331 	.data.b	0
000027f2 01         6332 	.data.b	1
                    6333 
                    6334 .LDW_49f9828:
000027f3 12         6335 	.data.b	18
000027f4 64507872   6336 	.data.b	114,120,80,100,117,73,100,120,0
000027f8 78644975 
000027fc 00 
000027fd 1aa4       6337 	.data.b	164,26
000027ff 4f         6338 	.data.b	79
00002800 01         6339 	.data.b	1
00002801 00000000*  6340 	.data.w	.LDW_49f96e0
00002805 00         6341 	.data.b	0
                    6342 
                    6343 .LDW_49f9880:
00002806 12         6344 	.data.b	18
00002807 74696e69   6345 	.data.b	105,110,105,116,105,97,108,105,122,101,0
0000280b 696c6169 
0000280f 00657a 
00002812 1aa4       6346 	.data.b	164,26
00002814 61         6347 	.data.b	97
00002815 01         6348 	.data.b	1
00002816 00000000*  6349 	.data.w	.LDW_49f9738

                                                                      Page 132
                                                              C:\Users\Fengyuan\AppData\Local\Temp\gh_0000fuk1.s
0000281a 00         6350 	.data.b	0
                    6351 
                    6352 .LDW_49b0628:
0000281b 22         6353 	.data.b	34
                    6354 
0000281c 00         6355 	.data.b	0
                    6356 
0000281d 00         6357 	.data.b	0
                    6358 
                    6359 .LDW_49f98d8:
0000281e 17         6360 	.data.b	23
0000281f 5f6d6f43   6361 	.data.b	67,111,109,95,65,99,116,105,118,97,116,101,84,120,67,111,109,73,80,100,117,0
00002823 69746341 
00002827 65746176 
0000282b 6f437854 
0000282f 6450496d 
00002833 0075 
00002835 1ac9       6362 	.data.b	201,26
00002837 23         6363 	.data.b	35
00002838 01         6364 	.data.b	1
00002839 00         6365 	.data.b	0
0000283a 03         6366 	.data.b	3
0000283b 00         6367 	.data.b	0
0000283c 01         6368 	.data.b	1
0000283d 00         6369 	.data.b	0
0000283e 01         6370 	.data.b	1
                    6371 
                    6372 .LDW_49f9970:
0000283f 12         6373 	.data.b	18
00002840 546d6f43   6374 	.data.b	67,111,109,84,120,80,100,117,73,100,0
00002844 75645078 
00002848 006449 
0000284b 1ac9       6375 	.data.b	201,26
0000284d 4f         6376 	.data.b	79
0000284e 01         6377 	.data.b	1
0000284f 00000000*  6378 	.data.w	.LDW_49f9598
00002853 00         6379 	.data.b	0
                    6380 
                    6381 .LDW_49fa0d0:
00002854 12         6382 	.data.b	18
00002855 74696e69   6383 	.data.b	105,110,105,116,105,97,108,105,122,101,0
00002859 696c6169 
0000285d 00657a 
00002860 1ac9       6384 	.data.b	201,26
00002862 63         6385 	.data.b	99
00002863 01         6386 	.data.b	1
00002864 00000000*  6387 	.data.w	.LDW_49f9738
00002868 00         6388 	.data.b	0
                    6389 
                    6390 .LDW_49b0688:
00002869 22         6391 	.data.b	34
                    6392 
0000286a 00         6393 	.data.b	0
                    6394 
0000286b 00         6395 	.data.b	0
                    6396 
                    6397 .LDW_49fa1d0:
0000286c 17         6398 	.data.b	23
0000286d 5f6d6f43   6399 	.data.b	67,111,109,95,73,112,100,117,71,114,111,117,112,67,111,110,116,114,111,108,95,85,112,100,97,116,101,82,120,67,111,109,73,80,100,117,83,116,97,116,101,0
00002871 75647049 
00002875 756f7247 

                                                                      Page 133
                                                              C:\Users\Fengyuan\AppData\Local\Temp\gh_0000fuk1.s
00002879 6e6f4370 
0000287d 6c6f7274 
00002881 6470555f 
00002885 52657461 
00002889 6d6f4378 
0000288d 75645049 
00002891 74617453 
00002895 0065 
00002897 1af1       6400 	.data.b	241,26
00002899 23         6401 	.data.b	35
0000289a 01         6402 	.data.b	1
0000289b 00         6403 	.data.b	0
0000289c 03         6404 	.data.b	3
0000289d 00         6405 	.data.b	0
0000289e 01         6406 	.data.b	1
0000289f 00         6407 	.data.b	0
000028a0 01         6408 	.data.b	1
                    6409 
                    6410 .LDW_49f9f70:
000028a1 12         6411 	.data.b	18
000028a2 75647069   6412 	.data.b	105,112,100,117,71,114,111,117,112,86,101,99,116,111,114,0
000028a6 756f7247 
000028aa 63655670 
000028ae 00726f74 
000028b2 1af1       6413 	.data.b	241,26
000028b4 61         6414 	.data.b	97
000028b5 01         6415 	.data.b	1
000028b6 00000000*  6416 	.data.w	.LDW_49cd610
000028ba 00         6417 	.data.b	0
                    6418 
                    6419 .LDW_49f9ec0:
000028bb 12         6420 	.data.b	18
000028bc 74696e69   6421 	.data.b	105,110,105,116,105,97,108,105,122,101,0
000028c0 696c6169 
000028c4 00657a 
000028c7 1af1       6422 	.data.b	241,26
000028c9 7a         6423 	.data.b	122
000028ca 01         6424 	.data.b	1
000028cb 00000000*  6425 	.data.w	.LDW_49f9738
000028cf 00         6426 	.data.b	0
                    6427 
                    6428 .LDW_49fbb28:
000028d0 22         6429 	.data.b	34
                    6430 
                    6431 .LDW_49f9f18:
000028d1 07         6432 	.data.b	7
000028d2 00786469   6433 	.data.b	105,100,120,0
000028d6 1af3       6434 	.data.b	243,26
000028d8 25         6435 	.data.b	37
000028d9 01         6436 	.data.b	1
000028da 00000000*  6437 	.data.w	.LDW_49f9ba8
000028de 00         6438 	.data.b	0
000028df 00         6439 	.data.b	0
                    6440 
                    6441 .LDW_49fb8e8:
000028e0 22         6442 	.data.b	34
                    6443 
                    6444 .LDW_49fa128:
000028e1 07         6445 	.data.b	7
000028e2 526d6f43   6446 	.data.b	67,111,109,82,120,80,100,117,73,100,0
000028e6 75645078 

                                                                      Page 134
                                                              C:\Users\Fengyuan\AppData\Local\Temp\gh_0000fuk1.s
000028ea 006449 
000028ed 1afa       6447 	.data.b	250,26
000028ef 1b         6448 	.data.b	27
000028f0 01         6449 	.data.b	1
000028f1 00000000*  6450 	.data.w	.LDW_49f96e0
000028f5 00         6451 	.data.b	0
000028f6 00         6452 	.data.b	0
                    6453 
                    6454 .LDW_49f9cb0:
000028f7 07         6455 	.data.b	7
000028f8 71655262   6456 	.data.b	98,82,101,113,117,101,115,116,101,100,65,99,116,105,118,101,83,116,97,116,101,0
000028fc 74736575 
00002900 63416465 
00002904 65766974 
00002908 74617453 
0000290c 0065 
0000290e 1afd       6457 	.data.b	253,26
00002910 0d         6458 	.data.b	13
00002911 01         6459 	.data.b	1
00002912 00000000*  6460 	.data.w	.LDW_49f9738
00002916 00         6461 	.data.b	0
00002917 00         6462 	.data.b	0
                    6463 
                    6464 .LDW_49f9b50:
00002918 07         6465 	.data.b	7
00002919 47756470   6466 	.data.b	112,100,117,71,114,112,86,101,99,116,111,114,73,100,120,0
0000291d 65567072 
00002921 726f7463 
00002925 00786449 
00002929 1afe       6467 	.data.b	254,26
0000292b 2e         6468 	.data.b	46
0000292c 01         6469 	.data.b	1
0000292d 00000000*  6470 	.data.w	.LDW_49fa020
00002931 00         6471 	.data.b	0
00002932 00         6472 	.data.b	0
                    6473 
                    6474 .LDW_49fb828:
00002933 22         6475 	.data.b	34
                    6476 
                    6477 .LDW_49f9fc8:
00002934 07         6478 	.data.b	7
00002935 74794269   6479 	.data.b	105,66,121,116,101,73,110,100,101,120,0
00002939 646e4965 
0000293d 007865 
00002940 1b81       6480 	.data.b	129,27
00002942 13         6481 	.data.b	19
00002943 01         6482 	.data.b	1
00002944 00000000*  6483 	.data.w	.LDW_49f9540
00002948 00         6484 	.data.b	0
00002949 00         6485 	.data.b	0
                    6486 
0000294a 00         6487 	.data.b	0
                    6488 
0000294b 00         6489 	.data.b	0
                    6490 
0000294c 00         6491 	.data.b	0
                    6492 
0000294d 00         6493 	.data.b	0
                    6494 
                    6495 .LDW_49fa268:
0000294e 17         6496 	.data.b	23

                                                                      Page 135
                                                              C:\Users\Fengyuan\AppData\Local\Temp\gh_0000fuk1.s
0000294f 5f6d6f43   6497 	.data.b	67,111,109,95,68,101,97,99,116,105,118,97,116,101,82,120,67,111,109,73,80,100,117,0
00002953 63616544 
00002957 61766974 
0000295b 78526574 
0000295f 496d6f43 
00002963 00756450 
00002967 1bad       6498 	.data.b	173,27
00002969 23         6499 	.data.b	35
0000296a 01         6500 	.data.b	1
0000296b 00         6501 	.data.b	0
0000296c 03         6502 	.data.b	3
0000296d 00         6503 	.data.b	0
0000296e 01         6504 	.data.b	1
0000296f 00         6505 	.data.b	0
00002970 01         6506 	.data.b	1
                    6507 
                    6508 .LDW_49f9aa0:
00002971 12         6509 	.data.b	18
00002972 526d6f43   6510 	.data.b	67,111,109,82,120,80,100,117,73,100,0
00002976 75645078 
0000297a 006449 
0000297d 1bad       6511 	.data.b	173,27
0000297f 51         6512 	.data.b	81
00002980 01         6513 	.data.b	1
00002981 00000000*  6514 	.data.w	.LDW_49f96e0
00002985 00         6515 	.data.b	0
                    6516 
                    6517 .LDW_49fba98:
00002986 22         6518 	.data.b	34
                    6519 
00002987 00         6520 	.data.b	0
                    6521 
00002988 00         6522 	.data.b	0
                    6523 
                    6524 .LDW_49fa300:
00002989 17         6525 	.data.b	23
0000298a 5f6d6f43   6526 	.data.b	67,111,109,95,68,101,97,99,116,105,118,97,116,101,84,120,67,111,109,73,80,100,117,0
0000298e 63616544 
00002992 61766974 
00002996 78546574 
0000299a 496d6f43 
0000299e 00756450 
000029a2 1bc9       6527 	.data.b	201,27
000029a4 23         6528 	.data.b	35
000029a5 01         6529 	.data.b	1
000029a6 00         6530 	.data.b	0
000029a7 03         6531 	.data.b	3
000029a8 00         6532 	.data.b	0
000029a9 01         6533 	.data.b	1
000029aa 00         6534 	.data.b	0
000029ab 01         6535 	.data.b	1
                    6536 
                    6537 .LDW_49f9c00:
000029ac 12         6538 	.data.b	18
000029ad 64507874   6539 	.data.b	116,120,80,100,117,73,100,0
000029b1 00644975 
000029b5 1bc9       6540 	.data.b	201,27
000029b7 51         6541 	.data.b	81
000029b8 01         6542 	.data.b	1
000029b9 00000000*  6543 	.data.w	.LDW_49f9598
000029bd 00         6544 	.data.b	0

                                                                      Page 136
                                                              C:\Users\Fengyuan\AppData\Local\Temp\gh_0000fuk1.s
                    6545 
                    6546 .LDW_49fb9a8:
000029be 22         6547 	.data.b	34
                    6548 
000029bf 00         6549 	.data.b	0
                    6550 
000029c0 00         6551 	.data.b	0
                    6552 
                    6553 .LDW_49fa398:
000029c1 17         6554 	.data.b	23
000029c2 5f6d6f43   6555 	.data.b	67,111,109,95,73,112,100,117,71,114,111,117,112,67,111,110,116,114,111,108,95,83,101,116,82,101,113,117,101,115,116,101,100,65,99,116,105,118,101,83,116,97,116,101,0
000029c6 75647049 
000029ca 756f7247 
000029ce 6e6f4370 
000029d2 6c6f7274 
000029d6 7465535f 
000029da 75716552 
000029de 65747365 
000029e2 74634164 
000029e6 53657669 
000029ea 65746174 
000029ee 00 
000029ef 1cc6       6556 	.data.b	198,28
000029f1 23         6557 	.data.b	35
000029f2 01         6558 	.data.b	1
000029f3 00         6559 	.data.b	0
000029f4 03         6560 	.data.b	3
000029f5 00         6561 	.data.b	0
000029f6 01         6562 	.data.b	1
000029f7 00         6563 	.data.b	0
000029f8 01         6564 	.data.b	1
                    6565 
                    6566 .LDW_49f9d60:
000029f9 12         6567 	.data.b	18
000029fa 546d6f43   6568 	.data.b	67,111,109,84,120,80,100,117,73,100,0
000029fe 75645078 
00002a02 006449 
00002a05 1cc6       6569 	.data.b	198,28
00002a07 66         6570 	.data.b	102
00002a08 01         6571 	.data.b	1
00002a09 00000000*  6572 	.data.w	.LDW_49f9598
00002a0d 00         6573 	.data.b	0
                    6574 
                    6575 .LDW_49f9db8:
00002a0e 12         6576 	.data.b	18
00002a0f 74696e69   6577 	.data.b	105,110,105,116,105,97,108,105,122,101,0
00002a13 696c6169 
00002a17 00657a 
00002a1a 1cc6       6578 	.data.b	198,28
00002a1c 7a         6579 	.data.b	122
00002a1d 01         6580 	.data.b	1
00002a1e 00000000*  6581 	.data.w	.LDW_49f9738
00002a22 00         6582 	.data.b	0
                    6583 
                    6584 .LDW_49f9d08:
00002a23 12         6585 	.data.b	18
00002a24 71655262   6586 	.data.b	98,82,101,113,117,101,115,116,101,100,65,99,116,105,118,101,83,116,97,116,101,0
00002a28 74736575 
00002a2c 63416465 
00002a30 65766974 
00002a34 74617453 

                                                                      Page 137
                                                              C:\Users\Fengyuan\AppData\Local\Temp\gh_0000fuk1.s
00002a38 0065 
00002a3a 1cc6       6587 	.data.b	198,28
00002a3c 018e       6588 	.data.b	142,1
00002a3e 01         6589 	.data.b	1
00002a3f 00000000*  6590 	.data.w	.LDW_49f9738
00002a43 00         6591 	.data.b	0
                    6592 
                    6593 .LDW_49fbb88:
00002a44 22         6594 	.data.b	34
                    6595 
00002a45 00         6596 	.data.b	0
                    6597 
00002a46 00         6598 	.data.b	0
                    6599 
                    6600 .LDW_49fa430:
00002a47 18         6601 	.data.b	24
00002a48 5f6d6f43   6602 	.data.b	67,111,109,95,73,112,100,117,71,114,111,117,112,67,111,110,116,114,111,108,95,69,118,97,108,117,97,116,101,65,99,116,105,118,101,83,116,97,116,101,0
00002a4c 75647049 
00002a50 756f7247 
00002a54 6e6f4370 
00002a58 6c6f7274 
00002a5c 6176455f 
00002a60 7461756c 
00002a64 74634165 
00002a68 53657669 
00002a6c 65746174 
00002a70 00 
00002a71 1ce1       6603 	.data.b	225,28
00002a73 26         6604 	.data.b	38
00002a74 01         6605 	.data.b	1
00002a75 00000000*  6606 	.data.w	.LDW_49f9738
00002a79 00         6607 	.data.b	0
00002a7a 03         6608 	.data.b	3
00002a7b 00         6609 	.data.b	0
00002a7c 01         6610 	.data.b	1
00002a7d 00         6611 	.data.b	0
00002a7e 01         6612 	.data.b	1
                    6613 
                    6614 .LDW_49fa078:
00002a7f 12         6615 	.data.b	18
00002a80 75647069   6616 	.data.b	105,112,100,117,71,114,111,117,112,86,101,99,116,111,114,0
00002a84 756f7247 
00002a88 63655670 
00002a8c 00726f74 
00002a90 1ce1       6617 	.data.b	225,28
00002a92 63         6618 	.data.b	99
00002a93 01         6619 	.data.b	1
00002a94 00000000*  6620 	.data.w	.LDW_49cd610
00002a98 00         6621 	.data.b	0
                    6622 
                    6623 .LDW_49f99f0:
00002a99 12         6624 	.data.b	18
00002a9a 546d6f43   6625 	.data.b	67,111,109,84,120,80,100,117,73,100,0
00002a9e 75645078 
00002aa2 006449 
00002aa5 1ce1       6626 	.data.b	225,28
00002aa7 018a       6627 	.data.b	138,1
00002aa9 01         6628 	.data.b	1
00002aaa 00000000*  6629 	.data.w	.LDW_49f9598
00002aae 00         6630 	.data.b	0
                    6631 

                                                                      Page 138
                                                              C:\Users\Fengyuan\AppData\Local\Temp\gh_0000fuk1.s
                    6632 .LDW_49fb7c8:
00002aaf 22         6633 	.data.b	34
                    6634 
                    6635 .LDW_49f9a48:
00002ab0 07         6636 	.data.b	7
00002ab1 71655262   6637 	.data.b	98,82,101,113,117,101,115,116,101,100,65,99,116,105,118,101,83,116,97,116,101,0
00002ab5 74736575 
00002ab9 63416465 
00002abd 65766974 
00002ac1 74617453 
00002ac5 0065 
00002ac7 1ce3       6638 	.data.b	227,28
00002ac9 0b         6639 	.data.b	11
00002aca 01         6640 	.data.b	1
00002acb 00000000*  6641 	.data.w	.LDW_49f9738
00002acf 00         6642 	.data.b	0
00002ad0 00         6643 	.data.b	0
                    6644 
                    6645 .LDW_49f9c58:
00002ad1 07         6646 	.data.b	7
00002ad2 47756470   6647 	.data.b	112,100,117,71,114,112,86,101,99,116,111,114,73,100,120,0
00002ad6 65567072 
00002ada 726f7463 
00002ade 00786449 
00002ae2 1ce4       6648 	.data.b	228,28
00002ae4 2c         6649 	.data.b	44
00002ae5 01         6650 	.data.b	1
00002ae6 00000000*  6651 	.data.w	.LDW_49f9af8
00002aea 00         6652 	.data.b	0
00002aeb 00         6653 	.data.b	0
                    6654 
                    6655 .LDW_49f9e10:
00002aec 07         6656 	.data.b	7
00002aed 74794269   6657 	.data.b	105,66,121,116,101,73,110,100,101,120,0
00002af1 646e4965 
00002af5 007865 
00002af8 1ce6       6658 	.data.b	230,28
00002afa 0f         6659 	.data.b	15
00002afb 01         6660 	.data.b	1
00002afc 00000000*  6661 	.data.w	.LDW_49f9540
00002b00 00         6662 	.data.b	0
00002b01 00         6663 	.data.b	0
                    6664 
00002b02 00         6665 	.data.b	0
                    6666 
00002b03 00         6667 	.data.b	0
                    6668 
                    6669 .LDW_49fbf10:
00002b04 17         6670 	.data.b	23
00002b05 5f6d6f43   6671 	.data.b	67,111,109,95,73,110,105,116,84,120,0
00002b09 74696e49 
00002b0d 007854 
00002b10 1ef9       6672 	.data.b	249,30
00002b12 23         6673 	.data.b	35
00002b13 01         6674 	.data.b	1
00002b14 00         6675 	.data.b	0
00002b15 03         6676 	.data.b	3
00002b16 00         6677 	.data.b	0
00002b17 01         6678 	.data.b	1
00002b18 00         6679 	.data.b	0
00002b19 01         6680 	.data.b	1

                                                                      Page 139
                                                              C:\Users\Fengyuan\AppData\Local\Temp\gh_0000fuk1.s
                    6681 
                    6682 .LDW_49fbac8:
00002b1a 22         6683 	.data.b	34
                    6684 
                    6685 .LDW_49f9e68:
00002b1b 07         6686 	.data.b	7
00002b1c 546d6f43   6687 	.data.b	67,111,109,84,120,80,100,117,73,100,0
00002b20 75645078 
00002b24 006449 
00002b27 1efb       6688 	.data.b	251,30
00002b29 19         6689 	.data.b	25
00002b2a 01         6690 	.data.b	1
00002b2b 00000000*  6691 	.data.w	.LDW_49f9598
00002b2f 00         6692 	.data.b	0
00002b30 00         6693 	.data.b	0
                    6694 
00002b31 00         6695 	.data.b	0
                    6696 
00002b32 00         6697 	.data.b	0
                    6698 
                    6699 .LDW_49fbfa8:
00002b33 17         6700 	.data.b	23
00002b34 5f6d6f43   6701 	.data.b	67,111,109,95,73,110,105,116,82,120,0
00002b38 74696e49 
00002b3c 007852 
00002b3f 1f98       6702 	.data.b	152,31
00002b41 23         6703 	.data.b	35
00002b42 01         6704 	.data.b	1
00002b43 00         6705 	.data.b	0
00002b44 03         6706 	.data.b	3
00002b45 00         6707 	.data.b	0
00002b46 01         6708 	.data.b	1
00002b47 00         6709 	.data.b	0
00002b48 01         6710 	.data.b	1
                    6711 
                    6712 .LDW_49fb918:
00002b49 22         6713 	.data.b	34
                    6714 
                    6715 .LDW_5ef25e8:
00002b4a 07         6716 	.data.b	7
00002b4b 526d6f43   6717 	.data.b	67,111,109,82,120,80,100,117,73,100,0
00002b4f 75645078 
00002b53 006449 
00002b56 1f9a       6718 	.data.b	154,31
00002b58 19         6719 	.data.b	25
00002b59 01         6720 	.data.b	1
00002b5a 00000000*  6721 	.data.w	.LDW_49f96e0
00002b5e 00         6722 	.data.b	0
00002b5f 00         6723 	.data.b	0
                    6724 
00002b60 00         6725 	.data.b	0
                    6726 
00002b61 00         6727 	.data.b	0
                    6728 
                    6729 .LDW_49fc040:
00002b62 17         6730 	.data.b	23
00002b63 5f6d6f43   6731 	.data.b	67,111,109,95,82,120,73,80,100,117,71,114,111,117,112,95,69,110,116,101,114,69,120,99,108,117,115,105,118,101,65,114,101,97,0
00002b67 50497852 
00002b6b 72477564 
00002b6f 5f70756f 
00002b73 65746e45 

                                                                      Page 140
                                                              C:\Users\Fengyuan\AppData\Local\Temp\gh_0000fuk1.s
00002b77 63784572 
00002b7b 6973756c 
00002b7f 72416576 
00002b83 006165 
00002b86 1fb4       6732 	.data.b	180,31
00002b88 23         6733 	.data.b	35
00002b89 01         6734 	.data.b	1
00002b8a 00         6735 	.data.b	0
00002b8b 03         6736 	.data.b	3
00002b8c 00         6737 	.data.b	0
00002b8d 01         6738 	.data.b	1
00002b8e 00         6739 	.data.b	0
00002b8f 01         6740 	.data.b	1
                    6741 
                    6742 .LDW_49fb978:
00002b90 22         6743 	.data.b	34
                    6744 
00002b91 00         6745 	.data.b	0
                    6746 
00002b92 00         6747 	.data.b	0
                    6748 
                    6749 .LDW_49fc0d8:
00002b93 17         6750 	.data.b	23
00002b94 5f6d6f43   6751 	.data.b	67,111,109,95,82,120,73,80,100,117,71,114,111,117,112,95,69,120,105,116,69,120,99,108,117,115,105,118,101,65,114,101,97,0
00002b98 50497852 
00002b9c 72477564 
00002ba0 5f70756f 
00002ba4 74697845 
00002ba8 6c637845 
00002bac 76697375 
00002bb0 65724165 
00002bb4 0061 
00002bb6 1fc2       6752 	.data.b	194,31
00002bb8 23         6753 	.data.b	35
00002bb9 01         6754 	.data.b	1
00002bba 00         6755 	.data.b	0
00002bbb 03         6756 	.data.b	3
00002bbc 00         6757 	.data.b	0
00002bbd 01         6758 	.data.b	1
00002bbe 00         6759 	.data.b	0
00002bbf 01         6760 	.data.b	1
                    6761 
                    6762 .LDW_49fbd08:
00002bc0 22         6763 	.data.b	34
                    6764 
00002bc1 00         6765 	.data.b	0
                    6766 
00002bc2 00         6767 	.data.b	0
                    6768 
                    6769 .LDW_49fc170:
00002bc3 17         6770 	.data.b	23
00002bc4 5f6d6f43   6771 	.data.b	67,111,109,95,82,120,73,80,100,117,71,114,111,117,112,95,84,104,114,101,115,104,111,108,100,67,104,101,99,107,0
00002bc8 50497852 
00002bcc 72477564 
00002bd0 5f70756f 
00002bd4 65726854 
00002bd8 6c6f6873 
00002bdc 65684364 
00002be0 006b63 
00002be3 1fd2       6772 	.data.b	210,31
00002be5 23         6773 	.data.b	35

                                                                      Page 141
                                                              C:\Users\Fengyuan\AppData\Local\Temp\gh_0000fuk1.s
00002be6 01         6774 	.data.b	1
00002be7 00         6775 	.data.b	0
00002be8 03         6776 	.data.b	3
00002be9 00         6777 	.data.b	0
00002bea 01         6778 	.data.b	1
00002beb 00         6779 	.data.b	0
00002bec 01         6780 	.data.b	1
                    6781 
                    6782 .LDW_49fbc48:
00002bed 22         6783 	.data.b	34
                    6784 
00002bee 00         6785 	.data.b	0
                    6786 
00002bef 00         6787 	.data.b	0
                    6788 
                    6789 .LDW_49fc208:
00002bf0 17         6790 	.data.b	23
00002bf1 5f6d6f43   6791 	.data.b	67,111,109,95,84,120,73,80,100,117,71,114,111,117,112,95,69,110,116,101,114,69,120,99,108,117,115,105,118,101,65,114,101,97,0
00002bf5 50497854 
00002bf9 72477564 
00002bfd 5f70756f 
00002c01 65746e45 
00002c05 63784572 
00002c09 6973756c 
00002c0d 72416576 
00002c11 006165 
00002c14 1fea       6792 	.data.b	234,31
00002c16 23         6793 	.data.b	35
00002c17 01         6794 	.data.b	1
00002c18 00         6795 	.data.b	0
00002c19 03         6796 	.data.b	3
00002c1a 00         6797 	.data.b	0
00002c1b 01         6798 	.data.b	1
00002c1c 00         6799 	.data.b	0
00002c1d 01         6800 	.data.b	1
                    6801 
                    6802 .LDW_49fba68:
00002c1e 22         6803 	.data.b	34
                    6804 
00002c1f 00         6805 	.data.b	0
                    6806 
00002c20 00         6807 	.data.b	0
                    6808 
                    6809 .LDW_49fc2a0:
00002c21 17         6810 	.data.b	23
00002c22 5f6d6f43   6811 	.data.b	67,111,109,95,84,120,73,80,100,117,71,114,111,117,112,95,69,120,105,116,69,120,99,108,117,115,105,118,101,65,114,101,97,0
00002c26 50497854 
00002c2a 72477564 
00002c2e 5f70756f 
00002c32 74697845 
00002c36 6c637845 
00002c3a 76697375 
00002c3e 65724165 
00002c42 0061 
00002c44 1ff8       6812 	.data.b	248,31
00002c46 23         6813 	.data.b	35
00002c47 01         6814 	.data.b	1
00002c48 00         6815 	.data.b	0
00002c49 03         6816 	.data.b	3
00002c4a 00         6817 	.data.b	0
00002c4b 01         6818 	.data.b	1

                                                                      Page 142
                                                              C:\Users\Fengyuan\AppData\Local\Temp\gh_0000fuk1.s
00002c4c 00         6819 	.data.b	0
00002c4d 01         6820 	.data.b	1
                    6821 
                    6822 .LDW_49fb888:
00002c4e 22         6823 	.data.b	34
                    6824 
00002c4f 00         6825 	.data.b	0
                    6826 
00002c50 00         6827 	.data.b	0
                    6828 
                    6829 .LDW_5ef3a40:
00002c51 17         6830 	.data.b	23
00002c52 5f6d6f43   6831 	.data.b	67,111,109,95,84,120,73,80,100,117,71,114,111,117,112,95,84,104,114,101,115,104,111,108,100,67,104,101,99,107,0
00002c56 50497854 
00002c5a 72477564 
00002c5e 5f70756f 
00002c62 65726854 
00002c66 6c6f6873 
00002c6a 65684364 
00002c6e 006b63 
00002c71 2088       6832 	.data.b	136,32
00002c73 23         6833 	.data.b	35
00002c74 01         6834 	.data.b	1
00002c75 00         6835 	.data.b	0
00002c76 03         6836 	.data.b	3
00002c77 00         6837 	.data.b	0
00002c78 01         6838 	.data.b	1
00002c79 00         6839 	.data.b	0
00002c7a 01         6840 	.data.b	1
                    6841 
                    6842 .LDW_49fba38:
00002c7b 22         6843 	.data.b	34
                    6844 
00002c7c 00         6845 	.data.b	0
                    6846 
00002c7d 00         6847 	.data.b	0
                    6848 
                    6849 .LDW_5ef3dd0:
00002c7e 17         6850 	.data.b	23
00002c7f 5f6d6f43   6851 	.data.b	67,111,109,95,83,105,103,110,97,108,95,87,114,105,116,101,83,105,103,110,97,108,0
00002c83 6e676953 
00002c87 575f6c61 
00002c8b 65746972 
00002c8f 6e676953 
00002c93 006c61 
00002c96 2ab1       6852 	.data.b	177,42
00002c98 23         6853 	.data.b	35
00002c99 01         6854 	.data.b	1
00002c9a 00         6855 	.data.b	0
00002c9b 03         6856 	.data.b	3
00002c9c 00         6857 	.data.b	0
00002c9d 01         6858 	.data.b	1
00002c9e 00         6859 	.data.b	0
00002c9f 01         6860 	.data.b	1
                    6861 
                    6862 .LDW_5ef2ab8:
00002ca0 12         6863 	.data.b	18
00002ca1 6e676953   6864 	.data.b	83,105,103,110,97,108,73,100,0
00002ca5 64496c61 
00002ca9 00 
00002caa 2ab1       6865 	.data.b	177,42

                                                                      Page 143
                                                              C:\Users\Fengyuan\AppData\Local\Temp\gh_0000fuk1.s
00002cac 4b         6866 	.data.b	75
00002cad 01         6867 	.data.b	1
00002cae 00000000*  6868 	.data.w	.LDW_5ef2748
00002cb2 00         6869 	.data.b	0
                    6870 
                    6871 .LDW_5ef2b68:
00002cb3 12         6872 	.data.b	18
00002cb4 6e676953   6873 	.data.b	83,105,103,110,97,108,65,112,112,108,83,111,117,114,99,101,80,116,114,0
00002cb8 70416c61 
00002cbc 6f536c70 
00002cc0 65637275 
00002cc4 00727450 
00002cc8 2ab1       6874 	.data.b	177,42
00002cca 7e         6875 	.data.b	126
00002ccb 01         6876 	.data.b	1
00002ccc 00000000*  6877 	.data.w	.LDW_5ef4418
00002cd0 00         6878 	.data.b	0
                    6879 
                    6880 .LDW_49fb738:
00002cd1 22         6881 	.data.b	34
                    6882 
                    6883 .LDW_5ef27a0:
00002cd2 07         6884 	.data.b	7
00002cd3 6e676953   6885 	.data.b	83,105,103,110,97,108,65,112,112,108,83,111,117,114,99,101,80,116,114,73,110,116,101,114,110,97,108,0
00002cd7 70416c61 
00002cdb 6f536c70 
00002cdf 65637275 
00002ce3 49727450 
00002ce7 7265746e 
00002ceb 006c616e 
00002cef 2ab3       6886 	.data.b	179,42
00002cf1 2c         6887 	.data.b	44
00002cf2 01         6888 	.data.b	1
00002cf3 00000000*  6889 	.data.w	.LDW_5ef4418
00002cf7 00         6890 	.data.b	0
00002cf8 00         6891 	.data.b	0
                    6892 
                    6893 .LDW_5ef21c8:
00002cf9 07         6894 	.data.b	7
00002cfa 6e676973   6895 	.data.b	115,105,103,110,97,108,83,116,97,114,116,66,105,116,0
00002cfe 74536c61 
00002d02 42747261 
00002d06 007469 
00002d09 2ab5       6896 	.data.b	181,42
00002d0b 22         6897 	.data.b	34
00002d0c 01         6898 	.data.b	1
00002d0d 00000000*  6899 	.data.w	.LDW_5ef2278
00002d11 00         6900 	.data.b	0
00002d12 00         6901 	.data.b	0
                    6902 
                    6903 .LDW_49fbca8:
00002d13 22         6904 	.data.b	34
                    6905 
                    6906 .LDW_5ef22d0:
00002d14 07         6907 	.data.b	7
00002d15 6e676973   6908 	.data.b	115,105,103,110,97,108,66,117,115,68,101,115,116,0
00002d19 75426c61 
00002d1d 73654473 
00002d21 0074 
00002d23 2ac4       6909 	.data.b	196,42
00002d25 0d         6910 	.data.b	13

                                                                      Page 144
                                                              C:\Users\Fengyuan\AppData\Local\Temp\gh_0000fuk1.s
00002d26 01         6911 	.data.b	1
00002d27 00000000*  6912 	.data.w	.LDW_5e8ef00
00002d2b 00         6913 	.data.b	0
00002d2c 00         6914 	.data.b	0
                    6915 
                    6916 .LDW_5ef2698:
00002d2d 07         6917 	.data.b	7
00002d2e 6b73616d   6918 	.data.b	109,97,115,107,0
00002d32 00 
00002d33 2ac6       6919 	.data.b	198,42
00002d35 0d         6920 	.data.b	13
00002d36 01         6921 	.data.b	1
00002d37 00000000*  6922 	.data.w	.LDW_5e8ef00
00002d3b 00         6923 	.data.b	0
00002d3c 00         6924 	.data.b	0
                    6925 
00002d3d 00         6926 	.data.b	0
                    6927 
00002d3e 00         6928 	.data.b	0
                    6929 
00002d3f 00         6930 	.data.b	0
                    6931 
                    6932 .LDW_5ef3f98:
00002d40 18         6933 	.data.b	24
00002d41 5f6d6f43   6934 	.data.b	67,111,109,95,83,105,103,110,97,108,95,82,101,97,100,83,105,103,110,97,108,95,85,73,110,116,56,0
00002d45 6e676953 
00002d49 525f6c61 
00002d4d 53646165 
00002d51 616e6769 
00002d55 49555f6c 
00002d59 0038746e 
00002d5d 2bf5       6935 	.data.b	245,43
00002d5f 24         6936 	.data.b	36
00002d60 01         6937 	.data.b	1
00002d61 00000000*  6938 	.data.w	.LDW_5e8ef00
00002d65 00         6939 	.data.b	0
00002d66 03         6940 	.data.b	3
00002d67 00         6941 	.data.b	0
00002d68 01         6942 	.data.b	1
00002d69 00         6943 	.data.b	0
00002d6a 01         6944 	.data.b	1
                    6945 
                    6946 .LDW_5ef27f8:
00002d6b 12         6947 	.data.b	18
00002d6c 52786469   6948 	.data.b	105,100,120,82,120,65,99,99,101,115,115,73,110,102,111,0
00002d70 63634178 
00002d74 49737365 
00002d78 006f666e 
00002d7c 2bf5       6949 	.data.b	245,43
00002d7e 59         6950 	.data.b	89
00002d7f 01         6951 	.data.b	1
00002d80 00000000*  6952 	.data.w	.LDW_5ef2328
00002d84 00         6953 	.data.b	0
                    6954 
                    6955 .LDW_5ef23d8:
00002d85 12         6956 	.data.b	18
00002d86 6e676953   6957 	.data.b	83,105,103,110,97,108,66,117,115,83,111,117,114,99,101,80,116,114,0
00002d8a 75426c61 
00002d8e 756f5373 
00002d92 50656372 
00002d96 007274 

                                                                      Page 145
                                                              C:\Users\Fengyuan\AppData\Local\Temp\gh_0000fuk1.s
00002d99 2bf5       6958 	.data.b	245,43
00002d9b 0194       6959 	.data.b	148,1
00002d9d 01         6960 	.data.b	1
00002d9e 00000000*  6961 	.data.w	.LDW_5ef4418
00002da2 00         6962 	.data.b	0
                    6963 
                    6964 .LDW_49fb9d8:
00002da3 22         6965 	.data.b	34
                    6966 
                    6967 .LDW_5ef2a08:
00002da4 07         6968 	.data.b	7
00002da5 4e706d74   6969 	.data.b	116,109,112,78,101,119,86,97,108,117,101,0
00002da9 61567765 
00002dad 0065756c 
00002db1 2bf7       6970 	.data.b	247,43
00002db3 09         6971 	.data.b	9
00002db4 01         6972 	.data.b	1
00002db5 00000000*  6973 	.data.w	.LDW_5e8ef00
00002db9 00         6974 	.data.b	0
00002dba 00         6975 	.data.b	0
                    6976 
00002dbb 00         6977 	.data.b	0
                    6978 
00002dbc 00         6979 	.data.b	0
                    6980 
                    6981 .LDW_5ef3c08:
00002dbd 17         6982 	.data.b	23
00002dbe 5f6d6f43   6983 	.data.b	67,111,109,95,83,105,103,110,97,108,95,82,101,97,100,83,105,103,110,97,108,65,112,112,108,84,121,112,101,83,112,101,99,105,102,105,99,0
00002dc2 6e676953 
00002dc6 525f6c61 
00002dca 53646165 
00002dce 616e6769 
00002dd2 7070416c 
00002dd6 7079546c 
00002dda 65705365 
00002dde 69666963 
00002de2 0063 
00002de4 2d99       6984 	.data.b	153,45
00002de6 23         6985 	.data.b	35
00002de7 01         6986 	.data.b	1
00002de8 00         6987 	.data.b	0
00002de9 03         6988 	.data.b	3
00002dea 00         6989 	.data.b	0
00002deb 01         6990 	.data.b	1
00002dec 00         6991 	.data.b	0
00002ded 01         6992 	.data.b	1
                    6993 
                    6994 .LDW_5ef2170:
00002dee 12         6995 	.data.b	18
00002def 63417872   6996 	.data.b	114,120,65,99,99,101,115,115,73,110,102,111,73,100,0
00002df3 73736563 
00002df7 6f666e49 
00002dfb 006449 
00002dfe 2d99       6997 	.data.b	153,45
00002e00 62         6998 	.data.b	98
00002e01 01         6999 	.data.b	1
00002e02 00000000*  7000 	.data.w	.LDW_5ef2328
00002e06 00         7001 	.data.b	0
                    7002 
                    7003 .LDW_5ef2900:
00002e07 12         7004 	.data.b	18

                                                                      Page 146
                                                              C:\Users\Fengyuan\AppData\Local\Temp\gh_0000fuk1.s
00002e08 6e676953   7005 	.data.b	83,105,103,110,97,108,65,112,112,108,68,101,115,116,80,116,114,0
00002e0c 70416c61 
00002e10 65446c70 
00002e14 74507473 
00002e18 0072 
00002e1a 2d9a       7006 	.data.b	154,45
00002e1c 6f         7007 	.data.b	111
00002e1d 01         7008 	.data.b	1
00002e1e 00000000*  7009 	.data.w	.LDW_49cd610
00002e22 00         7010 	.data.b	0
                    7011 
                    7012 .LDW_5ef2538:
00002e23 12         7013 	.data.b	18
00002e24 6e676953   7014 	.data.b	83,105,103,110,97,108,66,117,115,83,111,117,114,99,101,80,116,114,0
00002e28 75426c61 
00002e2c 756f5373 
00002e30 50656372 
00002e34 007274 
00002e37 2d9b       7015 	.data.b	155,45
00002e39 73         7016 	.data.b	115
00002e3a 01         7017 	.data.b	1
00002e3b 00000000*  7018 	.data.w	.LDW_5ef4418
00002e3f 00         7019 	.data.b	0
                    7020 
                    7021 .LDW_5ef24e0:
00002e40 12         7022 	.data.b	18
00002e41 74736564   7023 	.data.b	100,101,115,116,76,101,110,103,116,104,0
00002e45 676e654c 
00002e49 006874 
00002e4c 2d9b       7024 	.data.b	155,45
00002e4e 018e       7025 	.data.b	142,1
00002e50 01         7026 	.data.b	1
00002e51 00000000*  7027 	.data.w	.LDW_5ef2b10
00002e55 00         7028 	.data.b	0
                    7029 
                    7030 .LDW_49fbd98:
00002e56 22         7031 	.data.b	34
                    7032 
                    7033 .LDW_5ef2640:
00002e57 07         7034 	.data.b	7
00002e58 6e676953   7035 	.data.b	83,105,103,110,97,108,65,112,112,108,68,101,115,116,80,116,114,73,110,116,101,114,110,0
00002e5c 70416c61 
00002e60 65446c70 
00002e64 74507473 
00002e68 746e4972 
00002e6c 006e7265 
00002e70 2d9d       7036 	.data.b	157,45
00002e72 29         7037 	.data.b	41
00002e73 01         7038 	.data.b	1
00002e74 00000000*  7039 	.data.w	.LDW_49cd610
00002e78 00         7040 	.data.b	0
00002e79 00         7041 	.data.b	0
                    7042 
                    7043 .LDW_5ef26f0:
00002e7a 07         7044 	.data.b	7
00002e7b 6e676973   7045 	.data.b	115,105,103,110,97,108,83,116,97,114,116,66,105,116,0
00002e7f 74536c61 
00002e83 42747261 
00002e87 007469 
00002e8a 2d9f       7046 	.data.b	159,45
00002e8c 25         7047 	.data.b	37

                                                                      Page 147
                                                              C:\Users\Fengyuan\AppData\Local\Temp\gh_0000fuk1.s
00002e8d 01         7048 	.data.b	1
00002e8e 00000000*  7049 	.data.w	.LDW_5ef2590
00002e92 00         7050 	.data.b	0
00002e93 00         7051 	.data.b	0
                    7052 
00002e94 00         7053 	.data.b	0
                    7054 
00002e95 00         7055 	.data.b	0
                    7056 
                    7057 .LDW_5ef3ad8:
00002e96 17         7058 	.data.b	23
00002e97 5f6d6f43   7059 	.data.b	67,111,109,95,83,105,103,110,97,108,95,83,101,116,82,120,83,105,103,66,117,102,102,101,114,86,97,108,117,101,0
00002e9b 6e676953 
00002e9f 535f6c61 
00002ea3 78527465 
00002ea7 42676953 
00002eab 65666675 
00002eaf 6c615672 
00002eb3 006575 
00002eb6 30c0       7060 	.data.b	192,48
00002eb8 23         7061 	.data.b	35
00002eb9 01         7062 	.data.b	1
00002eba 00         7063 	.data.b	0
00002ebb 03         7064 	.data.b	3
00002ebc 00         7065 	.data.b	0
00002ebd 01         7066 	.data.b	1
00002ebe 00         7067 	.data.b	0
00002ebf 01         7068 	.data.b	1
                    7069 
                    7070 .LDW_5ef29b0:
00002ec0 12         7071 	.data.b	18
00002ec1 52786469   7072 	.data.b	105,100,120,82,120,65,99,99,101,115,115,73,110,102,111,0
00002ec5 63634178 
00002ec9 49737365 
00002ecd 006f666e 
00002ed1 30c0       7073 	.data.b	192,48
00002ed3 5b         7074 	.data.b	91
00002ed4 01         7075 	.data.b	1
00002ed5 00000000*  7076 	.data.w	.LDW_5ef2328
00002ed9 00         7077 	.data.b	0
                    7078 
                    7079 .LDW_5ef28a8:
00002eda 12         7080 	.data.b	18
00002edb 44786469   7081 	.data.b	105,100,120,68,101,115,116,86,97,108,117,101,0
00002edf 56747365 
00002ee3 65756c61 
00002ee7 00 
00002ee8 30c0       7082 	.data.b	192,48
00002eea 79         7083 	.data.b	121
00002eeb 01         7084 	.data.b	1
00002eec 00000000*  7085 	.data.w	.LDW_5ef2850
00002ef0 00         7086 	.data.b	0
                    7087 
                    7088 .LDW_5ef20c0:
00002ef1 12         7089 	.data.b	18
00002ef2 53786469   7090 	.data.b	105,100,120,83,114,99,86,97,108,117,101,0
00002ef6 61566372 
00002efa 0065756c 
00002efe 30c0       7091 	.data.b	192,48
00002f00 018e       7092 	.data.b	142,1
00002f02 01         7093 	.data.b	1

                                                                      Page 148
                                                              C:\Users\Fengyuan\AppData\Local\Temp\gh_0000fuk1.s
00002f03 00000000*  7094 	.data.w	.LDW_5ef2380
00002f07 00         7095 	.data.b	0
                    7096 
                    7097 .LDW_49fbe88:
00002f08 22         7098 	.data.b	34
                    7099 
00002f09 00         7100 	.data.b	0
                    7101 
00002f0a 00         7102 	.data.b	0
                    7103 
                    7104 .LDW_5ef3f00:
00002f0b 17         7105 	.data.b	23
00002f0c 5f6d6f43   7106 	.data.b	67,111,109,95,82,120,73,110,100,105,99,97,116,105,111,110,95,80,114,111,99,101,115,115,105,110,103,0
00002f10 6e497852 
00002f14 61636964 
00002f18 6e6f6974 
00002f1c 6f72505f 
00002f20 73736563 
00002f24 00676e69 
00002f28 3ade       7107 	.data.b	222,58
00002f2a 23         7108 	.data.b	35
00002f2b 01         7109 	.data.b	1
00002f2c 00         7110 	.data.b	0
00002f2d 03         7111 	.data.b	3
00002f2e 00         7112 	.data.b	0
00002f2f 01         7113 	.data.b	1
00002f30 00         7114 	.data.b	0
00002f31 01         7115 	.data.b	1
                    7116 
                    7117 .LDW_5ef2488:
00002f32 12         7118 	.data.b	18
00002f33 64507852   7119 	.data.b	82,120,80,100,117,73,100,0
00002f37 00644975 
00002f3b 3ade       7120 	.data.b	222,58
00002f3d 49         7121 	.data.b	73
00002f3e 01         7122 	.data.b	1
00002f3f 00000000*  7123 	.data.w	.LDW_5e8ef58
00002f43 00         7124 	.data.b	0
                    7125 
                    7126 .LDW_5ef2d78:
00002f44 12         7127 	.data.b	18
00002f45 49756450   7128 	.data.b	80,100,117,73,110,102,111,80,116,114,0
00002f49 506f666e 
00002f4d 007274 
00002f50 3ade       7129 	.data.b	222,58
00002f52 0181       7130 	.data.b	129,1
00002f54 01         7131 	.data.b	1
00002f55 00000000*  7132 	.data.w	.LDW_5ef45a0
00002f59 00         7133 	.data.b	0
                    7134 
                    7135 .LDW_6017540:
00002f5a 22         7136 	.data.b	34
                    7137 
00002f5b 00         7138 	.data.b	0
                    7139 
00002f5c 00         7140 	.data.b	0
                    7141 
                    7142 .LDW_5ef3e68:
00002f5d 17         7143 	.data.b	23
00002f5e 5f6d6f43   7144 	.data.b	67,111,109,95,82,101,99,101,105,118,101,83,105,103,110,97,108,95,71,101,116,82,120,83,105,103,66,117,102,102,101,114,0
00002f62 65636552 

                                                                      Page 149
                                                              C:\Users\Fengyuan\AppData\Local\Temp\gh_0000fuk1.s
00002f66 53657669 
00002f6a 616e6769 
00002f6e 65475f6c 
00002f72 53785274 
00002f76 75426769 
00002f7a 72656666 
00002f7e 00 
00002f7f 3bdb       7145 	.data.b	219,59
00002f81 23         7146 	.data.b	35
00002f82 01         7147 	.data.b	1
00002f83 00         7148 	.data.b	0
00002f84 03         7149 	.data.b	3
00002f85 00         7150 	.data.b	0
00002f86 01         7151 	.data.b	1
00002f87 00         7152 	.data.b	0
00002f88 01         7153 	.data.b	1
                    7154 
                    7155 .LDW_5ef2ed8:
00002f89 12         7156 	.data.b	18
00002f8a 52786469   7157 	.data.b	105,100,120,82,120,65,99,99,101,115,115,73,110,102,111,0
00002f8e 63634178 
00002f92 49737365 
00002f96 006f666e 
00002f9a 3bdb       7158 	.data.b	219,59
00002f9c 55         7159 	.data.b	85
00002f9d 01         7160 	.data.b	1
00002f9e 00000000*  7161 	.data.w	.LDW_5ef2748
00002fa2 00         7162 	.data.b	0
                    7163 
                    7164 .LDW_5ef2bc0:
00002fa3 12         7165 	.data.b	18
00002fa4 6e676953   7166 	.data.b	83,105,103,110,97,108,68,97,116,97,80,116,114,0
00002fa8 61446c61 
00002fac 74506174 
00002fb0 0072 
00002fb2 3bdb       7167 	.data.b	219,59
00002fb4 018b       7168 	.data.b	139,1
00002fb6 01         7169 	.data.b	1
00002fb7 00000000*  7170 	.data.w	.LDW_5ef4370
00002fbb 00         7171 	.data.b	0
                    7172 
                    7173 .LDW_60174e0:
00002fbc 22         7174 	.data.b	34
                    7175 
00002fbd 00         7176 	.data.b	0
                    7177 
00002fbe 00         7178 	.data.b	0
                    7179 
                    7180 .LDW_5ef36b0:
00002fbf 17         7181 	.data.b	23
00002fc0 5f6d6f43   7182 	.data.b	67,111,109,95,82,120,80,114,111,99,101,115,115,105,110,103,95,73,110,105,116,82,120,73,112,100,117,0
00002fc4 72507852 
00002fc8 7365636f 
00002fcc 676e6973 
00002fd0 696e495f 
00002fd4 49785274 
00002fd8 00756470 
00002fdc 409e       7183 	.data.b	158,64
00002fde 23         7184 	.data.b	35
00002fdf 01         7185 	.data.b	1
00002fe0 00         7186 	.data.b	0

                                                                      Page 150
                                                              C:\Users\Fengyuan\AppData\Local\Temp\gh_0000fuk1.s
00002fe1 03         7187 	.data.b	3
00002fe2 00         7188 	.data.b	0
00002fe3 01         7189 	.data.b	1
00002fe4 00         7190 	.data.b	0
00002fe5 01         7191 	.data.b	1
                    7192 
                    7193 .LDW_5ef2c18:
00002fe6 12         7194 	.data.b	18
00002fe7 526d6f43   7195 	.data.b	67,111,109,82,120,80,100,117,73,100,0
00002feb 75645078 
00002fef 006449 
00002ff2 409e       7196 	.data.b	158,64
00002ff4 49         7197 	.data.b	73
00002ff5 01         7198 	.data.b	1
00002ff6 00000000*  7199 	.data.w	.LDW_5e8ef58
00002ffa 00         7200 	.data.b	0
                    7201 
                    7202 .LDW_6017660:
00002ffb 22         7203 	.data.b	34
                    7204 
                    7205 .LDW_6017720:
00002ffc 22         7206 	.data.b	34
                    7207 
                    7208 .LDW_5ef2fe0:
00002ffd 07         7209 	.data.b	7
00002ffe 5f6d6f63   7210 	.data.b	99,111,109,95,82,120,65,99,99,101,115,115,73,110,102,111,73,110,100,73,100,120,0
00003002 63417852 
00003006 73736563 
0000300a 6f666e49 
0000300e 49646e49 
00003012 007864 
00003015 40a4       7211 	.data.b	164,64
00003017 2e         7212 	.data.b	46
00003018 01         7213 	.data.b	1
00003019 00000000*  7214 	.data.w	.LDW_5ef2f88
0000301d 00         7215 	.data.b	0
0000301e 00         7216 	.data.b	0
                    7217 
                    7218 .LDW_6017450:
0000301f 22         7219 	.data.b	34
                    7220 
                    7221 .LDW_5ef3038:
00003020 07         7222 	.data.b	7
00003021 5f6d6f63   7223 	.data.b	99,111,109,95,82,120,65,99,99,101,115,115,73,110,102,111,73,100,120,0
00003025 63417852 
00003029 73736563 
0000302d 6f666e49 
00003031 00786449 
00003035 40a7       7224 	.data.b	167,64
00003037 20         7225 	.data.b	32
00003038 01         7226 	.data.b	1
00003039 00000000*  7227 	.data.w	.LDW_5ef2328
0000303d 00         7228 	.data.b	0
0000303e 00         7229 	.data.b	0
                    7230 
0000303f 00         7231 	.data.b	0
                    7232 
00003040 00         7233 	.data.b	0
                    7234 
00003041 00         7235 	.data.b	0
                    7236 

                                                                      Page 151
                                                              C:\Users\Fengyuan\AppData\Local\Temp\gh_0000fuk1.s
00003042 00         7237 	.data.b	0
                    7238 
                    7239 .LDW_5ef3450:
00003043 17         7240 	.data.b	23
00003044 5f6d6f43   7241 	.data.b	67,111,109,95,82,120,68,101,102,101,114,114,101,100,80,100,117,80,114,111,99,101,115,115,105,110,103,0
00003048 65447852 
0000304c 72726566 
00003050 64506465 
00003054 6f725075 
00003058 73736563 
0000305c 00676e69 
00003060 4182       7242 	.data.b	130,65
00003062 23         7243 	.data.b	35
00003063 01         7244 	.data.b	1
00003064 00         7245 	.data.b	0
00003065 03         7246 	.data.b	3
00003066 00         7247 	.data.b	0
00003067 01         7248 	.data.b	1
00003068 00         7249 	.data.b	0
00003069 01         7250 	.data.b	1
                    7251 
                    7252 .LDW_6017510:
0000306a 22         7253 	.data.b	34
                    7254 
                    7255 .LDW_5ef2e28:
0000306b 07         7256 	.data.b	7
0000306c 65666564   7257 	.data.b	100,101,102,101,114,114,101,100,70,99,116,80,116,114,67,97,99,104,101,83,116,114,99,116,0
00003070 64657272 
00003074 50746346 
00003078 61437274 
0000307c 53656863 
00003080 74637274 
00003084 00 
00003085 4188       7258 	.data.b	136,65
00003087 14         7259 	.data.b	20
00003088 01         7260 	.data.b	1
00003089 00000000*  7261 	.data.w	.LDW_5ef2dd0
0000308d 00         7262 	.data.b	0
0000308e 00         7263 	.data.b	0
                    7264 
0000308f 00         7265 	.data.b	0
                    7266 
00003090 00         7267 	.data.b	0
                    7268 
                    7269 .LDW_5ef30c0:
00003091 17         7270 	.data.b	23
00003092 5f6d6f43   7271 	.data.b	67,111,109,95,82,120,68,101,102,101,114,114,101,100,80,100,117,80,114,111,99,101,115,115,105,110,103,95,73,116,101,114,97,116,101,79,118,101,114,65,108,108,82,120,80,100,117,115,0
00003096 65447852 
0000309a 72726566 
0000309e 64506465 
000030a2 6f725075 
000030a6 73736563 
000030aa 5f676e69 
000030ae 72657449 
000030b2 4f657461 
000030b6 41726576 
000030ba 78526c6c 
000030be 73756450 
000030c2 00 
000030c3 41cf       7272 	.data.b	207,65
000030c5 23         7273 	.data.b	35

                                                                      Page 152
                                                              C:\Users\Fengyuan\AppData\Local\Temp\gh_0000fuk1.s
000030c6 01         7274 	.data.b	1
000030c7 00         7275 	.data.b	0
000030c8 03         7276 	.data.b	3
000030c9 00         7277 	.data.b	0
000030ca 01         7278 	.data.b	1
000030cb 00         7279 	.data.b	0
000030cc 01         7280 	.data.b	1
                    7281 
                    7282 .LDW_5ef2d20:
000030cd 12         7283 	.data.b	18
000030ce 65666564   7284 	.data.b	100,101,102,101,114,114,101,100,70,99,116,80,116,114,67,97,99,104,101,83,116,114,99,116,0
000030d2 64657272 
000030d6 50746346 
000030da 61437274 
000030de 53656863 
000030e2 74637274 
000030e6 00 
000030e7 41cf       7285 	.data.b	207,65
000030e9 0186       7286 	.data.b	134,1
000030eb 01         7287 	.data.b	1
000030ec 00000000*  7288 	.data.w	.LDW_5ef4728
000030f0 00         7289 	.data.b	0
                    7290 
                    7291 .LDW_6017870:
000030f1 22         7292 	.data.b	34
                    7293 
                    7294 .LDW_5ef2f30:
000030f2 07         7295 	.data.b	7
000030f3 52786469   7296 	.data.b	105,100,120,82,120,80,100,117,73,110,102,111,0
000030f7 75645078 
000030fb 6f666e49 
000030ff 00 
00003100 41d1       7297 	.data.b	209,65
00003102 1b         7298 	.data.b	27
00003103 01         7299 	.data.b	1
00003104 00000000*  7300 	.data.w	.LDW_5ef2e80
00003108 00         7301 	.data.b	0
00003109 00         7302 	.data.b	0
                    7303 
0000310a 00         7304 	.data.b	0
                    7305 
0000310b 00         7306 	.data.b	0
                    7307 
                    7308 .LDW_5ef3748:
0000310c 17         7309 	.data.b	23
0000310d 5f6d6f43   7310 	.data.b	67,111,109,95,82,120,80,114,111,99,101,115,115,68,101,102,101,114,114,101,100,80,68,85,0
00003111 72507852 
00003115 7365636f 
00003119 66654473 
0000311d 65727265 
00003121 55445064 
00003125 00 
00003126 41f3       7311 	.data.b	243,65
00003128 23         7312 	.data.b	35
00003129 01         7313 	.data.b	1
0000312a 00         7314 	.data.b	0
0000312b 03         7315 	.data.b	3
0000312c 00         7316 	.data.b	0
0000312d 01         7317 	.data.b	1
0000312e 00         7318 	.data.b	0
0000312f 01         7319 	.data.b	1

                                                                      Page 153
                                                              C:\Users\Fengyuan\AppData\Local\Temp\gh_0000fuk1.s
                    7320 
                    7321 .LDW_5ef2cc8:
00003130 12         7322 	.data.b	18
00003131 52786469   7323 	.data.b	105,100,120,82,120,80,100,117,73,110,102,111,0
00003135 75645078 
00003139 6f666e49 
0000313d 00 
0000313e 41f3       7324 	.data.b	243,65
00003140 46         7325 	.data.b	70
00003141 01         7326 	.data.b	1
00003142 00000000*  7327 	.data.w	.LDW_5e8ef58
00003146 00         7328 	.data.b	0
                    7329 
                    7330 .LDW_60181e0:
00003147 12         7331 	.data.b	18
00003148 65666564   7332 	.data.b	100,101,102,101,114,114,101,100,102,99,116,80,116,114,67,97,99,104,101,83,116,114,99,116,80,116,114,0
0000314c 64657272 
00003150 50746366 
00003154 61437274 
00003158 53656863 
0000315c 74637274 
00003160 00727450 
00003164 41f3       7333 	.data.b	243,65
00003166 0186       7334 	.data.b	134,1
00003168 01         7335 	.data.b	1
00003169 00000000*  7336 	.data.w	.LDW_5ef4728
0000316d 00         7337 	.data.b	0
                    7338 
                    7339 .LDW_60172d0:
0000316e 22         7340 	.data.b	34
                    7341 
                    7342 .LDW_6017c08:
0000316f 07         7343 	.data.b	7
00003170 49756450   7344 	.data.b	80,100,117,73,110,102,111,0
00003174 006f666e 
00003178 41f5       7345 	.data.b	245,65
0000317a 0f         7346 	.data.b	15
0000317b 01         7347 	.data.b	1
0000317c 00000000*  7348 	.data.w	.LDW_5ef2a60
00003180 00         7349 	.data.b	0
00003181 00         7350 	.data.b	0
                    7351 
00003182 00         7352 	.data.b	0
                    7353 
00003183 00         7354 	.data.b	0
                    7355 
                    7356 .LDW_5ef3158:
00003184 17         7357 	.data.b	23
00003185 5f6d6f43   7358 	.data.b	67,111,109,95,82,120,73,110,100,105,99,97,116,105,111,110,95,80,114,111,99,101,115,115,80,100,117,0
00003189 6e497852 
0000318d 61636964 
00003191 6e6f6974 
00003195 6f72505f 
00003199 73736563 
0000319d 00756450 
000031a1 42ca       7359 	.data.b	202,66
000031a3 23         7360 	.data.b	35
000031a4 01         7361 	.data.b	1
000031a5 00         7362 	.data.b	0
000031a6 03         7363 	.data.b	3
000031a7 00         7364 	.data.b	0

                                                                      Page 154
                                                              C:\Users\Fengyuan\AppData\Local\Temp\gh_0000fuk1.s
000031a8 01         7365 	.data.b	1
000031a9 00         7366 	.data.b	0
000031aa 01         7367 	.data.b	1
                    7368 
                    7369 .LDW_6018398:
000031ab 12         7370 	.data.b	18
000031ac 506d6f43   7371 	.data.b	67,111,109,80,100,117,73,100,0
000031b0 64497564 
000031b4 00 
000031b5 42ca       7372 	.data.b	202,66
000031b7 49         7373 	.data.b	73
000031b8 01         7374 	.data.b	1
000031b9 00000000*  7375 	.data.w	.LDW_5e8ef58
000031bd 00         7376 	.data.b	0
                    7377 
                    7378 .LDW_6017e70:
000031be 12         7379 	.data.b	18
000031bf 49756450   7380 	.data.b	80,100,117,73,110,102,111,80,116,114,0
000031c3 506f666e 
000031c7 007274 
000031ca 42ca       7381 	.data.b	202,66
000031cc 0182       7382 	.data.b	130,1
000031ce 01         7383 	.data.b	1
000031cf 00000000*  7384 	.data.w	.LDW_5ef45a0
000031d3 00         7385 	.data.b	0
                    7386 
                    7387 .LDW_6017570:
000031d4 22         7388 	.data.b	34
                    7389 
                    7390 .LDW_6017dc0:
000031d5 07         7391 	.data.b	7
000031d6 526d6f63   7392 	.data.b	99,111,109,82,120,80,100,117,73,110,102,111,73,100,120,0
000031da 75645078 
000031de 6f666e49 
000031e2 00786449 
000031e6 42cc       7393 	.data.b	204,66
000031e8 0d         7394 	.data.b	13
000031e9 01         7395 	.data.b	1
000031ea 00000000*  7396 	.data.w	.LDW_5e8ef58
000031ee 00         7397 	.data.b	0
000031ef 00         7398 	.data.b	0
                    7399 
000031f0 00         7400 	.data.b	0
                    7401 
000031f1 00         7402 	.data.b	0
                    7403 
                    7404 .LDW_5ef3b70:
000031f2 17         7405 	.data.b	23
000031f3 5f6d6f43   7406 	.data.b	67,111,109,95,82,120,80,114,111,99,101,115,115,105,110,103,95,82,120,80,100,117,83,105,103,69,118,101,110,116,0
000031f7 72507852 
000031fb 7365636f 
000031ff 676e6973 
00003203 5078525f 
00003207 69537564 
0000320b 65764567 
0000320f 00746e 
00003212 498e       7407 	.data.b	142,73
00003214 23         7408 	.data.b	35
00003215 01         7409 	.data.b	1
00003216 00         7410 	.data.b	0
00003217 03         7411 	.data.b	3

                                                                      Page 155
                                                              C:\Users\Fengyuan\AppData\Local\Temp\gh_0000fuk1.s
00003218 00         7412 	.data.b	0
00003219 01         7413 	.data.b	1
0000321a 00         7414 	.data.b	0
0000321b 01         7415 	.data.b	1
                    7416 
                    7417 .LDW_6018340:
0000321c 12         7418 	.data.b	18
0000321d 526d6f63   7419 	.data.b	99,111,109,82,120,80,100,117,73,110,102,111,73,100,120,0
00003221 75645078 
00003225 6f666e49 
00003229 00786449 
0000322d 498e       7420 	.data.b	142,73
0000322f 4c         7421 	.data.b	76
00003230 01         7422 	.data.b	1
00003231 00000000*  7423 	.data.w	.LDW_5e8ef58
00003235 00         7424 	.data.b	0
                    7425 
                    7426 .LDW_6018080:
00003236 12         7427 	.data.b	18
00003237 49756450   7428 	.data.b	80,100,117,73,110,102,111,80,116,114,0
0000323b 506f666e 
0000323f 007274 
00003242 498e       7429 	.data.b	142,73
00003244 018c       7430 	.data.b	140,1
00003246 01         7431 	.data.b	1
00003247 00000000*  7432 	.data.w	.LDW_5ef45a0
0000324b 00         7433 	.data.b	0
                    7434 
                    7435 .LDW_60182e8:
0000324c 12         7436 	.data.b	18
0000324d 50746366   7437 	.data.b	102,99,116,80,116,114,67,97,99,104,101,83,116,114,99,116,80,116,114,0
00003251 61437274 
00003255 53656863 
00003259 74637274 
0000325d 00727450 
00003261 498f       7438 	.data.b	143,73
00003263 74         7439 	.data.b	116
00003264 01         7440 	.data.b	1
00003265 00000000*  7441 	.data.w	.LDW_5ef4728
00003269 00         7442 	.data.b	0
                    7443 
                    7444 .LDW_6017600:
0000326a 22         7445 	.data.b	34
                    7446 
                    7447 .LDW_6017fd0:
0000326b 07         7448 	.data.b	7
0000326c 52786469   7449 	.data.b	105,100,120,82,120,83,105,103,73,110,102,111,0
00003270 67695378 
00003274 6f666e49 
00003278 00 
00003279 4992       7450 	.data.b	146,73
0000327b 19         7451 	.data.b	25
0000327c 01         7452 	.data.b	1
0000327d 00000000*  7453 	.data.w	.LDW_6017e18
00003281 00         7454 	.data.b	0
00003282 00         7455 	.data.b	0
                    7456 
                    7457 .LDW_60177e0:
00003283 22         7458 	.data.b	34
                    7459 
                    7460 .LDW_6018448:

                                                                      Page 156
                                                              C:\Users\Fengyuan\AppData\Local\Temp\gh_0000fuk1.s
00003284 07         7461 	.data.b	7
00003285 69537872   7462 	.data.b	114,120,83,105,103,80,114,111,99,101,115,115,105,110,103,83,116,97,116,101,0
00003289 6f725067 
0000328d 73736563 
00003291 53676e69 
00003295 65746174 
00003299 00 
0000329a 49a9       7463 	.data.b	169,73
0000329c 21         7464 	.data.b	33
0000329d 01         7465 	.data.b	1
0000329e 00000000*  7466 	.data.w	.LDW_60183f0
000032a2 00         7467 	.data.b	0
000032a3 00         7468 	.data.b	0
                    7469 
000032a4 00         7470 	.data.b	0
                    7471 
000032a5 00         7472 	.data.b	0
                    7473 
000032a6 00         7474 	.data.b	0
                    7475 
                    7476 .LDW_5ef34e8:
000032a7 18         7477 	.data.b	24
000032a8 5f6d6f43   7478 	.data.b	67,111,109,95,82,120,83,105,103,110,97,108,80,114,111,99,101,115,115,105,110,103,0
000032ac 69537852 
000032b0 6c616e67 
000032b4 636f7250 
000032b8 69737365 
000032bc 00676e 
000032bf 4ed1       7479 	.data.b	209,78
000032c1 34         7480 	.data.b	52
000032c2 01         7481 	.data.b	1
000032c3 00000000*  7482 	.data.w	.LDW_60183f0
000032c7 00         7483 	.data.b	0
000032c8 03         7484 	.data.b	3
000032c9 00         7485 	.data.b	0
000032ca 01         7486 	.data.b	1
000032cb 00         7487 	.data.b	0
000032cc 01         7488 	.data.b	1
                    7489 
                    7490 .LDW_6018238:
000032cd 12         7491 	.data.b	18
000032ce 49756450   7492 	.data.b	80,100,117,73,110,102,111,80,116,114,0
000032d2 506f666e 
000032d6 007274 
000032d9 4ed1       7493 	.data.b	209,78
000032db 7a         7494 	.data.b	122
000032dc 01         7495 	.data.b	1
000032dd 00000000*  7496 	.data.w	.LDW_5ef45a0
000032e1 00         7497 	.data.b	0
                    7498 
                    7499 .LDW_60184a0:
000032e2 12         7500 	.data.b	18
000032e3 52786469   7501 	.data.b	105,100,120,82,120,65,99,99,101,115,115,73,110,102,111,0
000032e7 63634178 
000032eb 49737365 
000032ef 006f666e 
000032f3 4ed1       7502 	.data.b	209,78
000032f5 01a9       7503 	.data.b	169,1
000032f7 01         7504 	.data.b	1
000032f8 00000000*  7505 	.data.w	.LDW_6017c60
000032fc 00         7506 	.data.b	0

                                                                      Page 157
                                                              C:\Users\Fengyuan\AppData\Local\Temp\gh_0000fuk1.s
                    7507 
                    7508 .LDW_60172a0:
000032fd 22         7509 	.data.b	34
                    7510 
                    7511 .LDW_60184f8:
000032fe 07         7512 	.data.b	7
000032ff 636f7270   7513 	.data.b	112,114,111,99,101,115,115,83,116,97,116,101,0
00003303 53737365 
00003307 65746174 
0000330b 00 
0000330c 4ed3       7514 	.data.b	211,78
0000330e 19         7515 	.data.b	25
0000330f 01         7516 	.data.b	1
00003310 00000000*  7517 	.data.w	.LDW_60183f0
00003314 00         7518 	.data.b	0
00003315 00         7519 	.data.b	0
                    7520 
00003316 00         7521 	.data.b	0
                    7522 
00003317 00         7523 	.data.b	0
                    7524 
                    7525 .LDW_5ef3320:
00003318 18         7526 	.data.b	24
00003319 5f6d6f43   7527 	.data.b	67,111,109,95,82,120,83,105,103,110,97,108,80,114,111,99,101,115,115,105,110,103,95,85,73,78,84,56,0
0000331d 69537852 
00003321 6c616e67 
00003325 636f7250 
00003329 69737365 
0000332d 555f676e 
00003331 38544e49 
00003335 00 
00003336 4fc8       7528 	.data.b	200,79
00003338 34         7529 	.data.b	52
00003339 01         7530 	.data.b	1
0000333a 00000000*  7531 	.data.w	.LDW_60183f0
0000333e 00         7532 	.data.b	0
0000333f 03         7533 	.data.b	3
00003340 00         7534 	.data.b	0
00003341 01         7535 	.data.b	1
00003342 00         7536 	.data.b	0
00003343 01         7537 	.data.b	1
                    7538 
                    7539 .LDW_6018550:
00003344 12         7540 	.data.b	18
00003345 49756450   7541 	.data.b	80,100,117,73,110,102,111,80,116,114,0
00003349 506f666e 
0000334d 007274 
00003350 4fc8       7542 	.data.b	200,79
00003352 0180       7543 	.data.b	128,1
00003354 01         7544 	.data.b	1
00003355 00000000*  7545 	.data.w	.LDW_5ef45a0
00003359 00         7546 	.data.b	0
                    7547 
                    7548 .LDW_6017cb8:
0000335a 12         7549 	.data.b	18
0000335b 52786469   7550 	.data.b	105,100,120,82,120,65,99,99,101,115,115,73,110,102,111,0
0000335f 63634178 
00003363 49737365 
00003367 006f666e 
0000336b 4fc8       7551 	.data.b	200,79
0000336d 01a5       7552 	.data.b	165,1

                                                                      Page 158
                                                              C:\Users\Fengyuan\AppData\Local\Temp\gh_0000fuk1.s
0000336f 01         7553 	.data.b	1
00003370 00000000*  7554 	.data.w	.LDW_5ef2328
00003374 00         7555 	.data.b	0
                    7556 
                    7557 .LDW_6017630:
00003375 22         7558 	.data.b	34
                    7559 
                    7560 .LDW_6017f20:
00003376 07         7561 	.data.b	7
00003377 636f7270   7562 	.data.b	112,114,111,99,101,115,115,83,116,97,116,101,0
0000337b 53737365 
0000337f 65746174 
00003383 00 
00003384 4fca       7563 	.data.b	202,79
00003386 19         7564 	.data.b	25
00003387 01         7565 	.data.b	1
00003388 00000000*  7566 	.data.w	.LDW_60183f0
0000338c 00         7567 	.data.b	0
0000338d 00         7568 	.data.b	0
                    7569 
                    7570 .LDW_6017d10:
0000338e 07         7571 	.data.b	7
0000338f 4e706d74   7572 	.data.b	116,109,112,78,101,119,86,97,108,117,101,0
00003393 61567765 
00003397 0065756c 
0000339b 4fcc       7573 	.data.b	204,79
0000339d 09         7574 	.data.b	9
0000339e 01         7575 	.data.b	1
0000339f 00000000*  7576 	.data.w	.LDW_5e8ef00
000033a3 00         7577 	.data.b	0
000033a4 00         7578 	.data.b	0
                    7579 
                    7580 .LDW_60177b0:
000033a5 22         7581 	.data.b	34
                    7582 
                    7583 .LDW_6018290:
000033a6 07         7584 	.data.b	7
000033a7 42786469   7585 	.data.b	105,100,120,66,117,102,102,101,114,0
000033ab 65666675 
000033af 0072 
000033b1 4fea       7586 	.data.b	234,79
000033b3 25         7587 	.data.b	37
000033b4 01         7588 	.data.b	1
000033b5 00000000*  7589 	.data.w	.LDW_6018028
000033b9 00         7590 	.data.b	0
000033ba 00         7591 	.data.b	0
                    7592 
000033bb 00         7593 	.data.b	0
                    7594 
000033bc 00         7595 	.data.b	0
                    7596 
000033bd 00         7597 	.data.b	0
                    7598 
                    7599 .LDW_5ef3ca0:
000033be 17         7600 	.data.b	23
000033bf 5f6d6f43   7601 	.data.b	67,111,109,95,82,120,80,114,111,99,101,115,115,105,110,103,95,69,110,116,101,114,69,120,99,108,117,115,105,118,101,65,114,101,97,95,68,101,102,101,114,114,101,100,0
000033c3 72507852 
000033c7 7365636f 
000033cb 676e6973 
000033cf 746e455f 
000033d3 78457265 

                                                                      Page 159
                                                              C:\Users\Fengyuan\AppData\Local\Temp\gh_0000fuk1.s
000033d7 73756c63 
000033db 41657669 
000033df 5f616572 
000033e3 65666544 
000033e7 64657272 
000033eb 00 
000033ec 54e6       7602 	.data.b	230,84
000033ee 23         7603 	.data.b	35
000033ef 01         7604 	.data.b	1
000033f0 00         7605 	.data.b	0
000033f1 03         7606 	.data.b	3
000033f2 00         7607 	.data.b	0
000033f3 01         7608 	.data.b	1
000033f4 00         7609 	.data.b	0
000033f5 01         7610 	.data.b	1
                    7611 
                    7612 .LDW_6017300:
000033f6 22         7613 	.data.b	34
                    7614 
000033f7 00         7615 	.data.b	0
                    7616 
000033f8 00         7617 	.data.b	0
                    7618 
                    7619 .LDW_5ef31f0:
000033f9 17         7620 	.data.b	23
000033fa 5f6d6f43   7621 	.data.b	67,111,109,95,82,120,80,114,111,99,101,115,115,105,110,103,95,69,120,105,116,69,120,99,108,117,115,105,118,101,65,114,101,97,95,68,101,102,101,114,114,101,100,0
000033fe 72507852 
00003402 7365636f 
00003406 676e6973 
0000340a 6978455f 
0000340e 63784574 
00003412 6973756c 
00003416 72416576 
0000341a 445f6165 
0000341e 72656665 
00003422 00646572 
00003426 54f4       7622 	.data.b	244,84
00003428 23         7623 	.data.b	35
00003429 01         7624 	.data.b	1
0000342a 00         7625 	.data.b	0
0000342b 03         7626 	.data.b	3
0000342c 00         7627 	.data.b	0
0000342d 01         7628 	.data.b	1
0000342e 00         7629 	.data.b	0
0000342f 01         7630 	.data.b	1
                    7631 
                    7632 .LDW_6017330:
00003430 22         7633 	.data.b	34
                    7634 
00003431 00         7635 	.data.b	0
                    7636 
00003432 00         7637 	.data.b	0
                    7638 
                    7639 .LDW_5ef3288:
00003433 17         7640 	.data.b	23
00003434 5f6d6f43   7641 	.data.b	67,111,109,95,82,120,80,114,111,99,101,115,115,105,110,103,95,84,104,114,101,115,104,111,108,100,67,104,101,99,107,95,68,101,102,101,114,114,101,100,0
00003438 72507852 
0000343c 7365636f 
00003440 676e6973 
00003444 7268545f 
00003448 6f687365 

                                                                      Page 160
                                                              C:\Users\Fengyuan\AppData\Local\Temp\gh_0000fuk1.s
0000344c 6843646c 
00003450 5f6b6365 
00003454 65666544 
00003458 64657272 
0000345c 00 
0000345d 5586       7642 	.data.b	134,85
0000345f 23         7643 	.data.b	35
00003460 01         7644 	.data.b	1
00003461 00         7645 	.data.b	0
00003462 03         7646 	.data.b	3
00003463 00         7647 	.data.b	0
00003464 01         7648 	.data.b	1
00003465 00         7649 	.data.b	0
00003466 01         7650 	.data.b	1
                    7651 
                    7652 .LDW_6017aa8:
00003467 12         7653 	.data.b	18
00003468 50746366   7654 	.data.b	102,99,116,80,116,114,67,97,99,104,101,83,116,114,99,116,80,116,114,0
0000346c 61437274 
00003470 53656863 
00003474 74637274 
00003478 00727450 
0000347c 5586       7655 	.data.b	134,85
0000347e 7e         7656 	.data.b	126
0000347f 01         7657 	.data.b	1
00003480 00000000*  7658 	.data.w	.LDW_5ef4728
00003484 00         7659 	.data.b	0
                    7660 
                    7661 .LDW_6017990:
00003485 22         7662 	.data.b	34
                    7663 
00003486 00         7664 	.data.b	0
                    7665 
00003487 00         7666 	.data.b	0
                    7667 
                    7668 .LDW_5ef33b8:
00003488 18         7669 	.data.b	24
00003489 5f6d6f43   7670 	.data.b	67,111,109,95,82,120,80,114,111,99,101,115,115,105,110,103,95,73,115,68,101,102,101,114,114,101,100,80,114,111,99,101,115,115,105,110,103,82,101,113,117,101,115,116,101,100,0
0000348d 72507852 
00003491 7365636f 
00003495 676e6973 
00003499 4473495f 
0000349d 72656665 
000034a1 50646572 
000034a5 65636f72 
000034a9 6e697373 
000034ad 71655267 
000034b1 74736575 
000034b5 006465 
000034b8 55a1       7671 	.data.b	161,85
000034ba 26         7672 	.data.b	38
000034bb 01         7673 	.data.b	1
000034bc 00000000*  7674 	.data.w	.LDW_49f9738
000034c0 00         7675 	.data.b	0
000034c1 03         7676 	.data.b	3
000034c2 00         7677 	.data.b	0
000034c3 01         7678 	.data.b	1
000034c4 00         7679 	.data.b	0
000034c5 01         7680 	.data.b	1
                    7681 
                    7682 .LDW_60180d8:

                                                                      Page 161
                                                              C:\Users\Fengyuan\AppData\Local\Temp\gh_0000fuk1.s
000034c6 12         7683 	.data.b	18
000034c7 52786469   7684 	.data.b	105,100,120,82,120,80,100,117,73,110,102,111,0
000034cb 75645078 
000034cf 6f666e49 
000034d3 00 
000034d4 55a1       7685 	.data.b	161,85
000034d6 6d         7686 	.data.b	109
000034d7 01         7687 	.data.b	1
000034d8 00000000*  7688 	.data.w	.LDW_5ef2e80
000034dc 00         7689 	.data.b	0
                    7690 
                    7691 .LDW_6017900:
000034dd 22         7692 	.data.b	34
                    7693 
                    7694 .LDW_6017d68:
000034de 07         7695 	.data.b	7
000034df 56746572   7696 	.data.b	114,101,116,86,97,108,0
000034e3 006c61 
000034e6 55a4       7697 	.data.b	164,85
000034e8 0b         7698 	.data.b	11
000034e9 01         7699 	.data.b	1
000034ea 00000000*  7700 	.data.w	.LDW_49f9738
000034ee 00         7701 	.data.b	0
000034ef 00         7702 	.data.b	0
                    7703 
000034f0 00         7704 	.data.b	0
                    7705 
000034f1 00         7706 	.data.b	0
                    7707 
                    7708 .LDW_5ef3580:
000034f2 17         7709 	.data.b	23
000034f3 5f6d6f43   7710 	.data.b	67,111,109,95,84,120,66,117,102,102,101,114,95,73,110,105,116,84,120,73,112,100,117,0
000034f7 75427854 
000034fb 72656666 
000034ff 696e495f 
00003503 49785474 
00003507 00756470 
0000350b 55bd       7711 	.data.b	189,85
0000350d 23         7712 	.data.b	35
0000350e 01         7713 	.data.b	1
0000350f 00         7714 	.data.b	0
00003510 03         7715 	.data.b	3
00003511 00         7716 	.data.b	0
00003512 01         7717 	.data.b	1
00003513 00         7718 	.data.b	0
00003514 01         7719 	.data.b	1
                    7720 
                    7721 .LDW_6018130:
00003515 12         7722 	.data.b	18
00003516 506d6f43   7723 	.data.b	67,111,109,80,100,117,73,100,0
0000351a 64497564 
0000351e 00 
0000351f 55bd       7724 	.data.b	189,85
00003521 51         7725 	.data.b	81
00003522 01         7726 	.data.b	1
00003523 00000000*  7727 	.data.w	.LDW_49f9598
00003527 00         7728 	.data.b	0
                    7729 
                    7730 .LDW_60178a0:
00003528 22         7731 	.data.b	34
                    7732 

                                                                      Page 162
                                                              C:\Users\Fengyuan\AppData\Local\Temp\gh_0000fuk1.s
00003529 00         7733 	.data.b	0
                    7734 
0000352a 00         7735 	.data.b	0
                    7736 
                    7737 .LDW_5ef3618:
0000352b 17         7738 	.data.b	23
0000352c 5f6d6f43   7739 	.data.b	67,111,109,95,84,120,76,76,73,102,95,73,110,105,116,84,120,73,112,100,117,0
00003530 4c4c7854 
00003534 495f6649 
00003538 5474696e 
0000353c 64704978 
00003540 0075 
00003542 59c0       7740 	.data.b	192,89
00003544 23         7741 	.data.b	35
00003545 01         7742 	.data.b	1
00003546 00         7743 	.data.b	0
00003547 03         7744 	.data.b	3
00003548 00         7745 	.data.b	0
00003549 01         7746 	.data.b	1
0000354a 00         7747 	.data.b	0
0000354b 01         7748 	.data.b	1
                    7749 
                    7750 .LDW_6017b00:
0000354c 12         7751 	.data.b	18
0000354d 506d6f43   7752 	.data.b	67,111,109,80,100,117,73,100,0
00003551 64497564 
00003555 00 
00003556 59c0       7753 	.data.b	192,89
00003558 4f         7754 	.data.b	79
00003559 01         7755 	.data.b	1
0000355a 00000000*  7756 	.data.w	.LDW_49f9598
0000355e 00         7757 	.data.b	0
                    7758 
                    7759 .LDW_6017960:
0000355f 22         7760 	.data.b	34
                    7761 
00003560 00         7762 	.data.b	0
                    7763 
00003561 00         7764 	.data.b	0
                    7765 
                    7766 .LDW_5ef37e0:
00003562 17         7767 	.data.b	23
00003563 5f6d6f43   7768 	.data.b	67,111,109,95,84,120,67,111,110,102,105,114,109,97,116,105,111,110,95,80,114,111,99,101,115,115,0
00003567 6f437854 
0000356b 7269666e 
0000356f 6974616d 
00003573 505f6e6f 
00003577 65636f72 
0000357b 007373 
0000357e 5bb0       7769 	.data.b	176,91
00003580 23         7770 	.data.b	35
00003581 01         7771 	.data.b	1
00003582 00         7772 	.data.b	0
00003583 03         7773 	.data.b	3
00003584 00         7774 	.data.b	0
00003585 01         7775 	.data.b	1
00003586 00         7776 	.data.b	0
00003587 01         7777 	.data.b	1
                    7778 
                    7779 .LDW_6018188:
00003588 12         7780 	.data.b	18

                                                                      Page 163
                                                              C:\Users\Fengyuan\AppData\Local\Temp\gh_0000fuk1.s
00003589 64507854   7781 	.data.b	84,120,80,100,117,73,100,0
0000358d 00644975 
00003591 5bb0       7782 	.data.b	176,91
00003593 48         7783 	.data.b	72
00003594 01         7784 	.data.b	1
00003595 00000000*  7785 	.data.w	.LDW_5e8ef58
00003599 00         7786 	.data.b	0
                    7787 
                    7788 .LDW_6020c68:
0000359a 22         7789 	.data.b	34
                    7790 
                    7791 .LDW_6017b58:
0000359b 07         7792 	.data.b	7
0000359c 6f4e6f64   7793 	.data.b	100,111,78,111,116,105,102,105,99,97,116,105,111,110,80,114,111,99,101,115,115,105,110,103,0
000035a0 69666974 
000035a4 69746163 
000035a8 72506e6f 
000035ac 7365636f 
000035b0 676e6973 
000035b4 00 
000035b5 5bb2       7794 	.data.b	178,91
000035b7 0b         7795 	.data.b	11
000035b8 01         7796 	.data.b	1
000035b9 00000000*  7797 	.data.w	.LDW_49f9738
000035bd 00         7798 	.data.b	0
000035be 00         7799 	.data.b	0
                    7800 
000035bf 00         7801 	.data.b	0
                    7802 
000035c0 00         7803 	.data.b	0
                    7804 
                    7805 .LDW_5ef3878:
000035c1 17         7806 	.data.b	23
000035c2 5f6d6f43   7807 	.data.b	67,111,109,95,84,120,77,111,100,101,72,100,108,114,95,73,110,105,116,84,120,73,112,100,117,0
000035c6 6f4d7854 
000035ca 64486564 
000035ce 495f726c 
000035d2 5474696e 
000035d6 64704978 
000035da 0075 
000035dc 5bfe       7808 	.data.b	254,91
000035de 23         7809 	.data.b	35
000035df 01         7810 	.data.b	1
000035e0 00         7811 	.data.b	0
000035e1 03         7812 	.data.b	3
000035e2 00         7813 	.data.b	0
000035e3 01         7814 	.data.b	1
000035e4 00         7815 	.data.b	0
000035e5 01         7816 	.data.b	1
                    7817 
                    7818 .LDW_6017bb0:
000035e6 12         7819 	.data.b	18
000035e7 506d6f43   7820 	.data.b	67,111,109,80,100,117,73,100,0
000035eb 64497564 
000035ef 00 
000035f0 5bfe       7821 	.data.b	254,91
000035f2 47         7822 	.data.b	71
000035f3 01         7823 	.data.b	1
000035f4 00000000*  7824 	.data.w	.LDW_5e8ef58
000035f8 00         7825 	.data.b	0
                    7826 

                                                                      Page 164
                                                              C:\Users\Fengyuan\AppData\Local\Temp\gh_0000fuk1.s
                    7827 .LDW_6020b18:
000035f9 22         7828 	.data.b	34
                    7829 
000035fa 00         7830 	.data.b	0
                    7831 
000035fb 00         7832 	.data.b	0
                    7833 
                    7834 .LDW_5ef3910:
000035fc 17         7835 	.data.b	23
000035fd 5f6d6f43   7836 	.data.b	67,111,109,95,84,120,77,111,100,101,72,100,108,114,95,77,97,105,110,70,117,110,99,116,105,111,110,84,120,95,67,121,99,108,101,67,111,117,110,116,101,114,0
00003601 6f4d7854 
00003605 64486564 
00003609 4d5f726c 
0000360d 466e6961 
00003611 74636e75 
00003615 546e6f69 
00003619 79435f78 
0000361d 43656c63 
00003621 746e756f 
00003625 007265 
00003628 5d97       7837 	.data.b	151,93
0000362a 23         7838 	.data.b	35
0000362b 01         7839 	.data.b	1
0000362c 00         7840 	.data.b	0
0000362d 03         7841 	.data.b	3
0000362e 00         7842 	.data.b	0
0000362f 01         7843 	.data.b	1
00003630 00         7844 	.data.b	0
00003631 01         7845 	.data.b	1
                    7846 
                    7847 .LDW_6021088:
00003632 22         7848 	.data.b	34
                    7849 
                    7850 .LDW_6017f78:
00003633 07         7851 	.data.b	7
00003634 546d6f43   7852 	.data.b	67,111,109,84,120,80,100,117,73,100,0
00003638 75645078 
0000363c 006449 
0000363f 5d99       7853 	.data.b	153,93
00003641 0d         7854 	.data.b	13
00003642 01         7855 	.data.b	1
00003643 00000000*  7856 	.data.w	.LDW_5e8ef58
00003647 00         7857 	.data.b	0
00003648 00         7858 	.data.b	0
                    7859 
00003649 00         7860 	.data.b	0
                    7861 
0000364a 00         7862 	.data.b	0
                    7863 
                    7864 .LDW_5ef3d38:
0000364b 17         7865 	.data.b	23
0000364c 5f6d6f43   7866 	.data.b	67,111,109,95,84,120,77,111,100,101,72,100,108,114,95,69,110,116,101,114,69,120,99,108,117,115,105,118,101,65,114,101,97,95,67,121,99,108,101,67,111,117,110,116,101,114,0
00003650 6f4d7854 
00003654 64486564 
00003658 455f726c 
0000365c 7265746e 
00003660 6c637845 
00003664 76697375 
00003668 65724165 
0000366c 79435f61 
00003670 43656c63 

                                                                      Page 165
                                                              C:\Users\Fengyuan\AppData\Local\Temp\gh_0000fuk1.s
00003674 746e756f 
00003678 007265 
0000367b 5db6       7867 	.data.b	182,93
0000367d 23         7868 	.data.b	35
0000367e 01         7869 	.data.b	1
0000367f 00         7870 	.data.b	0
00003680 03         7871 	.data.b	3
00003681 00         7872 	.data.b	0
00003682 01         7873 	.data.b	1
00003683 00         7874 	.data.b	0
00003684 01         7875 	.data.b	1
                    7876 
                    7877 .LDW_6020b48:
00003685 22         7878 	.data.b	34
                    7879 
00003686 00         7880 	.data.b	0
                    7881 
00003687 00         7882 	.data.b	0
                    7883 
                    7884 .LDW_5ef39a8:
00003688 17         7885 	.data.b	23
00003689 5f6d6f43   7886 	.data.b	67,111,109,95,84,120,77,111,100,101,72,100,108,114,95,69,120,105,116,69,120,99,108,117,115,105,118,101,65,114,101,97,95,67,121,99,108,101,67,111,117,110,116,101,114,0
0000368d 6f4d7854 
00003691 64486564 
00003695 455f726c 
00003699 45746978 
0000369d 756c6378 
000036a1 65766973 
000036a5 61657241 
000036a9 6379435f 
000036ad 6f43656c 
000036b1 65746e75 
000036b5 0072 
000036b7 5dc4       7887 	.data.b	196,93
000036b9 23         7888 	.data.b	35
000036ba 01         7889 	.data.b	1
000036bb 00         7890 	.data.b	0
000036bc 03         7891 	.data.b	3
000036bd 00         7892 	.data.b	0
000036be 01         7893 	.data.b	1
000036bf 00         7894 	.data.b	0
000036c0 01         7895 	.data.b	1
                    7896 
                    7897 .LDW_6020de8:
000036c1 22         7898 	.data.b	34
                    7899 
000036c2 00         7900 	.data.b	0
                    7901 
000036c3 00         7902 	.data.b	0
                    7903 
                    7904 .LDW_6031360:
000036c4 17         7905 	.data.b	23
000036c5 5f6d6f43   7906 	.data.b	67,111,109,95,84,120,77,111,100,101,72,100,108,114,95,84,104,114,101,115,104,111,108,100,67,104,101,99,107,95,67,121,99,108,101,67,111,117,110,116,101,114,0
000036c9 6f4d7854 
000036cd 64486564 
000036d1 545f726c 
000036d5 73657268 
000036d9 646c6f68 
000036dd 63656843 
000036e1 79435f6b 
000036e5 43656c63 

                                                                      Page 166
                                                              C:\Users\Fengyuan\AppData\Local\Temp\gh_0000fuk1.s
000036e9 746e756f 
000036ed 007265 
000036f0 5dd4       7907 	.data.b	212,93
000036f2 23         7908 	.data.b	35
000036f3 01         7909 	.data.b	1
000036f4 00         7910 	.data.b	0
000036f5 03         7911 	.data.b	3
000036f6 00         7912 	.data.b	0
000036f7 01         7913 	.data.b	1
000036f8 00         7914 	.data.b	0
000036f9 01         7915 	.data.b	1
                    7916 
                    7917 .LDW_6020f68:
000036fa 22         7918 	.data.b	34
                    7919 
000036fb 00         7920 	.data.b	0
                    7921 
000036fc 00         7922 	.data.b	0
                    7923 
                    7924 .LDW_60322d0:
000036fd 17         7925 	.data.b	23
000036fe 5f6d6f43   7926 	.data.b	67,111,109,95,84,120,77,111,100,101,72,100,108,114,95,77,97,105,110,70,117,110,99,116,105,111,110,84,120,95,84,114,97,110,115,109,105,116,0
00003702 6f4d7854 
00003706 64486564 
0000370a 4d5f726c 
0000370e 466e6961 
00003712 74636e75 
00003716 546e6f69 
0000371a 72545f78 
0000371e 6d736e61 
00003722 007469 
00003725 5dec       7927 	.data.b	236,93
00003727 23         7928 	.data.b	35
00003728 01         7929 	.data.b	1
00003729 00         7930 	.data.b	0
0000372a 03         7931 	.data.b	3
0000372b 00         7932 	.data.b	0
0000372c 01         7933 	.data.b	1
0000372d 00         7934 	.data.b	0
0000372e 01         7935 	.data.b	1
                    7936 
                    7937 .LDW_6020ae8:
0000372f 22         7938 	.data.b	34
                    7939 
                    7940 .LDW_6018708:
00003730 07         7941 	.data.b	7
00003731 546d6f43   7942 	.data.b	67,111,109,84,120,80,100,117,73,100,0
00003735 75645078 
00003739 006449 
0000373c 5dee       7943 	.data.b	238,93
0000373e 0d         7944 	.data.b	13
0000373f 01         7945 	.data.b	1
00003740 00000000*  7946 	.data.w	.LDW_5e8ef58
00003744 00         7947 	.data.b	0
00003745 00         7948 	.data.b	0
                    7949 
00003746 00         7950 	.data.b	0
                    7951 
00003747 00         7952 	.data.b	0
                    7953 
                    7954 .LDW_6031fd8:

                                                                      Page 167
                                                              C:\Users\Fengyuan\AppData\Local\Temp\gh_0000fuk1.s
00003748 17         7955 	.data.b	23
00003749 5f6d6f43   7956 	.data.b	67,111,109,95,84,120,77,111,100,101,72,100,108,114,95,69,110,116,101,114,69,120,99,108,117,115,105,118,101,65,114,101,97,0
0000374d 6f4d7854 
00003751 64486564 
00003755 455f726c 
00003759 7265746e 
0000375d 6c637845 
00003761 76697375 
00003765 65724165 
00003769 0061 
0000376b 5e86       7957 	.data.b	134,94
0000376d 23         7958 	.data.b	35
0000376e 01         7959 	.data.b	1
0000376f 00         7960 	.data.b	0
00003770 03         7961 	.data.b	3
00003771 00         7962 	.data.b	0
00003772 01         7963 	.data.b	1
00003773 00         7964 	.data.b	0
00003774 01         7965 	.data.b	1
                    7966 
                    7967 .LDW_6020fc8:
00003775 22         7968 	.data.b	34
                    7969 
00003776 00         7970 	.data.b	0
                    7971 
00003777 00         7972 	.data.b	0
                    7973 
                    7974 .LDW_6032400:
00003778 17         7975 	.data.b	23
00003779 5f6d6f43   7976 	.data.b	67,111,109,95,84,120,77,111,100,101,72,100,108,114,95,69,120,105,116,69,120,99,108,117,115,105,118,101,65,114,101,97,0
0000377d 6f4d7854 
00003781 64486564 
00003785 455f726c 
00003789 45746978 
0000378d 756c6378 
00003791 65766973 
00003795 61657241 
00003799 00 
0000379a 5e94       7977 	.data.b	148,94
0000379c 23         7978 	.data.b	35
0000379d 01         7979 	.data.b	1
0000379e 00         7980 	.data.b	0
0000379f 03         7981 	.data.b	3
000037a0 00         7982 	.data.b	0
000037a1 01         7983 	.data.b	1
000037a2 00         7984 	.data.b	0
000037a3 01         7985 	.data.b	1
                    7986 
                    7987 .LDW_6020f08:
000037a4 22         7988 	.data.b	34
                    7989 
000037a5 00         7990 	.data.b	0
                    7991 
000037a6 00         7992 	.data.b	0
                    7993 
                    7994 .LDW_6031e10:
000037a7 17         7995 	.data.b	23
000037a8 5f6d6f43   7996 	.data.b	67,111,109,95,84,120,77,111,100,101,72,100,108,114,95,84,104,114,101,115,104,111,108,100,67,104,101,99,107,0
000037ac 6f4d7854 
000037b0 64486564 
000037b4 545f726c 

                                                                      Page 168
                                                              C:\Users\Fengyuan\AppData\Local\Temp\gh_0000fuk1.s
000037b8 73657268 
000037bc 646c6f68 
000037c0 63656843 
000037c4 006b 
000037c6 5ea4       7997 	.data.b	164,94
000037c8 23         7998 	.data.b	35
000037c9 01         7999 	.data.b	1
000037ca 00         8000 	.data.b	0
000037cb 03         8001 	.data.b	3
000037cc 00         8002 	.data.b	0
000037cd 01         8003 	.data.b	1
000037ce 00         8004 	.data.b	0
000037cf 01         8005 	.data.b	1
                    8006 
                    8007 .LDW_6020c98:
000037d0 22         8008 	.data.b	34
                    8009 
000037d1 00         8010 	.data.b	0
                    8011 
000037d2 00         8012 	.data.b	0
                    8013 
                    8014 .LDW_6032238:
000037d3 17         8015 	.data.b	23
000037d4 5f6d6f43   8016 	.data.b	67,111,109,95,84,120,77,111,100,101,72,100,108,114,95,77,97,105,110,70,117,110,99,116,105,111,110,84,120,95,80,114,111,99,101,115,115,84,114,97,110,115,109,105,116,0
000037d8 6f4d7854 
000037dc 64486564 
000037e0 4d5f726c 
000037e4 466e6961 
000037e8 74636e75 
000037ec 546e6f69 
000037f0 72505f78 
000037f4 7365636f 
000037f8 61725473 
000037fc 696d736e 
00003800 0074 
00003802 5ebe       8017 	.data.b	190,94
00003804 23         8018 	.data.b	35
00003805 01         8019 	.data.b	1
00003806 00         8020 	.data.b	0
00003807 03         8021 	.data.b	3
00003808 00         8022 	.data.b	0
00003809 01         8023 	.data.b	1
0000380a 00         8024 	.data.b	0
0000380b 01         8025 	.data.b	1
                    8026 
                    8027 .LDW_6018760:
0000380c 12         8028 	.data.b	18
0000380d 546d6f43   8029 	.data.b	67,111,109,84,120,80,100,117,73,100,0
00003811 75645078 
00003815 006449 
00003818 5ebe       8030 	.data.b	190,94
0000381a 5b         8031 	.data.b	91
0000381b 01         8032 	.data.b	1
0000381c 00000000*  8033 	.data.w	.LDW_5e8ef58
00003820 00         8034 	.data.b	0
                    8035 
                    8036 .LDW_6020ba8:
00003821 22         8037 	.data.b	34
                    8038 
00003822 00         8039 	.data.b	0
                    8040 

                                                                      Page 169
                                                              C:\Users\Fengyuan\AppData\Local\Temp\gh_0000fuk1.s
00003823 00         8041 	.data.b	0
                    8042 
                    8043 .LDW_60319e8:
00003824 17         8044 	.data.b	23
00003825 5f6d6f43   8045 	.data.b	67,111,109,95,84,120,77,111,100,101,72,100,108,114,95,73,110,105,116,84,120,77,111,100,101,0
00003829 6f4d7854 
0000382d 64486564 
00003831 495f726c 
00003835 5474696e 
00003839 646f4d78 
0000383d 0065 
0000383f 5ee8       8046 	.data.b	232,94
00003841 23         8047 	.data.b	35
00003842 01         8048 	.data.b	1
00003843 00         8049 	.data.b	0
00003844 03         8050 	.data.b	3
00003845 00         8051 	.data.b	0
00003846 01         8052 	.data.b	1
00003847 00         8053 	.data.b	0
00003848 01         8054 	.data.b	1
                    8055 
                    8056 .LDW_6018970:
00003849 12         8057 	.data.b	18
0000384a 546d6f43   8058 	.data.b	67,111,109,84,120,80,100,117,73,100,0
0000384e 75645078 
00003852 006449 
00003855 5ee8       8059 	.data.b	232,94
00003857 59         8060 	.data.b	89
00003858 01         8061 	.data.b	1
00003859 00000000*  8062 	.data.w	.LDW_6018658
0000385d 00         8063 	.data.b	0
                    8064 
                    8065 .LDW_6020cc8:
0000385e 22         8066 	.data.b	34
                    8067 
0000385f 00         8068 	.data.b	0
                    8069 
00003860 00         8070 	.data.b	0
                    8071 
                    8072 .LDW_6032368:
00003861 17         8073 	.data.b	23
00003862 5f6d6f43   8074 	.data.b	67,111,109,95,84,120,77,111,100,101,72,100,108,114,95,83,116,111,112,84,120,73,112,100,117,115,0
00003866 6f4d7854 
0000386a 64486564 
0000386e 535f726c 
00003872 54706f74 
00003876 64704978 
0000387a 007375 
0000387d 5fee       8075 	.data.b	238,95
0000387f 23         8076 	.data.b	35
00003880 01         8077 	.data.b	1
00003881 00         8078 	.data.b	0
00003882 03         8079 	.data.b	3
00003883 00         8080 	.data.b	0
00003884 01         8081 	.data.b	1
00003885 00         8082 	.data.b	0
00003886 01         8083 	.data.b	1
                    8084 
                    8085 .LDW_6018868:
00003887 12         8086 	.data.b	18
00003888 546d6f43   8087 	.data.b	67,111,109,84,120,80,100,117,73,100,0

                                                                      Page 170
                                                              C:\Users\Fengyuan\AppData\Local\Temp\gh_0000fuk1.s
0000388c 75645078 
00003890 006449 
00003893 5fee       8088 	.data.b	238,95
00003895 5a         8089 	.data.b	90
00003896 01         8090 	.data.b	1
00003897 00000000*  8091 	.data.w	.LDW_6018658
0000389b 00         8092 	.data.b	0
                    8093 
                    8094 .LDW_6020c08:
0000389c 22         8095 	.data.b	34
                    8096 
0000389d 00         8097 	.data.b	0
                    8098 
0000389e 00         8099 	.data.b	0
                    8100 
                    8101 .LDW_60313f8:
0000389f 17         8102 	.data.b	23
000038a0 5f6d6f43   8103 	.data.b	67,111,109,95,84,120,77,111,100,101,72,100,108,114,95,84,114,105,103,103,101,114,73,112,100,117,83,101,110,100,79,110,99,101,68,101,102,101,114,114,101,100,0
000038a4 6f4d7854 
000038a8 64486564 
000038ac 545f726c 
000038b0 67676972 
000038b4 70497265 
000038b8 65537564 
000038bc 6e4f646e 
000038c0 65446563 
000038c4 72726566 
000038c8 006465 
000038cb 608c       8104 	.data.b	140,96
000038cd 23         8105 	.data.b	35
000038ce 01         8106 	.data.b	1
000038cf 00         8107 	.data.b	0
000038d0 03         8108 	.data.b	3
000038d1 00         8109 	.data.b	0
000038d2 01         8110 	.data.b	1
000038d3 00         8111 	.data.b	0
000038d4 01         8112 	.data.b	1
                    8113 
                    8114 .LDW_6018918:
000038d5 12         8115 	.data.b	18
000038d6 546d6f43   8116 	.data.b	67,111,109,84,120,80,100,117,73,100,0
000038da 75645078 
000038de 006449 
000038e1 608c       8117 	.data.b	140,96
000038e3 6a         8118 	.data.b	106
000038e4 01         8119 	.data.b	1
000038e5 00000000*  8120 	.data.w	.LDW_6018658
000038e9 00         8121 	.data.b	0
                    8122 
                    8123 .LDW_6020d28:
000038ea 22         8124 	.data.b	34
                    8125 
000038eb 00         8126 	.data.b	0
                    8127 
000038ec 00         8128 	.data.b	0
                    8129 
                    8130 .LDW_6031788:
000038ed 17         8131 	.data.b	23
000038ee 5f6d6f43   8132 	.data.b	67,111,109,95,84,120,77,111,100,101,72,100,108,114,95,83,101,116,84,114,97,110,115,109,105,116,82,101,113,117,101,115,116,65,110,100,67,121,99,108,101,67,110,116,0
000038f2 6f4d7854 
000038f6 64486564 

                                                                      Page 171
                                                              C:\Users\Fengyuan\AppData\Local\Temp\gh_0000fuk1.s
000038fa 535f726c 
000038fe 72547465 
00003902 6d736e61 
00003906 65527469 
0000390a 73657571 
0000390e 646e4174 
00003912 6c637943 
00003916 746e4365 
0000391a 00 
0000391b 60ae       8133 	.data.b	174,96
0000391d 23         8134 	.data.b	35
0000391e 01         8135 	.data.b	1
0000391f 00         8136 	.data.b	0
00003920 03         8137 	.data.b	3
00003921 00         8138 	.data.b	0
00003922 01         8139 	.data.b	1
00003923 00         8140 	.data.b	0
00003924 01         8141 	.data.b	1
                    8142 
                    8143 .LDW_60189c8:
00003925 12         8144 	.data.b	18
00003926 546d6f43   8145 	.data.b	67,111,109,84,120,80,100,117,73,100,0
0000392a 75645078 
0000392e 006449 
00003931 60ae       8146 	.data.b	174,96
00003933 5a         8147 	.data.b	90
00003934 01         8148 	.data.b	1
00003935 00000000*  8149 	.data.w	.LDW_5e8ef58
00003939 00         8150 	.data.b	0
                    8151 
                    8152 .LDW_6021058:
0000393a 22         8153 	.data.b	34
                    8154 
0000393b 00         8155 	.data.b	0
                    8156 
0000393c 00         8157 	.data.b	0
                    8158 
                    8159 .LDW_6031528:
0000393d 17         8160 	.data.b	23
0000393e 5f6d6f43   8161 	.data.b	67,111,109,95,83,101,110,100,83,105,103,110,97,108,95,87,114,105,116,101,83,105,103,110,97,108,0
00003942 646e6553 
00003946 6e676953 
0000394a 575f6c61 
0000394e 65746972 
00003952 6e676953 
00003956 006c61 
00003959 65c3       8162 	.data.b	195,101
0000395b 23         8163 	.data.b	35
0000395c 01         8164 	.data.b	1
0000395d 00         8165 	.data.b	0
0000395e 03         8166 	.data.b	3
0000395f 00         8167 	.data.b	0
00003960 01         8168 	.data.b	1
00003961 00         8169 	.data.b	0
00003962 01         8170 	.data.b	1
                    8171 
                    8172 .LDW_6018a20:
00003963 12         8173 	.data.b	18
00003964 54786469   8174 	.data.b	105,100,120,84,120,83,105,103,73,110,102,111,0
00003968 67695378 
0000396c 6f666e49 

                                                                      Page 172
                                                              C:\Users\Fengyuan\AppData\Local\Temp\gh_0000fuk1.s
00003970 00 
00003971 65c3       8175 	.data.b	195,101
00003973 4f         8176 	.data.b	79
00003974 01         8177 	.data.b	1
00003975 00000000*  8178 	.data.w	.LDW_5ef2748
00003979 00         8179 	.data.b	0
                    8180 
                    8181 .LDW_60187b8:
0000397a 12         8182 	.data.b	18
0000397b 6e676953   8183 	.data.b	83,105,103,110,97,108,68,97,116,97,80,116,114,0
0000397f 61446c61 
00003983 74506174 
00003987 0072 
00003989 65c3       8184 	.data.b	195,101
0000398b 0185       8185 	.data.b	133,1
0000398d 01         8186 	.data.b	1
0000398e 00000000*  8187 	.data.w	.LDW_6033570
00003992 00         8188 	.data.b	0
                    8189 
                    8190 .LDW_60185a8:
00003993 12         8191 	.data.b	18
00003994 676e654c   8192 	.data.b	76,101,110,103,116,104,0
00003998 006874 
0000399b 65c3       8193 	.data.b	195,101
0000399d 019b       8194 	.data.b	155,1
0000399f 01         8195 	.data.b	1
000039a0 00000000*  8196 	.data.w	.LDW_5ef2118
000039a4 00         8197 	.data.b	0
                    8198 
                    8199 .LDW_60188c0:
000039a5 12         8200 	.data.b	18
000039a6 54786469   8201 	.data.b	105,100,120,84,120,80,100,117,73,110,102,111,0
000039aa 75645078 
000039ae 6f666e49 
000039b2 00 
000039b3 65c3       8202 	.data.b	195,101
000039b5 01ad       8203 	.data.b	173,1
000039b7 01         8204 	.data.b	1
000039b8 00000000*  8205 	.data.w	.LDW_5e8ef58
000039bc 00         8206 	.data.b	0
                    8207 
                    8208 .LDW_6020e18:
000039bd 22         8209 	.data.b	34
                    8210 
000039be 00         8211 	.data.b	0
                    8212 
000039bf 00         8213 	.data.b	0
                    8214 
                    8215 .LDW_6032498:
000039c0 18         8216 	.data.b	24
000039c1 5f6d6f43   8217 	.data.b	67,111,109,95,83,101,110,100,83,105,103,110,97,108,95,80,114,111,99,101,115,115,105,110,103,0
000039c5 646e6553 
000039c9 6e676953 
000039cd 505f6c61 
000039d1 65636f72 
000039d5 6e697373 
000039d9 0067 
000039db 67a6       8218 	.data.b	166,103
000039dd 24         8219 	.data.b	36
000039de 01         8220 	.data.b	1
000039df 00000000*  8221 	.data.w	.LDW_5e8ef00

                                                                      Page 173
                                                              C:\Users\Fengyuan\AppData\Local\Temp\gh_0000fuk1.s
000039e3 00         8222 	.data.b	0
000039e4 03         8223 	.data.b	3
000039e5 00         8224 	.data.b	0
000039e6 01         8225 	.data.b	1
000039e7 00         8226 	.data.b	0
000039e8 01         8227 	.data.b	1
                    8228 
                    8229 .LDW_6018600:
000039e9 12         8230 	.data.b	18
000039ea 54786469   8231 	.data.b	105,100,120,84,120,83,105,103,73,110,102,111,0
000039ee 67695378 
000039f2 6f666e49 
000039f6 00 
000039f7 67a6       8232 	.data.b	166,103
000039f9 4f         8233 	.data.b	79
000039fa 01         8234 	.data.b	1
000039fb 00000000*  8235 	.data.w	.LDW_5ef2748
000039ff 00         8236 	.data.b	0
                    8237 
                    8238 .LDW_6018810:
00003a00 12         8239 	.data.b	18
00003a01 6e676953   8240 	.data.b	83,105,103,110,97,108,68,97,116,97,80,116,114,0
00003a05 61446c61 
00003a09 74506174 
00003a0d 0072 
00003a0f 67a6       8241 	.data.b	166,103
00003a11 0185       8242 	.data.b	133,1
00003a13 01         8243 	.data.b	1
00003a14 00000000*  8244 	.data.w	.LDW_6033570
00003a18 00         8245 	.data.b	0
                    8246 
                    8247 .LDW_6044480:
00003a19 12         8248 	.data.b	18
00003a1a 676e654c   8249 	.data.b	76,101,110,103,116,104,0
00003a1e 006874 
00003a21 67a6       8250 	.data.b	166,103
00003a23 019b       8251 	.data.b	155,1
00003a25 01         8252 	.data.b	1
00003a26 00000000*  8253 	.data.w	.LDW_5ef2118
00003a2a 00         8254 	.data.b	0
                    8255 
                    8256 .LDW_6020ed8:
00003a2b 22         8257 	.data.b	34
                    8258 
                    8259 .LDW_6043e50:
00003a2c 07         8260 	.data.b	7
00003a2d 56746572   8261 	.data.b	114,101,116,86,97,108,0
00003a31 006c61 
00003a34 67a8       8262 	.data.b	168,103
00003a36 09         8263 	.data.b	9
00003a37 01         8264 	.data.b	1
00003a38 00000000*  8265 	.data.w	.LDW_5e8ef00
00003a3c 00         8266 	.data.b	0
00003a3d 00         8267 	.data.b	0
                    8268 
                    8269 .LDW_6043c98:
00003a3e 07         8270 	.data.b	7
00003a3f 54786469   8271 	.data.b	105,100,120,84,120,80,100,117,73,110,102,111,0
00003a43 75645078 
00003a47 6f666e49 
00003a4b 00 

                                                                      Page 174
                                                              C:\Users\Fengyuan\AppData\Local\Temp\gh_0000fuk1.s
00003a4c 67aa       8272 	.data.b	170,103
00003a4e 23         8273 	.data.b	35
00003a4f 01         8274 	.data.b	1
00003a50 00000000*  8275 	.data.w	.LDW_6043f00
00003a54 00         8276 	.data.b	0
00003a55 00         8277 	.data.b	0
                    8278 
00003a56 00         8279 	.data.b	0
                    8280 
00003a57 00         8281 	.data.b	0
                    8282 
                    8283 .LDW_6031ea8:
00003a58 15         8284 	.data.b	21
00003a59 5f6d6f43   8285 	.data.b	67,111,109,95,73,110,105,116,0
00003a5d 74696e49 
00003a61 00 
00003a62 6ad8       8286 	.data.b	216,106
00003a64 16         8287 	.data.b	22
00003a65 01         8288 	.data.b	1
00003a66 00000000*  8289 	.data.w	Com_Init
00003a6a 00000000*  8290 	.data.w	__ghs_eofn_Com_Init
00003a6e 5d01       8291 	.data.b	1,93
00003a70 0180f0     8292 	.data.b	240,128,1
00003a73 74         8293 	.data.b	116
00003a74 00         8294 	.data.b	0
00003a75 0c         8295 	.data.b	12
00003a76 01         8296 	.data.b	1
00003a77 00         8297 	.data.b	0
00003a78 00         8298 	.data.b	0
00003a79 01         8299 	.data.b	1
00003a7a 01         8300 	.data.b	1
00003a7b 00         8301 	.data.b	0
00003a7c 01         8302 	.data.b	1
                    8303 
                    8304 	.section	.debug_abbrev
00000136 15         8305 	.data.b	21
00000137 2e         8306 	.data.b	46
00000138 01         8307 	.data.b	1
00000139 0803       8308 	.data.b	3,8
0000013b 0f3b       8309 	.data.b	59,15
0000013d 0f39       8310 	.data.b	57,15
0000013f 0f3a       8311 	.data.b	58,15
00000141 0111       8312 	.data.b	17,1
00000143 0112       8313 	.data.b	18,1
00000145 0a40       8314 	.data.b	64,10
00000147 4183       8315 	.data.b	131,65
00000149 0f         8316 	.data.b	15
0000014a 4187       8317 	.data.b	135,65
0000014c 0d         8318 	.data.b	13
0000014d 4185       8319 	.data.b	133,65
0000014f 0f         8320 	.data.b	15
00000150 4186       8321 	.data.b	134,65
00000152 0d         8322 	.data.b	13
00000153 4192       8323 	.data.b	146,65
00000155 0f         8324 	.data.b	15
00000156 0c3c       8325 	.data.b	60,12
00000158 0b20       8326 	.data.b	32,11
0000015a 0c3f       8327 	.data.b	63,12
0000015c 0b32       8328 	.data.b	50,11
0000015e 0b4c       8329 	.data.b	76,11
00000160 0c27       8330 	.data.b	39,12

                                                                      Page 175
                                                              C:\Users\Fengyuan\AppData\Local\Temp\gh_0000fuk1.s
00000162 0000       8331 	.data.b	0,0
                    8332 
                    8333 	.section	.debug_frame
                    8334 .LDW_5ff4168:
00000090 00000000*  8335 	.data.w	.LDW_unq_4-.LDW_unq_3
                    8336 .LDW_unq_3:
00000094 00000000*  8337 	.data.w	.LDW_5f79490
00000098 00000000*  8338 	.data.w	Com_Init
0000009c 000000d4   8339 	.data.w	__ghs_eofn_Com_Init-Com_Init
000000a0 01         8340 	.data.b	1
000000a1 00000000*  8341 	.data.w	.LDW11
000000a5 00         8342 	.data.b	0
000000a6 00         8343 	.data.b	0
000000a7 00         8344 	.data.b	0
                    8345 .LDW_unq_4:
                    8346 	.section	.debug_line
000004e4 020500     8347 	.data.b	0,5,2
000004e7 00000000*  8348 	.data.w	Com_Init
000004eb 06         8349 	.data.b	6
000004ec 03         8350 	.data.b	3
000004ed 00ead8     8351 	.data.b	216,234,0
000004f0 02         8352 	.data.b	2
000004f1 00         8353 	.data.b	0
000004f2 01         8354 	.data.b	1
000004f3 14         8355 	.data.b	20
000004f4 03         8356 	.data.b	3
000004f5 07         8357 	.data.b	7
000004f6 02         8358 	.data.b	2
000004f7 02         8359 	.data.b	2
000004f8 01         8360 	.data.b	1
000004f9 23         8361 	.data.b	35
000004fa 0b         8362 	.data.b	11
000004fb 13         8363 	.data.b	19
000004fc 02         8364 	.data.b	2
000004fd 00         8365 	.data.b	0
000004fe 03         8366 	.data.b	3
000004ff 1a         8367 	.data.b	26
00000500 02         8368 	.data.b	2
00000501 00         8369 	.data.b	0
00000502 01         8370 	.data.b	1
00000503 020500     8371 	.data.b	0,5,2
00000506 00000000*  8372 	.data.w	.LDWlin1
0000050a 03         8373 	.data.b	3
0000050b 06         8374 	.data.b	6
0000050c 02         8375 	.data.b	2
0000050d 00         8376 	.data.b	0
0000050e 01         8377 	.data.b	1
0000050f 020500     8378 	.data.b	0,5,2
00000512 00000000*  8379 	.data.w	.LDWlin2
00000516 03         8380 	.data.b	3
00000517 2f         8381 	.data.b	47
00000518 02         8382 	.data.b	2
00000519 00         8383 	.data.b	0
0000051a 01         8384 	.data.b	1
0000051b 1d         8385 	.data.b	29
0000051c 1d         8386 	.data.b	29
0000051d 03         8387 	.data.b	3
0000051e 09         8388 	.data.b	9
0000051f 02         8389 	.data.b	2
00000520 04         8390 	.data.b	4
00000521 01         8391 	.data.b	1

                                                                      Page 176
                                                              C:\Users\Fengyuan\AppData\Local\Temp\gh_0000fuk1.s
00000522 1d         8392 	.data.b	29
00000523 03         8393 	.data.b	3
00000524 0c         8394 	.data.b	12
00000525 02         8395 	.data.b	2
00000526 04         8396 	.data.b	4
00000527 01         8397 	.data.b	1
00000528 03         8398 	.data.b	3
00000529 05         8399 	.data.b	5
0000052a 02         8400 	.data.b	2
0000052b 04         8401 	.data.b	4
0000052c 01         8402 	.data.b	1
0000052d 020500     8403 	.data.b	0,5,2
00000530 00000000*  8404 	.data.w	.LDWlin3
00000534 0b         8405 	.data.b	11
00000535 0b         8406 	.data.b	11
00000536 33         8407 	.data.b	51
00000537 02         8408 	.data.b	2
00000538 00         8409 	.data.b	0
00000539 03         8410 	.data.b	3
0000053a 05         8411 	.data.b	5
0000053b 02         8412 	.data.b	2
0000053c 00         8413 	.data.b	0
0000053d 01         8414 	.data.b	1
0000053e 02         8415 	.data.b	2
0000053f 02         8416 	.data.b	2
00000540 010100     8417 	.data.b	0,1,1
                    8418 	.section	.debug_info
                    8419 .LDW_6044060:
00003a7d 11         8420 	.data.b	17
00003a7e 666e6f63   8421 	.data.b	99,111,110,102,105,103,0
00003a82 006769 
00003a85 6ad8       8422 	.data.b	216,106
00003a87 51         8423 	.data.b	81
00003a88 01         8424 	.data.b	1
00003a89 00000000*  8425 	.data.w	.LDW_60337d8
00003a8d 00         8426 	.data.b	0
00003a8e 5001       8427 	.data.b	1,80
                    8428 
                    8429 	.section	.debug_abbrev
00000164 11         8430 	.data.b	17
00000165 05         8431 	.data.b	5
00000166 00         8432 	.data.b	0
00000167 0803       8433 	.data.b	3,8
00000169 0f3b       8434 	.data.b	59,15
0000016b 0f39       8435 	.data.b	57,15
0000016d 0f3a       8436 	.data.b	58,15
0000016f 1049       8437 	.data.b	73,16
00000171 0c4b       8438 	.data.b	75,12
00000173 0a02       8439 	.data.b	2,10
00000175 0000       8440 	.data.b	0,0
                    8441 
                    8442 	.section	.debug_info
                    8443 .LDW_6020ff8:
00003a90 1f         8444 	.data.b	31
00003a91 00000000*  8445 	.data.w	.LDW01
00003a95 00000000*  8446 	.data.w	.LDW11
                    8447 
                    8448 	.section	.debug_abbrev
00000177 1f         8449 	.data.b	31
00000178 0b         8450 	.data.b	11
00000179 01         8451 	.data.b	1

                                                                      Page 177
                                                              C:\Users\Fengyuan\AppData\Local\Temp\gh_0000fuk1.s
0000017a 0111       8452 	.data.b	17,1
0000017c 0112       8453 	.data.b	18,1
0000017e 0000       8454 	.data.b	0,0
                    8455 
                    8456 	.section	.debug_info
                    8457 .LDW_6043ae0:
00003a99 06         8458 	.data.b	6
00003a9a 6f727265   8459 	.data.b	101,114,114,111,114,73,100,0
00003a9e 00644972 
00003aa2 6adb       8460 	.data.b	219,106
00003aa4 09         8461 	.data.b	9
00003aa5 01         8462 	.data.b	1
00003aa6 00000000*  8463 	.data.w	.LDW_5e8ef00
00003aaa 00         8464 	.data.b	0
00003aab 00         8465 	.data.b	0
00003aac 5501       8466 	.data.b	1,85
                    8467 
                    8468 	.section	.debug_abbrev
00000180 06         8469 	.data.b	6
00000181 34         8470 	.data.b	52
00000182 00         8471 	.data.b	0
00000183 0803       8472 	.data.b	3,8
00000185 0f3b       8473 	.data.b	59,15
00000187 0f39       8474 	.data.b	57,15
00000189 0f3a       8475 	.data.b	58,15
0000018b 1049       8476 	.data.b	73,16
0000018d 0c3f       8477 	.data.b	63,12
0000018f 0c3c       8478 	.data.b	60,12
00000191 0a02       8479 	.data.b	2,10
00000193 0000       8480 	.data.b	0,0
                    8481 
                    8482 	.section	.debug_info
00003aae 00         8483 	.data.b	0
                    8484 
00003aaf 00         8485 	.data.b	0
                    8486 
                    8487 .LDW_6031490:
00003ab0 15         8488 	.data.b	21
00003ab1 5f6d6f43   8489 	.data.b	67,111,109,95,73,110,105,116,77,101,109,111,114,121,0
00003ab5 74696e49 
00003ab9 6f6d654d 
00003abd 007972 
00003ac0 6be9       8490 	.data.b	233,107
00003ac2 16         8491 	.data.b	22
00003ac3 01         8492 	.data.b	1
00003ac4 00000000*  8493 	.data.w	Com_InitMemory
00003ac8 00000000*  8494 	.data.w	__ghs_eofn_Com_InitMemory
00003acc 5d01       8495 	.data.b	1,93
00003ace 00         8496 	.data.b	0
00003acf 04         8497 	.data.b	4
00003ad0 00         8498 	.data.b	0
00003ad1 7c         8499 	.data.b	124
00003ad2 01         8500 	.data.b	1
00003ad3 00         8501 	.data.b	0
00003ad4 00         8502 	.data.b	0
00003ad5 01         8503 	.data.b	1
00003ad6 01         8504 	.data.b	1
00003ad7 00         8505 	.data.b	0
00003ad8 01         8506 	.data.b	1
                    8507 
                    8508 	.section	.debug_frame

                                                                      Page 178
                                                              C:\Users\Fengyuan\AppData\Local\Temp\gh_0000fuk1.s
                    8509 .LDW_5ff3de8:
000000a8 00000000*  8510 	.data.w	.LDW_unq_6-.LDW_unq_5
                    8511 .LDW_unq_5:
000000ac 00000000*  8512 	.data.w	.LDW_5f79490
000000b0 00000000*  8513 	.data.w	Com_InitMemory
000000b4 00000008   8514 	.data.w	__ghs_eofn_Com_InitMemory-Com_InitMemory
000000b8 01         8515 	.data.b	1
000000b9 00000000*  8516 	.data.w	.LDW31
000000bd 00         8517 	.data.b	0
000000be 00         8518 	.data.b	0
000000bf 00         8519 	.data.b	0
                    8520 .LDW_unq_6:
                    8521 	.section	.debug_line
00000543 020500     8522 	.data.b	0,5,2
00000546 00000000*  8523 	.data.w	Com_InitMemory
0000054a 06         8524 	.data.b	6
0000054b 03         8525 	.data.b	3
0000054c 00ebeb     8526 	.data.b	235,235,0
0000054f 02         8527 	.data.b	2
00000550 00         8528 	.data.b	0
00000551 01         8529 	.data.b	1
00000552 03         8530 	.data.b	3
00000553 04         8531 	.data.b	4
00000554 02         8532 	.data.b	2
00000555 06         8533 	.data.b	6
00000556 01         8534 	.data.b	1
00000557 02         8535 	.data.b	2
00000558 02         8536 	.data.b	2
00000559 010100     8537 	.data.b	0,1,1
                    8538 	.section	.debug_info
                    8539 .LDW_6021208:
00003ad9 1f         8540 	.data.b	31
00003ada 00000000*  8541 	.data.w	.LDW21
00003ade 00000000*  8542 	.data.w	.LDW31
                    8543 
00003ae2 00         8544 	.data.b	0
                    8545 
00003ae3 00         8546 	.data.b	0
                    8547 
                    8548 .LDW_6031820:
00003ae4 15         8549 	.data.b	21
00003ae5 5f6d6f43   8550 	.data.b	67,111,109,95,68,101,73,110,105,116,0
00003ae9 6e496544 
00003aed 007469 
00003af0 6bfd       8551 	.data.b	253,107
00003af2 16         8552 	.data.b	22
00003af3 01         8553 	.data.b	1
00003af4 00000000*  8554 	.data.w	Com_DeInit
00003af8 00000000*  8555 	.data.w	__ghs_eofn_Com_DeInit
00003afc 5d01       8556 	.data.b	1,93
00003afe 018090     8557 	.data.b	144,128,1
00003b01 7c         8558 	.data.b	124
00003b02 00         8559 	.data.b	0
00003b03 08         8560 	.data.b	8
00003b04 01         8561 	.data.b	1
00003b05 00         8562 	.data.b	0
00003b06 00         8563 	.data.b	0
00003b07 01         8564 	.data.b	1
00003b08 01         8565 	.data.b	1
00003b09 00         8566 	.data.b	0
00003b0a 01         8567 	.data.b	1

                                                                      Page 179
                                                              C:\Users\Fengyuan\AppData\Local\Temp\gh_0000fuk1.s
                    8568 
                    8569 	.section	.debug_frame
                    8570 .LDW_5ff3368:
000000c0 00000000*  8571 	.data.w	.LDW_unq_8-.LDW_unq_7
                    8572 .LDW_unq_7:
000000c4 00000000*  8573 	.data.w	.LDW_5f79490
000000c8 00000000*  8574 	.data.w	Com_DeInit
000000cc 00000034   8575 	.data.w	__ghs_eofn_Com_DeInit-Com_DeInit
000000d0 01         8576 	.data.b	1
000000d1 00000000*  8577 	.data.w	.LDW71
000000d5 00         8578 	.data.b	0
000000d6 00         8579 	.data.b	0
000000d7 00         8580 	.data.b	0
                    8581 .LDW_unq_8:
                    8582 	.section	.debug_line
0000055c 020500     8583 	.data.b	0,5,2
0000055f 00000000*  8584 	.data.w	Com_DeInit
00000563 06         8585 	.data.b	6
00000564 03         8586 	.data.b	3
00000565 00ebfd     8587 	.data.b	253,235,0
00000568 02         8588 	.data.b	2
00000569 00         8589 	.data.b	0
0000056a 01         8590 	.data.b	1
0000056b 03         8591 	.data.b	3
0000056c 06         8592 	.data.b	6
0000056d 02         8593 	.data.b	2
0000056e 04         8594 	.data.b	4
0000056f 01         8595 	.data.b	1
00000570 23         8596 	.data.b	35
00000571 0c         8597 	.data.b	12
00000572 0c         8598 	.data.b	12
00000573 03         8599 	.data.b	3
00000574 16         8600 	.data.b	22
00000575 02         8601 	.data.b	2
00000576 00         8602 	.data.b	0
00000577 01         8603 	.data.b	1
00000578 2b         8604 	.data.b	43
00000579 06         8605 	.data.b	6
0000057a 02         8606 	.data.b	2
0000057b 08         8607 	.data.b	8
0000057c 06         8608 	.data.b	6
0000057d 03         8609 	.data.b	3
0000057e 24         8610 	.data.b	36
0000057f 02         8611 	.data.b	2
00000580 02         8612 	.data.b	2
00000581 01         8613 	.data.b	1
00000582 020500     8614 	.data.b	0,5,2
00000585 00000000*  8615 	.data.w	.LDWlin4
00000589 0b         8616 	.data.b	11
0000058a 02         8617 	.data.b	2
0000058b 00         8618 	.data.b	0
0000058c 03         8619 	.data.b	3
0000058d 04         8620 	.data.b	4
0000058e 02         8621 	.data.b	2
0000058f 00         8622 	.data.b	0
00000590 01         8623 	.data.b	1
00000591 0b         8624 	.data.b	11
00000592 0b         8625 	.data.b	11
00000593 3b         8626 	.data.b	59
00000594 02         8627 	.data.b	2
00000595 00         8628 	.data.b	0

                                                                      Page 180
                                                              C:\Users\Fengyuan\AppData\Local\Temp\gh_0000fuk1.s
00000596 03         8629 	.data.b	3
00000597 04         8630 	.data.b	4
00000598 02         8631 	.data.b	2
00000599 00         8632 	.data.b	0
0000059a 01         8633 	.data.b	1
0000059b 02         8634 	.data.b	2
0000059c 04         8635 	.data.b	4
0000059d 010100     8636 	.data.b	0,1,1
                    8637 	.section	.debug_info
                    8638 .LDW_6021178:
00003b0b 1f         8639 	.data.b	31
00003b0c 00000000*  8640 	.data.w	.LDW41
00003b10 00000000*  8641 	.data.w	.LDW71
                    8642 
                    8643 .LDW_60444d8:
00003b14 07         8644 	.data.b	7
00003b15 6f727265   8645 	.data.b	101,114,114,111,114,73,100,0
00003b19 00644972 
00003b1d 6c80       8646 	.data.b	128,108
00003b1f 09         8647 	.data.b	9
00003b20 01         8648 	.data.b	1
00003b21 00000000*  8649 	.data.w	.LDW_5e8ef00
00003b25 00         8650 	.data.b	0
00003b26 00         8651 	.data.b	0
                    8652 
                    8653 .LDW_6021148:
00003b27 1f         8654 	.data.b	31
00003b28 00000000*  8655 	.data.w	.LDW51
00003b2c 00000000*  8656 	.data.w	.LDW61
                    8657 
                    8658 .LDW_6044320:
00003b30 06         8659 	.data.b	6
00003b31 61656c63   8660 	.data.b	99,108,101,97,114,73,112,100,117,71,114,111,117,112,86,101,99,116,111,114,0
00003b35 64704972 
00003b39 6f724775 
00003b3d 65567075 
00003b41 726f7463 
00003b45 00 
00003b46 6c9e       8661 	.data.b	158,108
00003b48 1b         8662 	.data.b	27
00003b49 01         8663 	.data.b	1
00003b4a 00000000*  8664 	.data.w	.LDW_6044378
00003b4e 00         8665 	.data.b	0
00003b4f 00         8666 	.data.b	0
00003b50 7d02       8667 	.data.b	2,125
00003b52 03         8668 	.data.b	3
                    8669 
00003b53 00         8670 	.data.b	0
                    8671 
00003b54 00         8672 	.data.b	0
                    8673 
00003b55 00         8674 	.data.b	0
                    8675 
                    8676 .LDW_6031a80:
00003b56 15         8677 	.data.b	21
00003b57 5f6d6f43   8678 	.data.b	67,111,109,95,73,112,100,117,71,114,111,117,112,67,111,110,116,114,111,108,0
00003b5b 75647049 
00003b5f 756f7247 
00003b63 6e6f4370 
00003b67 6c6f7274 
00003b6b 00 

                                                                      Page 181
                                                              C:\Users\Fengyuan\AppData\Local\Temp\gh_0000fuk1.s
00003b6c 6cdc       8679 	.data.b	220,108
00003b6e 16         8680 	.data.b	22
00003b6f 01         8681 	.data.b	1
00003b70 00000000*  8682 	.data.w	Com_IpduGroupControl
00003b74 00000000*  8683 	.data.w	__ghs_eofn_Com_IpduGroupControl
00003b78 5d01       8684 	.data.b	1,93
00003b7a 0181f0     8685 	.data.b	240,129,1
00003b7d 70         8686 	.data.b	112
00003b7e 00         8687 	.data.b	0
00003b7f 18         8688 	.data.b	24
00003b80 01         8689 	.data.b	1
00003b81 00         8690 	.data.b	0
00003b82 00         8691 	.data.b	0
00003b83 01         8692 	.data.b	1
00003b84 01         8693 	.data.b	1
00003b85 00         8694 	.data.b	0
00003b86 01         8695 	.data.b	1
                    8696 
                    8697 	.section	.debug_frame
                    8698 .LDW_5fb0c38:
000000d8 00000000*  8699 	.data.w	.LDW_unq_a-.LDW_unq_9
                    8700 .LDW_unq_9:
000000dc 00000000*  8701 	.data.w	.LDW_5f79490
000000e0 00000000*  8702 	.data.w	Com_IpduGroupControl
000000e4 00000196   8703 	.data.w	__ghs_eofn_Com_IpduGroupControl-Com_IpduGroupControl
000000e8 01         8704 	.data.b	1
000000e9 00000000*  8705 	.data.w	.LDW32
000000ed 00         8706 	.data.b	0
000000ee 00         8707 	.data.b	0
000000ef 00         8708 	.data.b	0
                    8709 .LDW_unq_a:
                    8710 	.section	.debug_line
000005a0 020500     8711 	.data.b	0,5,2
000005a3 00000000*  8712 	.data.w	Com_IpduGroupControl
000005a7 06         8713 	.data.b	6
000005a8 03         8714 	.data.b	3
000005a9 00ecdc     8715 	.data.b	220,236,0
000005ac 02         8716 	.data.b	2
000005ad 00         8717 	.data.b	0
000005ae 01         8718 	.data.b	1
000005af 03         8719 	.data.b	3
000005b0 06         8720 	.data.b	6
000005b1 02         8721 	.data.b	2
000005b2 08         8722 	.data.b	8
000005b3 01         8723 	.data.b	1
000005b4 020500     8724 	.data.b	0,5,2
000005b7 00000000*  8725 	.data.w	.LDWlin5
000005bb 0b         8726 	.data.b	11
000005bc 0c         8727 	.data.b	12
000005bd 0c         8728 	.data.b	12
000005be 03         8729 	.data.b	3
000005bf 07         8730 	.data.b	7
000005c0 02         8731 	.data.b	2
000005c1 00         8732 	.data.b	0
000005c2 01         8733 	.data.b	1
000005c3 020500     8734 	.data.b	0,5,2
000005c6 00000000*  8735 	.data.w	.LDWlin6
000005ca 03         8736 	.data.b	3
000005cb 04         8737 	.data.b	4
000005cc 02         8738 	.data.b	2
000005cd 00         8739 	.data.b	0

                                                                      Page 182
                                                              C:\Users\Fengyuan\AppData\Local\Temp\gh_0000fuk1.s
000005ce 01         8740 	.data.b	1
000005cf 03         8741 	.data.b	3
000005d0 04         8742 	.data.b	4
000005d1 02         8743 	.data.b	2
000005d2 02         8744 	.data.b	2
000005d3 01         8745 	.data.b	1
000005d4 1c         8746 	.data.b	28
000005d5 02         8747 	.data.b	2
000005d6 02         8748 	.data.b	2
000005d7 0c         8749 	.data.b	12
000005d8 15         8750 	.data.b	21
000005d9 020500     8751 	.data.b	0,5,2
000005dc 00000000*  8752 	.data.w	.LDWlin7
000005e0 0d         8753 	.data.b	13
000005e1 020500     8754 	.data.b	0,5,2
000005e4 00000000*  8755 	.data.w	.LDWlin8
000005e8 0c         8756 	.data.b	12
000005e9 020500     8757 	.data.b	0,5,2
000005ec 00000000*  8758 	.data.w	.LDWlin9
000005f0 03         8759 	.data.b	3
000005f1 76         8760 	.data.b	118
000005f2 02         8761 	.data.b	2
000005f3 00         8762 	.data.b	0
000005f4 01         8763 	.data.b	1
000005f5 020500     8764 	.data.b	0,5,2
000005f8 00000000*  8765 	.data.w	.LDWlin10
000005fc 03         8766 	.data.b	3
000005fd 0b         8767 	.data.b	11
000005fe 02         8768 	.data.b	2
000005ff 00         8769 	.data.b	0
00000600 01         8770 	.data.b	1
00000601 0c         8771 	.data.b	12
00000602 020500     8772 	.data.b	0,5,2
00000605 00000000*  8773 	.data.w	.LDWlin11
00000609 03         8774 	.data.b	3
0000060a 06         8775 	.data.b	6
0000060b 02         8776 	.data.b	2
0000060c 00         8777 	.data.b	0
0000060d 01         8778 	.data.b	1
0000060e 02         8779 	.data.b	2
0000060f 00         8780 	.data.b	0
00000610 03         8781 	.data.b	3
00000611 04         8782 	.data.b	4
00000612 02         8783 	.data.b	2
00000613 00         8784 	.data.b	0
00000614 01         8785 	.data.b	1
00000615 0b         8786 	.data.b	11
00000616 0b         8787 	.data.b	11
00000617 33         8788 	.data.b	51
00000618 02         8789 	.data.b	2
00000619 00         8790 	.data.b	0
0000061a 03         8791 	.data.b	3
0000061b 05         8792 	.data.b	5
0000061c 02         8793 	.data.b	2
0000061d 00         8794 	.data.b	0
0000061e 01         8795 	.data.b	1
0000061f 02         8796 	.data.b	2
00000620 04         8797 	.data.b	4
00000621 010100     8798 	.data.b	0,1,1
                    8799 	.section	.debug_info
                    8800 .LDW_6043be8:

                                                                      Page 183
                                                              C:\Users\Fengyuan\AppData\Local\Temp\gh_0000fuk1.s
00003b87 11         8801 	.data.b	17
00003b88 75647069   8802 	.data.b	105,112,100,117,71,114,111,117,112,86,101,99,116,111,114,0
00003b8c 756f7247 
00003b90 63655670 
00003b94 00726f74 
00003b98 6cdc       8803 	.data.b	220,108
00003b9a 3f         8804 	.data.b	63
00003b9b 01         8805 	.data.b	1
00003b9c 00000000*  8806 	.data.w	.LDW_49cd610
00003ba0 00         8807 	.data.b	0
00003ba1 7d02       8808 	.data.b	2,125
00003ba3 04         8809 	.data.b	4
                    8810 
                    8811 .LDW_6044428:
00003ba4 11         8812 	.data.b	17
00003ba5 74696e69   8813 	.data.b	105,110,105,116,105,97,108,105,122,101,0
00003ba9 696c6169 
00003bad 00657a 
00003bb0 6cdc       8814 	.data.b	220,108
00003bb2 58         8815 	.data.b	88
00003bb3 01         8816 	.data.b	1
00003bb4 00000000*  8817 	.data.w	.LDW_49f9738
00003bb8 00         8818 	.data.b	0
00003bb9 5601       8819 	.data.b	1,86
                    8820 
                    8821 .LDW_6021238:
00003bbb 1f         8822 	.data.b	31
00003bbc 00000000*  8823 	.data.w	.LDW81
00003bc0 00000000*  8824 	.data.w	.LDW32
                    8825 
                    8826 .LDW_6044218:
00003bc4 07         8827 	.data.b	7
00003bc5 6f727265   8828 	.data.b	101,114,114,111,114,73,100,0
00003bc9 00644972 
00003bcd 6cdf       8829 	.data.b	223,108
00003bcf 09         8830 	.data.b	9
00003bd0 01         8831 	.data.b	1
00003bd1 00000000*  8832 	.data.w	.LDW_5e8ef00
00003bd5 00         8833 	.data.b	0
00003bd6 00         8834 	.data.b	0
                    8835 
                    8836 .LDW_60211d8:
00003bd7 1f         8837 	.data.b	31
00003bd8 00000000*  8838 	.data.w	.LDW91
00003bdc 00000000*  8839 	.data.w	.LDW22
                    8840 
                    8841 .LDW_6044008:
00003be0 06         8842 	.data.b	6
00003be1 00786469   8843 	.data.b	105,100,120,0
00003be5 6cf5       8844 	.data.b	245,108
00003be7 29         8845 	.data.b	41
00003be8 01         8846 	.data.b	1
00003be9 00000000*  8847 	.data.w	.LDW_60440b8
00003bed 00         8848 	.data.b	0
00003bee 00         8849 	.data.b	0
00003bef 5501       8850 	.data.b	1,85
                    8851 
                    8852 .LDW_60210b8:
00003bf1 1f         8853 	.data.b	31
00003bf2 00000000*  8854 	.data.w	.LDW02
00003bf6 00000000*  8855 	.data.w	.LDW12

                                                                      Page 184
                                                              C:\Users\Fengyuan\AppData\Local\Temp\gh_0000fuk1.s
                    8856 
                    8857 .LDW_6044110:
00003bfa 06         8858 	.data.b	6
00003bfb 546d6f43   8859 	.data.b	67,111,109,84,120,80,100,117,73,100,0
00003bff 75645078 
00003c03 006449 
00003c06 6cfb       8860 	.data.b	251,108
00003c08 1f         8861 	.data.b	31
00003c09 01         8862 	.data.b	1
00003c0a 00000000*  8863 	.data.w	.LDW_49f9598
00003c0e 00         8864 	.data.b	0
00003c0f 00         8865 	.data.b	0
00003c10 5401       8866 	.data.b	1,84
                    8867 
                    8868 .LDW_6044270:
00003c12 06         8869 	.data.b	6
00003c13 71655262   8870 	.data.b	98,82,101,113,117,101,115,116,101,100,65,99,116,105,118,101,83,116,97,116,101,0
00003c17 74736575 
00003c1b 63416465 
00003c1f 65766974 
00003c23 74617453 
00003c27 0065 
00003c29 6cfe       8871 	.data.b	254,108
00003c2b 11         8872 	.data.b	17
00003c2c 01         8873 	.data.b	1
00003c2d 00000000*  8874 	.data.w	.LDW_49f9738
00003c31 00         8875 	.data.b	0
00003c32 00         8876 	.data.b	0
00003c33 5201       8877 	.data.b	1,82
                    8878 
00003c35 00         8879 	.data.b	0
                    8880 
00003c36 00         8881 	.data.b	0
                    8882 
00003c37 00         8883 	.data.b	0
                    8884 
00003c38 00         8885 	.data.b	0
                    8886 
                    8887 .LDW_6031f40:
00003c39 15         8888 	.data.b	21
00003c3a 5f6d6f43   8889 	.data.b	67,111,109,95,82,101,99,101,112,116,105,111,110,68,77,67,111,110,116,114,111,108,0
00003c3e 65636552 
00003c42 6f697470 
00003c46 434d446e 
00003c4a 72746e6f 
00003c4e 006c6f 
00003c51 6da2       8890 	.data.b	162,109
00003c53 16         8891 	.data.b	22
00003c54 01         8892 	.data.b	1
00003c55 00000000*  8893 	.data.w	Com_ReceptionDMControl
00003c59 00000000*  8894 	.data.w	__ghs_eofn_Com_ReceptionDMControl
00003c5d 5d01       8895 	.data.b	1,93
00003c5f 018090     8896 	.data.b	144,128,1
00003c62 7c         8897 	.data.b	124
00003c63 00         8898 	.data.b	0
00003c64 04         8899 	.data.b	4
00003c65 01         8900 	.data.b	1
00003c66 00         8901 	.data.b	0
00003c67 00         8902 	.data.b	0
00003c68 01         8903 	.data.b	1
00003c69 01         8904 	.data.b	1

                                                                      Page 185
                                                              C:\Users\Fengyuan\AppData\Local\Temp\gh_0000fuk1.s
00003c6a 00         8905 	.data.b	0
00003c6b 01         8906 	.data.b	1
                    8907 
                    8908 	.section	.debug_frame
                    8909 .LDW_5fb0bb8:
000000f0 00000000*  8910 	.data.w	.LDW_unq_c-.LDW_unq_b
                    8911 .LDW_unq_b:
000000f4 00000000*  8912 	.data.w	.LDW_5f79490
000000f8 00000000*  8913 	.data.w	Com_ReceptionDMControl
000000fc 00000016   8914 	.data.w	__ghs_eofn_Com_ReceptionDMControl-Com_ReceptionDMControl
00000100 01         8915 	.data.b	1
00000101 00000000*  8916 	.data.w	.LDW52
00000105 00         8917 	.data.b	0
00000106 00         8918 	.data.b	0
00000107 00         8919 	.data.b	0
                    8920 .LDW_unq_c:
                    8921 	.section	.debug_line
00000624 020500     8922 	.data.b	0,5,2
00000627 00000000*  8923 	.data.w	Com_ReceptionDMControl
0000062b 06         8924 	.data.b	6
0000062c 03         8925 	.data.b	3
0000062d 00eda2     8926 	.data.b	162,237,0
00000630 02         8927 	.data.b	2
00000631 00         8928 	.data.b	0
00000632 01         8929 	.data.b	1
00000633 03         8930 	.data.b	3
00000634 06         8931 	.data.b	6
00000635 02         8932 	.data.b	2
00000636 02         8933 	.data.b	2
00000637 01         8934 	.data.b	1
00000638 23         8935 	.data.b	35
00000639 0c         8936 	.data.b	12
0000063a 0c         8937 	.data.b	12
0000063b 03         8938 	.data.b	3
0000063c 16         8939 	.data.b	22
0000063d 02         8940 	.data.b	2
0000063e 00         8941 	.data.b	0
0000063f 01         8942 	.data.b	1
00000640 02         8943 	.data.b	2
00000641 00         8944 	.data.b	0
00000642 03         8945 	.data.b	3
00000643 04         8946 	.data.b	4
00000644 02         8947 	.data.b	2
00000645 00         8948 	.data.b	0
00000646 01         8949 	.data.b	1
00000647 0b         8950 	.data.b	11
00000648 0b         8951 	.data.b	11
00000649 3b         8952 	.data.b	59
0000064a 02         8953 	.data.b	2
0000064b 00         8954 	.data.b	0
0000064c 03         8955 	.data.b	3
0000064d 05         8956 	.data.b	5
0000064e 02         8957 	.data.b	2
0000064f 00         8958 	.data.b	0
00000650 01         8959 	.data.b	1
00000651 02         8960 	.data.b	2
00000652 02         8961 	.data.b	2
00000653 010100     8962 	.data.b	0,1,1
                    8963 	.section	.debug_info
                    8964 .LDW_6044530:
00003c6c 11         8965 	.data.b	17

                                                                      Page 186
                                                              C:\Users\Fengyuan\AppData\Local\Temp\gh_0000fuk1.s
00003c6d 75647069   8966 	.data.b	105,112,100,117,71,114,111,117,112,86,101,99,116,111,114,0
00003c71 756f7247 
00003c75 63655670 
00003c79 00726f74 
00003c7d 6da2       8967 	.data.b	162,109
00003c7f 41         8968 	.data.b	65
00003c80 01         8969 	.data.b	1
00003c81 00000000*  8970 	.data.w	.LDW_49cd610
00003c85 00         8971 	.data.b	0
00003c86 5001       8972 	.data.b	1,80
                    8973 
                    8974 .LDW_6054fa0:
00003c88 1f         8975 	.data.b	31
00003c89 00000000*  8976 	.data.w	.LDW42
00003c8d 00000000*  8977 	.data.w	.LDW52
                    8978 
                    8979 .LDW_6043b38:
00003c91 07         8980 	.data.b	7
00003c92 6f727265   8981 	.data.b	101,114,114,111,114,73,100,0
00003c96 00644972 
00003c9a 6da5       8982 	.data.b	165,109
00003c9c 09         8983 	.data.b	9
00003c9d 01         8984 	.data.b	1
00003c9e 00000000*  8985 	.data.w	.LDW_5e8ef00
00003ca2 00         8986 	.data.b	0
00003ca3 00         8987 	.data.b	0
                    8988 
00003ca4 00         8989 	.data.b	0
                    8990 
00003ca5 00         8991 	.data.b	0
                    8992 
                    8993 .LDW_6032530:
00003ca6 15         8994 	.data.b	21
00003ca7 5f6d6f43   8995 	.data.b	67,111,109,95,73,112,100,117,71,114,111,117,112,83,116,97,114,116,0
00003cab 75647049 
00003caf 756f7247 
00003cb3 61745370 
00003cb7 007472 
00003cba 6ddc       8996 	.data.b	220,109
00003cbc 16         8997 	.data.b	22
00003cbd 01         8998 	.data.b	1
00003cbe 00000000*  8999 	.data.w	Com_IpduGroupStart
00003cc2 00000000*  9000 	.data.w	__ghs_eofn_Com_IpduGroupStart
00003cc6 5d01       9001 	.data.b	1,93
00003cc8 018090     9002 	.data.b	144,128,1
00003ccb 7c         9003 	.data.b	124
00003ccc 00         9004 	.data.b	0
00003ccd 04         9005 	.data.b	4
00003cce 01         9006 	.data.b	1
00003ccf 00         9007 	.data.b	0
00003cd0 00         9008 	.data.b	0
00003cd1 01         9009 	.data.b	1
00003cd2 01         9010 	.data.b	1
00003cd3 00         9011 	.data.b	0
00003cd4 01         9012 	.data.b	1
                    9013 
                    9014 	.section	.debug_frame
                    9015 .LDW_5fb04f8:
00000108 00000000*  9016 	.data.w	.LDW_unq_e-.LDW_unq_d
                    9017 .LDW_unq_d:
0000010c 00000000*  9018 	.data.w	.LDW_5f79490

                                                                      Page 187
                                                              C:\Users\Fengyuan\AppData\Local\Temp\gh_0000fuk1.s
00000110 00000000*  9019 	.data.w	Com_IpduGroupStart
00000114 00000018   9020 	.data.w	__ghs_eofn_Com_IpduGroupStart-Com_IpduGroupStart
00000118 01         9021 	.data.b	1
00000119 00000000*  9022 	.data.w	.LDW72
0000011d 00         9023 	.data.b	0
0000011e 00         9024 	.data.b	0
0000011f 00         9025 	.data.b	0
                    9026 .LDW_unq_e:
                    9027 	.section	.debug_line
00000656 020500     9028 	.data.b	0,5,2
00000659 00000000*  9029 	.data.w	Com_IpduGroupStart
0000065d 06         9030 	.data.b	6
0000065e 03         9031 	.data.b	3
0000065f 00eddc     9032 	.data.b	220,237,0
00000662 02         9033 	.data.b	2
00000663 00         9034 	.data.b	0
00000664 01         9035 	.data.b	1
00000665 03         9036 	.data.b	3
00000666 06         9037 	.data.b	6
00000667 02         9038 	.data.b	2
00000668 02         9039 	.data.b	2
00000669 01         9040 	.data.b	1
0000066a 2d         9041 	.data.b	45
0000066b 03         9042 	.data.b	3
0000066c 11         9043 	.data.b	17
0000066d 02         9044 	.data.b	2
0000066e 00         9045 	.data.b	0
0000066f 01         9046 	.data.b	1
00000670 03         9047 	.data.b	3
00000671 15         9048 	.data.b	21
00000672 02         9049 	.data.b	2
00000673 00         9050 	.data.b	0
00000674 01         9051 	.data.b	1
00000675 14         9052 	.data.b	20
00000676 02         9053 	.data.b	2
00000677 00         9054 	.data.b	0
00000678 03         9055 	.data.b	3
00000679 04         9056 	.data.b	4
0000067a 02         9057 	.data.b	2
0000067b 00         9058 	.data.b	0
0000067c 01         9059 	.data.b	1
0000067d 0b         9060 	.data.b	11
0000067e 0b         9061 	.data.b	11
0000067f 33         9062 	.data.b	51
00000680 02         9063 	.data.b	2
00000681 00         9064 	.data.b	0
00000682 03         9065 	.data.b	3
00000683 07         9066 	.data.b	7
00000684 02         9067 	.data.b	2
00000685 00         9068 	.data.b	0
00000686 01         9069 	.data.b	1
00000687 02         9070 	.data.b	2
00000688 7e         9071 	.data.b	126
00000689 010100     9072 	.data.b	0,1,1
                    9073 	.section	.debug_info
                    9074 .LDW_6043b90:
00003cd5 11         9075 	.data.b	17
00003cd6 75647049   9076 	.data.b	73,112,100,117,71,114,111,117,112,73,100,0
00003cda 756f7247 
00003cde 00644970 
00003ce2 6ddc       9077 	.data.b	220,109

                                                                      Page 188
                                                              C:\Users\Fengyuan\AppData\Local\Temp\gh_0000fuk1.s
00003ce4 3d         9078 	.data.b	61
00003ce5 01         9079 	.data.b	1
00003ce6 00000000*  9080 	.data.w	.LDW_6044168
00003cea 00         9081 	.data.b	0
00003ceb 5001       9082 	.data.b	1,80
                    9083 
                    9084 .LDW_6043c40:
00003ced 11         9085 	.data.b	17
00003cee 74696e49   9086 	.data.b	73,110,105,116,105,97,108,105,122,101,0
00003cf2 696c6169 
00003cf6 00657a 
00003cf9 6ddc       9087 	.data.b	220,109
00003cfb 52         9088 	.data.b	82
00003cfc 01         9089 	.data.b	1
00003cfd 00000000*  9090 	.data.w	.LDW_49f9738
00003d01 00         9091 	.data.b	0
00003d02 5101       9092 	.data.b	1,81
                    9093 
                    9094 .LDW_6054f10:
00003d04 1f         9095 	.data.b	31
00003d05 00000000*  9096 	.data.w	.LDW62
00003d09 00000000*  9097 	.data.w	.LDW72
                    9098 
                    9099 .LDW_60443d0:
00003d0d 06         9100 	.data.b	6
00003d0e 6f727265   9101 	.data.b	101,114,114,111,114,73,100,0
00003d12 00644972 
00003d16 6ddf       9102 	.data.b	223,109
00003d18 09         9103 	.data.b	9
00003d19 01         9104 	.data.b	1
00003d1a 00000000*  9105 	.data.w	.LDW_5e8ef00
00003d1e 00         9106 	.data.b	0
00003d1f 00         9107 	.data.b	0
00003d20 5301       9108 	.data.b	1,83
                    9109 
00003d22 00         9110 	.data.b	0
                    9111 
00003d23 00         9112 	.data.b	0
                    9113 
                    9114 .LDW_60312c8:
00003d24 15         9115 	.data.b	21
00003d25 5f6d6f43   9116 	.data.b	67,111,109,95,73,112,100,117,71,114,111,117,112,83,116,111,112,0
00003d29 75647049 
00003d2d 756f7247 
00003d31 6f745370 
00003d35 0070 
00003d37 6ea7       9117 	.data.b	167,110
00003d39 16         9118 	.data.b	22
00003d3a 01         9119 	.data.b	1
00003d3b 00000000*  9120 	.data.w	Com_IpduGroupStop
00003d3f 00000000*  9121 	.data.w	__ghs_eofn_Com_IpduGroupStop
00003d43 5d01       9122 	.data.b	1,93
00003d45 018090     9123 	.data.b	144,128,1
00003d48 7c         9124 	.data.b	124
00003d49 00         9125 	.data.b	0
00003d4a 04         9126 	.data.b	4
00003d4b 01         9127 	.data.b	1
00003d4c 00         9128 	.data.b	0
00003d4d 00         9129 	.data.b	0
00003d4e 01         9130 	.data.b	1
00003d4f 01         9131 	.data.b	1

                                                                      Page 189
                                                              C:\Users\Fengyuan\AppData\Local\Temp\gh_0000fuk1.s
00003d50 00         9132 	.data.b	0
00003d51 01         9133 	.data.b	1
                    9134 
                    9135 	.section	.debug_frame
                    9136 .LDW_5fb0738:
00000120 00000000*  9137 	.data.w	.LDW_unq_10-.LDW_unq_f
                    9138 .LDW_unq_f:
00000124 00000000*  9139 	.data.w	.LDW_5f79490
00000128 00000000*  9140 	.data.w	Com_IpduGroupStop
0000012c 00000018   9141 	.data.w	__ghs_eofn_Com_IpduGroupStop-Com_IpduGroupStop
00000130 01         9142 	.data.b	1
00000131 00000000*  9143 	.data.w	.LDW92
00000135 00         9144 	.data.b	0
00000136 00         9145 	.data.b	0
00000137 00         9146 	.data.b	0
                    9147 .LDW_unq_10:
                    9148 	.section	.debug_line
0000068c 020500     9149 	.data.b	0,5,2
0000068f 00000000*  9150 	.data.w	Com_IpduGroupStop
00000693 06         9151 	.data.b	6
00000694 03         9152 	.data.b	3
00000695 00eea7     9153 	.data.b	167,238,0
00000698 02         9154 	.data.b	2
00000699 00         9155 	.data.b	0
0000069a 01         9156 	.data.b	1
0000069b 03         9157 	.data.b	3
0000069c 06         9158 	.data.b	6
0000069d 02         9159 	.data.b	2
0000069e 02         9160 	.data.b	2
0000069f 01         9161 	.data.b	1
000006a0 2d         9162 	.data.b	45
000006a1 03         9163 	.data.b	3
000006a2 11         9164 	.data.b	17
000006a3 02         9165 	.data.b	2
000006a4 00         9166 	.data.b	0
000006a5 01         9167 	.data.b	1
000006a6 03         9168 	.data.b	3
000006a7 0b         9169 	.data.b	11
000006a8 02         9170 	.data.b	2
000006a9 00         9171 	.data.b	0
000006aa 01         9172 	.data.b	1
000006ab 14         9173 	.data.b	20
000006ac 02         9174 	.data.b	2
000006ad 00         9175 	.data.b	0
000006ae 03         9176 	.data.b	3
000006af 04         9177 	.data.b	4
000006b0 02         9178 	.data.b	2
000006b1 00         9179 	.data.b	0
000006b2 01         9180 	.data.b	1
000006b3 0b         9181 	.data.b	11
000006b4 0b         9182 	.data.b	11
000006b5 33         9183 	.data.b	51
000006b6 02         9184 	.data.b	2
000006b7 00         9185 	.data.b	0
000006b8 03         9186 	.data.b	3
000006b9 05         9187 	.data.b	5
000006ba 02         9188 	.data.b	2
000006bb 00         9189 	.data.b	0
000006bc 01         9190 	.data.b	1
000006bd 02         9191 	.data.b	2
000006be 02         9192 	.data.b	2

                                                                      Page 190
                                                              C:\Users\Fengyuan\AppData\Local\Temp\gh_0000fuk1.s
000006bf 010100     9193 	.data.b	0,1,1
                    9194 	.section	.debug_info
                    9195 .LDW_60441c0:
00003d52 11         9196 	.data.b	17
00003d53 75647049   9197 	.data.b	73,112,100,117,71,114,111,117,112,73,100,0
00003d57 756f7247 
00003d5b 00644970 
00003d5f 6ea7       9198 	.data.b	167,110
00003d61 3c         9199 	.data.b	60
00003d62 01         9200 	.data.b	1
00003d63 00000000*  9201 	.data.w	.LDW_6044168
00003d67 00         9202 	.data.b	0
00003d68 5001       9203 	.data.b	1,80
                    9204 
                    9205 .LDW_6055000:
00003d6a 1f         9206 	.data.b	31
00003d6b 00000000*  9207 	.data.w	.LDW82
00003d6f 00000000*  9208 	.data.w	.LDW92
                    9209 
                    9210 .LDW_6043cf0:
00003d73 06         9211 	.data.b	6
00003d74 6f727265   9212 	.data.b	101,114,114,111,114,73,100,0
00003d78 00644972 
00003d7c 6eaa       9213 	.data.b	170,110
00003d7e 09         9214 	.data.b	9
00003d7f 01         9215 	.data.b	1
00003d80 00000000*  9216 	.data.w	.LDW_5e8ef00
00003d84 00         9217 	.data.b	0
00003d85 00         9218 	.data.b	0
00003d86 5301       9219 	.data.b	1,83
                    9220 
00003d88 00         9221 	.data.b	0
                    9222 
00003d89 00         9223 	.data.b	0
                    9224 
                    9225 .LDW_60316f0:
00003d8a 15         9226 	.data.b	21
00003d8b 5f6d6f43   9227 	.data.b	67,111,109,95,69,110,97,98,108,101,82,101,99,101,112,116,105,111,110,68,77,0
00003d8f 62616e45 
00003d93 6552656c 
00003d97 74706563 
00003d9b 446e6f69 
00003d9f 004d 
00003da1 6ee6       9228 	.data.b	230,110
00003da3 16         9229 	.data.b	22
00003da4 01         9230 	.data.b	1
00003da5 00000000*  9231 	.data.w	Com_EnableReceptionDM
00003da9 00000000*  9232 	.data.w	__ghs_eofn_Com_EnableReceptionDM
00003dad 5d01       9233 	.data.b	1,93
00003daf 018090     9234 	.data.b	144,128,1
00003db2 7c         9235 	.data.b	124
00003db3 00         9236 	.data.b	0
00003db4 04         9237 	.data.b	4
00003db5 01         9238 	.data.b	1
00003db6 00         9239 	.data.b	0
00003db7 00         9240 	.data.b	0
00003db8 01         9241 	.data.b	1
00003db9 01         9242 	.data.b	1
00003dba 00         9243 	.data.b	0
00003dbb 01         9244 	.data.b	1
                    9245 

                                                                      Page 191
                                                              C:\Users\Fengyuan\AppData\Local\Temp\gh_0000fuk1.s
                    9246 	.section	.debug_frame
                    9247 .LDW_5fb03b8:
00000138 00000000*  9248 	.data.w	.LDW_unq_12-.LDW_unq_11
                    9249 .LDW_unq_11:
0000013c 00000000*  9250 	.data.w	.LDW_5f79490
00000140 00000000*  9251 	.data.w	Com_EnableReceptionDM
00000144 00000018   9252 	.data.w	__ghs_eofn_Com_EnableReceptionDM-Com_EnableReceptionDM
00000148 01         9253 	.data.b	1
00000149 00000000*  9254 	.data.w	.LDW13
0000014d 00         9255 	.data.b	0
0000014e 00         9256 	.data.b	0
0000014f 00         9257 	.data.b	0
                    9258 .LDW_unq_12:
                    9259 	.section	.debug_line
000006c2 020500     9260 	.data.b	0,5,2
000006c5 00000000*  9261 	.data.w	Com_EnableReceptionDM
000006c9 06         9262 	.data.b	6
000006ca 03         9263 	.data.b	3
000006cb 00eee6     9264 	.data.b	230,238,0
000006ce 02         9265 	.data.b	2
000006cf 00         9266 	.data.b	0
000006d0 01         9267 	.data.b	1
000006d1 03         9268 	.data.b	3
000006d2 06         9269 	.data.b	6
000006d3 02         9270 	.data.b	2
000006d4 02         9271 	.data.b	2
000006d5 01         9272 	.data.b	1
000006d6 2d         9273 	.data.b	45
000006d7 03         9274 	.data.b	3
000006d8 11         9275 	.data.b	17
000006d9 02         9276 	.data.b	2
000006da 00         9277 	.data.b	0
000006db 01         9278 	.data.b	1
000006dc 03         9279 	.data.b	3
000006dd 0d         9280 	.data.b	13
000006de 02         9281 	.data.b	2
000006df 00         9282 	.data.b	0
000006e0 01         9283 	.data.b	1
000006e1 14         9284 	.data.b	20
000006e2 02         9285 	.data.b	2
000006e3 00         9286 	.data.b	0
000006e4 03         9287 	.data.b	3
000006e5 04         9288 	.data.b	4
000006e6 02         9289 	.data.b	2
000006e7 00         9290 	.data.b	0
000006e8 01         9291 	.data.b	1
000006e9 0b         9292 	.data.b	11
000006ea 0b         9293 	.data.b	11
000006eb 33         9294 	.data.b	51
000006ec 02         9295 	.data.b	2
000006ed 00         9296 	.data.b	0
000006ee 03         9297 	.data.b	3
000006ef 05         9298 	.data.b	5
000006f0 02         9299 	.data.b	2
000006f1 00         9300 	.data.b	0
000006f2 01         9301 	.data.b	1
000006f3 02         9302 	.data.b	2
000006f4 02         9303 	.data.b	2
000006f5 010100     9304 	.data.b	0,1,1
                    9305 	.section	.debug_info
                    9306 .LDW_6043d48:

                                                                      Page 192
                                                              C:\Users\Fengyuan\AppData\Local\Temp\gh_0000fuk1.s
00003dbc 11         9307 	.data.b	17
00003dbd 75647049   9308 	.data.b	73,112,100,117,71,114,111,117,112,73,100,0
00003dc1 756f7247 
00003dc5 00644970 
00003dc9 6ee6       9309 	.data.b	230,110
00003dcb 40         9310 	.data.b	64
00003dcc 01         9311 	.data.b	1
00003dcd 00000000*  9312 	.data.w	.LDW_6044168
00003dd1 00         9313 	.data.b	0
00003dd2 5001       9314 	.data.b	1,80
                    9315 
                    9316 .LDW_6054f40:
00003dd4 1f         9317 	.data.b	31
00003dd5 00000000*  9318 	.data.w	.LDW03
00003dd9 00000000*  9319 	.data.w	.LDW13
                    9320 
                    9321 .LDW_60442c8:
00003ddd 06         9322 	.data.b	6
00003dde 6f727265   9323 	.data.b	101,114,114,111,114,73,100,0
00003de2 00644972 
00003de6 6ee9       9324 	.data.b	233,110
00003de8 09         9325 	.data.b	9
00003de9 01         9326 	.data.b	1
00003dea 00000000*  9327 	.data.w	.LDW_5e8ef00
00003dee 00         9328 	.data.b	0
00003def 00         9329 	.data.b	0
00003df0 5301       9330 	.data.b	1,83
                    9331 
00003df2 00         9332 	.data.b	0
                    9333 
00003df3 00         9334 	.data.b	0
                    9335 
                    9336 .LDW_60315c0:
00003df4 15         9337 	.data.b	21
00003df5 5f6d6f43   9338 	.data.b	67,111,109,95,68,105,115,97,98,108,101,82,101,99,101,112,116,105,111,110,68,77,0
00003df9 61736944 
00003dfd 52656c62 
00003e01 70656365 
00003e05 6e6f6974 
00003e09 004d44 
00003e0c 6fa7       9339 	.data.b	167,111
00003e0e 16         9340 	.data.b	22
00003e0f 01         9341 	.data.b	1
00003e10 00000000*  9342 	.data.w	Com_DisableReceptionDM
00003e14 00000000*  9343 	.data.w	__ghs_eofn_Com_DisableReceptionDM
00003e18 5d01       9344 	.data.b	1,93
00003e1a 018090     9345 	.data.b	144,128,1
00003e1d 7c         9346 	.data.b	124
00003e1e 00         9347 	.data.b	0
00003e1f 04         9348 	.data.b	4
00003e20 01         9349 	.data.b	1
00003e21 00         9350 	.data.b	0
00003e22 00         9351 	.data.b	0
00003e23 01         9352 	.data.b	1
00003e24 01         9353 	.data.b	1
00003e25 00         9354 	.data.b	0
00003e26 01         9355 	.data.b	1
                    9356 
                    9357 	.section	.debug_frame
                    9358 .LDW_5fb0778:
00000150 00000000*  9359 	.data.w	.LDW_unq_14-.LDW_unq_13

                                                                      Page 193
                                                              C:\Users\Fengyuan\AppData\Local\Temp\gh_0000fuk1.s
                    9360 .LDW_unq_13:
00000154 00000000*  9361 	.data.w	.LDW_5f79490
00000158 00000000*  9362 	.data.w	Com_DisableReceptionDM
0000015c 00000018   9363 	.data.w	__ghs_eofn_Com_DisableReceptionDM-Com_DisableReceptionDM
00000160 01         9364 	.data.b	1
00000161 00000000*  9365 	.data.w	.LDW33
00000165 00         9366 	.data.b	0
00000166 00         9367 	.data.b	0
00000167 00         9368 	.data.b	0
                    9369 .LDW_unq_14:
                    9370 	.section	.debug_line
000006f8 020500     9371 	.data.b	0,5,2
000006fb 00000000*  9372 	.data.w	Com_DisableReceptionDM
000006ff 06         9373 	.data.b	6
00000700 03         9374 	.data.b	3
00000701 00efa7     9375 	.data.b	167,239,0
00000704 02         9376 	.data.b	2
00000705 00         9377 	.data.b	0
00000706 01         9378 	.data.b	1
00000707 03         9379 	.data.b	3
00000708 06         9380 	.data.b	6
00000709 02         9381 	.data.b	2
0000070a 02         9382 	.data.b	2
0000070b 01         9383 	.data.b	1
0000070c 2d         9384 	.data.b	45
0000070d 03         9385 	.data.b	3
0000070e 11         9386 	.data.b	17
0000070f 02         9387 	.data.b	2
00000710 00         9388 	.data.b	0
00000711 01         9389 	.data.b	1
00000712 03         9390 	.data.b	3
00000713 0d         9391 	.data.b	13
00000714 02         9392 	.data.b	2
00000715 00         9393 	.data.b	0
00000716 01         9394 	.data.b	1
00000717 14         9395 	.data.b	20
00000718 02         9396 	.data.b	2
00000719 00         9397 	.data.b	0
0000071a 03         9398 	.data.b	3
0000071b 04         9399 	.data.b	4
0000071c 02         9400 	.data.b	2
0000071d 00         9401 	.data.b	0
0000071e 01         9402 	.data.b	1
0000071f 0b         9403 	.data.b	11
00000720 0b         9404 	.data.b	11
00000721 33         9405 	.data.b	51
00000722 02         9406 	.data.b	2
00000723 00         9407 	.data.b	0
00000724 03         9408 	.data.b	3
00000725 05         9409 	.data.b	5
00000726 02         9410 	.data.b	2
00000727 00         9411 	.data.b	0
00000728 01         9412 	.data.b	1
00000729 02         9413 	.data.b	2
0000072a 02         9414 	.data.b	2
0000072b 010100     9415 	.data.b	0,1,1
                    9416 	.section	.debug_info
                    9417 .LDW_6043da0:
00003e27 11         9418 	.data.b	17
00003e28 75647049   9419 	.data.b	73,112,100,117,71,114,111,117,112,73,100,0
00003e2c 756f7247 

                                                                      Page 194
                                                              C:\Users\Fengyuan\AppData\Local\Temp\gh_0000fuk1.s
00003e30 00644970 
00003e34 6fa7       9420 	.data.b	167,111
00003e36 41         9421 	.data.b	65
00003e37 01         9422 	.data.b	1
00003e38 00000000*  9423 	.data.w	.LDW_6044168
00003e3c 00         9424 	.data.b	0
00003e3d 5001       9425 	.data.b	1,80
                    9426 
                    9427 .LDW_6054df0:
00003e3f 1f         9428 	.data.b	31
00003e40 00000000*  9429 	.data.w	.LDW23
00003e44 00000000*  9430 	.data.w	.LDW33
                    9431 
                    9432 .LDW_6043ea8:
00003e48 06         9433 	.data.b	6
00003e49 6f727265   9434 	.data.b	101,114,114,111,114,73,100,0
00003e4d 00644972 
00003e51 6faa       9435 	.data.b	170,111
00003e53 09         9436 	.data.b	9
00003e54 01         9437 	.data.b	1
00003e55 00000000*  9438 	.data.w	.LDW_5e8ef00
00003e59 00         9439 	.data.b	0
00003e5a 00         9440 	.data.b	0
00003e5b 5301       9441 	.data.b	1,83
                    9442 
00003e5d 00         9443 	.data.b	0
                    9444 
00003e5e 00         9445 	.data.b	0
                    9446 
                    9447 .LDW_6031bb0:
00003e5f 15         9448 	.data.b	21
00003e60 5f6d6f43   9449 	.data.b	67,111,109,95,77,97,105,110,70,117,110,99,116,105,111,110,82,120,0
00003e64 6e69614d 
00003e68 636e7546 
00003e6c 6e6f6974 
00003e70 007852 
00003e73 6fe9       9450 	.data.b	233,111
00003e75 16         9451 	.data.b	22
00003e76 01         9452 	.data.b	1
00003e77 00000000*  9453 	.data.w	Com_MainFunctionRx
00003e7b 00000000*  9454 	.data.w	__ghs_eofn_Com_MainFunctionRx
00003e7f 5d01       9455 	.data.b	1,93
00003e81 0180f0     9456 	.data.b	240,128,1
00003e84 74         9457 	.data.b	116
00003e85 00         9458 	.data.b	0
00003e86 10         9459 	.data.b	16
00003e87 01         9460 	.data.b	1
00003e88 00         9461 	.data.b	0
00003e89 00         9462 	.data.b	0
00003e8a 01         9463 	.data.b	1
00003e8b 01         9464 	.data.b	1
00003e8c 00         9465 	.data.b	0
00003e8d 01         9466 	.data.b	1
                    9467 
                    9468 	.section	.debug_frame
                    9469 .LDW_5e2c0c8:
00000168 00000000*  9470 	.data.w	.LDW_unq_16-.LDW_unq_15
                    9471 .LDW_unq_15:
0000016c 00000000*  9472 	.data.w	.LDW_5f79490
00000170 00000000*  9473 	.data.w	Com_MainFunctionRx
00000174 00000082   9474 	.data.w	__ghs_eofn_Com_MainFunctionRx-Com_MainFunctionRx

                                                                      Page 195
                                                              C:\Users\Fengyuan\AppData\Local\Temp\gh_0000fuk1.s
00000178 01         9475 	.data.b	1
00000179 00000000*  9476 	.data.w	.LDW53
0000017d 00         9477 	.data.b	0
0000017e 00         9478 	.data.b	0
0000017f 00         9479 	.data.b	0
                    9480 .LDW_unq_16:
                    9481 	.section	.debug_line
0000072e 020500     9482 	.data.b	0,5,2
00000731 00000000*  9483 	.data.w	Com_MainFunctionRx
00000735 06         9484 	.data.b	6
00000736 03         9485 	.data.b	3
00000737 00efe9     9486 	.data.b	233,239,0
0000073a 02         9487 	.data.b	2
0000073b 00         9488 	.data.b	0
0000073c 01         9489 	.data.b	1
0000073d 1d         9490 	.data.b	29
0000073e 23         9491 	.data.b	35
0000073f 03         9492 	.data.b	3
00000740 04         9493 	.data.b	4
00000741 02         9494 	.data.b	2
00000742 00         9495 	.data.b	0
00000743 01         9496 	.data.b	1
00000744 020500     9497 	.data.b	0,5,2
00000747 00000000*  9498 	.data.w	.LDWlin12
0000074b 03         9499 	.data.b	3
0000074c 11         9500 	.data.b	17
0000074d 02         9501 	.data.b	2
0000074e 00         9502 	.data.b	0
0000074f 01         9503 	.data.b	1
00000750 02         9504 	.data.b	2
00000751 00         9505 	.data.b	0
00000752 0c         9506 	.data.b	12
00000753 02         9507 	.data.b	2
00000754 04         9508 	.data.b	4
00000755 010100     9509 	.data.b	0,1,1
                    9510 	.section	.debug_info
                    9511 .LDW_6054b20:
00003e8e 1f         9512 	.data.b	31
00003e8f 00000000*  9513 	.data.w	.LDW43
00003e93 00000000*  9514 	.data.w	.LDW53
                    9515 
00003e97 00         9516 	.data.b	0
                    9517 
00003e98 00         9518 	.data.b	0
                    9519 
                    9520 .LDW_6032070:
00003e99 15         9521 	.data.b	21
00003e9a 5f6d6f43   9522 	.data.b	67,111,109,95,77,97,105,110,70,117,110,99,116,105,111,110,84,120,0
00003e9e 6e69614d 
00003ea2 636e7546 
00003ea6 6e6f6974 
00003eaa 007854 
00003ead 7095       9523 	.data.b	149,112
00003eaf 16         9524 	.data.b	22
00003eb0 01         9525 	.data.b	1
00003eb1 00000000*  9526 	.data.w	Com_MainFunctionTx
00003eb5 00000000*  9527 	.data.w	__ghs_eofn_Com_MainFunctionTx
00003eb9 5d01       9528 	.data.b	1,93
00003ebb 0181f0     9529 	.data.b	240,129,1
00003ebe 70         9530 	.data.b	112
00003ebf 00         9531 	.data.b	0

                                                                      Page 196
                                                              C:\Users\Fengyuan\AppData\Local\Temp\gh_0000fuk1.s
00003ec0 10         9532 	.data.b	16
00003ec1 01         9533 	.data.b	1
00003ec2 00         9534 	.data.b	0
00003ec3 00         9535 	.data.b	0
00003ec4 01         9536 	.data.b	1
00003ec5 01         9537 	.data.b	1
00003ec6 00         9538 	.data.b	0
00003ec7 01         9539 	.data.b	1
                    9540 
                    9541 	.section	.debug_frame
                    9542 .LDW_5e2ce48:
00000180 00000000*  9543 	.data.w	.LDW_unq_18-.LDW_unq_17
                    9544 .LDW_unq_17:
00000184 00000000*  9545 	.data.w	.LDW_5f79490
00000188 00000000*  9546 	.data.w	Com_MainFunctionTx
0000018c 0000009e   9547 	.data.w	__ghs_eofn_Com_MainFunctionTx-Com_MainFunctionTx
00000190 01         9548 	.data.b	1
00000191 00000000*  9549 	.data.w	.LDW73
00000195 00         9550 	.data.b	0
00000196 00         9551 	.data.b	0
00000197 00         9552 	.data.b	0
                    9553 .LDW_unq_18:
                    9554 	.section	.debug_line
00000758 020500     9555 	.data.b	0,5,2
0000075b 00000000*  9556 	.data.w	Com_MainFunctionTx
0000075f 06         9557 	.data.b	6
00000760 03         9558 	.data.b	3
00000761 00f095     9559 	.data.b	149,240,0
00000764 02         9560 	.data.b	2
00000765 00         9561 	.data.b	0
00000766 01         9562 	.data.b	1
00000767 15         9563 	.data.b	21
00000768 020500     9564 	.data.b	0,5,2
0000076b 00000000*  9565 	.data.w	.LDWlin13
0000076f 0b         9566 	.data.b	11
00000770 03         9567 	.data.b	3
00000771 0d         9568 	.data.b	13
00000772 02         9569 	.data.b	2
00000773 00         9570 	.data.b	0
00000774 01         9571 	.data.b	1
00000775 020500     9572 	.data.b	0,5,2
00000778 00000000*  9573 	.data.w	.LDWlin14
0000077c 03         9574 	.data.b	3
0000077d 1b         9575 	.data.b	27
0000077e 02         9576 	.data.b	2
0000077f 00         9577 	.data.b	0
00000780 01         9578 	.data.b	1
00000781 020500     9579 	.data.b	0,5,2
00000784 00000000*  9580 	.data.w	.LDWlin15
00000788 03         9581 	.data.b	3
00000789 06         9582 	.data.b	6
0000078a 02         9583 	.data.b	2
0000078b 00         9584 	.data.b	0
0000078c 01         9585 	.data.b	1
0000078d 02         9586 	.data.b	2
0000078e 00         9587 	.data.b	0
0000078f 0c         9588 	.data.b	12
00000790 02         9589 	.data.b	2
00000791 02         9590 	.data.b	2
00000792 010100     9591 	.data.b	0,1,1
                    9592 	.section	.debug_info

                                                                      Page 197
                                                              C:\Users\Fengyuan\AppData\Local\Temp\gh_0000fuk1.s
                    9593 .LDW_6054b80:
00003ec8 1f         9594 	.data.b	31
00003ec9 00000000*  9595 	.data.w	.LDW63
00003ecd 00000000*  9596 	.data.w	.LDW73
                    9597 
00003ed1 00         9598 	.data.b	0
                    9599 
00003ed2 00         9600 	.data.b	0
                    9601 
                    9602 .LDW_6031658:
00003ed3 16         9603 	.data.b	22
00003ed4 5f6d6f43   9604 	.data.b	67,111,109,95,71,101,116,67,111,110,102,105,103,117,114,97,116,105,111,110,73,100,0
00003ed8 43746547 
00003edc 69666e6f 
00003ee0 61727567 
00003ee4 6e6f6974 
00003ee8 006449 
00003eeb 70d4       9605 	.data.b	212,112
00003eed 18         9606 	.data.b	24
00003eee 01         9607 	.data.b	1
00003eef 00000000*  9608 	.data.w	.LDW_5ef2b10
00003ef3 00000000*  9609 	.data.w	Com_GetConfigurationId
00003ef7 00000000*  9610 	.data.w	__ghs_eofn_Com_GetConfigurationId
00003efb 5d01       9611 	.data.b	1,93
00003efd 018090     9612 	.data.b	144,128,1
00003f00 7c         9613 	.data.b	124
00003f01 00         9614 	.data.b	0
00003f02 04         9615 	.data.b	4
00003f03 01         9616 	.data.b	1
00003f04 00         9617 	.data.b	0
00003f05 00         9618 	.data.b	0
00003f06 01         9619 	.data.b	1
00003f07 01         9620 	.data.b	1
00003f08 00         9621 	.data.b	0
00003f09 01         9622 	.data.b	1
                    9623 
                    9624 	.section	.debug_abbrev
00000195 16         9625 	.data.b	22
00000196 2e         9626 	.data.b	46
00000197 01         9627 	.data.b	1
00000198 0803       9628 	.data.b	3,8
0000019a 0f3b       9629 	.data.b	59,15
0000019c 0f39       9630 	.data.b	57,15
0000019e 0f3a       9631 	.data.b	58,15
000001a0 1049       9632 	.data.b	73,16
000001a2 0111       9633 	.data.b	17,1
000001a4 0112       9634 	.data.b	18,1
000001a6 0a40       9635 	.data.b	64,10
000001a8 4183       9636 	.data.b	131,65
000001aa 0f         9637 	.data.b	15
000001ab 4187       9638 	.data.b	135,65
000001ad 0d         9639 	.data.b	13
000001ae 4185       9640 	.data.b	133,65
000001b0 0f         9641 	.data.b	15
000001b1 4186       9642 	.data.b	134,65
000001b3 0d         9643 	.data.b	13
000001b4 4192       9644 	.data.b	146,65
000001b6 0f         9645 	.data.b	15
000001b7 0c3c       9646 	.data.b	60,12
000001b9 0b20       9647 	.data.b	32,11
000001bb 0c3f       9648 	.data.b	63,12

                                                                      Page 198
                                                              C:\Users\Fengyuan\AppData\Local\Temp\gh_0000fuk1.s
000001bd 0b32       9649 	.data.b	50,11
000001bf 0b4c       9650 	.data.b	76,11
000001c1 0c27       9651 	.data.b	39,12
000001c3 0000       9652 	.data.b	0,0
                    9653 
                    9654 	.section	.debug_frame
                    9655 .LDW_5e2ce08:
00000198 00000000*  9656 	.data.w	.LDW_unq_1a-.LDW_unq_19
                    9657 .LDW_unq_19:
0000019c 00000000*  9658 	.data.w	.LDW_5f79490
000001a0 00000000*  9659 	.data.w	Com_GetConfigurationId
000001a4 00000018   9660 	.data.w	__ghs_eofn_Com_GetConfigurationId-Com_GetConfigurationId
000001a8 01         9661 	.data.b	1
000001a9 00000000*  9662 	.data.w	.LDW93
000001ad 00         9663 	.data.b	0
000001ae 00         9664 	.data.b	0
000001af 00         9665 	.data.b	0
                    9666 .LDW_unq_1a:
                    9667 	.section	.debug_line
00000795 020500     9668 	.data.b	0,5,2
00000798 00000000*  9669 	.data.w	Com_GetConfigurationId
0000079c 06         9670 	.data.b	6
0000079d 03         9671 	.data.b	3
0000079e 00f0d4     9672 	.data.b	212,240,0
000007a1 02         9673 	.data.b	2
000007a2 00         9674 	.data.b	0
000007a3 01         9675 	.data.b	1
000007a4 03         9676 	.data.b	3
000007a5 07         9677 	.data.b	7
000007a6 02         9678 	.data.b	2
000007a7 02         9679 	.data.b	2
000007a8 01         9680 	.data.b	1
000007a9 23         9681 	.data.b	35
000007aa 03         9682 	.data.b	3
000007ab 09         9683 	.data.b	9
000007ac 02         9684 	.data.b	2
000007ad 00         9685 	.data.b	0
000007ae 01         9686 	.data.b	1
000007af 02         9687 	.data.b	2
000007b0 00         9688 	.data.b	0
000007b1 03         9689 	.data.b	3
000007b2 04         9690 	.data.b	4
000007b3 02         9691 	.data.b	2
000007b4 00         9692 	.data.b	0
000007b5 01         9693 	.data.b	1
000007b6 06         9694 	.data.b	6
000007b7 03         9695 	.data.b	3
000007b8 75         9696 	.data.b	117
000007b9 02         9697 	.data.b	2
000007ba 00         9698 	.data.b	0
000007bb 01         9699 	.data.b	1
000007bc 03         9700 	.data.b	3
000007bd 06         9701 	.data.b	6
000007be 02         9702 	.data.b	2
000007bf 00         9703 	.data.b	0
000007c0 01         9704 	.data.b	1
000007c1 06         9705 	.data.b	6
000007c2 03         9706 	.data.b	3
000007c3 06         9707 	.data.b	6
000007c4 02         9708 	.data.b	2
000007c5 00         9709 	.data.b	0

                                                                      Page 199
                                                              C:\Users\Fengyuan\AppData\Local\Temp\gh_0000fuk1.s
000007c6 01         9710 	.data.b	1
000007c7 0b         9711 	.data.b	11
000007c8 3b         9712 	.data.b	59
000007c9 02         9713 	.data.b	2
000007ca 00         9714 	.data.b	0
000007cb 03         9715 	.data.b	3
000007cc 05         9716 	.data.b	5
000007cd 02         9717 	.data.b	2
000007ce 00         9718 	.data.b	0
000007cf 01         9719 	.data.b	1
000007d0 06         9720 	.data.b	6
000007d1 02         9721 	.data.b	2
000007d2 02         9722 	.data.b	2
000007d3 02         9723 	.data.b	2
000007d4 02         9724 	.data.b	2
000007d5 010100     9725 	.data.b	0,1,1
                    9726 	.section	.debug_info
                    9727 .LDW_6054e50:
00003f0a 1f         9728 	.data.b	31
00003f0b 00000000*  9729 	.data.w	.LDW83
00003f0f 00000000*  9730 	.data.w	.LDW93
                    9731 
                    9732 .LDW_6044950:
00003f13 07         9733 	.data.b	7
00003f14 56746572   9734 	.data.b	114,101,116,86,97,108,0
00003f18 006c61 
00003f1b 70d7       9735 	.data.b	215,112
00003f1d 0a         9736 	.data.b	10
00003f1e 01         9737 	.data.b	1
00003f1f 00000000*  9738 	.data.w	.LDW_5ef2b10
00003f23 00         9739 	.data.b	0
00003f24 00         9740 	.data.b	0
                    9741 
                    9742 .LDW_60449a8:
00003f25 07         9743 	.data.b	7
00003f26 6f727265   9744 	.data.b	101,114,114,111,114,73,100,0
00003f2a 00644972 
00003f2e 70d8       9745 	.data.b	216,112
00003f30 09         9746 	.data.b	9
00003f31 01         9747 	.data.b	1
00003f32 00000000*  9748 	.data.w	.LDW_5e8ef00
00003f36 00         9749 	.data.b	0
00003f37 00         9750 	.data.b	0
                    9751 
00003f38 00         9752 	.data.b	0
                    9753 
00003f39 00         9754 	.data.b	0
                    9755 
                    9756 .LDW_6032108:
00003f3a 16         9757 	.data.b	22
00003f3b 5f6d6f43   9758 	.data.b	67,111,109,95,71,101,116,83,116,97,116,117,115,0
00003f3f 53746547 
00003f43 75746174 
00003f47 0073 
00003f49 70fc       9759 	.data.b	252,112
00003f4b 20         9760 	.data.b	32
00003f4c 01         9761 	.data.b	1
00003f4d 00000000*  9762 	.data.w	.LDW_60445e0
00003f51 00000000*  9763 	.data.w	Com_GetStatus
00003f55 00000000*  9764 	.data.w	__ghs_eofn_Com_GetStatus
00003f59 5d01       9765 	.data.b	1,93

                                                                      Page 200
                                                              C:\Users\Fengyuan\AppData\Local\Temp\gh_0000fuk1.s
00003f5b 00         9766 	.data.b	0
00003f5c 04         9767 	.data.b	4
00003f5d 00         9768 	.data.b	0
00003f5e 7c         9769 	.data.b	124
00003f5f 01         9770 	.data.b	1
00003f60 00         9771 	.data.b	0
00003f61 00         9772 	.data.b	0
00003f62 01         9773 	.data.b	1
00003f63 01         9774 	.data.b	1
00003f64 00         9775 	.data.b	0
00003f65 01         9776 	.data.b	1
                    9777 
                    9778 	.section	.debug_frame
                    9779 .LDW_5e2c988:
000001b0 00000000*  9780 	.data.w	.LDW_unq_1c-.LDW_unq_1b
                    9781 .LDW_unq_1b:
000001b4 00000000*  9782 	.data.w	.LDW_5f79490
000001b8 00000000*  9783 	.data.w	Com_GetStatus
000001bc 0000000c   9784 	.data.w	__ghs_eofn_Com_GetStatus-Com_GetStatus
000001c0 01         9785 	.data.b	1
000001c1 00000000*  9786 	.data.w	.LDW14
000001c5 00         9787 	.data.b	0
000001c6 00         9788 	.data.b	0
000001c7 00         9789 	.data.b	0
                    9790 .LDW_unq_1c:
                    9791 	.section	.debug_line
000007d8 020500     9792 	.data.b	0,5,2
000007db 00000000*  9793 	.data.w	Com_GetStatus
000007df 06         9794 	.data.b	6
000007e0 03         9795 	.data.b	3
000007e1 00f0fe     9796 	.data.b	254,240,0
000007e4 02         9797 	.data.b	2
000007e5 00         9798 	.data.b	0
000007e6 01         9799 	.data.b	1
000007e7 06         9800 	.data.b	6
000007e8 02         9801 	.data.b	2
000007e9 0a         9802 	.data.b	10
000007ea 02         9803 	.data.b	2
000007eb 02         9804 	.data.b	2
000007ec 010100     9805 	.data.b	0,1,1
                    9806 	.section	.debug_info
                    9807 .LDW_6054e20:
00003f66 1f         9808 	.data.b	31
00003f67 00000000*  9809 	.data.w	.LDW04
00003f6b 00000000*  9810 	.data.w	.LDW14
                    9811 
00003f6f 00         9812 	.data.b	0
                    9813 
00003f70 00         9814 	.data.b	0
                    9815 
                    9816 .LDW_60318b8:
00003f71 15         9817 	.data.b	21
00003f72 5f6d6f43   9818 	.data.b	67,111,109,95,84,114,105,103,103,101,114,73,80,68,85,83,101,110,100,0
00003f76 67697254 
00003f7a 49726567 
00003f7e 53554450 
00003f82 00646e65 
00003f86 71b7       9819 	.data.b	183,113
00003f88 16         9820 	.data.b	22
00003f89 01         9821 	.data.b	1
00003f8a 00000000*  9822 	.data.w	Com_TriggerIPDUSend

                                                                      Page 201
                                                              C:\Users\Fengyuan\AppData\Local\Temp\gh_0000fuk1.s
00003f8e 00000000*  9823 	.data.w	__ghs_eofn_Com_TriggerIPDUSend
00003f92 5d01       9824 	.data.b	1,93
00003f94 018090     9825 	.data.b	144,128,1
00003f97 7c         9826 	.data.b	124
00003f98 00         9827 	.data.b	0
00003f99 04         9828 	.data.b	4
00003f9a 01         9829 	.data.b	1
00003f9b 00         9830 	.data.b	0
00003f9c 00         9831 	.data.b	0
00003f9d 01         9832 	.data.b	1
00003f9e 01         9833 	.data.b	1
00003f9f 00         9834 	.data.b	0
00003fa0 01         9835 	.data.b	1
                    9836 
                    9837 	.section	.debug_frame
                    9838 .LDW_5e2cdc8:
000001c8 00000000*  9839 	.data.w	.LDW_unq_1e-.LDW_unq_1d
                    9840 .LDW_unq_1d:
000001cc 00000000*  9841 	.data.w	.LDW_5f79490
000001d0 00000000*  9842 	.data.w	Com_TriggerIPDUSend
000001d4 00000028   9843 	.data.w	__ghs_eofn_Com_TriggerIPDUSend-Com_TriggerIPDUSend
000001d8 01         9844 	.data.b	1
000001d9 00000000*  9845 	.data.w	.LDW34
000001dd 00         9846 	.data.b	0
000001de 00         9847 	.data.b	0
000001df 00         9848 	.data.b	0
                    9849 .LDW_unq_1e:
                    9850 	.section	.debug_line
000007ef 020500     9851 	.data.b	0,5,2
000007f2 00000000*  9852 	.data.w	Com_TriggerIPDUSend
000007f6 06         9853 	.data.b	6
000007f7 03         9854 	.data.b	3
000007f8 00f1b7     9855 	.data.b	183,241,0
000007fb 02         9856 	.data.b	2
000007fc 00         9857 	.data.b	0
000007fd 01         9858 	.data.b	1
000007fe 03         9859 	.data.b	3
000007ff 06         9860 	.data.b	6
00000800 02         9861 	.data.b	2
00000801 02         9862 	.data.b	2
00000802 01         9863 	.data.b	1
00000803 2b         9864 	.data.b	43
00000804 0c         9865 	.data.b	12
00000805 03         9866 	.data.b	3
00000806 04         9867 	.data.b	4
00000807 02         9868 	.data.b	2
00000808 00         9869 	.data.b	0
00000809 01         9870 	.data.b	1
0000080a 02         9871 	.data.b	2
0000080b 00         9872 	.data.b	0
0000080c 020500     9873 	.data.b	0,5,2
0000080f 00000000*  9874 	.data.w	.LDWlin16
00000813 0b         9875 	.data.b	11
00000814 0c         9876 	.data.b	12
00000815 03         9877 	.data.b	3
00000816 0a         9878 	.data.b	10
00000817 02         9879 	.data.b	2
00000818 00         9880 	.data.b	0
00000819 01         9881 	.data.b	1
0000081a 03         9882 	.data.b	3
0000081b 04         9883 	.data.b	4

                                                                      Page 202
                                                              C:\Users\Fengyuan\AppData\Local\Temp\gh_0000fuk1.s
0000081c 02         9884 	.data.b	2
0000081d 00         9885 	.data.b	0
0000081e 01         9886 	.data.b	1
0000081f 020500     9887 	.data.b	0,5,2
00000822 00000000*  9888 	.data.w	.LDWlin17
00000826 03         9889 	.data.b	3
00000827 04         9890 	.data.b	4
00000828 02         9891 	.data.b	2
00000829 00         9892 	.data.b	0
0000082a 01         9893 	.data.b	1
0000082b 02         9894 	.data.b	2
0000082c 00         9895 	.data.b	0
0000082d 02         9896 	.data.b	2
0000082e 00         9897 	.data.b	0
0000082f 02         9898 	.data.b	2
00000830 00         9899 	.data.b	0
00000831 03         9900 	.data.b	3
00000832 04         9901 	.data.b	4
00000833 02         9902 	.data.b	2
00000834 00         9903 	.data.b	0
00000835 01         9904 	.data.b	1
00000836 0b         9905 	.data.b	11
00000837 0b         9906 	.data.b	11
00000838 33         9907 	.data.b	51
00000839 02         9908 	.data.b	2
0000083a 00         9909 	.data.b	0
0000083b 03         9910 	.data.b	3
0000083c 05         9911 	.data.b	5
0000083d 02         9912 	.data.b	2
0000083e 00         9913 	.data.b	0
0000083f 01         9914 	.data.b	1
00000840 02         9915 	.data.b	2
00000841 02         9916 	.data.b	2
00000842 010100     9917 	.data.b	0,1,1
                    9918 	.section	.debug_info
                    9919 .LDW_6044a00:
00003fa1 11         9920 	.data.b	17
00003fa2 49756450   9921 	.data.b	80,100,117,73,100,0
00003fa6 0064 
00003fa8 71b7       9922 	.data.b	183,113
00003faa 34         9923 	.data.b	52
00003fab 01         9924 	.data.b	1
00003fac 00000000*  9925 	.data.w	.LDW_5e8ef58
00003fb0 00         9926 	.data.b	0
00003fb1 5001       9927 	.data.b	1,80
                    9928 
                    9929 .LDW_6054be0:
00003fb3 1f         9930 	.data.b	31
00003fb4 00000000*  9931 	.data.w	.LDW24
00003fb8 00000000*  9932 	.data.w	.LDW34
                    9933 
                    9934 .LDW_6044638:
00003fbc 06         9935 	.data.b	6
00003fbd 6f727265   9936 	.data.b	101,114,114,111,114,73,100,0
00003fc1 00644972 
00003fc5 71ba       9937 	.data.b	186,113
00003fc7 09         9938 	.data.b	9
00003fc8 01         9939 	.data.b	1
00003fc9 00000000*  9940 	.data.w	.LDW_5e8ef00
00003fcd 00         9941 	.data.b	0
00003fce 00         9942 	.data.b	0

                                                                      Page 203
                                                              C:\Users\Fengyuan\AppData\Local\Temp\gh_0000fuk1.s
00003fcf 5301       9943 	.data.b	1,83
                    9944 
00003fd1 00         9945 	.data.b	0
                    9946 
00003fd2 00         9947 	.data.b	0
                    9948 
                    9949 .LDW_6031b18:
00003fd3 15         9950 	.data.b	21
00003fd4 5f6d6f43   9951 	.data.b	67,111,109,95,67,108,101,97,114,73,112,100,117,71,114,111,117,112,86,101,99,116,111,114,0
00003fd8 61656c43 
00003fdc 64704972 
00003fe0 6f724775 
00003fe4 65567075 
00003fe8 726f7463 
00003fec 00 
00003fed 72ba       9952 	.data.b	186,114
00003fef 16         9953 	.data.b	22
00003ff0 01         9954 	.data.b	1
00003ff1 00000000*  9955 	.data.w	Com_ClearIpduGroupVector
00003ff5 00000000*  9956 	.data.w	__ghs_eofn_Com_ClearIpduGroupVector
00003ff9 5d01       9957 	.data.b	1,93
00003ffb 00         9958 	.data.b	0
00003ffc 04         9959 	.data.b	4
00003ffd 00         9960 	.data.b	0
00003ffe 7c         9961 	.data.b	124
00003fff 01         9962 	.data.b	1
00004000 00         9963 	.data.b	0
00004001 00         9964 	.data.b	0
00004002 01         9965 	.data.b	1
00004003 01         9966 	.data.b	1
00004004 00         9967 	.data.b	0
00004005 01         9968 	.data.b	1
                    9969 
                    9970 	.section	.debug_frame
                    9971 .LDW_5e2ca88:
000001e0 00000000*  9972 	.data.w	.LDW_unq_20-.LDW_unq_1f
                    9973 .LDW_unq_1f:
000001e4 00000000*  9974 	.data.w	.LDW_5f79490
000001e8 00000000*  9975 	.data.w	Com_ClearIpduGroupVector
000001ec 00000008   9976 	.data.w	__ghs_eofn_Com_ClearIpduGroupVector-Com_ClearIpduGroupVector
000001f0 01         9977 	.data.b	1
000001f1 00000000*  9978 	.data.w	.LDW54
000001f5 00         9979 	.data.b	0
000001f6 00         9980 	.data.b	0
000001f7 00         9981 	.data.b	0
                    9982 .LDW_unq_20:
                    9983 	.section	.debug_line
00000845 020500     9984 	.data.b	0,5,2
00000848 00000000*  9985 	.data.w	Com_ClearIpduGroupVector
0000084c 06         9986 	.data.b	6
0000084d 03         9987 	.data.b	3
0000084e 00f2bb     9988 	.data.b	187,242,0
00000851 02         9989 	.data.b	2
00000852 00         9990 	.data.b	0
00000853 01         9991 	.data.b	1
00000854 02         9992 	.data.b	2
00000855 08         9993 	.data.b	8
00000856 010100     9994 	.data.b	0,1,1
                    9995 	.section	.debug_info
                    9996 .LDW_60446e8:
00004006 11         9997 	.data.b	17

                                                                      Page 204
                                                              C:\Users\Fengyuan\AppData\Local\Temp\gh_0000fuk1.s
00004007 75647069   9998 	.data.b	105,112,100,117,71,114,111,117,112,86,101,99,116,111,114,0
0000400b 756f7247 
0000400f 63655670 
00004013 00726f74 
00004017 72ba       9999 	.data.b	186,114
00004019 43        10000 	.data.b	67
0000401a 01        10001 	.data.b	1
0000401b 00000000* 10002 	.data.w	.LDW_49cd610
0000401f 00        10003 	.data.b	0
00004020 5001      10004 	.data.b	1,80
                   10005 
                   10006 .LDW_6054e80:
00004022 1f        10007 	.data.b	31
00004023 00000000* 10008 	.data.w	.LDW44
00004027 00000000* 10009 	.data.w	.LDW54
                   10010 
0000402b 00        10011 	.data.b	0
                   10012 
0000402c 00        10013 	.data.b	0
                   10014 
                   10015 .LDW_60321a0:
0000402d 15        10016 	.data.b	21
0000402e 5f6d6f43  10017 	.data.b	67,111,109,95,83,101,116,73,112,100,117,71,114,111,117,112,0
00004032 49746553 
00004036 47756470 
0000403a 70756f72 
0000403e 00 
0000403f 72cb      10018 	.data.b	203,114
00004041 16        10019 	.data.b	22
00004042 01        10020 	.data.b	1
00004043 00000000* 10021 	.data.w	Com_SetIpduGroup
00004047 00000000* 10022 	.data.w	__ghs_eofn_Com_SetIpduGroup
0000404b 5d01      10023 	.data.b	1,93
0000404d 0180b0    10024 	.data.b	176,128,1
00004050 78        10025 	.data.b	120
00004051 00        10026 	.data.b	0
00004052 08        10027 	.data.b	8
00004053 01        10028 	.data.b	1
00004054 00        10029 	.data.b	0
00004055 00        10030 	.data.b	0
00004056 01        10031 	.data.b	1
00004057 01        10032 	.data.b	1
00004058 00        10033 	.data.b	0
00004059 01        10034 	.data.b	1
                   10035 
                   10036 	.section	.debug_frame
                   10037 .LDW_5e2d008:
000001f8 00000000* 10038 	.data.w	.LDW_unq_22-.LDW_unq_21
                   10039 .LDW_unq_21:
000001fc 00000000* 10040 	.data.w	.LDW_5f79490
00000200 00000000* 10041 	.data.w	Com_SetIpduGroup
00000204 0000003a  10042 	.data.w	__ghs_eofn_Com_SetIpduGroup-Com_SetIpduGroup
00000208 01        10043 	.data.b	1
00000209 00000000* 10044 	.data.w	.LDW74
0000020d 00        10045 	.data.b	0
0000020e 00        10046 	.data.b	0
0000020f 00        10047 	.data.b	0
                   10048 .LDW_unq_22:
                   10049 	.section	.debug_line
00000859 020500    10050 	.data.b	0,5,2
0000085c 00000000* 10051 	.data.w	Com_SetIpduGroup

                                                                      Page 205
                                                              C:\Users\Fengyuan\AppData\Local\Temp\gh_0000fuk1.s
00000860 06        10052 	.data.b	6
00000861 03        10053 	.data.b	3
00000862 00f2cb    10054 	.data.b	203,242,0
00000865 02        10055 	.data.b	2
00000866 00        10056 	.data.b	0
00000867 01        10057 	.data.b	1
00000868 03        10058 	.data.b	3
00000869 08        10059 	.data.b	8
0000086a 02        10060 	.data.b	2
0000086b 02        10061 	.data.b	2
0000086c 01        10062 	.data.b	1
0000086d 2b        10063 	.data.b	43
0000086e 0c        10064 	.data.b	12
0000086f 0d        10065 	.data.b	13
00000870 02        10066 	.data.b	2
00000871 00        10067 	.data.b	0
00000872 020500    10068 	.data.b	0,5,2
00000875 00000000* 10069 	.data.w	.LDWlin18
00000879 0b        10070 	.data.b	11
0000087a 0c        10071 	.data.b	12
0000087b 0d        10072 	.data.b	13
0000087c 0c        10073 	.data.b	12
0000087d 06        10074 	.data.b	6
0000087e 03        10075 	.data.b	3
0000087f 08        10076 	.data.b	8
00000880 02        10077 	.data.b	2
00000881 00        10078 	.data.b	0
00000882 01        10079 	.data.b	1
00000883 03        10080 	.data.b	3
00000884 7a        10081 	.data.b	122
00000885 02        10082 	.data.b	2
00000886 00        10083 	.data.b	0
00000887 01        10084 	.data.b	1
00000888 03        10085 	.data.b	3
00000889 7e        10086 	.data.b	126
0000088a 02        10087 	.data.b	2
0000088b 00        10088 	.data.b	0
0000088c 01        10089 	.data.b	1
0000088d 06        10090 	.data.b	6
0000088e 020500    10091 	.data.b	0,5,2
00000891 00000000* 10092 	.data.w	.LDWlin19
00000895 03        10093 	.data.b	3
00000896 0a        10094 	.data.b	10
00000897 02        10095 	.data.b	2
00000898 00        10096 	.data.b	0
00000899 01        10097 	.data.b	1
0000089a 02        10098 	.data.b	2
0000089b 00        10099 	.data.b	0
0000089c 0b        10100 	.data.b	11
0000089d 02        10101 	.data.b	2
0000089e 00        10102 	.data.b	0
0000089f 02        10103 	.data.b	2
000008a0 00        10104 	.data.b	0
000008a1 02        10105 	.data.b	2
000008a2 00        10106 	.data.b	0
000008a3 03        10107 	.data.b	3
000008a4 04        10108 	.data.b	4
000008a5 02        10109 	.data.b	2
000008a6 00        10110 	.data.b	0
000008a7 01        10111 	.data.b	1
000008a8 0b        10112 	.data.b	11

                                                                      Page 206
                                                              C:\Users\Fengyuan\AppData\Local\Temp\gh_0000fuk1.s
000008a9 0b        10113 	.data.b	11
000008aa 33        10114 	.data.b	51
000008ab 02        10115 	.data.b	2
000008ac 00        10116 	.data.b	0
000008ad 03        10117 	.data.b	3
000008ae 04        10118 	.data.b	4
000008af 02        10119 	.data.b	2
000008b0 00        10120 	.data.b	0
000008b1 01        10121 	.data.b	1
000008b2 02        10122 	.data.b	2
000008b3 02        10123 	.data.b	2
000008b4 010100    10124 	.data.b	0,1,1
                   10125 	.section	.debug_info
                   10126 .LDW_60447f0:
0000405a 11        10127 	.data.b	17
0000405b 75647069  10128 	.data.b	105,112,100,117,71,114,111,117,112,86,101,99,116,111,114,0
0000405f 756f7247 
00004063 63655670 
00004067 00726f74 
0000406b 72cb      10129 	.data.b	203,114
0000406d 3b        10130 	.data.b	59
0000406e 01        10131 	.data.b	1
0000406f 00000000* 10132 	.data.w	.LDW_49cd610
00004073 00        10133 	.data.b	0
00004074 5001      10134 	.data.b	1,80
                   10135 
                   10136 .LDW_6044690:
00004076 11        10137 	.data.b	17
00004077 75647069  10138 	.data.b	105,112,100,117,71,114,111,117,112,73,100,0
0000407b 756f7247 
0000407f 00644970 
00004083 72cb      10139 	.data.b	203,114
00004085 60        10140 	.data.b	96
00004086 01        10141 	.data.b	1
00004087 00000000* 10142 	.data.w	.LDW_6044168
0000408b 00        10143 	.data.b	0
0000408c 5101      10144 	.data.b	1,81
                   10145 
                   10146 .LDW_6044a58:
0000408e 11        10147 	.data.b	17
0000408f 76746962  10148 	.data.b	98,105,116,118,97,108,0
00004093 006c61 
00004096 72cb      10149 	.data.b	203,114
00004098 75        10150 	.data.b	117
00004099 01        10151 	.data.b	1
0000409a 00000000* 10152 	.data.w	.LDW_49f9738
0000409e 00        10153 	.data.b	0
0000409f 5201      10154 	.data.b	1,82
                   10155 
                   10156 .LDW_6055060:
000040a1 1f        10157 	.data.b	31
000040a2 00000000* 10158 	.data.w	.LDW64
000040a6 00000000* 10159 	.data.w	.LDW74
                   10160 
                   10161 .LDW_6044740:
000040aa 06        10162 	.data.b	6
000040ab 6f727265  10163 	.data.b	101,114,114,111,114,73,100,0
000040af 00644972 
000040b3 72cf      10164 	.data.b	207,114
000040b5 09        10165 	.data.b	9
000040b6 01        10166 	.data.b	1

                                                                      Page 207
                                                              C:\Users\Fengyuan\AppData\Local\Temp\gh_0000fuk1.s
000040b7 00000000* 10167 	.data.w	.LDW_5e8ef00
000040bb 00        10168 	.data.b	0
000040bc 00        10169 	.data.b	0
000040bd 5301      10170 	.data.b	1,83
                   10171 
000040bf 00        10172 	.data.b	0
                   10173 
000040c0 00        10174 	.data.b	0
                   10175 
                   10176 .LDW_6031950:
000040c1 15        10177 	.data.b	21
000040c2 5f6d6f43  10178 	.data.b	67,111,109,95,82,120,73,110,100,105,99,97,116,105,111,110,0
000040c6 6e497852 
000040ca 61636964 
000040ce 6e6f6974 
000040d2 00 
000040d3 7388      10179 	.data.b	136,115
000040d5 16        10180 	.data.b	22
000040d6 01        10181 	.data.b	1
000040d7 00000000* 10182 	.data.w	Com_RxIndication
000040db 00000000* 10183 	.data.w	__ghs_eofn_Com_RxIndication
000040df 5d01      10184 	.data.b	1,93
000040e1 018090    10185 	.data.b	144,128,1
000040e4 7c        10186 	.data.b	124
000040e5 00        10187 	.data.b	0
000040e6 04        10188 	.data.b	4
000040e7 01        10189 	.data.b	1
000040e8 00        10190 	.data.b	0
000040e9 00        10191 	.data.b	0
000040ea 01        10192 	.data.b	1
000040eb 01        10193 	.data.b	1
000040ec 00        10194 	.data.b	0
000040ed 01        10195 	.data.b	1
                   10196 
                   10197 	.section	.debug_frame
                   10198 .LDW_5e2d1c8:
00000210 00000000* 10199 	.data.w	.LDW_unq_24-.LDW_unq_23
                   10200 .LDW_unq_23:
00000214 00000000* 10201 	.data.w	.LDW_5f79490
00000218 00000000* 10202 	.data.w	Com_RxIndication
0000021c 00000056  10203 	.data.w	__ghs_eofn_Com_RxIndication-Com_RxIndication
00000220 01        10204 	.data.b	1
00000221 00000000* 10205 	.data.w	.LDW94
00000225 00        10206 	.data.b	0
00000226 00        10207 	.data.b	0
00000227 00        10208 	.data.b	0
                   10209 .LDW_unq_24:
                   10210 	.section	.debug_line
000008b7 020500    10211 	.data.b	0,5,2
000008ba 00000000* 10212 	.data.w	Com_RxIndication
000008be 06        10213 	.data.b	6
000008bf 03        10214 	.data.b	3
000008c0 00f388    10215 	.data.b	136,243,0
000008c3 02        10216 	.data.b	2
000008c4 00        10217 	.data.b	0
000008c5 01        10218 	.data.b	1
000008c6 03        10219 	.data.b	3
000008c7 07        10220 	.data.b	7
000008c8 02        10221 	.data.b	2
000008c9 04        10222 	.data.b	4
000008ca 01        10223 	.data.b	1

                                                                      Page 208
                                                              C:\Users\Fengyuan\AppData\Local\Temp\gh_0000fuk1.s
000008cb 23        10224 	.data.b	35
000008cc 0b        10225 	.data.b	11
000008cd 03        10226 	.data.b	3
000008ce 22        10227 	.data.b	34
000008cf 02        10228 	.data.b	2
000008d0 02        10229 	.data.b	2
000008d1 01        10230 	.data.b	1
000008d2 02        10231 	.data.b	2
000008d3 00        10232 	.data.b	0
000008d4 02        10233 	.data.b	2
000008d5 00        10234 	.data.b	0
000008d6 02        10235 	.data.b	2
000008d7 00        10236 	.data.b	0
000008d8 02        10237 	.data.b	2
000008d9 00        10238 	.data.b	0
000008da 02        10239 	.data.b	2
000008db 00        10240 	.data.b	0
000008dc 02        10241 	.data.b	2
000008dd 00        10242 	.data.b	0
000008de 02        10243 	.data.b	2
000008df 00        10244 	.data.b	0
000008e0 03        10245 	.data.b	3
000008e1 04        10246 	.data.b	4
000008e2 02        10247 	.data.b	2
000008e3 00        10248 	.data.b	0
000008e4 01        10249 	.data.b	1
000008e5 0b        10250 	.data.b	11
000008e6 0b        10251 	.data.b	11
000008e7 020500    10252 	.data.b	0,5,2
000008ea 00000000* 10253 	.data.w	.LDWlin20
000008ee 03        10254 	.data.b	3
000008ef 59        10255 	.data.b	89
000008f0 02        10256 	.data.b	2
000008f1 00        10257 	.data.b	0
000008f2 01        10258 	.data.b	1
000008f3 03        10259 	.data.b	3
000008f4 04        10260 	.data.b	4
000008f5 02        10261 	.data.b	2
000008f6 00        10262 	.data.b	0
000008f7 01        10263 	.data.b	1
000008f8 02        10264 	.data.b	2
000008f9 00        10265 	.data.b	0
000008fa 13        10266 	.data.b	19
000008fb 0b        10267 	.data.b	11
000008fc 020500    10268 	.data.b	0,5,2
000008ff 00000000* 10269 	.data.w	.LDWlin21
00000903 0b        10270 	.data.b	11
00000904 03        10271 	.data.b	3
00000905 08        10272 	.data.b	8
00000906 02        10273 	.data.b	2
00000907 00        10274 	.data.b	0
00000908 01        10275 	.data.b	1
00000909 02        10276 	.data.b	2
0000090a 00        10277 	.data.b	0
0000090b 15        10278 	.data.b	21
0000090c 0b        10279 	.data.b	11
0000090d 02        10280 	.data.b	2
0000090e 00        10281 	.data.b	0
0000090f 06        10282 	.data.b	6
00000910 03        10283 	.data.b	3
00000911 7e        10284 	.data.b	126

                                                                      Page 209
                                                              C:\Users\Fengyuan\AppData\Local\Temp\gh_0000fuk1.s
00000912 02        10285 	.data.b	2
00000913 08        10286 	.data.b	8
00000914 01        10287 	.data.b	1
00000915 06        10288 	.data.b	6
00000916 0d        10289 	.data.b	13
00000917 0b        10290 	.data.b	11
00000918 020500    10291 	.data.b	0,5,2
0000091b 00000000* 10292 	.data.w	.LDWlin22
0000091f 0b        10293 	.data.b	11
00000920 0d        10294 	.data.b	13
00000921 03        10295 	.data.b	3
00000922 04        10296 	.data.b	4
00000923 02        10297 	.data.b	2
00000924 00        10298 	.data.b	0
00000925 01        10299 	.data.b	1
00000926 03        10300 	.data.b	3
00000927 0b        10301 	.data.b	11
00000928 02        10302 	.data.b	2
00000929 28        10303 	.data.b	40
0000092a 01        10304 	.data.b	1
0000092b 02        10305 	.data.b	2
0000092c 00        10306 	.data.b	0
0000092d 03        10307 	.data.b	3
0000092e 06        10308 	.data.b	6
0000092f 02        10309 	.data.b	2
00000930 00        10310 	.data.b	0
00000931 01        10311 	.data.b	1
00000932 02        10312 	.data.b	2
00000933 02        10313 	.data.b	2
00000934 010100    10314 	.data.b	0,1,1
                   10315 	.section	.debug_info
                   10316 .LDW_6044798:
000040ee 11        10317 	.data.b	17
000040ef 64507852  10318 	.data.b	82,120,80,100,117,73,100,0
000040f3 00644975 
000040f7 7388      10319 	.data.b	136,115
000040f9 31        10320 	.data.b	49
000040fa 01        10321 	.data.b	1
000040fb 00000000* 10322 	.data.w	.LDW_5e8ef58
000040ff 00        10323 	.data.b	0
00004100 5001      10324 	.data.b	1,80
                   10325 
                   10326 .LDW_60448a0:
00004102 11        10327 	.data.b	17
00004103 49756450  10328 	.data.b	80,100,117,73,110,102,111,80,116,114,0
00004107 506f666e 
0000410b 007274 
0000410e 7388      10329 	.data.b	136,115
00004110 69        10330 	.data.b	105
00004111 01        10331 	.data.b	1
00004112 00000000* 10332 	.data.w	.LDW_5ef45a0
00004116 00        10333 	.data.b	0
00004117 5401      10334 	.data.b	1,84
                   10335 
                   10336 .LDW_6054d00:
00004119 1f        10337 	.data.b	31
0000411a 00000000* 10338 	.data.w	.LDW84
0000411e 00000000* 10339 	.data.w	.LDW94
                   10340 
                   10341 .LDW_60448f8:
00004122 07        10342 	.data.b	7

                                                                      Page 210
                                                              C:\Users\Fengyuan\AppData\Local\Temp\gh_0000fuk1.s
00004123 6f727265  10343 	.data.b	101,114,114,111,114,73,100,0
00004127 00644972 
0000412b 738b      10344 	.data.b	139,115
0000412d 09        10345 	.data.b	9
0000412e 01        10346 	.data.b	1
0000412f 00000000* 10347 	.data.w	.LDW_5e8ef00
00004133 00        10348 	.data.b	0
00004134 00        10349 	.data.b	0
                   10350 
00004135 00        10351 	.data.b	0
                   10352 
00004136 00        10353 	.data.b	0
                   10354 
                   10355 .LDW_6031c48:
00004137 16        10356 	.data.b	22
00004138 5f6d6f43  10357 	.data.b	67,111,109,95,82,101,99,101,105,118,101,83,105,103,110,97,108,0
0000413c 65636552 
00004140 53657669 
00004144 616e6769 
00004148 006c 
0000414a 75fb      10358 	.data.b	251,117
0000414c 17        10359 	.data.b	23
0000414d 01        10360 	.data.b	1
0000414e 00000000* 10361 	.data.w	.LDW_5e8ef00
00004152 00000000* 10362 	.data.w	Com_ReceiveSignal
00004156 00000000* 10363 	.data.w	__ghs_eofn_Com_ReceiveSignal
0000415a 5d01      10364 	.data.b	1,93
0000415c 0180b0    10365 	.data.b	176,128,1
0000415f 78        10366 	.data.b	120
00004160 00        10367 	.data.b	0
00004161 08        10368 	.data.b	8
00004162 01        10369 	.data.b	1
00004163 00        10370 	.data.b	0
00004164 00        10371 	.data.b	0
00004165 01        10372 	.data.b	1
00004166 01        10373 	.data.b	1
00004167 00        10374 	.data.b	0
00004168 01        10375 	.data.b	1
                   10376 
                   10377 	.section	.debug_frame
                   10378 .LDW_5e2d148:
00000228 00000000* 10379 	.data.w	.LDW_unq_26-.LDW_unq_25
                   10380 .LDW_unq_25:
0000022c 00000000* 10381 	.data.w	.LDW_5f79490
00000230 00000000* 10382 	.data.w	Com_ReceiveSignal
00000234 00000042  10383 	.data.w	__ghs_eofn_Com_ReceiveSignal-Com_ReceiveSignal
00000238 01        10384 	.data.b	1
00000239 00000000* 10385 	.data.w	.LDW15
0000023d 00        10386 	.data.b	0
0000023e 00        10387 	.data.b	0
0000023f 00        10388 	.data.b	0
                   10389 .LDW_unq_26:
                   10390 	.section	.debug_line
00000937 020500    10391 	.data.b	0,5,2
0000093a 00000000* 10392 	.data.w	Com_ReceiveSignal
0000093e 06        10393 	.data.b	6
0000093f 03        10394 	.data.b	3
00000940 00f5fb    10395 	.data.b	251,245,0
00000943 02        10396 	.data.b	2
00000944 00        10397 	.data.b	0
00000945 01        10398 	.data.b	1

                                                                      Page 211
                                                              C:\Users\Fengyuan\AppData\Local\Temp\gh_0000fuk1.s
00000946 15        10399 	.data.b	21
00000947 03        10400 	.data.b	3
00000948 04        10401 	.data.b	4
00000949 02        10402 	.data.b	2
0000094a 02        10403 	.data.b	2
0000094b 01        10404 	.data.b	1
0000094c 2b        10405 	.data.b	43
0000094d 0c        10406 	.data.b	12
0000094e 03        10407 	.data.b	3
0000094f 04        10408 	.data.b	4
00000950 02        10409 	.data.b	2
00000951 00        10410 	.data.b	0
00000952 01        10411 	.data.b	1
00000953 02        10412 	.data.b	2
00000954 00        10413 	.data.b	0
00000955 020500    10414 	.data.b	0,5,2
00000958 00000000* 10415 	.data.w	.LDWlin23
0000095c 0b        10416 	.data.b	11
0000095d 0c        10417 	.data.b	12
0000095e 03        10418 	.data.b	3
0000095f 08        10419 	.data.b	8
00000960 02        10420 	.data.b	2
00000961 00        10421 	.data.b	0
00000962 01        10422 	.data.b	1
00000963 02        10423 	.data.b	2
00000964 00        10424 	.data.b	0
00000965 1b        10425 	.data.b	27
00000966 0c        10426 	.data.b	12
00000967 0d        10427 	.data.b	13
00000968 03        10428 	.data.b	3
00000969 05        10429 	.data.b	5
0000096a 02        10430 	.data.b	2
0000096b 00        10431 	.data.b	0
0000096c 01        10432 	.data.b	1
0000096d 03        10433 	.data.b	3
0000096e 04        10434 	.data.b	4
0000096f 02        10435 	.data.b	2
00000970 14        10436 	.data.b	20
00000971 01        10437 	.data.b	1
00000972 23        10438 	.data.b	35
00000973 0b        10439 	.data.b	11
00000974 020500    10440 	.data.b	0,5,2
00000977 00000000* 10441 	.data.w	.LDWlin24
0000097b 03        10442 	.data.b	3
0000097c 05        10443 	.data.b	5
0000097d 02        10444 	.data.b	2
0000097e 00        10445 	.data.b	0
0000097f 01        10446 	.data.b	1
00000980 02        10447 	.data.b	2
00000981 00        10448 	.data.b	0
00000982 03        10449 	.data.b	3
00000983 04        10450 	.data.b	4
00000984 02        10451 	.data.b	2
00000985 00        10452 	.data.b	0
00000986 01        10453 	.data.b	1
00000987 02        10454 	.data.b	2
00000988 00        10455 	.data.b	0
00000989 02        10456 	.data.b	2
0000098a 00        10457 	.data.b	0
0000098b 02        10458 	.data.b	2
0000098c 00        10459 	.data.b	0

                                                                      Page 212
                                                              C:\Users\Fengyuan\AppData\Local\Temp\gh_0000fuk1.s
0000098d 02        10460 	.data.b	2
0000098e 00        10461 	.data.b	0
0000098f 02        10462 	.data.b	2
00000990 00        10463 	.data.b	0
00000991 03        10464 	.data.b	3
00000992 04        10465 	.data.b	4
00000993 02        10466 	.data.b	2
00000994 00        10467 	.data.b	0
00000995 01        10468 	.data.b	1
00000996 0b        10469 	.data.b	11
00000997 0b        10470 	.data.b	11
00000998 33        10471 	.data.b	51
00000999 02        10472 	.data.b	2
0000099a 00        10473 	.data.b	0
0000099b 03        10474 	.data.b	3
0000099c 07        10475 	.data.b	7
0000099d 02        10476 	.data.b	2
0000099e 00        10477 	.data.b	0
0000099f 01        10478 	.data.b	1
000009a0 06        10479 	.data.b	6
000009a1 02        10480 	.data.b	2
000009a2 02        10481 	.data.b	2
000009a3 02        10482 	.data.b	2
000009a4 02        10483 	.data.b	2
000009a5 010100    10484 	.data.b	0,1,1
                   10485 	.section	.debug_info
                   10486 .LDW_6056288:
00004169 11        10487 	.data.b	17
0000416a 6e676953  10488 	.data.b	83,105,103,110,97,108,73,100,0
0000416e 64496c61 
00004172 00 
00004173 75fb      10489 	.data.b	251,117
00004175 3a        10490 	.data.b	58
00004176 01        10491 	.data.b	1
00004177 00000000* 10492 	.data.w	.LDW_5ef2748
0000417b 00        10493 	.data.b	0
0000417c 5001      10494 	.data.b	1,80
                   10495 
                   10496 .LDW_6055ba8:
0000417e 11        10497 	.data.b	17
0000417f 6e676953  10498 	.data.b	83,105,103,110,97,108,68,97,116,97,80,116,114,0
00004183 61446c61 
00004187 74506174 
0000418b 0072 
0000418d 75fb      10499 	.data.b	251,117
0000418f 69        10500 	.data.b	105
00004190 01        10501 	.data.b	1
00004191 00000000* 10502 	.data.w	.LDW_5ef4370
00004195 00        10503 	.data.b	0
00004196 5101      10504 	.data.b	1,81
                   10505 
                   10506 .LDW_6054eb0:
00004198 1f        10507 	.data.b	31
00004199 00000000* 10508 	.data.w	.LDW05
0000419d 00000000* 10509 	.data.w	.LDW15
                   10510 
                   10511 .LDW_6055e68:
000041a1 06        10512 	.data.b	6
000041a2 6f727265  10513 	.data.b	101,114,114,111,114,73,100,0
000041a6 00644972 
000041aa 75fe      10514 	.data.b	254,117

                                                                      Page 213
                                                              C:\Users\Fengyuan\AppData\Local\Temp\gh_0000fuk1.s
000041ac 09        10515 	.data.b	9
000041ad 01        10516 	.data.b	1
000041ae 00000000* 10517 	.data.w	.LDW_5e8ef00
000041b2 00        10518 	.data.b	0
000041b3 00        10519 	.data.b	0
000041b4 5301      10520 	.data.b	1,83
                   10521 
                   10522 .LDW_6055ec0:
000041b6 06        10523 	.data.b	6
000041b7 56746572  10524 	.data.b	114,101,116,86,97,108,0
000041bb 006c61 
000041be 75ff      10525 	.data.b	255,117
000041c0 09        10526 	.data.b	9
000041c1 01        10527 	.data.b	1
000041c2 00000000* 10528 	.data.w	.LDW_5e8ef00
000041c6 00        10529 	.data.b	0
000041c7 00        10530 	.data.b	0
000041c8 5401      10531 	.data.b	1,84
                   10532 
000041ca 00        10533 	.data.b	0
                   10534 
000041cb 00        10535 	.data.b	0
                   10536 
                   10537 .LDW_6031ce0:
000041cc 16        10538 	.data.b	22
000041cd 5f6d6f43  10539 	.data.b	67,111,109,95,82,101,99,101,105,118,101,83,105,103,110,97,108,71,114,111,117,112,0
000041d1 65636552 
000041d5 53657669 
000041d9 616e6769 
000041dd 6f72476c 
000041e1 007075 
000041e4 7893      10540 	.data.b	147,120
000041e6 17        10541 	.data.b	23
000041e7 01        10542 	.data.b	1
000041e8 00000000* 10543 	.data.w	.LDW_5e8ef00
000041ec 00000000* 10544 	.data.w	Com_ReceiveSignalGroup
000041f0 00000000* 10545 	.data.w	__ghs_eofn_Com_ReceiveSignalGroup
000041f4 5d01      10546 	.data.b	1,93
000041f6 018090    10547 	.data.b	144,128,1
000041f9 7c        10548 	.data.b	124
000041fa 00        10549 	.data.b	0
000041fb 04        10550 	.data.b	4
000041fc 01        10551 	.data.b	1
000041fd 00        10552 	.data.b	0
000041fe 00        10553 	.data.b	0
000041ff 01        10554 	.data.b	1
00004200 01        10555 	.data.b	1
00004201 00        10556 	.data.b	0
00004202 01        10557 	.data.b	1
                   10558 
                   10559 	.section	.debug_frame
                   10560 .LDW_5e2d308:
00000240 00000000* 10561 	.data.w	.LDW_unq_28-.LDW_unq_27
                   10562 .LDW_unq_27:
00000244 00000000* 10563 	.data.w	.LDW_5f79490
00000248 00000000* 10564 	.data.w	Com_ReceiveSignalGroup
0000024c 0000001a  10565 	.data.w	__ghs_eofn_Com_ReceiveSignalGroup-Com_ReceiveSignalGroup
00000250 01        10566 	.data.b	1
00000251 00000000* 10567 	.data.w	.LDW35
00000255 00        10568 	.data.b	0
00000256 00        10569 	.data.b	0

                                                                      Page 214
                                                              C:\Users\Fengyuan\AppData\Local\Temp\gh_0000fuk1.s
00000257 00        10570 	.data.b	0
                   10571 .LDW_unq_28:
                   10572 	.section	.debug_line
000009a8 020500    10573 	.data.b	0,5,2
000009ab 00000000* 10574 	.data.w	Com_ReceiveSignalGroup
000009af 06        10575 	.data.b	6
000009b0 03        10576 	.data.b	3
000009b1 00f893    10577 	.data.b	147,248,0
000009b4 02        10578 	.data.b	2
000009b5 00        10579 	.data.b	0
000009b6 01        10580 	.data.b	1
000009b7 03        10581 	.data.b	3
000009b8 07        10582 	.data.b	7
000009b9 02        10583 	.data.b	2
000009ba 02        10584 	.data.b	2
000009bb 01        10585 	.data.b	1
000009bc 2d        10586 	.data.b	45
000009bd 03        10587 	.data.b	3
000009be 17        10588 	.data.b	23
000009bf 02        10589 	.data.b	2
000009c0 00        10590 	.data.b	0
000009c1 01        10591 	.data.b	1
000009c2 03        10592 	.data.b	3
000009c3 15        10593 	.data.b	21
000009c4 02        10594 	.data.b	2
000009c5 00        10595 	.data.b	0
000009c6 01        10596 	.data.b	1
000009c7 14        10597 	.data.b	20
000009c8 02        10598 	.data.b	2
000009c9 00        10599 	.data.b	0
000009ca 03        10600 	.data.b	3
000009cb 05        10601 	.data.b	5
000009cc 02        10602 	.data.b	2
000009cd 00        10603 	.data.b	0
000009ce 01        10604 	.data.b	1
000009cf 0b        10605 	.data.b	11
000009d0 0b        10606 	.data.b	11
000009d1 33        10607 	.data.b	51
000009d2 02        10608 	.data.b	2
000009d3 00        10609 	.data.b	0
000009d4 03        10610 	.data.b	3
000009d5 06        10611 	.data.b	6
000009d6 02        10612 	.data.b	2
000009d7 00        10613 	.data.b	0
000009d8 01        10614 	.data.b	1
000009d9 06        10615 	.data.b	6
000009da 02        10616 	.data.b	2
000009db 02        10617 	.data.b	2
000009dc 02        10618 	.data.b	2
000009dd 02        10619 	.data.b	2
000009de 010100    10620 	.data.b	0,1,1
                   10621 	.section	.debug_info
                   10622 .LDW_60563e8:
00004203 11        10623 	.data.b	17
00004204 6e676953  10624 	.data.b	83,105,103,110,97,108,71,114,111,117,112,73,100,0
00004208 72476c61 
0000420c 4970756f 
00004210 0064 
00004212 7893      10625 	.data.b	147,120
00004214 44        10626 	.data.b	68
00004215 01        10627 	.data.b	1

                                                                      Page 215
                                                              C:\Users\Fengyuan\AppData\Local\Temp\gh_0000fuk1.s
00004216 00000000* 10628 	.data.w	.LDW_6056230
0000421a 00        10629 	.data.b	0
0000421b 5001      10630 	.data.b	1,80
                   10631 
                   10632 .LDW_6054dc0:
0000421d 1f        10633 	.data.b	31
0000421e 00000000* 10634 	.data.w	.LDW25
00004222 00000000* 10635 	.data.w	.LDW35
                   10636 
                   10637 .LDW_6055af8:
00004226 06        10638 	.data.b	6
00004227 6f727265  10639 	.data.b	101,114,114,111,114,73,100,0
0000422b 00644972 
0000422f 7896      10640 	.data.b	150,120
00004231 09        10641 	.data.b	9
00004232 01        10642 	.data.b	1
00004233 00000000* 10643 	.data.w	.LDW_5e8ef00
00004237 00        10644 	.data.b	0
00004238 00        10645 	.data.b	0
00004239 5301      10646 	.data.b	1,83
                   10647 
                   10648 .LDW_60560d0:
0000423b 07        10649 	.data.b	7
0000423c 56746572  10650 	.data.b	114,101,116,86,97,108,0
00004240 006c61 
00004243 7897      10651 	.data.b	151,120
00004245 09        10652 	.data.b	9
00004246 01        10653 	.data.b	1
00004247 00000000* 10654 	.data.w	.LDW_5e8ef00
0000424b 00        10655 	.data.b	0
0000424c 00        10656 	.data.b	0
                   10657 
0000424d 00        10658 	.data.b	0
                   10659 
0000424e 00        10660 	.data.b	0
                   10661 
                   10662 .LDW_6031d78:
0000424f 16        10663 	.data.b	22
00004250 5f6d6f43  10664 	.data.b	67,111,109,95,73,110,118,97,108,105,100,97,116,101,83,105,103,110,97,108,0
00004254 61766e49 
00004258 6164696c 
0000425c 69536574 
00004260 6c616e67 
00004264 00 
00004265 79fd      10665 	.data.b	253,121
00004267 17        10666 	.data.b	23
00004268 01        10667 	.data.b	1
00004269 00000000* 10668 	.data.w	.LDW_5e8ef00
0000426d 00000000* 10669 	.data.w	Com_InvalidateSignal
00004271 00000000* 10670 	.data.w	__ghs_eofn_Com_InvalidateSignal
00004275 5d01      10671 	.data.b	1,93
00004277 018090    10672 	.data.b	144,128,1
0000427a 7c        10673 	.data.b	124
0000427b 00        10674 	.data.b	0
0000427c 04        10675 	.data.b	4
0000427d 01        10676 	.data.b	1
0000427e 00        10677 	.data.b	0
0000427f 00        10678 	.data.b	0
00004280 01        10679 	.data.b	1
00004281 01        10680 	.data.b	1
00004282 00        10681 	.data.b	0

                                                                      Page 216
                                                              C:\Users\Fengyuan\AppData\Local\Temp\gh_0000fuk1.s
00004283 01        10682 	.data.b	1
                   10683 
                   10684 	.section	.debug_frame
                   10685 .LDW_5e2cf08:
00000258 00000000* 10686 	.data.w	.LDW_unq_2a-.LDW_unq_29
                   10687 .LDW_unq_29:
0000025c 00000000* 10688 	.data.w	.LDW_5f79490
00000260 00000000* 10689 	.data.w	Com_InvalidateSignal
00000264 0000001a  10690 	.data.w	__ghs_eofn_Com_InvalidateSignal-Com_InvalidateSignal
00000268 01        10691 	.data.b	1
00000269 00000000* 10692 	.data.w	.LDW55
0000026d 00        10693 	.data.b	0
0000026e 00        10694 	.data.b	0
0000026f 00        10695 	.data.b	0
                   10696 .LDW_unq_2a:
                   10697 	.section	.debug_line
000009e1 020500    10698 	.data.b	0,5,2
000009e4 00000000* 10699 	.data.w	Com_InvalidateSignal
000009e8 06        10700 	.data.b	6
000009e9 03        10701 	.data.b	3
000009ea 00f9fd    10702 	.data.b	253,249,0
000009ed 02        10703 	.data.b	2
000009ee 00        10704 	.data.b	0
000009ef 01        10705 	.data.b	1
000009f0 03        10706 	.data.b	3
000009f1 07        10707 	.data.b	7
000009f2 02        10708 	.data.b	2
000009f3 02        10709 	.data.b	2
000009f4 01        10710 	.data.b	1
000009f5 2d        10711 	.data.b	45
000009f6 03        10712 	.data.b	3
000009f7 04        10713 	.data.b	4
000009f8 02        10714 	.data.b	2
000009f9 00        10715 	.data.b	0
000009fa 01        10716 	.data.b	1
000009fb 02        10717 	.data.b	2
000009fc 00        10718 	.data.b	0
000009fd 06        10719 	.data.b	6
000009fe 0c        10720 	.data.b	12
000009ff 06        10721 	.data.b	6
00000a00 0b        10722 	.data.b	11
00000a01 03        10723 	.data.b	3
00000a02 0a        10724 	.data.b	10
00000a03 02        10725 	.data.b	2
00000a04 00        10726 	.data.b	0
00000a05 01        10727 	.data.b	1
00000a06 03        10728 	.data.b	3
00000a07 08        10729 	.data.b	8
00000a08 02        10730 	.data.b	2
00000a09 00        10731 	.data.b	0
00000a0a 01        10732 	.data.b	1
00000a0b 14        10733 	.data.b	20
00000a0c 02        10734 	.data.b	2
00000a0d 00        10735 	.data.b	0
00000a0e 02        10736 	.data.b	2
00000a0f 00        10737 	.data.b	0
00000a10 02        10738 	.data.b	2
00000a11 00        10739 	.data.b	0
00000a12 03        10740 	.data.b	3
00000a13 04        10741 	.data.b	4
00000a14 02        10742 	.data.b	2

                                                                      Page 217
                                                              C:\Users\Fengyuan\AppData\Local\Temp\gh_0000fuk1.s
00000a15 00        10743 	.data.b	0
00000a16 01        10744 	.data.b	1
00000a17 0b        10745 	.data.b	11
00000a18 0b        10746 	.data.b	11
00000a19 33        10747 	.data.b	51
00000a1a 02        10748 	.data.b	2
00000a1b 00        10749 	.data.b	0
00000a1c 03        10750 	.data.b	3
00000a1d 06        10751 	.data.b	6
00000a1e 02        10752 	.data.b	2
00000a1f 00        10753 	.data.b	0
00000a20 01        10754 	.data.b	1
00000a21 06        10755 	.data.b	6
00000a22 02        10756 	.data.b	2
00000a23 02        10757 	.data.b	2
00000a24 02        10758 	.data.b	2
00000a25 5c        10759 	.data.b	92
00000a26 010100    10760 	.data.b	0,1,1
                   10761 	.section	.debug_info
                   10762 .LDW_6055d60:
00004284 11        10763 	.data.b	17
00004285 6e676953  10764 	.data.b	83,105,103,110,97,108,73,100,0
00004289 64496c61 
0000428d 00 
0000428e 79fd      10765 	.data.b	253,121
00004290 3d        10766 	.data.b	61
00004291 01        10767 	.data.b	1
00004292 00000000* 10768 	.data.w	.LDW_5ef2748
00004296 00        10769 	.data.b	0
00004297 5001      10770 	.data.b	1,80
                   10771 
                   10772 .LDW_6054d30:
00004299 1f        10773 	.data.b	31
0000429a 00000000* 10774 	.data.w	.LDW45
0000429e 00000000* 10775 	.data.w	.LDW55
                   10776 
                   10777 .LDW_60564f0:
000042a2 06        10778 	.data.b	6
000042a3 6f727265  10779 	.data.b	101,114,114,111,114,73,100,0
000042a7 00644972 
000042ab 7a80      10780 	.data.b	128,122
000042ad 09        10781 	.data.b	9
000042ae 01        10782 	.data.b	1
000042af 00000000* 10783 	.data.w	.LDW_5e8ef00
000042b3 00        10784 	.data.b	0
000042b4 00        10785 	.data.b	0
000042b5 5301      10786 	.data.b	1,83
                   10787 
                   10788 .LDW_6056128:
000042b7 07        10789 	.data.b	7
000042b8 56746572  10790 	.data.b	114,101,116,86,97,108,0
000042bc 006c61 
000042bf 7a81      10791 	.data.b	129,122
000042c1 09        10792 	.data.b	9
000042c2 01        10793 	.data.b	1
000042c3 00000000* 10794 	.data.w	.LDW_5e8ef00
000042c7 00        10795 	.data.b	0
000042c8 00        10796 	.data.b	0
                   10797 
000042c9 00        10798 	.data.b	0
                   10799 

                                                                      Page 218
                                                              C:\Users\Fengyuan\AppData\Local\Temp\gh_0000fuk1.s
000042ca 00        10800 	.data.b	0
                   10801 
                   10802 .LDW_6032958:
000042cb 16        10803 	.data.b	22
000042cc 5f6d6f43  10804 	.data.b	67,111,109,95,73,110,118,97,108,105,100,97,116,101,83,105,103,110,97,108,71,114,111,117,112,0
000042d0 61766e49 
000042d4 6164696c 
000042d8 69536574 
000042dc 6c616e67 
000042e0 756f7247 
000042e4 0070 
000042e6 7abd      10805 	.data.b	189,122
000042e8 17        10806 	.data.b	23
000042e9 01        10807 	.data.b	1
000042ea 00000000* 10808 	.data.w	.LDW_5e8ef00
000042ee 00000000* 10809 	.data.w	Com_InvalidateSignalGroup
000042f2 00000000* 10810 	.data.w	__ghs_eofn_Com_InvalidateSignalGroup
000042f6 5d01      10811 	.data.b	1,93
000042f8 018090    10812 	.data.b	144,128,1
000042fb 7c        10813 	.data.b	124
000042fc 00        10814 	.data.b	0
000042fd 04        10815 	.data.b	4
000042fe 01        10816 	.data.b	1
000042ff 00        10817 	.data.b	0
00004300 00        10818 	.data.b	0
00004301 01        10819 	.data.b	1
00004302 01        10820 	.data.b	1
00004303 00        10821 	.data.b	0
00004304 01        10822 	.data.b	1
                   10823 
                   10824 	.section	.debug_frame
                   10825 .LDW_5dd2680:
00000270 00000000* 10826 	.data.w	.LDW_unq_2c-.LDW_unq_2b
                   10827 .LDW_unq_2b:
00000274 00000000* 10828 	.data.w	.LDW_5f79490
00000278 00000000* 10829 	.data.w	Com_InvalidateSignalGroup
0000027c 0000001a  10830 	.data.w	__ghs_eofn_Com_InvalidateSignalGroup-Com_InvalidateSignalGroup
00000280 01        10831 	.data.b	1
00000281 00000000* 10832 	.data.w	.LDW75
00000285 00        10833 	.data.b	0
00000286 00        10834 	.data.b	0
00000287 00        10835 	.data.b	0
                   10836 .LDW_unq_2c:
                   10837 	.section	.debug_line
00000a29 020500    10838 	.data.b	0,5,2
00000a2c 00000000* 10839 	.data.w	Com_InvalidateSignalGroup
00000a30 06        10840 	.data.b	6
00000a31 03        10841 	.data.b	3
00000a32 00fabd    10842 	.data.b	189,250,0
00000a35 02        10843 	.data.b	2
00000a36 00        10844 	.data.b	0
00000a37 01        10845 	.data.b	1
00000a38 03        10846 	.data.b	3
00000a39 07        10847 	.data.b	7
00000a3a 02        10848 	.data.b	2
00000a3b 02        10849 	.data.b	2
00000a3c 01        10850 	.data.b	1
00000a3d 2d        10851 	.data.b	45
00000a3e 03        10852 	.data.b	3
00000a3f 11        10853 	.data.b	17
00000a40 02        10854 	.data.b	2

                                                                      Page 219
                                                              C:\Users\Fengyuan\AppData\Local\Temp\gh_0000fuk1.s
00000a41 00        10855 	.data.b	0
00000a42 01        10856 	.data.b	1
00000a43 03        10857 	.data.b	3
00000a44 12        10858 	.data.b	18
00000a45 02        10859 	.data.b	2
00000a46 00        10860 	.data.b	0
00000a47 01        10861 	.data.b	1
00000a48 14        10862 	.data.b	20
00000a49 02        10863 	.data.b	2
00000a4a 00        10864 	.data.b	0
00000a4b 03        10865 	.data.b	3
00000a4c 04        10866 	.data.b	4
00000a4d 02        10867 	.data.b	2
00000a4e 00        10868 	.data.b	0
00000a4f 01        10869 	.data.b	1
00000a50 0b        10870 	.data.b	11
00000a51 0b        10871 	.data.b	11
00000a52 33        10872 	.data.b	51
00000a53 02        10873 	.data.b	2
00000a54 00        10874 	.data.b	0
00000a55 03        10875 	.data.b	3
00000a56 06        10876 	.data.b	6
00000a57 02        10877 	.data.b	2
00000a58 00        10878 	.data.b	0
00000a59 01        10879 	.data.b	1
00000a5a 06        10880 	.data.b	6
00000a5b 02        10881 	.data.b	2
00000a5c 02        10882 	.data.b	2
00000a5d 02        10883 	.data.b	2
00000a5e 02        10884 	.data.b	2
00000a5f 010100    10885 	.data.b	0,1,1
                   10886 	.section	.debug_info
                   10887 .LDW_6055f70:
00004305 11        10888 	.data.b	17
00004306 6e676953  10889 	.data.b	83,105,103,110,97,108,71,114,111,117,112,73,100,0
0000430a 72476c61 
0000430e 4970756f 
00004312 0064 
00004314 7abd      10890 	.data.b	189,122
00004316 47        10891 	.data.b	71
00004317 01        10892 	.data.b	1
00004318 00000000* 10893 	.data.w	.LDW_6056230
0000431c 00        10894 	.data.b	0
0000431d 5001      10895 	.data.b	1,80
                   10896 
                   10897 .LDW_6055240:
0000431f 1f        10898 	.data.b	31
00004320 00000000* 10899 	.data.w	.LDW65
00004324 00000000* 10900 	.data.w	.LDW75
                   10901 
                   10902 .LDW_6055b50:
00004328 06        10903 	.data.b	6
00004329 6f727265  10904 	.data.b	101,114,114,111,114,73,100,0
0000432d 00644972 
00004331 7ac0      10905 	.data.b	192,122
00004333 09        10906 	.data.b	9
00004334 01        10907 	.data.b	1
00004335 00000000* 10908 	.data.w	.LDW_5e8ef00
00004339 00        10909 	.data.b	0
0000433a 00        10910 	.data.b	0
0000433b 5301      10911 	.data.b	1,83

                                                                      Page 220
                                                              C:\Users\Fengyuan\AppData\Local\Temp\gh_0000fuk1.s
                   10912 
                   10913 .LDW_60562e0:
0000433d 07        10914 	.data.b	7
0000433e 56746572  10915 	.data.b	114,101,116,86,97,108,0
00004342 006c61 
00004345 7ac1      10916 	.data.b	193,122
00004347 09        10917 	.data.b	9
00004348 01        10918 	.data.b	1
00004349 00000000* 10919 	.data.w	.LDW_5e8ef00
0000434d 00        10920 	.data.b	0
0000434e 00        10921 	.data.b	0
                   10922 
0000434f 00        10923 	.data.b	0
                   10924 
00004350 00        10925 	.data.b	0
                   10926 
                   10927 .LDW_6032eb0:
00004351 15        10928 	.data.b	21
00004352 5f6d6f43  10929 	.data.b	67,111,109,95,84,120,67,111,110,102,105,114,109,97,116,105,111,110,0
00004356 6f437854 
0000435a 7269666e 
0000435e 6974616d 
00004362 006e6f 
00004365 7b87      10930 	.data.b	135,123
00004367 16        10931 	.data.b	22
00004368 01        10932 	.data.b	1
00004369 00000000* 10933 	.data.w	Com_TxConfirmation
0000436d 00000000* 10934 	.data.w	__ghs_eofn_Com_TxConfirmation
00004371 5d01      10935 	.data.b	1,93
00004373 018090    10936 	.data.b	144,128,1
00004376 7c        10937 	.data.b	124
00004377 00        10938 	.data.b	0
00004378 04        10939 	.data.b	4
00004379 01        10940 	.data.b	1
0000437a 00        10941 	.data.b	0
0000437b 00        10942 	.data.b	0
0000437c 01        10943 	.data.b	1
0000437d 01        10944 	.data.b	1
0000437e 00        10945 	.data.b	0
0000437f 01        10946 	.data.b	1
                   10947 
                   10948 	.section	.debug_frame
                   10949 .LDW_5dd2700:
00000288 00000000* 10950 	.data.w	.LDW_unq_2e-.LDW_unq_2d
                   10951 .LDW_unq_2d:
0000028c 00000000* 10952 	.data.w	.LDW_5f79490
00000290 00000000* 10953 	.data.w	Com_TxConfirmation
00000294 00000026  10954 	.data.w	__ghs_eofn_Com_TxConfirmation-Com_TxConfirmation
00000298 01        10955 	.data.b	1
00000299 00000000* 10956 	.data.w	.LDW95
0000029d 00        10957 	.data.b	0
0000029e 00        10958 	.data.b	0
0000029f 00        10959 	.data.b	0
                   10960 .LDW_unq_2e:
                   10961 	.section	.debug_line
00000a62 020500    10962 	.data.b	0,5,2
00000a65 00000000* 10963 	.data.w	Com_TxConfirmation
00000a69 06        10964 	.data.b	6
00000a6a 03        10965 	.data.b	3
00000a6b 00fb87    10966 	.data.b	135,251,0
00000a6e 02        10967 	.data.b	2

                                                                      Page 221
                                                              C:\Users\Fengyuan\AppData\Local\Temp\gh_0000fuk1.s
00000a6f 00        10968 	.data.b	0
00000a70 01        10969 	.data.b	1
00000a71 03        10970 	.data.b	3
00000a72 06        10971 	.data.b	6
00000a73 02        10972 	.data.b	2
00000a74 02        10973 	.data.b	2
00000a75 01        10974 	.data.b	1
00000a76 2b        10975 	.data.b	43
00000a77 0c        10976 	.data.b	12
00000a78 03        10977 	.data.b	3
00000a79 04        10978 	.data.b	4
00000a7a 02        10979 	.data.b	2
00000a7b 00        10980 	.data.b	0
00000a7c 01        10981 	.data.b	1
00000a7d 02        10982 	.data.b	2
00000a7e 00        10983 	.data.b	0
00000a7f 020500    10984 	.data.b	0,5,2
00000a82 00000000* 10985 	.data.w	.LDWlin25
00000a86 0b        10986 	.data.b	11
00000a87 0c        10987 	.data.b	12
00000a88 03        10988 	.data.b	3
00000a89 0a        10989 	.data.b	10
00000a8a 02        10990 	.data.b	2
00000a8b 00        10991 	.data.b	0
00000a8c 01        10992 	.data.b	1
00000a8d 0d        10993 	.data.b	13
00000a8e 020500    10994 	.data.b	0,5,2
00000a91 00000000* 10995 	.data.w	.LDWlin26
00000a95 0b        10996 	.data.b	11
00000a96 02        10997 	.data.b	2
00000a97 00        10998 	.data.b	0
00000a98 02        10999 	.data.b	2
00000a99 00        11000 	.data.b	0
00000a9a 02        11001 	.data.b	2
00000a9b 00        11002 	.data.b	0
00000a9c 03        11003 	.data.b	3
00000a9d 04        11004 	.data.b	4
00000a9e 02        11005 	.data.b	2
00000a9f 00        11006 	.data.b	0
00000aa0 01        11007 	.data.b	1
00000aa1 0b        11008 	.data.b	11
00000aa2 0b        11009 	.data.b	11
00000aa3 33        11010 	.data.b	51
00000aa4 02        11011 	.data.b	2
00000aa5 00        11012 	.data.b	0
00000aa6 03        11013 	.data.b	3
00000aa7 05        11014 	.data.b	5
00000aa8 02        11015 	.data.b	2
00000aa9 00        11016 	.data.b	0
00000aaa 01        11017 	.data.b	1
00000aab 02        11018 	.data.b	2
00000aac 02        11019 	.data.b	2
00000aad 010100    11020 	.data.b	0,1,1
                   11021 	.section	.debug_info
                   11022 .LDW_6056548:
00004380 11        11023 	.data.b	17
00004381 64507854  11024 	.data.b	84,120,80,100,117,73,100,0
00004385 00644975 
00004389 7b87      11025 	.data.b	135,123
0000438b 33        11026 	.data.b	51
0000438c 01        11027 	.data.b	1

                                                                      Page 222
                                                              C:\Users\Fengyuan\AppData\Local\Temp\gh_0000fuk1.s
0000438d 00000000* 11028 	.data.w	.LDW_5e8ef58
00004391 00        11029 	.data.b	0
00004392 5001      11030 	.data.b	1,80
                   11031 
                   11032 .LDW_60554b0:
00004394 1f        11033 	.data.b	31
00004395 00000000* 11034 	.data.w	.LDW85
00004399 00000000* 11035 	.data.w	.LDW95
                   11036 
                   11037 .LDW_6056078:
0000439d 06        11038 	.data.b	6
0000439e 6f727265  11039 	.data.b	101,114,114,111,114,73,100,0
000043a2 00644972 
000043a6 7b8a      11040 	.data.b	138,123
000043a8 09        11041 	.data.b	9
000043a9 01        11042 	.data.b	1
000043aa 00000000* 11043 	.data.w	.LDW_5e8ef00
000043ae 00        11044 	.data.b	0
000043af 00        11045 	.data.b	0
000043b0 5301      11046 	.data.b	1,83
                   11047 
000043b2 00        11048 	.data.b	0
                   11049 
000043b3 00        11050 	.data.b	0
                   11051 
                   11052 .LDW_6033078:
000043b4 16        11053 	.data.b	22
000043b5 5f6d6f43  11054 	.data.b	67,111,109,95,84,120,76,76,73,102,95,84,114,97,110,115,109,105,116,0
000043b9 4c4c7854 
000043bd 545f6649 
000043c1 736e6172 
000043c5 0074696d 
000043c9 7ded      11055 	.data.b	237,125
000043cb 20        11056 	.data.b	32
000043cc 01        11057 	.data.b	1
000043cd 00000000* 11058 	.data.w	.LDW_6055fc8
000043d1 00000000* 11059 	.data.w	Com_TxLLIf_Transmit
000043d5 00000000* 11060 	.data.w	__ghs_eofn_Com_TxLLIf_Transmit
000043d9 5d01      11061 	.data.b	1,93
000043db 018080    11062 	.data.b	128,128,1
000043de 00        11063 	.data.b	0
000043df 00        11064 	.data.b	0
000043e0 08        11065 	.data.b	8
000043e1 01        11066 	.data.b	1
000043e2 00        11067 	.data.b	0
000043e3 00        11068 	.data.b	0
000043e4 01        11069 	.data.b	1
000043e5 01        11070 	.data.b	1
000043e6 00        11071 	.data.b	0
000043e7 01        11072 	.data.b	1
                   11073 
                   11074 	.section	.debug_frame
                   11075 .LDW_5dd2780:
000002a0 00000000* 11076 	.data.w	.LDW_unq_30-.LDW_unq_2f
                   11077 .LDW_unq_2f:
000002a4 00000000* 11078 	.data.w	.LDW_5f79490
000002a8 00000000* 11079 	.data.w	Com_TxLLIf_Transmit
000002ac 00000030  11080 	.data.w	__ghs_eofn_Com_TxLLIf_Transmit-Com_TxLLIf_Transmit
000002b0 01        11081 	.data.b	1
000002b1 00000000* 11082 	.data.w	.LDW16
000002b5 00        11083 	.data.b	0

                                                                      Page 223
                                                              C:\Users\Fengyuan\AppData\Local\Temp\gh_0000fuk1.s
000002b6 00        11084 	.data.b	0
000002b7 00        11085 	.data.b	0
                   11086 .LDW_unq_30:
                   11087 	.section	.debug_line
00000ab0 020500    11088 	.data.b	0,5,2
00000ab3 00000000* 11089 	.data.w	Com_TxLLIf_Transmit
00000ab7 06        11090 	.data.b	6
00000ab8 03        11091 	.data.b	3
00000ab9 00fded    11092 	.data.b	237,253,0
00000abc 02        11093 	.data.b	2
00000abd 00        11094 	.data.b	0
00000abe 01        11095 	.data.b	1
00000abf 03        11096 	.data.b	3
00000ac0 0a        11097 	.data.b	10
00000ac1 02        11098 	.data.b	2
00000ac2 04        11099 	.data.b	4
00000ac3 01        11100 	.data.b	1
00000ac4 03        11101 	.data.b	3
00000ac5 04        11102 	.data.b	4
00000ac6 02        11103 	.data.b	2
00000ac7 04        11104 	.data.b	4
00000ac8 01        11105 	.data.b	1
00000ac9 2b        11106 	.data.b	43
00000aca 03        11107 	.data.b	3
00000acb 0e        11108 	.data.b	14
00000acc 02        11109 	.data.b	2
00000acd 00        11110 	.data.b	0
00000ace 01        11111 	.data.b	1
00000acf 3c        11112 	.data.b	60
00000ad0 02        11113 	.data.b	2
00000ad1 00        11114 	.data.b	0
00000ad2 03        11115 	.data.b	3
00000ad3 20        11116 	.data.b	32
00000ad4 02        11117 	.data.b	2
00000ad5 00        11118 	.data.b	0
00000ad6 01        11119 	.data.b	1
00000ad7 03        11120 	.data.b	3
00000ad8 1c        11121 	.data.b	28
00000ad9 02        11122 	.data.b	2
00000ada 0a        11123 	.data.b	10
00000adb 01        11124 	.data.b	1
00000adc 03        11125 	.data.b	3
00000add 0f        11126 	.data.b	15
00000ade 02        11127 	.data.b	2
00000adf 06        11128 	.data.b	6
00000ae0 01        11129 	.data.b	1
00000ae1 02        11130 	.data.b	2
00000ae2 04        11131 	.data.b	4
00000ae3 010100    11132 	.data.b	0,1,1
                   11133 	.section	.debug_info
                   11134 .LDW_6055f18:
000043e8 11        11135 	.data.b	17
000043e9 546d6f43  11136 	.data.b	67,111,109,84,120,80,100,117,73,100,0
000043ed 75645078 
000043f1 006449 
000043f4 7ded      11137 	.data.b	237,125
000043f6 3e        11138 	.data.b	62
000043f7 01        11139 	.data.b	1
000043f8 00000000* 11140 	.data.w	.LDW_5e8ef58
000043fc 00        11141 	.data.b	0
000043fd 5001      11142 	.data.b	1,80

                                                                      Page 224
                                                              C:\Users\Fengyuan\AppData\Local\Temp\gh_0000fuk1.s
                   11143 
                   11144 .LDW_6055360:
000043ff 1f        11145 	.data.b	31
00004400 00000000* 11146 	.data.w	.LDW06
00004404 00000000* 11147 	.data.w	.LDW16
                   11148 
                   11149 .LDW_60565a0:
00004408 07        11150 	.data.b	7
00004409 56746572  11151 	.data.b	114,101,116,86,97,108,0
0000440d 006c61 
00004410 7df0      11152 	.data.b	240,125
00004412 12        11153 	.data.b	18
00004413 01        11154 	.data.b	1
00004414 00000000* 11155 	.data.w	.LDW_6055fc8
00004418 00        11156 	.data.b	0
00004419 00        11157 	.data.b	0
                   11158 
                   11159 .LDW_6056180:
0000441a 06        11160 	.data.b	6
0000441b 49756450  11161 	.data.b	80,100,117,73,110,102,111,0
0000441f 006f666e 
00004423 7df2      11162 	.data.b	242,125
00004425 0f        11163 	.data.b	15
00004426 01        11164 	.data.b	1
00004427 00000000* 11165 	.data.w	.LDW_5ef2a60
0000442b 00        11166 	.data.b	0
0000442c 00        11167 	.data.b	0
0000442d 7d02      11168 	.data.b	2,125
0000442f 00        11169 	.data.b	0
                   11170 
00004430 00        11171 	.data.b	0
                   11172 
00004431 00        11173 	.data.b	0
                   11174 
                   11175 .LDW_6032790:
00004432 15        11176 	.data.b	21
00004433 5f6d6f43  11177 	.data.b	67,111,109,95,83,119,105,116,99,104,73,112,100,117,84,120,77,111,100,101,0
00004437 74697753 
0000443b 70496863 
0000443f 78547564 
00004443 65646f4d 
00004447 00 
00004448 7ee7      11178 	.data.b	231,126
0000444a 16        11179 	.data.b	22
0000444b 01        11180 	.data.b	1
0000444c 00000000* 11181 	.data.w	Com_SwitchIpduTxMode
00004450 00000000* 11182 	.data.w	__ghs_eofn_Com_SwitchIpduTxMode
00004454 5d01      11183 	.data.b	1,93
00004456 018090    11184 	.data.b	144,128,1
00004459 7c        11185 	.data.b	124
0000445a 00        11186 	.data.b	0
0000445b 04        11187 	.data.b	4
0000445c 01        11188 	.data.b	1
0000445d 00        11189 	.data.b	0
0000445e 00        11190 	.data.b	0
0000445f 01        11191 	.data.b	1
00004460 01        11192 	.data.b	1
00004461 00        11193 	.data.b	0
00004462 01        11194 	.data.b	1
                   11195 
                   11196 	.section	.debug_frame

                                                                      Page 225
                                                              C:\Users\Fengyuan\AppData\Local\Temp\gh_0000fuk1.s
                   11197 .LDW_5dd3280:
000002b8 00000000* 11198 	.data.w	.LDW_unq_32-.LDW_unq_31
                   11199 .LDW_unq_31:
000002bc 00000000* 11200 	.data.w	.LDW_5f79490
000002c0 00000000* 11201 	.data.w	Com_SwitchIpduTxMode
000002c4 0000005c  11202 	.data.w	__ghs_eofn_Com_SwitchIpduTxMode-Com_SwitchIpduTxMode
000002c8 01        11203 	.data.b	1
000002c9 00000000* 11204 	.data.w	.LDW36
000002cd 00        11205 	.data.b	0
000002ce 00        11206 	.data.b	0
000002cf 00        11207 	.data.b	0
                   11208 .LDW_unq_32:
                   11209 	.section	.debug_line
00000ae6 020500    11210 	.data.b	0,5,2
00000ae9 00000000* 11211 	.data.w	Com_SwitchIpduTxMode
00000aed 06        11212 	.data.b	6
00000aee 03        11213 	.data.b	3
00000aef 00fee7    11214 	.data.b	231,254,0
00000af2 02        11215 	.data.b	2
00000af3 00        11216 	.data.b	0
00000af4 01        11217 	.data.b	1
00000af5 03        11218 	.data.b	3
00000af6 06        11219 	.data.b	6
00000af7 02        11220 	.data.b	2
00000af8 02        11221 	.data.b	2
00000af9 01        11222 	.data.b	1
00000afa 2b        11223 	.data.b	43
00000afb 0c        11224 	.data.b	12
00000afc 03        11225 	.data.b	3
00000afd 04        11226 	.data.b	4
00000afe 02        11227 	.data.b	2
00000aff 00        11228 	.data.b	0
00000b00 01        11229 	.data.b	1
00000b01 02        11230 	.data.b	2
00000b02 00        11231 	.data.b	0
00000b03 020500    11232 	.data.b	0,5,2
00000b06 00000000* 11233 	.data.w	.LDWlin27
00000b0a 0b        11234 	.data.b	11
00000b0b 0c        11235 	.data.b	12
00000b0c 03        11236 	.data.b	3
00000b0d 0a        11237 	.data.b	10
00000b0e 02        11238 	.data.b	2
00000b0f 00        11239 	.data.b	0
00000b10 01        11240 	.data.b	1
00000b11 03        11241 	.data.b	3
00000b12 04        11242 	.data.b	4
00000b13 02        11243 	.data.b	2
00000b14 00        11244 	.data.b	0
00000b15 01        11245 	.data.b	1
00000b16 020500    11246 	.data.b	0,5,2
00000b19 00000000* 11247 	.data.w	.LDWlin28
00000b1d 0b        11248 	.data.b	11
00000b1e 0b        11249 	.data.b	11
00000b1f 13        11250 	.data.b	19
00000b20 020500    11251 	.data.b	0,5,2
00000b23 00000000* 11252 	.data.w	.LDWlin29
00000b27 03        11253 	.data.b	3
00000b28 1a        11254 	.data.b	26
00000b29 02        11255 	.data.b	2
00000b2a 00        11256 	.data.b	0
00000b2b 01        11257 	.data.b	1

                                                                      Page 226
                                                              C:\Users\Fengyuan\AppData\Local\Temp\gh_0000fuk1.s
00000b2c 02        11258 	.data.b	2
00000b2d 00        11259 	.data.b	0
00000b2e 03        11260 	.data.b	3
00000b2f 04        11261 	.data.b	4
00000b30 02        11262 	.data.b	2
00000b31 00        11263 	.data.b	0
00000b32 01        11264 	.data.b	1
00000b33 02        11265 	.data.b	2
00000b34 00        11266 	.data.b	0
00000b35 02        11267 	.data.b	2
00000b36 00        11268 	.data.b	0
00000b37 02        11269 	.data.b	2
00000b38 00        11270 	.data.b	0
00000b39 03        11271 	.data.b	3
00000b3a 05        11272 	.data.b	5
00000b3b 02        11273 	.data.b	2
00000b3c 00        11274 	.data.b	0
00000b3d 01        11275 	.data.b	1
00000b3e 0b        11276 	.data.b	11
00000b3f 0b        11277 	.data.b	11
00000b40 33        11278 	.data.b	51
00000b41 02        11279 	.data.b	2
00000b42 00        11280 	.data.b	0
00000b43 03        11281 	.data.b	3
00000b44 06        11282 	.data.b	6
00000b45 02        11283 	.data.b	2
00000b46 00        11284 	.data.b	0
00000b47 01        11285 	.data.b	1
00000b48 02        11286 	.data.b	2
00000b49 02        11287 	.data.b	2
00000b4a 010100    11288 	.data.b	0,1,1
                   11289 	.section	.debug_info
                   11290 .LDW_6056338:
00004463 11        11291 	.data.b	17
00004464 49756450  11292 	.data.b	80,100,117,73,100,0
00004468 0064 
0000446a 7ee7      11293 	.data.b	231,126
0000446c 35        11294 	.data.b	53
0000446d 01        11295 	.data.b	1
0000446e 00000000* 11296 	.data.w	.LDW_5e8ef58
00004472 00        11297 	.data.b	0
00004473 5001      11298 	.data.b	1,80
                   11299 
                   11300 .LDW_6056390:
00004475 11        11301 	.data.b	17
00004476 65646f4d  11302 	.data.b	77,111,100,101,0
0000447a 00 
0000447b 7ee7      11303 	.data.b	231,126
0000447d 44        11304 	.data.b	68
0000447e 01        11305 	.data.b	1
0000447f 00000000* 11306 	.data.w	.LDW_49f9738
00004483 00        11307 	.data.b	0
00004484 5101      11308 	.data.b	1,81
                   11309 
                   11310 .LDW_60556c0:
00004486 1f        11311 	.data.b	31
00004487 00000000* 11312 	.data.w	.LDW26
0000448b 00000000* 11313 	.data.w	.LDW36
                   11314 
                   11315 .LDW_6056440:
0000448f 06        11316 	.data.b	6

                                                                      Page 227
                                                              C:\Users\Fengyuan\AppData\Local\Temp\gh_0000fuk1.s
00004490 6f727265  11317 	.data.b	101,114,114,111,114,73,100,0
00004494 00644972 
00004498 7eea      11318 	.data.b	234,126
0000449a 09        11319 	.data.b	9
0000449b 01        11320 	.data.b	1
0000449c 00000000* 11321 	.data.w	.LDW_5e8ef00
000044a0 00        11322 	.data.b	0
000044a1 00        11323 	.data.b	0
000044a2 5301      11324 	.data.b	1,83
                   11325 
000044a4 00        11326 	.data.b	0
                   11327 
000044a5 00        11328 	.data.b	0
                   11329 
                   11330 .LDW_6032bb8:
000044a6 16        11331 	.data.b	22
000044a7 5f6d6f43  11332 	.data.b	67,111,109,95,83,101,110,100,83,105,103,110,97,108,0
000044ab 646e6553 
000044af 6e676953 
000044b3 006c61 
000044b6 01808f    11333 	.data.b	143,128,1
000044b9 17        11334 	.data.b	23
000044ba 01        11335 	.data.b	1
000044bb 00000000* 11336 	.data.w	.LDW_5e8ef00
000044bf 00000000* 11337 	.data.w	Com_SendSignal
000044c3 00000000* 11338 	.data.w	__ghs_eofn_Com_SendSignal
000044c7 5d01      11339 	.data.b	1,93
000044c9 0181f0    11340 	.data.b	240,129,1
000044cc 70        11341 	.data.b	112
000044cd 00        11342 	.data.b	0
000044ce 10        11343 	.data.b	16
000044cf 01        11344 	.data.b	1
000044d0 00        11345 	.data.b	0
000044d1 00        11346 	.data.b	0
000044d2 01        11347 	.data.b	1
000044d3 01        11348 	.data.b	1
000044d4 00        11349 	.data.b	0
000044d5 01        11350 	.data.b	1
                   11351 
                   11352 	.section	.debug_frame
                   11353 .LDW_5dd1e40:
000002d0 00000000* 11354 	.data.w	.LDW_unq_34-.LDW_unq_33
                   11355 .LDW_unq_33:
000002d4 00000000* 11356 	.data.w	.LDW_5f79490
000002d8 00000000* 11357 	.data.w	Com_SendSignal
000002dc 00000080  11358 	.data.w	__ghs_eofn_Com_SendSignal-Com_SendSignal
000002e0 01        11359 	.data.b	1
000002e1 00000000* 11360 	.data.w	.LDW56
000002e5 00        11361 	.data.b	0
000002e6 00        11362 	.data.b	0
000002e7 00        11363 	.data.b	0
                   11364 .LDW_unq_34:
                   11365 	.section	.debug_line
00000b4d 020500    11366 	.data.b	0,5,2
00000b50 00000000* 11367 	.data.w	Com_SendSignal
00000b54 06        11368 	.data.b	6
00000b55 03        11369 	.data.b	3
00000b56 01808f    11370 	.data.b	143,128,1
00000b59 02        11371 	.data.b	2
00000b5a 00        11372 	.data.b	0
00000b5b 01        11373 	.data.b	1

                                                                      Page 228
                                                              C:\Users\Fengyuan\AppData\Local\Temp\gh_0000fuk1.s
00000b5c 25        11374 	.data.b	37
00000b5d 03        11375 	.data.b	3
00000b5e 04        11376 	.data.b	4
00000b5f 02        11377 	.data.b	2
00000b60 02        11378 	.data.b	2
00000b61 01        11379 	.data.b	1
00000b62 2b        11380 	.data.b	43
00000b63 0c        11381 	.data.b	12
00000b64 03        11382 	.data.b	3
00000b65 04        11383 	.data.b	4
00000b66 02        11384 	.data.b	2
00000b67 00        11385 	.data.b	0
00000b68 01        11386 	.data.b	1
00000b69 02        11387 	.data.b	2
00000b6a 00        11388 	.data.b	0
00000b6b 020500    11389 	.data.b	0,5,2
00000b6e 00000000* 11390 	.data.w	.LDWlin30
00000b72 0b        11391 	.data.b	11
00000b73 0c        11392 	.data.b	12
00000b74 03        11393 	.data.b	3
00000b75 08        11394 	.data.b	8
00000b76 02        11395 	.data.b	2
00000b77 00        11396 	.data.b	0
00000b78 01        11397 	.data.b	1
00000b79 02        11398 	.data.b	2
00000b7a 00        11399 	.data.b	0
00000b7b 1b        11400 	.data.b	27
00000b7c 0c        11401 	.data.b	12
00000b7d 0d        11402 	.data.b	13
00000b7e 0d        11403 	.data.b	13
00000b7f 1c        11404 	.data.b	28
00000b80 020500    11405 	.data.b	0,5,2
00000b83 00000000* 11406 	.data.w	.LDWlin31
00000b87 0b        11407 	.data.b	11
00000b88 020500    11408 	.data.b	0,5,2
00000b8b 00000000* 11409 	.data.w	.LDWlin32
00000b8f 03        11410 	.data.b	3
00000b90 04        11411 	.data.b	4
00000b91 02        11412 	.data.b	2
00000b92 00        11413 	.data.b	0
00000b93 01        11414 	.data.b	1
00000b94 02        11415 	.data.b	2
00000b95 00        11416 	.data.b	0
00000b96 02        11417 	.data.b	2
00000b97 00        11418 	.data.b	0
00000b98 02        11419 	.data.b	2
00000b99 00        11420 	.data.b	0
00000b9a 02        11421 	.data.b	2
00000b9b 00        11422 	.data.b	0
00000b9c 02        11423 	.data.b	2
00000b9d 00        11424 	.data.b	0
00000b9e 03        11425 	.data.b	3
00000b9f 04        11426 	.data.b	4
00000ba0 02        11427 	.data.b	2
00000ba1 00        11428 	.data.b	0
00000ba2 01        11429 	.data.b	1
00000ba3 0b        11430 	.data.b	11
00000ba4 0b        11431 	.data.b	11
00000ba5 33        11432 	.data.b	51
00000ba6 02        11433 	.data.b	2
00000ba7 00        11434 	.data.b	0

                                                                      Page 229
                                                              C:\Users\Fengyuan\AppData\Local\Temp\gh_0000fuk1.s
00000ba8 03        11435 	.data.b	3
00000ba9 07        11436 	.data.b	7
00000baa 02        11437 	.data.b	2
00000bab 00        11438 	.data.b	0
00000bac 01        11439 	.data.b	1
00000bad 06        11440 	.data.b	6
00000bae 02        11441 	.data.b	2
00000baf 02        11442 	.data.b	2
00000bb0 02        11443 	.data.b	2
00000bb1 02        11444 	.data.b	2
00000bb2 010100    11445 	.data.b	0,1,1
                   11446 	.section	.debug_info
                   11447 .LDW_6055cb0:
000044d6 11        11448 	.data.b	17
000044d7 6e676953  11449 	.data.b	83,105,103,110,97,108,73,100,0
000044db 64496c61 
000044df 00 
000044e0 01808f    11450 	.data.b	143,128,1
000044e3 37        11451 	.data.b	55
000044e4 01        11452 	.data.b	1
000044e5 00000000* 11453 	.data.w	.LDW_5ef2748
000044e9 00        11454 	.data.b	0
000044ea 5601      11455 	.data.b	1,86
                   11456 
                   11457 .LDW_6056498:
000044ec 11        11458 	.data.b	17
000044ed 6e676953  11459 	.data.b	83,105,103,110,97,108,68,97,116,97,80,116,114,0
000044f1 61446c61 
000044f5 74506174 
000044f9 0072 
000044fb 01808f    11460 	.data.b	143,128,1
000044fe 69        11461 	.data.b	105
000044ff 01        11462 	.data.b	1
00004500 00000000* 11463 	.data.w	.LDW_6033570
00004504 00        11464 	.data.b	0
00004505 5501      11465 	.data.b	1,85
                   11466 
                   11467 .LDW_6055660:
00004507 1f        11468 	.data.b	31
00004508 00000000* 11469 	.data.w	.LDW46
0000450c 00000000* 11470 	.data.w	.LDW56
                   11471 
                   11472 .LDW_6055c00:
00004510 06        11473 	.data.b	6
00004511 6f727265  11474 	.data.b	101,114,114,111,114,73,100,0
00004515 00644972 
00004519 018092    11475 	.data.b	146,128,1
0000451c 09        11476 	.data.b	9
0000451d 01        11477 	.data.b	1
0000451e 00000000* 11478 	.data.w	.LDW_5e8ef00
00004522 00        11479 	.data.b	0
00004523 00        11480 	.data.b	0
00004524 5301      11481 	.data.b	1,83
                   11482 
                   11483 .LDW_6055c58:
00004526 06        11484 	.data.b	6
00004527 56746572  11485 	.data.b	114,101,116,86,97,108,0
0000452b 006c61 
0000452e 018093    11486 	.data.b	147,128,1
00004531 09        11487 	.data.b	9
00004532 01        11488 	.data.b	1

                                                                      Page 230
                                                              C:\Users\Fengyuan\AppData\Local\Temp\gh_0000fuk1.s
00004533 00000000* 11489 	.data.w	.LDW_5e8ef00
00004537 00        11490 	.data.b	0
00004538 00        11491 	.data.b	0
00004539 5401      11492 	.data.b	1,84
                   11493 
0000453b 00        11494 	.data.b	0
                   11495 
0000453c 00        11496 	.data.b	0
                   11497 
                   11498 .LDW_6032d80:
0000453d 16        11499 	.data.b	22
0000453e 5f6d6f43  11500 	.data.b	67,111,109,95,83,101,110,100,83,105,103,110,97,108,71,114,111,117,112,0
00004542 646e6553 
00004546 6e676953 
0000454a 72476c61 
0000454e 0070756f 
00004552 0180d5    11501 	.data.b	213,128,1
00004555 17        11502 	.data.b	23
00004556 01        11503 	.data.b	1
00004557 00000000* 11504 	.data.w	.LDW_5e8ef00
0000455b 00000000* 11505 	.data.w	Com_SendSignalGroup
0000455f 00000000* 11506 	.data.w	__ghs_eofn_Com_SendSignalGroup
00004563 5d01      11507 	.data.b	1,93
00004565 018090    11508 	.data.b	144,128,1
00004568 7c        11509 	.data.b	124
00004569 00        11510 	.data.b	0
0000456a 04        11511 	.data.b	4
0000456b 01        11512 	.data.b	1
0000456c 00        11513 	.data.b	0
0000456d 00        11514 	.data.b	0
0000456e 01        11515 	.data.b	1
0000456f 01        11516 	.data.b	1
00004570 00        11517 	.data.b	0
00004571 01        11518 	.data.b	1
                   11519 
                   11520 	.section	.debug_frame
                   11521 .LDW_5dd1b00:
000002e8 00000000* 11522 	.data.w	.LDW_unq_36-.LDW_unq_35
                   11523 .LDW_unq_35:
000002ec 00000000* 11524 	.data.w	.LDW_5f79490
000002f0 00000000* 11525 	.data.w	Com_SendSignalGroup
000002f4 0000001a  11526 	.data.w	__ghs_eofn_Com_SendSignalGroup-Com_SendSignalGroup
000002f8 01        11527 	.data.b	1
000002f9 00000000* 11528 	.data.w	.LDW76
000002fd 00        11529 	.data.b	0
000002fe 00        11530 	.data.b	0
000002ff 00        11531 	.data.b	0
                   11532 .LDW_unq_36:
                   11533 	.section	.debug_line
00000bb5 020500    11534 	.data.b	0,5,2
00000bb8 00000000* 11535 	.data.w	Com_SendSignalGroup
00000bbc 06        11536 	.data.b	6
00000bbd 03        11537 	.data.b	3
00000bbe 0180d5    11538 	.data.b	213,128,1
00000bc1 02        11539 	.data.b	2
00000bc2 00        11540 	.data.b	0
00000bc3 01        11541 	.data.b	1
00000bc4 03        11542 	.data.b	3
00000bc5 07        11543 	.data.b	7
00000bc6 02        11544 	.data.b	2
00000bc7 02        11545 	.data.b	2

                                                                      Page 231
                                                              C:\Users\Fengyuan\AppData\Local\Temp\gh_0000fuk1.s
00000bc8 01        11546 	.data.b	1
00000bc9 2d        11547 	.data.b	45
00000bca 03        11548 	.data.b	3
00000bcb 17        11549 	.data.b	23
00000bcc 02        11550 	.data.b	2
00000bcd 00        11551 	.data.b	0
00000bce 01        11552 	.data.b	1
00000bcf 03        11553 	.data.b	3
00000bd0 10        11554 	.data.b	16
00000bd1 02        11555 	.data.b	2
00000bd2 00        11556 	.data.b	0
00000bd3 01        11557 	.data.b	1
00000bd4 14        11558 	.data.b	20
00000bd5 02        11559 	.data.b	2
00000bd6 00        11560 	.data.b	0
00000bd7 03        11561 	.data.b	3
00000bd8 04        11562 	.data.b	4
00000bd9 02        11563 	.data.b	2
00000bda 00        11564 	.data.b	0
00000bdb 01        11565 	.data.b	1
00000bdc 0b        11566 	.data.b	11
00000bdd 0b        11567 	.data.b	11
00000bde 33        11568 	.data.b	51
00000bdf 02        11569 	.data.b	2
00000be0 00        11570 	.data.b	0
00000be1 03        11571 	.data.b	3
00000be2 06        11572 	.data.b	6
00000be3 02        11573 	.data.b	2
00000be4 00        11574 	.data.b	0
00000be5 01        11575 	.data.b	1
00000be6 06        11576 	.data.b	6
00000be7 02        11577 	.data.b	2
00000be8 02        11578 	.data.b	2
00000be9 02        11579 	.data.b	2
00000bea 02        11580 	.data.b	2
00000beb 010100    11581 	.data.b	0,1,1
                   11582 	.section	.debug_info
                   11583 .LDW_6056020:
00004572 11        11584 	.data.b	17
00004573 6e676953  11585 	.data.b	83,105,103,110,97,108,71,114,111,117,112,73,100,0
00004577 72476c61 
0000457b 4970756f 
0000457f 0064 
00004581 0180d5    11586 	.data.b	213,128,1
00004584 41        11587 	.data.b	65
00004585 01        11588 	.data.b	1
00004586 00000000* 11589 	.data.w	.LDW_6056230
0000458a 00        11590 	.data.b	0
0000458b 5001      11591 	.data.b	1,80
                   11592 
                   11593 .LDW_6055600:
0000458d 1f        11594 	.data.b	31
0000458e 00000000* 11595 	.data.w	.LDW66
00004592 00000000* 11596 	.data.w	.LDW76
                   11597 
                   11598 .LDW_6055d08:
00004596 06        11599 	.data.b	6
00004597 6f727265  11600 	.data.b	101,114,114,111,114,73,100,0
0000459b 00644972 
0000459f 0180d8    11601 	.data.b	216,128,1
000045a2 09        11602 	.data.b	9

                                                                      Page 232
                                                              C:\Users\Fengyuan\AppData\Local\Temp\gh_0000fuk1.s
000045a3 01        11603 	.data.b	1
000045a4 00000000* 11604 	.data.w	.LDW_5e8ef00
000045a8 00        11605 	.data.b	0
000045a9 00        11606 	.data.b	0
000045aa 5301      11607 	.data.b	1,83
                   11608 
                   11609 .LDW_6055db8:
000045ac 07        11610 	.data.b	7
000045ad 56746572  11611 	.data.b	114,101,116,86,97,108,0
000045b1 006c61 
000045b4 0180d9    11612 	.data.b	217,128,1
000045b7 09        11613 	.data.b	9
000045b8 01        11614 	.data.b	1
000045b9 00000000* 11615 	.data.w	.LDW_5e8ef00
000045bd 00        11616 	.data.b	0
000045be 00        11617 	.data.b	0
                   11618 
000045bf 00        11619 	.data.b	0
                   11620 
000045c0 00        11621 	.data.b	0
                   11622 
000045c1 00        11623 	.data.b	0
                   11624 
                   11625 	.section	.debug_line
                   11626 .Ldw_line_end:
                   11627 	.section	.debug_macinfo
00000000 03        11628 	.data.b	3
00000001 00        11629 	.data.b	0
00000002 01        11630 	.data.b	1
00000003 03        11631 	.data.b	3
00000004 37        11632 	.data.b	55
00000005 02        11633 	.data.b	2
00000006 03        11634 	.data.b	3
00000007 01df      11635 	.data.b	223,1
00000009 03        11636 	.data.b	3
0000000a 03        11637 	.data.b	3
0000000b 2b        11638 	.data.b	43
0000000c 04        11639 	.data.b	4
0000000d 03        11640 	.data.b	3
0000000e 2b        11641 	.data.b	43
0000000f 05        11642 	.data.b	5
00000010 03        11643 	.data.b	3
00000011 4a        11644 	.data.b	74
00000012 06        11645 	.data.b	6
00000013 03        11646 	.data.b	3
00000014 3f        11647 	.data.b	63
00000015 07        11648 	.data.b	7
00000016 01        11649 	.data.b	1
00000017 61        11650 	.data.b	97
00000018 48474948  11651 	.data.b	72,73,71,72,95,66,89,84,69,95,70,73,82,83,84,32,48,117,0
0000001c 5459425f 
00000020 49465f45 
00000024 20545352 
00000028 007530 
0000002b 01        11652 	.data.b	1
0000002c 62        11653 	.data.b	98
0000002d 5f574f4c  11654 	.data.b	76,79,87,95,66,89,84,69,95,70,73,82,83,84,32,49,117,0
00000031 45545942 
00000035 5249465f 
00000039 31205453 
0000003d 0075 

                                                                      Page 233
                                                              C:\Users\Fengyuan\AppData\Local\Temp\gh_0000fuk1.s
0000003f 01        11655 	.data.b	1
00000040 65        11656 	.data.b	101
00000041 45555254  11657 	.data.b	84,82,85,69,32,49,117,0
00000045 00753120 
00000049 01        11658 	.data.b	1
0000004a 69        11659 	.data.b	105
0000004b 534c4146  11660 	.data.b	70,65,76,83,69,32,48,117,0
0000004f 75302045 
00000053 00 
00000054 01        11661 	.data.b	1
00000055 6e        11662 	.data.b	110
00000056 5f555043  11663 	.data.b	67,80,85,95,66,89,84,69,95,79,82,68,69,82,32,76,79,87,95,66,89,84,69,95,70,73,82,83,84,0
0000005a 45545942 
0000005e 44524f5f 
00000062 4c205245 
00000066 425f574f 
0000006a 5f455459 
0000006e 53524946 
00000072 0054 
00000074 04        11664 	.data.b	4
00000075 03        11665 	.data.b	3
00000076 40        11666 	.data.b	64
00000077 08        11667 	.data.b	8
00000078 03        11668 	.data.b	3
00000079 3e        11669 	.data.b	62
0000007a 09        11670 	.data.b	9
0000007b 03        11671 	.data.b	3
0000007c 7f        11672 	.data.b	127
0000007d 0a        11673 	.data.b	10
0000007e 04        11674 	.data.b	4
0000007f 03        11675 	.data.b	3
00000080 01d6      11676 	.data.b	214,1
00000082 0b        11677 	.data.b	11
00000083 04        11678 	.data.b	4
00000084 03        11679 	.data.b	3
00000085 01d7      11680 	.data.b	215,1
00000087 0c        11681 	.data.b	12
00000088 04        11682 	.data.b	4
00000089 03        11683 	.data.b	3
0000008a 06c5      11684 	.data.b	197,6
0000008c 0d        11685 	.data.b	13
0000008d 04        11686 	.data.b	4
0000008e 04        11687 	.data.b	4
0000008f 01        11688 	.data.b	1
00000090 5b        11689 	.data.b	91
00000091 4f545541  11690 	.data.b	65,85,84,79,77,65,84,73,67,32,0
00000095 4954414d 
00000099 002043 
0000009c 01        11691 	.data.b	1
0000009d 5e        11692 	.data.b	94
0000009e 45505954  11693 	.data.b	84,89,80,69,68,69,70,32,0
000000a2 20464544 
000000a6 00 
000000a7 01        11694 	.data.b	1
000000a8 63        11695 	.data.b	99
000000a9 4c4c554e  11696 	.data.b	78,85,76,76,95,80,84,82,32,40,40,118,111,105,100,32,42,41,48,41,0
000000ad 5254505f 
000000b1 76282820 
000000b5 2064696f 
000000b9 2930292a 
000000bd 00 

                                                                      Page 234
                                                              C:\Users\Fengyuan\AppData\Local\Temp\gh_0000fuk1.s
000000be 01        11697 	.data.b	1
000000bf 6f        11698 	.data.b	111
000000c0 41434f4c  11699 	.data.b	76,79,67,65,76,95,73,78,76,73,78,69,32,115,116,97,116,105,99,32,105,110,108,105,110,101,0
000000c4 4e495f4c 
000000c8 454e494c 
000000cc 61747320 
000000d0 20636974 
000000d4 696c6e69 
000000d8 00656e 
000000db 01        11700 	.data.b	1
000000dc 75        11701 	.data.b	117
000000dd 434e5546  11702 	.data.b	70,85,78,67,40,114,101,116,116,121,112,101,44,109,101,109,99,108,97,115,115,41,32,114,101,116,116,121,112,101,0
000000e1 74657228 
000000e5 65707974 
000000e9 6d656d2c 
000000ed 73616c63 
000000f1 72202973 
000000f5 79747465 
000000f9 006570 
000000fc 01        11703 	.data.b	1
000000fd 7c        11704 	.data.b	124
000000fe 434e5546  11705 	.data.b	70,85,78,67,95,80,50,67,79,78,83,84,40,114,101,116,116,121,112,101,44,112,116,114,99,108,97,115,115,44,109,101,109,99,108,97,115,115,41,32,99,111,110,115,116,32,114,101,116,116,121,112,101,42,0
00000102 4332505f 
00000106 54534e4f 
0000010a 74657228 
0000010e 65707974 
00000112 7274702c 
00000116 73616c63 
0000011a 656d2c73 
0000011e 616c636d 
00000122 20297373 
00000126 736e6f63 
0000012a 65722074 
0000012e 70797474 
00000132 002a65 
00000135 01        11706 	.data.b	1
00000136 018a      11707 	.data.b	138,1
00000138 41563250  11708 	.data.b	80,50,86,65,82,40,112,116,114,116,121,112,101,44,109,101,109,99,108,97,115,115,44,112,116,114,99,108,97,115,115,41,32,112,116,114,116,121,112,101,42,0
0000013c 74702852 
00000140 70797472 
00000144 656d2c65 
00000148 616c636d 
0000014c 702c7373 
00000150 6c637274 
00000154 29737361 
00000158 72747020 
0000015c 65707974 
00000160 002a 
00000162 01        11709 	.data.b	1
00000163 0191      11710 	.data.b	145,1
00000165 4f433250  11711 	.data.b	80,50,67,79,78,83,84,40,112,116,114,116,121,112,101,44,109,101,109,99,108,97,115,115,44,112,116,114,99,108,97,115,115,41,32,99,111,110,115,116,32,112,116,114,116,121,112,101,42,0
00000169 2854534e 
0000016d 74727470 
00000171 2c657079 
00000175 636d656d 
00000179 7373616c 
0000017d 7274702c 
00000181 73616c63 
00000185 63202973 
00000189 74736e6f 
0000018d 72747020 

                                                                      Page 235
                                                              C:\Users\Fengyuan\AppData\Local\Temp\gh_0000fuk1.s
00000191 65707974 
00000195 002a 
00000197 01        11712 	.data.b	1
00000198 019f      11713 	.data.b	159,1
0000019a 534e4f43  11714 	.data.b	67,79,78,83,84,80,50,67,79,78,83,84,40,112,116,114,116,121,112,101,44,109,101,109,99,108,97,115,115,44,112,116,114,99,108,97,115,115,41,32,99,111,110,115,116,32,112,116,114,116,121,112,101,42,32,99,111,110,115,116
0000019e 43325054 
000001a2 54534e4f 
000001a6 72747028 
000001aa 65707974 
000001ae 6d656d2c 
000001b2 73616c63 
000001b6 74702c73 
000001ba 616c6372 
000001be 20297373 
000001c2 736e6f63 
000001c6 74702074 
000001ca 70797472 
000001ce 63202a65 
000001d2 74736e6f 
000001d6 00        11715 	.data.b	0
000001d7 01        11716 	.data.b	1
000001d8 01a6      11717 	.data.b	166,1
000001da 55463250  11718 	.data.b	80,50,70,85,78,67,40,114,101,116,116,121,112,101,44,112,116,114,99,108,97,115,115,44,102,99,116,110,97,109,101,41,32,114,101,116,116,121,112,101,32,40,42,32,102,99,116,110,97,109,101,41,0
000001de 7228434e 
000001e2 79747465 
000001e6 702c6570 
000001ea 6c637274 
000001ee 2c737361 
000001f2 6e746366 
000001f6 29656d61 
000001fa 74657220 
000001fe 65707974 
00000202 202a2820 
00000206 6e746366 
0000020a 29656d61 
0000020e 00 
0000020f 01        11719 	.data.b	1
00000210 01b6      11720 	.data.b	182,1
00000212 534e4f43  11721 	.data.b	67,79,78,83,84,40,116,121,112,101,44,109,101,109,99,108,97,115,115,41,32,99,111,110,115,116,32,116,121,112,101,0
00000216 79742854 
0000021a 6d2c6570 
0000021e 6c636d65 
00000222 29737361 
00000226 6e6f6320 
0000022a 74207473 
0000022e 00657079 
00000232 01        11722 	.data.b	1
00000233 01bc      11723 	.data.b	188,1
00000235 28524156  11724 	.data.b	86,65,82,40,118,97,114,116,121,112,101,44,109,101,109,99,108,97,115,115,41,32,118,97,114,116,121,112,101,0
00000239 74726176 
0000023d 2c657079 
00000241 636d656d 
00000245 7373616c 
00000249 61762029 
0000024d 70797472 
00000251 0065 
00000253 04        11725 	.data.b	4
00000254 01        11726 	.data.b	1
00000255 6d        11727 	.data.b	109
00000256 5f445453  11728 	.data.b	83,84,68,95,79,78,32,49,117,0
0000025a 31204e4f 

                                                                      Page 236
                                                              C:\Users\Fengyuan\AppData\Local\Temp\gh_0000fuk1.s
0000025e 0075 
00000260 01        11729 	.data.b	1
00000261 6e        11730 	.data.b	110
00000262 5f445453  11731 	.data.b	83,84,68,95,79,70,70,32,48,117,0
00000266 2046464f 
0000026a 007530 
0000026d 01        11732 	.data.b	1
0000026e 7c        11733 	.data.b	124
0000026f 4b4f5f45  11734 	.data.b	69,95,79,75,32,48,117,0
00000273 00753020 
00000277 04        11735 	.data.b	4
00000278 03        11736 	.data.b	3
00000279 4c        11737 	.data.b	76
0000027a 0e        11738 	.data.b	14
0000027b 04        11739 	.data.b	4
0000027c 01        11740 	.data.b	1
0000027d 5a        11741 	.data.b	90
0000027e 534d4f43  11742 	.data.b	67,79,77,83,84,65,67,75,84,89,80,69,95,65,82,95,82,69,76,69,65,83,69,95,82,69,86,73,83,73,79,78,95,86,69,82,83,73,79,78,32,40,51,117,41,0
00000282 4b434154 
00000286 45505954 
0000028a 5f52415f 
0000028e 454c4552 
00000292 5f455341 
00000296 49564552 
0000029a 4e4f4953 
0000029e 5245565f 
000002a2 4e4f4953 
000002a6 75332820 
000002aa 0029 
000002ac 04        11743 	.data.b	4
000002ad 04        11744 	.data.b	4
000002ae 03        11745 	.data.b	3
000002af 2c        11746 	.data.b	44
000002b0 0f        11747 	.data.b	15
000002b1 04        11748 	.data.b	4
000002b2 03        11749 	.data.b	3
000002b3 2d        11750 	.data.b	45
000002b4 10        11751 	.data.b	16
000002b5 03        11752 	.data.b	3
000002b6 2b        11753 	.data.b	43
000002b7 11        11754 	.data.b	17
000002b8 03        11755 	.data.b	3
000002b9 40        11756 	.data.b	64
000002ba 12        11757 	.data.b	18
000002bb 04        11758 	.data.b	4
000002bc 03        11759 	.data.b	3
000002bd 49        11760 	.data.b	73
000002be 12        11761 	.data.b	18
000002bf 04        11762 	.data.b	4
000002c0 04        11763 	.data.b	4
000002c1 03        11764 	.data.b	3
000002c2 5a        11765 	.data.b	90
000002c3 12        11766 	.data.b	18
000002c4 04        11767 	.data.b	4
000002c5 03        11768 	.data.b	3
000002c6 7e        11769 	.data.b	126
000002c7 12        11770 	.data.b	18
000002c8 04        11771 	.data.b	4
000002c9 04        11772 	.data.b	4
000002ca 03        11773 	.data.b	3
000002cb 2e        11774 	.data.b	46

                                                                      Page 237
                                                              C:\Users\Fengyuan\AppData\Local\Temp\gh_0000fuk1.s
000002cc 13        11775 	.data.b	19
000002cd 03        11776 	.data.b	3
000002ce 2a        11777 	.data.b	42
000002cf 14        11778 	.data.b	20
000002d0 01        11779 	.data.b	1
000002d1 24        11780 	.data.b	36
000002d2 52554450  11781 	.data.b	80,68,85,82,95,77,65,88,95,78,85,77,66,69,82,95,79,70,95,67,79,82,69,83,32,49,0
000002d6 58414d5f 
000002da 4d554e5f 
000002de 5f524542 
000002e2 435f464f 
000002e6 5345524f 
000002ea 003120 
000002ed 04        11782 	.data.b	4
000002ee 04        11783 	.data.b	4
000002ef 01        11784 	.data.b	1
000002f0 38        11785 	.data.b	56
000002f1 5f4d4f43  11786 	.data.b	67,79,77,95,68,85,77,77,89,95,83,84,65,84,69,77,69,78,84,40,118,41,32,40,118,41,61,40,118,41,0
000002f5 4d4d5544 
000002f9 54535f59 
000002fd 4d455441 
00000301 28544e45 
00000305 28202976 
00000309 283d2976 
0000030d 002976 
00000310 01        11787 	.data.b	1
00000311 3b        11788 	.data.b	59
00000312 5f4d4f43  11789 	.data.b	67,79,77,95,68,85,77,77,89,95,83,84,65,84,69,77,69,78,84,95,67,79,78,83,84,40,118,41,32,40,118,111,105,100,41,40,118,41,0
00000316 4d4d5544 
0000031a 54535f59 
0000031e 4d455441 
00000322 5f544e45 
00000326 534e4f43 
0000032a 29762854 
0000032e 6f762820 
00000332 28296469 
00000336 002976 
00000339 01        11790 	.data.b	1
0000033a 69        11791 	.data.b	105
0000033b 5f4d4f43  11792 	.data.b	67,79,77,95,65,67,84,73,86,65,84,65,66,76,69,82,88,67,79,77,73,80,68,85,83,32,83,84,68,95,79,78,0
0000033f 49544341 
00000343 41544156 
00000347 52454c42 
0000034b 4d4f4358 
0000034f 55445049 
00000353 54532053 
00000357 4e4f5f44 
0000035b 00 
0000035c 01        11793 	.data.b	1
0000035d 6b        11794 	.data.b	107
0000035e 5f4d4f43  11795 	.data.b	67,79,77,95,65,67,84,73,86,65,84,65,66,76,69,84,88,67,79,77,73,80,68,85,83,32,83,84,68,95,79,78,0
00000362 49544341 
00000366 41544156 
0000036a 54454c42 
0000036e 4d4f4358 
00000372 55445049 
00000376 54532053 
0000037a 4e4f5f44 
0000037e 00 
0000037f 01        11796 	.data.b	1
00000380 6d        11797 	.data.b	109

                                                                      Page 238
                                                              C:\Users\Fengyuan\AppData\Local\Temp\gh_0000fuk1.s
00000381 5f4d4f43  11798 	.data.b	67,79,77,95,65,76,87,65,89,83,65,67,84,73,86,69,82,88,67,79,77,73,80,68,85,83,32,83,84,68,95,79,70,70,0
00000385 41574c41 
00000389 43415359 
0000038d 45564954 
00000391 4f435852 
00000395 4450494d 
00000399 53205355 
0000039d 4f5f4454 
000003a1 004646 
000003a4 01        11799 	.data.b	1
000003a5 6f        11800 	.data.b	111
000003a6 5f4d4f43  11801 	.data.b	67,79,77,95,65,76,87,65,89,83,65,67,84,73,86,69,84,88,67,79,77,73,80,68,85,83,32,83,84,68,95,79,70,70,0
000003aa 41574c41 
000003ae 43415359 
000003b2 45564954 
000003b6 4f435854 
000003ba 4450494d 
000003be 53205355 
000003c2 4f5f4454 
000003c6 004646 
000003c9 01        11802 	.data.b	1
000003ca 018f      11803 	.data.b	143,1
000003cc 5f4d4f43  11804 	.data.b	67,79,77,95,68,73,82,69,67,84,84,82,73,71,71,69,82,32,83,84,68,95,79,70,70,0
000003d0 45524944 
000003d4 52545443 
000003d8 45474749 
000003dc 54532052 
000003e0 464f5f44 
000003e4 0046 
000003e6 01        11805 	.data.b	1
000003e7 0190      11806 	.data.b	144,1
000003e9 5f4d4f43  11807 	.data.b	67,79,77,95,70,73,76,84,69,82,73,78,70,79,95,70,76,79,65,84,51,50,32,83,84,68,95,79,70,70,0
000003ed 544c4946 
000003f1 4e495245 
000003f5 465f4f46 
000003f9 54414f4c 
000003fd 53203233 
00000401 4f5f4454 
00000405 004646 
00000408 01        11808 	.data.b	1
00000409 0196      11809 	.data.b	150,1
0000040b 5f4d4f43  11810 	.data.b	67,79,77,95,70,73,76,84,69,82,73,78,70,79,95,70,76,79,65,84,54,52,32,83,84,68,95,79,70,70,0
0000040f 544c4946 
00000413 4e495245 
00000417 465f4f46 
0000041b 54414f4c 
0000041f 53203436 
00000423 4f5f4454 
00000427 004646 
0000042a 01        11811 	.data.b	1
0000042b 019c      11812 	.data.b	156,1
0000042d 5f4d4f43  11813 	.data.b	67,79,77,95,70,73,76,84,69,82,73,78,70,79,95,83,73,78,84,49,54,32,83,84,68,95,79,70,70,0
00000431 544c4946 
00000435 4e495245 
00000439 535f4f46 
0000043d 31544e49 
00000441 54532036 
00000445 464f5f44 
00000449 0046 
0000044b 01        11814 	.data.b	1
0000044c 01a2      11815 	.data.b	162,1

                                                                      Page 239
                                                              C:\Users\Fengyuan\AppData\Local\Temp\gh_0000fuk1.s
0000044e 5f4d4f43  11816 	.data.b	67,79,77,95,70,73,76,84,69,82,73,78,70,79,95,83,73,78,84,51,50,32,83,84,68,95,79,70,70,0
00000452 544c4946 
00000456 4e495245 
0000045a 535f4f46 
0000045e 33544e49 
00000462 54532032 
00000466 464f5f44 
0000046a 0046 
0000046c 01        11817 	.data.b	1
0000046d 01a8      11818 	.data.b	168,1
0000046f 5f4d4f43  11819 	.data.b	67,79,77,95,70,73,76,84,69,82,73,78,70,79,95,83,73,78,84,54,52,32,83,84,68,95,79,70,70,0
00000473 544c4946 
00000477 4e495245 
0000047b 535f4f46 
0000047f 36544e49 
00000483 54532034 
00000487 464f5f44 
0000048b 0046 
0000048d 01        11820 	.data.b	1
0000048e 01ae      11821 	.data.b	174,1
00000490 5f4d4f43  11822 	.data.b	67,79,77,95,70,73,76,84,69,82,73,78,70,79,95,83,73,78,84,56,32,83,84,68,95,79,70,70,0
00000494 544c4946 
00000498 4e495245 
0000049c 535f4f46 
000004a0 38544e49 
000004a4 44545320 
000004a8 46464f5f 
000004ac 00 
000004ad 01        11823 	.data.b	1
000004ae 01b4      11824 	.data.b	180,1
000004b0 5f4d4f43  11825 	.data.b	67,79,77,95,70,73,76,84,69,82,73,78,70,79,95,85,73,78,84,49,54,32,83,84,68,95,79,70,70,0
000004b4 544c4946 
000004b8 4e495245 
000004bc 555f4f46 
000004c0 31544e49 
000004c4 54532036 
000004c8 464f5f44 
000004cc 0046 
000004ce 01        11826 	.data.b	1
000004cf 01ba      11827 	.data.b	186,1
000004d1 5f4d4f43  11828 	.data.b	67,79,77,95,70,73,76,84,69,82,73,78,70,79,95,85,73,78,84,51,50,32,83,84,68,95,79,70,70,0
000004d5 544c4946 
000004d9 4e495245 
000004dd 555f4f46 
000004e1 33544e49 
000004e5 54532032 
000004e9 464f5f44 
000004ed 0046 
000004ef 01        11829 	.data.b	1
000004f0 01c0      11830 	.data.b	192,1
000004f2 5f4d4f43  11831 	.data.b	67,79,77,95,70,73,76,84,69,82,73,78,70,79,95,85,73,78,84,54,52,32,83,84,68,95,79,70,70,0
000004f6 544c4946 
000004fa 4e495245 
000004fe 555f4f46 
00000502 36544e49 
00000506 54532034 
0000050a 464f5f44 
0000050e 0046 
00000510 01        11832 	.data.b	1
00000511 01c6      11833 	.data.b	198,1
00000513 5f4d4f43  11834 	.data.b	67,79,77,95,70,73,76,84,69,82,73,78,70,79,95,85,73,78,84,56,32,83,84,68,95,79,70,70,0

                                                                      Page 240
                                                              C:\Users\Fengyuan\AppData\Local\Temp\gh_0000fuk1.s
00000517 544c4946 
0000051b 4e495245 
0000051f 555f4f46 
00000523 38544e49 
00000527 44545320 
0000052b 46464f5f 
0000052f 00 
00000530 01        11835 	.data.b	1
00000531 01cc      11836 	.data.b	204,1
00000533 5f4d4f43  11837 	.data.b	67,79,77,95,70,73,76,84,69,82,73,78,70,79,95,85,73,78,84,56,95,78,32,83,84,68,95,79,70,70,0
00000537 544c4946 
0000053b 4e495245 
0000053f 555f4f46 
00000543 38544e49 
00000547 53204e5f 
0000054b 4f5f4454 
0000054f 004646 
00000552 01        11838 	.data.b	1
00000553 01df      11839 	.data.b	223,1
00000555 5f4d4f43  11840 	.data.b	67,79,77,95,82,88,85,66,77,65,83,75,85,83,69,68,79,70,71,87,68,69,83,67,82,73,80,84,73,79,78,65,67,67,69,83,83,73,78,70,79,32,83,84,68,95,79,70,70,0
00000559 42555852 
0000055d 4b53414d 
00000561 44455355 
00000565 5747464f 
00000569 43534544 
0000056d 54504952 
00000571 414e4f49 
00000575 53454343 
00000579 464e4953 
0000057d 5453204f 
00000581 464f5f44 
00000585 0046 
00000587 01        11841 	.data.b	1
00000588 01ef      11842 	.data.b	239,1
0000058a 5f4d4f43  11843 	.data.b	67,79,77,95,71,87,69,86,69,78,84,67,65,67,72,69,32,83,84,68,95,79,70,70,0
0000058e 56455747 
00000592 43544e45 
00000596 45484341 
0000059a 44545320 
0000059e 46464f5f 
000005a2 00 
000005a3 01        11844 	.data.b	1
000005a4 01f4      11845 	.data.b	244,1
000005a6 5f4d4f43  11846 	.data.b	67,79,77,95,71,87,73,78,70,79,32,83,84,68,95,79,70,70,0
000005aa 4e495747 
000005ae 53204f46 
000005b2 4f5f4454 
000005b6 004646 
000005b9 01        11847 	.data.b	1
000005ba 01f5      11848 	.data.b	245,1
000005bc 5f4d4f43  11849 	.data.b	67,79,77,95,71,87,83,73,71,71,82,80,77,65,80,80,73,78,71,69,78,68,73,68,88,79,70,71,87,73,78,70,79,32,83,84,68,95,79,70,70,0
000005c0 49535747 
000005c4 50524747 
000005c8 5050414d 
000005cc 45474e49 
000005d0 4449444e 
000005d4 47464f58 
000005d8 464e4957 
000005dc 5453204f 
000005e0 464f5f44 
000005e4 0046 

                                                                      Page 241
                                                              C:\Users\Fengyuan\AppData\Local\Temp\gh_0000fuk1.s
000005e6 01        11850 	.data.b	1
000005e7 01f8      11851 	.data.b	248,1
000005e9 5f4d4f43  11852 	.data.b	67,79,77,95,71,87,83,73,71,77,65,80,80,73,78,71,69,78,68,73,68,88,79,70,71,87,73,78,70,79,32,83,84,68,95,79,70,70,0
000005ed 49535747 
000005f1 50414d47 
000005f5 474e4950 
000005f9 49444e45 
000005fd 464f5844 
00000601 4e495747 
00000605 53204f46 
00000609 4f5f4454 
0000060d 004646 
00000610 01        11853 	.data.b	1
00000611 0283      11854 	.data.b	131,2
00000613 5f4d4f43  11855 	.data.b	67,79,77,95,71,87,84,73,77,69,79,85,84,73,78,70,79,32,83,84,68,95,79,70,70,0
00000617 49545747 
0000061b 554f454d 
0000061f 464e4954 
00000623 5453204f 
00000627 464f5f44 
0000062b 0046 
0000062d 01        11856 	.data.b	1
0000062e 028c      11857 	.data.b	140,2
00000630 5f4d4f43  11858 	.data.b	67,79,77,95,73,80,68,85,71,82,79,85,80,73,78,70,79,32,83,84,68,95,79,70,70,0
00000634 55445049 
00000638 554f5247 
0000063c 464e4950 
00000640 5453204f 
00000644 464f5f44 
00000648 0046 
0000064a 01        11859 	.data.b	1
0000064b 0293      11860 	.data.b	147,2
0000064d 5f4d4f43  11861 	.data.b	67,79,77,95,82,88,80,68,85,73,78,70,79,73,78,68,85,83,69,68,79,70,73,80,68,85,71,82,79,85,80,73,78,70,79,32,83,84,68,95,79,70,70,0
00000651 44505852 
00000655 464e4955 
00000659 444e494f 
0000065d 44455355 
00000661 5049464f 
00000665 52475544 
00000669 4950554f 
0000066d 204f464e 
00000671 5f445453 
00000675 0046464f 
00000679 01        11862 	.data.b	1
0000067a 0296      11863 	.data.b	150,2
0000067c 5f4d4f43  11864 	.data.b	67,79,77,95,84,88,80,68,85,73,78,70,79,73,78,68,85,83,69,68,79,70,73,80,68,85,71,82,79,85,80,73,78,70,79,32,83,84,68,95,79,70,70,0
00000680 44505854 
00000684 464e4955 
00000688 444e494f 
0000068c 44455355 
00000690 5049464f 
00000694 52475544 
00000698 4950554f 
0000069c 204f464e 
000006a0 5f445453 
000006a4 0046464f 
000006a8 01        11865 	.data.b	1
000006a9 029a      11866 	.data.b	154,2
000006ab 5f4d4f43  11867 	.data.b	67,79,77,95,73,80,68,85,71,82,79,85,80,83,84,65,84,69,32,83,84,68,95,79,70,70,0
000006af 55445049 
000006b3 554f5247 

                                                                      Page 242
                                                              C:\Users\Fengyuan\AppData\Local\Temp\gh_0000fuk1.s
000006b7 41545350 
000006bb 53204554 
000006bf 4f5f4454 
000006c3 004646 
000006c6 01        11868 	.data.b	1
000006c7 029e      11869 	.data.b	158,2
000006c9 5f4d4f43  11870 	.data.b	67,79,77,95,80,68,85,71,82,80,86,69,67,84,79,82,32,83,84,68,95,79,78,0
000006cd 47554450 
000006d1 45565052 
000006d5 524f5443 
000006d9 44545320 
000006dd 004e4f5f 
000006e1 01        11871 	.data.b	1
000006e2 02a1      11872 	.data.b	161,2
000006e4 5f4d4f43  11873 	.data.b	67,79,77,95,82,88,65,67,67,69,83,83,73,78,70,79,32,83,84,68,95,79,78,0
000006e8 43415852 
000006ec 53534543 
000006f0 4f464e49 
000006f4 44545320 
000006f8 004e4f5f 
000006fc 01        11874 	.data.b	1
000006fd 02a6      11875 	.data.b	166,2
000006ff 5f4d4f43  11876 	.data.b	67,79,77,95,66,85,70,70,69,82,85,83,69,68,79,70,82,88,65,67,67,69,83,83,73,78,70,79,32,83,84,68,95,79,78,0
00000703 46465542 
00000707 53555245 
0000070b 464f4445 
0000070f 43415852 
00000713 53534543 
00000717 4f464e49 
0000071b 44545320 
0000071f 004e4f5f 
00000723 01        11877 	.data.b	1
00000724 02ad      11878 	.data.b	173,2
00000726 5f4d4f43  11879 	.data.b	67,79,77,95,67,79,78,83,84,86,65,76,85,69,65,82,82,65,89,66,65,83,69,68,73,78,73,84,86,65,76,85,69,85,83,69,68,79,70,82,88,65,67,67,69,83,83,73,78,70,79,32,83,84,68,95,79,70,70,0
0000072a 534e4f43 
0000072e 4c415654 
00000732 52414555 
00000736 42594152 
0000073a 44455341 
0000073e 54494e49 
00000742 554c4156 
00000746 45535545 
0000074a 52464f44 
0000074e 43434158 
00000752 49535345 
00000756 204f464e 
0000075a 5f445453 
0000075e 0046464f 
00000762 01        11880 	.data.b	1
00000763 02b1      11881 	.data.b	177,2
00000765 5f4d4f43  11882 	.data.b	67,79,77,95,67,79,78,83,84,86,65,76,85,69,65,82,82,65,89,66,65,83,69,68,73,78,86,86,65,76,85,69,85,83,69,68,79,70,82,88,65,67,67,69,83,83,73,78,70,79,32,83,84,68,95,79,70,70,0
00000769 534e4f43 
0000076d 4c415654 
00000771 52414555 
00000775 42594152 
00000779 44455341 
0000077d 56564e49 
00000781 45554c41 
00000785 44455355 
00000789 5852464f 
0000078d 45434341 

                                                                      Page 243
                                                              C:\Users\Fengyuan\AppData\Local\Temp\gh_0000fuk1.s
00000791 4e495353 
00000795 53204f46 
00000799 4f5f4454 
0000079d 004646 
000007a0 01        11883 	.data.b	1
000007a1 02b7      11884 	.data.b	183,2
000007a3 5f4d4f43  11885 	.data.b	67,79,77,95,70,73,76,84,69,82,73,78,70,79,85,83,69,68,79,70,82,88,65,67,67,69,83,83,73,78,70,79,32,83,84,68,95,79,70,70,0
000007a7 544c4946 
000007ab 4e495245 
000007af 53554f46 
000007b3 464f4445 
000007b7 43415852 
000007bb 53534543 
000007bf 4f464e49 
000007c3 44545320 
000007c7 46464f5f 
000007cb 00 
000007cc 01        11886 	.data.b	1
000007cd 02bb      11887 	.data.b	187,2
000007cf 5f4d4f43  11888 	.data.b	67,79,77,95,73,78,73,84,86,65,76,85,69,85,83,69,68,79,70,82,88,65,67,67,69,83,83,73,78,70,79,32,83,84,68,95,79,78,0
000007d3 54494e49 
000007d7 554c4156 
000007db 45535545 
000007df 52464f44 
000007e3 43434158 
000007e7 49535345 
000007eb 204f464e 
000007ef 5f445453 
000007f3 004e4f 
000007f6 01        11889 	.data.b	1
000007f7 02bd      11890 	.data.b	189,2
000007f9 5f4d4f43  11891 	.data.b	67,79,77,95,73,78,86,86,65,76,85,69,85,83,69,68,79,70,82,88,65,67,67,69,83,83,73,78,70,79,32,83,84,68,95,79,70,70,0
000007fd 56564e49 
00000801 45554c41 
00000805 44455355 
00000809 5852464f 
0000080d 45434341 
00000811 4e495353 
00000815 53204f46 
00000819 4f5f4454 
0000081d 004646 
00000820 01        11892 	.data.b	1
00000821 02be      11893 	.data.b	190,2
00000823 5f4d4f43  11894 	.data.b	67,79,77,95,73,78,86,65,76,73,68,72,78,68,79,70,82,88,65,67,67,69,83,83,73,78,70,79,32,83,84,68,95,79,70,70,0
00000827 41564e49 
0000082b 4844494c 
0000082f 464f444e 
00000833 43415852 
00000837 53534543 
0000083b 4f464e49 
0000083f 44545320 
00000843 46464f5f 
00000847 00 
00000848 01        11895 	.data.b	1
00000849 02bf      11896 	.data.b	191,2
0000084b 5f4d4f43  11897 	.data.b	67,79,77,95,73,83,71,82,79,85,80,83,73,71,78,65,76,79,70,82,88,65,67,67,69,83,83,73,78,70,79,32,83,84,68,95,79,70,70,0
0000084f 52475349 
00000853 5350554f 
00000857 414e4749 
0000085b 52464f4c 
0000085f 43434158 

                                                                      Page 244
                                                              C:\Users\Fengyuan\AppData\Local\Temp\gh_0000fuk1.s
00000863 49535345 
00000867 204f464e 
0000086b 5f445453 
0000086f 0046464f 
00000873 01        11898 	.data.b	1
00000874 02c8      11899 	.data.b	200,2
00000876 5f4d4f43  11900 	.data.b	67,79,77,95,82,88,83,73,71,66,85,70,70,69,82,65,82,82,65,89,66,65,83,69,68,66,85,70,70,69,82,85,83,69,68,79,70,82,88,65,67,67,69,83,83,73,78,70,79,32,83,84,68,95,79,70,70,0
0000087a 49535852 
0000087e 46554247 
00000882 41524546 
00000886 59415252 
0000088a 45534142 
0000088e 46554244 
00000892 55524546 
00000896 4f444553 
0000089a 41585246 
0000089e 53454343 
000008a2 464e4953 
000008a6 5453204f 
000008aa 464f5f44 
000008ae 0046 
000008b0 01        11901 	.data.b	1
000008b1 02d5      11902 	.data.b	213,2
000008b3 5f4d4f43  11903 	.data.b	67,79,77,95,83,73,71,78,69,88,84,82,69,81,85,73,82,69,68,79,70,82,88,65,67,67,69,83,83,73,78,70,79,32,83,84,68,95,79,70,70,0
000008b7 4e474953 
000008bb 52545845 
000008bf 49555145 
000008c3 4f444552 
000008c7 41585246 
000008cb 53454343 
000008cf 464e4953 
000008d3 5453204f 
000008d7 464f5f44 
000008db 0046 
000008dd 01        11904 	.data.b	1
000008de 02e1      11905 	.data.b	225,2
000008e0 5f4d4f43  11906 	.data.b	67,79,77,95,82,88,67,66,75,70,85,78,67,80,84,82,32,83,84,68,95,79,70,70,0
000008e4 42435852 
000008e8 4e55464b 
000008ec 52545043 
000008f0 44545320 
000008f4 46464f5f 
000008f8 00 
000008f9 01        11907 	.data.b	1
000008fa 02e5      11908 	.data.b	229,2
000008fc 5f4d4f43  11909 	.data.b	67,79,77,95,82,88,68,69,70,69,82,82,69,68,69,86,69,78,84,67,65,67,72,69,32,83,84,68,95,79,70,70,0
00000900 45445852 
00000904 52524546 
00000908 56454445 
0000090c 43544e45 
00000910 45484341 
00000914 44545320 
00000918 46464f5f 
0000091c 00 
0000091d 01        11910 	.data.b	1
0000091e 02e6      11911 	.data.b	230,2
00000920 5f4d4f43  11912 	.data.b	67,79,77,95,82,88,68,69,70,69,82,82,69,68,70,67,84,80,84,82,67,65,67,72,69,32,83,84,68,95,79,70,70,0
00000924 45445852 
00000928 52524546 
0000092c 43464445 
00000930 52545054 

                                                                      Page 245
                                                              C:\Users\Fengyuan\AppData\Local\Temp\gh_0000fuk1.s
00000934 48434143 
00000938 54532045 
0000093c 464f5f44 
00000940 0046 
00000942 01        11913 	.data.b	1
00000943 02e9      11914 	.data.b	233,2
00000945 5f4d4f43  11915 	.data.b	67,79,77,95,82,88,68,76,77,79,78,68,73,86,73,83,79,82,32,83,84,68,95,79,70,70,0
00000949 4c445852 
0000094d 444e4f4d 
00000951 53495649 
00000955 5320524f 
00000959 4f5f4454 
0000095d 004646 
00000960 01        11916 	.data.b	1
00000961 02f3      11917 	.data.b	243,2
00000963 5f4d4f43  11918 	.data.b	67,79,77,95,82,88,80,68,85,71,82,80,73,78,70,79,32,83,84,68,95,79,78,0
00000967 44505852 
0000096b 50524755 
0000096f 4f464e49 
00000973 44545320 
00000977 004e4f5f 
0000097b 01        11919 	.data.b	1
0000097c 02f7      11920 	.data.b	247,2
0000097e 5f4d4f43  11921 	.data.b	67,79,77,95,82,88,80,68,85,73,78,70,79,32,83,84,68,95,79,78,0
00000982 44505852 
00000986 464e4955 
0000098a 5453204f 
0000098e 4e4f5f44 
00000992 00 
00000993 01        11922 	.data.b	1
00000994 02f9      11923 	.data.b	249,2
00000996 5f4d4f43  11924 	.data.b	67,79,77,95,68,69,70,69,82,82,69,68,71,87,77,65,80,80,73,78,71,73,78,70,79,85,83,69,68,79,70,82,88,80,68,85,73,78,70,79,32,83,84,68,95,79,70,70,0
0000099a 45464544 
0000099e 44455252 
000009a2 414d5747 
000009a6 4e495050 
000009aa 464e4947 
000009ae 4553554f 
000009b2 52464f44 
000009b6 55445058 
000009ba 4f464e49 
000009be 44545320 
000009c2 46464f5f 
000009c6 00 
000009c7 01        11925 	.data.b	1
000009c8 02fa      11926 	.data.b	250,2
000009ca 5f4d4f43  11927 	.data.b	67,79,77,95,71,87,73,78,70,79,69,78,68,73,68,88,79,70,82,88,80,68,85,73,78,70,79,32,83,84,68,95,79,70,70,0
000009ce 4e495747 
000009d2 4e454f46 
000009d6 58444944 
000009da 5852464f 
000009de 49554450 
000009e2 204f464e 
000009e6 5f445453 
000009ea 0046464f 
000009ee 01        11928 	.data.b	1
000009ef 02ff      11929 	.data.b	255,2
000009f1 5f4d4f43  11930 	.data.b	67,79,77,95,71,87,84,88,80,68,85,68,69,83,67,82,73,80,84,73,79,78,73,78,70,79,85,83,69,68,79,70,82,88,80,68,85,73,78,70,79,32,83,84,68,95,79,70,70,0
000009f5 58545747 
000009f9 44554450 
000009fd 52435345 

                                                                      Page 246
                                                              C:\Users\Fengyuan\AppData\Local\Temp\gh_0000fuk1.s
00000a01 49545049 
00000a05 4e494e4f 
00000a09 53554f46 
00000a0d 464f4445 
00000a11 44505852 
00000a15 464e4955 
00000a19 5453204f 
00000a1d 464f5f44 
00000a21 0046 
00000a23 01        11931 	.data.b	1
00000a24 0387      11932 	.data.b	135,3
00000a26 5f4d4f43  11933 	.data.b	67,79,77,95,73,78,86,65,76,73,68,72,78,68,79,70,82,88,80,68,85,73,78,70,79,32,83,84,68,95,79,70,70,0
00000a2a 41564e49 
00000a2e 4844494c 
00000a32 464f444e 
00000a36 44505852 
00000a3a 464e4955 
00000a3e 5453204f 
00000a42 464f5f44 
00000a46 0046 
00000a48 01        11934 	.data.b	1
00000a49 0388      11935 	.data.b	136,3
00000a4b 5f4d4f43  11936 	.data.b	67,79,77,95,82,88,65,67,67,69,83,83,73,78,70,79,73,78,68,69,78,68,73,68,88,79,70,82,88,80,68,85,73,78,70,79,32,83,84,68,95,79,78,0
00000a4f 43415852 
00000a53 53534543 
00000a57 4f464e49 
00000a5b 45444e49 
00000a5f 4449444e 
00000a63 52464f58 
00000a67 55445058 
00000a6b 4f464e49 
00000a6f 44545320 
00000a73 004e4f5f 
00000a77 01        11937 	.data.b	1
00000a78 038e      11938 	.data.b	142,3
00000a7a 5f4d4f43  11939 	.data.b	67,79,77,95,82,88,68,69,70,80,68,85,66,85,70,70,69,82,85,83,69,68,79,70,82,88,80,68,85,73,78,70,79,32,83,84,68,95,79,78,0
00000a7e 45445852 
00000a82 55445046 
00000a86 46465542 
00000a8a 53555245 
00000a8e 464f4445 
00000a92 44505852 
00000a96 464e4955 
00000a9a 5453204f 
00000a9e 4e4f5f44 
00000aa2 00 
00000aa3 01        11940 	.data.b	1
00000aa4 0390      11941 	.data.b	144,3
00000aa6 5f4d4f43  11942 	.data.b	67,79,77,95,82,88,80,68,85,67,65,76,76,79,85,84,70,85,78,67,80,84,82,85,83,69,68,79,70,82,88,80,68,85,73,78,70,79,32,83,84,68,95,79,70,70,0
00000aaa 44505852 
00000aae 4c414355 
00000ab2 54554f4c 
00000ab6 434e5546 
00000aba 55525450 
00000abe 4f444553 
00000ac2 50585246 
00000ac6 4e495544 
00000aca 53204f46 
00000ace 4f5f4454 
00000ad2 004646 
00000ad5 01        11943 	.data.b	1

                                                                      Page 247
                                                              C:\Users\Fengyuan\AppData\Local\Temp\gh_0000fuk1.s
00000ad6 0391      11944 	.data.b	145,3
00000ad8 5f4d4f43  11945 	.data.b	67,79,77,95,82,88,83,73,71,71,82,80,73,78,70,79,73,78,68,69,78,68,73,68,88,79,70,82,88,80,68,85,73,78,70,79,32,83,84,68,95,79,70,70,0
00000adc 49535852 
00000ae0 50524747 
00000ae4 4f464e49 
00000ae8 45444e49 
00000aec 4449444e 
00000af0 52464f58 
00000af4 55445058 
00000af8 4f464e49 
00000afc 44545320 
00000b00 46464f5f 
00000b04 00 
00000b05 01        11946 	.data.b	1
00000b06 0394      11947 	.data.b	148,3
00000b08 5f4d4f43  11948 	.data.b	67,79,77,95,82,88,83,73,71,73,78,70,79,69,78,68,73,68,88,79,70,82,88,80,68,85,73,78,70,79,32,83,84,68,95,79,78,0
00000b0c 49535852 
00000b10 464e4947 
00000b14 444e454f 
00000b18 4f584449 
00000b1c 50585246 
00000b20 4e495544 
00000b24 53204f46 
00000b28 4f5f4454 
00000b2c 004e 
00000b2e 01        11949 	.data.b	1
00000b2f 0398      11950 	.data.b	152,3
00000b31 5f4d4f43  11951 	.data.b	67,79,77,95,82,88,84,79,85,84,73,78,70,79,73,78,68,69,78,68,73,68,88,79,70,82,88,80,68,85,73,78,70,79,32,83,84,68,95,79,70,70,0
00000b35 4f545852 
00000b39 4e495455 
00000b3d 4e494f46 
00000b41 444e4544 
00000b45 4f584449 
00000b49 50585246 
00000b4d 4e495544 
00000b51 53204f46 
00000b55 4f5f4454 
00000b59 004646 
00000b5c 01        11952 	.data.b	1
00000b5d 039b      11953 	.data.b	155,3
00000b5f 5f4d4f43  11954 	.data.b	67,79,77,95,82,88,84,79,85,84,73,78,70,79,85,83,69,68,79,70,82,88,80,68,85,73,78,70,79,32,83,84,68,95,79,70,70,0
00000b63 4f545852 
00000b67 4e495455 
00000b6b 53554f46 
00000b6f 464f4445 
00000b73 44505852 
00000b77 464e4955 
00000b7b 5453204f 
00000b7f 464f5f44 
00000b83 0046 
00000b85 01        11955 	.data.b	1
00000b86 039d      11956 	.data.b	157,3
00000b88 5f4d4f43  11957 	.data.b	67,79,77,95,82,88,84,80,73,78,70,79,85,83,69,68,79,70,82,88,80,68,85,73,78,70,79,32,83,84,68,95,79,70,70,0
00000b8c 50545852 
00000b90 4f464e49 
00000b94 44455355 
00000b98 5852464f 
00000b9c 49554450 
00000ba0 204f464e 
00000ba4 5f445453 
00000ba8 0046464f 

                                                                      Page 248
                                                              C:\Users\Fengyuan\AppData\Local\Temp\gh_0000fuk1.s
00000bac 01        11958 	.data.b	1
00000bad 03a2      11959 	.data.b	162,3
00000baf 5f4d4f43  11960 	.data.b	67,79,77,95,82,88,83,73,71,66,85,70,70,69,82,65,82,82,65,89,66,65,83,69,68,32,83,84,68,95,79,70,70,0
00000bb3 49535852 
00000bb7 46554247 
00000bbb 41524546 
00000bbf 59415252 
00000bc3 45534142 
00000bc7 54532044 
00000bcb 464f5f44 
00000bcf 0046 
00000bd1 01        11961 	.data.b	1
00000bd2 03a3      11962 	.data.b	163,3
00000bd4 5f4d4f43  11963 	.data.b	67,79,77,95,82,88,83,73,71,66,85,70,70,69,82,70,76,79,65,84,51,50,32,83,84,68,95,79,70,70,0
00000bd8 49535852 
00000bdc 46554247 
00000be0 46524546 
00000be4 54414f4c 
00000be8 53203233 
00000bec 4f5f4454 
00000bf0 004646 
00000bf3 01        11964 	.data.b	1
00000bf4 03a4      11965 	.data.b	164,3
00000bf6 5f4d4f43  11966 	.data.b	67,79,77,95,82,88,83,73,71,66,85,70,70,69,82,70,76,79,65,84,54,52,32,83,84,68,95,79,70,70,0
00000bfa 49535852 
00000bfe 46554247 
00000c02 46524546 
00000c06 54414f4c 
00000c0a 53203436 
00000c0e 4f5f4454 
00000c12 004646 
00000c15 01        11967 	.data.b	1
00000c16 03a5      11968 	.data.b	165,3
00000c18 5f4d4f43  11969 	.data.b	67,79,77,95,82,88,83,73,71,66,85,70,70,69,82,83,73,78,84,49,54,32,83,84,68,95,79,70,70,0
00000c1c 49535852 
00000c20 46554247 
00000c24 53524546 
00000c28 31544e49 
00000c2c 54532036 
00000c30 464f5f44 
00000c34 0046 
00000c36 01        11970 	.data.b	1
00000c37 03a6      11971 	.data.b	166,3
00000c39 5f4d4f43  11972 	.data.b	67,79,77,95,82,88,83,73,71,66,85,70,70,69,82,83,73,78,84,51,50,32,83,84,68,95,79,70,70,0
00000c3d 49535852 
00000c41 46554247 
00000c45 53524546 
00000c49 33544e49 
00000c4d 54532032 
00000c51 464f5f44 
00000c55 0046 
00000c57 01        11973 	.data.b	1
00000c58 03a7      11974 	.data.b	167,3
00000c5a 5f4d4f43  11975 	.data.b	67,79,77,95,82,88,83,73,71,66,85,70,70,69,82,83,73,78,84,54,52,32,83,84,68,95,79,70,70,0
00000c5e 49535852 
00000c62 46554247 
00000c66 53524546 
00000c6a 36544e49 
00000c6e 54532034 
00000c72 464f5f44 
00000c76 0046 

                                                                      Page 249
                                                              C:\Users\Fengyuan\AppData\Local\Temp\gh_0000fuk1.s
00000c78 01        11976 	.data.b	1
00000c79 03a8      11977 	.data.b	168,3
00000c7b 5f4d4f43  11978 	.data.b	67,79,77,95,82,88,83,73,71,66,85,70,70,69,82,83,73,78,84,56,32,83,84,68,95,79,70,70,0
00000c7f 49535852 
00000c83 46554247 
00000c87 53524546 
00000c8b 38544e49 
00000c8f 44545320 
00000c93 46464f5f 
00000c97 00 
00000c98 01        11979 	.data.b	1
00000c99 03a9      11980 	.data.b	169,3
00000c9b 5f4d4f43  11981 	.data.b	67,79,77,95,82,88,83,73,71,66,85,70,70,69,82,85,73,78,84,49,54,32,83,84,68,95,79,70,70,0
00000c9f 49535852 
00000ca3 46554247 
00000ca7 55524546 
00000cab 31544e49 
00000caf 54532036 
00000cb3 464f5f44 
00000cb7 0046 
00000cb9 01        11982 	.data.b	1
00000cba 03aa      11983 	.data.b	170,3
00000cbc 5f4d4f43  11984 	.data.b	67,79,77,95,82,88,83,73,71,66,85,70,70,69,82,85,73,78,84,51,50,32,83,84,68,95,79,70,70,0
00000cc0 49535852 
00000cc4 46554247 
00000cc8 55524546 
00000ccc 33544e49 
00000cd0 54532032 
00000cd4 464f5f44 
00000cd8 0046 
00000cda 01        11985 	.data.b	1
00000cdb 03ab      11986 	.data.b	171,3
00000cdd 5f4d4f43  11987 	.data.b	67,79,77,95,82,88,83,73,71,66,85,70,70,69,82,85,73,78,84,54,52,32,83,84,68,95,79,70,70,0
00000ce1 49535852 
00000ce5 46554247 
00000ce9 55524546 
00000ced 36544e49 
00000cf1 54532034 
00000cf5 464f5f44 
00000cf9 0046 
00000cfb 01        11988 	.data.b	1
00000cfc 03ac      11989 	.data.b	172,3
00000cfe 5f4d4f43  11990 	.data.b	67,79,77,95,82,88,83,73,71,66,85,70,70,69,82,85,73,78,84,56,32,83,84,68,95,79,78,0
00000d02 49535852 
00000d06 46554247 
00000d0a 55524546 
00000d0e 38544e49 
00000d12 44545320 
00000d16 004e4f5f 
00000d1a 01        11991 	.data.b	1
00000d1b 03ae      11992 	.data.b	174,3
00000d1d 5f4d4f43  11993 	.data.b	67,79,77,95,82,88,83,73,71,71,82,80,73,78,70,79,32,83,84,68,95,79,70,70,0
00000d21 49535852 
00000d25 50524747 
00000d29 4f464e49 
00000d2d 44545320 
00000d31 46464f5f 
00000d35 00 
00000d36 01        11994 	.data.b	1
00000d37 03af      11995 	.data.b	175,3
00000d39 5f4d4f43  11996 	.data.b	67,79,77,95,65,82,82,65,89,65,67,67,69,83,83,85,83,69,68,79,70,82,88,83,73,71,71,82,80,73,78,70,79,32,83,84,68,95,79,70,70,0

                                                                      Page 250
                                                              C:\Users\Fengyuan\AppData\Local\Temp\gh_0000fuk1.s
00000d3d 41525241 
00000d41 43434159 
00000d45 55535345 
00000d49 4f444553 
00000d4d 53585246 
00000d51 52474749 
00000d55 464e4950 
00000d59 5453204f 
00000d5d 464f5f44 
00000d61 0046 
00000d63 01        11997 	.data.b	1
00000d64 03b8      11998 	.data.b	184,3
00000d66 5f4d4f43  11999 	.data.b	67,79,77,95,70,73,76,84,69,82,69,86,69,78,84,79,70,82,88,83,73,71,71,82,80,73,78,70,79,32,83,84,68,95,79,70,70,0
00000d6a 544c4946 
00000d6e 56455245 
00000d72 4f544e45 
00000d76 53585246 
00000d7a 52474749 
00000d7e 464e4950 
00000d82 5453204f 
00000d86 464f5f44 
00000d8a 0046 
00000d8c 01        12000 	.data.b	1
00000d8d 03ba      12001 	.data.b	186,3
00000d8f 5f4d4f43  12002 	.data.b	67,79,77,95,71,87,73,78,70,79,85,83,69,68,79,70,82,88,83,73,71,71,82,80,73,78,70,79,32,83,84,68,95,79,70,70,0
00000d93 4e495747 
00000d97 53554f46 
00000d9b 464f4445 
00000d9f 49535852 
00000da3 50524747 
00000da7 4f464e49 
00000dab 44545320 
00000daf 46464f5f 
00000db3 00 
00000db4 01        12003 	.data.b	1
00000db5 03bb      12004 	.data.b	187,3
00000db7 5f4d4f43  12005 	.data.b	67,79,77,95,73,78,86,69,86,69,78,84,79,70,82,88,83,73,71,71,82,80,73,78,70,79,32,83,84,68,95,79,70,70,0
00000dbb 45564e49 
00000dbf 544e4556 
00000dc3 5852464f 
00000dc7 47474953 
00000dcb 4e495052 
00000dcf 53204f46 
00000dd3 4f5f4454 
00000dd7 004646 
00000dda 01        12006 	.data.b	1
00000ddb 03ce      12007 	.data.b	206,3
00000ddd 5f4d4f43  12008 	.data.b	67,79,77,95,82,88,84,79,85,84,73,78,70,79,85,83,69,68,79,70,82,88,83,73,71,71,82,80,73,78,70,79,32,83,84,68,95,79,70,70,0
00000de1 4f545852 
00000de5 4e495455 
00000de9 53554f46 
00000ded 464f4445 
00000df1 49535852 
00000df5 50524747 
00000df9 4f464e49 
00000dfd 44545320 
00000e01 46464f5f 
00000e05 00 
00000e06 01        12009 	.data.b	1
00000e07 03cf      12010 	.data.b	207,3
00000e09 5f4d4f43  12011 	.data.b	67,79,77,95,83,72,68,66,85,70,70,69,82,82,69,81,85,73,82,69,68,79,70,82,88,83,73,71,71,82,80,73,78,70,79,32,83,84,68,95,79,70,70,0

                                                                      Page 251
                                                              C:\Users\Fengyuan\AppData\Local\Temp\gh_0000fuk1.s
00000e0d 42444853 
00000e11 45464655 
00000e15 51455252 
00000e19 45524955 
00000e1d 52464f44 
00000e21 47495358 
00000e25 49505247 
00000e29 204f464e 
00000e2d 5f445453 
00000e31 0046464f 
00000e35 01        12012 	.data.b	1
00000e36 03d4      12013 	.data.b	212,3
00000e38 5f4d4f43  12014 	.data.b	67,79,77,95,85,66,77,65,83,75,85,83,69,68,79,70,82,88,83,73,71,71,82,80,73,78,70,79,32,83,84,68,95,79,70,70,0
00000e3c 414d4255 
00000e40 53554b53 
00000e44 464f4445 
00000e48 49535852 
00000e4c 50524747 
00000e50 4f464e49 
00000e54 44545320 
00000e58 46464f5f 
00000e5c 00 
00000e5d 01        12015 	.data.b	1
00000e5e 03d7      12016 	.data.b	215,3
00000e60 5f4d4f43  12017 	.data.b	67,79,77,95,82,88,83,73,71,73,78,70,79,32,83,84,68,95,79,78,0
00000e64 49535852 
00000e68 464e4947 
00000e6c 5453204f 
00000e70 4e4f5f44 
00000e74 00 
00000e75 01        12018 	.data.b	1
00000e76 03d9      12019 	.data.b	217,3
00000e78 5f4d4f43  12020 	.data.b	67,79,77,95,71,87,73,78,70,79,85,83,69,68,79,70,82,88,83,73,71,73,78,70,79,32,83,84,68,95,79,70,70,0
00000e7c 4e495747 
00000e80 53554f46 
00000e84 464f4445 
00000e88 49535852 
00000e8c 464e4947 
00000e90 5453204f 
00000e94 464f5f44 
00000e98 0046 
00000e9a 01        12021 	.data.b	1
00000e9b 03db      12022 	.data.b	219,3
00000e9d 5f4d4f43  12023 	.data.b	67,79,77,95,82,88,67,66,75,70,85,78,67,80,84,82,65,67,75,73,68,88,79,70,82,88,83,73,71,73,78,70,79,32,83,84,68,95,79,70,70,0
00000ea1 42435852 
00000ea5 4e55464b 
00000ea9 52545043 
00000ead 494b4341 
00000eb1 464f5844 
00000eb5 49535852 
00000eb9 464e4947 
00000ebd 5453204f 
00000ec1 464f5f44 
00000ec5 0046 
00000ec7 01        12024 	.data.b	1
00000ec8 03e0      12025 	.data.b	224,3
00000eca 5f4d4f43  12026 	.data.b	67,79,77,95,82,88,84,79,85,84,73,78,70,79,85,83,69,68,79,70,82,88,83,73,71,73,78,70,79,32,83,84,68,95,79,70,70,0
00000ece 4f545852 
00000ed2 4e495455 
00000ed6 53554f46 
00000eda 464f4445 

                                                                      Page 252
                                                              C:\Users\Fengyuan\AppData\Local\Temp\gh_0000fuk1.s
00000ede 49535852 
00000ee2 464e4947 
00000ee6 5453204f 
00000eea 464f5f44 
00000eee 0046 
00000ef0 01        12027 	.data.b	1
00000ef1 03e4      12028 	.data.b	228,3
00000ef3 5f4d4f43  12029 	.data.b	67,79,77,95,85,66,77,65,83,75,85,83,69,68,79,70,82,88,83,73,71,73,78,70,79,32,83,84,68,95,79,70,70,0
00000ef7 414d4255 
00000efb 53554b53 
00000eff 464f4445 
00000f03 49535852 
00000f07 464e4947 
00000f0b 5453204f 
00000f0f 464f5f44 
00000f13 0046 
00000f15 01        12030 	.data.b	1
00000f16 03e7      12031 	.data.b	231,3
00000f18 5f4d4f43  12032 	.data.b	67,79,77,95,82,88,84,79,85,84,73,78,70,79,32,83,84,68,95,79,70,70,0
00000f1c 4f545852 
00000f20 4e495455 
00000f24 53204f46 
00000f28 4f5f4454 
00000f2c 004646 
00000f2f 01        12033 	.data.b	1
00000f30 03ea      12034 	.data.b	234,3
00000f32 5f4d4f43  12035 	.data.b	67,79,77,95,67,66,75,82,88,84,79,85,84,70,85,78,67,80,84,82,73,78,68,85,83,69,68,79,70,82,88,84,79,85,84,73,78,70,79,32,83,84,68,95,79,70,70,0
00000f36 524b4243 
00000f3a 554f5458 
00000f3e 4e554654 
00000f42 52545043 
00000f46 55444e49 
00000f4a 4f444553 
00000f4e 54585246 
00000f52 4954554f 
00000f56 204f464e 
00000f5a 5f445453 
00000f5e 0046464f 
00000f62 01        12036 	.data.b	1
00000f63 03ed      12037 	.data.b	237,3
00000f65 5f4d4f43  12038 	.data.b	67,79,77,95,82,88,65,67,67,69,83,83,73,78,70,79,82,69,80,76,65,67,69,71,82,80,83,73,71,73,78,68,69,78,68,73,68,88,79,70,82,88,84,79,85,84,73,78,70,79,32,83,84,68,95,79,70,70,0
00000f69 43415852 
00000f6d 53534543 
00000f71 4f464e49 
00000f75 4c504552 
00000f79 47454341 
00000f7d 49535052 
00000f81 444e4947 
00000f85 49444e45 
00000f89 464f5844 
00000f8d 4f545852 
00000f91 4e495455 
00000f95 53204f46 
00000f99 4f5f4454 
00000f9d 004646 
00000fa0 01        12039 	.data.b	1
00000fa1 03f0      12040 	.data.b	240,3
00000fa3 5f4d4f43  12041 	.data.b	67,79,77,95,82,88,65,67,67,69,83,83,73,78,70,79,82,69,80,76,65,67,69,83,73,71,73,78,68,69,78,68,73,68,88,79,70,82,88,84,79,85,84,73,78,70,79,32,83,84,68,95,79,70,70,0
00000fa7 43415852 
00000fab 53534543 
00000faf 4f464e49 

                                                                      Page 253
                                                              C:\Users\Fengyuan\AppData\Local\Temp\gh_0000fuk1.s
00000fb3 4c504552 
00000fb7 53454341 
00000fbb 4e494749 
00000fbf 444e4544 
00000fc3 4f584449 
00000fc7 54585246 
00000fcb 4954554f 
00000fcf 204f464e 
00000fd3 5f445453 
00000fd7 0046464f 
00000fdb 01        12042 	.data.b	1
00000fdc 0481      12043 	.data.b	129,4
00000fde 5f4d4f43  12044 	.data.b	67,79,77,95,83,73,71,71,82,80,65,82,82,65,89,70,73,76,84,69,82,73,78,70,79,32,83,84,68,95,79,70,70,0
00000fe2 47474953 
00000fe6 52415052 
00000fea 46594152 
00000fee 45544c49 
00000ff2 464e4952 
00000ff6 5453204f 
00000ffa 464f5f44 
00000ffe 0046 
00001000 01        12045 	.data.b	1
00001001 04ba      12046 	.data.b	186,4
00001003 5f4d4f43  12047 	.data.b	67,79,77,95,84,88,67,89,67,76,69,67,79,85,78,84,69,82,68,73,86,73,83,79,82,32,83,84,68,95,79,70,70,0
00001007 59435854 
0000100b 43454c43 
0000100f 544e554f 
00001013 49445245 
00001017 4f534956 
0000101b 54532052 
0000101f 464f5f44 
00001023 0046 
00001025 01        12048 	.data.b	1
00001026 04c0      12049 	.data.b	192,4
00001028 5f4d4f43  12050 	.data.b	67,79,77,95,84,88,68,76,77,79,78,68,73,86,73,83,79,82,32,83,84,68,95,79,70,70,0
0000102c 4c445854 
00001030 444e4f4d 
00001034 53495649 
00001038 5320524f 
0000103c 4f5f4454 
00001040 004646 
00001043 01        12051 	.data.b	1
00001044 04df      12052 	.data.b	223,4
00001046 5f4d4f43  12053 	.data.b	67,79,77,95,68,73,82,69,67,84,79,70,84,88,77,79,68,69,70,65,76,83,69,32,83,84,68,95,79,70,70,0
0000104a 45524944 
0000104e 464f5443 
00001052 4f4d5854 
00001056 41464544 
0000105a 2045534c 
0000105e 5f445453 
00001062 0046464f 
00001066 01        12054 	.data.b	1
00001067 04e0      12055 	.data.b	224,4
00001069 5f4d4f43  12056 	.data.b	67,79,77,95,80,69,82,73,79,68,73,67,79,70,84,88,77,79,68,69,70,65,76,83,69,32,83,84,68,95,79,78,0
0000106d 49524550 
00001071 4349444f 
00001075 5854464f 
00001079 45444f4d 
0000107d 534c4146 
00001081 54532045 
00001085 4e4f5f44 

                                                                      Page 254
                                                              C:\Users\Fengyuan\AppData\Local\Temp\gh_0000fuk1.s
00001089 00 
0000108a 01        12057 	.data.b	1
0000108b 04e1      12058 	.data.b	225,4
0000108d 5f4d4f43  12059 	.data.b	67,79,77,95,82,69,80,67,78,84,79,70,84,88,77,79,68,69,70,65,76,83,69,32,83,84,68,95,79,70,70,0
00001091 43504552 
00001095 464f544e 
00001099 4f4d5854 
0000109d 41464544 
000010a1 2045534c 
000010a5 5f445453 
000010a9 0046464f 
000010ad 01        12060 	.data.b	1
000010ae 04e2      12061 	.data.b	226,4
000010b0 5f4d4f43  12062 	.data.b	67,79,77,95,82,69,80,80,69,82,73,79,68,79,70,84,88,77,79,68,69,70,65,76,83,69,32,83,84,68,95,79,70,70,0
000010b4 50504552 
000010b8 4f495245 
000010bc 54464f44 
000010c0 444f4d58 
000010c4 4c414645 
000010c8 53204553 
000010cc 4f5f4454 
000010d0 004646 
000010d3 01        12063 	.data.b	1
000010d4 04e3      12064 	.data.b	227,4
000010d6 5f4d4f43  12065 	.data.b	67,79,77,95,84,73,77,69,79,70,70,83,69,84,79,70,84,88,77,79,68,69,70,65,76,83,69,32,83,84,68,95,79,70,70,0
000010da 454d4954 
000010de 5346464f 
000010e2 464f5445 
000010e6 4f4d5854 
000010ea 41464544 
000010ee 2045534c 
000010f2 5f445453 
000010f6 0046464f 
000010fa 01        12066 	.data.b	1
000010fb 04e5      12067 	.data.b	229,4
000010fd 5f4d4f43  12068 	.data.b	67,79,77,95,84,88,77,79,68,69,73,78,70,79,32,83,84,68,95,79,78,0
00001101 4f4d5854 
00001105 4e494544 
00001109 53204f46 
0000110d 4f5f4454 
00001111 004e 
00001113 01        12069 	.data.b	1
00001114 04e7      12070 	.data.b	231,4
00001116 5f4d4f43  12071 	.data.b	67,79,77,95,73,78,86,65,76,73,68,72,78,68,79,70,84,88,77,79,68,69,73,78,70,79,32,83,84,68,95,79,70,70,0
0000111a 41564e49 
0000111e 4844494c 
00001122 464f444e 
00001126 4f4d5854 
0000112a 4e494544 
0000112e 53204f46 
00001132 4f5f4454 
00001136 004646 
00001139 01        12072 	.data.b	1
0000113a 04e8      12073 	.data.b	232,4
0000113c 5f4d4f43  12074 	.data.b	67,79,77,95,77,73,78,73,77,85,77,68,69,76,65,89,79,70,84,88,77,79,68,69,73,78,70,79,32,83,84,68,95,79,70,70,0
00001140 494e494d 
00001144 444d554d 
00001148 59414c45 
0000114c 5854464f 
00001150 45444f4d 
00001154 4f464e49 

                                                                      Page 255
                                                              C:\Users\Fengyuan\AppData\Local\Temp\gh_0000fuk1.s
00001158 44545320 
0000115c 46464f5f 
00001160 00 
00001161 01        12075 	.data.b	1
00001162 04eb      12076 	.data.b	235,4
00001164 5f4d4f43  12077 	.data.b	67,79,77,95,84,88,70,73,76,84,69,82,73,78,73,84,83,84,65,84,69,85,83,69,68,79,70,84,88,77,79,68,69,73,78,70,79,32,83,84,68,95,79,70,70,0
00001168 49465854 
0000116c 5245544c 
00001170 54494e49 
00001174 54415453 
00001178 45535545 
0000117c 54464f44 
00001180 444f4d58 
00001184 464e4945 
00001188 5453204f 
0000118c 464f5f44 
00001190 0046 
00001192 01        12078 	.data.b	1
00001193 04ee      12079 	.data.b	238,4
00001195 5f4d4f43  12080 	.data.b	67,79,77,95,84,88,83,73,71,73,78,70,79,70,73,76,84,69,82,73,78,73,84,86,65,76,85,69,73,78,68,69,78,68,73,68,88,79,70,84,88,77,79,68,69,73,78,70,79,32,83,84,68,95,79,70,70,0
00001199 49535854 
0000119d 464e4947 
000011a1 4c49464f 
000011a5 49524554 
000011a9 5654494e 
000011ad 45554c41 
000011b1 45444e49 
000011b5 4449444e 
000011b9 54464f58 
000011bd 444f4d58 
000011c1 464e4945 
000011c5 5453204f 
000011c9 464f5f44 
000011cd 0046 
000011cf 01        12081 	.data.b	1
000011d0 04f2      12082 	.data.b	242,4
000011d2 5f4d4f43  12083 	.data.b	67,79,77,95,68,73,82,69,67,84,79,70,84,88,77,79,68,69,84,82,85,69,32,83,84,68,95,79,70,70,0
000011d6 45524944 
000011da 464f5443 
000011de 4f4d5854 
000011e2 52544544 
000011e6 53204555 
000011ea 4f5f4454 
000011ee 004646 
000011f1 01        12084 	.data.b	1
000011f2 04f3      12085 	.data.b	243,4
000011f4 5f4d4f43  12086 	.data.b	67,79,77,95,80,69,82,73,79,68,73,67,79,70,84,88,77,79,68,69,84,82,85,69,32,83,84,68,95,79,78,0
000011f8 49524550 
000011fc 4349444f 
00001200 5854464f 
00001204 45444f4d 
00001208 45555254 
0000120c 44545320 
00001210 004e4f5f 
00001214 01        12087 	.data.b	1
00001215 04f4      12088 	.data.b	244,4
00001217 5f4d4f43  12089 	.data.b	67,79,77,95,82,69,80,67,78,84,79,70,84,88,77,79,68,69,84,82,85,69,32,83,84,68,95,79,70,70,0
0000121b 43504552 
0000121f 464f544e 
00001223 4f4d5854 
00001227 52544544 

                                                                      Page 256
                                                              C:\Users\Fengyuan\AppData\Local\Temp\gh_0000fuk1.s
0000122b 53204555 
0000122f 4f5f4454 
00001233 004646 
00001236 01        12090 	.data.b	1
00001237 04f5      12091 	.data.b	245,4
00001239 5f4d4f43  12092 	.data.b	67,79,77,95,82,69,80,80,69,82,73,79,68,79,70,84,88,77,79,68,69,84,82,85,69,32,83,84,68,95,79,70,70,0
0000123d 50504552 
00001241 4f495245 
00001245 54464f44 
00001249 444f4d58 
0000124d 55525445 
00001251 54532045 
00001255 464f5f44 
00001259 0046 
0000125b 01        12093 	.data.b	1
0000125c 04f6      12094 	.data.b	246,4
0000125e 5f4d4f43  12095 	.data.b	67,79,77,95,84,73,77,69,79,70,70,83,69,84,79,70,84,88,77,79,68,69,84,82,85,69,32,83,84,68,95,79,70,70,0
00001262 454d4954 
00001266 5346464f 
0000126a 464f5445 
0000126e 4f4d5854 
00001272 52544544 
00001276 53204555 
0000127a 4f5f4454 
0000127e 004646 
00001281 01        12096 	.data.b	1
00001282 04fa      12097 	.data.b	250,4
00001284 5f4d4f43  12098 	.data.b	67,79,77,95,84,88,80,68,85,71,82,80,73,78,70,79,32,83,84,68,95,79,78,0
00001288 44505854 
0000128c 50524755 
00001290 4f464e49 
00001294 44545320 
00001298 004e4f5f 
0000129c 01        12099 	.data.b	1
0000129d 04fe      12100 	.data.b	254,4
0000129f 5f4d4f43  12101 	.data.b	67,79,77,95,84,88,80,68,85,73,78,70,79,32,83,84,68,95,79,78,0
000012a3 44505854 
000012a7 464e4955 
000012ab 5453204f 
000012af 4e4f5f44 
000012b3 00 
000012b4 01        12102 	.data.b	1
000012b5 04ff      12103 	.data.b	255,4
000012b7 5f4d4f43  12104 	.data.b	67,79,77,95,67,65,78,67,69,76,76,65,84,73,79,78,83,85,80,80,79,82,84,79,70,84,88,80,68,85,73,78,70,79,32,83,84,68,95,79,70,70,0
000012bb 434e4143 
000012bf 414c4c45 
000012c3 4e4f4954 
000012c7 50505553 
000012cb 4f54524f 
000012cf 50585446 
000012d3 4e495544 
000012d7 53204f46 
000012db 4f5f4454 
000012df 004646 
000012e2 01        12105 	.data.b	1
000012e3 0582      12106 	.data.b	130,5
000012e5 5f4d4f43  12107 	.data.b	67,79,77,95,67,66,75,84,88,65,67,75,68,69,70,70,85,78,67,80,84,82,73,78,68,85,83,69,68,79,70,84,88,80,68,85,73,78,70,79,32,83,84,68,95,79,70,70,0
000012e9 544b4243 
000012ed 4b434158 
000012f1 46464544 
000012f5 50434e55 

                                                                      Page 257
                                                              C:\Users\Fengyuan\AppData\Local\Temp\gh_0000fuk1.s
000012f9 4e495254 
000012fd 45535544 
00001301 54464f44 
00001305 55445058 
00001309 4f464e49 
0000130d 44545320 
00001311 46464f5f 
00001315 00 
00001316 01        12108 	.data.b	1
00001317 0585      12109 	.data.b	133,5
00001319 5f4d4f43  12110 	.data.b	67,79,77,95,67,66,75,84,88,65,67,75,73,77,70,85,78,67,80,84,82,73,78,68,85,83,69,68,79,70,84,88,80,68,85,73,78,70,79,32,83,84,68,95,79,70,70,0
0000131d 544b4243 
00001321 4b434158 
00001325 55464d49 
00001329 5450434e 
0000132d 444e4952 
00001331 44455355 
00001335 5854464f 
00001339 49554450 
0000133d 204f464e 
00001341 5f445453 
00001345 0046464f 
00001349 01        12111 	.data.b	1
0000134a 0588      12112 	.data.b	136,5
0000134c 5f4d4f43  12113 	.data.b	67,79,77,95,67,66,75,84,88,69,82,82,70,85,78,67,80,84,82,73,78,68,85,83,69,68,79,70,84,88,80,68,85,73,78,70,79,32,83,84,68,95,79,70,70,0
00001350 544b4243 
00001354 52524558 
00001358 434e5546 
0000135c 49525450 
00001360 5355444e 
00001364 464f4445 
00001368 44505854 
0000136c 464e4955 
00001370 5453204f 
00001374 464f5f44 
00001378 0046 
0000137a 01        12114 	.data.b	1
0000137b 058a      12115 	.data.b	138,5
0000137d 5f4d4f43  12116 	.data.b	67,79,77,95,67,79,78,83,84,86,65,76,85,69,85,73,78,84,56,85,66,67,76,69,65,82,77,65,83,75,69,78,68,73,68,88,79,70,84,88,80,68,85,73,78,70,79,32,83,84,68,95,79,70,70,0
00001381 534e4f43 
00001385 4c415654 
00001389 49554555 
0000138d 5538544e 
00001391 454c4342 
00001395 414d5241 
00001399 4e454b53 
0000139d 58444944 
000013a1 5854464f 
000013a5 49554450 
000013a9 204f464e 
000013ad 5f445453 
000013b1 0046464f 
000013b5 01        12117 	.data.b	1
000013b6 0593      12118 	.data.b	147,5
000013b8 5f4d4f43  12119 	.data.b	67,79,77,95,73,78,86,65,76,73,68,72,78,68,79,70,84,88,80,68,85,73,78,70,79,32,83,84,68,95,79,70,70,0
000013bc 41564e49 
000013c0 4844494c 
000013c4 464f444e 
000013c8 44505854 
000013cc 464e4955 
000013d0 5453204f 

                                                                      Page 258
                                                              C:\Users\Fengyuan\AppData\Local\Temp\gh_0000fuk1.s
000013d4 464f5f44 
000013d8 0046 
000013da 01        12120 	.data.b	1
000013db 059b      12121 	.data.b	155,5
000013dd 5f4d4f43  12122 	.data.b	67,79,77,95,84,88,66,85,70,70,69,82,77,69,84,65,68,65,84,65,85,83,69,68,79,70,84,88,80,68,85,73,78,70,79,32,83,84,68,95,79,70,70,0
000013e1 55425854 
000013e5 52454646 
000013e9 4154454d 
000013ed 41544144 
000013f1 44455355 
000013f5 5854464f 
000013f9 49554450 
000013fd 204f464e 
00001401 5f445453 
00001405 0046464f 
00001409 01        12123 	.data.b	1
0000140a 059d      12124 	.data.b	157,5
0000140c 5f4d4f43  12125 	.data.b	67,79,77,95,84,88,66,85,70,70,69,82,85,83,69,68,79,70,84,88,80,68,85,73,78,70,79,32,83,84,68,95,79,78,0
00001410 55425854 
00001414 52454646 
00001418 44455355 
0000141c 5854464f 
00001420 49554450 
00001424 204f464e 
00001428 5f445453 
0000142c 004e4f 
0000142f 01        12126 	.data.b	1
00001430 059f      12127 	.data.b	159,5
00001432 5f4d4f43  12128 	.data.b	67,79,77,95,84,88,80,68,85,67,65,76,76,79,85,84,70,85,78,67,80,84,82,85,83,69,68,79,70,84,88,80,68,85,73,78,70,79,32,83,84,68,95,79,70,70,0
00001436 44505854 
0000143a 4c414355 
0000143e 54554f4c 
00001442 434e5546 
00001446 55525450 
0000144a 4f444553 
0000144e 50585446 
00001452 4e495544 
00001456 53204f46 
0000145a 4f5f4454 
0000145e 004646 
00001461 01        12129 	.data.b	1
00001462 05a3      12130 	.data.b	163,5
00001464 5f4d4f43  12131 	.data.b	67,79,77,95,84,88,80,68,85,73,78,73,84,86,65,76,85,69,77,69,84,65,68,65,84,65,85,83,69,68,79,70,84,88,80,68,85,73,78,70,79,32,83,84,68,95,79,70,70,0
00001468 44505854 
0000146c 494e4955 
00001470 4c415654 
00001474 454d4555 
00001478 41444154 
0000147c 53554154 
00001480 464f4445 
00001484 44505854 
00001488 464e4955 
0000148c 5453204f 
00001490 464f5f44 
00001494 0046 
00001496 01        12132 	.data.b	1
00001497 05a8      12133 	.data.b	168,5
00001499 5f4d4f43  12134 	.data.b	67,79,77,95,84,88,83,73,71,71,82,80,73,78,70,79,73,78,68,69,78,68,73,68,88,79,70,84,88,80,68,85,73,78,70,79,32,83,84,68,95,79,70,70,0
0000149d 49535854 
000014a1 50524747 
000014a5 4f464e49 

                                                                      Page 259
                                                              C:\Users\Fengyuan\AppData\Local\Temp\gh_0000fuk1.s
000014a9 45444e49 
000014ad 4449444e 
000014b1 54464f58 
000014b5 55445058 
000014b9 4f464e49 
000014bd 44545320 
000014c1 46464f5f 
000014c5 00 
000014c6 01        12135 	.data.b	1
000014c7 05ac      12136 	.data.b	172,5
000014c9 5f4d4f43  12137 	.data.b	67,79,77,95,84,88,84,79,85,84,73,78,70,79,85,83,69,68,79,70,84,88,80,68,85,73,78,70,79,32,83,84,68,95,79,70,70,0
000014cd 4f545854 
000014d1 4e495455 
000014d5 53554f46 
000014d9 464f4445 
000014dd 44505854 
000014e1 464e4955 
000014e5 5453204f 
000014e9 464f5f44 
000014ed 0046 
000014ef 01        12138 	.data.b	1
000014f0 05ae      12139 	.data.b	174,5
000014f2 5f4d4f43  12140 	.data.b	67,79,77,95,84,88,84,80,73,78,70,79,85,83,69,68,79,70,84,88,80,68,85,73,78,70,79,32,83,84,68,95,79,70,70,0
000014f6 50545854 
000014fa 4f464e49 
000014fe 44455355 
00001502 5854464f 
00001506 49554450 
0000150a 204f464e 
0000150e 5f445453 
00001512 0046464f 
00001516 01        12141 	.data.b	1
00001517 05b5      12142 	.data.b	181,5
00001519 5f4d4f43  12143 	.data.b	67,79,77,95,84,88,83,73,71,71,82,80,73,78,70,79,32,83,84,68,95,79,70,70,0
0000151d 49535854 
00001521 50524747 
00001525 4f464e49 
00001529 44545320 
0000152d 46464f5f 
00001531 00 
00001532 01        12144 	.data.b	1
00001533 05b6      12145 	.data.b	182,5
00001535 5f4d4f43  12146 	.data.b	67,79,77,95,65,82,82,65,89,65,67,67,69,83,83,85,83,69,68,79,70,84,88,83,73,71,71,82,80,73,78,70,79,32,83,84,68,95,79,70,70,0
00001539 41525241 
0000153d 43434159 
00001541 55535345 
00001545 4f444553 
00001549 53585446 
0000154d 52474749 
00001551 464e4950 
00001555 5453204f 
00001559 464f5f44 
0000155d 0046 
0000155f 01        12147 	.data.b	1
00001560 05bf      12148 	.data.b	191,5
00001562 5f4d4f43  12149 	.data.b	67,79,77,95,83,73,71,71,82,80,65,82,82,65,89,70,73,76,84,69,82,73,78,70,79,85,83,69,68,79,70,84,88,83,73,71,71,82,80,73,78,70,79,32,83,84,68,95,79,70,70,0
00001566 47474953 
0000156a 52415052 
0000156e 46594152 
00001572 45544c49 
00001576 464e4952 

                                                                      Page 260
                                                              C:\Users\Fengyuan\AppData\Local\Temp\gh_0000fuk1.s
0000157a 4553554f 
0000157e 54464f44 
00001582 47495358 
00001586 49505247 
0000158a 204f464e 
0000158e 5f445453 
00001592 0046464f 
00001596 01        12150 	.data.b	1
00001597 05d5      12151 	.data.b	213,5
00001599 5f4d4f43  12152 	.data.b	67,79,77,95,84,88,83,73,71,71,82,80,79,78,67,72,65,78,71,69,77,65,83,75,79,78,67,72,65,78,71,69,85,83,69,68,79,70,84,88,83,73,71,71,82,80,73,78,70,79,32,83,84,68,95,79,70,70,0
0000159d 49535854 
000015a1 50524747 
000015a5 48434e4f 
000015a9 45474e41 
000015ad 4b53414d 
000015b1 48434e4f 
000015b5 45474e41 
000015b9 44455355 
000015bd 5854464f 
000015c1 47474953 
000015c5 4e495052 
000015c9 53204f46 
000015cd 4f5f4454 
000015d1 004646 
000015d4 01        12153 	.data.b	1
000015d5 05d9      12154 	.data.b	217,5
000015d7 5f4d4f43  12155 	.data.b	67,79,77,95,84,88,83,73,71,71,82,80,79,78,67,72,65,78,71,69,77,65,83,75,79,78,67,72,65,78,71,69,87,73,84,72,79,85,84,82,69,80,85,83,69,68,79,70,84,88,83,73,71,71,82,80,73,78,70,79
000015db 49535854 
000015df 50524747 
000015e3 48434e4f 
000015e7 45474e41 
000015eb 4b53414d 
000015ef 48434e4f 
000015f3 45474e41 
000015f7 48544957 
000015fb 5254554f 
000015ff 53555045 
00001603 464f4445 
00001607 49535854 
0000160b 50524747 
0000160f 4f464e49 
00001613 44545320  12156 	.data.b	32,83,84,68,95,79,70,70,0
00001617 46464f5f 
0000161b 00 
0000161c 01        12157 	.data.b	1
0000161d 05da      12158 	.data.b	218,5
0000161f 5f4d4f43  12159 	.data.b	67,79,77,95,84,88,83,73,71,73,78,70,79,73,78,86,86,65,76,85,69,73,78,68,69,78,68,73,68,88,79,70,84,88,83,73,71,71,82,80,73,78,70,79,32,83,84,68,95,79,70,70,0
00001623 49535854 
00001627 464e4947 
0000162b 564e494f 
0000162f 554c4156 
00001633 444e4945 
00001637 49444e45 
0000163b 464f5844 
0000163f 49535854 
00001643 50524747 
00001647 4f464e49 
0000164b 44545320 
0000164f 46464f5f 
00001653 00 
00001654 01        12160 	.data.b	1

                                                                      Page 261
                                                              C:\Users\Fengyuan\AppData\Local\Temp\gh_0000fuk1.s
00001655 05e0      12161 	.data.b	224,5
00001657 5f4d4f43  12162 	.data.b	67,79,77,95,84,88,83,73,71,71,82,80,77,65,83,75,32,83,84,68,95,79,70,70,0
0000165b 49535854 
0000165f 50524747 
00001663 4b53414d 
00001667 44545320 
0000166b 46464f5f 
0000166f 00 
00001670 01        12163 	.data.b	1
00001671 05e2      12164 	.data.b	226,5
00001673 5f4d4f43  12165 	.data.b	67,79,77,95,84,88,83,73,71,73,78,70,79,32,83,84,68,95,79,78,0
00001677 49535854 
0000167b 464e4947 
0000167f 5453204f 
00001683 4e4f5f44 
00001687 00 
00001688 01        12166 	.data.b	1
00001689 05ec      12167 	.data.b	236,5
0000168b 5f4d4f43  12168 	.data.b	67,79,77,95,67,79,78,83,84,86,65,76,85,69,65,82,82,65,89,66,65,83,69,68,73,78,86,86,65,76,85,69,85,83,69,68,79,70,84,88,83,73,71,73,78,70,79,32,83,84,68,95,79,70,70,0
0000168f 534e4f43 
00001693 4c415654 
00001697 52414555 
0000169b 42594152 
0000169f 44455341 
000016a3 56564e49 
000016a7 45554c41 
000016ab 44455355 
000016af 5854464f 
000016b3 49474953 
000016b7 204f464e 
000016bb 5f445453 
000016bf 0046464f 
000016c3 01        12169 	.data.b	1
000016c4 05ed      12170 	.data.b	237,5
000016c6 5f4d4f43  12171 	.data.b	67,79,77,95,70,73,76,84,69,82,73,78,70,79,73,68,88,79,70,84,88,83,73,71,73,78,70,79,32,83,84,68,95,79,70,70,0
000016ca 544c4946 
000016ce 4e495245 
000016d2 44494f46 
000016d6 54464f58 
000016da 47495358 
000016de 4f464e49 
000016e2 44545320 
000016e6 46464f5f 
000016ea 00 
000016eb 01        12172 	.data.b	1
000016ec 05ee      12173 	.data.b	238,5
000016ee 5f4d4f43  12174 	.data.b	67,79,77,95,70,73,76,84,69,82,73,78,70,79,85,83,69,68,79,70,84,88,83,73,71,73,78,70,79,32,83,84,68,95,79,70,70,0
000016f2 544c4946 
000016f6 4e495245 
000016fa 53554f46 
000016fe 464f4445 
00001702 49535854 
00001706 464e4947 
0000170a 5453204f 
0000170e 464f5f44 
00001712 0046 
00001714 01        12175 	.data.b	1
00001715 05ef      12176 	.data.b	239,5
00001717 5f4d4f43  12177 	.data.b	67,79,77,95,70,73,76,84,69,82,73,78,73,84,86,65,76,85,69,73,68,88,79,70,84,88,83,73,71,73,78,70,79,32,83,84,68,95,79,70,70,0
0000171b 544c4946 
0000171f 4e495245 

                                                                      Page 262
                                                              C:\Users\Fengyuan\AppData\Local\Temp\gh_0000fuk1.s
00001723 41565449 
00001727 4945554c 
0000172b 464f5844 
0000172f 49535854 
00001733 464e4947 
00001737 5453204f 
0000173b 464f5f44 
0000173f 0046 
00001741 01        12178 	.data.b	1
00001742 05f2      12179 	.data.b	242,5
00001744 5f4d4f43  12180 	.data.b	67,79,77,95,73,78,86,86,65,76,85,69,85,83,69,68,79,70,84,88,83,73,71,73,78,70,79,32,83,84,68,95,79,70,70,0
00001748 56564e49 
0000174c 45554c41 
00001750 44455355 
00001754 5854464f 
00001758 49474953 
0000175c 204f464e 
00001760 5f445453 
00001764 0046464f 
00001768 01        12181 	.data.b	1
00001769 05f3      12182 	.data.b	243,5
0000176b 5f4d4f43  12183 	.data.b	67,79,77,95,73,78,86,65,76,73,68,72,78,68,79,70,84,88,83,73,71,73,78,70,79,32,83,84,68,95,79,70,70,0
0000176f 41564e49 
00001773 4844494c 
00001777 464f444e 
0000177b 49535854 
0000177f 464e4947 
00001783 5453204f 
00001787 464f5f44 
0000178b 0046 
0000178d 01        12184 	.data.b	1
0000178e 05f5      12185 	.data.b	245,5
00001790 5f4d4f43  12186 	.data.b	67,79,77,95,79,78,67,72,65,78,71,69,85,83,69,68,79,70,84,88,83,73,71,73,78,70,79,32,83,84,68,95,79,70,70,0
00001794 48434e4f 
00001798 45474e41 
0000179c 44455355 
000017a0 5854464f 
000017a4 49474953 
000017a8 204f464e 
000017ac 5f445453 
000017b0 0046464f 
000017b4 01        12187 	.data.b	1
000017b5 05f7      12188 	.data.b	247,5
000017b7 5f4d4f43  12189 	.data.b	67,79,77,95,84,82,73,71,71,69,82,69,68,79,70,84,88,83,73,71,73,78,70,79,32,83,84,68,95,79,70,70,0
000017bb 47495254 
000017bf 45524547 
000017c3 54464f44 
000017c7 47495358 
000017cb 4f464e49 
000017cf 44545320 
000017d3 46464f5f 
000017d7 00 
000017d8 01        12190 	.data.b	1
000017d9 05fd      12191 	.data.b	253,5
000017db 5f4d4f43  12192 	.data.b	67,79,77,95,84,88,66,85,70,70,69,82,85,83,69,68,79,70,84,88,83,73,71,73,78,70,79,32,83,84,68,95,79,78,0
000017df 55425854 
000017e3 52454646 
000017e7 44455355 
000017eb 5854464f 
000017ef 49474953 
000017f3 204f464e 

                                                                      Page 263
                                                              C:\Users\Fengyuan\AppData\Local\Temp\gh_0000fuk1.s
000017f7 5f445453 
000017fb 004e4f 
000017fe 01        12193 	.data.b	1
000017ff 0683      12194 	.data.b	131,6
00001801 5f4d4f43  12195 	.data.b	67,79,77,95,84,88,70,73,76,84,69,82,73,78,73,84,86,65,76,85,69,65,82,82,65,89,66,65,83,69,68,70,73,76,84,69,82,73,78,73,84,86,65,76,85,69,85,83,69,68,79,70,84,88,83,73,71,73,78,70
00001805 49465854 
00001809 5245544c 
0000180d 54494e49 
00001811 554c4156 
00001815 52524145 
00001819 41425941 
0000181d 46444553 
00001821 45544c49 
00001825 494e4952 
00001829 4c415654 
0000182d 53554555 
00001831 464f4445 
00001835 49535854 
00001839 464e4947 
0000183d 5453204f  12196 	.data.b	79,32,83,84,68,95,79,70,70,0
00001841 464f5f44 
00001845 0046 
00001847 01        12197 	.data.b	1
00001848 0686      12198 	.data.b	134,6
0000184a 5f4d4f43  12199 	.data.b	67,79,77,95,84,88,83,73,71,71,82,80,73,78,70,79,85,83,69,68,79,70,84,88,83,73,71,73,78,70,79,32,83,84,68,95,79,70,70,0
0000184e 49535854 
00001852 50524747 
00001856 4f464e49 
0000185a 44455355 
0000185e 5854464f 
00001862 49474953 
00001866 204f464e 
0000186a 5f445453 
0000186e 0046464f 
00001872 01        12200 	.data.b	1
00001873 0688      12201 	.data.b	136,6
00001875 5f4d4f43  12202 	.data.b	67,79,77,95,85,66,77,65,83,75,85,83,69,68,79,70,84,88,83,73,71,73,78,70,79,32,83,84,68,95,79,70,70,0
00001879 414d4255 
0000187d 53554b53 
00001881 464f4445 
00001885 49535854 
00001889 464e4947 
0000188d 5453204f 
00001891 464f5f44 
00001895 0046 
00001897 01        12203 	.data.b	1
00001898 068c      12204 	.data.b	140,6
0000189a 5f4d4f43  12205 	.data.b	67,79,77,95,84,88,84,79,85,84,67,78,84,32,83,84,68,95,79,70,70,0
0000189e 4f545854 
000018a2 4e435455 
000018a6 54532054 
000018aa 464f5f44 
000018ae 0046 
000018b0 01        12206 	.data.b	1
000018b1 068d      12207 	.data.b	141,6
000018b3 5f4d4f43  12208 	.data.b	67,79,77,95,84,88,84,79,85,84,73,78,70,79,32,83,84,68,95,79,70,70,0
000018b7 4f545854 
000018bb 4e495455 
000018bf 53204f46 
000018c3 4f5f4454 
000018c7 004646 

                                                                      Page 264
                                                              C:\Users\Fengyuan\AppData\Local\Temp\gh_0000fuk1.s
000018ca 01        12209 	.data.b	1
000018cb 0690      12210 	.data.b	144,6
000018cd 5f4d4f43  12211 	.data.b	67,79,77,95,67,66,75,84,88,84,79,85,84,70,85,78,67,80,84,82,73,78,68,85,83,69,68,79,70,84,88,84,79,85,84,73,78,70,79,32,83,84,68,95,79,70,70,0
000018d1 544b4243 
000018d5 554f5458 
000018d9 4e554654 
000018dd 52545043 
000018e1 55444e49 
000018e5 4f444553 
000018e9 54585446 
000018ed 4954554f 
000018f1 204f464e 
000018f5 5f445453 
000018f9 0046464f 
000018fd 01        12212 	.data.b	1
000018fe 07d3      12213 	.data.b	211,7
00001900 5f4d4f43  12214 	.data.b	67,79,77,95,69,88,73,83,84,83,95,77,65,83,75,69,68,95,78,69,87,95,68,73,70,70,69,82,83,95,77,65,83,75,69,68,95,79,76,68,95,70,73,76,84,69,82,65,76,71,79,79,70,70,73,76,84,69,82,73
00001904 53495845 
00001908 4d5f5354 
0000190c 454b5341 
00001910 454e5f44 
00001914 49445f57 
00001918 52454646 
0000191c 414d5f53 
00001920 44454b53 
00001924 444c4f5f 
00001928 4c49465f 
0000192c 41524554 
00001930 4f4f474c 
00001934 4c494646 
00001938 49524554 
0000193c 5f4f464e  12215 	.data.b	78,70,79,95,70,76,79,65,84,51,50,32,83,84,68,95,79,70,70,0
00001940 414f4c46 
00001944 20323354 
00001948 5f445453 
0000194c 0046464f 
00001950 01        12216 	.data.b	1
00001951 07db      12217 	.data.b	219,7
00001953 5f4d4f43  12218 	.data.b	67,79,77,95,69,88,73,83,84,83,95,77,65,83,75,69,68,95,78,69,87,95,68,73,70,70,69,82,83,95,77,65,83,75,69,68,95,79,76,68,95,70,73,76,84,69,82,65,76,71,79,79,70,70,73,76,84,69,82,73
00001957 53495845 
0000195b 4d5f5354 
0000195f 454b5341 
00001963 454e5f44 
00001967 49445f57 
0000196b 52454646 
0000196f 414d5f53 
00001973 44454b53 
00001977 444c4f5f 
0000197b 4c49465f 
0000197f 41524554 
00001983 4f4f474c 
00001987 4c494646 
0000198b 49524554 
0000198f 5f4f464e  12219 	.data.b	78,70,79,95,70,76,79,65,84,54,52,32,83,84,68,95,79,70,70,0
00001993 414f4c46 
00001997 20343654 
0000199b 5f445453 
0000199f 0046464f 
000019a3 01        12220 	.data.b	1
000019a4 07e6      12221 	.data.b	230,7
000019a6 5f4d4f43  12222 	.data.b	67,79,77,95,69,88,73,83,84,83,95,78,69,87,95,73,83,95,79,85,84,83,73,68,69,95,70,73,76,84,69,82,65,76,71,79,79,70,70,73,76,84,69,82,73,78,70,79,95,83,73,78,84,49,54,32,83,84,68,95

                                                                      Page 265
                                                              C:\Users\Fengyuan\AppData\Local\Temp\gh_0000fuk1.s
000019aa 53495845 
000019ae 4e5f5354 
000019b2 495f5745 
000019b6 554f5f53 
000019ba 44495354 
000019be 49465f45 
000019c2 5245544c 
000019c6 4f474c41 
000019ca 4946464f 
000019ce 5245544c 
000019d2 4f464e49 
000019d6 4e49535f 
000019da 20363154 
000019de 5f445453 
000019e2 0046464f  12223 	.data.b	79,70,70,0
000019e6 01        12224 	.data.b	1
000019e7 07e7      12225 	.data.b	231,7
000019e9 5f4d4f43  12226 	.data.b	67,79,77,95,69,88,73,83,84,83,95,78,69,87,95,73,83,95,87,73,84,72,73,78,95,70,73,76,84,69,82,65,76,71,79,79,70,70,73,76,84,69,82,73,78,70,79,95,83,73,78,84,49,54,32,83,84,68,95,79
000019ed 53495845 
000019f1 4e5f5354 
000019f5 495f5745 
000019f9 49575f53 
000019fd 4e494854 
00001a01 4c49465f 
00001a05 41524554 
00001a09 4f4f474c 
00001a0d 4c494646 
00001a11 49524554 
00001a15 5f4f464e 
00001a19 544e4953 
00001a1d 53203631 
00001a21 4f5f4454 
00001a25 004646    12227 	.data.b	70,70,0
00001a28 01        12228 	.data.b	1
00001a29 07ee      12229 	.data.b	238,7
00001a2b 5f4d4f43  12230 	.data.b	67,79,77,95,69,88,73,83,84,83,95,78,69,87,95,73,83,95,79,85,84,83,73,68,69,95,70,73,76,84,69,82,65,76,71,79,79,70,70,73,76,84,69,82,73,78,70,79,95,83,73,78,84,51,50,32,83,84,68,95
00001a2f 53495845 
00001a33 4e5f5354 
00001a37 495f5745 
00001a3b 554f5f53 
00001a3f 44495354 
00001a43 49465f45 
00001a47 5245544c 
00001a4b 4f474c41 
00001a4f 4946464f 
00001a53 5245544c 
00001a57 4f464e49 
00001a5b 4e49535f 
00001a5f 20323354 
00001a63 5f445453 
00001a67 0046464f  12231 	.data.b	79,70,70,0
00001a6b 01        12232 	.data.b	1
00001a6c 07ef      12233 	.data.b	239,7
00001a6e 5f4d4f43  12234 	.data.b	67,79,77,95,69,88,73,83,84,83,95,78,69,87,95,73,83,95,87,73,84,72,73,78,95,70,73,76,84,69,82,65,76,71,79,79,70,70,73,76,84,69,82,73,78,70,79,95,83,73,78,84,51,50,32,83,84,68,95,79
00001a72 53495845 
00001a76 4e5f5354 
00001a7a 495f5745 
00001a7e 49575f53 
00001a82 4e494854 
00001a86 4c49465f 
00001a8a 41524554 

                                                                      Page 266
                                                              C:\Users\Fengyuan\AppData\Local\Temp\gh_0000fuk1.s
00001a8e 4f4f474c 
00001a92 4c494646 
00001a96 49524554 
00001a9a 5f4f464e 
00001a9e 544e4953 
00001aa2 53203233 
00001aa6 4f5f4454 
00001aaa 004646    12235 	.data.b	70,70,0
00001aad 01        12236 	.data.b	1
00001aae 07f6      12237 	.data.b	246,7
00001ab0 5f4d4f43  12238 	.data.b	67,79,77,95,69,88,73,83,84,83,95,78,69,87,95,73,83,95,79,85,84,83,73,68,69,95,70,73,76,84,69,82,65,76,71,79,79,70,70,73,76,84,69,82,73,78,70,79,95,83,73,78,84,54,52,32,83,84,68,95
00001ab4 53495845 
00001ab8 4e5f5354 
00001abc 495f5745 
00001ac0 554f5f53 
00001ac4 44495354 
00001ac8 49465f45 
00001acc 5245544c 
00001ad0 4f474c41 
00001ad4 4946464f 
00001ad8 5245544c 
00001adc 4f464e49 
00001ae0 4e49535f 
00001ae4 20343654 
00001ae8 5f445453 
00001aec 0046464f  12239 	.data.b	79,70,70,0
00001af0 01        12240 	.data.b	1
00001af1 07f7      12241 	.data.b	247,7
00001af3 5f4d4f43  12242 	.data.b	67,79,77,95,69,88,73,83,84,83,95,78,69,87,95,73,83,95,87,73,84,72,73,78,95,70,73,76,84,69,82,65,76,71,79,79,70,70,73,76,84,69,82,73,78,70,79,95,83,73,78,84,54,52,32,83,84,68,95,79
00001af7 53495845 
00001afb 4e5f5354 
00001aff 495f5745 
00001b03 49575f53 
00001b07 4e494854 
00001b0b 4c49465f 
00001b0f 41524554 
00001b13 4f4f474c 
00001b17 4c494646 
00001b1b 49524554 
00001b1f 5f4f464e 
00001b23 544e4953 
00001b27 53203436 
00001b2b 4f5f4454 
00001b2f 004646    12243 	.data.b	70,70,0
00001b32 01        12244 	.data.b	1
00001b33 07fe      12245 	.data.b	254,7
00001b35 5f4d4f43  12246 	.data.b	67,79,77,95,69,88,73,83,84,83,95,78,69,87,95,73,83,95,79,85,84,83,73,68,69,95,70,73,76,84,69,82,65,76,71,79,79,70,70,73,76,84,69,82,73,78,70,79,95,83,73,78,84,56,32,83,84,68,95,79
00001b39 53495845 
00001b3d 4e5f5354 
00001b41 495f5745 
00001b45 554f5f53 
00001b49 44495354 
00001b4d 49465f45 
00001b51 5245544c 
00001b55 4f474c41 
00001b59 4946464f 
00001b5d 5245544c 
00001b61 4f464e49 
00001b65 4e49535f 
00001b69 53203854 
00001b6d 4f5f4454 

                                                                      Page 267
                                                              C:\Users\Fengyuan\AppData\Local\Temp\gh_0000fuk1.s
00001b71 004646    12247 	.data.b	70,70,0
00001b74 01        12248 	.data.b	1
00001b75 07ff      12249 	.data.b	255,7
00001b77 5f4d4f43  12250 	.data.b	67,79,77,95,69,88,73,83,84,83,95,78,69,87,95,73,83,95,87,73,84,72,73,78,95,70,73,76,84,69,82,65,76,71,79,79,70,70,73,76,84,69,82,73,78,70,79,95,83,73,78,84,56,32,83,84,68,95,79,70
00001b7b 53495845 
00001b7f 4e5f5354 
00001b83 495f5745 
00001b87 49575f53 
00001b8b 4e494854 
00001b8f 4c49465f 
00001b93 41524554 
00001b97 4f4f474c 
00001b9b 4c494646 
00001b9f 49524554 
00001ba3 5f4f464e 
00001ba7 544e4953 
00001bab 54532038 
00001baf 464f5f44 
00001bb3 0046      12251 	.data.b	70,0
00001bb5 01        12252 	.data.b	1
00001bb6 0886      12253 	.data.b	134,8
00001bb8 5f4d4f43  12254 	.data.b	67,79,77,95,69,88,73,83,84,83,95,78,69,87,95,73,83,95,79,85,84,83,73,68,69,95,70,73,76,84,69,82,65,76,71,79,79,70,70,73,76,84,69,82,73,78,70,79,95,85,73,78,84,49,54,32,83,84,68,95
00001bbc 53495845 
00001bc0 4e5f5354 
00001bc4 495f5745 
00001bc8 554f5f53 
00001bcc 44495354 
00001bd0 49465f45 
00001bd4 5245544c 
00001bd8 4f474c41 
00001bdc 4946464f 
00001be0 5245544c 
00001be4 4f464e49 
00001be8 4e49555f 
00001bec 20363154 
00001bf0 5f445453 
00001bf4 0046464f  12255 	.data.b	79,70,70,0
00001bf8 01        12256 	.data.b	1
00001bf9 0887      12257 	.data.b	135,8
00001bfb 5f4d4f43  12258 	.data.b	67,79,77,95,69,88,73,83,84,83,95,78,69,87,95,73,83,95,87,73,84,72,73,78,95,70,73,76,84,69,82,65,76,71,79,79,70,70,73,76,84,69,82,73,78,70,79,95,85,73,78,84,49,54,32,83,84,68,95,79
00001bff 53495845 
00001c03 4e5f5354 
00001c07 495f5745 
00001c0b 49575f53 
00001c0f 4e494854 
00001c13 4c49465f 
00001c17 41524554 
00001c1b 4f4f474c 
00001c1f 4c494646 
00001c23 49524554 
00001c27 5f4f464e 
00001c2b 544e4955 
00001c2f 53203631 
00001c33 4f5f4454 
00001c37 004646    12259 	.data.b	70,70,0
00001c3a 01        12260 	.data.b	1
00001c3b 088e      12261 	.data.b	142,8
00001c3d 5f4d4f43  12262 	.data.b	67,79,77,95,69,88,73,83,84,83,95,78,69,87,95,73,83,95,79,85,84,83,73,68,69,95,70,73,76,84,69,82,65,76,71,79,79,70,70,73,76,84,69,82,73,78,70,79,95,85,73,78,84,51,50,32,83,84,68,95
00001c41 53495845 
00001c45 4e5f5354 
00001c49 495f5745 

                                                                      Page 268
                                                              C:\Users\Fengyuan\AppData\Local\Temp\gh_0000fuk1.s
00001c4d 554f5f53 
00001c51 44495354 
00001c55 49465f45 
00001c59 5245544c 
00001c5d 4f474c41 
00001c61 4946464f 
00001c65 5245544c 
00001c69 4f464e49 
00001c6d 4e49555f 
00001c71 20323354 
00001c75 5f445453 
00001c79 0046464f  12263 	.data.b	79,70,70,0
00001c7d 01        12264 	.data.b	1
00001c7e 088f      12265 	.data.b	143,8
00001c80 5f4d4f43  12266 	.data.b	67,79,77,95,69,88,73,83,84,83,95,78,69,87,95,73,83,95,87,73,84,72,73,78,95,70,73,76,84,69,82,65,76,71,79,79,70,70,73,76,84,69,82,73,78,70,79,95,85,73,78,84,51,50,32,83,84,68,95,79
00001c84 53495845 
00001c88 4e5f5354 
00001c8c 495f5745 
00001c90 49575f53 
00001c94 4e494854 
00001c98 4c49465f 
00001c9c 41524554 
00001ca0 4f4f474c 
00001ca4 4c494646 
00001ca8 49524554 
00001cac 5f4f464e 
00001cb0 544e4955 
00001cb4 53203233 
00001cb8 4f5f4454 
00001cbc 004646    12267 	.data.b	70,70,0
00001cbf 01        12268 	.data.b	1
00001cc0 0896      12269 	.data.b	150,8
00001cc2 5f4d4f43  12270 	.data.b	67,79,77,95,69,88,73,83,84,83,95,78,69,87,95,73,83,95,79,85,84,83,73,68,69,95,70,73,76,84,69,82,65,76,71,79,79,70,70,73,76,84,69,82,73,78,70,79,95,85,73,78,84,54,52,32,83,84,68,95
00001cc6 53495845 
00001cca 4e5f5354 
00001cce 495f5745 
00001cd2 554f5f53 
00001cd6 44495354 
00001cda 49465f45 
00001cde 5245544c 
00001ce2 4f474c41 
00001ce6 4946464f 
00001cea 5245544c 
00001cee 4f464e49 
00001cf2 4e49555f 
00001cf6 20343654 
00001cfa 5f445453 
00001cfe 0046464f  12271 	.data.b	79,70,70,0
00001d02 01        12272 	.data.b	1
00001d03 0897      12273 	.data.b	151,8
00001d05 5f4d4f43  12274 	.data.b	67,79,77,95,69,88,73,83,84,83,95,78,69,87,95,73,83,95,87,73,84,72,73,78,95,70,73,76,84,69,82,65,76,71,79,79,70,70,73,76,84,69,82,73,78,70,79,95,85,73,78,84,54,52,32,83,84,68,95,79
00001d09 53495845 
00001d0d 4e5f5354 
00001d11 495f5745 
00001d15 49575f53 
00001d19 4e494854 
00001d1d 4c49465f 
00001d21 41524554 
00001d25 4f4f474c 
00001d29 4c494646 
00001d2d 49524554 

                                                                      Page 269
                                                              C:\Users\Fengyuan\AppData\Local\Temp\gh_0000fuk1.s
00001d31 5f4f464e 
00001d35 544e4955 
00001d39 53203436 
00001d3d 4f5f4454 
00001d41 004646    12275 	.data.b	70,70,0
00001d44 01        12276 	.data.b	1
00001d45 089e      12277 	.data.b	158,8
00001d47 5f4d4f43  12278 	.data.b	67,79,77,95,69,88,73,83,84,83,95,78,69,87,95,73,83,95,79,85,84,83,73,68,69,95,70,73,76,84,69,82,65,76,71,79,79,70,70,73,76,84,69,82,73,78,70,79,95,85,73,78,84,56,32,83,84,68,95,79
00001d4b 53495845 
00001d4f 4e5f5354 
00001d53 495f5745 
00001d57 554f5f53 
00001d5b 44495354 
00001d5f 49465f45 
00001d63 5245544c 
00001d67 4f474c41 
00001d6b 4946464f 
00001d6f 5245544c 
00001d73 4f464e49 
00001d77 4e49555f 
00001d7b 53203854 
00001d7f 4f5f4454 
00001d83 004646    12279 	.data.b	70,70,0
00001d86 01        12280 	.data.b	1
00001d87 089f      12281 	.data.b	159,8
00001d89 5f4d4f43  12282 	.data.b	67,79,77,95,69,88,73,83,84,83,95,78,69,87,95,73,83,95,87,73,84,72,73,78,95,70,73,76,84,69,82,65,76,71,79,79,70,70,73,76,84,69,82,73,78,70,79,95,85,73,78,84,56,32,83,84,68,95,79,70
00001d8d 53495845 
00001d91 4e5f5354 
00001d95 495f5745 
00001d99 49575f53 
00001d9d 4e494854 
00001da1 4c49465f 
00001da5 41524554 
00001da9 4f4f474c 
00001dad 4c494646 
00001db1 49524554 
00001db5 5f4f464e 
00001db9 544e4955 
00001dbd 54532038 
00001dc1 464f5f44 
00001dc5 0046      12283 	.data.b	70,0
00001dc7 01        12284 	.data.b	1
00001dc8 08a9      12285 	.data.b	169,8
00001dca 5f4d4f43  12286 	.data.b	67,79,77,95,69,88,73,83,84,83,95,68,73,82,69,67,84,95,67,79,80,89,84,89,80,69,79,70,71,87,68,69,83,67,82,73,80,84,73,79,78,65,67,67,69,83,83,73,78,70,79,32,83,84,68,95,79,70,70,0
00001dce 53495845 
00001dd2 445f5354 
00001dd6 43455249 
00001dda 4f435f54 
00001dde 59545950 
00001de2 464f4550 
00001de6 45445747 
00001dea 49524353 
00001dee 4f495450 
00001df2 4343414e 
00001df6 49535345 
00001dfa 204f464e 
00001dfe 5f445453 
00001e02 0046464f 
00001e06 01        12287 	.data.b	1
00001e07 08aa      12288 	.data.b	170,8
00001e09 5f4d4f43  12289 	.data.b	67,79,77,95,69,88,73,83,84,83,95,82,73,71,72,84,83,72,73,70,84,95,67,79,80,89,84,89,80,69,79,70,71,87,68,69,83,67,82,73,80,84,73,79,78,65,67,67,69,83,83,73,78,70,79,32,83,84,68,95

                                                                      Page 270
                                                              C:\Users\Fengyuan\AppData\Local\Temp\gh_0000fuk1.s
00001e0d 53495845 
00001e11 525f5354 
00001e15 54484749 
00001e19 46494853 
00001e1d 4f435f54 
00001e21 59545950 
00001e25 464f4550 
00001e29 45445747 
00001e2d 49524353 
00001e31 4f495450 
00001e35 4343414e 
00001e39 49535345 
00001e3d 204f464e 
00001e41 5f445453 
00001e45 0046464f  12290 	.data.b	79,70,70,0
00001e49 01        12291 	.data.b	1
00001e4a 08ab      12292 	.data.b	171,8
00001e4c 5f4d4f43  12293 	.data.b	67,79,77,95,69,88,73,83,84,83,95,76,69,70,84,83,72,73,70,84,95,67,79,80,89,84,89,80,69,79,70,71,87,68,69,83,67,82,73,80,84,73,79,78,65,67,67,69,83,83,73,78,70,79,32,83,84,68,95,79
00001e50 53495845 
00001e54 4c5f5354 
00001e58 53544645 
00001e5c 54464948 
00001e60 504f435f 
00001e64 50595459 
00001e68 47464f45 
00001e6c 53454457 
00001e70 50495243 
00001e74 4e4f4954 
00001e78 45434341 
00001e7c 4e495353 
00001e80 53204f46 
00001e84 4f5f4454 
00001e88 004646    12294 	.data.b	70,70,0
00001e8b 01        12295 	.data.b	1
00001e8c 08b8      12296 	.data.b	184,8
00001e8e 5f4d4f43  12297 	.data.b	67,79,77,95,69,88,73,83,84,83,95,85,73,78,84,56,95,65,80,80,76,84,89,80,69,79,70,82,88,65,67,67,69,83,83,73,78,70,79,32,83,84,68,95,79,78,0
00001e92 53495845 
00001e96 555f5354 
00001e9a 38544e49 
00001e9e 5050415f 
00001ea2 5059544c 
00001ea6 52464f45 
00001eaa 43434158 
00001eae 49535345 
00001eb2 204f464e 
00001eb6 5f445453 
00001eba 004e4f 
00001ebd 01        12298 	.data.b	1
00001ebe 08b9      12299 	.data.b	185,8
00001ec0 5f4d4f43  12300 	.data.b	67,79,77,95,69,88,73,83,84,83,95,83,73,78,84,56,95,65,80,80,76,84,89,80,69,79,70,82,88,65,67,67,69,83,83,73,78,70,79,32,83,84,68,95,79,70,70,0
00001ec4 53495845 
00001ec8 535f5354 
00001ecc 38544e49 
00001ed0 5050415f 
00001ed4 5059544c 
00001ed8 52464f45 
00001edc 43434158 
00001ee0 49535345 
00001ee4 204f464e 
00001ee8 5f445453 
00001eec 0046464f 

                                                                      Page 271
                                                              C:\Users\Fengyuan\AppData\Local\Temp\gh_0000fuk1.s
00001ef0 01        12301 	.data.b	1
00001ef1 08ba      12302 	.data.b	186,8
00001ef3 5f4d4f43  12303 	.data.b	67,79,77,95,69,88,73,83,84,83,95,85,73,78,84,49,54,95,65,80,80,76,84,89,80,69,79,70,82,88,65,67,67,69,83,83,73,78,70,79,32,83,84,68,95,79,70,70,0
00001ef7 53495845 
00001efb 555f5354 
00001eff 31544e49 
00001f03 50415f36 
00001f07 59544c50 
00001f0b 464f4550 
00001f0f 43415852 
00001f13 53534543 
00001f17 4f464e49 
00001f1b 44545320 
00001f1f 46464f5f 
00001f23 00 
00001f24 01        12304 	.data.b	1
00001f25 08bb      12305 	.data.b	187,8
00001f27 5f4d4f43  12306 	.data.b	67,79,77,95,69,88,73,83,84,83,95,83,73,78,84,49,54,95,65,80,80,76,84,89,80,69,79,70,82,88,65,67,67,69,83,83,73,78,70,79,32,83,84,68,95,79,70,70,0
00001f2b 53495845 
00001f2f 535f5354 
00001f33 31544e49 
00001f37 50415f36 
00001f3b 59544c50 
00001f3f 464f4550 
00001f43 43415852 
00001f47 53534543 
00001f4b 4f464e49 
00001f4f 44545320 
00001f53 46464f5f 
00001f57 00 
00001f58 01        12307 	.data.b	1
00001f59 08bc      12308 	.data.b	188,8
00001f5b 5f4d4f43  12309 	.data.b	67,79,77,95,69,88,73,83,84,83,95,85,73,78,84,51,50,95,65,80,80,76,84,89,80,69,79,70,82,88,65,67,67,69,83,83,73,78,70,79,32,83,84,68,95,79,70,70,0
00001f5f 53495845 
00001f63 555f5354 
00001f67 33544e49 
00001f6b 50415f32 
00001f6f 59544c50 
00001f73 464f4550 
00001f77 43415852 
00001f7b 53534543 
00001f7f 4f464e49 
00001f83 44545320 
00001f87 46464f5f 
00001f8b 00 
00001f8c 01        12310 	.data.b	1
00001f8d 08bd      12311 	.data.b	189,8
00001f8f 5f4d4f43  12312 	.data.b	67,79,77,95,69,88,73,83,84,83,95,83,73,78,84,51,50,95,65,80,80,76,84,89,80,69,79,70,82,88,65,67,67,69,83,83,73,78,70,79,32,83,84,68,95,79,70,70,0
00001f93 53495845 
00001f97 535f5354 
00001f9b 33544e49 
00001f9f 50415f32 
00001fa3 59544c50 
00001fa7 464f4550 
00001fab 43415852 
00001faf 53534543 
00001fb3 4f464e49 
00001fb7 44545320 
00001fbb 46464f5f 
00001fbf 00 
00001fc0 01        12313 	.data.b	1

                                                                      Page 272
                                                              C:\Users\Fengyuan\AppData\Local\Temp\gh_0000fuk1.s
00001fc1 08be      12314 	.data.b	190,8
00001fc3 5f4d4f43  12315 	.data.b	67,79,77,95,69,88,73,83,84,83,95,85,73,78,84,54,52,95,65,80,80,76,84,89,80,69,79,70,82,88,65,67,67,69,83,83,73,78,70,79,32,83,84,68,95,79,70,70,0
00001fc7 53495845 
00001fcb 555f5354 
00001fcf 36544e49 
00001fd3 50415f34 
00001fd7 59544c50 
00001fdb 464f4550 
00001fdf 43415852 
00001fe3 53534543 
00001fe7 4f464e49 
00001feb 44545320 
00001fef 46464f5f 
00001ff3 00 
00001ff4 01        12316 	.data.b	1
00001ff5 08bf      12317 	.data.b	191,8
00001ff7 5f4d4f43  12318 	.data.b	67,79,77,95,69,88,73,83,84,83,95,83,73,78,84,54,52,95,65,80,80,76,84,89,80,69,79,70,82,88,65,67,67,69,83,83,73,78,70,79,32,83,84,68,95,79,70,70,0
00001ffb 53495845 
00001fff 535f5354 
00002003 36544e49 
00002007 50415f34 
0000200b 59544c50 
0000200f 464f4550 
00002013 43415852 
00002017 53534543 
0000201b 4f464e49 
0000201f 44545320 
00002023 46464f5f 
00002027 00 
00002028 01        12319 	.data.b	1
00002029 08c0      12320 	.data.b	192,8
0000202b 5f4d4f43  12321 	.data.b	67,79,77,95,69,88,73,83,84,83,95,85,73,78,84,56,95,78,95,65,80,80,76,84,89,80,69,79,70,82,88,65,67,67,69,83,83,73,78,70,79,32,83,84,68,95,79,70,70,0
0000202f 53495845 
00002033 555f5354 
00002037 38544e49 
0000203b 415f4e5f 
0000203f 544c5050 
00002043 4f455059 
00002047 41585246 
0000204b 53454343 
0000204f 464e4953 
00002053 5453204f 
00002057 464f5f44 
0000205b 0046 
0000205d 01        12322 	.data.b	1
0000205e 08c1      12323 	.data.b	193,8
00002060 5f4d4f43  12324 	.data.b	67,79,77,95,69,88,73,83,84,83,95,85,73,78,84,56,95,68,89,78,95,65,80,80,76,84,89,80,69,79,70,82,88,65,67,67,69,83,83,73,78,70,79,32,83,84,68,95,79,70,70,0
00002064 53495845 
00002068 555f5354 
0000206c 38544e49 
00002070 4e59445f 
00002074 5050415f 
00002078 5059544c 
0000207c 52464f45 
00002080 43434158 
00002084 49535345 
00002088 204f464e 
0000208c 5f445453 
00002090 0046464f 
00002094 01        12325 	.data.b	1
00002095 08c2      12326 	.data.b	194,8

                                                                      Page 273
                                                              C:\Users\Fengyuan\AppData\Local\Temp\gh_0000fuk1.s
00002097 5f4d4f43  12327 	.data.b	67,79,77,95,69,88,73,83,84,83,95,90,69,82,79,66,73,84,95,65,80,80,76,84,89,80,69,79,70,82,88,65,67,67,69,83,83,73,78,70,79,32,83,84,68,95,79,70,70,0
0000209b 53495845 
0000209f 5a5f5354 
000020a3 424f5245 
000020a7 415f5449 
000020ab 544c5050 
000020af 4f455059 
000020b3 41585246 
000020b7 53454343 
000020bb 464e4953 
000020bf 5453204f 
000020c3 464f5f44 
000020c7 0046 
000020c9 01        12328 	.data.b	1
000020ca 08c3      12329 	.data.b	195,8
000020cc 5f4d4f43  12330 	.data.b	67,79,77,95,69,88,73,83,84,83,95,70,76,79,65,84,51,50,95,65,80,80,76,84,89,80,69,79,70,82,88,65,67,67,69,83,83,73,78,70,79,32,83,84,68,95,79,70,70,0
000020d0 53495845 
000020d4 465f5354 
000020d8 54414f4c 
000020dc 415f3233 
000020e0 544c5050 
000020e4 4f455059 
000020e8 41585246 
000020ec 53454343 
000020f0 464e4953 
000020f4 5453204f 
000020f8 464f5f44 
000020fc 0046 
000020fe 01        12331 	.data.b	1
000020ff 08c4      12332 	.data.b	196,8
00002101 5f4d4f43  12333 	.data.b	67,79,77,95,69,88,73,83,84,83,95,70,76,79,65,84,54,52,95,65,80,80,76,84,89,80,69,79,70,82,88,65,67,67,69,83,83,73,78,70,79,32,83,84,68,95,79,70,70,0
00002105 53495845 
00002109 465f5354 
0000210d 54414f4c 
00002111 415f3436 
00002115 544c5050 
00002119 4f455059 
0000211d 41585246 
00002121 53454343 
00002125 464e4953 
00002129 5453204f 
0000212d 464f5f44 
00002131 0046 
00002133 01        12334 	.data.b	1
00002134 08c5      12335 	.data.b	197,8
00002136 5f4d4f43  12336 	.data.b	67,79,77,95,69,88,73,83,84,83,95,78,66,73,84,95,66,85,83,65,67,67,79,70,82,88,65,67,67,69,83,83,73,78,70,79,32,83,84,68,95,79,78,0
0000213a 53495845 
0000213e 4e5f5354 
00002142 5f544942 
00002146 41535542 
0000214a 464f4343 
0000214e 43415852 
00002152 53534543 
00002156 4f464e49 
0000215a 44545320 
0000215e 004e4f5f 
00002162 01        12337 	.data.b	1
00002163 08c6      12338 	.data.b	198,8
00002165 5f4d4f43  12339 	.data.b	67,79,77,95,69,88,73,83,84,83,95,66,89,84,69,95,66,85,83,65,67,67,79,70,82,88,65,67,67,69,83,83,73,78,70,79,32,83,84,68,95,79,70,70,0
00002169 53495845 
0000216d 425f5354 

                                                                      Page 274
                                                              C:\Users\Fengyuan\AppData\Local\Temp\gh_0000fuk1.s
00002171 5f455459 
00002175 41535542 
00002179 464f4343 
0000217d 43415852 
00002181 53534543 
00002185 4f464e49 
00002189 44545320 
0000218d 46464f5f 
00002191 00 
00002192 01        12340 	.data.b	1
00002193 08c7      12341 	.data.b	199,8
00002195 5f4d4f43  12342 	.data.b	67,79,77,95,69,88,73,83,84,83,95,78,66,89,84,69,95,66,85,83,65,67,67,79,70,82,88,65,67,67,69,83,83,73,78,70,79,32,83,84,68,95,79,70,70,0
00002199 53495845 
0000219d 4e5f5354 
000021a1 45545942 
000021a5 5355425f 
000021a9 4f434341 
000021ad 41585246 
000021b1 53454343 
000021b5 464e4953 
000021b9 5453204f 
000021bd 464f5f44 
000021c1 0046 
000021c3 01        12343 	.data.b	1
000021c4 08c8      12344 	.data.b	200,8
000021c6 5f4d4f43  12345 	.data.b	67,79,77,95,69,88,73,83,84,83,95,78,66,89,84,69,95,83,87,95,66,85,83,65,67,67,79,70,82,88,65,67,67,69,83,83,73,78,70,79,32,83,84,68,95,79,70,70,0
000021ca 53495845 
000021ce 4e5f5354 
000021d2 45545942 
000021d6 5f57535f 
000021da 41535542 
000021de 464f4343 
000021e2 43415852 
000021e6 53534543 
000021ea 4f464e49 
000021ee 44545320 
000021f2 46464f5f 
000021f6 00 
000021f7 01        12346 	.data.b	1
000021f8 08c9      12347 	.data.b	201,8
000021fa 5f4d4f43  12348 	.data.b	67,79,77,95,69,88,73,83,84,83,95,78,66,73,84,78,66,89,84,69,95,66,85,83,65,67,67,79,70,82,88,65,67,67,69,83,83,73,78,70,79,32,83,84,68,95,79,70,70,0
000021fe 53495845 
00002202 4e5f5354 
00002206 4e544942 
0000220a 45545942 
0000220e 5355425f 
00002212 4f434341 
00002216 41585246 
0000221a 53454343 
0000221e 464e4953 
00002222 5453204f 
00002226 464f5f44 
0000222a 0046 
0000222c 01        12349 	.data.b	1
0000222d 08ca      12350 	.data.b	202,8
0000222f 5f4d4f43  12351 	.data.b	67,79,77,95,69,88,73,83,84,83,95,78,66,73,84,78,66,89,84,69,95,83,87,95,66,85,83,65,67,67,79,70,82,88,65,67,67,69,83,83,73,78,70,79,32,83,84,68,95,79,70,70,0
00002233 53495845 
00002237 4e5f5354 
0000223b 4e544942 
0000223f 45545942 
00002243 5f57535f 

                                                                      Page 275
                                                              C:\Users\Fengyuan\AppData\Local\Temp\gh_0000fuk1.s
00002247 41535542 
0000224b 464f4343 
0000224f 43415852 
00002253 53534543 
00002257 4f464e49 
0000225b 44545320 
0000225f 46464f5f 
00002263 00 
00002264 01        12352 	.data.b	1
00002265 08cc      12353 	.data.b	204,8
00002267 5f4d4f43  12354 	.data.b	67,79,77,95,69,88,73,83,84,83,95,68,69,70,69,82,82,69,68,95,83,73,71,78,65,76,80,82,79,67,69,83,83,73,78,71,79,70,82,88,80,68,85,73,78,70,79,32,83,84,68,95,79,78,0
0000226b 53495845 
0000226f 445f5354 
00002273 52454645 
00002277 5f444552 
0000227b 4e474953 
0000227f 52504c41 
00002283 5345434f 
00002287 474e4953 
0000228b 5852464f 
0000228f 49554450 
00002293 204f464e 
00002297 5f445453 
0000229b 004e4f 
0000229e 01        12355 	.data.b	1
0000229f 08cd      12356 	.data.b	205,8
000022a1 5f4d4f43  12357 	.data.b	67,79,77,95,69,88,73,83,84,83,95,73,77,77,69,68,73,65,84,69,95,83,73,71,78,65,76,80,82,79,67,69,83,83,73,78,71,79,70,82,88,80,68,85,73,78,70,79,32,83,84,68,95,79,70,70,0
000022a5 53495845 
000022a9 495f5354 
000022ad 44454d4d 
000022b1 45544149 
000022b5 4749535f 
000022b9 504c414e 
000022bd 45434f52 
000022c1 4e495353 
000022c5 52464f47 
000022c9 55445058 
000022cd 4f464e49 
000022d1 44545320 
000022d5 46464f5f 
000022d9 00 
000022da 01        12358 	.data.b	1
000022db 08ce      12359 	.data.b	206,8
000022dd 5f4d4f43  12360 	.data.b	67,79,77,95,69,88,73,83,84,83,95,78,79,82,77,65,76,95,84,89,80,69,79,70,82,88,80,68,85,73,78,70,79,32,83,84,68,95,79,78,0
000022e1 53495845 
000022e5 4e5f5354 
000022e9 414d524f 
000022ed 59545f4c 
000022f1 464f4550 
000022f5 44505852 
000022f9 464e4955 
000022fd 5453204f 
00002301 4e4f5f44 
00002305 00 
00002306 01        12361 	.data.b	1
00002307 08dc      12362 	.data.b	220,8
00002309 5f4d4f43  12363 	.data.b	67,79,77,95,69,88,73,83,84,83,95,84,82,65,78,83,77,73,84,95,67,76,82,85,66,79,70,84,88,80,68,85,73,78,70,79,32,83,84,68,95,79,70,70,0
0000230d 53495845 
00002311 545f5354 
00002315 534e4152 
00002319 5f54494d 

                                                                      Page 276
                                                              C:\Users\Fengyuan\AppData\Local\Temp\gh_0000fuk1.s
0000231d 55524c43 
00002321 54464f42 
00002325 55445058 
00002329 4f464e49 
0000232d 44545320 
00002331 46464f5f 
00002335 00 
00002336 01        12364 	.data.b	1
00002337 08df      12365 	.data.b	223,8
00002339 5f4d4f43  12366 	.data.b	67,79,77,95,69,88,73,83,84,83,95,67,79,78,70,73,82,77,65,84,73,79,78,95,67,76,82,85,66,79,70,84,88,80,68,85,73,78,70,79,32,83,84,68,95,79,70,70,0
0000233d 53495845 
00002341 435f5354 
00002345 49464e4f 
00002349 54414d52 
0000234d 5f4e4f49 
00002351 55524c43 
00002355 54464f42 
00002359 55445058 
0000235d 4f464e49 
00002361 44545320 
00002365 46464f5f 
00002369 00 
0000236a 01        12367 	.data.b	1
0000236b 08ee      12368 	.data.b	238,8
0000236d 5f4d4f43  12369 	.data.b	67,79,77,95,69,88,73,83,84,83,95,85,73,78,84,56,95,68,89,78,95,65,80,80,76,84,89,80,69,79,70,84,88,83,73,71,73,78,70,79,32,83,84,68,95,79,70,70,0
00002371 53495845 
00002375 555f5354 
00002379 38544e49 
0000237d 4e59445f 
00002381 5050415f 
00002385 5059544c 
00002389 54464f45 
0000238d 47495358 
00002391 4f464e49 
00002395 44545320 
00002399 46464f5f 
0000239d 00 
0000239e 01        12370 	.data.b	1
0000239f 08f0      12371 	.data.b	240,8
000023a1 5f4d4f43  12372 	.data.b	67,79,77,95,69,88,73,83,84,83,95,70,76,79,65,84,51,50,95,65,80,80,76,84,89,80,69,79,70,84,88,83,73,71,73,78,70,79,32,83,84,68,95,79,70,70,0
000023a5 53495845 
000023a9 465f5354 
000023ad 54414f4c 
000023b1 415f3233 
000023b5 544c5050 
000023b9 4f455059 
000023bd 53585446 
000023c1 4e494749 
000023c5 53204f46 
000023c9 4f5f4454 
000023cd 004646 
000023d0 01        12373 	.data.b	1
000023d1 08f1      12374 	.data.b	241,8
000023d3 5f4d4f43  12375 	.data.b	67,79,77,95,69,88,73,83,84,83,95,70,76,79,65,84,54,52,95,65,80,80,76,84,89,80,69,79,70,84,88,83,73,71,73,78,70,79,32,83,84,68,95,79,70,70,0
000023d7 53495845 
000023db 465f5354 
000023df 54414f4c 
000023e3 415f3436 
000023e7 544c5050 
000023eb 4f455059 
000023ef 53585446 

                                                                      Page 277
                                                              C:\Users\Fengyuan\AppData\Local\Temp\gh_0000fuk1.s
000023f3 4e494749 
000023f7 53204f46 
000023fb 4f5f4454 
000023ff 004646 
00002402 01        12376 	.data.b	1
00002403 08f2      12377 	.data.b	242,8
00002405 5f4d4f43  12378 	.data.b	67,79,77,95,69,88,73,83,84,83,95,78,66,73,84,95,66,85,83,65,67,67,79,70,84,88,83,73,71,73,78,70,79,32,83,84,68,95,79,78,0
00002409 53495845 
0000240d 4e5f5354 
00002411 5f544942 
00002415 41535542 
00002419 464f4343 
0000241d 49535854 
00002421 464e4947 
00002425 5453204f 
00002429 4e4f5f44 
0000242d 00 
0000242e 01        12379 	.data.b	1
0000242f 08f3      12380 	.data.b	243,8
00002431 5f4d4f43  12381 	.data.b	67,79,77,95,69,88,73,83,84,83,95,66,89,84,69,95,66,85,83,65,67,67,79,70,84,88,83,73,71,73,78,70,79,32,83,84,68,95,79,78,0
00002435 53495845 
00002439 425f5354 
0000243d 5f455459 
00002441 41535542 
00002445 464f4343 
00002449 49535854 
0000244d 464e4947 
00002451 5453204f 
00002455 4e4f5f44 
00002459 00 
0000245a 01        12382 	.data.b	1
0000245b 08f4      12383 	.data.b	244,8
0000245d 5f4d4f43  12384 	.data.b	67,79,77,95,69,88,73,83,84,83,95,78,66,89,84,69,95,66,85,83,65,67,67,79,70,84,88,83,73,71,73,78,70,79,32,83,84,68,95,79,70,70,0
00002461 53495845 
00002465 4e5f5354 
00002469 45545942 
0000246d 5355425f 
00002471 4f434341 
00002475 53585446 
00002479 4e494749 
0000247d 53204f46 
00002481 4f5f4454 
00002485 004646 
00002488 01        12385 	.data.b	1
00002489 08f5      12386 	.data.b	245,8
0000248b 5f4d4f43  12387 	.data.b	67,79,77,95,69,88,73,83,84,83,95,78,66,89,84,69,95,83,87,95,66,85,83,65,67,67,79,70,84,88,83,73,71,73,78,70,79,32,83,84,68,95,79,70,70,0
0000248f 53495845 
00002493 4e5f5354 
00002497 45545942 
0000249b 5f57535f 
0000249f 41535542 
000024a3 464f4343 
000024a7 49535854 
000024ab 464e4947 
000024af 5453204f 
000024b3 464f5f44 
000024b7 0046 
000024b9 01        12388 	.data.b	1
000024ba 08f6      12389 	.data.b	246,8
000024bc 5f4d4f43  12390 	.data.b	67,79,77,95,69,88,73,83,84,83,95,78,66,73,84,78,66,89,84,69,95,66,85,83,65,67,67,79,70,84,88,83,73,71,73,78,70,79,32,83,84,68,95,79,70,70,0
000024c0 53495845 

                                                                      Page 278
                                                              C:\Users\Fengyuan\AppData\Local\Temp\gh_0000fuk1.s
000024c4 4e5f5354 
000024c8 4e544942 
000024cc 45545942 
000024d0 5355425f 
000024d4 4f434341 
000024d8 53585446 
000024dc 4e494749 
000024e0 53204f46 
000024e4 4f5f4454 
000024e8 004646 
000024eb 01        12391 	.data.b	1
000024ec 08f7      12392 	.data.b	247,8
000024ee 5f4d4f43  12393 	.data.b	67,79,77,95,69,88,73,83,84,83,95,78,66,73,84,78,66,89,84,69,95,83,87,95,66,85,83,65,67,67,79,70,84,88,83,73,71,73,78,70,79,32,83,84,68,95,79,70,70,0
000024f2 53495845 
000024f6 4e5f5354 
000024fa 4e544942 
000024fe 45545942 
00002502 5f57535f 
00002506 41535542 
0000250a 464f4343 
0000250e 49535854 
00002512 464e4947 
00002516 5453204f 
0000251a 464f5f44 
0000251e 0046 
00002520 01        12394 	.data.b	1
00002521 08f8      12395 	.data.b	248,8
00002523 5f4d4f43  12396 	.data.b	67,79,77,95,69,88,73,83,84,83,95,65,82,82,65,89,95,66,65,83,69,68,95,66,85,83,65,67,67,79,70,84,88,83,73,71,73,78,70,79,32,83,84,68,95,79,70,70,0
00002527 53495845 
0000252b 415f5354 
0000252f 59415252 
00002533 5341425f 
00002537 425f4445 
0000253b 43415355 
0000253f 54464f43 
00002543 47495358 
00002547 4f464e49 
0000254b 44545320 
0000254f 46464f5f 
00002553 00 
00002554 01        12397 	.data.b	1
00002555 08f9      12398 	.data.b	249,8
00002557 5f4d4f43  12399 	.data.b	67,79,77,95,69,88,73,83,84,83,95,78,79,82,77,65,76,95,77,79,68,69,79,70,84,88,84,79,85,84,73,78,70,79,32,83,84,68,95,79,70,70,0
0000255b 53495845 
0000255f 4e5f5354 
00002563 414d524f 
00002567 4f4d5f4c 
0000256b 464f4544 
0000256f 4f545854 
00002573 4e495455 
00002577 53204f46 
0000257b 4f5f4454 
0000257f 004646 
00002582 01        12400 	.data.b	1
00002583 0984      12401 	.data.b	132,9
00002585 5f4d4f43  12402 	.data.b	67,79,77,95,85,73,78,84,56,95,65,80,80,76,84,89,80,69,79,70,82,88,65,67,67,69,83,83,73,78,70,79,32,48,120,48,48,117,0
00002589 544e4955 
0000258d 50415f38 
00002591 59544c50 
00002595 464f4550 
00002599 43415852 

                                                                      Page 279
                                                              C:\Users\Fengyuan\AppData\Local\Temp\gh_0000fuk1.s
0000259d 53534543 
000025a1 4f464e49 
000025a5 30783020 
000025a9 007530 
000025ac 01        12403 	.data.b	1
000025ad 0985      12404 	.data.b	133,9
000025af 5f4d4f43  12405 	.data.b	67,79,77,95,78,66,73,84,95,66,85,83,65,67,67,79,70,82,88,65,67,67,69,83,83,73,78,70,79,32,48,120,48,48,117,0
000025b3 5449424e 
000025b7 5355425f 
000025bb 4f434341 
000025bf 41585246 
000025c3 53454343 
000025c7 464e4953 
000025cb 7830204f 
000025cf 00753030 
000025d3 01        12406 	.data.b	1
000025d4 0987      12407 	.data.b	135,9
000025d6 5f4d4f43  12408 	.data.b	67,79,77,95,78,79,82,77,65,76,95,84,89,80,69,79,70,82,88,80,68,85,73,78,70,79,32,48,120,48,48,117,0
000025da 4d524f4e 
000025de 545f4c41 
000025e2 4f455059 
000025e6 50585246 
000025ea 4e495544 
000025ee 30204f46 
000025f2 75303078 
000025f6 00 
000025f7 01        12409 	.data.b	1
000025f8 098a      12410 	.data.b	138,9
000025fa 5f4d4f43  12411 	.data.b	67,79,77,95,78,66,73,84,95,66,85,83,65,67,67,79,70,84,88,83,73,71,73,78,70,79,32,48,120,48,48,117,0
000025fe 5449424e 
00002602 5355425f 
00002606 4f434341 
0000260a 53585446 
0000260e 4e494749 
00002612 30204f46 
00002616 75303078 
0000261a 00 
0000261b 01        12412 	.data.b	1
0000261c 098b      12413 	.data.b	139,9
0000261e 5f4d4f43  12414 	.data.b	67,79,77,95,66,89,84,69,95,66,85,83,65,67,67,79,70,84,88,83,73,71,73,78,70,79,32,48,120,48,49,117,0
00002622 45545942 
00002626 5355425f 
0000262a 4f434341 
0000262e 53585446 
00002632 4e494749 
00002636 30204f46 
0000263a 75313078 
0000263e 00 
0000263f 01        12415 	.data.b	1
00002640 0b9b      12416 	.data.b	155,11
00002642 5f4d4f43  12417 	.data.b	67,79,77,95,85,83,69,95,73,78,73,84,95,80,79,73,78,84,69,82,32,83,84,68,95,79,70,70,0
00002646 5f455355 
0000264a 54494e49 
0000264e 494f505f 
00002652 5245544e 
00002656 44545320 
0000265a 46464f5f 
0000265e 00 
0000265f 01        12418 	.data.b	1
00002660 0ba3      12419 	.data.b	163,11
00002662 5f4d4f43  12420 	.data.b	67,79,77,95,68,69,86,95,69,82,82,79,82,95,68,69,84,69,67,84,32,83,84,68,95,79,78,0

                                                                      Page 280
                                                              C:\Users\Fengyuan\AppData\Local\Temp\gh_0000fuk1.s
00002666 5f564544 
0000266a 4f525245 
0000266e 45445f52 
00002672 54434554 
00002676 44545320 
0000267a 004e4f5f 
0000267e 01        12421 	.data.b	1
0000267f 0ba4      12422 	.data.b	164,11
00002681 5f4d4f43  12423 	.data.b	67,79,77,95,68,69,86,95,69,82,82,79,82,95,82,69,80,79,82,84,32,83,84,68,95,79,78,0
00002685 5f564544 
00002689 4f525245 
0000268d 45525f52 
00002691 54524f50 
00002695 44545320 
00002699 004e4f5f 
0000269d 01        12424 	.data.b	1
0000269e 0ba5      12425 	.data.b	165,11
000026a0 5f4d4f43  12426 	.data.b	67,79,77,95,82,69,84,82,89,95,70,65,73,76,69,68,95,84,82,65,78,83,77,73,84,95,82,69,81,85,69,83,84,83,32,83,84,68,95,79,70,70,0
000026a4 52544552 
000026a8 41465f59 
000026ac 44454c49 
000026b0 4152545f 
000026b4 494d534e 
000026b8 45525f54 
000026bc 53455551 
000026c0 53205354 
000026c4 4f5f4454 
000026c8 004646 
000026cb 01        12427 	.data.b	1
000026cc 0ba9      12428 	.data.b	169,11
000026ce 5f4d4f43  12429 	.data.b	67,79,77,95,82,69,67,69,73,86,69,95,83,73,71,78,65,76,95,77,65,67,82,79,95,65,80,73,32,83,84,68,95,79,70,70,0
000026d2 45434552 
000026d6 5f455649 
000026da 4e474953 
000026de 4d5f4c41 
000026e2 4f524341 
000026e6 4950415f 
000026ea 44545320 
000026ee 46464f5f 
000026f2 00 
000026f3 01        12430 	.data.b	1
000026f4 0bac      12431 	.data.b	172,11
000026f6 5f4d4f43  12432 	.data.b	67,79,77,95,67,79,77,77,85,78,73,67,65,84,73,79,78,95,73,78,84,69,82,70,65,67,69,32,83,84,68,95,79,78,0
000026fa 4d4d4f43 
000026fe 43494e55 
00002702 4f495441 
00002706 4e495f4e 
0000270a 46524554 
0000270e 20454341 
00002712 5f445453 
00002716 004e4f 
00002719 01        12433 	.data.b	1
0000271a 0bad      12434 	.data.b	173,11
0000271c 5f4d4f43  12435 	.data.b	67,79,77,95,84,82,65,78,83,80,79,82,84,95,80,82,79,84,79,67,79,76,32,83,84,68,95,79,70,70,0
00002720 4e415254 
00002724 524f5053 
00002728 52505f54 
0000272c 434f544f 
00002730 53204c4f 
00002734 4f5f4454 
00002738 004646 

                                                                      Page 281
                                                              C:\Users\Fengyuan\AppData\Local\Temp\gh_0000fuk1.s
0000273b 01        12436 	.data.b	1
0000273c 0baf      12437 	.data.b	175,11
0000273e 5f4d4f43  12438 	.data.b	67,79,77,95,84,82,73,71,71,69,82,95,84,82,65,78,83,77,73,84,95,65,80,73,32,83,84,68,95,79,70,70,0
00002742 47495254 
00002746 5f524547 
0000274a 4e415254 
0000274e 54494d53 
00002752 4950415f 
00002756 44545320 
0000275a 46464f5f 
0000275e 00 
0000275f 01        12439 	.data.b	1
00002760 0bb0      12440 	.data.b	176,11
00002762 5f4d4f43  12441 	.data.b	67,79,77,95,84,88,95,67,79,78,70,73,82,77,65,84,73,79,78,95,65,80,73,32,83,84,68,95,79,78,0
00002766 435f5854 
0000276a 49464e4f 
0000276e 54414d52 
00002772 5f4e4f49 
00002776 20495041 
0000277a 5f445453 
0000277e 004e4f 
00002781 01        12442 	.data.b	1
00002782 0bb1      12443 	.data.b	177,11
00002784 5f4d4f43  12444 	.data.b	67,79,77,95,84,82,73,71,71,69,82,95,73,80,68,85,95,83,69,78,68,95,87,73,84,72,95,77,69,84,65,95,68,65,84,65,95,65,80,73,32,83,84,68,95,79,70,70,0
00002788 47495254 
0000278c 5f524547 
00002790 55445049 
00002794 4e45535f 
00002798 49575f44 
0000279c 4d5f4854 
000027a0 5f415445 
000027a4 41544144 
000027a8 4950415f 
000027ac 44545320 
000027b0 46464f5f 
000027b4 00 
000027b5 01        12445 	.data.b	1
000027b6 0bb2      12446 	.data.b	178,11
000027b8 5f4d4f43  12447 	.data.b	67,79,77,95,77,65,73,78,95,70,85,78,67,84,73,79,78,95,82,79,85,84,69,95,83,73,71,78,65,76,83,95,65,80,73,32,83,84,68,95,79,70,70,0
000027bc 4e49414d 
000027c0 4e55465f 
000027c4 4f495443 
000027c8 4f525f4e 
000027cc 5f455455 
000027d0 4e474953 
000027d4 5f534c41 
000027d8 20495041 
000027dc 5f445453 
000027e0 0046464f 
000027e4 01        12448 	.data.b	1
000027e5 0bb3      12449 	.data.b	179,11
000027e7 5f4d4f43  12450 	.data.b	67,79,77,95,69,78,65,66,76,69,95,83,73,71,78,65,76,95,71,82,79,85,80,95,65,82,82,65,89,95,65,80,73,32,83,84,68,95,79,70,70,0
000027eb 42414e45 
000027ef 535f454c 
000027f3 414e4749 
000027f7 52475f4c 
000027fb 5f50554f 
000027ff 41525241 
00002803 50415f59 
00002807 54532049 
0000280b 464f5f44 

                                                                      Page 282
                                                              C:\Users\Fengyuan\AppData\Local\Temp\gh_0000fuk1.s
0000280f 0046 
00002811 01        12451 	.data.b	1
00002812 0bb5      12452 	.data.b	181,11
00002814 5f4d4f43  12453 	.data.b	67,79,77,95,86,69,82,83,73,79,78,95,73,78,70,79,95,65,80,73,32,83,84,68,95,79,70,70,0
00002818 53524556 
0000281c 5f4e4f49 
00002820 4f464e49 
00002824 4950415f 
00002828 44545320 
0000282c 46464f5f 
00002830 00 
00002831 01        12454 	.data.b	1
00002832 0bb6      12455 	.data.b	182,11
00002834 5f4d4f43  12456 	.data.b	67,79,77,95,71,69,78,69,82,65,84,69,68,95,68,69,83,67,82,73,80,84,73,79,78,95,82,79,85,84,73,78,71,32,83,84,68,95,79,70,70,0
00002838 454e4547 
0000283c 45544152 
00002840 45445f44 
00002844 49524353 
00002848 4f495450 
0000284c 4f525f4e 
00002850 4e495455 
00002854 54532047 
00002858 464f5f44 
0000285c 0046 
0000285e 01        12457 	.data.b	1
0000285f 0bb8      12458 	.data.b	184,11
00002861 5f4d4f43  12459 	.data.b	67,79,77,95,76,77,71,84,95,77,65,88,73,80,68,85,71,82,79,85,80,86,69,67,84,79,82,66,89,84,69,67,78,84,32,49,85,0
00002865 54474d4c 
00002869 58414d5f 
0000286d 55445049 
00002871 554f5247 
00002875 43455650 
00002879 42524f54 
0000287d 43455459 
00002881 3120544e 
00002885 0055 
00002887 01        12460 	.data.b	1
00002888 0bb9      12461 	.data.b	185,11
0000288a 5f4d4f43  12462 	.data.b	67,79,77,95,83,85,80,80,79,82,84,69,68,95,73,80,68,85,95,71,82,79,85,80,83,32,50,117,76,0
0000288e 50505553 
00002892 4554524f 
00002896 50495f44 
0000289a 475f5544 
0000289e 50554f52 
000028a2 75322053 
000028a6 004c 
000028a8 01        12463 	.data.b	1
000028a9 0bbb      12464 	.data.b	187,11
000028ab 5f4d4f43  12465 	.data.b	67,79,77,95,82,88,73,77,77,69,68,73,65,84,69,70,67,84,80,84,82,67,65,67,72,69,32,83,84,68,95,79,70,70,0
000028af 4d495852 
000028b3 4944454d 
000028b7 46455441 
000028bb 54505443 
000028bf 43414352 
000028c3 53204548 
000028c7 4f5f4454 
000028cb 004646 
000028ce 01        12466 	.data.b	1
000028cf 0c8a      12467 	.data.b	138,12
000028d1 5f6d6f43  12468 	.data.b	67,111,109,95,71,101,116,67,111,110,102,105,103,73,100,79,102,80,67,67,111,110,102,105,103,40,41,32,48,117,0
000028d5 43746547 

                                                                      Page 283
                                                              C:\Users\Fengyuan\AppData\Local\Temp\gh_0000fuk1.s
000028d9 69666e6f 
000028dd 4f644967 
000028e1 43435066 
000028e5 69666e6f 
000028e9 20292867 
000028ed 007530 
000028f0 01        12469 	.data.b	1
000028f1 0c8b      12470 	.data.b	139,12
000028f3 5f6d6f43  12471 	.data.b	67,111,109,95,71,101,116,67,111,110,115,116,86,97,108,117,101,85,73,110,116,56,79,102,80,67,67,111,110,102,105,103,40,41,32,67,111,109,95,67,111,110,115,116,86,97,108,117,101,85,73,110,116,56,0
000028f7 43746547 
000028fb 74736e6f 
000028ff 756c6156 
00002903 6e495565 
00002907 664f3874 
0000290b 6f434350 
0000290f 6769666e 
00002913 43202928 
00002917 435f6d6f 
0000291b 74736e6f 
0000291f 756c6156 
00002923 6e495565 
00002927 003874 
0000292a 01        12472 	.data.b	1
0000292b 0c8c      12473 	.data.b	140,12
0000292d 5f6d6f43  12474 	.data.b	67,111,109,95,71,101,116,67,117,114,114,101,110,116,84,120,77,111,100,101,79,102,80,67,67,111,110,102,105,103,40,41,32,67,111,109,95,67,117,114,114,101,110,116,84,120,77,111,100,101,0
00002931 43746547 
00002935 65727275 
00002939 7854746e 
0000293d 65646f4d 
00002941 4350664f 
00002945 666e6f43 
00002949 29286769 
0000294d 6d6f4320 
00002951 7275435f 
00002955 746e6572 
00002959 6f4d7854 
0000295d 006564 
00002960 01        12475 	.data.b	1
00002961 0c8d      12476 	.data.b	141,12
00002963 5f6d6f43  12477 	.data.b	67,111,109,95,71,101,116,67,121,99,108,101,84,105,109,101,67,110,116,79,102,80,67,67,111,110,102,105,103,40,41,32,67,111,109,95,67,121,99,108,101,84,105,109,101,67,110,116,0
00002967 43746547 
0000296b 656c6379 
0000296f 656d6954 
00002973 4f746e43 
00002977 43435066 
0000297b 69666e6f 
0000297f 20292867 
00002983 5f6d6f43 
00002987 6c637943 
0000298b 6d695465 
0000298f 746e4365 
00002993 00 
00002994 01        12478 	.data.b	1
00002995 0c8e      12479 	.data.b	142,12
00002997 5f6d6f43  12480 	.data.b	67,111,109,95,71,101,116,67,121,99,108,105,99,83,101,110,100,82,101,113,117,101,115,116,79,102,80,67,67,111,110,102,105,103,40,41,32,67,111,109,95,67,121,99,108,105,99,83,101,110,100,82,101,113,117,101,115,116,0
0000299b 43746547 
0000299f 696c6379 
000029a3 6e655363 
000029a7 71655264 
000029ab 74736575 
000029af 4350664f 

                                                                      Page 284
                                                              C:\Users\Fengyuan\AppData\Local\Temp\gh_0000fuk1.s
000029b3 666e6f43 
000029b7 29286769 
000029bb 6d6f4320 
000029bf 6379435f 
000029c3 5363696c 
000029c7 52646e65 
000029cb 65757165 
000029cf 007473 
000029d2 01        12481 	.data.b	1
000029d3 0c91      12482 	.data.b	145,12
000029d5 5f6d6f43  12483 	.data.b	67,111,109,95,71,101,116,72,97,110,100,108,101,82,120,80,100,117,68,101,102,101,114,114,101,100,79,102,80,67,67,111,110,102,105,103,40,41,32,67,111,109,95,72,97,110,100,108,101,82,120,80,100,117,68,101,102,101,114,114
000029d9 48746547 
000029dd 6c646e61 
000029e1 50785265 
000029e5 65447564 
000029e9 72726566 
000029ed 664f6465 
000029f1 6f434350 
000029f5 6769666e 
000029f9 43202928 
000029fd 485f6d6f 
00002a01 6c646e61 
00002a05 50785265 
00002a09 65447564 
00002a0d 72726566 
00002a11 722e6465  12484 	.data.b	101,100,46,114,97,119,0
00002a15 007761 
00002a18 01        12485 	.data.b	1
00002a19 0c92      12486 	.data.b	146,12
00002a1b 5f6d6f43  12487 	.data.b	67,111,109,95,71,101,116,73,110,105,116,105,97,108,105,122,101,100,79,102,80,67,67,111,110,102,105,103,40,41,32,40,38,40,67,111,109,95,73,110,105,116,105,97,108,105,122,101,100,41,41,0
00002a1f 49746547 
00002a23 6974696e 
00002a27 7a696c61 
00002a2b 664f6465 
00002a2f 6f434350 
00002a33 6769666e 
00002a37 28202928 
00002a3b 6f432826 
00002a3f 6e495f6d 
00002a43 61697469 
00002a47 657a696c 
00002a4b 00292964 
00002a4f 01        12488 	.data.b	1
00002a50 0c98      12489 	.data.b	152,12
00002a52 5f6d6f43  12490 	.data.b	67,111,109,95,71,101,116,82,120,65,99,99,101,115,115,73,110,102,111,79,102,80,67,67,111,110,102,105,103,40,41,32,67,111,109,95,82,120,65,99,99,101,115,115,73,110,102,111,0
00002a56 52746547 
00002a5a 63634178 
00002a5e 49737365 
00002a62 4f6f666e 
00002a66 43435066 
00002a6a 69666e6f 
00002a6e 20292867 
00002a72 5f6d6f43 
00002a76 63417852 
00002a7a 73736563 
00002a7e 6f666e49 
00002a82 00 
00002a83 01        12491 	.data.b	1
00002a84 0c9a      12492 	.data.b	154,12
00002a86 5f6d6f43  12493 	.data.b	67,111,109,95,71,101,116,82,120,68,101,102,80,100,117,66,117,102,102,101,114,79,102,80,67,67,111,110,102,105,103,40,41,32,67,111,109,95,82,120,68,101,102,80,100,117,66,117,102,102,101,114,46,114,97,119,0
00002a8a 52746547 

                                                                      Page 285
                                                              C:\Users\Fengyuan\AppData\Local\Temp\gh_0000fuk1.s
00002a8e 66654478 
00002a92 42756450 
00002a96 65666675 
00002a9a 50664f72 
00002a9e 6e6f4343 
00002aa2 28676966 
00002aa6 6f432029 
00002aaa 78525f6d 
00002aae 50666544 
00002ab2 75427564 
00002ab6 72656666 
00002aba 7761722e 
00002abe 00 
00002abf 01        12494 	.data.b	1
00002ac0 0c9b      12495 	.data.b	155,12
00002ac2 5f6d6f43  12496 	.data.b	67,111,109,95,71,101,116,82,120,68,101,102,101,114,114,101,100,80,114,111,99,101,115,115,105,110,103,73,83,82,76,111,99,107,67,111,117,110,116,101,114,79,102,80,67,67,111,110,102,105,103,40,41,32,40,38,40,67,111,109
00002ac6 52746547 
00002aca 66654478 
00002ace 65727265 
00002ad2 6f725064 
00002ad6 73736563 
00002ada 49676e69 
00002ade 6f4c5253 
00002ae2 6f436b63 
00002ae6 65746e75 
00002aea 50664f72 
00002aee 6e6f4343 
00002af2 28676966 
00002af6 26282029 
00002afa 6d6f4328 
00002afe 4478525f  12497 	.data.b	95,82,120,68,101,102,101,114,114,101,100,80,114,111,99,101,115,115,105,110,103,73,83,82,76,111,99,107,67,111,117,110,116,101,114,41,41,0
00002b02 72656665 
00002b06 50646572 
00002b0a 65636f72 
00002b0e 6e697373 
00002b12 52534967 
00002b16 6b636f4c 
00002b1a 6e756f43 
00002b1e 29726574 
00002b22 0029 
00002b24 01        12498 	.data.b	1
00002b25 0c9c      12499 	.data.b	156,12
00002b27 5f6d6f43  12500 	.data.b	67,111,109,95,71,101,116,82,120,68,101,102,101,114,114,101,100,80,114,111,99,101,115,115,105,110,103,73,83,82,76,111,99,107,84,104,114,101,115,104,111,108,100,79,102,80,67,67,111,110,102,105,103,40,41,32,49,117,0
00002b2b 52746547 
00002b2f 66654478 
00002b33 65727265 
00002b37 6f725064 
00002b3b 73736563 
00002b3f 49676e69 
00002b43 6f4c5253 
00002b47 68546b63 
00002b4b 68736572 
00002b4f 4f646c6f 
00002b53 43435066 
00002b57 69666e6f 
00002b5b 20292867 
00002b5f 007531 
00002b62 01        12501 	.data.b	1
00002b63 0c9d      12502 	.data.b	157,12
00002b65 5f6d6f43  12503 	.data.b	67,111,109,95,71,101,116,82,120,73,80,100,117,71,114,111,117,112,73,83,82,76,111,99,107,67,111,117,110,116,101,114,79,102,80,67,67,111,110,102,105,103,40,41,32,40,38,40,67,111,109,95,82,120,73,80,100,117,71,114
00002b69 52746547 

                                                                      Page 286
                                                              C:\Users\Fengyuan\AppData\Local\Temp\gh_0000fuk1.s
00002b6d 64504978 
00002b71 6f724775 
00002b75 53497075 
00002b79 636f4c52 
00002b7d 756f436b 
00002b81 7265746e 
00002b85 4350664f 
00002b89 666e6f43 
00002b8d 29286769 
00002b91 28262820 
00002b95 5f6d6f43 
00002b99 50497852 
00002b9d 72477564 
00002ba1 4970756f  12504 	.data.b	111,117,112,73,83,82,76,111,99,107,67,111,117,110,116,101,114,41,41,0
00002ba5 6f4c5253 
00002ba9 6f436b63 
00002bad 65746e75 
00002bb1 00292972 
00002bb5 01        12505 	.data.b	1
00002bb6 0c9e      12506 	.data.b	158,12
00002bb8 5f6d6f43  12507 	.data.b	67,111,109,95,71,101,116,82,120,73,80,100,117,71,114,111,117,112,73,83,82,76,111,99,107,84,104,114,101,115,104,111,108,100,79,102,80,67,67,111,110,102,105,103,40,41,32,49,117,0
00002bbc 52746547 
00002bc0 64504978 
00002bc4 6f724775 
00002bc8 53497075 
00002bcc 636f4c52 
00002bd0 7268546b 
00002bd4 6f687365 
00002bd8 664f646c 
00002bdc 6f434350 
00002be0 6769666e 
00002be4 31202928 
00002be8 0075 
00002bea 01        12508 	.data.b	1
00002beb 0c9f      12509 	.data.b	159,12
00002bed 5f6d6f43  12510 	.data.b	67,111,109,95,71,101,116,82,120,80,100,117,71,114,112,65,99,116,105,118,101,79,102,80,67,67,111,110,102,105,103,40,41,32,67,111,109,95,82,120,80,100,117,71,114,112,65,99,116,105,118,101,0
00002bf1 52746547 
00002bf5 75645078 
00002bf9 41707247 
00002bfd 76697463 
00002c01 50664f65 
00002c05 6e6f4343 
00002c09 28676966 
00002c0d 6f432029 
00002c11 78525f6d 
00002c15 47756450 
00002c19 63417072 
00002c1d 65766974 
00002c21 00 
00002c22 01        12511 	.data.b	1
00002c23 0ca1      12512 	.data.b	161,12
00002c25 5f6d6f43  12513 	.data.b	67,111,109,95,71,101,116,82,120,80,100,117,73,110,102,111,79,102,80,67,67,111,110,102,105,103,40,41,32,67,111,109,95,82,120,80,100,117,73,110,102,111,0
00002c29 52746547 
00002c2d 75645078 
00002c31 6f666e49 
00002c35 4350664f 
00002c39 666e6f43 
00002c3d 29286769 
00002c41 6d6f4320 
00002c45 5078525f 
00002c49 6e497564 

                                                                      Page 287
                                                              C:\Users\Fengyuan\AppData\Local\Temp\gh_0000fuk1.s
00002c4d 006f66 
00002c50 01        12514 	.data.b	1
00002c51 0ca2      12515 	.data.b	162,12
00002c53 5f6d6f43  12516 	.data.b	67,111,109,95,71,101,116,82,120,83,105,103,66,117,102,102,101,114,85,73,110,116,56,79,102,80,67,67,111,110,102,105,103,40,41,32,67,111,109,95,82,120,83,105,103,66,117,102,102,101,114,85,73,110,116,56,0
00002c57 52746547 
00002c5b 67695378 
00002c5f 66667542 
00002c63 49557265 
00002c67 4f38746e 
00002c6b 43435066 
00002c6f 69666e6f 
00002c73 20292867 
00002c77 5f6d6f43 
00002c7b 69537852 
00002c7f 66754267 
00002c83 55726566 
00002c87 38746e49 
00002c8b 00 
00002c8c 01        12517 	.data.b	1
00002c8d 0ca3      12518 	.data.b	163,12
00002c8f 5f6d6f43  12519 	.data.b	67,111,109,95,71,101,116,82,120,83,105,103,73,110,102,111,79,102,80,67,67,111,110,102,105,103,40,41,32,67,111,109,95,82,120,83,105,103,73,110,102,111,0
00002c93 52746547 
00002c97 67695378 
00002c9b 6f666e49 
00002c9f 4350664f 
00002ca3 666e6f43 
00002ca7 29286769 
00002cab 6d6f4320 
00002caf 5378525f 
00002cb3 6e496769 
00002cb7 006f66 
00002cba 01        12520 	.data.b	1
00002cbb 0ca4      12521 	.data.b	164,12
00002cbd 5f6d6f43  12522 	.data.b	67,111,109,95,71,101,116,83,105,122,101,79,102,65,99,116,105,118,97,116,97,98,108,101,82,120,67,111,109,73,80,100,117,115,79,102,80,67,67,111,110,102,105,103,40,41,32,49,117,0
00002cc1 53746547 
00002cc5 4f657a69 
00002cc9 74634166 
00002ccd 74617669 
00002cd1 656c6261 
00002cd5 6f437852 
00002cd9 6450496d 
00002cdd 664f7375 
00002ce1 6f434350 
00002ce5 6769666e 
00002ce9 31202928 
00002ced 0075 
00002cef 01        12523 	.data.b	1
00002cf0 0ca5      12524 	.data.b	165,12
00002cf2 5f6d6f43  12525 	.data.b	67,111,109,95,71,101,116,83,105,122,101,79,102,65,99,116,105,118,97,116,97,98,108,101,84,120,67,111,109,73,80,100,117,115,79,102,80,67,67,111,110,102,105,103,40,41,32,50,117,0
00002cf6 53746547 
00002cfa 4f657a69 
00002cfe 74634166 
00002d02 74617669 
00002d06 656c6261 
00002d0a 6f437854 
00002d0e 6450496d 
00002d12 664f7375 
00002d16 6f434350 
00002d1a 6769666e 
00002d1e 32202928 
00002d22 0075 

                                                                      Page 288
                                                              C:\Users\Fengyuan\AppData\Local\Temp\gh_0000fuk1.s
00002d24 01        12526 	.data.b	1
00002d25 0caa      12527 	.data.b	170,12
00002d27 5f6d6f43  12528 	.data.b	67,111,109,95,71,101,116,83,105,122,101,79,102,82,120,65,99,99,101,115,115,73,110,102,111,79,102,80,67,67,111,110,102,105,103,40,41,32,51,117,0
00002d2b 53746547 
00002d2f 4f657a69 
00002d33 41785266 
00002d37 73656363 
00002d3b 666e4973 
00002d3f 50664f6f 
00002d43 6e6f4343 
00002d47 28676966 
00002d4b 75332029 
00002d4f 00 
00002d50 01        12529 	.data.b	1
00002d51 0cad      12530 	.data.b	173,12
00002d53 5f6d6f43  12531 	.data.b	67,111,109,95,71,101,116,83,105,122,101,79,102,82,120,80,100,117,73,110,102,111,79,102,80,67,67,111,110,102,105,103,40,41,32,49,117,0
00002d57 53746547 
00002d5b 4f657a69 
00002d5f 50785266 
00002d63 6e497564 
00002d67 664f6f66 
00002d6b 6f434350 
00002d6f 6769666e 
00002d73 31202928 
00002d77 0075 
00002d79 01        12532 	.data.b	1
00002d7a 0cb2      12533 	.data.b	178,12
00002d7c 5f6d6f43  12534 	.data.b	67,111,109,95,71,101,116,83,105,122,101,79,102,84,120,77,111,100,101,73,110,102,111,79,102,80,67,67,111,110,102,105,103,40,41,32,50,117,0
00002d80 53746547 
00002d84 4f657a69 
00002d88 4d785466 
00002d8c 4965646f 
00002d90 4f6f666e 
00002d94 43435066 
00002d98 69666e6f 
00002d9c 20292867 
00002da0 007532 
00002da3 01        12535 	.data.b	1
00002da4 0cb5      12536 	.data.b	181,12
00002da6 5f6d6f43  12537 	.data.b	67,111,109,95,71,101,116,83,105,122,101,79,102,84,120,80,100,117,73,110,102,111,79,102,80,67,67,111,110,102,105,103,40,41,32,50,117,0
00002daa 53746547 
00002dae 4f657a69 
00002db2 50785466 
00002db6 6e497564 
00002dba 664f6f66 
00002dbe 6f434350 
00002dc2 6769666e 
00002dc6 32202928 
00002dca 0075 
00002dcc 01        12538 	.data.b	1
00002dcd 0cb7      12539 	.data.b	183,12
00002dcf 5f6d6f43  12540 	.data.b	67,111,109,95,71,101,116,83,105,122,101,79,102,84,120,83,105,103,73,110,102,111,79,102,80,67,67,111,110,102,105,103,40,41,32,50,117,0
00002dd3 53746547 
00002dd7 4f657a69 
00002ddb 53785466 
00002ddf 6e496769 
00002de3 664f6f66 
00002de7 6f434350 
00002deb 6769666e 
00002def 32202928 
00002df3 0075 

                                                                      Page 289
                                                              C:\Users\Fengyuan\AppData\Local\Temp\gh_0000fuk1.s
00002df5 01        12541 	.data.b	1
00002df6 0cb8      12542 	.data.b	184,12
00002df8 5f6d6f43  12543 	.data.b	67,111,109,95,71,101,116,84,114,97,110,115,109,105,116,82,101,113,117,101,115,116,79,102,80,67,67,111,110,102,105,103,40,41,32,67,111,109,95,84,114,97,110,115,109,105,116,82,101,113,117,101,115,116,0
00002dfc 54746547 
00002e00 736e6172 
00002e04 5274696d 
00002e08 65757165 
00002e0c 664f7473 
00002e10 6f434350 
00002e14 6769666e 
00002e18 43202928 
00002e1c 545f6d6f 
00002e20 736e6172 
00002e24 5274696d 
00002e28 65757165 
00002e2c 007473 
00002e2f 01        12544 	.data.b	1
00002e30 0cb9      12545 	.data.b	185,12
00002e32 5f6d6f43  12546 	.data.b	67,111,109,95,71,101,116,84,120,66,117,102,102,101,114,79,102,80,67,67,111,110,102,105,103,40,41,32,67,111,109,95,84,120,66,117,102,102,101,114,0
00002e36 54746547 
00002e3a 66754278 
00002e3e 4f726566 
00002e42 43435066 
00002e46 69666e6f 
00002e4a 20292867 
00002e4e 5f6d6f43 
00002e52 75427854 
00002e56 72656666 
00002e5a 00 
00002e5b 01        12547 	.data.b	1
00002e5c 0cba      12548 	.data.b	186,12
00002e5e 5f6d6f43  12549 	.data.b	67,111,109,95,71,101,116,84,120,67,121,99,108,105,99,80,114,111,99,101,115,115,105,110,103,73,83,82,76,111,99,107,67,111,117,110,116,101,114,79,102,80,67,67,111,110,102,105,103,40,41,32,40,38,40,67,111,109,95,84
00002e62 54746547 
00002e66 63794378 
00002e6a 5063696c 
00002e6e 65636f72 
00002e72 6e697373 
00002e76 52534967 
00002e7a 6b636f4c 
00002e7e 6e756f43 
00002e82 4f726574 
00002e86 43435066 
00002e8a 69666e6f 
00002e8e 20292867 
00002e92 43282628 
00002e96 545f6d6f 
00002e9a 63794378  12550 	.data.b	120,67,121,99,108,105,99,80,114,111,99,101,115,115,105,110,103,73,83,82,76,111,99,107,67,111,117,110,116,101,114,41,41,0
00002e9e 5063696c 
00002ea2 65636f72 
00002ea6 6e697373 
00002eaa 52534967 
00002eae 6b636f4c 
00002eb2 6e756f43 
00002eb6 29726574 
00002eba 0029 
00002ebc 01        12551 	.data.b	1
00002ebd 0cbb      12552 	.data.b	187,12
00002ebf 5f6d6f43  12553 	.data.b	67,111,109,95,71,101,116,84,120,67,121,99,108,105,99,80,114,111,99,101,115,115,105,110,103,73,83,82,76,111,99,107,84,104,114,101,115,104,111,108,100,79,102,80,67,67,111,110,102,105,103,40,41,32,49,117,0
00002ec3 54746547 
00002ec7 63794378 
00002ecb 5063696c 

                                                                      Page 290
                                                              C:\Users\Fengyuan\AppData\Local\Temp\gh_0000fuk1.s
00002ecf 65636f72 
00002ed3 6e697373 
00002ed7 52534967 
00002edb 6b636f4c 
00002edf 65726854 
00002ee3 6c6f6873 
00002ee7 50664f64 
00002eeb 6e6f4343 
00002eef 28676966 
00002ef3 75312029 
00002ef7 00 
00002ef8 01        12554 	.data.b	1
00002ef9 0cbd      12555 	.data.b	189,12
00002efb 5f6d6f43  12556 	.data.b	67,111,109,95,71,101,116,84,120,73,80,100,117,71,114,111,117,112,73,83,82,76,111,99,107,67,111,117,110,116,101,114,79,102,80,67,67,111,110,102,105,103,40,41,32,40,38,40,67,111,109,95,84,120,73,80,100,117,71,114
00002eff 54746547 
00002f03 64504978 
00002f07 6f724775 
00002f0b 53497075 
00002f0f 636f4c52 
00002f13 756f436b 
00002f17 7265746e 
00002f1b 4350664f 
00002f1f 666e6f43 
00002f23 29286769 
00002f27 28262820 
00002f2b 5f6d6f43 
00002f2f 50497854 
00002f33 72477564 
00002f37 4970756f  12557 	.data.b	111,117,112,73,83,82,76,111,99,107,67,111,117,110,116,101,114,41,41,0
00002f3b 6f4c5253 
00002f3f 6f436b63 
00002f43 65746e75 
00002f47 00292972 
00002f4b 01        12558 	.data.b	1
00002f4c 0cbe      12559 	.data.b	190,12
00002f4e 5f6d6f43  12560 	.data.b	67,111,109,95,71,101,116,84,120,73,80,100,117,71,114,111,117,112,73,83,82,76,111,99,107,84,104,114,101,115,104,111,108,100,79,102,80,67,67,111,110,102,105,103,40,41,32,49,117,0
00002f52 54746547 
00002f56 64504978 
00002f5a 6f724775 
00002f5e 53497075 
00002f62 636f4c52 
00002f66 7268546b 
00002f6a 6f687365 
00002f6e 664f646c 
00002f72 6f434350 
00002f76 6769666e 
00002f7a 31202928 
00002f7e 0075 
00002f80 01        12561 	.data.b	1
00002f81 0cbf      12562 	.data.b	191,12
00002f83 5f6d6f43  12563 	.data.b	67,111,109,95,71,101,116,84,120,77,111,100,101,70,97,108,115,101,79,102,80,67,67,111,110,102,105,103,40,41,32,67,111,109,95,84,120,77,111,100,101,70,97,108,115,101,0
00002f87 54746547 
00002f8b 646f4d78 
00002f8f 6c614665 
00002f93 664f6573 
00002f97 6f434350 
00002f9b 6769666e 
00002f9f 43202928 
00002fa3 545f6d6f 
00002fa7 646f4d78 
00002fab 6c614665 

                                                                      Page 291
                                                              C:\Users\Fengyuan\AppData\Local\Temp\gh_0000fuk1.s
00002faf 006573 
00002fb2 01        12564 	.data.b	1
00002fb3 0cc0      12565 	.data.b	192,12
00002fb5 5f6d6f43  12566 	.data.b	67,111,109,95,71,101,116,84,120,77,111,100,101,73,110,102,111,79,102,80,67,67,111,110,102,105,103,40,41,32,67,111,109,95,84,120,77,111,100,101,73,110,102,111,0
00002fb9 54746547 
00002fbd 646f4d78 
00002fc1 666e4965 
00002fc5 50664f6f 
00002fc9 6e6f4343 
00002fcd 28676966 
00002fd1 6f432029 
00002fd5 78545f6d 
00002fd9 65646f4d 
00002fdd 6f666e49 
00002fe1 00 
00002fe2 01        12567 	.data.b	1
00002fe3 0cc1      12568 	.data.b	193,12
00002fe5 5f6d6f43  12569 	.data.b	67,111,109,95,71,101,116,84,120,77,111,100,101,84,114,117,101,79,102,80,67,67,111,110,102,105,103,40,41,32,67,111,109,95,84,120,77,111,100,101,84,114,117,101,0
00002fe9 54746547 
00002fed 646f4d78 
00002ff1 75725465 
00002ff5 50664f65 
00002ff9 6e6f4343 
00002ffd 28676966 
00003001 6f432029 
00003005 78545f6d 
00003009 65646f4d 
0000300d 65757254 
00003011 00 
00003012 01        12570 	.data.b	1
00003013 0cc2      12571 	.data.b	194,12
00003015 5f6d6f43  12572 	.data.b	67,111,109,95,71,101,116,84,120,80,100,117,71,114,112,65,99,116,105,118,101,79,102,80,67,67,111,110,102,105,103,40,41,32,67,111,109,95,84,120,80,100,117,71,114,112,65,99,116,105,118,101,0
00003019 54746547 
0000301d 75645078 
00003021 41707247 
00003025 76697463 
00003029 50664f65 
0000302d 6e6f4343 
00003031 28676966 
00003035 6f432029 
00003039 78545f6d 
0000303d 47756450 
00003041 63417072 
00003045 65766974 
00003049 00 
0000304a 01        12573 	.data.b	1
0000304b 0cc3      12574 	.data.b	195,12
0000304d 5f6d6f43  12575 	.data.b	67,111,109,95,71,101,116,84,120,80,100,117,71,114,112,73,110,102,111,79,102,80,67,67,111,110,102,105,103,40,41,32,67,111,109,95,84,120,80,100,117,71,114,112,73,110,102,111,0
00003051 54746547 
00003055 75645078 
00003059 49707247 
0000305d 4f6f666e 
00003061 43435066 
00003065 69666e6f 
00003069 20292867 
0000306d 5f6d6f43 
00003071 64507854 
00003075 70724775 
00003079 6f666e49 
0000307d 00 
0000307e 01        12576 	.data.b	1

                                                                      Page 292
                                                              C:\Users\Fengyuan\AppData\Local\Temp\gh_0000fuk1.s
0000307f 0cc4      12577 	.data.b	196,12
00003081 5f6d6f43  12578 	.data.b	67,111,109,95,71,101,116,84,120,80,100,117,73,110,102,111,79,102,80,67,67,111,110,102,105,103,40,41,32,67,111,109,95,84,120,80,100,117,73,110,102,111,0
00003085 54746547 
00003089 75645078 
0000308d 6f666e49 
00003091 4350664f 
00003095 666e6f43 
00003099 29286769 
0000309d 6d6f4320 
000030a1 5078545f 
000030a5 6e497564 
000030a9 006f66 
000030ac 01        12579 	.data.b	1
000030ad 0cc5      12580 	.data.b	197,12
000030af 5f6d6f43  12581 	.data.b	67,111,109,95,71,101,116,84,120,80,100,117,73,110,105,116,86,97,108,117,101,79,102,80,67,67,111,110,102,105,103,40,41,32,67,111,109,95,84,120,80,100,117,73,110,105,116,86,97,108,117,101,0
000030b3 54746547 
000030b7 75645078 
000030bb 74696e49 
000030bf 756c6156 
000030c3 50664f65 
000030c7 6e6f4343 
000030cb 28676966 
000030cf 6f432029 
000030d3 78545f6d 
000030d7 49756450 
000030db 5674696e 
000030df 65756c61 
000030e3 00 
000030e4 01        12582 	.data.b	1
000030e5 0cc6      12583 	.data.b	198,12
000030e7 5f6d6f43  12584 	.data.b	67,111,109,95,71,101,116,84,120,80,114,111,99,101,115,115,105,110,103,73,83,82,76,111,99,107,67,111,117,110,116,101,114,79,102,80,67,67,111,110,102,105,103,40,41,32,40,38,40,67,111,109,95,84,120,80,114,111,99,101
000030eb 54746547 
000030ef 6f725078 
000030f3 73736563 
000030f7 49676e69 
000030fb 6f4c5253 
000030ff 6f436b63 
00003103 65746e75 
00003107 50664f72 
0000310b 6e6f4343 
0000310f 28676966 
00003113 26282029 
00003117 6d6f4328 
0000311b 5078545f 
0000311f 65636f72 
00003123 6e697373  12585 	.data.b	115,115,105,110,103,73,83,82,76,111,99,107,67,111,117,110,116,101,114,41,41,0
00003127 52534967 
0000312b 6b636f4c 
0000312f 6e756f43 
00003133 29726574 
00003137 0029 
00003139 01        12586 	.data.b	1
0000313a 0cc7      12587 	.data.b	199,12
0000313c 5f6d6f43  12588 	.data.b	67,111,109,95,71,101,116,84,120,80,114,111,99,101,115,115,105,110,103,73,83,82,76,111,99,107,84,104,114,101,115,104,111,108,100,79,102,80,67,67,111,110,102,105,103,40,41,32,49,117,0
00003140 54746547 
00003144 6f725078 
00003148 73736563 
0000314c 49676e69 
00003150 6f4c5253 
00003154 68546b63 
00003158 68736572 

                                                                      Page 293
                                                              C:\Users\Fengyuan\AppData\Local\Temp\gh_0000fuk1.s
0000315c 4f646c6f 
00003160 43435066 
00003164 69666e6f 
00003168 20292867 
0000316c 007531 
0000316f 01        12589 	.data.b	1
00003170 0cc8      12590 	.data.b	200,12
00003172 5f6d6f43  12591 	.data.b	67,111,109,95,71,101,116,84,120,83,100,117,76,101,110,103,116,104,79,102,80,67,67,111,110,102,105,103,40,41,32,67,111,109,95,84,120,83,100,117,76,101,110,103,116,104,0
00003176 54746547 
0000317a 75645378 
0000317e 676e654c 
00003182 664f6874 
00003186 6f434350 
0000318a 6769666e 
0000318e 43202928 
00003192 545f6d6f 
00003196 75645378 
0000319a 676e654c 
0000319e 006874 
000031a1 01        12592 	.data.b	1
000031a2 0cc9      12593 	.data.b	201,12
000031a4 5f6d6f43  12594 	.data.b	67,111,109,95,71,101,116,84,120,83,105,103,73,110,102,111,79,102,80,67,67,111,110,102,105,103,40,41,32,67,111,109,95,84,120,83,105,103,73,110,102,111,0
000031a8 54746547 
000031ac 67695378 
000031b0 6f666e49 
000031b4 4350664f 
000031b8 666e6f43 
000031bc 29286769 
000031c0 6d6f4320 
000031c4 5378545f 
000031c8 6e496769 
000031cc 006f66 
000031cf 01        12595 	.data.b	1
000031d0 0ce6      12596 	.data.b	230,12
000031d2 5f6d6f43  12597 	.data.b	67,111,109,95,71,101,116,67,111,110,115,116,86,97,108,117,101,85,73,110,116,56,40,73,110,100,101,120,41,32,40,67,111,109,95,71,101,116,67,111,110,115,116,86,97,108,117,101,85,73,110,116,56,79,102,80,67,67,111,110
000031d6 43746547 
000031da 74736e6f 
000031de 756c6156 
000031e2 6e495565 
000031e6 49283874 
000031ea 7865646e 
000031ee 43282029 
000031f2 475f6d6f 
000031f6 6f437465 
000031fa 5674736e 
000031fe 65756c61 
00003202 746e4955 
00003206 50664f38 
0000320a 6e6f4343 
0000320e 28676966  12598 	.data.b	102,105,103,40,41,91,40,73,110,100,101,120,41,93,41,0
00003212 49285b29 
00003216 7865646e 
0000321a 00295d29 
0000321e 01        12599 	.data.b	1
0000321f 0ce7      12600 	.data.b	231,12
00003221 5f6d6f43  12601 	.data.b	67,111,109,95,73,115,67,117,114,114,101,110,116,84,120,77,111,100,101,40,73,110,100,101,120,41,32,40,40,67,111,109,95,71,101,116,67,117,114,114,101,110,116,84,120,77,111,100,101,79,102,80,67,67,111,110,102,105,103,40
00003225 75437349 
00003229 6e657272 
0000322d 4d785474 
00003231 2865646f 
00003235 65646e49 

                                                                      Page 294
                                                              C:\Users\Fengyuan\AppData\Local\Temp\gh_0000fuk1.s
00003239 28202978 
0000323d 6d6f4328 
00003241 7465475f 
00003245 72727543 
00003249 54746e65 
0000324d 646f4d78 
00003251 50664f65 
00003255 6e6f4343 
00003259 28676966 
0000325d 49285b29  12602 	.data.b	41,91,40,73,110,100,101,120,41,93,41,32,33,61,32,70,65,76,83,69,41,0
00003261 7865646e 
00003265 20295d29 
00003269 46203d21 
0000326d 45534c41 
00003271 0029 
00003273 01        12603 	.data.b	1
00003274 0ce8      12604 	.data.b	232,12
00003276 5f6d6f43  12605 	.data.b	67,111,109,95,71,101,116,67,121,99,108,101,84,105,109,101,67,110,116,40,73,110,100,101,120,41,32,40,67,111,109,95,71,101,116,67,121,99,108,101,84,105,109,101,67,110,116,79,102,80,67,67,111,110,102,105,103,40,41,91
0000327a 43746547 
0000327e 656c6379 
00003282 656d6954 
00003286 28746e43 
0000328a 65646e49 
0000328e 28202978 
00003292 5f6d6f43 
00003296 43746547 
0000329a 656c6379 
0000329e 656d6954 
000032a2 4f746e43 
000032a6 43435066 
000032aa 69666e6f 
000032ae 5b292867 
000032b2 646e4928  12606 	.data.b	40,73,110,100,101,120,41,93,41,0
000032b6 5d297865 
000032ba 0029 
000032bc 01        12607 	.data.b	1
000032bd 0ce9      12608 	.data.b	233,12
000032bf 5f6d6f43  12609 	.data.b	67,111,109,95,73,115,67,121,99,108,105,99,83,101,110,100,82,101,113,117,101,115,116,40,73,110,100,101,120,41,32,40,40,67,111,109,95,71,101,116,67,121,99,108,105,99,83,101,110,100,82,101,113,117,101,115,116,79,102,80
000032c3 79437349 
000032c7 63696c63 
000032cb 646e6553 
000032cf 75716552 
000032d3 28747365 
000032d7 65646e49 
000032db 28202978 
000032df 6d6f4328 
000032e3 7465475f 
000032e7 6c637943 
000032eb 65536369 
000032ef 6552646e 
000032f3 73657571 
000032f7 50664f74 
000032fb 6e6f4343  12610 	.data.b	67,67,111,110,102,105,103,40,41,91,40,73,110,100,101,120,41,93,41,32,33,61,32,70,65,76,83,69,41,0
000032ff 28676966 
00003303 49285b29 
00003307 7865646e 
0000330b 20295d29 
0000330f 46203d21 
00003313 45534c41 
00003317 0029 
00003319 01        12611 	.data.b	1

                                                                      Page 295
                                                              C:\Users\Fengyuan\AppData\Local\Temp\gh_0000fuk1.s
0000331a 0cec      12612 	.data.b	236,12
0000331c 5f6d6f43  12613 	.data.b	67,111,109,95,71,101,116,72,97,110,100,108,101,82,120,80,100,117,68,101,102,101,114,114,101,100,40,73,110,100,101,120,41,32,40,67,111,109,95,71,101,116,72,97,110,100,108,101,82,120,80,100,117,68,101,102,101,114,114,101
00003320 48746547 
00003324 6c646e61 
00003328 50785265 
0000332c 65447564 
00003330 72726566 
00003334 49286465 
00003338 7865646e 
0000333c 43282029 
00003340 475f6d6f 
00003344 61487465 
00003348 656c646e 
0000334c 64507852 
00003350 66654475 
00003354 65727265 
00003358 50664f64  12614 	.data.b	100,79,102,80,67,67,111,110,102,105,103,40,41,91,40,73,110,100,101,120,41,93,41,0
0000335c 6e6f4343 
00003360 28676966 
00003364 49285b29 
00003368 7865646e 
0000336c 00295d29 
00003370 01        12615 	.data.b	1
00003371 0ced      12616 	.data.b	237,12
00003373 5f6d6f43  12617 	.data.b	67,111,109,95,73,115,73,110,105,116,105,97,108,105,122,101,100,40,41,32,40,40,40,42,40,67,111,109,95,71,101,116,73,110,105,116,105,97,108,105,122,101,100,79,102,80,67,67,111,110,102,105,103,40,41,41,41,41,32,33
00003377 6e497349 
0000337b 61697469 
0000337f 657a696c 
00003383 20292864 
00003387 2a282828 
0000338b 6d6f4328 
0000338f 7465475f 
00003393 74696e49 
00003397 696c6169 
0000339b 4f64657a 
0000339f 43435066 
000033a3 69666e6f 
000033a7 29292867 
000033ab 21202929 
000033af 4146203d  12618 	.data.b	61,32,70,65,76,83,69,41,0
000033b3 2945534c 
000033b7 00 
000033b8 01        12619 	.data.b	1
000033b9 0cf0      12620 	.data.b	240,12
000033bb 5f6d6f43  12621 	.data.b	67,111,109,95,71,101,116,66,105,116,80,111,115,105,116,105,111,110,79,102,82,120,65,99,99,101,115,115,73,110,102,111,40,73,110,100,101,120,41,32,40,67,111,109,95,71,101,116,82,120,65,99,99,101,115,115,73,110,102,111
000033bf 42746547 
000033c3 6f507469 
000033c7 69746973 
000033cb 664f6e6f 
000033cf 63417852 
000033d3 73736563 
000033d7 6f666e49 
000033db 646e4928 
000033df 20297865 
000033e3 6d6f4328 
000033e7 7465475f 
000033eb 63417852 
000033ef 73736563 
000033f3 6f666e49 
000033f7 4350664f  12622 	.data.b	79,102,80,67,67,111,110,102,105,103,40,41,91,40,73,110,100,101,120,41,93,46,66,105,116,80,111,115,105,116,105,111,110,79,102,82,120,65,99,99,101,115,115,73,110,102,111,41,0
000033fb 666e6f43 

                                                                      Page 296
                                                              C:\Users\Fengyuan\AppData\Local\Temp\gh_0000fuk1.s
000033ff 29286769 
00003403 6e49285b 
00003407 29786564 
0000340b 69422e5d 
0000340f 736f5074 
00003413 6f697469 
00003417 52664f6e 
0000341b 63634178 
0000341f 49737365 
00003423 296f666e 
00003427 00 
00003428 01        12623 	.data.b	1
00003429 0cf1      12624 	.data.b	241,12
0000342b 5f6d6f43  12625 	.data.b	67,111,109,95,71,101,116,66,117,115,65,99,99,79,102,82,120,65,99,99,101,115,115,73,110,102,111,40,73,110,100,101,120,41,32,40,67,111,109,95,71,101,116,82,120,65,99,99,101,115,115,73,110,102,111,79,102,80,67,67
0000342f 42746547 
00003433 63417375 
00003437 52664f63 
0000343b 63634178 
0000343f 49737365 
00003443 286f666e 
00003447 65646e49 
0000344b 28202978 
0000344f 5f6d6f43 
00003453 52746547 
00003457 63634178 
0000345b 49737365 
0000345f 4f6f666e 
00003463 43435066 
00003467 69666e6f  12626 	.data.b	111,110,102,105,103,40,41,91,40,73,110,100,101,120,41,93,46,66,117,115,65,99,99,79,102,82,120,65,99,99,101,115,115,73,110,102,111,41,0
0000346b 5b292867 
0000346f 646e4928 
00003473 5d297865 
00003477 7375422e 
0000347b 4f636341 
0000347f 41785266 
00003483 73656363 
00003487 666e4973 
0000348b 00296f 
0000348e 01        12627 	.data.b	1
0000348f 0cf2      12628 	.data.b	242,12
00003491 5f6d6f43  12629 	.data.b	67,111,109,95,73,115,73,110,105,116,86,97,108,117,101,85,115,101,100,79,102,82,120,65,99,99,101,115,115,73,110,102,111,40,73,110,100,101,120,41,32,40,40,67,111,109,95,71,101,116,82,120,65,99,99,101,115,115,73,110
00003495 6e497349 
00003499 61567469 
0000349d 5565756c 
000034a1 4f646573 
000034a5 41785266 
000034a9 73656363 
000034ad 666e4973 
000034b1 6e49286f 
000034b5 29786564 
000034b9 43282820 
000034bd 475f6d6f 
000034c1 78527465 
000034c5 65636341 
000034c9 6e497373 
000034cd 664f6f66  12630 	.data.b	102,111,79,102,80,67,67,111,110,102,105,103,40,41,91,40,73,110,100,101,120,41,93,46,73,110,105,116,86,97,108,117,101,85,115,101,100,79,102,82,120,65,99,99,101,115,115,73,110,102,111,41,32,33,61,32,70,65,76,83
000034d1 6f434350 
000034d5 6769666e 
000034d9 285b2928 
000034dd 65646e49 
000034e1 2e5d2978 

                                                                      Page 297
                                                              C:\Users\Fengyuan\AppData\Local\Temp\gh_0000fuk1.s
000034e5 74696e49 
000034e9 756c6156 
000034ed 65735565 
000034f1 52664f64 
000034f5 63634178 
000034f9 49737365 
000034fd 296f666e 
00003501 203d2120 
00003505 534c4146 
00003509 002945    12631 	.data.b	69,41,0
0000350c 01        12632 	.data.b	1
0000350d 0cf4      12633 	.data.b	244,12
0000350f 5f6d6f43  12634 	.data.b	67,111,109,95,71,101,116,82,120,68,101,102,80,100,117,66,117,102,102,101,114,40,73,110,100,101,120,41,32,40,67,111,109,95,71,101,116,82,120,68,101,102,80,100,117,66,117,102,102,101,114,79,102,80,67,67,111,110,102,105
00003513 52746547 
00003517 66654478 
0000351b 42756450 
0000351f 65666675 
00003523 6e492872 
00003527 29786564 
0000352b 6f432820 
0000352f 65475f6d 
00003533 44785274 
00003537 64506665 
0000353b 66754275 
0000353f 4f726566 
00003543 43435066 
00003547 69666e6f 
0000354b 5b292867  12635 	.data.b	103,40,41,91,40,73,110,100,101,120,41,93,41,0
0000354f 646e4928 
00003553 5d297865 
00003557 0029 
00003559 01        12636 	.data.b	1
0000355a 0cf5      12637 	.data.b	245,12
0000355c 5f6d6f43  12638 	.data.b	67,111,109,95,71,101,116,82,120,68,101,102,101,114,114,101,100,80,114,111,99,101,115,115,105,110,103,73,83,82,76,111,99,107,67,111,117,110,116,101,114,40,41,32,40,40,42,40,67,111,109,95,71,101,116,82,120,68,101,102
00003560 52746547 
00003564 66654478 
00003568 65727265 
0000356c 6f725064 
00003570 73736563 
00003574 49676e69 
00003578 6f4c5253 
0000357c 6f436b63 
00003580 65746e75 
00003584 20292872 
00003588 282a2828 
0000358c 5f6d6f43 
00003590 52746547 
00003594 66654478 
00003598 65727265  12639 	.data.b	101,114,114,101,100,80,114,111,99,101,115,115,105,110,103,73,83,82,76,111,99,107,67,111,117,110,116,101,114,79,102,80,67,67,111,110,102,105,103,40,41,41,41,41,0
0000359c 6f725064 
000035a0 73736563 
000035a4 49676e69 
000035a8 6f4c5253 
000035ac 6f436b63 
000035b0 65746e75 
000035b4 50664f72 
000035b8 6e6f4343 
000035bc 28676966 
000035c0 29292929 
000035c4 00 
000035c5 01        12640 	.data.b	1

                                                                      Page 298
                                                              C:\Users\Fengyuan\AppData\Local\Temp\gh_0000fuk1.s
000035c6 0cf6      12641 	.data.b	246,12
000035c8 5f6d6f43  12642 	.data.b	67,111,109,95,71,101,116,82,120,73,80,100,117,71,114,111,117,112,73,83,82,76,111,99,107,67,111,117,110,116,101,114,40,41,32,40,40,42,40,67,111,109,95,71,101,116,82,120,73,80,100,117,71,114,111,117,112,73,83,82
000035cc 52746547 
000035d0 64504978 
000035d4 6f724775 
000035d8 53497075 
000035dc 636f4c52 
000035e0 756f436b 
000035e4 7265746e 
000035e8 28202928 
000035ec 43282a28 
000035f0 475f6d6f 
000035f4 78527465 
000035f8 75645049 
000035fc 756f7247 
00003600 52534970 
00003604 6b636f4c  12643 	.data.b	76,111,99,107,67,111,117,110,116,101,114,79,102,80,67,67,111,110,102,105,103,40,41,41,41,41,0
00003608 6e756f43 
0000360c 4f726574 
00003610 43435066 
00003614 69666e6f 
00003618 29292867 
0000361c 002929 
0000361f 01        12644 	.data.b	1
00003620 0cf7      12645 	.data.b	247,12
00003622 5f6d6f43  12646 	.data.b	67,111,109,95,73,115,82,120,80,100,117,71,114,112,65,99,116,105,118,101,40,73,110,100,101,120,41,32,40,40,67,111,109,95,71,101,116,82,120,80,100,117,71,114,112,65,99,116,105,118,101,79,102,80,67,67,111,110,102,105
00003626 78527349 
0000362a 47756450 
0000362e 63417072 
00003632 65766974 
00003636 646e4928 
0000363a 20297865 
0000363e 6f432828 
00003642 65475f6d 
00003646 50785274 
0000364a 72477564 
0000364e 74634170 
00003652 4f657669 
00003656 43435066 
0000365a 69666e6f 
0000365e 5b292867  12647 	.data.b	103,40,41,91,40,73,110,100,101,120,41,93,41,32,33,61,32,70,65,76,83,69,41,0
00003662 646e4928 
00003666 5d297865 
0000366a 3d212029 
0000366e 4c414620 
00003672 00294553 
00003676 01        12648 	.data.b	1
00003677 0cf8      12649 	.data.b	248,12
00003679 5f6d6f43  12650 	.data.b	67,111,109,95,73,115,82,120,65,99,99,101,115,115,73,110,102,111,73,110,100,85,115,101,100,79,102,82,120,80,100,117,73,110,102,111,40,73,110,100,101,120,41,32,40,40,67,111,109,95,71,101,116,82,120,80,100,117,73,110
0000367d 78527349 
00003681 65636341 
00003685 6e497373 
00003689 6e496f66 
0000368d 65735564 
00003691 52664f64 
00003695 75645078 
00003699 6f666e49 
0000369d 646e4928 
000036a1 20297865 
000036a5 6f432828 
000036a9 65475f6d 

                                                                      Page 299
                                                              C:\Users\Fengyuan\AppData\Local\Temp\gh_0000fuk1.s
000036ad 50785274 
000036b1 6e497564 
000036b5 664f6f66  12651 	.data.b	102,111,79,102,80,67,67,111,110,102,105,103,40,41,91,40,73,110,100,101,120,41,93,46,82,120,65,99,99,101,115,115,73,110,102,111,73,110,100,85,115,101,100,79,102,82,120,80,100,117,73,110,102,111,41,32,33,61,32,70
000036b9 6f434350 
000036bd 6769666e 
000036c1 285b2928 
000036c5 65646e49 
000036c9 2e5d2978 
000036cd 63417852 
000036d1 73736563 
000036d5 6f666e49 
000036d9 55646e49 
000036dd 4f646573 
000036e1 50785266 
000036e5 6e497564 
000036e9 20296f66 
000036ed 46203d21 
000036f1 45534c41  12652 	.data.b	65,76,83,69,41,0
000036f5 0029 
000036f7 01        12653 	.data.b	1
000036f8 0cf9      12654 	.data.b	249,12
000036fa 5f6d6f43  12655 	.data.b	67,111,109,95,71,101,116,82,120,83,105,103,66,117,102,102,101,114,85,73,110,116,56,40,73,110,100,101,120,41,32,40,67,111,109,95,71,101,116,82,120,83,105,103,66,117,102,102,101,114,85,73,110,116,56,79,102,80,67,67
000036fe 52746547 
00003702 67695378 
00003706 66667542 
0000370a 49557265 
0000370e 2838746e 
00003712 65646e49 
00003716 28202978 
0000371a 5f6d6f43 
0000371e 52746547 
00003722 67695378 
00003726 66667542 
0000372a 49557265 
0000372e 4f38746e 
00003732 43435066 
00003736 69666e6f  12656 	.data.b	111,110,102,105,103,40,41,91,40,73,110,100,101,120,41,93,41,0
0000373a 5b292867 
0000373e 646e4928 
00003742 5d297865 
00003746 0029 
00003748 01        12657 	.data.b	1
00003749 0cfa      12658 	.data.b	250,12
0000374b 5f6d6f43  12659 	.data.b	67,111,109,95,71,101,116,86,97,108,105,100,68,108,99,79,102,82,120,83,105,103,73,110,102,111,40,73,110,100,101,120,41,32,40,67,111,109,95,71,101,116,82,120,83,105,103,73,110,102,111,79,102,80,67,67,111,110,102,105
0000374f 56746547 
00003753 64696c61 
00003757 4f636c44 
0000375b 53785266 
0000375f 6e496769 
00003763 49286f66 
00003767 7865646e 
0000376b 43282029 
0000376f 475f6d6f 
00003773 78527465 
00003777 49676953 
0000377b 4f6f666e 
0000377f 43435066 
00003783 69666e6f 
00003787 5b292867  12660 	.data.b	103,40,41,91,40,73,110,100,101,120,41,93,46,86,97,108,105,100,68,108,99,79,102,82,120,83,105,103,73,110,102,111,41,0
0000378b 646e4928 
0000378f 5d297865 

                                                                      Page 300
                                                              C:\Users\Fengyuan\AppData\Local\Temp\gh_0000fuk1.s
00003793 6c61562e 
00003797 6c446469 
0000379b 52664f63 
0000379f 67695378 
000037a3 6f666e49 
000037a7 0029 
000037a9 01        12661 	.data.b	1
000037aa 0cfb      12662 	.data.b	251,12
000037ac 5f6d6f43  12663 	.data.b	67,111,109,95,73,115,84,114,97,110,115,109,105,116,82,101,113,117,101,115,116,40,73,110,100,101,120,41,32,40,40,67,111,109,95,71,101,116,84,114,97,110,115,109,105,116,82,101,113,117,101,115,116,79,102,80,67,67,111,110
000037b0 72547349 
000037b4 6d736e61 
000037b8 65527469 
000037bc 73657571 
000037c0 6e492874 
000037c4 29786564 
000037c8 43282820 
000037cc 475f6d6f 
000037d0 72547465 
000037d4 6d736e61 
000037d8 65527469 
000037dc 73657571 
000037e0 50664f74 
000037e4 6e6f4343 
000037e8 28676966  12664 	.data.b	102,105,103,40,41,91,40,73,110,100,101,120,41,93,41,32,33,61,32,70,65,76,83,69,41,0
000037ec 49285b29 
000037f0 7865646e 
000037f4 20295d29 
000037f8 46203d21 
000037fc 45534c41 
00003800 0029 
00003802 01        12665 	.data.b	1
00003803 0cfc      12666 	.data.b	252,12
00003805 5f6d6f43  12667 	.data.b	67,111,109,95,71,101,116,84,120,66,117,102,102,101,114,40,73,110,100,101,120,41,32,40,67,111,109,95,71,101,116,84,120,66,117,102,102,101,114,79,102,80,67,67,111,110,102,105,103,40,41,91,40,73,110,100,101,120,41,93
00003809 54746547 
0000380d 66754278 
00003811 28726566 
00003815 65646e49 
00003819 28202978 
0000381d 5f6d6f43 
00003821 54746547 
00003825 66754278 
00003829 4f726566 
0000382d 43435066 
00003831 69666e6f 
00003835 5b292867 
00003839 646e4928 
0000383d 5d297865 
00003841 0029      12668 	.data.b	41,0
00003843 01        12669 	.data.b	1
00003844 0cfd      12670 	.data.b	253,12
00003846 5f6d6f43  12671 	.data.b	67,111,109,95,71,101,116,84,120,67,121,99,108,105,99,80,114,111,99,101,115,115,105,110,103,73,83,82,76,111,99,107,67,111,117,110,116,101,114,40,41,32,40,40,42,40,67,111,109,95,71,101,116,84,120,67,121,99,108,105
0000384a 54746547 
0000384e 63794378 
00003852 5063696c 
00003856 65636f72 
0000385a 6e697373 
0000385e 52534967 
00003862 6b636f4c 
00003866 6e756f43 
0000386a 28726574 
0000386e 28282029 

                                                                      Page 301
                                                              C:\Users\Fengyuan\AppData\Local\Temp\gh_0000fuk1.s
00003872 6f43282a 
00003876 65475f6d 
0000387a 43785474 
0000387e 696c6379 
00003882 6f725063  12672 	.data.b	99,80,114,111,99,101,115,115,105,110,103,73,83,82,76,111,99,107,67,111,117,110,116,101,114,79,102,80,67,67,111,110,102,105,103,40,41,41,41,41,0
00003886 73736563 
0000388a 49676e69 
0000388e 6f4c5253 
00003892 6f436b63 
00003896 65746e75 
0000389a 50664f72 
0000389e 6e6f4343 
000038a2 28676966 
000038a6 29292929 
000038aa 00 
000038ab 01        12673 	.data.b	1
000038ac 0cff      12674 	.data.b	255,12
000038ae 5f6d6f43  12675 	.data.b	67,111,109,95,71,101,116,84,120,73,80,100,117,71,114,111,117,112,73,83,82,76,111,99,107,67,111,117,110,116,101,114,40,41,32,40,40,42,40,67,111,109,95,71,101,116,84,120,73,80,100,117,71,114,111,117,112,73,83,82
000038b2 54746547 
000038b6 64504978 
000038ba 6f724775 
000038be 53497075 
000038c2 636f4c52 
000038c6 756f436b 
000038ca 7265746e 
000038ce 28202928 
000038d2 43282a28 
000038d6 475f6d6f 
000038da 78547465 
000038de 75645049 
000038e2 756f7247 
000038e6 52534970 
000038ea 6b636f4c  12676 	.data.b	76,111,99,107,67,111,117,110,116,101,114,79,102,80,67,67,111,110,102,105,103,40,41,41,41,41,0
000038ee 6e756f43 
000038f2 4f726574 
000038f6 43435066 
000038fa 69666e6f 
000038fe 29292867 
00003902 002929 
00003905 01        12677 	.data.b	1
00003906 0d80      12678 	.data.b	128,13
00003908 5f6d6f43  12679 	.data.b	67,111,109,95,73,115,80,101,114,105,111,100,105,99,79,102,84,120,77,111,100,101,70,97,108,115,101,40,73,110,100,101,120,41,32,40,40,67,111,109,95,71,101,116,84,120,77,111,100,101,70,97,108,115,101,79,102,80,67,67
0000390c 65507349 
00003910 646f6972 
00003914 664f6369 
00003918 6f4d7854 
0000391c 61466564 
00003920 2865736c 
00003924 65646e49 
00003928 28202978 
0000392c 6d6f4328 
00003930 7465475f 
00003934 6f4d7854 
00003938 61466564 
0000393c 4f65736c 
00003940 43435066 
00003944 69666e6f  12680 	.data.b	111,110,102,105,103,40,41,91,40,73,110,100,101,120,41,93,46,80,101,114,105,111,100,105,99,79,102,84,120,77,111,100,101,70,97,108,115,101,41,32,33,61,32,70,65,76,83,69,41,0
00003948 5b292867 
0000394c 646e4928 
00003950 5d297865 
00003954 7265502e 

                                                                      Page 302
                                                              C:\Users\Fengyuan\AppData\Local\Temp\gh_0000fuk1.s
00003958 69646f69 
0000395c 54664f63 
00003960 646f4d78 
00003964 6c614665 
00003968 20296573 
0000396c 46203d21 
00003970 45534c41 
00003974 0029 
00003976 01        12681 	.data.b	1
00003977 0d81      12682 	.data.b	129,13
00003979 5f6d6f43  12683 	.data.b	67,111,109,95,73,115,73,110,105,116,77,111,100,101,79,102,84,120,77,111,100,101,73,110,102,111,40,73,110,100,101,120,41,32,40,40,67,111,109,95,71,101,116,84,120,77,111,100,101,73,110,102,111,79,102,80,67,67,111,110
0000397d 6e497349 
00003981 6f4d7469 
00003985 664f6564 
00003989 6f4d7854 
0000398d 6e496564 
00003991 49286f66 
00003995 7865646e 
00003999 28282029 
0000399d 5f6d6f43 
000039a1 54746547 
000039a5 646f4d78 
000039a9 666e4965 
000039ad 50664f6f 
000039b1 6e6f4343 
000039b5 28676966  12684 	.data.b	102,105,103,40,41,91,40,73,110,100,101,120,41,93,46,73,110,105,116,77,111,100,101,79,102,84,120,77,111,100,101,73,110,102,111,41,32,33,61,32,70,65,76,83,69,41,0
000039b9 49285b29 
000039bd 7865646e 
000039c1 492e5d29 
000039c5 4d74696e 
000039c9 4f65646f 
000039cd 4d785466 
000039d1 4965646f 
000039d5 296f666e 
000039d9 203d2120 
000039dd 534c4146 
000039e1 002945 
000039e4 01        12685 	.data.b	1
000039e5 0d82      12686 	.data.b	130,13
000039e7 5f6d6f43  12687 	.data.b	67,111,109,95,71,101,116,84,120,77,111,100,101,84,114,117,101,73,100,120,79,102,84,120,77,111,100,101,73,110,102,111,40,73,110,100,101,120,41,32,40,67,111,109,95,71,101,116,84,120,77,111,100,101,73,110,102,111,79,102
000039eb 54746547 
000039ef 646f4d78 
000039f3 75725465 
000039f7 78644965 
000039fb 7854664f 
000039ff 65646f4d 
00003a03 6f666e49 
00003a07 646e4928 
00003a0b 20297865 
00003a0f 6d6f4328 
00003a13 7465475f 
00003a17 6f4d7854 
00003a1b 6e496564 
00003a1f 664f6f66 
00003a23 6f434350  12688 	.data.b	80,67,67,111,110,102,105,103,40,41,91,40,73,110,100,101,120,41,93,46,84,120,77,111,100,101,84,114,117,101,73,100,120,79,102,84,120,77,111,100,101,73,110,102,111,41,0
00003a27 6769666e 
00003a2b 285b2928 
00003a2f 65646e49 
00003a33 2e5d2978 
00003a37 6f4d7854 
00003a3b 72546564 

                                                                      Page 303
                                                              C:\Users\Fengyuan\AppData\Local\Temp\gh_0000fuk1.s
00003a3f 64496575 
00003a43 54664f78 
00003a47 646f4d78 
00003a4b 666e4965 
00003a4f 00296f 
00003a52 01        12689 	.data.b	1
00003a53 0d83      12690 	.data.b	131,13
00003a55 5f6d6f43  12691 	.data.b	67,111,109,95,73,115,80,101,114,105,111,100,105,99,79,102,84,120,77,111,100,101,84,114,117,101,40,73,110,100,101,120,41,32,40,40,67,111,109,95,71,101,116,84,120,77,111,100,101,84,114,117,101,79,102,80,67,67,111,110
00003a59 65507349 
00003a5d 646f6972 
00003a61 664f6369 
00003a65 6f4d7854 
00003a69 72546564 
00003a6d 49286575 
00003a71 7865646e 
00003a75 28282029 
00003a79 5f6d6f43 
00003a7d 54746547 
00003a81 646f4d78 
00003a85 75725465 
00003a89 50664f65 
00003a8d 6e6f4343 
00003a91 28676966  12692 	.data.b	102,105,103,40,41,91,40,73,110,100,101,120,41,93,46,80,101,114,105,111,100,105,99,79,102,84,120,77,111,100,101,84,114,117,101,41,32,33,61,32,70,65,76,83,69,41,0
00003a95 49285b29 
00003a99 7865646e 
00003a9d 502e5d29 
00003aa1 6f697265 
00003aa5 4f636964 
00003aa9 4d785466 
00003aad 5465646f 
00003ab1 29657572 
00003ab5 203d2120 
00003ab9 534c4146 
00003abd 002945 
00003ac0 01        12693 	.data.b	1
00003ac1 0d84      12694 	.data.b	132,13
00003ac3 5f6d6f43  12695 	.data.b	67,111,109,95,73,115,84,120,80,100,117,71,114,112,65,99,116,105,118,101,40,73,110,100,101,120,41,32,40,40,67,111,109,95,71,101,116,84,120,80,100,117,71,114,112,65,99,116,105,118,101,79,102,80,67,67,111,110,102,105
00003ac7 78547349 
00003acb 47756450 
00003acf 63417072 
00003ad3 65766974 
00003ad7 646e4928 
00003adb 20297865 
00003adf 6f432828 
00003ae3 65475f6d 
00003ae7 50785474 
00003aeb 72477564 
00003aef 74634170 
00003af3 4f657669 
00003af7 43435066 
00003afb 69666e6f 
00003aff 5b292867  12696 	.data.b	103,40,41,91,40,73,110,100,101,120,41,93,41,32,33,61,32,70,65,76,83,69,41,0
00003b03 646e4928 
00003b07 5d297865 
00003b0b 3d212029 
00003b0f 4c414620 
00003b13 00294553 
00003b17 01        12697 	.data.b	1
00003b18 0d85      12698 	.data.b	133,13
00003b1a 5f6d6f43  12699 	.data.b	67,111,109,95,71,101,116,80,100,117,71,114,112,86,101,99,116,111,114,83,116,97,114,116,73,100,120,79,102,84,120,80,100,117,71,114,112,73,110,102,111,40,73,110,100,101,120,41,32,40,67,111,109,95,71,101,116,84,120,80
00003b1e 50746547 

                                                                      Page 304
                                                              C:\Users\Fengyuan\AppData\Local\Temp\gh_0000fuk1.s
00003b22 72477564 
00003b26 63655670 
00003b2a 53726f74 
00003b2e 74726174 
00003b32 4f786449 
00003b36 50785466 
00003b3a 72477564 
00003b3e 666e4970 
00003b42 6e49286f 
00003b46 29786564 
00003b4a 6f432820 
00003b4e 65475f6d 
00003b52 50785474 
00003b56 72477564  12700 	.data.b	100,117,71,114,112,73,110,102,111,79,102,80,67,67,111,110,102,105,103,40,41,91,40,73,110,100,101,120,41,93,46,80,100,117,71,114,112,86,101,99,116,111,114,83,116,97,114,116,73,100,120,79,102,84,120,80,100,117,71,114
00003b5a 666e4970 
00003b5e 50664f6f 
00003b62 6e6f4343 
00003b66 28676966 
00003b6a 49285b29 
00003b6e 7865646e 
00003b72 502e5d29 
00003b76 72477564 
00003b7a 63655670 
00003b7e 53726f74 
00003b82 74726174 
00003b86 4f786449 
00003b8a 50785466 
00003b8e 72477564 
00003b92 666e4970  12701 	.data.b	112,73,110,102,111,41,0
00003b96 00296f 
00003b99 01        12702 	.data.b	1
00003b9a 0d87      12703 	.data.b	135,13
00003b9c 5f6d6f43  12704 	.data.b	67,111,109,95,71,101,116,84,120,66,117,102,102,101,114,76,101,110,103,116,104,79,102,84,120,80,100,117,73,110,102,111,40,73,110,100,101,120,41,32,40,67,111,109,95,71,101,116,84,120,80,100,117,73,110,102,111,79,102,80
00003ba0 54746547 
00003ba4 66754278 
00003ba8 4c726566 
00003bac 74676e65 
00003bb0 54664f68 
00003bb4 75645078 
00003bb8 6f666e49 
00003bbc 646e4928 
00003bc0 20297865 
00003bc4 6d6f4328 
00003bc8 7465475f 
00003bcc 64507854 
00003bd0 666e4975 
00003bd4 50664f6f 
00003bd8 6e6f4343  12705 	.data.b	67,67,111,110,102,105,103,40,41,91,40,73,110,100,101,120,41,93,46,84,120,66,117,102,102,101,114,76,101,110,103,116,104,79,102,84,120,80,100,117,73,110,102,111,41,0
00003bdc 28676966 
00003be0 49285b29 
00003be4 7865646e 
00003be8 542e5d29 
00003bec 66754278 
00003bf0 4c726566 
00003bf4 74676e65 
00003bf8 54664f68 
00003bfc 75645078 
00003c00 6f666e49 
00003c04 0029 
00003c06 01        12706 	.data.b	1
00003c07 0d88      12707 	.data.b	136,13

                                                                      Page 305
                                                              C:\Users\Fengyuan\AppData\Local\Temp\gh_0000fuk1.s
00003c09 5f6d6f43  12708 	.data.b	67,111,109,95,71,101,116,84,120,80,100,117,73,110,105,116,86,97,108,117,101,83,116,97,114,116,73,100,120,79,102,84,120,80,100,117,73,110,102,111,40,73,110,100,101,120,41,32,40,67,111,109,95,71,101,116,84,120,80,100
00003c0d 54746547 
00003c11 75645078 
00003c15 74696e49 
00003c19 756c6156 
00003c1d 61745365 
00003c21 64497472 
00003c25 54664f78 
00003c29 75645078 
00003c2d 6f666e49 
00003c31 646e4928 
00003c35 20297865 
00003c39 6d6f4328 
00003c3d 7465475f 
00003c41 64507854 
00003c45 666e4975  12709 	.data.b	117,73,110,102,111,79,102,80,67,67,111,110,102,105,103,40,41,91,40,73,110,100,101,120,41,93,46,84,120,80,100,117,73,110,105,116,86,97,108,117,101,83,116,97,114,116,73,100,120,79,102,84,120,80,100,117,73,110,102,111
00003c49 50664f6f 
00003c4d 6e6f4343 
00003c51 28676966 
00003c55 49285b29 
00003c59 7865646e 
00003c5d 542e5d29 
00003c61 75645078 
00003c65 74696e49 
00003c69 756c6156 
00003c6d 61745365 
00003c71 64497472 
00003c75 54664f78 
00003c79 75645078 
00003c7d 6f666e49 
00003c81 0029      12710 	.data.b	41,0
00003c83 01        12711 	.data.b	1
00003c84 0d89      12712 	.data.b	137,13
00003c86 5f6d6f43  12713 	.data.b	67,111,109,95,73,115,84,120,80,100,117,73,110,105,116,86,97,108,117,101,85,115,101,100,79,102,84,120,80,100,117,73,110,102,111,40,73,110,100,101,120,41,32,40,40,67,111,109,95,71,101,116,84,120,80,100,117,73,110,102
00003c8a 78547349 
00003c8e 49756450 
00003c92 5674696e 
00003c96 65756c61 
00003c9a 64657355 
00003c9e 7854664f 
00003ca2 49756450 
00003ca6 286f666e 
00003caa 65646e49 
00003cae 28202978 
00003cb2 6d6f4328 
00003cb6 7465475f 
00003cba 64507854 
00003cbe 666e4975 
00003cc2 50664f6f  12714 	.data.b	111,79,102,80,67,67,111,110,102,105,103,40,41,91,40,73,110,100,101,120,41,93,46,84,120,80,100,117,73,110,105,116,86,97,108,117,101,85,115,101,100,79,102,84,120,80,100,117,73,110,102,111,41,32,33,61,32,70,65,76
00003cc6 6e6f4343 
00003cca 28676966 
00003cce 49285b29 
00003cd2 7865646e 
00003cd6 542e5d29 
00003cda 75645078 
00003cde 74696e49 
00003ce2 756c6156 
00003ce6 65735565 
00003cea 54664f64 
00003cee 75645078 
00003cf2 6f666e49 

                                                                      Page 306
                                                              C:\Users\Fengyuan\AppData\Local\Temp\gh_0000fuk1.s
00003cf6 3d212029 
00003cfa 4c414620 
00003cfe 00294553  12715 	.data.b	83,69,41,0
00003d02 01        12716 	.data.b	1
00003d03 0d8a      12717 	.data.b	138,13
00003d05 5f6d6f43  12718 	.data.b	67,111,109,95,71,101,116,84,120,80,100,117,73,110,105,116,86,97,108,117,101,40,73,110,100,101,120,41,32,40,67,111,109,95,71,101,116,84,120,80,100,117,73,110,105,116,86,97,108,117,101,79,102,80,67,67,111,110,102,105
00003d09 54746547 
00003d0d 75645078 
00003d11 74696e49 
00003d15 756c6156 
00003d19 6e492865 
00003d1d 29786564 
00003d21 6f432820 
00003d25 65475f6d 
00003d29 50785474 
00003d2d 6e497564 
00003d31 61567469 
00003d35 4f65756c 
00003d39 43435066 
00003d3d 69666e6f 
00003d41 5b292867  12719 	.data.b	103,40,41,91,40,73,110,100,101,120,41,93,41,0
00003d45 646e4928 
00003d49 5d297865 
00003d4d 0029 
00003d4f 01        12720 	.data.b	1
00003d50 0d8b      12721 	.data.b	139,13
00003d52 5f6d6f43  12722 	.data.b	67,111,109,95,71,101,116,84,120,80,114,111,99,101,115,115,105,110,103,73,83,82,76,111,99,107,67,111,117,110,116,101,114,40,41,32,40,40,42,40,67,111,109,95,71,101,116,84,120,80,114,111,99,101,115,115,105,110,103,73
00003d56 54746547 
00003d5a 6f725078 
00003d5e 73736563 
00003d62 49676e69 
00003d66 6f4c5253 
00003d6a 6f436b63 
00003d6e 65746e75 
00003d72 20292872 
00003d76 282a2828 
00003d7a 5f6d6f43 
00003d7e 54746547 
00003d82 6f725078 
00003d86 73736563 
00003d8a 49676e69 
00003d8e 6f4c5253  12723 	.data.b	83,82,76,111,99,107,67,111,117,110,116,101,114,79,102,80,67,67,111,110,102,105,103,40,41,41,41,41,0
00003d92 6f436b63 
00003d96 65746e75 
00003d9a 50664f72 
00003d9e 6e6f4343 
00003da2 28676966 
00003da6 29292929 
00003daa 00 
00003dab 01        12724 	.data.b	1
00003dac 0d8c      12725 	.data.b	140,13
00003dae 5f6d6f43  12726 	.data.b	67,111,109,95,71,101,116,84,120,83,100,117,76,101,110,103,116,104,40,73,110,100,101,120,41,32,40,67,111,109,95,71,101,116,84,120,83,100,117,76,101,110,103,116,104,79,102,80,67,67,111,110,102,105,103,40,41,91,40,73
00003db2 54746547 
00003db6 75645378 
00003dba 676e654c 
00003dbe 49286874 
00003dc2 7865646e 
00003dc6 43282029 
00003dca 475f6d6f 
00003dce 78547465 
00003dd2 4c756453 

                                                                      Page 307
                                                              C:\Users\Fengyuan\AppData\Local\Temp\gh_0000fuk1.s
00003dd6 74676e65 
00003dda 50664f68 
00003dde 6e6f4343 
00003de2 28676966 
00003de6 49285b29 
00003dea 7865646e  12727 	.data.b	110,100,101,120,41,93,41,0
00003dee 00295d29 
00003df2 01        12728 	.data.b	1
00003df3 0d8d      12729 	.data.b	141,13
00003df5 5f6d6f43  12730 	.data.b	67,111,109,95,71,101,116,66,105,116,76,101,110,103,116,104,79,102,84,120,83,105,103,73,110,102,111,40,73,110,100,101,120,41,32,40,67,111,109,95,71,101,116,84,120,83,105,103,73,110,102,111,79,102,80,67,67,111,110,102
00003df9 42746547 
00003dfd 654c7469 
00003e01 6874676e 
00003e05 7854664f 
00003e09 49676953 
00003e0d 286f666e 
00003e11 65646e49 
00003e15 28202978 
00003e19 5f6d6f43 
00003e1d 54746547 
00003e21 67695378 
00003e25 6f666e49 
00003e29 4350664f 
00003e2d 666e6f43 
00003e31 29286769  12731 	.data.b	105,103,40,41,91,40,73,110,100,101,120,41,93,46,66,105,116,76,101,110,103,116,104,79,102,84,120,83,105,103,73,110,102,111,41,0
00003e35 6e49285b 
00003e39 29786564 
00003e3d 69422e5d 
00003e41 6e654c74 
00003e45 4f687467 
00003e49 53785466 
00003e4d 6e496769 
00003e51 00296f66 
00003e55 01        12732 	.data.b	1
00003e56 0d8e      12733 	.data.b	142,13
00003e58 5f6d6f43  12734 	.data.b	67,111,109,95,71,101,116,66,105,116,80,111,115,105,116,105,111,110,79,102,84,120,83,105,103,73,110,102,111,40,73,110,100,101,120,41,32,40,67,111,109,95,71,101,116,84,120,83,105,103,73,110,102,111,79,102,80,67,67,111
00003e5c 42746547 
00003e60 6f507469 
00003e64 69746973 
00003e68 664f6e6f 
00003e6c 69537854 
00003e70 666e4967 
00003e74 6e49286f 
00003e78 29786564 
00003e7c 6f432820 
00003e80 65475f6d 
00003e84 53785474 
00003e88 6e496769 
00003e8c 664f6f66 
00003e90 6f434350 
00003e94 6769666e  12735 	.data.b	110,102,105,103,40,41,91,40,73,110,100,101,120,41,93,46,66,105,116,80,111,115,105,116,105,111,110,79,102,84,120,83,105,103,73,110,102,111,41,0
00003e98 285b2928 
00003e9c 65646e49 
00003ea0 2e5d2978 
00003ea4 50746942 
00003ea8 7469736f 
00003eac 4f6e6f69 
00003eb0 53785466 
00003eb4 6e496769 
00003eb8 00296f66 
00003ebc 01        12736 	.data.b	1

                                                                      Page 308
                                                              C:\Users\Fengyuan\AppData\Local\Temp\gh_0000fuk1.s
00003ebd 0d8f      12737 	.data.b	143,13
00003ebf 5f6d6f43  12738 	.data.b	67,111,109,95,71,101,116,66,121,116,101,76,101,110,103,116,104,79,102,84,120,83,105,103,73,110,102,111,40,73,110,100,101,120,41,32,40,67,111,109,95,71,101,116,84,120,83,105,103,73,110,102,111,79,102,80,67,67,111,110
00003ec3 42746547 
00003ec7 4c657479 
00003ecb 74676e65 
00003ecf 54664f68 
00003ed3 67695378 
00003ed7 6f666e49 
00003edb 646e4928 
00003edf 20297865 
00003ee3 6d6f4328 
00003ee7 7465475f 
00003eeb 69537854 
00003eef 666e4967 
00003ef3 50664f6f 
00003ef7 6e6f4343 
00003efb 28676966  12739 	.data.b	102,105,103,40,41,91,40,73,110,100,101,120,41,93,46,66,121,116,101,76,101,110,103,116,104,79,102,84,120,83,105,103,73,110,102,111,41,0
00003eff 49285b29 
00003f03 7865646e 
00003f07 422e5d29 
00003f0b 4c657479 
00003f0f 74676e65 
00003f13 54664f68 
00003f17 67695378 
00003f1b 6f666e49 
00003f1f 0029 
00003f21 01        12740 	.data.b	1
00003f22 0d90      12741 	.data.b	144,13
00003f24 5f6d6f43  12742 	.data.b	67,111,109,95,71,101,116,84,120,66,117,102,102,101,114,76,101,110,103,116,104,79,102,84,120,83,105,103,73,110,102,111,40,73,110,100,101,120,41,32,40,67,111,109,95,71,101,116,84,120,83,105,103,73,110,102,111,79,102,80
00003f28 54746547 
00003f2c 66754278 
00003f30 4c726566 
00003f34 74676e65 
00003f38 54664f68 
00003f3c 67695378 
00003f40 6f666e49 
00003f44 646e4928 
00003f48 20297865 
00003f4c 6d6f4328 
00003f50 7465475f 
00003f54 69537854 
00003f58 666e4967 
00003f5c 50664f6f 
00003f60 6e6f4343  12743 	.data.b	67,67,111,110,102,105,103,40,41,91,40,73,110,100,101,120,41,93,46,84,120,66,117,102,102,101,114,76,101,110,103,116,104,79,102,84,120,83,105,103,73,110,102,111,41,0
00003f64 28676966 
00003f68 49285b29 
00003f6c 7865646e 
00003f70 542e5d29 
00003f74 66754278 
00003f78 4c726566 
00003f7c 74676e65 
00003f80 54664f68 
00003f84 67695378 
00003f88 6f666e49 
00003f8c 0029 
00003f8e 01        12744 	.data.b	1
00003f8f 0d91      12745 	.data.b	145,13
00003f91 5f6d6f43  12746 	.data.b	67,111,109,95,71,101,116,84,120,66,117,102,102,101,114,83,116,97,114,116,73,100,120,79,102,84,120,83,105,103,73,110,102,111,40,73,110,100,101,120,41,32,40,67,111,109,95,71,101,116,84,120,83,105,103,73,110,102,111,79
00003f95 54746547 
00003f99 66754278 
00003f9d 53726566 

                                                                      Page 309
                                                              C:\Users\Fengyuan\AppData\Local\Temp\gh_0000fuk1.s
00003fa1 74726174 
00003fa5 4f786449 
00003fa9 53785466 
00003fad 6e496769 
00003fb1 49286f66 
00003fb5 7865646e 
00003fb9 43282029 
00003fbd 475f6d6f 
00003fc1 78547465 
00003fc5 49676953 
00003fc9 4f6f666e 
00003fcd 43435066  12747 	.data.b	102,80,67,67,111,110,102,105,103,40,41,91,40,73,110,100,101,120,41,93,46,84,120,66,117,102,102,101,114,83,116,97,114,116,73,100,120,79,102,84,120,83,105,103,73,110,102,111,41,0
00003fd1 69666e6f 
00003fd5 5b292867 
00003fd9 646e4928 
00003fdd 5d297865 
00003fe1 4278542e 
00003fe5 65666675 
00003fe9 61745372 
00003fed 64497472 
00003ff1 54664f78 
00003ff5 67695378 
00003ff9 6f666e49 
00003ffd 0029 
00003fff 01        12748 	.data.b	1
00004000 0d9b      12749 	.data.b	155,13
00004002 5f6d6f43  12750 	.data.b	67,111,109,95,71,101,116,82,120,80,100,117,73,110,102,111,73,100,120,79,102,65,99,116,105,118,97,116,97,98,108,101,82,120,67,111,109,73,80,100,117,115,40,73,110,100,101,120,41,32,40,40,67,111,109,95,82,120,80,100
00004006 52746547 
0000400a 75645078 
0000400e 6f666e49 
00004012 4f786449 
00004016 74634166 
0000401a 74617669 
0000401e 656c6261 
00004022 6f437852 
00004026 6450496d 
0000402a 49287375 
0000402e 7865646e 
00004032 28282029 
00004036 5f6d6f43 
0000403a 64507852 
0000403e 666e4975  12751 	.data.b	117,73,110,102,111,73,100,120,79,102,65,99,116,105,118,97,116,97,98,108,101,82,120,67,111,109,73,80,100,117,115,84,121,112,101,41,40,40,73,110,100,101,120,41,41,41,0
00004042 7864496f 
00004046 6341664f 
0000404a 61766974 
0000404e 6c626174 
00004052 43785265 
00004056 50496d6f 
0000405a 54737564 
0000405e 29657079 
00004062 6e492828 
00004066 29786564 
0000406a 002929 
0000406d 01        12752 	.data.b	1
0000406e 0d9c      12753 	.data.b	156,13
00004070 5f6d6f43  12754 	.data.b	67,111,109,95,71,101,116,84,120,80,100,117,73,110,102,111,73,100,120,79,102,65,99,116,105,118,97,116,97,98,108,101,84,120,67,111,109,73,80,100,117,115,40,73,110,100,101,120,41,32,40,40,67,111,109,95,84,120,80,100
00004074 54746547 
00004078 75645078 
0000407c 6f666e49 
00004080 4f786449 
00004084 74634166 

                                                                      Page 310
                                                              C:\Users\Fengyuan\AppData\Local\Temp\gh_0000fuk1.s
00004088 74617669 
0000408c 656c6261 
00004090 6f437854 
00004094 6450496d 
00004098 49287375 
0000409c 7865646e 
000040a0 28282029 
000040a4 5f6d6f43 
000040a8 64507854 
000040ac 666e4975  12755 	.data.b	117,73,110,102,111,73,100,120,79,102,65,99,116,105,118,97,116,97,98,108,101,84,120,67,111,109,73,80,100,117,115,84,121,112,101,41,40,40,73,110,100,101,120,41,41,41,0
000040b0 7864496f 
000040b4 6341664f 
000040b8 61766974 
000040bc 6c626174 
000040c0 43785465 
000040c4 50496d6f 
000040c8 54737564 
000040cc 29657079 
000040d0 6e492828 
000040d4 29786564 
000040d8 002929 
000040db 01        12756 	.data.b	1
000040dc 0d9d      12757 	.data.b	157,13
000040de 5f6d6f43  12758 	.data.b	67,111,109,95,71,101,116,67,111,110,102,105,103,73,100,40,41,32,67,111,109,95,71,101,116,67,111,110,102,105,103,73,100,79,102,80,67,67,111,110,102,105,103,40,41,0
000040e2 43746547 
000040e6 69666e6f 
000040ea 28644967 
000040ee 6f432029 
000040f2 65475f6d 
000040f6 6e6f4374 
000040fa 49676966 
000040fe 50664f64 
00004102 6e6f4343 
00004106 28676966 
0000410a 0029 
0000410c 01        12759 	.data.b	1
0000410d 0d9f      12760 	.data.b	159,13
0000410f 5f6d6f43  12761 	.data.b	67,111,109,95,71,101,116,80,100,117,71,114,112,86,101,99,116,111,114,40,73,110,100,101,120,41,32,40,40,67,111,109,95,80,100,117,71,114,112,86,101,99,116,111,114,84,121,112,101,41,40,40,40,40,67,111,109,95,80,100
00004113 50746547 
00004117 72477564 
0000411b 63655670 
0000411f 28726f74 
00004123 65646e49 
00004127 28202978 
0000412b 6d6f4328 
0000412f 7564505f 
00004133 56707247 
00004137 6f746365 
0000413b 70795472 
0000413f 28282965 
00004143 6f432828 
00004147 64505f6d 
0000414b 70724775  12762 	.data.b	117,71,114,112,86,101,99,116,111,114,84,121,112,101,41,40,73,110,100,101,120,41,41,32,43,32,48,120,48,49,117,41,41,41,0
0000414f 74636556 
00004153 7954726f 
00004157 28296570 
0000415b 65646e49 
0000415f 20292978 
00004163 7830202b 
00004167 29753130 
0000416b 002929 

                                                                      Page 311
                                                              C:\Users\Fengyuan\AppData\Local\Temp\gh_0000fuk1.s
0000416e 01        12763 	.data.b	1
0000416f 0da0      12764 	.data.b	160,13
00004171 5f6d6f43  12765 	.data.b	67,111,109,95,71,101,116,65,112,112,108,84,121,112,101,79,102,82,120,65,99,99,101,115,115,73,110,102,111,40,73,110,100,101,120,41,32,67,111,109,95,71,101,116,66,117,115,65,99,99,79,102,82,120,65,99,99,101,115,115
00004175 41746547 
00004179 546c7070 
0000417d 4f657079 
00004181 41785266 
00004185 73656363 
00004189 666e4973 
0000418d 6e49286f 
00004191 29786564 
00004195 6d6f4320 
00004199 7465475f 
0000419d 41737542 
000041a1 664f6363 
000041a5 63417852 
000041a9 73736563 
000041ad 6f666e49  12766 	.data.b	73,110,102,111,40,73,110,100,101,120,41,0
000041b1 646e4928 
000041b5 00297865 
000041b9 01        12767 	.data.b	1
000041ba 0da1      12768 	.data.b	161,13
000041bc 5f6d6f43  12769 	.data.b	67,111,109,95,71,101,116,66,105,116,76,101,110,103,116,104,79,102,82,120,65,99,99,101,115,115,73,110,102,111,40,73,110,100,101,120,41,32,40,40,67,111,109,95,66,105,116,76,101,110,103,116,104,79,102,82,120,65,99,99
000041c0 42746547 
000041c4 654c7469 
000041c8 6874676e 
000041cc 7852664f 
000041d0 65636341 
000041d4 6e497373 
000041d8 49286f66 
000041dc 7865646e 
000041e0 28282029 
000041e4 5f6d6f43 
000041e8 4c746942 
000041ec 74676e65 
000041f0 52664f68 
000041f4 63634178 
000041f8 49737365  12770 	.data.b	101,115,115,73,110,102,111,84,121,112,101,41,40,40,67,111,109,95,71,101,116,66,117,115,65,99,99,79,102,82,120,65,99,99,101,115,115,73,110,102,111,40,73,110,100,101,120,41,32,43,32,48,120,48,49,117,41,41,41,0
000041fc 546f666e 
00004200 29657079 
00004204 6f432828 
00004208 65475f6d 
0000420c 73754274 
00004210 4f636341 
00004214 41785266 
00004218 73656363 
0000421c 666e4973 
00004220 6e49286f 
00004224 29786564 
00004228 30202b20 
0000422c 75313078 
00004230 00292929 
00004234 01        12771 	.data.b	1
00004235 0da2      12772 	.data.b	162,13
00004237 5f6d6f43  12773 	.data.b	67,111,109,95,71,101,116,66,117,102,102,101,114,73,100,120,79,102,82,120,65,99,99,101,115,115,73,110,102,111,40,73,110,100,101,120,41,32,40,40,67,111,109,95,66,117,102,102,101,114,73,100,120,79,102,82,120,65,99,99
0000423b 42746547 
0000423f 65666675 
00004243 78644972 
00004247 7852664f 
0000424b 65636341 
0000424f 6e497373 

                                                                      Page 312
                                                              C:\Users\Fengyuan\AppData\Local\Temp\gh_0000fuk1.s
00004253 49286f66 
00004257 7865646e 
0000425b 28282029 
0000425f 5f6d6f43 
00004263 66667542 
00004267 64497265 
0000426b 52664f78 
0000426f 63634178 
00004273 49737365  12774 	.data.b	101,115,115,73,110,102,111,84,121,112,101,41,40,40,73,110,100,101,120,41,41,41,0
00004277 546f666e 
0000427b 29657079 
0000427f 6e492828 
00004283 29786564 
00004287 002929 
0000428a 01        12775 	.data.b	1
0000428b 0da3      12776 	.data.b	163,13
0000428d 5f6d6f43  12777 	.data.b	67,111,109,95,73,115,66,117,102,102,101,114,85,115,101,100,79,102,82,120,65,99,99,101,115,115,73,110,102,111,40,73,110,100,101,120,41,32,67,111,109,95,73,115,73,110,105,116,86,97,108,117,101,85,115,101,100,79,102,82
00004291 75427349 
00004295 72656666 
00004299 64657355 
0000429d 7852664f 
000042a1 65636341 
000042a5 6e497373 
000042a9 49286f66 
000042ad 7865646e 
000042b1 6f432029 
000042b5 73495f6d 
000042b9 74696e49 
000042bd 756c6156 
000042c1 65735565 
000042c5 52664f64 
000042c9 63634178  12778 	.data.b	120,65,99,99,101,115,115,73,110,102,111,40,73,110,100,101,120,41,0
000042cd 49737365 
000042d1 286f666e 
000042d5 65646e49 
000042d9 002978 
000042dc 01        12779 	.data.b	1
000042dd 0da5      12780 	.data.b	165,13
000042df 5f6d6f43  12781 	.data.b	67,111,109,95,71,101,116,66,121,116,101,80,111,115,105,116,105,111,110,79,102,82,120,65,99,99,101,115,115,73,110,102,111,40,73,110,100,101,120,41,32,67,111,109,95,71,101,116,66,117,115,65,99,99,79,102,82,120,65,99
000042e3 42746547 
000042e7 50657479 
000042eb 7469736f 
000042ef 4f6e6f69 
000042f3 41785266 
000042f7 73656363 
000042fb 666e4973 
000042ff 6e49286f 
00004303 29786564 
00004307 6d6f4320 
0000430b 7465475f 
0000430f 41737542 
00004313 664f6363 
00004317 63417852 
0000431b 73736563  12782 	.data.b	99,101,115,115,73,110,102,111,40,73,110,100,101,120,41,0
0000431f 6f666e49 
00004323 646e4928 
00004327 00297865 
0000432b 01        12783 	.data.b	1
0000432c 0da6      12784 	.data.b	166,13
0000432e 5f6d6f43  12785 	.data.b	67,111,109,95,71,101,116,73,110,105,116,86,97,108,117,101,73,100,120,79,102,82,120,65,99,99,101,115,115,73,110,102,111,40,73,110,100,101,120,41,32,67,111,109,95,71,101,116,66,117,115,65,99,99,79,102,82,120,65,99
00004332 49746547 

                                                                      Page 313
                                                              C:\Users\Fengyuan\AppData\Local\Temp\gh_0000fuk1.s
00004336 5674696e 
0000433a 65756c61 
0000433e 4f786449 
00004342 41785266 
00004346 73656363 
0000434a 666e4973 
0000434e 6e49286f 
00004352 29786564 
00004356 6d6f4320 
0000435a 7465475f 
0000435e 41737542 
00004362 664f6363 
00004366 63417852 
0000436a 73736563  12786 	.data.b	99,101,115,115,73,110,102,111,40,73,110,100,101,120,41,0
0000436e 6f666e49 
00004372 646e4928 
00004376 00297865 
0000437a 01        12787 	.data.b	1
0000437b 0da7      12788 	.data.b	167,13
0000437d 5f6d6f43  12789 	.data.b	67,111,109,95,71,101,116,82,120,80,100,117,73,110,102,111,73,100,120,79,102,82,120,65,99,99,101,115,115,73,110,102,111,40,73,110,100,101,120,41,32,67,111,109,95,71,101,116,66,117,115,65,99,99,79,102,82,120,65,99
00004381 52746547 
00004385 75645078 
00004389 6f666e49 
0000438d 4f786449 
00004391 41785266 
00004395 73656363 
00004399 666e4973 
0000439d 6e49286f 
000043a1 29786564 
000043a5 6d6f4320 
000043a9 7465475f 
000043ad 41737542 
000043b1 664f6363 
000043b5 63417852 
000043b9 73736563  12790 	.data.b	99,101,115,115,73,110,102,111,40,73,110,100,101,120,41,0
000043bd 6f666e49 
000043c1 646e4928 
000043c5 00297865 
000043c9 01        12791 	.data.b	1
000043ca 0da9      12792 	.data.b	169,13
000043cc 5f6d6f43  12793 	.data.b	67,111,109,95,71,101,116,82,120,65,99,99,101,115,115,73,110,102,111,73,110,100,40,73,110,100,101,120,41,32,40,40,67,111,109,95,82,120,65,99,99,101,115,115,73,110,102,111,73,110,100,84,121,112,101,41,40,40,73,110
000043d0 52746547 
000043d4 63634178 
000043d8 49737365 
000043dc 496f666e 
000043e0 4928646e 
000043e4 7865646e 
000043e8 28282029 
000043ec 5f6d6f43 
000043f0 63417852 
000043f4 73736563 
000043f8 6f666e49 
000043fc 54646e49 
00004400 29657079 
00004404 6e492828 
00004408 29786564  12794 	.data.b	100,101,120,41,41,41,0
0000440c 002929 
0000440f 01        12795 	.data.b	1
00004410 0daa      12796 	.data.b	170,13
00004412 5f6d6f43  12797 	.data.b	67,111,109,95,71,101,116,82,120,68,101,102,101,114,114,101,100,80,114,111,99,101,115,115,105,110,103,73,83,82,76,111,99,107,84,104,114,101,115,104,111,108,100,40,41,32,67,111,109,95,71,101,116,82,120,68,101,102,101,114
00004416 52746547 

                                                                      Page 314
                                                              C:\Users\Fengyuan\AppData\Local\Temp\gh_0000fuk1.s
0000441a 66654478 
0000441e 65727265 
00004422 6f725064 
00004426 73736563 
0000442a 49676e69 
0000442e 6f4c5253 
00004432 68546b63 
00004436 68736572 
0000443a 28646c6f 
0000443e 6f432029 
00004442 65475f6d 
00004446 44785274 
0000444a 72656665 
0000444e 50646572  12798 	.data.b	114,101,100,80,114,111,99,101,115,115,105,110,103,73,83,82,76,111,99,107,84,104,114,101,115,104,111,108,100,79,102,80,67,67,111,110,102,105,103,40,41,0
00004452 65636f72 
00004456 6e697373 
0000445a 52534967 
0000445e 6b636f4c 
00004462 65726854 
00004466 6c6f6873 
0000446a 50664f64 
0000446e 6e6f4343 
00004472 28676966 
00004476 0029 
00004478 01        12799 	.data.b	1
00004479 0dab      12800 	.data.b	171,13
0000447b 5f6d6f43  12801 	.data.b	67,111,109,95,71,101,116,82,120,73,80,100,117,71,114,111,117,112,73,83,82,76,111,99,107,84,104,114,101,115,104,111,108,100,40,41,32,67,111,109,95,71,101,116,82,120,73,80,100,117,71,114,111,117,112,73,83,82,76,111
0000447f 52746547 
00004483 64504978 
00004487 6f724775 
0000448b 53497075 
0000448f 636f4c52 
00004493 7268546b 
00004497 6f687365 
0000449b 2928646c 
0000449f 6d6f4320 
000044a3 7465475f 
000044a7 50497852 
000044ab 72477564 
000044af 4970756f 
000044b3 6f4c5253 
000044b7 68546b63  12802 	.data.b	99,107,84,104,114,101,115,104,111,108,100,79,102,80,67,67,111,110,102,105,103,40,41,0
000044bb 68736572 
000044bf 4f646c6f 
000044c3 43435066 
000044c7 69666e6f 
000044cb 00292867 
000044cf 01        12803 	.data.b	1
000044d0 0dac      12804 	.data.b	172,13
000044d2 5f6d6f43  12805 	.data.b	67,111,109,95,71,101,116,80,100,117,71,114,112,86,101,99,116,111,114,69,110,100,73,100,120,79,102,82,120,80,100,117,71,114,112,73,110,102,111,40,73,110,100,101,120,41,32,40,40,67,111,109,95,80,100,117,71,114,112,86
000044d6 50746547 
000044da 72477564 
000044de 63655670 
000044e2 45726f74 
000044e6 6449646e 
000044ea 52664f78 
000044ee 75645078 
000044f2 49707247 
000044f6 286f666e 
000044fa 65646e49 
000044fe 28202978 

                                                                      Page 315
                                                              C:\Users\Fengyuan\AppData\Local\Temp\gh_0000fuk1.s
00004502 6d6f4328 
00004506 7564505f 
0000450a 56707247 
0000450e 6f746365  12806 	.data.b	101,99,116,111,114,69,110,100,73,100,120,79,102,82,120,80,100,117,71,114,112,73,110,102,111,84,121,112,101,41,40,40,40,40,67,111,109,95,80,100,117,71,114,112,86,101,99,116,111,114,69,110,100,73,100,120,79,102,82,120
00004512 646e4572 
00004516 4f786449 
0000451a 50785266 
0000451e 72477564 
00004522 666e4970 
00004526 7079546f 
0000452a 28282965 
0000452e 6f432828 
00004532 64505f6d 
00004536 70724775 
0000453a 74636556 
0000453e 6e45726f 
00004542 78644964 
00004546 7852664f 
0000454a 47756450  12807 	.data.b	80,100,117,71,114,112,73,110,102,111,84,121,112,101,41,40,73,110,100,101,120,41,41,32,43,32,49,117,41,41,41,0
0000454e 6e497072 
00004552 79546f66 
00004556 28296570 
0000455a 65646e49 
0000455e 20292978 
00004562 7531202b 
00004566 00292929 
0000456a 01        12808 	.data.b	1
0000456b 0dad      12809 	.data.b	173,13
0000456d 5f6d6f43  12810 	.data.b	67,111,109,95,71,101,116,80,100,117,71,114,112,86,101,99,116,111,114,83,116,97,114,116,73,100,120,79,102,82,120,80,100,117,71,114,112,73,110,102,111,40,73,110,100,101,120,41,32,40,40,67,111,109,95,80,100,117,71,114
00004571 50746547 
00004575 72477564 
00004579 63655670 
0000457d 53726f74 
00004581 74726174 
00004585 4f786449 
00004589 50785266 
0000458d 72477564 
00004591 666e4970 
00004595 6e49286f 
00004599 29786564 
0000459d 43282820 
000045a1 505f6d6f 
000045a5 72477564 
000045a9 63655670  12811 	.data.b	112,86,101,99,116,111,114,83,116,97,114,116,73,100,120,79,102,82,120,80,100,117,71,114,112,73,110,102,111,84,121,112,101,41,40,40,73,110,100,101,120,41,41,41,0
000045ad 53726f74 
000045b1 74726174 
000045b5 4f786449 
000045b9 50785266 
000045bd 72477564 
000045c1 666e4970 
000045c5 7079546f 
000045c9 28282965 
000045cd 65646e49 
000045d1 29292978 
000045d5 00 
000045d6 01        12812 	.data.b	1
000045d7 0daf      12813 	.data.b	175,13
000045d9 5f6d6f43  12814 	.data.b	67,111,109,95,71,101,116,72,97,110,100,108,101,82,120,80,100,117,68,101,102,101,114,114,101,100,73,100,120,79,102,82,120,80,100,117,73,110,102,111,40,73,110,100,101,120,41,32,40,40,67,111,109,95,72,97,110,100,108,101
000045dd 48746547 
000045e1 6c646e61 
000045e5 50785265 

                                                                      Page 316
                                                              C:\Users\Fengyuan\AppData\Local\Temp\gh_0000fuk1.s
000045e9 65447564 
000045ed 72726566 
000045f1 64496465 
000045f5 52664f78 
000045f9 75645078 
000045fd 6f666e49 
00004601 646e4928 
00004605 20297865 
00004609 6f432828 
0000460d 61485f6d 
00004611 656c646e 
00004615 64507852  12815 	.data.b	82,120,80,100,117,68,101,102,101,114,114,101,100,73,100,120,79,102,82,120,80,100,117,73,110,102,111,84,121,112,101,41,40,40,73,110,100,101,120,41,41,41,0
00004619 66654475 
0000461d 65727265 
00004621 78644964 
00004625 7852664f 
00004629 49756450 
0000462d 546f666e 
00004631 29657079 
00004635 6e492828 
00004639 29786564 
0000463d 002929 
00004640 01        12816 	.data.b	1
00004641 0db0      12817 	.data.b	176,13
00004643 5f6d6f43  12818 	.data.b	67,111,109,95,73,115,72,97,110,100,108,101,82,120,80,100,117,68,101,102,101,114,114,101,100,85,115,101,100,79,102,82,120,80,100,117,73,110,102,111,40,73,110,100,101,120,41,32,67,111,109,95,73,115,82,120,65,99,99,101
00004647 61487349 
0000464b 656c646e 
0000464f 64507852 
00004653 66654475 
00004657 65727265 
0000465b 65735564 
0000465f 52664f64 
00004663 75645078 
00004667 6f666e49 
0000466b 646e4928 
0000466f 20297865 
00004673 5f6d6f43 
00004677 78527349 
0000467b 65636341 
0000467f 6e497373  12819 	.data.b	115,115,73,110,102,111,73,110,100,85,115,101,100,79,102,82,120,80,100,117,73,110,102,111,40,73,110,100,101,120,41,0
00004683 6e496f66 
00004687 65735564 
0000468b 52664f64 
0000468f 75645078 
00004693 6f666e49 
00004697 646e4928 
0000469b 00297865 
0000469f 01        12820 	.data.b	1
000046a0 0db1      12821 	.data.b	177,13
000046a2 5f6d6f43  12822 	.data.b	67,111,109,95,71,101,116,82,120,65,99,99,101,115,115,73,110,102,111,73,110,100,69,110,100,73,100,120,79,102,82,120,80,100,117,73,110,102,111,40,73,110,100,101,120,41,32,40,40,67,111,109,95,82,120,65,99,99,101,115
000046a6 52746547 
000046aa 63634178 
000046ae 49737365 
000046b2 496f666e 
000046b6 6e45646e 
000046ba 78644964 
000046be 7852664f 
000046c2 49756450 
000046c6 286f666e 
000046ca 65646e49 
000046ce 28202978 

                                                                      Page 317
                                                              C:\Users\Fengyuan\AppData\Local\Temp\gh_0000fuk1.s
000046d2 6d6f4328 
000046d6 4178525f 
000046da 73656363 
000046de 666e4973  12823 	.data.b	115,73,110,102,111,73,110,100,69,110,100,73,100,120,79,102,82,120,80,100,117,73,110,102,111,84,121,112,101,41,40,40,40,40,67,111,109,95,82,120,65,99,99,101,115,115,73,110,102,111,73,110,100,69,110,100,73,100,120,79
000046e2 646e496f 
000046e6 49646e45 
000046ea 664f7864 
000046ee 64507852 
000046f2 666e4975 
000046f6 7079546f 
000046fa 28282965 
000046fe 6f432828 
00004702 78525f6d 
00004706 65636341 
0000470a 6e497373 
0000470e 6e496f66 
00004712 646e4564 
00004716 4f786449 
0000471a 50785266  12824 	.data.b	102,82,120,80,100,117,73,110,102,111,84,121,112,101,41,40,73,110,100,101,120,41,41,32,43,32,51,117,41,41,41,0
0000471e 6e497564 
00004722 79546f66 
00004726 28296570 
0000472a 65646e49 
0000472e 20292978 
00004732 7533202b 
00004736 00292929 
0000473a 01        12825 	.data.b	1
0000473b 0db2      12826 	.data.b	178,13
0000473d 5f6d6f43  12827 	.data.b	67,111,109,95,71,101,116,82,120,65,99,99,101,115,115,73,110,102,111,73,110,100,83,116,97,114,116,73,100,120,79,102,82,120,80,100,117,73,110,102,111,40,73,110,100,101,120,41,32,40,40,67,111,109,95,82,120,65,99,99
00004741 52746547 
00004745 63634178 
00004749 49737365 
0000474d 496f666e 
00004751 7453646e 
00004755 49747261 
00004759 664f7864 
0000475d 64507852 
00004761 666e4975 
00004765 6e49286f 
00004769 29786564 
0000476d 43282820 
00004771 525f6d6f 
00004775 63634178 
00004779 49737365  12828 	.data.b	101,115,115,73,110,102,111,73,110,100,83,116,97,114,116,73,100,120,79,102,82,120,80,100,117,73,110,102,111,84,121,112,101,41,40,40,73,110,100,101,120,41,41,41,0
0000477d 496f666e 
00004781 7453646e 
00004785 49747261 
00004789 664f7864 
0000478d 64507852 
00004791 666e4975 
00004795 7079546f 
00004799 28282965 
0000479d 65646e49 
000047a1 29292978 
000047a5 00 
000047a6 01        12829 	.data.b	1
000047a7 0db4      12830 	.data.b	180,13
000047a9 5f6d6f43  12831 	.data.b	67,111,109,95,71,101,116,82,120,68,101,102,80,100,117,66,117,102,102,101,114,76,101,110,103,116,104,79,102,82,120,80,100,117,73,110,102,111,40,73,110,100,101,120,41,32,40,40,67,111,109,95,82,120,68,101,102,80,100,117
000047ad 52746547 
000047b1 66654478 
000047b5 42756450 

                                                                      Page 318
                                                              C:\Users\Fengyuan\AppData\Local\Temp\gh_0000fuk1.s
000047b9 65666675 
000047bd 6e654c72 
000047c1 4f687467 
000047c5 50785266 
000047c9 6e497564 
000047cd 49286f66 
000047d1 7865646e 
000047d5 28282029 
000047d9 5f6d6f43 
000047dd 65447852 
000047e1 75645066 
000047e5 66667542  12832 	.data.b	66,117,102,102,101,114,76,101,110,103,116,104,79,102,82,120,80,100,117,73,110,102,111,84,121,112,101,41,40,40,40,40,67,111,109,95,82,120,68,101,102,80,100,117,66,117,102,102,101,114,76,101,110,103,116,104,79,102,82,120
000047e9 654c7265 
000047ed 6874676e 
000047f1 7852664f 
000047f5 49756450 
000047f9 546f666e 
000047fd 29657079 
00004801 28282828 
00004805 5f6d6f43 
00004809 65447852 
0000480d 75645066 
00004811 66667542 
00004815 654c7265 
00004819 6874676e 
0000481d 7852664f 
00004821 49756450  12833 	.data.b	80,100,117,73,110,102,111,84,121,112,101,41,40,73,110,100,101,120,41,41,32,43,32,49,117,41,41,41,0
00004825 546f666e 
00004829 29657079 
0000482d 646e4928 
00004831 29297865 
00004835 31202b20 
00004839 29292975 
0000483d 00 
0000483e 01        12834 	.data.b	1
0000483f 0db5      12835 	.data.b	181,13
00004841 5f6d6f43  12836 	.data.b	67,111,109,95,71,101,116,82,120,68,101,102,80,100,117,66,117,102,102,101,114,83,116,97,114,116,73,100,120,79,102,82,120,80,100,117,73,110,102,111,40,73,110,100,101,120,41,32,40,40,67,111,109,95,82,120,68,101,102,80
00004845 52746547 
00004849 66654478 
0000484d 42756450 
00004851 65666675 
00004855 61745372 
00004859 64497472 
0000485d 52664f78 
00004861 75645078 
00004865 6f666e49 
00004869 646e4928 
0000486d 20297865 
00004871 6f432828 
00004875 78525f6d 
00004879 50666544 
0000487d 75427564  12837 	.data.b	100,117,66,117,102,102,101,114,83,116,97,114,116,73,100,120,79,102,82,120,80,100,117,73,110,102,111,84,121,112,101,41,40,40,73,110,100,101,120,41,41,41,0
00004881 72656666 
00004885 72617453 
00004889 78644974 
0000488d 7852664f 
00004891 49756450 
00004895 546f666e 
00004899 29657079 
0000489d 6e492828 
000048a1 29786564 

                                                                      Page 319
                                                              C:\Users\Fengyuan\AppData\Local\Temp\gh_0000fuk1.s
000048a5 002929 
000048a8 01        12838 	.data.b	1
000048a9 0db6      12839 	.data.b	182,13
000048ab 5f6d6f43  12840 	.data.b	67,111,109,95,73,115,82,120,68,101,102,80,100,117,66,117,102,102,101,114,85,115,101,100,79,102,82,120,80,100,117,73,110,102,111,40,73,110,100,101,120,41,32,67,111,109,95,73,115,82,120,65,99,99,101,115,115,73,110,102
000048af 78527349 
000048b3 50666544 
000048b7 75427564 
000048bb 72656666 
000048bf 64657355 
000048c3 7852664f 
000048c7 49756450 
000048cb 286f666e 
000048cf 65646e49 
000048d3 43202978 
000048d7 495f6d6f 
000048db 41785273 
000048df 73656363 
000048e3 666e4973 
000048e7 646e496f  12841 	.data.b	111,73,110,100,85,115,101,100,79,102,82,120,80,100,117,73,110,102,111,40,73,110,100,101,120,41,0
000048eb 64657355 
000048ef 7852664f 
000048f3 49756450 
000048f7 286f666e 
000048fb 65646e49 
000048ff 002978 
00004902 01        12842 	.data.b	1
00004903 0db7      12843 	.data.b	183,13
00004905 5f6d6f43  12844 	.data.b	67,111,109,95,71,101,116,82,120,83,105,103,73,110,102,111,69,110,100,73,100,120,79,102,82,120,80,100,117,73,110,102,111,40,73,110,100,101,120,41,32,40,40,67,111,109,95,82,120,83,105,103,73,110,102,111,69,110,100,73
00004909 52746547 
0000490d 67695378 
00004911 6f666e49 
00004915 49646e45 
00004919 664f7864 
0000491d 64507852 
00004921 666e4975 
00004925 6e49286f 
00004929 29786564 
0000492d 43282820 
00004931 525f6d6f 
00004935 67695378 
00004939 6f666e49 
0000493d 49646e45 
00004941 664f7864  12845 	.data.b	100,120,79,102,82,120,80,100,117,73,110,102,111,84,121,112,101,41,40,40,40,40,67,111,109,95,82,120,83,105,103,73,110,102,111,69,110,100,73,100,120,79,102,82,120,80,100,117,73,110,102,111,84,121,112,101,41,40,73,110
00004945 64507852 
00004949 666e4975 
0000494d 7079546f 
00004951 28282965 
00004955 6f432828 
00004959 78525f6d 
0000495d 49676953 
00004961 456f666e 
00004965 6449646e 
00004969 52664f78 
0000496d 75645078 
00004971 6f666e49 
00004975 65707954 
00004979 6e492829 
0000497d 29786564  12846 	.data.b	100,101,120,41,41,32,43,32,51,117,41,41,41,0
00004981 202b2029 
00004985 29297533 
00004989 0029 

                                                                      Page 320
                                                              C:\Users\Fengyuan\AppData\Local\Temp\gh_0000fuk1.s
0000498b 01        12847 	.data.b	1
0000498c 0db8      12848 	.data.b	184,13
0000498e 5f6d6f43  12849 	.data.b	67,111,109,95,71,101,116,82,120,83,105,103,73,110,102,111,83,116,97,114,116,73,100,120,79,102,82,120,80,100,117,73,110,102,111,40,73,110,100,101,120,41,32,40,40,67,111,109,95,82,120,83,105,103,73,110,102,111,83,116
00004992 52746547 
00004996 67695378 
0000499a 6f666e49 
0000499e 72617453 
000049a2 78644974 
000049a6 7852664f 
000049aa 49756450 
000049ae 286f666e 
000049b2 65646e49 
000049b6 28202978 
000049ba 6d6f4328 
000049be 5378525f 
000049c2 6e496769 
000049c6 74536f66 
000049ca 49747261  12850 	.data.b	97,114,116,73,100,120,79,102,82,120,80,100,117,73,110,102,111,84,121,112,101,41,40,40,73,110,100,101,120,41,41,41,0
000049ce 664f7864 
000049d2 64507852 
000049d6 666e4975 
000049da 7079546f 
000049de 28282965 
000049e2 65646e49 
000049e6 29292978 
000049ea 00 
000049eb 01        12851 	.data.b	1
000049ec 0dbb      12852 	.data.b	187,13
000049ee 5f6d6f43  12853 	.data.b	67,111,109,95,71,101,116,84,121,112,101,79,102,82,120,80,100,117,73,110,102,111,40,73,110,100,101,120,41,32,40,40,67,111,109,95,84,121,112,101,79,102,82,120,80,100,117,73,110,102,111,84,121,112,101,41,40,40,73,110
000049f2 54746547 
000049f6 4f657079 
000049fa 50785266 
000049fe 6e497564 
00004a02 49286f66 
00004a06 7865646e 
00004a0a 28282029 
00004a0e 5f6d6f43 
00004a12 65707954 
00004a16 7852664f 
00004a1a 49756450 
00004a1e 546f666e 
00004a22 29657079 
00004a26 6e492828 
00004a2a 29786564  12854 	.data.b	100,101,120,41,41,41,0
00004a2e 002929 
00004a31 01        12855 	.data.b	1
00004a32 0dbc      12856 	.data.b	188,13
00004a34 5f6d6f43  12857 	.data.b	67,111,109,95,71,101,116,82,120,65,99,99,101,115,115,73,110,102,111,73,100,120,79,102,82,120,83,105,103,73,110,102,111,40,73,110,100,101,120,41,32,40,40,67,111,109,95,82,120,65,99,99,101,115,115,73,110,102,111,73
00004a38 52746547 
00004a3c 63634178 
00004a40 49737365 
00004a44 496f666e 
00004a48 664f7864 
00004a4c 69537852 
00004a50 666e4967 
00004a54 6e49286f 
00004a58 29786564 
00004a5c 43282820 
00004a60 525f6d6f 
00004a64 63634178 
00004a68 49737365 

                                                                      Page 321
                                                              C:\Users\Fengyuan\AppData\Local\Temp\gh_0000fuk1.s
00004a6c 496f666e 
00004a70 664f7864  12858 	.data.b	100,120,79,102,82,120,83,105,103,73,110,102,111,84,121,112,101,41,40,40,73,110,100,101,120,41,41,41,0
00004a74 69537852 
00004a78 666e4967 
00004a7c 7079546f 
00004a80 28282965 
00004a84 65646e49 
00004a88 29292978 
00004a8c 00 
00004a8d 01        12859 	.data.b	1
00004a8e 0dbe      12860 	.data.b	190,13
00004a90 5f6d6f43  12861 	.data.b	67,111,109,95,71,101,116,83,105,122,101,79,102,65,99,116,105,118,97,116,97,98,108,101,82,120,67,111,109,73,80,100,117,115,40,41,32,67,111,109,95,71,101,116,83,105,122,101,79,102,65,99,116,105,118,97,116,97,98,108
00004a94 53746547 
00004a98 4f657a69 
00004a9c 74634166 
00004aa0 74617669 
00004aa4 656c6261 
00004aa8 6f437852 
00004aac 6450496d 
00004ab0 29287375 
00004ab4 6d6f4320 
00004ab8 7465475f 
00004abc 657a6953 
00004ac0 6341664f 
00004ac4 61766974 
00004ac8 6c626174 
00004acc 43785265  12862 	.data.b	101,82,120,67,111,109,73,80,100,117,115,79,102,80,67,67,111,110,102,105,103,40,41,0
00004ad0 50496d6f 
00004ad4 4f737564 
00004ad8 43435066 
00004adc 69666e6f 
00004ae0 00292867 
00004ae4 01        12863 	.data.b	1
00004ae5 0dbf      12864 	.data.b	191,13
00004ae7 5f6d6f43  12865 	.data.b	67,111,109,95,71,101,116,83,105,122,101,79,102,65,99,116,105,118,97,116,97,98,108,101,84,120,67,111,109,73,80,100,117,115,40,41,32,67,111,109,95,71,101,116,83,105,122,101,79,102,65,99,116,105,118,97,116,97,98,108
00004aeb 53746547 
00004aef 4f657a69 
00004af3 74634166 
00004af7 74617669 
00004afb 656c6261 
00004aff 6f437854 
00004b03 6450496d 
00004b07 29287375 
00004b0b 6d6f4320 
00004b0f 7465475f 
00004b13 657a6953 
00004b17 6341664f 
00004b1b 61766974 
00004b1f 6c626174 
00004b23 43785465  12866 	.data.b	101,84,120,67,111,109,73,80,100,117,115,79,102,80,67,67,111,110,102,105,103,40,41,0
00004b27 50496d6f 
00004b2b 4f737564 
00004b2f 43435066 
00004b33 69666e6f 
00004b37 00292867 
00004b3b 01        12867 	.data.b	1
00004b3c 0dc9      12868 	.data.b	201,13
00004b3e 5f6d6f43  12869 	.data.b	67,111,109,95,71,101,116,83,105,122,101,79,102,82,120,65,99,99,101,115,115,73,110,102,111,40,41,32,67,111,109,95,71,101,116,83,105,122,101,79,102,82,120,65,99,99,101,115,115,73,110,102,111,79,102,80,67,67,111,110
00004b42 53746547 
00004b46 4f657a69 
00004b4a 41785266 

                                                                      Page 322
                                                              C:\Users\Fengyuan\AppData\Local\Temp\gh_0000fuk1.s
00004b4e 73656363 
00004b52 666e4973 
00004b56 2029286f 
00004b5a 5f6d6f43 
00004b5e 53746547 
00004b62 4f657a69 
00004b66 41785266 
00004b6a 73656363 
00004b6e 666e4973 
00004b72 50664f6f 
00004b76 6e6f4343 
00004b7a 28676966  12870 	.data.b	102,105,103,40,41,0
00004b7e 0029 
00004b80 01        12871 	.data.b	1
00004b81 0dce      12872 	.data.b	206,13
00004b83 5f6d6f43  12873 	.data.b	67,111,109,95,71,101,116,83,105,122,101,79,102,82,120,80,100,117,73,110,102,111,40,41,32,67,111,109,95,71,101,116,83,105,122,101,79,102,82,120,80,100,117,73,110,102,111,79,102,80,67,67,111,110,102,105,103,40,41,0
00004b87 53746547 
00004b8b 4f657a69 
00004b8f 50785266 
00004b93 6e497564 
00004b97 29286f66 
00004b9b 6d6f4320 
00004b9f 7465475f 
00004ba3 657a6953 
00004ba7 7852664f 
00004bab 49756450 
00004baf 4f6f666e 
00004bb3 43435066 
00004bb7 69666e6f 
00004bbb 00292867 
00004bbf 01        12874 	.data.b	1
00004bc0 0dd4      12875 	.data.b	212,13
00004bc2 5f6d6f43  12876 	.data.b	67,111,109,95,71,101,116,83,105,122,101,79,102,84,120,77,111,100,101,73,110,102,111,40,41,32,67,111,109,95,71,101,116,83,105,122,101,79,102,84,120,77,111,100,101,73,110,102,111,79,102,80,67,67,111,110,102,105,103,40
00004bc6 53746547 
00004bca 4f657a69 
00004bce 4d785466 
00004bd2 4965646f 
00004bd6 286f666e 
00004bda 6f432029 
00004bde 65475f6d 
00004be2 7a695374 
00004be6 54664f65 
00004bea 646f4d78 
00004bee 666e4965 
00004bf2 50664f6f 
00004bf6 6e6f4343 
00004bfa 28676966 
00004bfe 0029      12877 	.data.b	41,0
00004c00 01        12878 	.data.b	1
00004c01 0dd8      12879 	.data.b	216,13
00004c03 5f6d6f43  12880 	.data.b	67,111,109,95,71,101,116,83,105,122,101,79,102,84,120,80,100,117,73,110,102,111,40,41,32,67,111,109,95,71,101,116,83,105,122,101,79,102,84,120,80,100,117,73,110,102,111,79,102,80,67,67,111,110,102,105,103,40,41,0
00004c07 53746547 
00004c0b 4f657a69 
00004c0f 50785466 
00004c13 6e497564 
00004c17 29286f66 
00004c1b 6d6f4320 
00004c1f 7465475f 
00004c23 657a6953 
00004c27 7854664f 
00004c2b 49756450 

                                                                      Page 323
                                                              C:\Users\Fengyuan\AppData\Local\Temp\gh_0000fuk1.s
00004c2f 4f6f666e 
00004c33 43435066 
00004c37 69666e6f 
00004c3b 00292867 
00004c3f 01        12881 	.data.b	1
00004c40 0ddb      12882 	.data.b	219,13
00004c42 5f6d6f43  12883 	.data.b	67,111,109,95,71,101,116,83,105,122,101,79,102,84,120,83,105,103,73,110,102,111,40,41,32,67,111,109,95,71,101,116,83,105,122,101,79,102,84,120,83,105,103,73,110,102,111,79,102,80,67,67,111,110,102,105,103,40,41,0
00004c46 53746547 
00004c4a 4f657a69 
00004c4e 53785466 
00004c52 6e496769 
00004c56 29286f66 
00004c5a 6d6f4320 
00004c5e 7465475f 
00004c62 657a6953 
00004c66 7854664f 
00004c6a 49676953 
00004c6e 4f6f666e 
00004c72 43435066 
00004c76 69666e6f 
00004c7a 00292867 
00004c7e 01        12884 	.data.b	1
00004c7f 0ddc      12885 	.data.b	220,13
00004c81 5f6d6f43  12886 	.data.b	67,111,109,95,71,101,116,84,120,67,121,99,108,105,99,80,114,111,99,101,115,115,105,110,103,73,83,82,76,111,99,107,84,104,114,101,115,104,111,108,100,40,41,32,67,111,109,95,71,101,116,84,120,67,121,99,108,105,99,80
00004c85 54746547 
00004c89 63794378 
00004c8d 5063696c 
00004c91 65636f72 
00004c95 6e697373 
00004c99 52534967 
00004c9d 6b636f4c 
00004ca1 65726854 
00004ca5 6c6f6873 
00004ca9 20292864 
00004cad 5f6d6f43 
00004cb1 54746547 
00004cb5 63794378 
00004cb9 5063696c 
00004cbd 65636f72  12887 	.data.b	114,111,99,101,115,115,105,110,103,73,83,82,76,111,99,107,84,104,114,101,115,104,111,108,100,79,102,80,67,67,111,110,102,105,103,40,41,0
00004cc1 6e697373 
00004cc5 52534967 
00004cc9 6b636f4c 
00004ccd 65726854 
00004cd1 6c6f6873 
00004cd5 50664f64 
00004cd9 6e6f4343 
00004cdd 28676966 
00004ce1 0029 
00004ce3 01        12888 	.data.b	1
00004ce4 0ddd      12889 	.data.b	221,13
00004ce6 5f6d6f43  12890 	.data.b	67,111,109,95,71,101,116,84,120,73,80,100,117,71,114,111,117,112,73,83,82,76,111,99,107,84,104,114,101,115,104,111,108,100,40,41,32,67,111,109,95,71,101,116,84,120,73,80,100,117,71,114,111,117,112,73,83,82,76,111
00004cea 54746547 
00004cee 64504978 
00004cf2 6f724775 
00004cf6 53497075 
00004cfa 636f4c52 
00004cfe 7268546b 
00004d02 6f687365 
00004d06 2928646c 
00004d0a 6d6f4320 
00004d0e 7465475f 

                                                                      Page 324
                                                              C:\Users\Fengyuan\AppData\Local\Temp\gh_0000fuk1.s
00004d12 50497854 
00004d16 72477564 
00004d1a 4970756f 
00004d1e 6f4c5253 
00004d22 68546b63  12891 	.data.b	99,107,84,104,114,101,115,104,111,108,100,79,102,80,67,67,111,110,102,105,103,40,41,0
00004d26 68736572 
00004d2a 4f646c6f 
00004d2e 43435066 
00004d32 69666e6f 
00004d36 00292867 
00004d3a 01        12892 	.data.b	1
00004d3b 0dde      12893 	.data.b	222,13
00004d3d 5f6d6f43  12894 	.data.b	67,111,109,95,71,101,116,84,105,109,101,80,101,114,105,111,100,79,102,84,120,77,111,100,101,70,97,108,115,101,40,73,110,100,101,120,41,32,40,40,67,111,109,95,84,105,109,101,80,101,114,105,111,100,79,102,84,120,77,111
00004d41 54746547 
00004d45 50656d69 
00004d49 6f697265 
00004d4d 54664f64 
00004d51 646f4d78 
00004d55 6c614665 
00004d59 49286573 
00004d5d 7865646e 
00004d61 28282029 
00004d65 5f6d6f43 
00004d69 656d6954 
00004d6d 69726550 
00004d71 664f646f 
00004d75 6f4d7854 
00004d79 61466564  12895 	.data.b	100,101,70,97,108,115,101,84,121,112,101,41,40,40,40,40,67,111,109,95,84,105,109,101,80,101,114,105,111,100,79,102,84,120,77,111,100,101,70,97,108,115,101,84,121,112,101,41,40,73,110,100,101,120,41,41,32,43,32,49
00004d7d 5465736c 
00004d81 29657079 
00004d85 28282828 
00004d89 5f6d6f43 
00004d8d 656d6954 
00004d91 69726550 
00004d95 664f646f 
00004d99 6f4d7854 
00004d9d 61466564 
00004da1 5465736c 
00004da5 29657079 
00004da9 646e4928 
00004dad 29297865 
00004db1 31202b20 
00004db5 29297530  12896 	.data.b	48,117,41,41,41,0
00004db9 0029 
00004dbb 01        12897 	.data.b	1
00004dbc 0ddf      12898 	.data.b	223,13
00004dbe 5f6d6f43  12899 	.data.b	67,111,109,95,71,101,116,84,120,77,111,100,101,70,97,108,115,101,73,100,120,79,102,84,120,77,111,100,101,73,110,102,111,40,73,110,100,101,120,41,32,67,111,109,95,71,101,116,84,120,77,111,100,101,84,114,117,101,73,100
00004dc2 54746547 
00004dc6 646f4d78 
00004dca 6c614665 
00004dce 64496573 
00004dd2 54664f78 
00004dd6 646f4d78 
00004dda 666e4965 
00004dde 6e49286f 
00004de2 29786564 
00004de6 6d6f4320 
00004dea 7465475f 
00004dee 6f4d7854 
00004df2 72546564 
00004df6 64496575 

                                                                      Page 325
                                                              C:\Users\Fengyuan\AppData\Local\Temp\gh_0000fuk1.s
00004dfa 54664f78  12900 	.data.b	120,79,102,84,120,77,111,100,101,73,110,102,111,40,73,110,100,101,120,41,0
00004dfe 646f4d78 
00004e02 666e4965 
00004e06 6e49286f 
00004e0a 29786564 
00004e0e 00 
00004e0f 01        12901 	.data.b	1
00004e10 0de0      12902 	.data.b	224,13
00004e12 5f6d6f43  12903 	.data.b	67,111,109,95,71,101,116,84,105,109,101,80,101,114,105,111,100,79,102,84,120,77,111,100,101,84,114,117,101,40,73,110,100,101,120,41,32,40,40,67,111,109,95,84,105,109,101,80,101,114,105,111,100,79,102,84,120,77,111,100
00004e16 54746547 
00004e1a 50656d69 
00004e1e 6f697265 
00004e22 54664f64 
00004e26 646f4d78 
00004e2a 75725465 
00004e2e 6e492865 
00004e32 29786564 
00004e36 43282820 
00004e3a 545f6d6f 
00004e3e 50656d69 
00004e42 6f697265 
00004e46 54664f64 
00004e4a 646f4d78 
00004e4e 75725465  12904 	.data.b	101,84,114,117,101,84,121,112,101,41,40,40,40,40,67,111,109,95,84,105,109,101,80,101,114,105,111,100,79,102,84,120,77,111,100,101,84,114,117,101,84,121,112,101,41,40,73,110,100,101,120,41,41,32,43,32,49,48,117,41
00004e52 70795465 
00004e56 28282965 
00004e5a 6f432828 
00004e5e 69545f6d 
00004e62 6550656d 
00004e66 646f6972 
00004e6a 7854664f 
00004e6e 65646f4d 
00004e72 65757254 
00004e76 65707954 
00004e7a 6e492829 
00004e7e 29786564 
00004e82 202b2029 
00004e86 29753031 
00004e8a 002929    12905 	.data.b	41,41,0
00004e8d 01        12906 	.data.b	1
00004e8e 0de1      12907 	.data.b	225,13
00004e90 5f6d6f43  12908 	.data.b	67,111,109,95,71,101,116,80,100,117,71,114,112,86,101,99,116,111,114,69,110,100,73,100,120,79,102,84,120,80,100,117,71,114,112,73,110,102,111,40,73,110,100,101,120,41,32,40,40,67,111,109,95,80,100,117,71,114,112,86
00004e94 50746547 
00004e98 72477564 
00004e9c 63655670 
00004ea0 45726f74 
00004ea4 6449646e 
00004ea8 54664f78 
00004eac 75645078 
00004eb0 49707247 
00004eb4 286f666e 
00004eb8 65646e49 
00004ebc 28202978 
00004ec0 6d6f4328 
00004ec4 7564505f 
00004ec8 56707247 
00004ecc 6f746365  12909 	.data.b	101,99,116,111,114,69,110,100,73,100,120,79,102,84,120,80,100,117,71,114,112,73,110,102,111,84,121,112,101,41,40,40,67,111,109,95,71,101,116,80,100,117,71,114,112,86,101,99,116,111,114,83,116,97,114,116,73,100,120,79
00004ed0 646e4572 
00004ed4 4f786449 
00004ed8 50785466 
00004edc 72477564 

                                                                      Page 326
                                                              C:\Users\Fengyuan\AppData\Local\Temp\gh_0000fuk1.s
00004ee0 666e4970 
00004ee4 7079546f 
00004ee8 28282965 
00004eec 5f6d6f43 
00004ef0 50746547 
00004ef4 72477564 
00004ef8 63655670 
00004efc 53726f74 
00004f00 74726174 
00004f04 4f786449 
00004f08 50785466  12910 	.data.b	102,84,120,80,100,117,71,114,112,73,110,102,111,40,73,110,100,101,120,41,32,43,32,49,117,41,41,41,0
00004f0c 72477564 
00004f10 666e4970 
00004f14 6e49286f 
00004f18 29786564 
00004f1c 31202b20 
00004f20 29292975 
00004f24 00 
00004f25 01        12911 	.data.b	1
00004f26 0de3      12912 	.data.b	227,13
00004f28 5f6d6f43  12913 	.data.b	67,111,109,95,71,101,116,69,120,116,101,114,110,97,108,73,100,79,102,84,120,80,100,117,73,110,102,111,40,73,110,100,101,120,41,32,40,40,67,111,109,95,69,120,116,101,114,110,97,108,73,100,79,102,84,120,80,100,117,73
00004f2c 45746547 
00004f30 72657478 
00004f34 496c616e 
00004f38 54664f64 
00004f3c 75645078 
00004f40 6f666e49 
00004f44 646e4928 
00004f48 20297865 
00004f4c 6f432828 
00004f50 78455f6d 
00004f54 6e726574 
00004f58 64496c61 
00004f5c 7854664f 
00004f60 49756450 
00004f64 546f666e  12914 	.data.b	110,102,111,84,121,112,101,41,40,40,73,110,100,101,120,41,41,41,0
00004f68 29657079 
00004f6c 6e492828 
00004f70 29786564 
00004f74 002929 
00004f77 01        12915 	.data.b	1
00004f78 0de6      12916 	.data.b	230,13
00004f7a 5f6d6f43  12917 	.data.b	67,111,109,95,71,101,116,84,120,66,117,102,102,101,114,83,116,97,114,116,73,100,120,79,102,84,120,80,100,117,73,110,102,111,40,73,110,100,101,120,41,32,67,111,109,95,71,101,116,84,120,80,100,117,73,110,105,116,86,97
00004f7e 54746547 
00004f82 66754278 
00004f86 53726566 
00004f8a 74726174 
00004f8e 4f786449 
00004f92 50785466 
00004f96 6e497564 
00004f9a 49286f66 
00004f9e 7865646e 
00004fa2 6f432029 
00004fa6 65475f6d 
00004faa 50785474 
00004fae 6e497564 
00004fb2 61567469 
00004fb6 5365756c  12918 	.data.b	108,117,101,83,116,97,114,116,73,100,120,79,102,84,120,80,100,117,73,110,102,111,40,73,110,100,101,120,41,0
00004fba 74726174 
00004fbe 4f786449 
00004fc2 50785466 

                                                                      Page 327
                                                              C:\Users\Fengyuan\AppData\Local\Temp\gh_0000fuk1.s
00004fc6 6e497564 
00004fca 49286f66 
00004fce 7865646e 
00004fd2 0029 
00004fd4 01        12919 	.data.b	1
00004fd5 0de7      12920 	.data.b	231,13
00004fd7 5f6d6f43  12921 	.data.b	67,111,109,95,73,115,84,120,66,117,102,102,101,114,85,115,101,100,79,102,84,120,80,100,117,73,110,102,111,40,73,110,100,101,120,41,32,67,111,109,95,73,115,84,120,80,100,117,73,110,105,116,86,97,108,117,101,85,115,101
00004fdb 78547349 
00004fdf 66667542 
00004fe3 73557265 
00004fe7 664f6465 
00004feb 64507854 
00004fef 666e4975 
00004ff3 6e49286f 
00004ff7 29786564 
00004ffb 6d6f4320 
00004fff 5473495f 
00005003 75645078 
00005007 74696e49 
0000500b 756c6156 
0000500f 65735565 
00005013 54664f64  12922 	.data.b	100,79,102,84,120,80,100,117,73,110,102,111,40,73,110,100,101,120,41,0
00005017 75645078 
0000501b 6f666e49 
0000501f 646e4928 
00005023 00297865 
00005027 01        12923 	.data.b	1
00005028 0de9      12924 	.data.b	233,13
0000502a 5f6d6f43  12925 	.data.b	67,111,109,95,71,101,116,84,120,80,114,111,99,101,115,115,105,110,103,73,83,82,76,111,99,107,84,104,114,101,115,104,111,108,100,40,41,32,67,111,109,95,71,101,116,84,120,80,114,111,99,101,115,115,105,110,103,73,83,82
0000502e 54746547 
00005032 6f725078 
00005036 73736563 
0000503a 49676e69 
0000503e 6f4c5253 
00005042 68546b63 
00005046 68736572 
0000504a 28646c6f 
0000504e 6f432029 
00005052 65475f6d 
00005056 50785474 
0000505a 65636f72 
0000505e 6e697373 
00005062 52534967 
00005066 6b636f4c  12926 	.data.b	76,111,99,107,84,104,114,101,115,104,111,108,100,79,102,80,67,67,111,110,102,105,103,40,41,0
0000506a 65726854 
0000506e 6c6f6873 
00005072 50664f64 
00005076 6e6f4343 
0000507a 28676966 
0000507e 0029 
00005080 01        12927 	.data.b	1
00005081 0deb      12928 	.data.b	235,13
00005083 5f6d6f43  12929 	.data.b	67,111,109,95,71,101,116,66,117,115,65,99,99,79,102,84,120,83,105,103,73,110,102,111,40,73,110,100,101,120,41,32,67,111,109,95,71,101,116,66,121,116,101,76,101,110,103,116,104,79,102,84,120,83,105,103,73,110,102,111
00005087 42746547 
0000508b 63417375 
0000508f 54664f63 
00005093 67695378 
00005097 6f666e49 
0000509b 646e4928 
0000509f 20297865 
000050a3 5f6d6f43 

                                                                      Page 328
                                                              C:\Users\Fengyuan\AppData\Local\Temp\gh_0000fuk1.s
000050a7 42746547 
000050ab 4c657479 
000050af 74676e65 
000050b3 54664f68 
000050b7 67695378 
000050bb 6f666e49 
000050bf 646e4928  12930 	.data.b	40,73,110,100,101,120,41,0
000050c3 00297865 
000050c7 01        12931 	.data.b	1
000050c8 0def      12932 	.data.b	239,13
000050ca 5f6d6f43  12933 	.data.b	67,111,109,95,73,115,84,120,66,117,102,102,101,114,85,115,101,100,79,102,84,120,83,105,103,73,110,102,111,40,73,110,100,101,120,41,32,40,40,40,98,111,111,108,101,97,110,41,40,67,111,109,95,71,101,116,84,120,66,117
000050ce 78547349 
000050d2 66667542 
000050d6 73557265 
000050da 664f6465 
000050de 69537854 
000050e2 666e4967 
000050e6 6e49286f 
000050ea 29786564 
000050ee 28282820 
000050f2 6c6f6f62 
000050f6 296e6165 
000050fa 6d6f4328 
000050fe 7465475f 
00005102 75427854 
00005106 72656666  12934 	.data.b	102,102,101,114,76,101,110,103,116,104,79,102,84,120,83,105,103,73,110,102,111,40,73,110,100,101,120,41,32,33,61,32,48,117,41,41,32,33,61,32,70,65,76,83,69,41,0
0000510a 676e654c 
0000510e 664f6874 
00005112 69537854 
00005116 666e4967 
0000511a 6e49286f 
0000511e 29786564 
00005122 203d2120 
00005126 29297530 
0000512a 203d2120 
0000512e 534c4146 
00005132 002945 
00005135 01        12935 	.data.b	1
00005136 0df0      12936 	.data.b	240,13
00005138 5f6d6f43  12937 	.data.b	67,111,109,95,71,101,116,84,120,80,100,117,73,110,102,111,73,100,120,79,102,84,120,83,105,103,73,110,102,111,40,73,110,100,101,120,41,32,40,40,67,111,109,95,84,120,80,100,117,73,110,102,111,73,100,120,79,102,84,120
0000513c 54746547 
00005140 75645078 
00005144 6f666e49 
00005148 4f786449 
0000514c 53785466 
00005150 6e496769 
00005154 49286f66 
00005158 7865646e 
0000515c 28282029 
00005160 5f6d6f43 
00005164 64507854 
00005168 666e4975 
0000516c 7864496f 
00005170 7854664f 
00005174 49676953  12938 	.data.b	83,105,103,73,110,102,111,84,121,112,101,41,40,40,73,110,100,101,120,41,41,41,0
00005178 546f666e 
0000517c 29657079 
00005180 6e492828 
00005184 29786564 
00005188 002929 
0000518b 01        12939 	.data.b	1

                                                                      Page 329
                                                              C:\Users\Fengyuan\AppData\Local\Temp\gh_0000fuk1.s
0000518c 0dfa      12940 	.data.b	250,13
0000518e 5f6d6f43  12941 	.data.b	67,111,109,95,83,101,116,67,117,114,114,101,110,116,84,120,77,111,100,101,40,73,110,100,101,120,44,86,97,108,117,101,41,32,67,111,109,95,71,101,116,67,117,114,114,101,110,116,84,120,77,111,100,101,79,102,80,67,67,111
00005192 43746553 
00005196 65727275 
0000519a 7854746e 
0000519e 65646f4d 
000051a2 646e4928 
000051a6 562c7865 
000051aa 65756c61 
000051ae 6f432029 
000051b2 65475f6d 
000051b6 72754374 
000051ba 746e6572 
000051be 6f4d7854 
000051c2 664f6564 
000051c6 6f434350 
000051ca 6769666e  12942 	.data.b	110,102,105,103,40,41,91,40,73,110,100,101,120,41,93,32,61,32,40,86,97,108,117,101,41,0
000051ce 285b2928 
000051d2 65646e49 
000051d6 205d2978 
000051da 5628203d 
000051de 65756c61 
000051e2 0029 
000051e4 01        12943 	.data.b	1
000051e5 0dfb      12944 	.data.b	251,13
000051e7 5f6d6f43  12945 	.data.b	67,111,109,95,83,101,116,67,121,99,108,101,84,105,109,101,67,110,116,40,73,110,100,101,120,44,86,97,108,117,101,41,32,67,111,109,95,71,101,116,67,121,99,108,101,84,105,109,101,67,110,116,79,102,80,67,67,111,110,102
000051eb 43746553 
000051ef 656c6379 
000051f3 656d6954 
000051f7 28746e43 
000051fb 65646e49 
000051ff 61562c78 
00005203 2965756c 
00005207 6d6f4320 
0000520b 7465475f 
0000520f 6c637943 
00005213 6d695465 
00005217 746e4365 
0000521b 4350664f 
0000521f 666e6f43 
00005223 29286769  12946 	.data.b	105,103,40,41,91,40,73,110,100,101,120,41,93,32,61,32,40,86,97,108,117,101,41,0
00005227 6e49285b 
0000522b 29786564 
0000522f 203d205d 
00005233 6c615628 
00005237 00296575 
0000523b 01        12947 	.data.b	1
0000523c 0dfc      12948 	.data.b	252,13
0000523e 5f6d6f43  12949 	.data.b	67,111,109,95,83,101,116,67,121,99,108,105,99,83,101,110,100,82,101,113,117,101,115,116,40,73,110,100,101,120,44,86,97,108,117,101,41,32,67,111,109,95,71,101,116,67,121,99,108,105,99,83,101,110,100,82,101,113,117,101
00005242 43746553 
00005246 696c6379 
0000524a 6e655363 
0000524e 71655264 
00005252 74736575 
00005256 646e4928 
0000525a 562c7865 
0000525e 65756c61 
00005262 6f432029 
00005266 65475f6d 
0000526a 63794374 
0000526e 5363696c 

                                                                      Page 330
                                                              C:\Users\Fengyuan\AppData\Local\Temp\gh_0000fuk1.s
00005272 52646e65 
00005276 65757165 
0000527a 664f7473  12950 	.data.b	115,116,79,102,80,67,67,111,110,102,105,103,40,41,91,40,73,110,100,101,120,41,93,32,61,32,40,86,97,108,117,101,41,0
0000527e 6f434350 
00005282 6769666e 
00005286 285b2928 
0000528a 65646e49 
0000528e 205d2978 
00005292 5628203d 
00005296 65756c61 
0000529a 0029 
0000529c 01        12951 	.data.b	1
0000529d 0dff      12952 	.data.b	255,13
0000529f 5f6d6f43  12953 	.data.b	67,111,109,95,83,101,116,72,97,110,100,108,101,82,120,80,100,117,68,101,102,101,114,114,101,100,40,73,110,100,101,120,44,86,97,108,117,101,41,32,67,111,109,95,71,101,116,72,97,110,100,108,101,82,120,80,100,117,68,101
000052a3 48746553 
000052a7 6c646e61 
000052ab 50785265 
000052af 65447564 
000052b3 72726566 
000052b7 49286465 
000052bb 7865646e 
000052bf 6c61562c 
000052c3 20296575 
000052c7 5f6d6f43 
000052cb 48746547 
000052cf 6c646e61 
000052d3 50785265 
000052d7 65447564 
000052db 72726566  12954 	.data.b	102,101,114,114,101,100,79,102,80,67,67,111,110,102,105,103,40,41,91,40,73,110,100,101,120,41,93,32,61,32,40,86,97,108,117,101,41,0
000052df 664f6465 
000052e3 6f434350 
000052e7 6769666e 
000052eb 285b2928 
000052ef 65646e49 
000052f3 205d2978 
000052f7 5628203d 
000052fb 65756c61 
000052ff 0029 
00005301 01        12955 	.data.b	1
00005302 0e80      12956 	.data.b	128,14
00005304 5f6d6f43  12957 	.data.b	67,111,109,95,83,101,116,73,110,105,116,105,97,108,105,122,101,100,40,86,97,108,117,101,41,32,40,42,40,67,111,109,95,71,101,116,73,110,105,116,105,97,108,105,122,101,100,79,102,80,67,67,111,110,102,105,103,40,41,41
00005308 49746553 
0000530c 6974696e 
00005310 7a696c61 
00005314 56286465 
00005318 65756c61 
0000531c 2a282029 
00005320 6d6f4328 
00005324 7465475f 
00005328 74696e49 
0000532c 696c6169 
00005330 4f64657a 
00005334 43435066 
00005338 69666e6f 
0000533c 29292867 
00005340 203d2029  12958 	.data.b	41,32,61,32,40,86,97,108,117,101,41,0
00005344 6c615628 
00005348 00296575 
0000534c 01        12959 	.data.b	1
0000534d 0e85      12960 	.data.b	133,14
0000534f 5f6d6f43  12961 	.data.b	67,111,109,95,83,101,116,82,120,68,101,102,101,114,114,101,100,80,114,111,99,101,115,115,105,110,103,73,83,82,76,111,99,107,67,111,117,110,116,101,114,40,86,97,108,117,101,41,32,40,42,40,67,111,109,95,71,101,116,82

                                                                      Page 331
                                                              C:\Users\Fengyuan\AppData\Local\Temp\gh_0000fuk1.s
00005353 52746553 
00005357 66654478 
0000535b 65727265 
0000535f 6f725064 
00005363 73736563 
00005367 49676e69 
0000536b 6f4c5253 
0000536f 6f436b63 
00005373 65746e75 
00005377 61562872 
0000537b 2965756c 
0000537f 282a2820 
00005383 5f6d6f43 
00005387 52746547 
0000538b 66654478  12962 	.data.b	120,68,101,102,101,114,114,101,100,80,114,111,99,101,115,115,105,110,103,73,83,82,76,111,99,107,67,111,117,110,116,101,114,79,102,80,67,67,111,110,102,105,103,40,41,41,41,32,61,32,40,86,97,108,117,101,41,0
0000538f 65727265 
00005393 6f725064 
00005397 73736563 
0000539b 49676e69 
0000539f 6f4c5253 
000053a3 6f436b63 
000053a7 65746e75 
000053ab 50664f72 
000053af 6e6f4343 
000053b3 28676966 
000053b7 20292929 
000053bb 5628203d 
000053bf 65756c61 
000053c3 0029 
000053c5 01        12963 	.data.b	1
000053c6 0e86      12964 	.data.b	134,14
000053c8 5f6d6f43  12965 	.data.b	67,111,109,95,83,101,116,82,120,73,80,100,117,71,114,111,117,112,73,83,82,76,111,99,107,67,111,117,110,116,101,114,40,86,97,108,117,101,41,32,40,42,40,67,111,109,95,71,101,116,82,120,73,80,100,117,71,114,111,117
000053cc 52746553 
000053d0 64504978 
000053d4 6f724775 
000053d8 53497075 
000053dc 636f4c52 
000053e0 756f436b 
000053e4 7265746e 
000053e8 6c615628 
000053ec 20296575 
000053f0 43282a28 
000053f4 475f6d6f 
000053f8 78527465 
000053fc 75645049 
00005400 756f7247 
00005404 52534970  12966 	.data.b	112,73,83,82,76,111,99,107,67,111,117,110,116,101,114,79,102,80,67,67,111,110,102,105,103,40,41,41,41,32,61,32,40,86,97,108,117,101,41,0
00005408 6b636f4c 
0000540c 6e756f43 
00005410 4f726574 
00005414 43435066 
00005418 69666e6f 
0000541c 29292867 
00005420 203d2029 
00005424 6c615628 
00005428 00296575 
0000542c 01        12967 	.data.b	1
0000542d 0e87      12968 	.data.b	135,14
0000542f 5f6d6f43  12969 	.data.b	67,111,109,95,83,101,116,82,120,80,100,117,71,114,112,65,99,116,105,118,101,40,73,110,100,101,120,44,86,97,108,117,101,41,32,67,111,109,95,71,101,116,82,120,80,100,117,71,114,112,65,99,116,105,118,101,79,102,80,67
00005433 52746553 
00005437 75645078 

                                                                      Page 332
                                                              C:\Users\Fengyuan\AppData\Local\Temp\gh_0000fuk1.s
0000543b 41707247 
0000543f 76697463 
00005443 6e492865 
00005447 2c786564 
0000544b 756c6156 
0000544f 43202965 
00005453 475f6d6f 
00005457 78527465 
0000545b 47756450 
0000545f 63417072 
00005463 65766974 
00005467 4350664f 
0000546b 666e6f43  12970 	.data.b	67,111,110,102,105,103,40,41,91,40,73,110,100,101,120,41,93,32,61,32,40,86,97,108,117,101,41,0
0000546f 29286769 
00005473 6e49285b 
00005477 29786564 
0000547b 203d205d 
0000547f 6c615628 
00005483 00296575 
00005487 01        12971 	.data.b	1
00005488 0e88      12972 	.data.b	136,14
0000548a 5f6d6f43  12973 	.data.b	67,111,109,95,83,101,116,82,120,83,105,103,66,117,102,102,101,114,85,73,110,116,56,40,73,110,100,101,120,44,86,97,108,117,101,41,32,67,111,109,95,71,101,116,82,120,83,105,103,66,117,102,102,101,114,85,73,110,116,56
0000548e 52746553 
00005492 67695378 
00005496 66667542 
0000549a 49557265 
0000549e 2838746e 
000054a2 65646e49 
000054a6 61562c78 
000054aa 2965756c 
000054ae 6d6f4320 
000054b2 7465475f 
000054b6 69537852 
000054ba 66754267 
000054be 55726566 
000054c2 38746e49 
000054c6 4350664f  12974 	.data.b	79,102,80,67,67,111,110,102,105,103,40,41,91,40,73,110,100,101,120,41,93,32,61,32,40,86,97,108,117,101,41,0
000054ca 666e6f43 
000054ce 29286769 
000054d2 6e49285b 
000054d6 29786564 
000054da 203d205d 
000054de 6c615628 
000054e2 00296575 
000054e6 01        12975 	.data.b	1
000054e7 0e89      12976 	.data.b	137,14
000054e9 5f6d6f43  12977 	.data.b	67,111,109,95,83,101,116,84,114,97,110,115,109,105,116,82,101,113,117,101,115,116,40,73,110,100,101,120,44,86,97,108,117,101,41,32,67,111,109,95,71,101,116,84,114,97,110,115,109,105,116,82,101,113,117,101,115,116,79,102
000054ed 54746553 
000054f1 736e6172 
000054f5 5274696d 
000054f9 65757165 
000054fd 49287473 
00005501 7865646e 
00005505 6c61562c 
00005509 20296575 
0000550d 5f6d6f43 
00005511 54746547 
00005515 736e6172 
00005519 5274696d 
0000551d 65757165 
00005521 664f7473 

                                                                      Page 333
                                                              C:\Users\Fengyuan\AppData\Local\Temp\gh_0000fuk1.s
00005525 6f434350  12978 	.data.b	80,67,67,111,110,102,105,103,40,41,91,40,73,110,100,101,120,41,93,32,61,32,40,86,97,108,117,101,41,0
00005529 6769666e 
0000552d 285b2928 
00005531 65646e49 
00005535 205d2978 
00005539 5628203d 
0000553d 65756c61 
00005541 0029 
00005543 01        12979 	.data.b	1
00005544 0e8a      12980 	.data.b	138,14
00005546 5f6d6f43  12981 	.data.b	67,111,109,95,83,101,116,84,120,66,117,102,102,101,114,40,73,110,100,101,120,44,86,97,108,117,101,41,32,67,111,109,95,71,101,116,84,120,66,117,102,102,101,114,79,102,80,67,67,111,110,102,105,103,40,41,91,40,73,110
0000554a 54746553 
0000554e 66754278 
00005552 28726566 
00005556 65646e49 
0000555a 61562c78 
0000555e 2965756c 
00005562 6d6f4320 
00005566 7465475f 
0000556a 75427854 
0000556e 72656666 
00005572 4350664f 
00005576 666e6f43 
0000557a 29286769 
0000557e 6e49285b 
00005582 29786564  12982 	.data.b	100,101,120,41,93,32,61,32,40,86,97,108,117,101,41,0
00005586 203d205d 
0000558a 6c615628 
0000558e 00296575 
00005592 01        12983 	.data.b	1
00005593 0e8b      12984 	.data.b	139,14
00005595 5f6d6f43  12985 	.data.b	67,111,109,95,83,101,116,84,120,67,121,99,108,105,99,80,114,111,99,101,115,115,105,110,103,73,83,82,76,111,99,107,67,111,117,110,116,101,114,40,86,97,108,117,101,41,32,40,42,40,67,111,109,95,71,101,116,84,120,67
00005599 54746553 
0000559d 63794378 
000055a1 5063696c 
000055a5 65636f72 
000055a9 6e697373 
000055ad 52534967 
000055b1 6b636f4c 
000055b5 6e756f43 
000055b9 28726574 
000055bd 756c6156 
000055c1 28202965 
000055c5 6f43282a 
000055c9 65475f6d 
000055cd 43785474 
000055d1 696c6379  12986 	.data.b	121,99,108,105,99,80,114,111,99,101,115,115,105,110,103,73,83,82,76,111,99,107,67,111,117,110,116,101,114,79,102,80,67,67,111,110,102,105,103,40,41,41,41,32,61,32,40,86,97,108,117,101,41,0
000055d5 6f725063 
000055d9 73736563 
000055dd 49676e69 
000055e1 6f4c5253 
000055e5 6f436b63 
000055e9 65746e75 
000055ed 50664f72 
000055f1 6e6f4343 
000055f5 28676966 
000055f9 20292929 
000055fd 5628203d 
00005601 65756c61 
00005605 0029 
00005607 01        12987 	.data.b	1

                                                                      Page 334
                                                              C:\Users\Fengyuan\AppData\Local\Temp\gh_0000fuk1.s
00005608 0e8d      12988 	.data.b	141,14
0000560a 5f6d6f43  12989 	.data.b	67,111,109,95,83,101,116,84,120,73,80,100,117,71,114,111,117,112,73,83,82,76,111,99,107,67,111,117,110,116,101,114,40,86,97,108,117,101,41,32,40,42,40,67,111,109,95,71,101,116,84,120,73,80,100,117,71,114,111,117
0000560e 54746553 
00005612 64504978 
00005616 6f724775 
0000561a 53497075 
0000561e 636f4c52 
00005622 756f436b 
00005626 7265746e 
0000562a 6c615628 
0000562e 20296575 
00005632 43282a28 
00005636 475f6d6f 
0000563a 78547465 
0000563e 75645049 
00005642 756f7247 
00005646 52534970  12990 	.data.b	112,73,83,82,76,111,99,107,67,111,117,110,116,101,114,79,102,80,67,67,111,110,102,105,103,40,41,41,41,32,61,32,40,86,97,108,117,101,41,0
0000564a 6b636f4c 
0000564e 6e756f43 
00005652 4f726574 
00005656 43435066 
0000565a 69666e6f 
0000565e 29292867 
00005662 203d2029 
00005666 6c615628 
0000566a 00296575 
0000566e 01        12991 	.data.b	1
0000566f 0e8e      12992 	.data.b	142,14
00005671 5f6d6f43  12993 	.data.b	67,111,109,95,83,101,116,84,120,80,100,117,71,114,112,65,99,116,105,118,101,40,73,110,100,101,120,44,86,97,108,117,101,41,32,67,111,109,95,71,101,116,84,120,80,100,117,71,114,112,65,99,116,105,118,101,79,102,80,67
00005675 54746553 
00005679 75645078 
0000567d 41707247 
00005681 76697463 
00005685 6e492865 
00005689 2c786564 
0000568d 756c6156 
00005691 43202965 
00005695 475f6d6f 
00005699 78547465 
0000569d 47756450 
000056a1 63417072 
000056a5 65766974 
000056a9 4350664f 
000056ad 666e6f43  12994 	.data.b	67,111,110,102,105,103,40,41,91,40,73,110,100,101,120,41,93,32,61,32,40,86,97,108,117,101,41,0
000056b1 29286769 
000056b5 6e49285b 
000056b9 29786564 
000056bd 203d205d 
000056c1 6c615628 
000056c5 00296575 
000056c9 01        12995 	.data.b	1
000056ca 0e8f      12996 	.data.b	143,14
000056cc 5f6d6f43  12997 	.data.b	67,111,109,95,83,101,116,84,120,80,114,111,99,101,115,115,105,110,103,73,83,82,76,111,99,107,67,111,117,110,116,101,114,40,86,97,108,117,101,41,32,40,42,40,67,111,109,95,71,101,116,84,120,80,114,111,99,101,115,115
000056d0 54746553 
000056d4 6f725078 
000056d8 73736563 
000056dc 49676e69 
000056e0 6f4c5253 
000056e4 6f436b63 
000056e8 65746e75 
000056ec 61562872 

                                                                      Page 335
                                                              C:\Users\Fengyuan\AppData\Local\Temp\gh_0000fuk1.s
000056f0 2965756c 
000056f4 282a2820 
000056f8 5f6d6f43 
000056fc 54746547 
00005700 6f725078 
00005704 73736563 
00005708 49676e69  12998 	.data.b	105,110,103,73,83,82,76,111,99,107,67,111,117,110,116,101,114,79,102,80,67,67,111,110,102,105,103,40,41,41,41,32,61,32,40,86,97,108,117,101,41,0
0000570c 6f4c5253 
00005710 6f436b63 
00005714 65746e75 
00005718 50664f72 
0000571c 6e6f4343 
00005720 28676966 
00005724 20292929 
00005728 5628203d 
0000572c 65756c61 
00005730 0029 
00005732 01        12999 	.data.b	1
00005733 0e90      13000 	.data.b	144,14
00005735 5f6d6f43  13001 	.data.b	67,111,109,95,83,101,116,84,120,83,100,117,76,101,110,103,116,104,40,73,110,100,101,120,44,86,97,108,117,101,41,32,67,111,109,95,71,101,116,84,120,83,100,117,76,101,110,103,116,104,79,102,80,67,67,111,110,102,105,103
00005739 54746553 
0000573d 75645378 
00005741 676e654c 
00005745 49286874 
00005749 7865646e 
0000574d 6c61562c 
00005751 20296575 
00005755 5f6d6f43 
00005759 54746547 
0000575d 75645378 
00005761 676e654c 
00005765 664f6874 
00005769 6f434350 
0000576d 6769666e 
00005771 285b2928  13002 	.data.b	40,41,91,40,73,110,100,101,120,41,93,32,61,32,40,86,97,108,117,101,41,0
00005775 65646e49 
00005779 205d2978 
0000577d 5628203d 
00005781 65756c61 
00005785 0029 
00005787 01        13003 	.data.b	1
00005788 0e9b      13004 	.data.b	155,14
0000578a 5f6d6f43  13005 	.data.b	67,111,109,95,71,101,116,65,100,100,114,82,120,68,101,102,80,100,117,66,117,102,102,101,114,40,73,110,100,101,120,41,32,40,38,67,111,109,95,71,101,116,82,120,68,101,102,80,100,117,66,117,102,102,101,114,40,73,110,100
0000578e 41746547 
00005792 52726464 
00005796 66654478 
0000579a 42756450 
0000579e 65666675 
000057a2 6e492872 
000057a6 29786564 
000057aa 43262820 
000057ae 475f6d6f 
000057b2 78527465 
000057b6 50666544 
000057ba 75427564 
000057be 72656666 
000057c2 646e4928 
000057c6 29297865  13006 	.data.b	101,120,41,41,0
000057ca 00 
000057cb 01        13007 	.data.b	1
000057cc 0e9d      13008 	.data.b	157,14

                                                                      Page 336
                                                              C:\Users\Fengyuan\AppData\Local\Temp\gh_0000fuk1.s
000057ce 5f6d6f43  13009 	.data.b	67,111,109,95,71,101,116,65,100,100,114,84,120,66,117,102,102,101,114,40,73,110,100,101,120,41,32,40,38,67,111,109,95,71,101,116,84,120,66,117,102,102,101,114,40,73,110,100,101,120,41,41,0
000057d2 41746547 
000057d6 54726464 
000057da 66754278 
000057de 28726566 
000057e2 65646e49 
000057e6 28202978 
000057ea 6d6f4326 
000057ee 7465475f 
000057f2 75427854 
000057f6 72656666 
000057fa 646e4928 
000057fe 29297865 
00005802 00 
00005803 01        13010 	.data.b	1
00005804 0e9e      13011 	.data.b	158,14
00005806 5f6d6f43  13012 	.data.b	67,111,109,95,71,101,116,65,100,100,114,84,120,80,100,117,73,110,105,116,86,97,108,117,101,40,73,110,100,101,120,41,32,40,38,67,111,109,95,71,101,116,84,120,80,100,117,73,110,105,116,86,97,108,117,101,40,73,110,100
0000580a 41746547 
0000580e 54726464 
00005812 75645078 
00005816 74696e49 
0000581a 756c6156 
0000581e 6e492865 
00005822 29786564 
00005826 43262820 
0000582a 475f6d6f 
0000582e 78547465 
00005832 49756450 
00005836 5674696e 
0000583a 65756c61 
0000583e 646e4928 
00005842 29297865  13013 	.data.b	101,120,41,41,0
00005846 00 
00005847 01        13014 	.data.b	1
00005848 10a6      13015 	.data.b	166,16
0000584a 5f6d6f43  13016 	.data.b	67,111,109,95,68,101,99,67,121,99,108,101,84,105,109,101,67,110,116,40,73,110,100,101,120,41,32,67,111,109,95,71,101,116,67,121,99,108,101,84,105,109,101,67,110,116,40,73,110,100,101,120,41,45,45,0
0000584e 43636544 
00005852 656c6379 
00005856 656d6954 
0000585a 28746e43 
0000585e 65646e49 
00005862 43202978 
00005866 475f6d6f 
0000586a 79437465 
0000586e 54656c63 
00005872 43656d69 
00005876 4928746e 
0000587a 7865646e 
0000587e 002d2d29 
00005882 01        13017 	.data.b	1
00005883 10ae      13018 	.data.b	174,16
00005885 5f6d6f43  13019 	.data.b	67,111,109,95,68,101,99,82,120,68,101,102,101,114,114,101,100,80,114,111,99,101,115,115,105,110,103,73,83,82,76,111,99,107,67,111,117,110,116,101,114,40,41,32,67,111,109,95,71,101,116,82,120,68,101,102,101,114,114,101
00005889 52636544 
0000588d 66654478 
00005891 65727265 
00005895 6f725064 
00005899 73736563 
0000589d 49676e69 
000058a1 6f4c5253 
000058a5 6f436b63 
000058a9 65746e75 

                                                                      Page 337
                                                              C:\Users\Fengyuan\AppData\Local\Temp\gh_0000fuk1.s
000058ad 20292872 
000058b1 5f6d6f43 
000058b5 52746547 
000058b9 66654478 
000058bd 65727265 
000058c1 6f725064  13020 	.data.b	100,80,114,111,99,101,115,115,105,110,103,73,83,82,76,111,99,107,67,111,117,110,116,101,114,40,41,45,45,0
000058c5 73736563 
000058c9 49676e69 
000058cd 6f4c5253 
000058d1 6f436b63 
000058d5 65746e75 
000058d9 2d292872 
000058dd 002d 
000058df 01        13021 	.data.b	1
000058e0 10af      13022 	.data.b	175,16
000058e2 5f6d6f43  13023 	.data.b	67,111,109,95,68,101,99,82,120,73,80,100,117,71,114,111,117,112,73,83,82,76,111,99,107,67,111,117,110,116,101,114,40,41,32,67,111,109,95,71,101,116,82,120,73,80,100,117,71,114,111,117,112,73,83,82,76,111,99,107
000058e6 52636544 
000058ea 64504978 
000058ee 6f724775 
000058f2 53497075 
000058f6 636f4c52 
000058fa 756f436b 
000058fe 7265746e 
00005902 43202928 
00005906 475f6d6f 
0000590a 78527465 
0000590e 75645049 
00005912 756f7247 
00005916 52534970 
0000591a 6b636f4c 
0000591e 6e756f43  13024 	.data.b	67,111,117,110,116,101,114,40,41,45,45,0
00005922 28726574 
00005926 002d2d29 
0000592a 01        13025 	.data.b	1
0000592b 10b2      13026 	.data.b	178,16
0000592d 5f6d6f43  13027 	.data.b	67,111,109,95,68,101,99,84,120,67,121,99,108,105,99,80,114,111,99,101,115,115,105,110,103,73,83,82,76,111,99,107,67,111,117,110,116,101,114,40,41,32,67,111,109,95,71,101,116,84,120,67,121,99,108,105,99,80,114,111
00005931 54636544 
00005935 63794378 
00005939 5063696c 
0000593d 65636f72 
00005941 6e697373 
00005945 52534967 
00005949 6b636f4c 
0000594d 6e756f43 
00005951 28726574 
00005955 6f432029 
00005959 65475f6d 
0000595d 43785474 
00005961 696c6379 
00005965 6f725063 
00005969 73736563  13028 	.data.b	99,101,115,115,105,110,103,73,83,82,76,111,99,107,67,111,117,110,116,101,114,40,41,45,45,0
0000596d 49676e69 
00005971 6f4c5253 
00005975 6f436b63 
00005979 65746e75 
0000597d 2d292872 
00005981 002d 
00005983 01        13029 	.data.b	1
00005984 10b4      13030 	.data.b	180,16
00005986 5f6d6f43  13031 	.data.b	67,111,109,95,68,101,99,84,120,73,80,100,117,71,114,111,117,112,73,83,82,76,111,99,107,67,111,117,110,116,101,114,40,41,32,67,111,109,95,71,101,116,84,120,73,80,100,117,71,114,111,117,112,73,83,82,76,111,99,107
0000598a 54636544 

                                                                      Page 338
                                                              C:\Users\Fengyuan\AppData\Local\Temp\gh_0000fuk1.s
0000598e 64504978 
00005992 6f724775 
00005996 53497075 
0000599a 636f4c52 
0000599e 756f436b 
000059a2 7265746e 
000059a6 43202928 
000059aa 475f6d6f 
000059ae 78547465 
000059b2 75645049 
000059b6 756f7247 
000059ba 52534970 
000059be 6b636f4c 
000059c2 6e756f43  13032 	.data.b	67,111,117,110,116,101,114,40,41,45,45,0
000059c6 28726574 
000059ca 002d2d29 
000059ce 01        13033 	.data.b	1
000059cf 10b5      13034 	.data.b	181,16
000059d1 5f6d6f43  13035 	.data.b	67,111,109,95,68,101,99,84,120,80,114,111,99,101,115,115,105,110,103,73,83,82,76,111,99,107,67,111,117,110,116,101,114,40,41,32,67,111,109,95,71,101,116,84,120,80,114,111,99,101,115,115,105,110,103,73,83,82,76,111
000059d5 54636544 
000059d9 6f725078 
000059dd 73736563 
000059e1 49676e69 
000059e5 6f4c5253 
000059e9 6f436b63 
000059ed 65746e75 
000059f1 20292872 
000059f5 5f6d6f43 
000059f9 54746547 
000059fd 6f725078 
00005a01 73736563 
00005a05 49676e69 
00005a09 6f4c5253 
00005a0d 6f436b63  13036 	.data.b	99,107,67,111,117,110,116,101,114,40,41,45,45,0
00005a11 65746e75 
00005a15 2d292872 
00005a19 002d 
00005a1b 03        13037 	.data.b	3
00005a1c 16f4      13038 	.data.b	244,22
00005a1e 12        13039 	.data.b	18
00005a1f 04        13040 	.data.b	4
00005a20 03        13041 	.data.b	3
00005a21 16f9      13042 	.data.b	249,22
00005a23 12        13043 	.data.b	18
00005a24 04        13044 	.data.b	4
00005a25 03        13045 	.data.b	3
00005a26 178a      13046 	.data.b	138,23
00005a28 12        13047 	.data.b	18
00005a29 04        13048 	.data.b	4
00005a2a 03        13049 	.data.b	3
00005a2b 178f      13050 	.data.b	143,23
00005a2d 12        13051 	.data.b	18
00005a2e 04        13052 	.data.b	4
00005a2f 03        13053 	.data.b	3
00005a30 179e      13054 	.data.b	158,23
00005a32 12        13055 	.data.b	18
00005a33 04        13056 	.data.b	4
00005a34 03        13057 	.data.b	3
00005a35 17a3      13058 	.data.b	163,23
00005a37 12        13059 	.data.b	18
00005a38 04        13060 	.data.b	4

                                                                      Page 339
                                                              C:\Users\Fengyuan\AppData\Local\Temp\gh_0000fuk1.s
00005a39 03        13061 	.data.b	3
00005a3a 17b2      13062 	.data.b	178,23
00005a3c 12        13063 	.data.b	18
00005a3d 04        13064 	.data.b	4
00005a3e 03        13065 	.data.b	3
00005a3f 17b7      13066 	.data.b	183,23
00005a41 12        13067 	.data.b	18
00005a42 04        13068 	.data.b	4
00005a43 03        13069 	.data.b	3
00005a44 17c6      13070 	.data.b	198,23
00005a46 12        13071 	.data.b	18
00005a47 04        13072 	.data.b	4
00005a48 03        13073 	.data.b	3
00005a49 17cb      13074 	.data.b	203,23
00005a4b 12        13075 	.data.b	18
00005a4c 04        13076 	.data.b	4
00005a4d 03        13077 	.data.b	3
00005a4e 17db      13078 	.data.b	219,23
00005a50 12        13079 	.data.b	18
00005a51 04        13080 	.data.b	4
00005a52 03        13081 	.data.b	3
00005a53 17e0      13082 	.data.b	224,23
00005a55 12        13083 	.data.b	18
00005a56 04        13084 	.data.b	4
00005a57 03        13085 	.data.b	3
00005a58 17ef      13086 	.data.b	239,23
00005a5a 12        13087 	.data.b	18
00005a5b 04        13088 	.data.b	4
00005a5c 03        13089 	.data.b	3
00005a5d 17f4      13090 	.data.b	244,23
00005a5f 12        13091 	.data.b	18
00005a60 04        13092 	.data.b	4
00005a61 03        13093 	.data.b	3
00005a62 1883      13094 	.data.b	131,24
00005a64 12        13095 	.data.b	18
00005a65 04        13096 	.data.b	4
00005a66 03        13097 	.data.b	3
00005a67 1888      13098 	.data.b	136,24
00005a69 12        13099 	.data.b	18
00005a6a 04        13100 	.data.b	4
00005a6b 03        13101 	.data.b	3
00005a6c 189a      13102 	.data.b	154,24
00005a6e 12        13103 	.data.b	18
00005a6f 04        13104 	.data.b	4
00005a70 03        13105 	.data.b	3
00005a71 189f      13106 	.data.b	159,24
00005a73 12        13107 	.data.b	18
00005a74 04        13108 	.data.b	4
00005a75 03        13109 	.data.b	3
00005a76 18ab      13110 	.data.b	171,24
00005a78 12        13111 	.data.b	18
00005a79 04        13112 	.data.b	4
00005a7a 03        13113 	.data.b	3
00005a7b 18b0      13114 	.data.b	176,24
00005a7d 12        13115 	.data.b	18
00005a7e 04        13116 	.data.b	4
00005a7f 03        13117 	.data.b	3
00005a80 18c3      13118 	.data.b	195,24
00005a82 12        13119 	.data.b	18
00005a83 04        13120 	.data.b	4
00005a84 03        13121 	.data.b	3

                                                                      Page 340
                                                              C:\Users\Fengyuan\AppData\Local\Temp\gh_0000fuk1.s
00005a85 18c8      13122 	.data.b	200,24
00005a87 12        13123 	.data.b	18
00005a88 04        13124 	.data.b	4
00005a89 03        13125 	.data.b	3
00005a8a 18d4      13126 	.data.b	212,24
00005a8c 12        13127 	.data.b	18
00005a8d 04        13128 	.data.b	4
00005a8e 03        13129 	.data.b	3
00005a8f 18d9      13130 	.data.b	217,24
00005a91 12        13131 	.data.b	18
00005a92 04        13132 	.data.b	4
00005a93 03        13133 	.data.b	3
00005a94 18e5      13134 	.data.b	229,24
00005a96 12        13135 	.data.b	18
00005a97 04        13136 	.data.b	4
00005a98 03        13137 	.data.b	3
00005a99 18ea      13138 	.data.b	234,24
00005a9b 12        13139 	.data.b	18
00005a9c 04        13140 	.data.b	4
00005a9d 03        13141 	.data.b	3
00005a9e 18f6      13142 	.data.b	246,24
00005aa0 12        13143 	.data.b	18
00005aa1 04        13144 	.data.b	4
00005aa2 03        13145 	.data.b	3
00005aa3 18fb      13146 	.data.b	251,24
00005aa5 12        13147 	.data.b	18
00005aa6 04        13148 	.data.b	4
00005aa7 03        13149 	.data.b	3
00005aa8 1987      13150 	.data.b	135,25
00005aaa 12        13151 	.data.b	18
00005aab 04        13152 	.data.b	4
00005aac 03        13153 	.data.b	3
00005aad 198c      13154 	.data.b	140,25
00005aaf 12        13155 	.data.b	18
00005ab0 04        13156 	.data.b	4
00005ab1 03        13157 	.data.b	3
00005ab2 1994      13158 	.data.b	148,25
00005ab4 12        13159 	.data.b	18
00005ab5 04        13160 	.data.b	4
00005ab6 03        13161 	.data.b	3
00005ab7 1999      13162 	.data.b	153,25
00005ab9 12        13163 	.data.b	18
00005aba 04        13164 	.data.b	4
00005abb 03        13165 	.data.b	3
00005abc 19a5      13166 	.data.b	165,25
00005abe 12        13167 	.data.b	18
00005abf 04        13168 	.data.b	4
00005ac0 03        13169 	.data.b	3
00005ac1 19aa      13170 	.data.b	170,25
00005ac3 12        13171 	.data.b	18
00005ac4 04        13172 	.data.b	4
00005ac5 03        13173 	.data.b	3
00005ac6 19b6      13174 	.data.b	182,25
00005ac8 12        13175 	.data.b	18
00005ac9 04        13176 	.data.b	4
00005aca 03        13177 	.data.b	3
00005acb 19bb      13178 	.data.b	187,25
00005acd 12        13179 	.data.b	18
00005ace 04        13180 	.data.b	4
00005acf 03        13181 	.data.b	3
00005ad0 19c7      13182 	.data.b	199,25

                                                                      Page 341
                                                              C:\Users\Fengyuan\AppData\Local\Temp\gh_0000fuk1.s
00005ad2 12        13183 	.data.b	18
00005ad3 04        13184 	.data.b	4
00005ad4 03        13185 	.data.b	3
00005ad5 19cc      13186 	.data.b	204,25
00005ad7 12        13187 	.data.b	18
00005ad8 04        13188 	.data.b	4
00005ad9 03        13189 	.data.b	3
00005ada 19d8      13190 	.data.b	216,25
00005adc 12        13191 	.data.b	18
00005add 04        13192 	.data.b	4
00005ade 03        13193 	.data.b	3
00005adf 19dd      13194 	.data.b	221,25
00005ae1 12        13195 	.data.b	18
00005ae2 04        13196 	.data.b	4
00005ae3 03        13197 	.data.b	3
00005ae4 19e5      13198 	.data.b	229,25
00005ae6 12        13199 	.data.b	18
00005ae7 04        13200 	.data.b	4
00005ae8 03        13201 	.data.b	3
00005ae9 19ea      13202 	.data.b	234,25
00005aeb 12        13203 	.data.b	18
00005aec 04        13204 	.data.b	4
00005aed 03        13205 	.data.b	3
00005aee 19f6      13206 	.data.b	246,25
00005af0 12        13207 	.data.b	18
00005af1 04        13208 	.data.b	4
00005af2 03        13209 	.data.b	3
00005af3 19fb      13210 	.data.b	251,25
00005af5 12        13211 	.data.b	18
00005af6 04        13212 	.data.b	4
00005af7 03        13213 	.data.b	3
00005af8 1a83      13214 	.data.b	131,26
00005afa 12        13215 	.data.b	18
00005afb 04        13216 	.data.b	4
00005afc 03        13217 	.data.b	3
00005afd 1a88      13218 	.data.b	136,26
00005aff 12        13219 	.data.b	18
00005b00 04        13220 	.data.b	4
00005b01 03        13221 	.data.b	3
00005b02 1a90      13222 	.data.b	144,26
00005b04 12        13223 	.data.b	18
00005b05 04        13224 	.data.b	4
00005b06 03        13225 	.data.b	3
00005b07 1a95      13226 	.data.b	149,26
00005b09 12        13227 	.data.b	18
00005b0a 04        13228 	.data.b	4
00005b0b 03        13229 	.data.b	3
00005b0c 1aa1      13230 	.data.b	161,26
00005b0e 12        13231 	.data.b	18
00005b0f 04        13232 	.data.b	4
00005b10 03        13233 	.data.b	3
00005b11 1aa6      13234 	.data.b	166,26
00005b13 12        13235 	.data.b	18
00005b14 04        13236 	.data.b	4
00005b15 03        13237 	.data.b	3
00005b16 1ab2      13238 	.data.b	178,26
00005b18 12        13239 	.data.b	18
00005b19 04        13240 	.data.b	4
00005b1a 03        13241 	.data.b	3
00005b1b 1ab7      13242 	.data.b	183,26
00005b1d 12        13243 	.data.b	18

                                                                      Page 342
                                                              C:\Users\Fengyuan\AppData\Local\Temp\gh_0000fuk1.s
00005b1e 04        13244 	.data.b	4
00005b1f 03        13245 	.data.b	3
00005b20 1ac3      13246 	.data.b	195,26
00005b22 12        13247 	.data.b	18
00005b23 04        13248 	.data.b	4
00005b24 03        13249 	.data.b	3
00005b25 1ac8      13250 	.data.b	200,26
00005b27 12        13251 	.data.b	18
00005b28 04        13252 	.data.b	4
00005b29 03        13253 	.data.b	3
00005b2a 1ad4      13254 	.data.b	212,26
00005b2c 12        13255 	.data.b	18
00005b2d 04        13256 	.data.b	4
00005b2e 03        13257 	.data.b	3
00005b2f 1ad9      13258 	.data.b	217,26
00005b31 12        13259 	.data.b	18
00005b32 04        13260 	.data.b	4
00005b33 03        13261 	.data.b	3
00005b34 1ae1      13262 	.data.b	225,26
00005b36 12        13263 	.data.b	18
00005b37 04        13264 	.data.b	4
00005b38 03        13265 	.data.b	3
00005b39 1ae6      13266 	.data.b	230,26
00005b3b 12        13267 	.data.b	18
00005b3c 04        13268 	.data.b	4
00005b3d 03        13269 	.data.b	3
00005b3e 1aee      13270 	.data.b	238,26
00005b40 12        13271 	.data.b	18
00005b41 04        13272 	.data.b	4
00005b42 03        13273 	.data.b	3
00005b43 1af3      13274 	.data.b	243,26
00005b45 12        13275 	.data.b	18
00005b46 04        13276 	.data.b	4
00005b47 03        13277 	.data.b	3
00005b48 1afb      13278 	.data.b	251,26
00005b4a 12        13279 	.data.b	18
00005b4b 04        13280 	.data.b	4
00005b4c 03        13281 	.data.b	3
00005b4d 1b80      13282 	.data.b	128,27
00005b4f 12        13283 	.data.b	18
00005b50 04        13284 	.data.b	4
00005b51 03        13285 	.data.b	3
00005b52 1b8c      13286 	.data.b	140,27
00005b54 12        13287 	.data.b	18
00005b55 04        13288 	.data.b	4
00005b56 03        13289 	.data.b	3
00005b57 1b91      13290 	.data.b	145,27
00005b59 12        13291 	.data.b	18
00005b5a 04        13292 	.data.b	4
00005b5b 03        13293 	.data.b	3
00005b5c 1b99      13294 	.data.b	153,27
00005b5e 12        13295 	.data.b	18
00005b5f 04        13296 	.data.b	4
00005b60 03        13297 	.data.b	3
00005b61 1b9e      13298 	.data.b	158,27
00005b63 12        13299 	.data.b	18
00005b64 04        13300 	.data.b	4
00005b65 03        13301 	.data.b	3
00005b66 1baa      13302 	.data.b	170,27
00005b68 12        13303 	.data.b	18
00005b69 04        13304 	.data.b	4

                                                                      Page 343
                                                              C:\Users\Fengyuan\AppData\Local\Temp\gh_0000fuk1.s
00005b6a 03        13305 	.data.b	3
00005b6b 1baf      13306 	.data.b	175,27
00005b6d 12        13307 	.data.b	18
00005b6e 04        13308 	.data.b	4
00005b6f 04        13309 	.data.b	4
00005b70 03        13310 	.data.b	3
00005b71 01e1      13311 	.data.b	225,1
00005b73 15        13312 	.data.b	21
00005b74 03        13313 	.data.b	3
00005b75 4e        13314 	.data.b	78
00005b76 16        13315 	.data.b	22
00005b77 01        13316 	.data.b	1
00005b78 2b        13317 	.data.b	43
00005b79 5f544544  13318 	.data.b	68,69,84,95,69,78,65,66,76,69,68,32,83,84,68,95,79,78,0
00005b7d 42414e45 
00005b81 2044454c 
00005b85 5f445453 
00005b89 004e4f 
00005b8c 01        13319 	.data.b	1
00005b8d 2c        13320 	.data.b	44
00005b8e 5f544544  13321 	.data.b	68,69,84,95,86,69,82,83,73,79,78,95,73,78,70,79,95,65,80,73,32,83,84,68,95,79,70,70,0
00005b92 53524556 
00005b96 5f4e4f49 
00005b9a 4f464e49 
00005b9e 4950415f 
00005ba2 44545320 
00005ba6 46464f5f 
00005baa 00 
00005bab 01        13322 	.data.b	1
00005bac 2d        13323 	.data.b	45
00005bad 5f544544  13324 	.data.b	68,69,84,95,68,69,66,85,71,95,69,78,65,66,76,69,68,32,83,84,68,95,79,70,70,0
00005bb1 55424544 
00005bb5 4e455f47 
00005bb9 454c4241 
00005bbd 54532044 
00005bc1 464f5f44 
00005bc5 0046 
00005bc7 03        13325 	.data.b	3
00005bc8 0288      13326 	.data.b	136,2
00005bca 12        13327 	.data.b	18
00005bcb 04        13328 	.data.b	4
00005bcc 03        13329 	.data.b	3
00005bcd 028e      13330 	.data.b	142,2
00005bcf 12        13331 	.data.b	18
00005bd0 04        13332 	.data.b	4
00005bd1 04        13333 	.data.b	4
00005bd2 03        13334 	.data.b	3
00005bd3 01d5      13335 	.data.b	213,1
00005bd5 12        13336 	.data.b	18
00005bd6 04        13337 	.data.b	4
00005bd7 03        13338 	.data.b	3
00005bd8 02d3      13339 	.data.b	211,2
00005bda 12        13340 	.data.b	18
00005bdb 04        13341 	.data.b	4
00005bdc 04        13342 	.data.b	4
00005bdd 03        13343 	.data.b	3
00005bde 01e4      13344 	.data.b	228,1
00005be0 17        13345 	.data.b	23
00005be1 03        13346 	.data.b	3
00005be2 36        13347 	.data.b	54
00005be3 18        13348 	.data.b	24

                                                                      Page 344
                                                              C:\Users\Fengyuan\AppData\Local\Temp\gh_0000fuk1.s
00005be4 01        13349 	.data.b	1
00005be5 32        13350 	.data.b	50
00005be6 44545356  13351 	.data.b	86,83,84,68,76,73,66,95,85,83,69,95,76,73,66,82,65,82,89,95,70,85,78,67,84,73,79,78,83,32,83,84,68,95,79,70,70,0
00005bea 5f42494c 
00005bee 5f455355 
00005bf2 5242494c 
00005bf6 5f595241 
00005bfa 434e5546 
00005bfe 4e4f4954 
00005c02 54532053 
00005c06 464f5f44 
00005c0a 0046 
00005c0c 01        13352 	.data.b	1
00005c0d 41        13353 	.data.b	65
00005c0e 44545356  13354 	.data.b	86,83,84,68,76,73,66,95,82,85,78,84,73,77,69,95,79,80,84,73,77,73,90,65,84,73,79,78,32,83,84,68,95,79,78,0
00005c12 5f42494c 
00005c16 544e5552 
00005c1a 5f454d49 
00005c1e 4954504f 
00005c22 415a494d 
00005c26 4e4f4954 
00005c2a 44545320 
00005c2e 004e4f5f 
00005c32 01        13355 	.data.b	1
00005c33 52        13356 	.data.b	82
00005c34 44545356  13357 	.data.b	86,83,84,68,76,73,66,95,85,83,69,95,74,85,77,80,84,65,66,76,69,83,32,83,84,68,95,79,78,0
00005c38 5f42494c 
00005c3c 5f455355 
00005c40 504d554a 
00005c44 4c424154 
00005c48 53205345 
00005c4c 4f5f4454 
00005c50 004e 
00005c52 01        13358 	.data.b	1
00005c53 63        13359 	.data.b	99
00005c54 44545356  13360 	.data.b	86,83,84,68,76,73,66,95,68,69,86,95,69,82,82,79,82,95,68,69,84,69,67,84,32,83,84,68,95,79,70,70,0
00005c58 5f42494c 
00005c5c 5f564544 
00005c60 4f525245 
00005c64 45445f52 
00005c68 54434554 
00005c6c 44545320 
00005c70 46464f5f 
00005c74 00 
00005c75 01        13361 	.data.b	1
00005c76 72        13362 	.data.b	114
00005c77 44545356  13363 	.data.b	86,83,84,68,76,73,66,95,68,69,86,95,69,82,82,79,82,95,82,69,80,79,82,84,32,83,84,68,95,79,70,70,0
00005c7b 5f42494c 
00005c7f 5f564544 
00005c83 4f525245 
00005c87 45525f52 
00005c8b 54524f50 
00005c8f 44545320 
00005c93 46464f5f 
00005c97 00 
00005c98 01        13364 	.data.b	1
00005c99 0180      13365 	.data.b	128,1
00005c9b 44545356  13366 	.data.b	86,83,84,68,76,73,66,95,86,69,82,83,73,79,78,95,73,78,70,79,95,65,80,73,32,83,84,68,95,79,70,70,0
00005c9f 5f42494c 
00005ca3 53524556 
00005ca7 5f4e4f49 

                                                                      Page 345
                                                              C:\Users\Fengyuan\AppData\Local\Temp\gh_0000fuk1.s
00005cab 4f464e49 
00005caf 4950415f 
00005cb3 44545320 
00005cb7 46464f5f 
00005cbb 00 
00005cbc 01        13367 	.data.b	1
00005cbd 018f      13368 	.data.b	143,1
00005cbf 44545356  13369 	.data.b	86,83,84,68,76,73,66,95,68,85,77,77,89,95,83,84,65,84,69,77,69,78,84,40,118,41,32,40,118,111,105,100,41,40,118,41,0
00005cc3 5f42494c 
00005cc7 4d4d5544 
00005ccb 54535f59 
00005ccf 4d455441 
00005cd3 28544e45 
00005cd7 28202976 
00005cdb 64696f76 
00005cdf 29762829 
00005ce3 00 
00005ce4 01        13370 	.data.b	1
00005ce5 01d1      13371 	.data.b	209,1
00005ce7 44545356  13372 	.data.b	86,83,84,68,76,73,66,95,67,70,71,95,77,65,74,79,82,95,86,69,82,83,73,79,78,32,40,50,117,41,0
00005ceb 5f42494c 
00005cef 5f474643 
00005cf3 4f4a414d 
00005cf7 45565f52 
00005cfb 4f495352 
00005cff 3228204e 
00005d03 002975 
00005d06 01        13373 	.data.b	1
00005d07 01d2      13374 	.data.b	210,1
00005d09 44545356  13375 	.data.b	86,83,84,68,76,73,66,95,67,70,71,95,77,73,78,79,82,95,86,69,82,83,73,79,78,32,40,48,117,41,0
00005d0d 5f42494c 
00005d11 5f474643 
00005d15 4f4e494d 
00005d19 45565f52 
00005d1d 4f495352 
00005d21 3028204e 
00005d25 002975 
00005d28 04        13376 	.data.b	4
00005d29 01        13377 	.data.b	1
00005d2a 6d        13378 	.data.b	109
00005d2b 44545356  13379 	.data.b	86,83,84,68,76,73,66,95,83,85,80,80,79,82,84,95,76,65,82,71,69,95,68,65,84,65,32,83,84,68,95,79,78,0
00005d2f 5f42494c 
00005d33 50505553 
00005d37 5f54524f 
00005d3b 4752414c 
00005d3f 41445f45 
00005d43 53204154 
00005d47 4f5f4454 
00005d4b 004e 
00005d4d 03        13380 	.data.b	3
00005d4e 0383      13381 	.data.b	131,3
00005d50 12        13382 	.data.b	18
00005d51 04        13383 	.data.b	4
00005d52 03        13384 	.data.b	3
00005d53 0485      13385 	.data.b	133,4
00005d55 12        13386 	.data.b	18
00005d56 04        13387 	.data.b	4
00005d57 01        13388 	.data.b	1
00005d58 04a9      13389 	.data.b	169,4
00005d5a 64745356  13390 	.data.b	86,83,116,100,76,105,98,95,77,101,109,67,112,121,82,111,109,40,100,44,115,44,99,41,32,86,83,116,100,76,105,98,95,77,101,109,67,112,121,40,40,100,41,44,32,40,115,41,44,32,40,99,41,41,0
00005d5e 5f62694c 

                                                                      Page 346
                                                              C:\Users\Fengyuan\AppData\Local\Temp\gh_0000fuk1.s
00005d62 436d654d 
00005d66 6f527970 
00005d6a 2c64286d 
00005d6e 29632c73 
00005d72 74535620 
00005d76 62694c64 
00005d7a 6d654d5f 
00005d7e 28797043 
00005d82 2c296428 
00005d86 29732820 
00005d8a 6328202c 
00005d8e 002929 
00005d91 01        13391 	.data.b	1
00005d92 04af      13392 	.data.b	175,4
00005d94 64745356  13393 	.data.b	86,83,116,100,77,101,109,83,101,116,40,100,44,112,44,99,41,32,86,83,116,100,76,105,98,95,77,101,109,83,101,116,40,40,100,41,44,32,40,112,41,44,32,40,99,41,41,0
00005d98 536d654d 
00005d9c 64287465 
00005da0 632c702c 
00005da4 53562029 
00005da8 694c6474 
00005dac 654d5f62 
00005db0 7465536d 
00005db4 29642828 
00005db8 7028202c 
00005dbc 28202c29 
00005dc0 00292963 
00005dc4 01        13394 	.data.b	1
00005dc5 04b5      13395 	.data.b	181,4
00005dc7 64745356  13396 	.data.b	86,83,116,100,77,101,109,67,112,121,82,97,109,84,111,82,97,109,40,100,44,115,44,99,41,32,86,83,116,100,76,105,98,95,77,101,109,67,112,121,40,40,100,41,44,32,40,115,41,44,32,40,99,41,41,0
00005dcb 436d654d 
00005dcf 61527970 
00005dd3 526f546d 
00005dd7 64286d61 
00005ddb 632c732c 
00005ddf 53562029 
00005de3 694c6474 
00005de7 654d5f62 
00005deb 7970436d 
00005def 29642828 
00005df3 7328202c 
00005df7 28202c29 
00005dfb 00292963 
00005dff 01        13397 	.data.b	1
00005e00 04b6      13398 	.data.b	182,4
00005e02 64745356  13399 	.data.b	86,83,116,100,77,101,109,67,112,121,82,111,109,84,111,82,97,109,40,100,44,115,44,99,41,32,86,83,116,100,76,105,98,95,77,101,109,67,112,121,82,111,109,40,40,100,41,44,32,40,115,41,44,32,40,99,41,41,0
00005e06 436d654d 
00005e0a 6f527970 
00005e0e 526f546d 
00005e12 64286d61 
00005e16 632c732c 
00005e1a 53562029 
00005e1e 694c6474 
00005e22 654d5f62 
00005e26 7970436d 
00005e2a 286d6f52 
00005e2e 2c296428 
00005e32 29732820 
00005e36 6328202c 
00005e3a 002929 
00005e3d 04        13400 	.data.b	4
00005e3e 03        13401 	.data.b	3

                                                                      Page 347
                                                              C:\Users\Fengyuan\AppData\Local\Temp\gh_0000fuk1.s
00005e3f 01e5      13402 	.data.b	229,1
00005e41 19        13403 	.data.b	25
00005e42 03        13404 	.data.b	3
00005e43 3e        13405 	.data.b	62
00005e44 12        13406 	.data.b	18
00005e45 04        13407 	.data.b	4
00005e46 03        13408 	.data.b	3
00005e47 61        13409 	.data.b	97
00005e48 12        13410 	.data.b	18
00005e49 04        13411 	.data.b	4
00005e4a 04        13412 	.data.b	4
00005e4b 01        13413 	.data.b	1
00005e4c 01eb      13414 	.data.b	235,1
00005e4e 5f4d4f43  13415 	.data.b	67,79,77,95,77,79,68,85,76,69,95,73,68,32,53,48,117,0
00005e52 55444f4d 
00005e56 495f454c 
00005e5a 30352044 
00005e5e 0075 
00005e60 01        13416 	.data.b	1
00005e61 0280      13417 	.data.b	128,2
00005e63 5f4d4f43  13418 	.data.b	67,79,77,95,83,87,95,77,65,74,79,82,95,86,69,82,83,73,79,78,32,49,53,117,0
00005e67 4d5f5753 
00005e6b 524f4a41 
00005e6f 5245565f 
00005e73 4e4f4953 
00005e77 75353120 
00005e7b 00 
00005e7c 01        13419 	.data.b	1
00005e7d 0281      13420 	.data.b	129,2
00005e7f 5f4d4f43  13421 	.data.b	67,79,77,95,83,87,95,77,73,78,79,82,95,86,69,82,83,73,79,78,32,49,117,0
00005e83 4d5f5753 
00005e87 524f4e49 
00005e8b 5245565f 
00005e8f 4e4f4953 
00005e93 00753120 
00005e97 01        13422 	.data.b	1
00005e98 0282      13423 	.data.b	130,2
00005e9a 5f4d4f43  13424 	.data.b	67,79,77,95,83,87,95,80,65,84,67,72,95,86,69,82,83,73,79,78,32,50,117,0
00005e9e 505f5753 
00005ea2 48435441 
00005ea6 5245565f 
00005eaa 4e4f4953 
00005eae 00753220 
00005eb2 01        13425 	.data.b	1
00005eb3 028e      13426 	.data.b	142,2
00005eb5 5f4d4f43  13427 	.data.b	67,79,77,95,69,95,78,79,95,69,82,82,79,82,32,48,117,0
00005eb9 4f4e5f45 
00005ebd 5252455f 
00005ec1 3020524f 
00005ec5 0075 
00005ec7 01        13428 	.data.b	1
00005ec8 028f      13429 	.data.b	143,2
00005eca 5f4d4f43  13430 	.data.b	67,79,77,95,69,95,80,65,82,65,77,32,49,117,0
00005ece 41505f45 
00005ed2 204d4152 
00005ed6 007531 
00005ed9 01        13431 	.data.b	1
00005eda 0290      13432 	.data.b	144,2
00005edc 5f4d4f43  13433 	.data.b	67,79,77,95,69,95,85,78,73,78,73,84,32,50,117,0
00005ee0 4e555f45 
00005ee4 54494e49 

                                                                      Page 348
                                                              C:\Users\Fengyuan\AppData\Local\Temp\gh_0000fuk1.s
00005ee8 00753220 
00005eec 01        13434 	.data.b	1
00005eed 0291      13435 	.data.b	145,2
00005eef 5f4d4f43  13436 	.data.b	67,79,77,95,69,95,80,65,82,65,77,95,80,79,73,78,84,69,82,32,51,117,0
00005ef3 41505f45 
00005ef7 5f4d4152 
00005efb 4e494f50 
00005eff 20524554 
00005f03 007533 
00005f06 01        13437 	.data.b	1
00005f07 0292      13438 	.data.b	146,2
00005f09 5f4d4f43  13439 	.data.b	67,79,77,95,69,95,73,78,73,84,95,70,65,73,76,69,68,32,52,117,0
00005f0d 4e495f45 
00005f11 465f5449 
00005f15 454c4941 
00005f19 75342044 
00005f1d 00 
00005f1e 01        13440 	.data.b	1
00005f1f 029d      13441 	.data.b	157,2
00005f21 5f4d4f43  13442 	.data.b	67,79,77,95,83,69,82,86,73,67,69,95,78,79,84,95,65,86,65,73,76,65,66,76,69,32,49,50,56,117,0
00005f25 56524553 
00005f29 5f454349 
00005f2d 5f544f4e 
00005f31 49415641 
00005f35 4c42414c 
00005f39 32312045 
00005f3d 007538 
00005f40 01        13443 	.data.b	1
00005f41 02be      13444 	.data.b	190,2
00005f43 5f4d4f43  13445 	.data.b	67,79,77,95,67,65,83,84,50,85,73,78,84,56,40,97,114,103,117,109,101,110,116,41,32,40,40,117,105,110,116,56,41,32,40,97,114,103,117,109,101,110,116,41,41,0
00005f47 54534143 
00005f4b 4e495532 
00005f4f 61283854 
00005f53 6d756772 
00005f57 29746e65 
00005f5b 75282820 
00005f5f 38746e69 
00005f63 61282029 
00005f67 6d756772 
00005f6b 29746e65 
00005f6f 0029 
00005f71 01        13446 	.data.b	1
00005f72 02cf      13447 	.data.b	207,2
00005f74 5f6d6f43  13448 	.data.b	67,111,109,95,76,77,103,116,95,67,97,108,108,68,101,116,69,114,114,111,114,67,111,110,116,105,110,117,101,40,65,80,73,95,73,68,44,69,82,82,79,82,95,67,79,68,69,41,32,40,118,111,105,100,41,32,68,101,116,95
00005f78 74674d4c 
00005f7c 6c61435f 
00005f80 7465446c 
00005f84 6f727245 
00005f88 6e6f4372 
00005f8c 756e6974 
00005f90 50412865 
00005f94 44495f49 
00005f98 5252452c 
00005f9c 435f524f 
00005fa0 2945444f 
00005fa4 6f762820 
00005fa8 20296469 
00005fac 5f746544 
00005fb0 6f706552  13449 	.data.b	82,101,112,111,114,116,69,114,114,111,114,40,32,40,67,79,77,95,77,79,68,85,76,69,95,73,68,41,44,32,48,117,44,32,40,40,117,105,110,116,56,41,40,65,80,73,95,73,68,41,41,44,32,40,40,117,105,110,116,56
00005fb4 72457472 
00005fb8 28726f72 

                                                                      Page 349
                                                              C:\Users\Fengyuan\AppData\Local\Temp\gh_0000fuk1.s
00005fbc 4f432820 
00005fc0 4f4d5f4d 
00005fc4 454c5544 
00005fc8 2944495f 
00005fcc 7530202c 
00005fd0 2828202c 
00005fd4 746e6975 
00005fd8 41282938 
00005fdc 495f4950 
00005fe0 2c292944 
00005fe4 75282820 
00005fe8 38746e69 
00005fec 52452829  13450 	.data.b	41,40,69,82,82,79,82,95,67,79,68,69,41,41,41,0
00005ff0 5f524f52 
00005ff4 45444f43 
00005ff8 00292929 
00005ffc 03        13451 	.data.b	3
00005ffd 03d6      13452 	.data.b	214,3
00005fff 12        13453 	.data.b	18
00006000 04        13454 	.data.b	4
00006001 03        13455 	.data.b	3
00006002 09d3      13456 	.data.b	211,9
00006004 12        13457 	.data.b	18
00006005 04        13458 	.data.b	4
00006006 04        13459 	.data.b	4
00006007 03        13460 	.data.b	3
00006008 38        13461 	.data.b	56
00006009 1a        13462 	.data.b	26
0000600a 04        13463 	.data.b	4
0000600b 03        13464 	.data.b	3
0000600c 3c        13465 	.data.b	60
0000600d 1b        13466 	.data.b	27
0000600e 03        13467 	.data.b	3
0000600f 1c        13468 	.data.b	28
00006010 1c        13469 	.data.b	28
00006011 03        13470 	.data.b	3
00006012 1c        13471 	.data.b	28
00006013 1d        13472 	.data.b	29
00006014 03        13473 	.data.b	3
00006015 1a        13474 	.data.b	26
00006016 1e        13475 	.data.b	30
00006017 03        13476 	.data.b	3
00006018 28        13477 	.data.b	40
00006019 1f        13478 	.data.b	31
0000601a 04        13479 	.data.b	4
0000601b 04        13480 	.data.b	4
0000601c 03        13481 	.data.b	3
0000601d 01c4      13482 	.data.b	196,1
0000601f 20        13483 	.data.b	32
00006020 04        13484 	.data.b	4
00006021 04        13485 	.data.b	4
00006022 04        13486 	.data.b	4
00006023 03        13487 	.data.b	3
00006024 1e        13488 	.data.b	30
00006025 21        13489 	.data.b	33
00006026 03        13490 	.data.b	3
00006027 0388      13491 	.data.b	136,3
00006029 22        13492 	.data.b	34
0000602a 03        13493 	.data.b	3
0000602b 27        13494 	.data.b	39
0000602c 23        13495 	.data.b	35

                                                                      Page 350
                                                              C:\Users\Fengyuan\AppData\Local\Temp\gh_0000fuk1.s
0000602d 01        13496 	.data.b	1
0000602e 21        13497 	.data.b	33
0000602f 4c5f534f  13498 	.data.b	79,83,95,76,67,70,71,95,72,32,0
00006033 5f474643 
00006037 002048 
0000603a 03        13499 	.data.b	3
0000603b 2b        13500 	.data.b	43
0000603c 24        13501 	.data.b	36
0000603d 01        13502 	.data.b	1
0000603e 21        13503 	.data.b	33
0000603f 435f534f  13504 	.data.b	79,83,95,67,70,71,95,72,32,0
00006043 485f4746 
00006047 0020 
00006049 03        13505 	.data.b	3
0000604a 2e        13506 	.data.b	46
0000604b 25        13507 	.data.b	37
0000604c 04        13508 	.data.b	4
0000604d 01        13509 	.data.b	1
0000604e 4e        13510 	.data.b	78
0000604f 435f534f  13511 	.data.b	79,83,95,67,70,71,95,80,82,69,84,65,83,75,72,79,79,75,32,40,83,84,68,95,79,70,70,41,0
00006053 505f4746 
00006057 41544552 
0000605b 4f484b53 
0000605f 28204b4f 
00006063 5f445453 
00006067 2946464f 
0000606b 00 
0000606c 01        13512 	.data.b	1
0000606d 51        13513 	.data.b	81
0000606e 435f534f  13514 	.data.b	79,83,95,67,70,71,95,80,79,83,84,84,65,83,75,72,79,79,75,32,40,83,84,68,95,79,70,70,41,0
00006072 505f4746 
00006076 5454534f 
0000607a 484b5341 
0000607e 204b4f4f 
00006082 44545328 
00006086 46464f5f 
0000608a 0029 
0000608c 01        13515 	.data.b	1
0000608d 54        13516 	.data.b	84
0000608e 435f534f  13517 	.data.b	79,83,95,67,70,71,95,80,65,78,73,67,72,79,79,75,32,40,83,84,68,95,79,78,41,0
00006092 505f4746 
00006096 43494e41 
0000609a 4b4f4f48 
0000609e 54532820 
000060a2 4e4f5f44 
000060a6 0029 
000060a8 01        13518 	.data.b	1
000060a9 57        13519 	.data.b	87
000060aa 435f534f  13520 	.data.b	79,83,95,67,70,71,95,83,84,65,82,84,85,80,72,79,79,75,95,83,89,83,84,69,77,32,40,83,84,68,95,79,70,70,41,0
000060ae 535f4746 
000060b2 54524154 
000060b6 4f485055 
000060ba 535f4b4f 
000060be 45545359 
000060c2 5328204d 
000060c6 4f5f4454 
000060ca 00294646 
000060ce 01        13521 	.data.b	1
000060cf 5a        13522 	.data.b	90
000060d0 435f534f  13523 	.data.b	79,83,95,67,70,71,95,83,72,85,84,68,79,87,78,72,79,79,75,95,83,89,83,84,69,77,32,40,83,84,68,95,79,70,70,41,0
000060d4 535f4746 

                                                                      Page 351
                                                              C:\Users\Fengyuan\AppData\Local\Temp\gh_0000fuk1.s
000060d8 44545548 
000060dc 484e574f 
000060e0 5f4b4f4f 
000060e4 54535953 
000060e8 28204d45 
000060ec 5f445453 
000060f0 2946464f 
000060f4 00 
000060f5 01        13524 	.data.b	1
000060f6 5d        13525 	.data.b	93
000060f7 435f534f  13526 	.data.b	79,83,95,67,70,71,95,69,82,82,79,82,72,79,79,75,95,83,89,83,84,69,77,32,40,83,84,68,95,79,78,41,0
000060fb 455f4746 
000060ff 524f5252 
00006103 4b4f4f48 
00006107 5359535f 
0000610b 204d4554 
0000610f 44545328 
00006113 294e4f5f 
00006117 00 
00006118 01        13527 	.data.b	1
00006119 60        13528 	.data.b	96
0000611a 435f534f  13529 	.data.b	79,83,95,67,70,71,95,80,82,79,84,69,67,84,73,79,78,72,79,79,75,95,83,89,83,84,69,77,32,40,83,84,68,95,79,70,70,41,0
0000611e 505f4746 
00006122 45544f52 
00006126 4f495443 
0000612a 4f4f484e 
0000612e 59535f4b 
00006132 4d455453 
00006136 54532820 
0000613a 464f5f44 
0000613e 002946 
00006141 01        13530 	.data.b	1
00006142 63        13531 	.data.b	99
00006143 435f534f  13532 	.data.b	79,83,95,67,70,71,95,80,69,82,73,80,72,69,82,65,76,95,67,79,77,80,65,84,73,66,73,76,73,84,89,32,40,83,84,68,95,79,70,70,41,0
00006147 505f4746 
0000614b 50495245 
0000614f 41524548 
00006153 4f435f4c 
00006157 5441504d 
0000615b 4c494249 
0000615f 20595449 
00006163 44545328 
00006167 46464f5f 
0000616b 0029 
0000616d 04        13533 	.data.b	4
0000616e 03        13534 	.data.b	3
0000616f 2c        13535 	.data.b	44
00006170 26        13536 	.data.b	38
00006171 03        13537 	.data.b	3
00006172 27        13538 	.data.b	39
00006173 27        13539 	.data.b	39
00006174 01        13540 	.data.b	1
00006175 21        13541 	.data.b	33
00006176 545f534f  13542 	.data.b	79,83,95,84,89,80,69,83,95,76,67,70,71,95,72,32,0
0000617a 53455059 
0000617e 46434c5f 
00006182 20485f47 
00006186 00 
00006187 01        13543 	.data.b	1
00006188 35        13544 	.data.b	53
00006189 74737953  13545 	.data.b	83,121,115,116,101,109,65,112,112,108,105,99,97,116,105,111,110,95,79,115,67,111,114,101,48,32,83,121,115,116,101,109,65,112,112,108,105,99,97,116,105,111,110,95,79,115,67,111,114,101,48,0

                                                                      Page 352
                                                              C:\Users\Fengyuan\AppData\Local\Temp\gh_0000fuk1.s
0000618d 70416d65 
00006191 63696c70 
00006195 6f697461 
00006199 734f5f6e 
0000619d 65726f43 
000061a1 79532030 
000061a5 6d657473 
000061a9 6c707041 
000061ad 74616369 
000061b1 5f6e6f69 
000061b5 6f43734f 
000061b9 00306572 
000061bd 01        13546 	.data.b	1
000061be 3e        13547 	.data.b	62
000061bf 61666544  13548 	.data.b	68,101,102,97,117,108,116,95,73,110,105,116,95,84,97,115,107,32,68,101,102,97,117,108,116,95,73,110,105,116,95,84,97,115,107,0
000061c3 5f746c75 
000061c7 74696e49 
000061cb 7361545f 
000061cf 6544206b 
000061d3 6c756166 
000061d7 6e495f74 
000061db 545f7469 
000061df 006b7361 
000061e3 01        13549 	.data.b	1
000061e4 3f        13550 	.data.b	63
000061e5 656c6449  13551 	.data.b	73,100,108,101,84,97,115,107,95,79,115,67,111,114,101,48,32,73,100,108,101,84,97,115,107,95,79,115,67,111,114,101,48,0
000061e9 6b736154 
000061ed 43734f5f 
000061f1 3065726f 
000061f5 6c644920 
000061f9 73615465 
000061fd 734f5f6b 
00006201 65726f43 
00006205 0030 
00006207 01        13552 	.data.b	1
00006208 40        13553 	.data.b	64
00006209 6154734f  13554 	.data.b	79,115,84,97,115,107,95,65,80,80,32,79,115,84,97,115,107,95,65,80,80,0
0000620d 415f6b73 
00006211 4f205050 
00006215 73615473 
00006219 50415f6b 
0000621d 0050 
0000621f 01        13555 	.data.b	1
00006220 41        13556 	.data.b	65
00006221 6154734f  13557 	.data.b	79,115,84,97,115,107,95,66,83,87,95,83,67,72,77,32,79,115,84,97,115,107,95,66,83,87,95,83,67,72,77,0
00006225 425f6b73 
00006229 535f5753 
0000622d 204d4843 
00006231 6154734f 
00006235 425f6b73 
00006239 535f5753 
0000623d 004d4843 
00006241 01        13558 	.data.b	1
00006242 44        13559 	.data.b	68
00006243 496e6143  13560 	.data.b	67,97,110,73,115,114,95,48,95,66,117,115,79,102,102,32,67,97,110,73,115,114,95,48,95,66,117,115,79,102,102,0
00006247 305f7273 
0000624b 7375425f 
0000624f 2066664f 
00006253 496e6143 
00006257 305f7273 
0000625b 7375425f 

                                                                      Page 353
                                                              C:\Users\Fengyuan\AppData\Local\Temp\gh_0000fuk1.s
0000625f 0066664f 
00006263 01        13561 	.data.b	1
00006264 45        13562 	.data.b	69
00006265 496e6143  13563 	.data.b	67,97,110,73,115,114,95,48,95,77,66,48,48,84,111,49,53,32,67,97,110,73,115,114,95,48,95,77,66,48,48,84,111,49,53,0
00006269 305f7273 
0000626d 30424d5f 
00006271 316f5430 
00006275 61432035 
00006279 7273496e 
0000627d 4d5f305f 
00006281 54303042 
00006285 0035316f 
00006289 01        13564 	.data.b	1
0000628a 46        13565 	.data.b	70
0000628b 496e6143  13566 	.data.b	67,97,110,73,115,114,95,48,95,77,66,49,54,84,111,51,49,32,67,97,110,73,115,114,95,48,95,77,66,49,54,84,111,51,49,0
0000628f 305f7273 
00006293 31424d5f 
00006297 336f5436 
0000629b 61432031 
0000629f 7273496e 
000062a3 4d5f305f 
000062a7 54363142 
000062ab 0031336f 
000062af 01        13567 	.data.b	1
000062b0 47        13568 	.data.b	71
000062b1 6e756f43  13569 	.data.b	67,111,117,110,116,101,114,73,115,114,95,83,121,115,116,101,109,84,105,109,101,114,32,67,111,117,110,116,101,114,73,115,114,95,83,121,115,116,101,109,84,105,109,101,114,0
000062b5 49726574 
000062b9 535f7273 
000062bd 65747379 
000062c1 6d69546d 
000062c5 43207265 
000062c9 746e756f 
000062cd 73497265 
000062d1 79535f72 
000062d5 6d657473 
000062d9 656d6954 
000062dd 0072 
000062df 01        13570 	.data.b	1
000062e0 4a        13571 	.data.b	74
000062e1 5f657452  13572 	.data.b	82,116,101,95,65,108,95,84,69,50,95,79,115,84,97,115,107,95,66,83,87,95,83,67,72,77,95,48,95,49,48,109,115,32,82,116,101,95,65,108,95,84,69,50,95,79,115,84,97,115,107,95,66,83,87,95,83,67,72,77
000062e5 545f6c41 
000062e9 4f5f3245 
000062ed 73615473 
000062f1 53425f6b 
000062f5 43535f57 
000062f9 305f4d48 
000062fd 6d30315f 
00006301 74522073 
00006305 6c415f65 
00006309 3245545f 
0000630d 54734f5f 
00006311 5f6b7361 
00006315 5f575342 
00006319 4d484353 
0000631d 315f305f  13573 	.data.b	95,48,95,49,48,109,115,0
00006321 00736d30 
00006325 01        13574 	.data.b	1
00006326 4b        13575 	.data.b	75
00006327 5f657452  13576 	.data.b	82,116,101,95,65,108,95,84,69,50,95,79,115,84,97,115,107,95,66,83,87,95,83,67,72,77,95,48,95,50,48,109,115,32,82,116,101,95,65,108,95,84,69,50,95,79,115,84,97,115,107,95,66,83,87,95,83,67,72,77
0000632b 545f6c41 
0000632f 4f5f3245 

                                                                      Page 354
                                                              C:\Users\Fengyuan\AppData\Local\Temp\gh_0000fuk1.s
00006333 73615473 
00006337 53425f6b 
0000633b 43535f57 
0000633f 305f4d48 
00006343 6d30325f 
00006347 74522073 
0000634b 6c415f65 
0000634f 3245545f 
00006353 54734f5f 
00006357 5f6b7361 
0000635b 5f575342 
0000635f 4d484353 
00006363 325f305f  13577 	.data.b	95,48,95,50,48,109,115,0
00006367 00736d30 
0000636b 01        13578 	.data.b	1
0000636c 4c        13579 	.data.b	76
0000636d 5f657452  13580 	.data.b	82,116,101,95,65,108,95,84,69,95,67,97,110,84,112,95,67,97,110,84,112,95,77,97,105,110,70,117,110,99,116,105,111,110,32,82,116,101,95,65,108,95,84,69,95,67,97,110,84,112,95,67,97,110,84,112,95,77,97,105
00006371 545f6c41 
00006375 61435f45 
00006379 5f70546e 
0000637d 546e6143 
00006381 614d5f70 
00006385 75466e69 
00006389 6974636e 
0000638d 52206e6f 
00006391 415f6574 
00006395 45545f6c 
00006399 6e61435f 
0000639d 435f7054 
000063a1 70546e61 
000063a5 69614d5f 
000063a9 6e75466e  13581 	.data.b	110,70,117,110,99,116,105,111,110,0
000063ad 6f697463 
000063b1 006e 
000063b3 01        13582 	.data.b	1
000063b4 4d        13583 	.data.b	77
000063b5 5f657452  13584 	.data.b	82,116,101,95,65,108,95,84,69,95,67,100,100,95,83,66,67,95,85,74,65,49,49,54,57,95,83,98,99,95,84,101,115,116,95,82,117,110,110,97,98,108,101,32,82,116,101,95,65,108,95,84,69,95,67,100,100,95,83,66
000063b9 545f6c41 
000063bd 64435f45 
000063c1 42535f64 
000063c5 4a555f43 
000063c9 36313141 
000063cd 62535f39 
000063d1 65545f63 
000063d5 525f7473 
000063d9 616e6e75 
000063dd 20656c62 
000063e1 5f657452 
000063e5 545f6c41 
000063e9 64435f45 
000063ed 42535f64 
000063f1 4a555f43  13585 	.data.b	67,95,85,74,65,49,49,54,57,95,83,98,99,95,84,101,115,116,95,82,117,110,110,97,98,108,101,0
000063f5 36313141 
000063f9 62535f39 
000063fd 65545f63 
00006401 525f7473 
00006405 616e6e75 
00006409 00656c62 
0000640d 01        13586 	.data.b	1
0000640e 4e        13587 	.data.b	78
0000640f 5f657452  13588 	.data.b	82,116,101,95,65,108,95,84,69,95,67,112,76,101,100,84,97,115,107,95,76,101,100,82,117,110,110,97,98,108,101,32,82,116,101,95,65,108,95,84,69,95,67,112,76,101,100,84,97,115,107,95,76,101,100,82,117,110,110,97

                                                                      Page 355
                                                              C:\Users\Fengyuan\AppData\Local\Temp\gh_0000fuk1.s
00006413 545f6c41 
00006417 70435f45 
0000641b 5464654c 
0000641f 5f6b7361 
00006423 5264654c 
00006427 616e6e75 
0000642b 20656c62 
0000642f 5f657452 
00006433 545f6c41 
00006437 70435f45 
0000643b 5464654c 
0000643f 5f6b7361 
00006443 5264654c 
00006447 616e6e75 
0000644b 00656c62  13589 	.data.b	98,108,101,0
0000644f 01        13590 	.data.b	1
00006450 51        13591 	.data.b	81
00006451 74737953  13592 	.data.b	83,121,115,116,101,109,84,105,109,101,114,32,83,121,115,116,101,109,84,105,109,101,114,0
00006455 69546d65 
00006459 2072656d 
0000645d 74737953 
00006461 69546d65 
00006465 0072656d 
00006469 01        13593 	.data.b	1
0000646a 56        13594 	.data.b	86
0000646b 6552734f  13595 	.data.b	79,115,82,101,115,111,117,114,99,101,32,79,115,82,101,115,111,117,114,99,101,0
0000646f 72756f73 
00006473 4f206563 
00006477 73655273 
0000647b 6372756f 
0000647f 0065 
00006481 04        13596 	.data.b	4
00006482 03        13597 	.data.b	3
00006483 2b        13598 	.data.b	43
00006484 28        13599 	.data.b	40
00006485 01        13600 	.data.b	1
00006486 1c        13601 	.data.b	28
00006487 485f534f  13602 	.data.b	79,83,95,72,65,76,95,79,83,95,84,89,80,69,83,95,72,32,0
0000648b 4f5f4c41 
0000648f 59545f53 
00006493 5f534550 
00006497 002048 
0000649a 04        13603 	.data.b	4
0000649b 01        13604 	.data.b	1
0000649c 33        13605 	.data.b	51
0000649d 534f5f45  13606 	.data.b	69,95,79,83,95,65,67,67,69,83,83,32,40,40,83,116,97,116,117,115,84,121,112,101,41,48,120,48,49,41,0
000064a1 4343415f 
000064a5 20535345 
000064a9 74532828 
000064ad 73757461 
000064b1 65707954 
000064b5 30783029 
000064b9 002931 
000064bc 01        13607 	.data.b	1
000064bd 35        13608 	.data.b	53
000064be 534f5f45  13609 	.data.b	69,95,79,83,95,67,65,76,76,69,86,69,76,32,40,40,83,116,97,116,117,115,84,121,112,101,41,48,120,48,50,41,0
000064c2 4c41435f 
000064c6 4556454c 
000064ca 2828204c 
000064ce 74617453 
000064d2 79547375 

                                                                      Page 356
                                                              C:\Users\Fengyuan\AppData\Local\Temp\gh_0000fuk1.s
000064d6 30296570 
000064da 29323078 
000064de 00 
000064df 01        13610 	.data.b	1
000064e0 37        13611 	.data.b	55
000064e1 534f5f45  13612 	.data.b	69,95,79,83,95,73,68,32,40,40,83,116,97,116,117,115,84,121,112,101,41,48,120,48,51,41,0
000064e5 2044495f 
000064e9 74532828 
000064ed 73757461 
000064f1 65707954 
000064f5 30783029 
000064f9 002933 
000064fc 01        13613 	.data.b	1
000064fd 39        13614 	.data.b	57
000064fe 534f5f45  13615 	.data.b	69,95,79,83,95,76,73,77,73,84,32,40,40,83,116,97,116,117,115,84,121,112,101,41,48,120,48,52,41,0
00006502 4d494c5f 
00006506 28205449 
0000650a 61745328 
0000650e 54737574 
00006512 29657079 
00006516 34307830 
0000651a 0029 
0000651c 01        13616 	.data.b	1
0000651d 3b        13617 	.data.b	59
0000651e 534f5f45  13618 	.data.b	69,95,79,83,95,78,79,70,85,78,67,32,40,40,83,116,97,116,117,115,84,121,112,101,41,48,120,48,53,41,0
00006522 464f4e5f 
00006526 20434e55 
0000652a 74532828 
0000652e 73757461 
00006532 65707954 
00006536 30783029 
0000653a 002935 
0000653d 01        13619 	.data.b	1
0000653e 3d        13620 	.data.b	61
0000653f 534f5f45  13621 	.data.b	69,95,79,83,95,82,69,83,79,85,82,67,69,32,40,40,83,116,97,116,117,115,84,121,112,101,41,48,120,48,54,41,0
00006543 5345525f 
00006547 4352554f 
0000654b 28282045 
0000654f 74617453 
00006553 79547375 
00006557 30296570 
0000655b 29363078 
0000655f 00 
00006560 01        13622 	.data.b	1
00006561 3f        13623 	.data.b	63
00006562 534f5f45  13624 	.data.b	69,95,79,83,95,83,84,65,84,69,32,40,40,83,116,97,116,117,115,84,121,112,101,41,48,120,48,55,41,0
00006566 4154535f 
0000656a 28204554 
0000656e 61745328 
00006572 54737574 
00006576 29657079 
0000657a 37307830 
0000657e 0029 
00006580 01        13625 	.data.b	1
00006581 41        13626 	.data.b	65
00006582 534f5f45  13627 	.data.b	69,95,79,83,95,86,65,76,85,69,32,40,40,83,116,97,116,117,115,84,121,112,101,41,48,120,48,56,41,0
00006586 4c41565f 
0000658a 28204555 
0000658e 61745328 
00006592 54737574 
00006596 29657079 

                                                                      Page 357
                                                              C:\Users\Fengyuan\AppData\Local\Temp\gh_0000fuk1.s
0000659a 38307830 
0000659e 0029 
000065a0 01        13628 	.data.b	1
000065a1 45        13629 	.data.b	69
000065a2 534f5f45  13630 	.data.b	69,95,79,83,95,83,69,82,86,73,67,69,73,68,32,40,40,83,116,97,116,117,115,84,121,112,101,41,48,120,48,57,41,0
000065a6 5245535f 
000065aa 45434956 
000065ae 28204449 
000065b2 61745328 
000065b6 54737574 
000065ba 29657079 
000065be 39307830 
000065c2 0029 
000065c4 01        13631 	.data.b	1
000065c5 49        13632 	.data.b	73
000065c6 534f5f45  13633 	.data.b	69,95,79,83,95,73,76,76,69,71,65,76,95,65,68,68,82,69,83,83,32,40,40,83,116,97,116,117,115,84,121,112,101,41,48,120,48,65,41,0
000065ca 4c4c495f 
000065ce 4c414745 
000065d2 4444415f 
000065d6 53534552 
000065da 53282820 
000065de 75746174 
000065e2 70795473 
000065e6 78302965 
000065ea 00294130 
000065ee 01        13634 	.data.b	1
000065ef 4b        13635 	.data.b	75
000065f0 534f5f45  13636 	.data.b	69,95,79,83,95,77,73,83,83,73,78,71,69,78,68,32,40,40,83,116,97,116,117,115,84,121,112,101,41,48,120,48,66,41,0
000065f4 53494d5f 
000065f8 474e4953 
000065fc 20444e45 
00006600 74532828 
00006604 73757461 
00006608 65707954 
0000660c 30783029 
00006610 002942 
00006613 01        13637 	.data.b	1
00006614 4d        13638 	.data.b	77
00006615 534f5f45  13639 	.data.b	69,95,79,83,95,68,73,83,65,66,76,69,68,73,78,84,32,40,40,83,116,97,116,117,115,84,121,112,101,41,48,120,48,67,41,0
00006619 5349445f 
0000661d 454c4241 
00006621 544e4944 
00006625 53282820 
00006629 75746174 
0000662d 70795473 
00006631 78302965 
00006635 00294330 
00006639 01        13640 	.data.b	1
0000663a 4f        13641 	.data.b	79
0000663b 534f5f45  13642 	.data.b	69,95,79,83,95,83,84,65,67,75,70,65,85,76,84,32,40,40,83,116,97,116,117,115,84,121,112,101,41,48,120,48,68,41,0
0000663f 4154535f 
00006643 41464b43 
00006647 20544c55 
0000664b 74532828 
0000664f 73757461 
00006653 65707954 
00006657 30783029 
0000665b 002944 
0000665e 01        13643 	.data.b	1
0000665f 51        13644 	.data.b	81
00006660 534f5f45  13645 	.data.b	69,95,79,83,95,80,82,79,84,69,67,84,73,79,78,95,77,69,77,79,82,89,32,40,40,83,116,97,116,117,115,84,121,112,101,41,48,120,48,69,41,0

                                                                      Page 358
                                                              C:\Users\Fengyuan\AppData\Local\Temp\gh_0000fuk1.s
00006664 4f52505f 
00006668 54434554 
0000666c 5f4e4f49 
00006670 4f4d454d 
00006674 28205952 
00006678 61745328 
0000667c 54737574 
00006680 29657079 
00006684 45307830 
00006688 0029 
0000668a 01        13646 	.data.b	1
0000668b 53        13647 	.data.b	83
0000668c 534f5f45  13648 	.data.b	69,95,79,83,95,80,82,79,84,69,67,84,73,79,78,95,84,73,77,69,32,40,40,83,116,97,116,117,115,84,121,112,101,41,48,120,48,70,41,0
00006690 4f52505f 
00006694 54434554 
00006698 5f4e4f49 
0000669c 454d4954 
000066a0 53282820 
000066a4 75746174 
000066a8 70795473 
000066ac 78302965 
000066b0 00294630 
000066b4 01        13649 	.data.b	1
000066b5 55        13650 	.data.b	85
000066b6 534f5f45  13651 	.data.b	69,95,79,83,95,80,82,79,84,69,67,84,73,79,78,95,65,82,82,73,86,65,76,32,40,40,83,116,97,116,117,115,84,121,112,101,41,48,120,49,48,41,0
000066ba 4f52505f 
000066be 54434554 
000066c2 5f4e4f49 
000066c6 49525241 
000066ca 204c4156 
000066ce 74532828 
000066d2 73757461 
000066d6 65707954 
000066da 31783029 
000066de 002930 
000066e1 01        13652 	.data.b	1
000066e2 57        13653 	.data.b	87
000066e3 534f5f45  13654 	.data.b	69,95,79,83,95,80,82,79,84,69,67,84,73,79,78,95,76,79,67,75,69,68,32,40,40,83,116,97,116,117,115,84,121,112,101,41,48,120,49,49,41,0
000066e7 4f52505f 
000066eb 54434554 
000066ef 5f4e4f49 
000066f3 4b434f4c 
000066f7 28204445 
000066fb 61745328 
000066ff 54737574 
00006703 29657079 
00006707 31317830 
0000670b 0029 
0000670d 01        13655 	.data.b	1
0000670e 59        13656 	.data.b	89
0000670f 534f5f45  13657 	.data.b	69,95,79,83,95,80,82,79,84,69,67,84,73,79,78,95,69,88,67,69,80,84,73,79,78,32,40,40,83,116,97,116,117,115,84,121,112,101,41,48,120,49,50,41,0
00006713 4f52505f 
00006717 54434554 
0000671b 5f4e4f49 
0000671f 45435845 
00006723 4f495450 
00006727 2828204e 
0000672b 74617453 
0000672f 79547375 
00006733 30296570 
00006737 29323178 

                                                                      Page 359
                                                              C:\Users\Fengyuan\AppData\Local\Temp\gh_0000fuk1.s
0000673b 00 
0000673c 01        13658 	.data.b	1
0000673d 5b        13659 	.data.b	91
0000673e 534f5f45  13660 	.data.b	69,95,79,83,95,73,78,84,69,82,70,69,82,69,78,67,69,95,68,69,65,68,76,79,67,75,32,40,40,83,116,97,116,117,115,84,121,112,101,41,48,120,49,51,41,0
00006742 544e495f 
00006746 45465245 
0000674a 434e4552 
0000674e 45445f45 
00006752 4f4c4441 
00006756 28204b43 
0000675a 61745328 
0000675e 54737574 
00006762 29657079 
00006766 33317830 
0000676a 0029 
0000676c 01        13661 	.data.b	1
0000676d 5d        13662 	.data.b	93
0000676e 534f5f45  13663 	.data.b	69,95,79,83,95,78,69,83,84,73,78,71,95,68,69,65,68,76,79,67,75,32,40,40,83,116,97,116,117,115,84,121,112,101,41,48,120,49,52,41,0
00006772 53454e5f 
00006776 474e4954 
0000677a 4145445f 
0000677e 434f4c44 
00006782 2828204b 
00006786 74617453 
0000678a 79547375 
0000678e 30296570 
00006792 29343178 
00006796 00 
00006797 01        13664 	.data.b	1
00006798 5f        13665 	.data.b	95
00006799 534f5f45  13666 	.data.b	69,95,79,83,95,83,80,73,78,76,79,67,75,32,40,40,83,116,97,116,117,115,84,121,112,101,41,48,120,49,53,41,0
0000679d 4950535f 
000067a1 434f4c4e 
000067a5 2828204b 
000067a9 74617453 
000067ad 79547375 
000067b1 30296570 
000067b5 29353178 
000067b9 00 
000067ba 01        13667 	.data.b	1
000067bb 61        13668 	.data.b	97
000067bc 534f5f45  13669 	.data.b	69,95,79,83,95,67,79,82,69,32,40,40,83,116,97,116,117,115,84,121,112,101,41,48,120,49,54,41,0
000067c0 524f435f 
000067c4 28282045 
000067c8 74617453 
000067cc 79547375 
000067d0 30296570 
000067d4 29363178 
000067d8 00 
000067d9 01        13670 	.data.b	1
000067da 63        13671 	.data.b	99
000067db 534f5f45  13672 	.data.b	69,95,79,83,95,80,65,82,65,77,95,80,79,73,78,84,69,82,32,40,40,83,116,97,116,117,115,84,121,112,101,41,48,120,49,55,41,0
000067df 5241505f 
000067e3 505f4d41 
000067e7 544e494f 
000067eb 28205245 
000067ef 61745328 
000067f3 54737574 
000067f7 29657079 
000067fb 37317830 
000067ff 0029 

                                                                      Page 360
                                                              C:\Users\Fengyuan\AppData\Local\Temp\gh_0000fuk1.s
00006801 01        13673 	.data.b	1
00006802 67        13674 	.data.b	103
00006803 534f5f45  13675 	.data.b	69,95,79,83,95,83,89,83,95,78,79,95,66,65,82,82,73,69,82,95,80,65,82,84,73,67,73,80,65,78,84,32,40,40,83,116,97,116,117,115,84,121,112,101,41,48,120,70,50,41,0
00006807 5359535f 
0000680b 5f4f4e5f 
0000680f 52524142 
00006813 5f524549 
00006817 54524150 
0000681b 50494349 
0000681f 20544e41 
00006823 74532828 
00006827 73757461 
0000682b 65707954 
0000682f 46783029 
00006833 002932 
00006836 01        13676 	.data.b	1
00006837 6a        13677 	.data.b	106
00006838 534f5f45  13678 	.data.b	69,95,79,83,95,83,89,83,95,85,78,73,77,80,76,69,77,69,78,84,69,68,95,70,85,78,67,84,73,79,78,65,76,73,84,89,32,40,40,83,116,97,116,117,115,84,121,112,101,41,48,120,70,51,41,0
0000683c 5359535f 
00006840 494e555f 
00006844 454c504d 
00006848 544e454d 
0000684c 465f4445 
00006850 54434e55 
00006854 414e4f49 
00006858 5954494c 
0000685c 53282820 
00006860 75746174 
00006864 70795473 
00006868 78302965 
0000686c 00293346 
00006870 01        13679 	.data.b	1
00006871 6c        13680 	.data.b	108
00006872 534f5f45  13681 	.data.b	69,95,79,83,95,83,89,83,95,78,79,95,78,84,70,83,84,65,67,75,32,40,40,83,116,97,116,117,115,84,121,112,101,41,48,120,70,52,41,0
00006876 5359535f 
0000687a 5f4f4e5f 
0000687e 5346544e 
00006882 4b434154 
00006886 53282820 
0000688a 75746174 
0000688e 70795473 
00006892 78302965 
00006896 00293446 
0000689a 01        13682 	.data.b	1
0000689b 6e        13683 	.data.b	110
0000689c 534f5f45  13684 	.data.b	69,95,79,83,95,83,89,83,95,79,86,69,82,70,76,79,87,32,40,40,83,116,97,116,117,115,84,121,112,101,41,48,120,70,53,41,0
000068a0 5359535f 
000068a4 45564f5f 
000068a8 4f4c4652 
000068ac 28282057 
000068b0 74617453 
000068b4 79547375 
000068b8 30296570 
000068bc 29354678 
000068c0 00 
000068c1 01        13685 	.data.b	1
000068c2 70        13686 	.data.b	112
000068c3 534f5f45  13687 	.data.b	69,95,79,83,95,83,89,83,95,75,73,76,76,95,75,69,82,78,69,76,95,79,66,74,32,40,40,83,116,97,116,117,115,84,121,112,101,41,48,120,70,54,41,0
000068c7 5359535f 
000068cb 4c494b5f 
000068cf 454b5f4c 

                                                                      Page 361
                                                              C:\Users\Fengyuan\AppData\Local\Temp\gh_0000fuk1.s
000068d3 4c454e52 
000068d7 4a424f5f 
000068db 53282820 
000068df 75746174 
000068e3 70795473 
000068e7 78302965 
000068eb 00293646 
000068ef 01        13688 	.data.b	1
000068f0 72        13689 	.data.b	114
000068f1 534f5f45  13690 	.data.b	69,95,79,83,95,83,89,83,95,78,79,95,82,69,83,84,65,82,84,84,65,83,75,32,40,40,83,116,97,116,117,115,84,121,112,101,41,48,120,70,55,41,0
000068f5 5359535f 
000068f9 5f4f4e5f 
000068fd 54534552 
00006901 54545241 
00006905 204b5341 
00006909 74532828 
0000690d 73757461 
00006911 65707954 
00006915 46783029 
00006919 002937 
0000691c 01        13691 	.data.b	1
0000691d 74        13692 	.data.b	116
0000691e 534f5f45  13693 	.data.b	69,95,79,83,95,83,89,83,95,67,65,76,76,95,78,79,84,95,65,76,76,79,87,69,68,32,40,40,83,116,97,116,117,115,84,121,112,101,41,48,120,70,56,41,0
00006922 5359535f 
00006926 4c41435f 
0000692a 4f4e5f4c 
0000692e 4c415f54 
00006932 45574f4c 
00006936 28282044 
0000693a 74617453 
0000693e 79547375 
00006942 30296570 
00006946 29384678 
0000694a 00 
0000694b 01        13694 	.data.b	1
0000694c 76        13695 	.data.b	118
0000694d 534f5f45  13696 	.data.b	69,95,79,83,95,83,89,83,95,70,85,78,67,84,73,79,78,95,85,78,65,86,65,73,76,65,66,76,69,32,40,40,83,116,97,116,117,115,84,121,112,101,41,48,120,70,57,41,0
00006951 5359535f 
00006955 4e55465f 
00006959 4f495443 
0000695d 4e555f4e 
00006961 49415641 
00006965 4c42414c 
00006969 28282045 
0000696d 74617453 
00006971 79547375 
00006975 30296570 
00006979 29394678 
0000697d 00 
0000697e 01        13697 	.data.b	1
0000697f 78        13698 	.data.b	120
00006980 534f5f45  13699 	.data.b	69,95,79,83,95,83,89,83,95,80,82,79,84,69,67,84,73,79,78,95,83,89,83,67,65,76,76,32,40,40,83,116,97,116,117,115,84,121,112,101,41,48,120,70,65,41,0
00006984 5359535f 
00006988 4f52505f 
0000698c 54434554 
00006990 5f4e4f49 
00006994 43535953 
00006998 204c4c41 
0000699c 74532828 
000069a0 73757461 
000069a4 65707954 

                                                                      Page 362
                                                              C:\Users\Fengyuan\AppData\Local\Temp\gh_0000fuk1.s
000069a8 46783029 
000069ac 002941 
000069af 01        13700 	.data.b	1
000069b0 7a        13701 	.data.b	122
000069b1 534f5f45  13702 	.data.b	69,95,79,83,95,83,89,83,95,80,82,79,84,69,67,84,73,79,78,95,73,82,81,32,40,40,83,116,97,116,117,115,84,121,112,101,41,48,120,70,66,41,0
000069b5 5359535f 
000069b9 4f52505f 
000069bd 54434554 
000069c1 5f4e4f49 
000069c5 20515249 
000069c9 74532828 
000069cd 73757461 
000069d1 65707954 
000069d5 46783029 
000069d9 002942 
000069dc 01        13703 	.data.b	1
000069dd 7c        13704 	.data.b	124
000069de 534f5f45  13705 	.data.b	69,95,79,83,95,83,89,83,95,65,80,73,95,69,82,82,79,82,32,40,40,83,116,97,116,117,115,84,121,112,101,41,48,120,70,67,41,0
000069e2 5359535f 
000069e6 4950415f 
000069ea 5252455f 
000069ee 2820524f 
000069f2 61745328 
000069f6 54737574 
000069fa 29657079 
000069fe 43467830 
00006a02 0029 
00006a04 01        13706 	.data.b	1
00006a05 7e        13707 	.data.b	126
00006a06 534f5f45  13708 	.data.b	69,95,79,83,95,83,89,83,95,65,83,83,69,82,84,73,79,78,32,40,40,83,116,97,116,117,115,84,121,112,101,41,48,120,70,68,41,0
00006a0a 5359535f 
00006a0e 5353415f 
00006a12 49545245 
00006a16 28204e4f 
00006a1a 61745328 
00006a1e 54737574 
00006a22 29657079 
00006a26 44467830 
00006a2a 0029 
00006a2c 01        13709 	.data.b	1
00006a2d 0180      13710 	.data.b	128,1
00006a2f 534f5f45  13711 	.data.b	69,95,79,83,95,83,89,83,95,79,86,69,82,76,79,65,68,32,40,40,83,116,97,116,117,115,84,121,112,101,41,48,120,70,69,41,0
00006a33 5359535f 
00006a37 45564f5f 
00006a3b 414f4c52 
00006a3f 28282044 
00006a43 74617453 
00006a47 79547375 
00006a4b 30296570 
00006a4f 29454678 
00006a53 00 
00006a54 01        13712 	.data.b	1
00006a55 01bd      13713 	.data.b	189,1
00006a57 535f534f  13714 	.data.b	79,83,95,83,84,65,84,85,83,95,84,89,80,69,95,86,65,82,73,65,78,84,40,83,116,97,116,117,115,44,86,97,114,105,97,110,116,41,32,40,40,117,105,110,116,51,50,41,32,40,40,40,117,105,110,116,51,50,41,40
00006a5b 55544154 
00006a5f 59545f53 
00006a63 565f4550 
00006a67 41495241 
00006a6b 5328544e 
00006a6f 75746174 
00006a73 61562c73 

                                                                      Page 363
                                                              C:\Users\Fengyuan\AppData\Local\Temp\gh_0000fuk1.s
00006a77 6e616972 
00006a7b 28202974 
00006a7f 6e697528 
00006a83 29323374 
00006a87 28282820 
00006a8b 746e6975 
00006a8f 28293233 
00006a93 69726156  13715 	.data.b	86,97,114,105,97,110,116,41,41,32,60,60,32,40,115,105,122,101,111,102,40,83,116,97,116,117,115,84,121,112,101,41,42,56,41,41,32,124,32,40,117,105,110,116,51,50,41,40,83,116,97,116,117,115,41,41,0
00006a97 29746e61 
00006a9b 3c3c2029 
00006a9f 69732820 
00006aa3 666f657a 
00006aa7 61745328 
00006aab 54737574 
00006aaf 29657079 
00006ab3 2929382a 
00006ab7 28207c20 
00006abb 746e6975 
00006abf 28293233 
00006ac3 74617453 
00006ac7 29297375 
00006acb 00 
00006acc 04        13716 	.data.b	4
00006acd 03        13717 	.data.b	3
00006ace 2d        13718 	.data.b	45
00006acf 27        13719 	.data.b	39
00006ad0 04        13720 	.data.b	4
00006ad1 03        13721 	.data.b	3
00006ad2 32        13722 	.data.b	50
00006ad3 29        13723 	.data.b	41
00006ad4 03        13724 	.data.b	3
00006ad5 2b        13725 	.data.b	43
00006ad6 24        13726 	.data.b	36
00006ad7 04        13727 	.data.b	4
00006ad8 01        13728 	.data.b	1
00006ad9 37        13729 	.data.b	55
00006ada 435f534f  13730 	.data.b	79,83,95,67,79,82,69,95,73,68,95,48,32,79,83,95,67,79,82,69,95,73,68,95,48,0
00006ade 5f45524f 
00006ae2 305f4449 
00006ae6 5f534f20 
00006aea 45524f43 
00006aee 5f44495f 
00006af2 0030 
00006af4 04        13731 	.data.b	4
00006af5 03        13732 	.data.b	3
00006af6 50        13733 	.data.b	80
00006af7 12        13734 	.data.b	18
00006af8 04        13735 	.data.b	4
00006af9 03        13736 	.data.b	3
00006afa 58        13737 	.data.b	88
00006afb 12        13738 	.data.b	18
00006afc 04        13739 	.data.b	4
00006afd 03        13740 	.data.b	3
00006afe 5c        13741 	.data.b	92
00006aff 12        13742 	.data.b	18
00006b00 04        13743 	.data.b	4
00006b01 03        13744 	.data.b	3
00006b02 64        13745 	.data.b	100
00006b03 12        13746 	.data.b	18
00006b04 04        13747 	.data.b	4
00006b05 03        13748 	.data.b	3

                                                                      Page 364
                                                              C:\Users\Fengyuan\AppData\Local\Temp\gh_0000fuk1.s
00006b06 68        13749 	.data.b	104
00006b07 12        13750 	.data.b	18
00006b08 04        13751 	.data.b	4
00006b09 03        13752 	.data.b	3
00006b0a 70        13753 	.data.b	112
00006b0b 12        13754 	.data.b	18
00006b0c 04        13755 	.data.b	4
00006b0d 03        13756 	.data.b	3
00006b0e 74        13757 	.data.b	116
00006b0f 12        13758 	.data.b	18
00006b10 04        13759 	.data.b	4
00006b11 03        13760 	.data.b	3
00006b12 7c        13761 	.data.b	124
00006b13 12        13762 	.data.b	18
00006b14 04        13763 	.data.b	4
00006b15 03        13764 	.data.b	3
00006b16 0180      13765 	.data.b	128,1
00006b18 12        13766 	.data.b	18
00006b19 04        13767 	.data.b	4
00006b1a 03        13768 	.data.b	3
00006b1b 0188      13769 	.data.b	136,1
00006b1d 12        13770 	.data.b	18
00006b1e 04        13771 	.data.b	4
00006b1f 04        13772 	.data.b	4
00006b20 03        13773 	.data.b	3
00006b21 2d        13774 	.data.b	45
00006b22 2a        13775 	.data.b	42
00006b23 01        13776 	.data.b	1
00006b24 21        13777 	.data.b	33
00006b25 485f534f  13778 	.data.b	79,83,95,72,65,76,95,79,83,73,78,84,95,72,32,0
00006b29 4f5f4c41 
00006b2d 544e4953 
00006b31 0020485f 
00006b35 03        13779 	.data.b	3
00006b36 2a        13780 	.data.b	42
00006b37 28        13781 	.data.b	40
00006b38 04        13782 	.data.b	4
00006b39 03        13783 	.data.b	3
00006b3a 2d        13784 	.data.b	45
00006b3b 23        13785 	.data.b	35
00006b3c 04        13786 	.data.b	4
00006b3d 04        13787 	.data.b	4
00006b3e 03        13788 	.data.b	3
00006b3f 02e4      13789 	.data.b	228,2
00006b41 12        13790 	.data.b	18
00006b42 04        13791 	.data.b	4
00006b43 03        13792 	.data.b	3
00006b44 02fd      13793 	.data.b	253,2
00006b46 12        13794 	.data.b	18
00006b47 04        13795 	.data.b	4
00006b48 03        13796 	.data.b	3
00006b49 03e0      13797 	.data.b	224,3
00006b4b 12        13798 	.data.b	18
00006b4c 04        13799 	.data.b	4
00006b4d 03        13800 	.data.b	3
00006b4e 03f4      13801 	.data.b	244,3
00006b50 12        13802 	.data.b	18
00006b51 04        13803 	.data.b	4
00006b52 04        13804 	.data.b	4
00006b53 03        13805 	.data.b	3
00006b54 0389      13806 	.data.b	137,3

                                                                      Page 365
                                                              C:\Users\Fengyuan\AppData\Local\Temp\gh_0000fuk1.s
00006b56 24        13807 	.data.b	36
00006b57 04        13808 	.data.b	4
00006b58 03        13809 	.data.b	3
00006b59 038a      13810 	.data.b	138,3
00006b5b 27        13811 	.data.b	39
00006b5c 04        13812 	.data.b	4
00006b5d 03        13813 	.data.b	3
00006b5e 038f      13814 	.data.b	143,3
00006b60 2b        13815 	.data.b	43
00006b61 03        13816 	.data.b	3
00006b62 7b        13817 	.data.b	123
00006b63 2a        13818 	.data.b	42
00006b64 04        13819 	.data.b	4
00006b65 03        13820 	.data.b	3
00006b66 7e        13821 	.data.b	126
00006b67 23        13822 	.data.b	35
00006b68 04        13823 	.data.b	4
00006b69 04        13824 	.data.b	4
00006b6a 01        13825 	.data.b	1
00006b6b 03f7      13826 	.data.b	247,3
00006b6d 535f534f  13827 	.data.b	79,83,95,83,84,65,82,84,95,83,69,67,95,67,79,68,69,32,0
00006b71 54524154 
00006b75 4345535f 
00006b79 444f435f 
00006b7d 002045 
00006b80 03        13828 	.data.b	3
00006b81 03f8      13829 	.data.b	248,3
00006b83 2c        13830 	.data.b	44
00006b84 01        13831 	.data.b	1
00006b85 24        13832 	.data.b	36
00006b86 4d4d454d  13833 	.data.b	77,69,77,77,65,80,95,69,82,82,79,82,32,0
00006b8a 455f5041 
00006b8e 524f5252 
00006b92 0020 
00006b94 03        13834 	.data.b	3
00006b95 26        13835 	.data.b	38
00006b96 2d        13836 	.data.b	45
00006b97 01        13837 	.data.b	1
00006b98 26        13838 	.data.b	38
00006b99 4d5f534f  13839 	.data.b	79,83,95,77,69,77,77,65,80,95,83,69,67,84,73,79,78,95,79,80,69,78,32,0
00006b9d 414d4d45 
00006ba1 45535f50 
00006ba5 4f495443 
00006ba9 504f5f4e 
00006bad 00204e45 
00006bb1 01        13840 	.data.b	1
00006bb2 27        13841 	.data.b	39
00006bb3 435f534f  13842 	.data.b	79,83,95,67,79,68,69,95,79,80,69,78,32,0
00006bb7 5f45444f 
00006bbb 4e45504f 
00006bbf 0020 
00006bc1 04        13843 	.data.b	4
00006bc2 04        13844 	.data.b	4
00006bc3 01        13845 	.data.b	1
00006bc4 29d2      13846 	.data.b	210,41
00006bc6 535f534f  13847 	.data.b	79,83,95,83,84,79,80,95,83,69,67,95,67,79,68,69,32,0
00006bca 5f504f54 
00006bce 5f434553 
00006bd2 45444f43 
00006bd6 0020 
00006bd8 03        13848 	.data.b	3

                                                                      Page 366
                                                              C:\Users\Fengyuan\AppData\Local\Temp\gh_0000fuk1.s
00006bd9 29d3      13849 	.data.b	211,41
00006bdb 2c        13850 	.data.b	44
00006bdc 01        13851 	.data.b	1
00006bdd 24        13852 	.data.b	36
00006bde 4d4d454d  13853 	.data.b	77,69,77,77,65,80,95,69,82,82,79,82,32,0
00006be2 455f5041 
00006be6 524f5252 
00006bea 0020 
00006bec 03        13854 	.data.b	3
00006bed 26        13855 	.data.b	38
00006bee 2d        13856 	.data.b	45
00006bef 04        13857 	.data.b	4
00006bf0 04        13858 	.data.b	4
00006bf1 04        13859 	.data.b	4
00006bf2 03        13860 	.data.b	3
00006bf3 21        13861 	.data.b	33
00006bf4 12        13862 	.data.b	18
00006bf5 04        13863 	.data.b	4
00006bf6 03        13864 	.data.b	3
00006bf7 27        13865 	.data.b	39
00006bf8 12        13866 	.data.b	18
00006bf9 04        13867 	.data.b	4
00006bfa 01        13868 	.data.b	1
00006bfb 2d        13869 	.data.b	45
00006bfc 4d686353  13870 	.data.b	83,99,104,77,95,69,110,116,101,114,95,67,111,109,95,67,79,77,95,69,88,67,76,85,83,73,86,69,95,65,82,69,65,95,82,88,40,41,32,83,117,115,112,101,110,100,65,108,108,73,110,116,101,114,114,117,112,116,115,40
00006c00 746e455f 
00006c04 435f7265 
00006c08 435f6d6f 
00006c0c 455f4d4f 
00006c10 554c4358 
00006c14 45564953 
00006c18 4552415f 
00006c1c 58525f41 
00006c20 53202928 
00006c24 65707375 
00006c28 6c41646e 
00006c2c 746e496c 
00006c30 75727265 
00006c34 28737470 
00006c38 0029      13871 	.data.b	41,0
00006c3a 01        13872 	.data.b	1
00006c3b 2f        13873 	.data.b	47
00006c3c 4d686353  13874 	.data.b	83,99,104,77,95,69,120,105,116,95,67,111,109,95,67,79,77,95,69,88,67,76,85,83,73,86,69,95,65,82,69,65,95,82,88,40,41,32,82,101,115,117,109,101,65,108,108,73,110,116,101,114,114,117,112,116,115,40,41,0
00006c40 6978455f 
00006c44 6f435f74 
00006c48 4f435f6d 
00006c4c 58455f4d 
00006c50 53554c43 
00006c54 5f455649 
00006c58 41455241 
00006c5c 2858525f 
00006c60 65522029 
00006c64 656d7573 
00006c68 496c6c41 
00006c6c 7265746e 
00006c70 74707572 
00006c74 00292873 
00006c78 01        13875 	.data.b	1
00006c79 31        13876 	.data.b	49
00006c7a 4d686353  13877 	.data.b	83,99,104,77,95,69,110,116,101,114,95,67,111,109,95,67,79,77,95,69,88,67,76,85,83,73,86,69,95,65,82,69,65,95,84,88,40,41,32,83,117,115,112,101,110,100,65,108,108,73,110,116,101,114,114,117,112,116,115,40
00006c7e 746e455f 

                                                                      Page 367
                                                              C:\Users\Fengyuan\AppData\Local\Temp\gh_0000fuk1.s
00006c82 435f7265 
00006c86 435f6d6f 
00006c8a 455f4d4f 
00006c8e 554c4358 
00006c92 45564953 
00006c96 4552415f 
00006c9a 58545f41 
00006c9e 53202928 
00006ca2 65707375 
00006ca6 6c41646e 
00006caa 746e496c 
00006cae 75727265 
00006cb2 28737470 
00006cb6 0029      13878 	.data.b	41,0
00006cb8 01        13879 	.data.b	1
00006cb9 33        13880 	.data.b	51
00006cba 4d686353  13881 	.data.b	83,99,104,77,95,69,120,105,116,95,67,111,109,95,67,79,77,95,69,88,67,76,85,83,73,86,69,95,65,82,69,65,95,84,88,40,41,32,82,101,115,117,109,101,65,108,108,73,110,116,101,114,114,117,112,116,115,40,41,0
00006cbe 6978455f 
00006cc2 6f435f74 
00006cc6 4f435f6d 
00006cca 58455f4d 
00006cce 53554c43 
00006cd2 5f455649 
00006cd6 41455241 
00006cda 2858545f 
00006cde 65522029 
00006ce2 656d7573 
00006ce6 496c6c41 
00006cea 7265746e 
00006cee 74707572 
00006cf2 00292873 
00006cf6 04        13882 	.data.b	4
00006cf7 01        13883 	.data.b	1
00006cf8 01d8      13884 	.data.b	216,1
00006cfa 5f6d6f43  13885 	.data.b	67,111,109,95,83,105,103,110,97,108,95,66,105,116,79,102,102,115,101,116,70,114,111,109,66,105,116,80,111,115,40,112,111,115,41,32,40,67,79,77,95,67,65,83,84,50,85,73,78,84,56,40,40,112,111,115,41,32,38,32
00006cfe 6e676953 
00006d02 425f6c61 
00006d06 664f7469 
00006d0a 74657366 
00006d0e 6d6f7246 
00006d12 50746942 
00006d16 7028736f 
00006d1a 2029736f 
00006d1e 4d4f4328 
00006d22 5341435f 
00006d26 49553254 
00006d2a 2838544e 
00006d2e 736f7028 
00006d32 20262029 
00006d36 29297537  13886 	.data.b	55,117,41,41,0
00006d3a 00 
00006d3b 01        13887 	.data.b	1
00006d3c 02bd      13888 	.data.b	189,2
00006d3e 5f6d6f43  13889 	.data.b	67,111,109,95,84,120,77,111,100,101,72,100,108,114,95,73,115,80,101,114,105,111,100,105,99,84,120,77,111,100,101,40,84,120,80,100,117,73,100,41,32,40,40,67,111,109,95,73,115,67,117,114,114,101,110,116,84,120,77,111
00006d42 6f4d7854 
00006d46 64486564 
00006d4a 495f726c 
00006d4e 72655073 
00006d52 69646f69 
00006d56 4d785463 
00006d5a 2865646f 

                                                                      Page 368
                                                              C:\Users\Fengyuan\AppData\Local\Temp\gh_0000fuk1.s
00006d5e 64507854 
00006d62 29644975 
00006d66 43282820 
00006d6a 495f6d6f 
00006d6e 72754373 
00006d72 746e6572 
00006d76 6f4d7854 
00006d7a 54286564  13890 	.data.b	100,101,40,84,120,80,100,117,73,100,41,41,32,63,32,40,67,111,109,95,73,115,80,101,114,105,111,100,105,99,79,102,84,120,77,111,100,101,84,114,117,101,40,67,111,109,95,71,101,116,84,120,77,111,100,101,84,114,117,101
00006d7e 75645078 
00006d82 29296449 
00006d86 28203f20 
00006d8a 5f6d6f43 
00006d8e 65507349 
00006d92 646f6972 
00006d96 664f6369 
00006d9a 6f4d7854 
00006d9e 72546564 
00006da2 43286575 
00006da6 475f6d6f 
00006daa 78547465 
00006dae 65646f4d 
00006db2 65757254 
00006db6 4f786449  13891 	.data.b	73,100,120,79,102,84,120,77,111,100,101,73,110,102,111,40,84,120,80,100,117,73,100,41,41,41,32,58,32,40,67,111,109,95,73,115,80,101,114,105,111,100,105,99,79,102,84,120,77,111,100,101,70,97,108,115,101,40,67,111
00006dba 4d785466 
00006dbe 4965646f 
00006dc2 286f666e 
00006dc6 64507854 
00006dca 29644975 
00006dce 3a202929 
00006dd2 6f432820 
00006dd6 73495f6d 
00006dda 69726550 
00006dde 6369646f 
00006de2 7854664f 
00006de6 65646f4d 
00006dea 736c6146 
00006dee 6f432865 
00006df2 65475f6d  13892 	.data.b	109,95,71,101,116,84,120,77,111,100,101,70,97,108,115,101,73,100,120,79,102,84,120,77,111,100,101,73,110,102,111,40,84,120,80,100,117,73,100,41,41,41,41,0
00006df6 4d785474 
00006dfa 4665646f 
00006dfe 65736c61 
00006e02 4f786449 
00006e06 4d785466 
00006e0a 4965646f 
00006e0e 286f666e 
00006e12 64507854 
00006e16 29644975 
00006e1a 00292929 
00006e1e 01        13893 	.data.b	1
00006e1f 02cd      13894 	.data.b	205,2
00006e21 5f6d6f43  13895 	.data.b	67,111,109,95,84,120,77,111,100,101,72,100,108,114,95,71,101,116,67,117,114,114,101,110,116,84,105,109,101,80,101,114,105,111,100,40,84,120,80,100,117,73,100,41,32,40,40,67,111,109,95,73,115,67,117,114,114,101,110,116
00006e25 6f4d7854 
00006e29 64486564 
00006e2d 475f726c 
00006e31 75437465 
00006e35 6e657272 
00006e39 6d695474 
00006e3d 72655065 
00006e41 28646f69 
00006e45 64507854 
00006e49 29644975 

                                                                      Page 369
                                                              C:\Users\Fengyuan\AppData\Local\Temp\gh_0000fuk1.s
00006e4d 43282820 
00006e51 495f6d6f 
00006e55 72754373 
00006e59 746e6572 
00006e5d 6f4d7854  13896 	.data.b	84,120,77,111,100,101,40,84,120,80,100,117,73,100,41,41,32,63,32,40,67,111,109,95,71,101,116,84,105,109,101,80,101,114,105,111,100,79,102,84,120,77,111,100,101,84,114,117,101,40,67,111,109,95,71,101,116,84,120,77
00006e61 54286564 
00006e65 75645078 
00006e69 29296449 
00006e6d 28203f20 
00006e71 5f6d6f43 
00006e75 54746547 
00006e79 50656d69 
00006e7d 6f697265 
00006e81 54664f64 
00006e85 646f4d78 
00006e89 75725465 
00006e8d 6f432865 
00006e91 65475f6d 
00006e95 4d785474 
00006e99 5465646f  13897 	.data.b	111,100,101,84,114,117,101,73,100,120,79,102,84,120,77,111,100,101,73,110,102,111,40,84,120,80,100,117,73,100,41,41,41,32,58,32,40,67,111,109,95,71,101,116,84,105,109,101,80,101,114,105,111,100,79,102,84,120,77,111
00006e9d 49657572 
00006ea1 664f7864 
00006ea5 6f4d7854 
00006ea9 6e496564 
00006ead 54286f66 
00006eb1 75645078 
00006eb5 29296449 
00006eb9 203a2029 
00006ebd 6d6f4328 
00006ec1 7465475f 
00006ec5 656d6954 
00006ec9 69726550 
00006ecd 664f646f 
00006ed1 6f4d7854 
00006ed5 61466564  13898 	.data.b	100,101,70,97,108,115,101,40,67,111,109,95,71,101,116,84,120,77,111,100,101,70,97,108,115,101,73,100,120,79,102,84,120,77,111,100,101,73,110,102,111,40,84,120,80,100,117,73,100,41,41,41,41,0
00006ed9 2865736c 
00006edd 5f6d6f43 
00006ee1 54746547 
00006ee5 646f4d78 
00006ee9 6c614665 
00006eed 64496573 
00006ef1 54664f78 
00006ef5 646f4d78 
00006ef9 666e4965 
00006efd 7854286f 
00006f01 49756450 
00006f05 29292964 
00006f09 0029 
00006f0b 01        13899 	.data.b	1
00006f0c 02e4      13900 	.data.b	228,2
00006f0e 5f6d6f43  13901 	.data.b	67,111,109,95,84,120,77,111,100,101,72,100,108,114,95,71,101,116,67,117,114,114,101,110,116,84,105,109,101,79,102,102,115,101,116,40,84,120,80,100,117,73,100,41,32,49,117,0
00006f12 6f4d7854 
00006f16 64486564 
00006f1a 475f726c 
00006f1e 75437465 
00006f22 6e657272 
00006f26 6d695474 
00006f2a 66664f65 
00006f2e 28746573 
00006f32 64507854 
00006f36 29644975 

                                                                      Page 370
                                                              C:\Users\Fengyuan\AppData\Local\Temp\gh_0000fuk1.s
00006f3a 00753120 
00006f3e 03        13902 	.data.b	3
00006f3f 048f      13903 	.data.b	143,4
00006f41 12        13904 	.data.b	18
00006f42 04        13905 	.data.b	4
00006f43 03        13906 	.data.b	3
00006f44 01829a    13907 	.data.b	154,130,1
00006f47 12        13908 	.data.b	18
00006f48 04        13909 	.data.b	4
00006f49 04        13910 	.data.b	4
00006f4a 00        13911 	.data.b	0
                   13912 	.section	.debug_abbrev
000001c5 00        13913 	.data.b	0
                   13914 	.section	.debug_info
                   13915 .Ldw_end:
