                                                                      Page 1
                                                              C:\Users\Fengyuan\AppData\Local\Temp\gh_00006b81.s
Command Line: C:\ghs\comp_201714\asarm.exe -elf -b0 -I../../../bsw/../thirdparty/mcal_s32k/supply/s32k14x_mcal4_2_rtm_hf3_1_0_1/eclipse/plugins/base_ts_t40d2m10i1r0/include -I../../../bsw/../thirdparty/mcal_s32k/supply/s32k14x_mcal4_2_rtm_hf3_1_0_1/eclipse/plugins/dio_ts_t40d2m10i1r0/include -I../../../bsw/../thirdparty/mcal_s32k/supply/s32k14x_mcal4_2_rtm_hf3_1_0_1/eclipse/plugins/mcu_ts_t40d2m10i1r0/include -I../../../bsw/../thirdparty/mcal_s32k/supply/s32k14x_mcal4_2_rtm_hf3_1_0_1/eclipse/plugins/port_ts_t40d2m10i1r0/include -I../../../bsw/../thirdparty/mcal_s32k/supply/s32k14x_mcal4_2_rtm_hf3_1_0_1/eclipse/plugins/spi_ts_t40d2m10i1r0/include -I../../../bsw/_common -I../../../bsw/bswm -I../../../bsw/can -I../../../bsw/canif -I../../../bsw/cansm -I../../../bsw/cantp -I../../../bsw/com -I../../../bsw/comm -I../../../bsw/dcm -I../../../bsw/dem -I../../../bsw/det -I../../../bsw/ecum -I../../../bsw/gendata -I../../../bsw/iohwab -I../../../bsw/mcal_s32k -I../../../bsw/os -I../../../bsw/pdur -I../../../bsw/vstdlib -I./shared/zbrs_armcommon -I./shared/zbrs_asrembeddedruntimesystemcfg5 -I./shared/zbrs_s32arm -Ic:/ghs/comp_201714/ansi -Ic:/ghs/comp_201714/include/arm -Igendata -Igendata/components -Igendata/include -Iinclude -IC:\ghs\comp_201714\lib\thumb2 -cpu=cortexm4 -fpu=soft -patch_dbo=C:\Vector\CBD1800257_D01_S32K1xx\Applications\S32K144_Start_new\Appl\obj\EcuM.dbo -source=EcuM.c -o obj\gh_00006b81.o -list=lst/EcuM.lst C:\Users\Fengyuan\AppData\Local\Temp\gh_00006b81.s 
Original File: C:\Users\Fengyuan\AppData\Local\Temp\gh_00006b81.s
Source File: EcuM.c
Directory: C:\Vector\CBD1800257_D01_S32K1xx\Applications\S32K144_Start_new\Appl
Host OS: Windows
EASE: Copyright (C) 1983-2016 Green Hills Software.  All Rights Reserved.
Release: Compiler v2017.1.4
Build Directory: [Directory] COMP-VAL-WIN47:l:/compiler/release-branch-2017-1-comp/build/v2017.1-2017-04-09/win32-comp-ecom
Revision: [VCInfo] http://toolsvc/branches/release-branch-2017-1-comp/src@589570 (built by auto-compiler)
Revision Date: Mon Apr 10 10:52:57 2017

Release Date: Mon Apr 10 08:00:05 2017

                       1 ;Driver Command: ccarm -DBRS_DERIVATIVE_S32K144 -DBRS_OSC_CLK=8
                       2 ;		-DBRS_TIMEBASE_CLOCK=96 -DBRS_OS_USECASE_OSGEN7 -DBRS_EVA_BOARD_
                       3 ;		-DBRS_PROGRAM_CODE_LOCATION_FLASH
                       4 ;		-DBRS_VECTOR_TABLE_LOCATION_FLASH -DBRS_CPU_CORE_CORTEX_M4
                       5 ;		-DBRS_STACK_SIZE=0xC800 -DBRS_PLATFORM_ARM -DBRS_COMP_GHS
                       6 ;		-DBRS_INSTRUCTION_SET_ARM -DBRS_OPTIONBYTES_ADR=1
                       7 ;		-DBRS_RAM_ETH_SIZE=0 -DBRS_RAM_ETH_MAPPING=0
                       8 ;		-DBRS_RAM_SIZE=0x0000F000 -DBRS_RAM_MAPPING=0x1FFF8000 -c
                       9 ;		-object_dir=obj -list=lst/EcuM.lst --diag_suppress=1
                      10 ;		-cpu=cortexm4 -noobj --long_long -g -dual_debug -farcalls -dwarf2
                      11 ;		-no_misalign_pack -nostartfiles -act_like=2015.1
                      12 ;		-pragma_asm_inline -thumb -thumb_lib -Osize -object_dir= -e
                      13 ;		Startup_Handler
                      14 ;		-I../../../bsw/../thirdparty/mcal_s32k/supply/s32k14x_mcal4_2_rtm_hf3_1_0_1/eclipse/plugins/base_ts_t40d2m10i1r0/include
                      15 ;		-I../../../bsw/../thirdparty/mcal_s32k/supply/s32k14x_mcal4_2_rtm_hf3_1_0_1/eclipse/plugins/dio_ts_t40d2m10i1r0/include
                      16 ;		-I../../../bsw/../thirdparty/mcal_s32k/supply/s32k14x_mcal4_2_rtm_hf3_1_0_1/eclipse/plugins/mcu_ts_t40d2m10i1r0/include
                      17 ;		-I../../../bsw/../thirdparty/mcal_s32k/supply/s32k14x_mcal4_2_rtm_hf3_1_0_1/eclipse/plugins/port_ts_t40d2m10i1r0/include
                      18 ;		-I../../../bsw/../thirdparty/mcal_s32k/supply/s32k14x_mcal4_2_rtm_hf3_1_0_1/eclipse/plugins/spi_ts_t40d2m10i1r0/include
                      19 ;		-I../../../bsw/_common -I../../../bsw/bswm -I../../../bsw/can
                      20 ;		-I../../../bsw/canif -I../../../bsw/cansm -I../../../bsw/cantp
                      21 ;		-I../../../bsw/com -I../../../bsw/comm -I../../../bsw/dcm
                      22 ;		-I../../../bsw/dem -I../../../bsw/det -I../../../bsw/ecum
                      23 ;		-I../../../bsw/gendata -I../../../bsw/iohwab
                      24 ;		-I../../../bsw/mcal_s32k -I../../../bsw/os -I../../../bsw/pdur
                      25 ;		-I../../../bsw/vstdlib -I./shared/zbrs_armcommon
                      26 ;		-I./shared/zbrs_asrembeddedruntimesystemcfg5
                      27 ;		-I./shared/zbrs_s32arm -Ic:/ghs/comp_201714/ansi
                      28 ;		-Ic:/ghs/comp_201714/include/arm -Igendata -Igendata/components
                      29 ;		-Igendata/include -Iinclude ../../../BSW/EcuM/EcuM.c
                      30 ;Source File:   ../../../BSW/EcuM/EcuM.c
                      31 ;Directory:     
                      32 ;		C:\Vector\CBD1800257_D01_S32K1xx\Applications\S32K144_Start_new\Appl
                      33 ;Compile Date:  Fri Jun 18 09:57:36 2021
                      34 ;Host OS:       Win32
                      35 ;Version:       C-ARM 2017.1.4 RELEASE VERSION
                      36 ;Release:       Compiler v2017.1.4
                      37 ;Revision Date: Tue Apr 11 01:37:22 2017
                      38 ;Release Date:  Mon Apr 10 08:00:05 2017
                      39 ; ecom  -g -w -OMS
                      40 	.text
                      41 ..bof.C.3A.5CVector.5CCBD1800257_D01_S32K1xx.5CApplications.5CS32K144_Start_new.5CAppl.5Cobj.5CEcuM...43.3A.5CVector.5CCBD1800257_D01_S32K1xx.5CApplications.5CS32K144_Start_new.5CAppl..60CBFD91..0::
                      42 	.align	2
                      43 ..gh.f.a.1.e.0:
                      44 	.endo	..gh.f.a.1.e.0
                      45 	.thumb2
                      46 	.global	EcuM_GetShiftCount..C.3A.5CVector.5CCBD1800257_D01_S32K1xx.5CApplications.5CS32K144_Start_new.5CAppl.5Cobj.5CEcuM.
                      47 EcuM_GetShiftCount..C.3A.5CVector.5CCBD1800257_D01_S32K1xx.5CApplications.5CS32K144_Start_new.5CAppl.5Cobj.5CEcuM.:
                      48 EcuM_GetShiftCount:
                      49 .LDW01:
00000000 2100         50 	movs	r1,0

                                                                      Page 2
                                                              C:\Users\Fengyuan\AppData\Local\Temp\gh_00006b81.s
00000002 3801         51 	subs	r0,1
00000004 e002*        52 	b	.L39
                      53 .L41:
                      54 ;line771
                      55 ..lin.54fd2b29..c1f6b15.0_1::
                      56 .LDWlin1:
00000006 3101         57 	adds	r1,1
00000008 b2c9         58 	uxtb	r1,r1
0000000a 0840         59 	lsrs	r0,r0,1
                      60 .L39:
0000000c 07c2         61 	lsls	r2,r0,31
0000000e d4fa*        62 	bmi	.L41
                      63 ;line776
                      64 ..lin.54fd2b29..c1f6b15.0_2::
                      65 .LDWlin2:
00000010 4608         66 	cpy	r0,r1
                      67 .LDW11:
00000012 4770         68 	ret
                      69 __ghs_eofn_EcuM_GetShiftCount:
                      70 	.endf	EcuM_GetShiftCount
                      71 	.endf	EcuM_GetShiftCount..C.3A.5CVector.5CCBD1800257_D01_S32K1xx.5CApplications.5CS32K144_Start_new.5CAppl.5Cobj.5CEcuM.
                      72 ;retval	r1	local
                      73 
                      74 ;x	r0	param
                      75 
                      76 	.section ".bss","awb"
                      77 .L80:
                      78 	.endo	.L80
                      79 	.text
                      80 	.assert 0x0 + (EcuM_ComM_BufferedWakeups - EcuM_ComM_BufferedWakeups) +0 == 0
                      81 ..gh.f.a.1.e.1:
                      82 	.endo	..gh.f.a.1.e.1
                      83 EcuM_MainFunction::
00000014 b570         84 	push	{r4-r6,lr}
00000016 b081         85 	sub	sp,4
00000018 4cbb*        86 	ldr	r4,.L270
                      87 .LDW21:
0000001a 6820         88 	ldr	r0,[r4]
0000001c b1c0*        89 	cbz	r0,.L125
0000001e 49bb*        90 	ldr	r1,.L271
00000020 4668         91 	mov	r0,sp
00000022 3003         92 	adds	r0,3
00000024 4788         93 	blx	r1
00000026 4668         94 	mov	r0,sp
00000028 78c0         95 	ldrb	r0,[r0,3]
0000002a 2801         96 	cmp	r0,1
0000002c d110*        97 	bne	.L125
0000002e 2506         98 	movs	r5,6
00000030 e00a*        99 	b	.L135
                     100 .L133:
00000032 2601        101 	movs	r6,1
00000034 40ae        102 	lsls	r6,r5
00000036 4030        103 	ands	r0,r6
00000038 d006*       104 	beq	.L135
0000003a 48b5*       105 	ldr	r0,.L272
0000003c 49b5*       106 	ldr	r1,.L273
0000003e 5d40        107 	ldrb	r0,[r0,r5]
00000040 4788        108 	blx	r1
00000042 6820        109 	ldr	r0,[r4]
00000044 43b0        110 	bics	r0,r6
00000046 6020        111 	str	r0,[r4]

                                                                      Page 3
                                                              C:\Users\Fengyuan\AppData\Local\Temp\gh_00006b81.s
                     112 .L135:
00000048 6820        113 	ldr	r0,[r4]
0000004a b108*       114 	cbz	r0,.L125
0000004c 3d01        115 	subs	r5,1
0000004e d2f0*       116 	bhs	.L133
                     117 .L125:
                     118 .LDW31:
                     119 ;line3027
                     120 ..lin.54fd2b29..72162059.0_3::
                     121 .LDWlin3:
00000050 b001        122 	add	sp,4
00000052 bd70        123 	pop	{r4-r6,pc}
                     124 __ghs_eofn_EcuM_MainFunction::
                     125 	.endf	EcuM_MainFunction
                     126 ;ComMStatus	[sp,3]	local
                     127 ;sourceID	r5	local
                     128 
                     129 	.section ".bss","awb"
                     130 	.align	4
                     131 EcuM_ComM_BufferedWakeups..C.3A.5CVector.5CCBD1800257_D01_S32K1xx.5CApplications.5CS32K144_Start_new.5CAppl.5Cobj.5CEcuM.::
00000000 00000000    132 EcuM_ComM_BufferedWakeups:	.space	4
                     133 	.endo	EcuM_ComM_BufferedWakeups..C.3A.5CVector.5CCBD1800257_D01_S32K1xx.5CApplications.5CS32K144_Start_new.5CAppl.5Cobj.5CEcuM.
                     134 	.endo	EcuM_ComM_BufferedWakeups
                     135 	.text
                     136 	.assert 0x0 + (EcuM_ValidatedWakeups - EcuM_ComM_BufferedWakeups) +0 == 12
                     137 	.assert 0x0 + (EcuM_BswM_BufferedWakeups - EcuM_ComM_BufferedWakeups) +0 == 8
                     138 	.assert 0x0 + (EcuM_ComM_BufferedWakeups - EcuM_ComM_BufferedWakeups) +0 == 0
                     139 	.assert 0x0 + (EcuM_ShutdownCause - EcuM_ComM_BufferedWakeups) +0 == 7
                     140 	.assert 0x0 + (EcuM_CurrentBootTarget - EcuM_ComM_BufferedWakeups) +0 == 6
                     141 	.assert 0x0 + (EcuM_CurrentShutdownTarget - EcuM_ComM_BufferedWakeups) +0 == 5
                     142 	.assert 0x0 + (EcuM_CurrentShutdownMode - EcuM_ComM_BufferedWakeups) +0 == 4
                     143 ..gh.f.a.1.e.2:
                     144 	.endo	..gh.f.a.1.e.2
                     145 EcuM_Init::
00000054 b510        146 	push	{r4,lr}
00000056 4cac*       147 	ldr	r4,.L270
                     148 .LDW41:
00000058 4aaf*       149 	ldr	r2,.L325
0000005a 2010        150 	movs	r0,16
0000005c 7010        151 	strb	r0,[r2]
0000005e 48af*       152 	ldr	r0,.L326
00000060 4780        153 	blx	r0
00000062 48af*       154 	ldr	r0,.L327
00000064 4780        155 	blx	r0
00000066 2000        156 	movs	r0,0
00000068 60e0        157 	str	r0,[r4,12]
0000006a 60a0        158 	str	r0,[r4,8]
0000006c 6020        159 	str	r0,[r4]
0000006e 71e0        160 	strb	r0,[r4,7]
00000070 2001        161 	movs	r0,1
00000072 71a0        162 	strb	r0,[r4,6]
00000074 4aa8*       163 	ldr	r2,.L325
00000076 2011        164 	movs	r0,17
00000078 7010        165 	strb	r0,[r2]
0000007a 4aaa*       166 	ldr	r2,.L328
0000007c 6810        167 	ldr	r0,[r2]
0000007e 4780        168 	blx	r0
00000080 68e0        169 	ldr	r0,[r4,12]
00000082 2202        170 	movs	r2,2
00000084 4310        171 	orrs	r0,r2
00000086 60e0        172 	str	r0,[r4,12]

                                                                      Page 4
                                                              C:\Users\Fengyuan\AppData\Local\Temp\gh_00006b81.s
00000088 68a0        173 	ldr	r0,[r4,8]
0000008a 4310        174 	orrs	r0,r2
0000008c 60a0        175 	str	r0,[r4,8]
0000008e 2080        176 	movs	r0,128
00000090 7160        177 	strb	r0,[r4,5]
00000092 2000        178 	movs	r0,0
00000094 7120        179 	strb	r0,[r4,4]
00000096 49a4*       180 	ldr	r1,.L329
00000098 2001        181 	movs	r0,1
0000009a 4788        182 	blx	r1
                     183 .LDW51:
0000009c bd10        184 	pop	{r4,pc}
                     185 __ghs_eofn_EcuM_Init::
                     186 	.endf	EcuM_Init
                     187 
                     188 	.section ".bss","awb"
                     189 EcuM_CurrentShutdownMode..C.3A.5CVector.5CCBD1800257_D01_S32K1xx.5CApplications.5CS32K144_Start_new.5CAppl.5Cobj.5CEcuM.::
00000004 00          190 EcuM_CurrentShutdownMode:	.space	1
                     191 	.endo	EcuM_CurrentShutdownMode..C.3A.5CVector.5CCBD1800257_D01_S32K1xx.5CApplications.5CS32K144_Start_new.5CAppl.5Cobj.5CEcuM.
                     192 	.endo	EcuM_CurrentShutdownMode
                     193 EcuM_CurrentShutdownTarget..C.3A.5CVector.5CCBD1800257_D01_S32K1xx.5CApplications.5CS32K144_Start_new.5CAppl.5Cobj.5CEcuM.::
00000005 00          194 EcuM_CurrentShutdownTarget:	.space	1
                     195 	.endo	EcuM_CurrentShutdownTarget..C.3A.5CVector.5CCBD1800257_D01_S32K1xx.5CApplications.5CS32K144_Start_new.5CAppl.5Cobj.5CEcuM.
                     196 	.endo	EcuM_CurrentShutdownTarget
                     197 EcuM_CurrentBootTarget..C.3A.5CVector.5CCBD1800257_D01_S32K1xx.5CApplications.5CS32K144_Start_new.5CAppl.5Cobj.5CEcuM.::
00000006 00          198 EcuM_CurrentBootTarget:	.space	1
                     199 	.endo	EcuM_CurrentBootTarget..C.3A.5CVector.5CCBD1800257_D01_S32K1xx.5CApplications.5CS32K144_Start_new.5CAppl.5Cobj.5CEcuM.
                     200 	.endo	EcuM_CurrentBootTarget
                     201 EcuM_ShutdownCause..C.3A.5CVector.5CCBD1800257_D01_S32K1xx.5CApplications.5CS32K144_Start_new.5CAppl.5Cobj.5CEcuM.::
00000007 00          202 EcuM_ShutdownCause:	.space	1
                     203 	.endo	EcuM_ShutdownCause..C.3A.5CVector.5CCBD1800257_D01_S32K1xx.5CApplications.5CS32K144_Start_new.5CAppl.5Cobj.5CEcuM.
                     204 	.endo	EcuM_ShutdownCause
                     205 EcuM_BswM_BufferedWakeups..C.3A.5CVector.5CCBD1800257_D01_S32K1xx.5CApplications.5CS32K144_Start_new.5CAppl.5Cobj.5CEcuM.::
00000008 00000000    206 EcuM_BswM_BufferedWakeups:	.space	4
                     207 	.endo	EcuM_BswM_BufferedWakeups..C.3A.5CVector.5CCBD1800257_D01_S32K1xx.5CApplications.5CS32K144_Start_new.5CAppl.5Cobj.5CEcuM.
                     208 	.endo	EcuM_BswM_BufferedWakeups
                     209 EcuM_ValidatedWakeups..C.3A.5CVector.5CCBD1800257_D01_S32K1xx.5CApplications.5CS32K144_Start_new.5CAppl.5Cobj.5CEcuM.::
0000000c 00000000    210 EcuM_ValidatedWakeups:	.space	4
                     211 	.endo	EcuM_ValidatedWakeups..C.3A.5CVector.5CCBD1800257_D01_S32K1xx.5CApplications.5CS32K144_Start_new.5CAppl.5Cobj.5CEcuM.
                     212 	.endo	EcuM_ValidatedWakeups
                     213 	.text
                     214 	.assert 0x0 + (EcuM_CurrentShutdownTarget - EcuM_CurrentShutdownMode) +0 == 1
                     215 	.assert 0x0 + (EcuM_LastShutdownTarget - EcuM_CurrentShutdownMode) +0 == 13
                     216 	.assert 0x0 + (EcuM_CurrentShutdownMode - EcuM_CurrentShutdownMode) +0 == 0
                     217 	.assert 0x0 + (EcuM_LastShutdownMode - EcuM_CurrentShutdownMode) +0 == 12
                     218 ..gh.f.a.1.e.3:
                     219 	.endo	..gh.f.a.1.e.3
                     220 EcuM_Shutdown::
0000009e b510        221 	push	{r4,lr}
                     222 .LDW61:
000000a0 499d*       223 	ldr	r1,.L325
000000a2 7808        224 	ldrb	r0,[r1]
000000a4 284d        225 	cmp	r0,77
000000a6 d001*       226 	beq	.L332
                     227 ;line3292
                     228 ..lin.54fd2b29..1cc88baa.0_4::
                     229 .LDWlin4:
000000a8 2321        230 	movs	r3,33
000000aa e013*       231 	b	.L342
                     232 .L332:
000000ac 204e        233 	movs	r0,78

                                                                      Page 5
                                                              C:\Users\Fengyuan\AppData\Local\Temp\gh_00006b81.s
                     234 ;line3299
                     235 ..lin.54fd2b29..1cc88baa.0_5::
                     236 .LDWlin5:
000000ae 7008        237 	strb	r0,[r1]
000000b0 489e*       238 	ldr	r0,.L513
000000b2 4c9f*       239 	ldr	r4,.L514
000000b4 4780        240 	blx	r0
000000b6 7820        241 	ldrb	r0,[r4]
000000b8 7861        242 	ldrb	r1,[r4,1]
000000ba 7361        243 	strb	r1,[r4,13]
000000bc 7320        244 	strb	r0,[r4,12]
000000be 2980        245 	cmp	r1,128
000000c0 d004*       246 	beq	.L337
000000c2 2990        247 	cmp	r1,144
000000c4 d105*       248 	bne	.L338
                     249 ;line3319
                     250 ..lin.54fd2b29..1cc88baa.0_6::
                     251 .LDWlin6:
000000c6 499b*       252 	ldr	r1,.L515
000000c8 4788        253 	blx	r1
000000ca e008*       254 	b	.L330
                     255 .L337:
                     256 ;line3324
                     257 ..lin.54fd2b29..1cc88baa.0_7::
                     258 .LDWlin7:
000000cc 489a*       259 	ldr	r0,.L516
000000ce 4780        260 	blx	r0
000000d0 e005*       261 	b	.L330
                     262 .L338:
                     263 ;line3329
                     264 ..lin.54fd2b29..1cc88baa.0_8::
                     265 .LDWlin8:
000000d2 2316        266 	movs	r3,22
                     267 .L342:
000000d4 200a        268 	movs	r0,10
000000d6 4c99*       269 	ldr	r4,.L517
000000d8 2202        270 	movs	r2,2
000000da 2100        271 	movs	r1,0
000000dc 47a0        272 	blx	r4
                     273 .L330:
                     274 .LDW71:
000000de bd10        275 	pop	{r4,pc}
                     276 __ghs_eofn_EcuM_Shutdown::
                     277 	.endf	EcuM_Shutdown
                     278 
                     279 	.section ".bss","awb"
                     280 EcuM_LastShutdownMode..C.3A.5CVector.5CCBD1800257_D01_S32K1xx.5CApplications.5CS32K144_Start_new.5CAppl.5Cobj.5CEcuM.::
00000010 00          281 EcuM_LastShutdownMode:	.space	1
                     282 	.endo	EcuM_LastShutdownMode..C.3A.5CVector.5CCBD1800257_D01_S32K1xx.5CApplications.5CS32K144_Start_new.5CAppl.5Cobj.5CEcuM.
                     283 	.endo	EcuM_LastShutdownMode
                     284 EcuM_LastShutdownTarget..C.3A.5CVector.5CCBD1800257_D01_S32K1xx.5CApplications.5CS32K144_Start_new.5CAppl.5Cobj.5CEcuM.::
00000011 00          285 EcuM_LastShutdownTarget:	.space	1
                     286 	.endo	EcuM_LastShutdownTarget..C.3A.5CVector.5CCBD1800257_D01_S32K1xx.5CApplications.5CS32K144_Start_new.5CAppl.5Cobj.5CEcuM.
                     287 	.endo	EcuM_LastShutdownTarget
                     288 	.text
                     289 	.assert 0x0 + (EcuM_CurrentShutdownMode - EcuM_CurrentShutdownMode) +0 == 0
                     290 	.assert 0x0 + (EcuM_CurrentShutdownTarget - EcuM_CurrentShutdownMode) +0 == 1
                     291 ..gh.f.a.1.e.4:
                     292 	.endo	..gh.f.a.1.e.4
                     293 EcuM_SelectShutdownTarget::
000000e0 b520        294 	push	{r5,lr}

                                                                      Page 6
                                                              C:\Users\Fengyuan\AppData\Local\Temp\gh_00006b81.s
                     295 .LDW81:
000000e2 4b8d*       296 	ldr	r3,.L325
000000e4 781a        297 	ldrb	r2,[r3]
000000e6 3a12        298 	subs	r2,18
000000e8 2a21        299 	cmp	r2,33
000000ea d30b*       300 	blo	.L520
                     301 ;line3369
                     302 ..lin.54fd2b29..535ed511.0_9::
                     303 .LDWlin9:
000000ec 2322        304 	movs	r3,34
                     305 .L598:
000000ee 200a        306 	movs	r0,10
000000f0 4d92*       307 	ldr	r5,.L517
000000f2 2206        308 	movs	r2,6
000000f4 2100        309 	movs	r1,0
000000f6 47a8        310 	blx	r5
000000f8 2001        311 	movs	r0,1
000000fa e011*       312 	b	.L518
                     313 .L529:
000000fc 2904        314 	cmp	r1,4
000000fe d307*       315 	blo	.L524
                     316 .L525:
                     317 ;line3400
                     318 ..lin.54fd2b29..535ed511.0_10::
                     319 .LDWlin10:
00000100 2316        320 	movs	r3,22
00000102 e7f4*       321 	b	.L598
                     322 .L520:
                     323 ;line3379
                     324 ..lin.54fd2b29..535ed511.0_11::
                     325 .LDWlin11:
00000104 2890        326 	cmp	r0,144
00000106 d0f9*       327 	beq	.L529
00000108 2880        328 	cmp	r0,128
0000010a d001*       329 	beq	.L524
0000010c 2850        330 	cmp	r0,80
0000010e d1f7*       331 	bne	.L525
                     332 .L524:
00000110 4a87*       333 	ldr	r2,.L514
                     334 ;line3407
                     335 ..lin.54fd2b29..535ed511.0_12::
                     336 .LDWlin12:
00000112 2300        337 	movs	r3,0
00000114 2880        338 	cmp	r0,128
00000116 7050        339 	strb	r0,[r2,1]
00000118 d000*       340 	beq	.L533
                     341 ;line3417
                     342 ..lin.54fd2b29..535ed511.0_13::
                     343 .LDWlin13:
0000011a 460b        344 	cpy	r3,r1
                     345 .L533:
0000011c 7013        346 	strb	r3,[r2]
0000011e 2000        347 	movs	r0,0
                     348 .L518:
                     349 .LDW91:
00000120 bd20        350 	pop	{r5,pc}
                     351 __ghs_eofn_EcuM_SelectShutdownTarget::
                     352 	.endf	EcuM_SelectShutdownTarget
                     353 ;errorId	r3	local
                     354 ;retval	r4	local
                     355 

                                                                      Page 7
                                                              C:\Users\Fengyuan\AppData\Local\Temp\gh_00006b81.s
                     356 ;targetState	r0	param
                     357 ;resetSleepMode	r1	param
                     358 
                     359 	.assert 0x0 + (EcuM_CurrentShutdownTarget - EcuM_CurrentShutdownMode) +0 == 1
                     360 	.assert 0x0 + (EcuM_CurrentShutdownMode - EcuM_CurrentShutdownMode) +0 == 0
                     361 ..gh.f.a.1.e.5:
                     362 	.endo	..gh.f.a.1.e.5
                     363 EcuM_GetShutdownTarget::
00000122 b530        364 	push	{r4-r5,lr}
                     365 .LDW02:
00000124 4b7c*       366 	ldr	r3,.L325
00000126 2401        367 	movs	r4,1
00000128 781a        368 	ldrb	r2,[r3]
0000012a 2a12        369 	cmp	r2,18
0000012c d206*       370 	bhs	.L815
                     371 ;line3460
                     372 ..lin.54fd2b29..fa06e471.0_14::
                     373 .LDWlin14:
0000012e 2310        374 	movs	r3,16
                     375 .L823:
00000130 2209        376 	movs	r2,9
00000132 4d82*       377 	ldr	r5,.L517
00000134 200a        378 	movs	r0,10
00000136 2100        379 	movs	r1,0
00000138 47a8        380 	blx	r5
0000013a e009*       381 	b	.L822
                     382 .L815:
                     383 ;line3465
                     384 ..lin.54fd2b29..fa06e471.0_15::
                     385 .LDWlin15:
0000013c b100*       386 	cbz	r0,.L819
0000013e b909*       387 	cbnz	r1,.L818
                     388 .L819:
00000140 2312        389 	movs	r3,18
00000142 e7f5*       390 	b	.L823
                     391 .L818:
00000144 4a7a*       392 	ldr	r2,.L514
                     393 ;line3474
                     394 ..lin.54fd2b29..fa06e471.0_16::
                     395 .LDWlin16:
00000146 2400        396 	movs	r4,0
00000148 7853        397 	ldrb	r3,[r2,1]
0000014a 7003        398 	strb	r3,[r0]
0000014c 7810        399 	ldrb	r0,[r2]
0000014e 7008        400 	strb	r0,[r1]
                     401 .L822:
00000150 4620        402 	cpy	r0,r4
                     403 .LDW12:
00000152 bd30        404 	pop	{r4-r5,pc}
                     405 __ghs_eofn_EcuM_GetShutdownTarget::
                     406 	.endf	EcuM_GetShutdownTarget
                     407 ;retval	r4	local
                     408 
                     409 ;target	r0	param
                     410 ;resetSleepMode	r1	param
                     411 
                     412 	.assert 0x0 + (EcuM_LastShutdownTarget - EcuM_LastShutdownMode) +0 == 1
                     413 	.assert 0x0 + (EcuM_LastShutdownMode - EcuM_LastShutdownMode) +0 == 0
                     414 ..gh.f.a.1.e.6:
                     415 	.endo	..gh.f.a.1.e.6
                     416 EcuM_GetLastShutdownTarget::

                                                                      Page 8
                                                              C:\Users\Fengyuan\AppData\Local\Temp\gh_00006b81.s
00000154 b530        417 	push	{r4-r5,lr}
                     418 .LDW22:
00000156 4b70*       419 	ldr	r3,.L325
00000158 2401        420 	movs	r4,1
0000015a 781a        421 	ldrb	r2,[r3]
0000015c 2a12        422 	cmp	r2,18
0000015e d206*       423 	bhs	.L985
                     424 ;line3517
                     425 ..lin.54fd2b29..e61c8f25.0_17::
                     426 .LDWlin17:
00000160 2310        427 	movs	r3,16
                     428 .L993:
00000162 2208        429 	movs	r2,8
00000164 4d75*       430 	ldr	r5,.L517
00000166 200a        431 	movs	r0,10
00000168 2100        432 	movs	r1,0
0000016a 47a8        433 	blx	r5
0000016c e009*       434 	b	.L992
                     435 .L985:
                     436 ;line3522
                     437 ..lin.54fd2b29..e61c8f25.0_18::
                     438 .LDWlin18:
0000016e b100*       439 	cbz	r0,.L989
00000170 b909*       440 	cbnz	r1,.L988
                     441 .L989:
00000172 2312        442 	movs	r3,18
00000174 e7f5*       443 	b	.L993
                     444 .L988:
00000176 4a72*       445 	ldr	r2,.L1159
                     446 ;line3531
                     447 ..lin.54fd2b29..e61c8f25.0_19::
                     448 .LDWlin19:
00000178 2400        449 	movs	r4,0
0000017a 7853        450 	ldrb	r3,[r2,1]
0000017c 7003        451 	strb	r3,[r0]
0000017e 7810        452 	ldrb	r0,[r2]
00000180 7008        453 	strb	r0,[r1]
                     454 .L992:
00000182 4620        455 	cpy	r0,r4
                     456 .LDW32:
00000184 bd30        457 	pop	{r4-r5,pc}
                     458 __ghs_eofn_EcuM_GetLastShutdownTarget::
                     459 	.endf	EcuM_GetLastShutdownTarget
                     460 ;retval	r4	local
                     461 
                     462 ;target	r0	param
                     463 ;resetSleepMode	r1	param
                     464 
                     465 ..gh.f.a.1.e.7:
                     466 	.endo	..gh.f.a.1.e.7
                     467 EcuM_SelectShutdownCause::
00000186 b530        468 	push	{r4-r5,lr}
                     469 .LDW42:
00000188 4a63*       470 	ldr	r2,.L325
0000018a 2401        471 	movs	r4,1
0000018c 7811        472 	ldrb	r1,[r2]
0000018e 2912        473 	cmp	r1,18
00000190 d206*       474 	bhs	.L1162
                     475 ;line3573
                     476 ..lin.54fd2b29..4724a2bb.0_20::
                     477 .LDWlin20:

                                                                      Page 9
                                                              C:\Users\Fengyuan\AppData\Local\Temp\gh_00006b81.s
00000192 2310        478 	movs	r3,16
                     479 .L1168:
00000194 221b        480 	movs	r2,27
00000196 4d69*       481 	ldr	r5,.L517
00000198 200a        482 	movs	r0,10
0000019a 2100        483 	movs	r1,0
0000019c 47a8        484 	blx	r5
0000019e e005*       485 	b	.L1167
                     486 .L1162:
000001a0 2313        487 	movs	r3,19
                     488 ;line3581
                     489 ..lin.54fd2b29..4724a2bb.0_21::
                     490 .LDWlin21:
000001a2 2804        491 	cmp	r0,4
000001a4 d2f6*       492 	bhs	.L1168
                     493 ;line3585
                     494 ..lin.54fd2b29..4724a2bb.0_22::
                     495 .LDWlin22:
000001a6 4967*       496 	ldr	r1,.L1298
000001a8 2400        497 	movs	r4,0
000001aa 7008        498 	strb	r0,[r1]
                     499 .L1167:
000001ac 4620        500 	cpy	r0,r4
                     501 .LDW52:
000001ae bd30        502 	pop	{r4-r5,pc}
                     503 __ghs_eofn_EcuM_SelectShutdownCause::
                     504 	.endf	EcuM_SelectShutdownCause
                     505 ;retval	r4	local
                     506 ;errorId	r3	local
                     507 
                     508 ;shutdownCause	r0	param
                     509 
                     510 ..gh.f.a.1.e.8:
                     511 	.endo	..gh.f.a.1.e.8
                     512 EcuM_GetShutdownCause::
000001b0 b530        513 	push	{r4-r5,lr}
                     514 .LDW62:
000001b2 4a59*       515 	ldr	r2,.L325
000001b4 2401        516 	movs	r4,1
000001b6 2310        517 	movs	r3,16
000001b8 7811        518 	ldrb	r1,[r2]
000001ba 2912        519 	cmp	r1,18
000001bc d306*       520 	blo	.L1308
                     521 ;line3638
                     522 ..lin.54fd2b29..e758461b.0_23::
                     523 .LDWlin23:
000001be 2312        524 	movs	r3,18
000001c0 b120*       525 	cbz	r0,.L1308
000001c2 4a60*       526 	ldr	r2,.L1298
000001c4 2400        527 	movs	r4,0
000001c6 7811        528 	ldrb	r1,[r2]
000001c8 7001        529 	strb	r1,[r0]
000001ca e004*       530 	b	.L1307
                     531 .L1308:
                     532 ;line3657
                     533 ..lin.54fd2b29..e758461b.0_24::
                     534 .LDWlin24:
000001cc 221c        535 	movs	r2,28
000001ce 4d5b*       536 	ldr	r5,.L517
000001d0 200a        537 	movs	r0,10
000001d2 2100        538 	movs	r1,0

                                                                      Page 10
                                                              C:\Users\Fengyuan\AppData\Local\Temp\gh_00006b81.s
000001d4 47a8        539 	blx	r5
                     540 .L1307:
000001d6 4620        541 	cpy	r0,r4
                     542 .LDW72:
000001d8 bd30        543 	pop	{r4-r5,pc}
                     544 __ghs_eofn_EcuM_GetShutdownCause::
                     545 	.endf	EcuM_GetShutdownCause
                     546 ;retval	r4	local
                     547 ;errorId	r3	local
                     548 
                     549 ;shutdownCause	r0	param
                     550 
                     551 ..gh.f.a.1.e.9:
                     552 	.endo	..gh.f.a.1.e.9
                     553 EcuM_GetPendingWakeupEvents::
000001da b510        554 	push	{r4,lr}
                     555 .LDW82:
000001dc 494e*       556 	ldr	r1,.L325
000001de 7808        557 	ldrb	r0,[r1]
000001e0 2811        558 	cmp	r0,17
000001e2 d205*       559 	bhs	.L1443
                     560 ;line3709
                     561 ..lin.54fd2b29..dbdf9bd5.0_25::
                     562 .LDWlin25:
000001e4 2310        563 	movs	r3,16
000001e6 220d        564 	movs	r2,13
000001e8 4c54*       565 	ldr	r4,.L517
000001ea 200a        566 	movs	r0,10
000001ec 2100        567 	movs	r1,0
000001ee 47a0        568 	blx	r4
                     569 .L1443:
000001f0 2000        570 	movs	r0,0
                     571 .LDW92:
000001f2 bd10        572 	pop	{r4,pc}
                     573 __ghs_eofn_EcuM_GetPendingWakeupEvents::
                     574 	.endf	EcuM_GetPendingWakeupEvents
                     575 
                     576 	.section ".bss","awb"
                     577 .L1500:
                     578 	.endo	.L1500
                     579 	.text
                     580 	.assert 0x0 + (EcuM_ValidatedWakeups - EcuM_ComM_BufferedWakeups) +0 == 12
                     581 	.assert 0x0 + (EcuM_BswM_BufferedWakeups - EcuM_ComM_BufferedWakeups) +0 == 8
                     582 	.assert 0x0 + (EcuM_ComM_BufferedWakeups - EcuM_ComM_BufferedWakeups) +0 == 0
                     583 ..gh.f.a.1.e.10:
                     584 	.endo	..gh.f.a.1.e.10
                     585 EcuM_ClearWakeupEvent::
000001f4 b530        586 	push	{r4-r5,lr}
000001f6 4605        587 	cpy	r5,r0
                     588 .LDW03:
000001f8 4947*       589 	ldr	r1,.L325
000001fa 7808        590 	ldrb	r0,[r1]
000001fc 2811        591 	cmp	r0,17
000001fe d317*       592 	blo	.L1554
00000200 4851*       593 	ldr	r0,.L1677
                     594 ;line3747
                     595 ..lin.54fd2b29..677c8484.0_26::
                     596 .LDWlin26:
00000202 4c41*       597 	ldr	r4,.L270
00000204 4780        598 	blx	r0
00000206 43e8        599 	mvns	r0,r5

                                                                      Page 11
                                                              C:\Users\Fengyuan\AppData\Local\Temp\gh_00006b81.s
00000208 68e1        600 	ldr	r1,[r4,12]
0000020a 4001        601 	ands	r1,r0
0000020c 60e1        602 	str	r1,[r4,12]
0000020e 68a1        603 	ldr	r1,[r4,8]
00000210 4001        604 	ands	r1,r0
00000212 60a1        605 	str	r1,[r4,8]
00000214 6821        606 	ldr	r1,[r4]
00000216 4a40*       607 	ldr	r2,.L325
00000218 4001        608 	ands	r1,r0
0000021a 6021        609 	str	r1,[r4]
0000021c 7810        610 	ldrb	r0,[r2]
0000021e 2811        611 	cmp	r0,17
00000220 d903*       612 	bls	.L1551
                     613 ;line3757
                     614 ..lin.54fd2b29..677c8484.0_27::
                     615 .LDWlin27:
00000222 4a4a*       616 	ldr	r2,.L1678
00000224 4628        617 	cpy	r0,r5
00000226 2100        618 	movs	r1,0
00000228 4790        619 	blx	r2
                     620 .L1551:
0000022a 4849*       621 	ldr	r0,.L1679
0000022c 4780        622 	blx	r0
0000022e e005*       623 	b	.L1542
                     624 .L1554:
                     625 ;line3768
                     626 ..lin.54fd2b29..677c8484.0_28::
                     627 .LDWlin28:
00000230 2310        628 	movs	r3,16
00000232 2216        629 	movs	r2,22
00000234 4c41*       630 	ldr	r4,.L517
00000236 200a        631 	movs	r0,10
00000238 2100        632 	movs	r1,0
0000023a 47a0        633 	blx	r4
                     634 .L1542:
                     635 .LDW13:
0000023c bd30        636 	pop	{r4-r5,pc}
                     637 __ghs_eofn_EcuM_ClearWakeupEvent::
                     638 	.endf	EcuM_ClearWakeupEvent
                     639 
                     640 ;WakeupSource	r5	param
                     641 
                     642 ..gh.f.a.1.e.11:
                     643 	.endo	..gh.f.a.1.e.11
                     644 EcuM_ClearValidatedWakeupEvent::
0000023e b510        645 	push	{r4,lr}
00000240 4604        646 	cpy	r4,r0
                     647 .LDW23:
00000242 4935*       648 	ldr	r1,.L325
00000244 7808        649 	ldrb	r0,[r1]
00000246 2811        650 	cmp	r0,17
00000248 d30c*       651 	blo	.L1686
                     652 ;line3804
                     653 ..lin.54fd2b29..690cb872.0_29::
                     654 .LDWlin29:
0000024a 483f*       655 	ldr	r0,.L1677
0000024c 4780        656 	blx	r0
0000024e 4941*       657 	ldr	r1,.L1775
00000250 4a3e*       658 	ldr	r2,.L1678
00000252 6808        659 	ldr	r0,[r1]
00000254 43a0        660 	bics	r0,r4

                                                                      Page 12
                                                              C:\Users\Fengyuan\AppData\Local\Temp\gh_00006b81.s
00000256 6008        661 	str	r0,[r1]
00000258 4620        662 	cpy	r0,r4
0000025a 2100        663 	movs	r1,0
0000025c 4790        664 	blx	r2
0000025e 483c*       665 	ldr	r0,.L1679
00000260 4780        666 	blx	r0
00000262 e005*       667 	b	.L1680
                     668 .L1686:
                     669 ;line3824
                     670 ..lin.54fd2b29..690cb872.0_30::
                     671 .LDWlin30:
00000264 2310        672 	movs	r3,16
00000266 2230        673 	movs	r2,48
00000268 4c34*       674 	ldr	r4,.L517
0000026a 200a        675 	movs	r0,10
0000026c 2100        676 	movs	r1,0
0000026e 47a0        677 	blx	r4
                     678 .L1680:
                     679 .LDW33:
00000270 bd10        680 	pop	{r4,pc}
                     681 __ghs_eofn_EcuM_ClearValidatedWakeupEvent::
                     682 	.endf	EcuM_ClearValidatedWakeupEvent
                     683 
                     684 ;WakeupSource	r4	param
                     685 
                     686 ..gh.f.a.1.e.12:
                     687 	.endo	..gh.f.a.1.e.12
                     688 EcuM_GetValidatedWakeupEvents::
00000272 b530        689 	push	{r4-r5,lr}
                     690 .LDW43:
00000274 4928*       691 	ldr	r1,.L325
00000276 7808        692 	ldrb	r0,[r1]
00000278 2811        693 	cmp	r0,17
0000027a d302*       694 	blo	.L1782
                     695 ;line3864
                     696 ..lin.54fd2b29..6812af7e.0_31::
                     697 .LDWlin31:
0000027c 4835*       698 	ldr	r0,.L1775
0000027e 6804        699 	ldr	r4,[r0]
00000280 e006*       700 	b	.L1781
                     701 .L1782:
00000282 2400        702 	movs	r4,0
                     703 ;line3873
                     704 ..lin.54fd2b29..6812af7e.0_32::
                     705 .LDWlin32:
00000284 2310        706 	movs	r3,16
00000286 2215        707 	movs	r2,21
00000288 4d2c*       708 	ldr	r5,.L517
0000028a 200a        709 	movs	r0,10
0000028c 4621        710 	cpy	r1,r4
0000028e 47a8        711 	blx	r5
                     712 .L1781:
00000290 4620        713 	cpy	r0,r4
                     714 .LDW53:
00000292 bd30        715 	pop	{r4-r5,pc}
                     716 __ghs_eofn_EcuM_GetValidatedWakeupEvents::
                     717 	.endf	EcuM_GetValidatedWakeupEvents
                     718 ;retval	r4	local
                     719 
                     720 ..gh.f.a.1.e.13:
                     721 	.endo	..gh.f.a.1.e.13

                                                                      Page 13
                                                              C:\Users\Fengyuan\AppData\Local\Temp\gh_00006b81.s
                     722 EcuM_GetExpiredWakeupEvents::
00000294 b510        723 	push	{r4,lr}
                     724 .LDW63:
00000296 4920*       725 	ldr	r1,.L325
00000298 7808        726 	ldrb	r0,[r1]
0000029a 2811        727 	cmp	r0,17
0000029c d205*       728 	bhs	.L1891
                     729 ;line3927
                     730 ..lin.54fd2b29..b02f981.0_33::
                     731 .LDWlin33:
0000029e 2310        732 	movs	r3,16
000002a0 2219        733 	movs	r2,25
000002a2 4c26*       734 	ldr	r4,.L517
000002a4 200a        735 	movs	r0,10
000002a6 2100        736 	movs	r1,0
000002a8 47a0        737 	blx	r4
                     738 .L1891:
000002aa 2000        739 	movs	r0,0
                     740 .LDW73:
000002ac bd10        741 	pop	{r4,pc}
                     742 __ghs_eofn_EcuM_GetExpiredWakeupEvents::
                     743 	.endf	EcuM_GetExpiredWakeupEvents
                     744 
                     745 	.section ".bss","awb"
                     746 .L1948:
                     747 	.endo	.L1948
                     748 	.text
                     749 ..gh.f.a.1.e.14:
                     750 	.endo	..gh.f.a.1.e.14
                     751 EcuM_GetBootTarget::
000002ae b530        752 	push	{r4-r5,lr}
                     753 .LDW83:
000002b0 4a19*       754 	ldr	r2,.L325
000002b2 2401        755 	movs	r4,1
000002b4 2310        756 	movs	r3,16
000002b6 7811        757 	ldrb	r1,[r2]
000002b8 2912        758 	cmp	r1,18
000002ba d306*       759 	blo	.L1999
                     760 ;line4231
                     761 ..lin.54fd2b29..6d886229.0_34::
                     762 .LDWlin34:
000002bc 2312        763 	movs	r3,18
000002be b120*       764 	cbz	r0,.L1999
000002c0 4a25*       765 	ldr	r2,.L2126
000002c2 2400        766 	movs	r4,0
000002c4 7811        767 	ldrb	r1,[r2]
000002c6 7001        768 	strb	r1,[r0]
000002c8 e004*       769 	b	.L1998
                     770 .L1999:
                     771 ;line4248
                     772 ..lin.54fd2b29..6d886229.0_35::
                     773 .LDWlin35:
000002ca 2213        774 	movs	r2,19
000002cc 4d1b*       775 	ldr	r5,.L517
000002ce 200a        776 	movs	r0,10
000002d0 2100        777 	movs	r1,0
000002d2 47a8        778 	blx	r5
                     779 .L1998:
000002d4 4620        780 	cpy	r0,r4
                     781 .LDW93:
000002d6 bd30        782 	pop	{r4-r5,pc}

                                                                      Page 14
                                                              C:\Users\Fengyuan\AppData\Local\Temp\gh_00006b81.s
                     783 __ghs_eofn_EcuM_GetBootTarget::
                     784 	.endf	EcuM_GetBootTarget
                     785 ;errorId	r3	local
                     786 ;retval	r4	local
                     787 
                     788 ;BootTarget	r0	param
                     789 
                     790 ..gh.f.a.1.e.15:
                     791 	.endo	..gh.f.a.1.e.15
                     792 EcuM_SelectBootTarget::
000002d8 b530        793 	push	{r4-r5,lr}
                     794 .LDW04:
000002da 4a0f*       795 	ldr	r2,.L325
000002dc 2401        796 	movs	r4,1
000002de 2310        797 	movs	r3,16
000002e0 7811        798 	ldrb	r1,[r2]
000002e2 2912        799 	cmp	r1,18
000002e4 d309*       800 	blo	.L2138
                     801 ;line4283
                     802 ..lin.54fd2b29..d04102c9.0_36::
                     803 .LDWlin36:
000002e6 b120*       804 	cbz	r0,.L2132
000002e8 2801        805 	cmp	r0,1
000002ea d002*       806 	beq	.L2132
000002ec 2313        807 	movs	r3,19
000002ee 2802        808 	cmp	r0,2
000002f0 d103*       809 	bne	.L2138
                     810 .L2132:
                     811 ;line4293
                     812 ..lin.54fd2b29..d04102c9.0_37::
                     813 .LDWlin37:
000002f2 4919*       814 	ldr	r1,.L2126
000002f4 2400        815 	movs	r4,0
000002f6 7008        816 	strb	r0,[r1]
000002f8 e004*       817 	b	.L2137
                     818 .L2138:
                     819 ;line4302
                     820 ..lin.54fd2b29..d04102c9.0_38::
                     821 .LDWlin38:
000002fa 2212        822 	movs	r2,18
000002fc 4d0f*       823 	ldr	r5,.L517
000002fe 200a        824 	movs	r0,10
00000300 2100        825 	movs	r1,0
00000302 47a8        826 	blx	r5
                     827 .L2137:
00000304 4620        828 	cpy	r0,r4
                     829 .LDW14:
00000306 bd30        830 	pop	{r4-r5,pc}
                     831 __ghs_eofn_EcuM_SelectBootTarget::
                     832 	.endf	EcuM_SelectBootTarget
                     833 	.align	4
00000308 00000000*   834 .L270:	.data.w	EcuM_ComM_BufferedWakeups
                     835 	.endo	.L270
                     836 
0000030c 00000000*   837 .L271:	.data.w	ComM_GetStatus
                     838 	.endo	.L271
                     839 
00000310 00000000*   840 .L272:	.data.w	EcuM_WakeupSourceList
                     841 	.endo	.L272
                     842 
00000314 00000000*   843 .L273:	.data.w	ComM_EcuM_WakeUpIndication

                                                                      Page 15
                                                              C:\Users\Fengyuan\AppData\Local\Temp\gh_00006b81.s
                     844 	.endo	.L273
                     845 
00000318 00000000*   846 .L325:	.data.w	EcuM_ModuleState
                     847 	.endo	.L325
                     848 
0000031c 00000000*   849 .L326:	.data.w	EcuM_AL_SetProgrammableInterrupts
                     850 	.endo	.L326
                     851 
00000320 00000000*   852 .L327:	.data.w	EcuM_AL_DriverInitZero
                     853 	.endo	.L327
                     854 
00000324 00000000*   855 .L328:	.data.w	EcuM_DriverInitOne
                     856 	.endo	.L328
                     857 
00000328 00000000*   858 .L329:	.data.w	EcuM_StartOS
                     859 	.endo	.L329
                     860 
0000032c 00000000*   861 .L513:	.data.w	EcuM_OnGoOffTwo
                     862 	.endo	.L513
                     863 
00000330 00000000*   864 .L514:	.data.w	EcuM_CurrentShutdownMode
                     865 	.endo	.L514
                     866 
00000334 00000000*   867 .L515:	.data.w	EcuM_AL_Reset
                     868 	.endo	.L515
                     869 
00000338 00000000*   870 .L516:	.data.w	EcuM_AL_SwitchOff
                     871 	.endo	.L516
                     872 
0000033c 00000000*   873 .L517:	.data.w	Det_ReportError
                     874 	.endo	.L517
                     875 
00000340 00000000*   876 .L1159:	.data.w	EcuM_LastShutdownMode
                     877 	.endo	.L1159
                     878 
00000344 00000000*   879 .L1298:	.data.w	EcuM_ShutdownCause
                     880 	.endo	.L1298
                     881 
00000348 00000000*   882 .L1677:	.data.w	SuspendAllInterrupts
                     883 	.endo	.L1677
                     884 
0000034c 00000000*   885 .L1678:	.data.w	BswM_EcuM_CurrentWakeup
                     886 	.endo	.L1678
                     887 
00000350 00000000*   888 .L1679:	.data.w	ResumeAllInterrupts
                     889 	.endo	.L1679
                     890 
00000354 00000000*   891 .L1775:	.data.w	EcuM_ValidatedWakeups
                     892 	.endo	.L1775
                     893 
00000358 00000000*   894 .L2126:	.data.w	EcuM_CurrentBootTarget
                     895 	.endo	.L2126
                     896 
                     897 ;errorId	r3	local
                     898 ;retval	r4	local
                     899 
                     900 ;BootTarget	r0	param
                     901 
                     902 	.assert 0x0 + (EcuM_BswM_BufferedWakeups - EcuM_BswM_BufferedWakeups) +0 == 0
                     903 	.assert 0x0 + (EcuM_ValidatedWakeups - EcuM_BswM_BufferedWakeups) +0 == 4
                     904 ..gh.f.a.1.e.16:

                                                                      Page 16
                                                              C:\Users\Fengyuan\AppData\Local\Temp\gh_00006b81.s
                     905 	.endo	..gh.f.a.1.e.16
                     906 EcuM_StartupTwo::
0000035c b510        907 	push	{r4,lr}
                     908 .LDW24:
                     909 .LDW34:
                     910 
0000035e 495b*       911 	ldr	r1,.L2431
00000360 7808        912 	ldrb	r0,[r1]
00000362 2811        913 	cmp	r0,17
00000364 d118*       914 	bne	.L2310
00000366 485a*       915 	ldr	r0,.L2432
                     916 ;line4376
                     917 ..lin.54fd2b29..fd9136bb.0_39::
                     918 .LDWlin39:
00000368 4c5a*       919 	ldr	r4,.L2433
0000036a 4780        920 	blx	r0
0000036c 495a*       921 	ldr	r1,.L2434
0000036e 2000        922 	movs	r0,0
00000370 4788        923 	blx	r1
00000372 4a56*       924 	ldr	r2,.L2431
00000374 2030        925 	movs	r0,48
00000376 7010        926 	strb	r0,[r2]
00000378 4858*       927 	ldr	r0,.L2435
0000037a 4780        928 	blx	r0
0000037c 6860        929 	ldr	r0,[r4,4]
0000037e b140*       930 	cbz	r0,.L2307
00000380 6821        931 	ldr	r1,[r4]
00000382 4a57*       932 	ldr	r2,.L2436
00000384 4008        933 	ands	r0,r1
00000386 2102        934 	movs	r1,2
00000388 4790        935 	blx	r2
0000038a 6820        936 	ldr	r0,[r4]
0000038c 6861        937 	ldr	r1,[r4,4]
0000038e 4388        938 	bics	r0,r1
00000390 6020        939 	str	r0,[r4]
                     940 .L2307:
00000392 4854*       941 	ldr	r0,.L2437
00000394 4780        942 	blx	r0
00000396 e005*       943 	b	.L2302
                     944 .L2310:
                     945 ;line4423
                     946 ..lin.54fd2b29..fd9136bb.0_40::
                     947 .LDWlin40:
00000398 2320        948 	movs	r3,32
0000039a 221a        949 	movs	r2,26
0000039c 4c52*       950 	ldr	r4,.L2438
0000039e 200a        951 	movs	r0,10
000003a0 2100        952 	movs	r1,0
000003a2 47a0        953 	blx	r4
                     954 .L2302:
                     955 .LDW44:
                     956 
                     957 .LDW54:
000003a4 bd10        958 	pop	{r4,pc}
                     959 __ghs_eofn_EcuM_StartupTwo::
                     960 	.endf	EcuM_StartupTwo
                     961 
                     962 ..gh.f.a.1.e.17:
                     963 	.endo	..gh.f.a.1.e.17
                     964 EcuM_SetWakeupEvent::
000003a6 b510        965 	push	{r4,lr}

                                                                      Page 17
                                                              C:\Users\Fengyuan\AppData\Local\Temp\gh_00006b81.s
                     966 .LDW64:
000003a8 4950*       967 	ldr	r1,.L2542
000003aa 4604        968 	cpy	r4,r0
000003ac 4788        969 	blx	r1
000003ae 1e61        970 	subs	r1,r4,1
000003b0 4021        971 	ands	r1,r4
000003b2 d105*       972 	bne	.L2446
000003b4 2806        973 	cmp	r0,6
000003b6 d203*       974 	bhs	.L2446
                     975 ;line4570
                     976 ..lin.54fd2b29..ffea2d29.0_41::
                     977 .LDWlin41:
000003b8 494d*       978 	ldr	r1,.L2543
000003ba 4620        979 	cpy	r0,r4
000003bc 4788        980 	blx	r1
000003be e005*       981 	b	.L2439
                     982 .L2446:
                     983 ;line4587
                     984 ..lin.54fd2b29..ffea2d29.0_42::
                     985 .LDWlin42:
000003c0 2317        986 	movs	r3,23
000003c2 220c        987 	movs	r2,12
000003c4 4c48*       988 	ldr	r4,.L2438
000003c6 200a        989 	movs	r0,10
000003c8 2100        990 	movs	r1,0
000003ca 47a0        991 	blx	r4
                     992 .L2439:
                     993 .LDW74:
000003cc bd10        994 	pop	{r4,pc}
                     995 __ghs_eofn_EcuM_SetWakeupEvent::
                     996 	.endf	EcuM_SetWakeupEvent
                     997 ;Shiftcount	r0	local
                     998 
                     999 ;WakeupSource	r4	param
                    1000 
                    1001 	.section ".bss","awb"
                    1002 .L2491:
                    1003 	.endo	.L2491
                    1004 	.text
                    1005 	.assert 0x0 + (EcuM_ComM_BufferedWakeups - EcuM_ComM_BufferedWakeups) +0 == 0
                    1006 	.assert 0x0 + (EcuM_BswM_BufferedWakeups - EcuM_ComM_BufferedWakeups) +0 == 8
                    1007 	.assert 0x0 + (EcuM_ValidatedWakeups - EcuM_ComM_BufferedWakeups) +0 == 12
                    1008 ..gh.f.a.1.e.18:
                    1009 	.endo	..gh.f.a.1.e.18
                    1010 EcuM_ValidateWakeupEvent::
000003ce b570       1011 	push	{r4-r6,lr}
000003d0 b081       1012 	sub	sp,4
                    1013 .LDW84:
000003d2 4946*      1014 	ldr	r1,.L2542
000003d4 4605       1015 	cpy	r5,r0
000003d6 4788       1016 	blx	r1
000003d8 4606       1017 	cpy	r6,r0
000003da 1e68       1018 	subs	r0,r5,1
000003dc 4028       1019 	ands	r0,r5
000003de d12f*      1020 	bne	.L2562
000003e0 2e06       1021 	cmp	r6,6
000003e2 d22d*      1022 	bhs	.L2562
                    1023 ;line4638
                    1024 ..lin.54fd2b29..2a2d3807.0_43::
                    1025 .LDWlin43:
000003e4 483d*      1026 	ldr	r0,.L2435

                                                                      Page 18
                                                              C:\Users\Fengyuan\AppData\Local\Temp\gh_00006b81.s
000003e6 4780       1027 	blx	r0
000003e8 4a38*      1028 	ldr	r2,.L2431
000003ea 7811       1029 	ldrb	r1,[r2]
000003ec 2930       1030 	cmp	r1,48
000003ee d103*      1031 	bne	.L2551
000003f0 4840*      1032 	ldr	r0,.L2825
000003f2 5d80       1033 	ldrb	r0,[r0,r6]
000003f4 28ff       1034 	cmp	r0,255
000003f6 d020*      1035 	beq	.L2550
                    1036 .L2551:
000003f8 4c3f*      1037 	ldr	r4,.L2826
                    1038 ;line4661
                    1039 ..lin.54fd2b29..2a2d3807.0_44::
                    1040 .LDWlin44:
000003fa 68e0       1041 	ldr	r0,[r4,12]
000003fc 4328       1042 	orrs	r0,r5
000003fe 60e0       1043 	str	r0,[r4,12]
00000400 2912       1044 	cmp	r1,18
00000402 d904*      1045 	bls	.L2553
                    1046 ;line4671
                    1047 ..lin.54fd2b29..2a2d3807.0_45::
                    1048 .LDWlin45:
00000404 4a36*      1049 	ldr	r2,.L2436
00000406 4628       1050 	cpy	r0,r5
00000408 2102       1051 	movs	r1,2
0000040a 4790       1052 	blx	r2
0000040c e002*      1053 	b	.L2555
                    1054 .L2553:
                    1055 ;line4676
                    1056 ..lin.54fd2b29..2a2d3807.0_46::
                    1057 .LDWlin46:
0000040e 68a0       1058 	ldr	r0,[r4,8]
00000410 4328       1059 	orrs	r0,r5
00000412 60a0       1060 	str	r0,[r4,8]
                    1061 .L2555:
00000414 4837*      1062 	ldr	r0,.L2825
00000416 5d86       1063 	ldrb	r6,[r0,r6]
00000418 2eff       1064 	cmp	r6,255
0000041a d00e*      1065 	beq	.L2550
                    1066 .LDW94:
                    1067 
                    1068 ;line4692
                    1069 ..lin.54fd2b29..2a2d3807.0_47::
                    1070 .LDWlin47:
0000041c 4937*      1071 	ldr	r1,.L2827
0000041e 4668       1072 	mov	r0,sp
00000420 3003       1073 	adds	r0,3
00000422 4788       1074 	blx	r1
00000424 4668       1075 	mov	r0,sp
00000426 78c0       1076 	ldrb	r0,[r0,3]
00000428 2801       1077 	cmp	r0,1
0000042a d103*      1078 	bne	.L2558
                    1079 ;line4702
                    1080 ..lin.54fd2b29..2a2d3807.0_48::
                    1081 .LDWlin48:
0000042c 4934*      1082 	ldr	r1,.L2828
0000042e 4630       1083 	cpy	r0,r6
00000430 4788       1084 	blx	r1
00000432 e002*      1085 	b	.L2550
                    1086 .L2558:
                    1087 ;line4715

                                                                      Page 19
                                                              C:\Users\Fengyuan\AppData\Local\Temp\gh_00006b81.s
                    1088 ..lin.54fd2b29..2a2d3807.0_49::
                    1089 .LDWlin49:
00000434 6820       1090 	ldr	r0,[r4]
00000436 4328       1091 	orrs	r0,r5
00000438 6020       1092 	str	r0,[r4]
                    1093 .L2550:
                    1094 .LDW05:
                    1095 
0000043a 482a*      1096 	ldr	r0,.L2437
0000043c 4780       1097 	blx	r0
0000043e e005*      1098 	b	.L2544
                    1099 .L2562:
                    1100 ;line4736
                    1101 ..lin.54fd2b29..2a2d3807.0_50::
                    1102 .LDWlin50:
00000440 2317       1103 	movs	r3,23
00000442 2214       1104 	movs	r2,20
00000444 4c28*      1105 	ldr	r4,.L2438
00000446 200a       1106 	movs	r0,10
00000448 2100       1107 	movs	r1,0
0000044a 47a0       1108 	blx	r4
                    1109 .L2544:
                    1110 .LDW15:
0000044c b001       1111 	add	sp,4
0000044e bd70       1112 	pop	{r4-r6,pc}
                    1113 __ghs_eofn_EcuM_ValidateWakeupEvent::
                    1114 	.endf	EcuM_ValidateWakeupEvent
                    1115 ;Shiftcount	r6	local
                    1116 ;ComMStatus	[sp,3]	local
                    1117 
                    1118 ;WakeupSource	r5	param
                    1119 
                    1120 ..gh.f.a.1.e.19:
                    1121 	.endo	..gh.f.a.1.e.19
                    1122 EcuM_GoHalt::
00000450 b510       1123 	push	{r4,lr}
                    1124 .LDW25:
00000452 2323       1125 	movs	r3,35
00000454 2220       1126 	movs	r2,32
00000456 4c24*      1127 	ldr	r4,.L2438
00000458 200a       1128 	movs	r0,10
0000045a 2100       1129 	movs	r1,0
0000045c 47a0       1130 	blx	r4
0000045e 2001       1131 	movs	r0,1
                    1132 .LDW35:
00000460 bd10       1133 	pop	{r4,pc}
                    1134 __ghs_eofn_EcuM_GoHalt::
                    1135 	.endf	EcuM_GoHalt
                    1136 
                    1137 	.section ".bss","awb"
                    1138 .L2846:
                    1139 	.endo	.L2846
                    1140 	.text
                    1141 ..gh.f.a.1.e.20:
                    1142 	.endo	..gh.f.a.1.e.20
                    1143 EcuM_GoPoll::
00000462 b510       1144 	push	{r4,lr}
                    1145 .LDW45:
00000464 2323       1146 	movs	r3,35
00000466 2221       1147 	movs	r2,33
00000468 4c1f*      1148 	ldr	r4,.L2438

                                                                      Page 20
                                                              C:\Users\Fengyuan\AppData\Local\Temp\gh_00006b81.s
0000046a 200a       1149 	movs	r0,10
0000046c 2100       1150 	movs	r1,0
0000046e 47a0       1151 	blx	r4
00000470 2001       1152 	movs	r0,1
                    1153 .LDW55:
00000472 bd10       1154 	pop	{r4,pc}
                    1155 __ghs_eofn_EcuM_GoPoll::
                    1156 	.endf	EcuM_GoPoll
                    1157 
                    1158 	.section ".bss","awb"
                    1159 .L2894:
                    1160 	.endo	.L2894
                    1161 	.text
                    1162 ..gh.f.a.1.e.21:
                    1163 	.endo	..gh.f.a.1.e.21
                    1164 EcuM_GoToSelectedShutdownTarget::
                    1165 .LDW65:
00000474 4923*      1166 	ldr	r1,.L2968
00000476 200a       1167 	movs	r0,10
00000478 4708       1168 	bx	r1
                    1169 .LDW75:
                    1170 __ghs_eofn_EcuM_GoToSelectedShutdownTarget::
                    1171 	.endf	EcuM_GoToSelectedShutdownTarget
                    1172 
                    1173 	.section ".bss","awb"
                    1174 .L2945:
                    1175 	.endo	.L2945
                    1176 	.text
                    1177 	.assert 0x0 + (EcuM_CurrentShutdownTarget - EcuM_CurrentShutdownMode) +0 == 1
                    1178 	.assert 0x0 + (EcuM_CurrentShutdownMode - EcuM_CurrentShutdownMode) +0 == 0
                    1179 	.assert 0x0 + (EcuM_ValidatedWakeups - EcuM_CurrentShutdownMode) +0 == 8
                    1180 ..gh.f.a.1.e.22:
                    1181 	.endo	..gh.f.a.1.e.22
                    1182 EcuM_GoDown::
0000047a b530       1183 	push	{r4-r5,lr}
                    1184 .LDW85:
0000047c 4913*      1185 	ldr	r1,.L2431
0000047e 7808       1186 	ldrb	r0,[r1]
00000480 2830       1187 	cmp	r0,48
00000482 d11a*      1188 	bne	.L2979
00000484 2400       1189 	movs	r4,0
                    1190 ;line5046
                    1191 ..lin.54fd2b29..f8a4113c.0_51::
                    1192 .LDWlin51:
00000486 204d       1193 	movs	r0,77
00000488 7008       1194 	strb	r0,[r1]
0000048a 481f*      1195 	ldr	r0,.L3169
0000048c 4d1f*      1196 	ldr	r5,.L3170
0000048e 4780       1197 	blx	r0
00000490 481f*      1198 	ldr	r0,.L3171
00000492 4780       1199 	blx	r0
00000494 481f*      1200 	ldr	r0,.L3172
00000496 4780       1201 	blx	r0
00000498 7868       1202 	ldrb	r0,[r5,1]
0000049a 2880       1203 	cmp	r0,128
0000049c d109*      1204 	bne	.L2974
                    1205 ;line5077
                    1206 ..lin.54fd2b29..f8a4113c.0_52::
                    1207 .LDWlin52:
0000049e 480f*      1208 	ldr	r0,.L2435
000004a0 4780       1209 	blx	r0

                                                                      Page 21
                                                              C:\Users\Fengyuan\AppData\Local\Temp\gh_00006b81.s
000004a2 68a8       1210 	ldr	r0,[r5,8]
000004a4 b118*      1211 	cbz	r0,.L2976
000004a6 2090       1212 	movs	r0,144
000004a8 7068       1213 	strb	r0,[r5,1]
000004aa 2003       1214 	movs	r0,3
000004ac 7028       1215 	strb	r0,[r5]
                    1216 .L2976:
000004ae 480d*      1217 	ldr	r0,.L2437
000004b0 4780       1218 	blx	r0
                    1219 .L2974:
000004b2 4919*      1220 	ldr	r1,.L3173
000004b4 4620       1221 	cpy	r0,r4
000004b6 4788       1222 	blx	r1
000004b8 e006*      1223 	b	.L2978
                    1224 .L2979:
000004ba 2401       1225 	movs	r4,1
                    1226 ;line5104
                    1227 ..lin.54fd2b29..f8a4113c.0_53::
                    1228 .LDWlin53:
000004bc 2322       1229 	movs	r3,34
000004be 221f       1230 	movs	r2,31
000004c0 4d09*      1231 	ldr	r5,.L2438
000004c2 200a       1232 	movs	r0,10
000004c4 2100       1233 	movs	r1,0
000004c6 47a8       1234 	blx	r5
                    1235 .L2978:
000004c8 4620       1236 	cpy	r0,r4
                    1237 .LDW95:
000004ca bd30       1238 	pop	{r4-r5,pc}
                    1239 __ghs_eofn_EcuM_GoDown::
                    1240 	.endf	EcuM_GoDown
                    1241 ;retVal	r4	local
                    1242 
                    1243 ;caller	none	param
                    1244 
                    1245 	.align	4
000004cc 00000000*  1246 .L2431:	.data.w	EcuM_ModuleState
                    1247 	.endo	.L2431
                    1248 
000004d0 00000000*  1249 .L2432:	.data.w	SchM_Init
                    1250 	.endo	.L2432
                    1251 
000004d4 00000000*  1252 .L2433:	.data.w	EcuM_BswM_BufferedWakeups
                    1253 	.endo	.L2433
                    1254 
000004d8 00000000*  1255 .L2434:	.data.w	BswM_Init
                    1256 	.endo	.L2434
                    1257 
000004dc 00000000*  1258 .L2435:	.data.w	SuspendAllInterrupts
                    1259 	.endo	.L2435
                    1260 
000004e0 00000000*  1261 .L2436:	.data.w	BswM_EcuM_CurrentWakeup
                    1262 	.endo	.L2436
                    1263 
000004e4 00000000*  1264 .L2437:	.data.w	ResumeAllInterrupts
                    1265 	.endo	.L2437
                    1266 
000004e8 00000000*  1267 .L2438:	.data.w	Det_ReportError
                    1268 	.endo	.L2438
                    1269 
000004ec 00000000*  1270 .L2542:	.data.w	EcuM_GetShiftCount

                                                                      Page 22
                                                              C:\Users\Fengyuan\AppData\Local\Temp\gh_00006b81.s
                    1271 	.endo	.L2542
                    1272 
000004f0 00000000*  1273 .L2543:	.data.w	EcuM_ValidateWakeupEvent
                    1274 	.endo	.L2543
                    1275 
000004f4 00000000*  1276 .L2825:	.data.w	EcuM_WakeupSourceList
                    1277 	.endo	.L2825
                    1278 
000004f8 00000000*  1279 .L2826:	.data.w	EcuM_ComM_BufferedWakeups
                    1280 	.endo	.L2826
                    1281 
000004fc 00000000*  1282 .L2827:	.data.w	ComM_GetStatus
                    1283 	.endo	.L2827
                    1284 
00000500 00000000*  1285 .L2828:	.data.w	ComM_EcuM_WakeUpIndication
                    1286 	.endo	.L2828
                    1287 
00000504 00000000*  1288 .L2968:	.data.w	EcuM_GoDown
                    1289 	.endo	.L2968
                    1290 
00000508 00000000*  1291 .L3169:	.data.w	EcuM_OnGoOffOne
                    1292 	.endo	.L3169
                    1293 
0000050c 00000000*  1294 .L3170:	.data.w	EcuM_CurrentShutdownMode
                    1295 	.endo	.L3170
                    1296 
00000510 00000000*  1297 .L3171:	.data.w	BswM_Deinit
                    1298 	.endo	.L3171
                    1299 
00000514 00000000*  1300 .L3172:	.data.w	SchM_Deinit
                    1301 	.endo	.L3172
                    1302 
00000518 00000000*  1303 .L3173:	.data.w	EcuM_ShutdownOS
                    1304 	.endo	.L3173
                    1305 
                    1306 ;EcuM_DriverInitOne	EcuM_DriverInitOne	import
                    1307 ;EcuM_WakeupSourceList	EcuM_WakeupSourceList	import
                    1308 ;EcuM_ModuleState	EcuM_ModuleState	import
                    1309 ;EcuM_CurrentShutdownMode	EcuM_CurrentShutdownMode	static
                    1310 ;EcuM_CurrentShutdownTarget	EcuM_CurrentShutdownTarget	static
                    1311 ;EcuM_LastShutdownTarget	EcuM_LastShutdownTarget	static
                    1312 ;EcuM_LastShutdownMode	EcuM_LastShutdownMode	static
                    1313 ;EcuM_ShutdownCause	EcuM_ShutdownCause	static
                    1314 ;EcuM_CurrentBootTarget	EcuM_CurrentBootTarget	static
                    1315 ;EcuM_ValidatedWakeups	EcuM_ValidatedWakeups	static
                    1316 ;EcuM_BswM_BufferedWakeups	EcuM_BswM_BufferedWakeups	static
                    1317 ;EcuM_ComM_BufferedWakeups	EcuM_ComM_BufferedWakeups	static
                    1318 
                    1319 	.ghsnote info, 19, 3, 640
                    1320 	.align	2
                    1321 ..eof.C.3A.5CVector.5CCBD1800257_D01_S32K1xx.5CApplications.5CS32K144_Start_new.5CAppl.5Cobj.5CEcuM...43.3A.5CVector.5CCBD1800257_D01_S32K1xx.5CApplications.5CS32K144_Start_new.5CAppl..60CBFD91..0::
                    1322 	.section	.debug_info
                    1323 .Ldw_begin:
00000000 00000000*  1324 	.data.w	.Ldw_end-.Ldw_begin-4
00000004 0002       1325 	.data.b	2,0
00000006 00000000*  1326 	.data.w	.Ldw_abbr_begin
0000000a 04         1327 	.data.b	4
                    1328 	.section	.debug_abbrev
                    1329 .Ldw_abbr_begin:
                    1330 	.section	.debug_info
0000000b 01         1331 	.data.b	1

                                                                      Page 23
                                                              C:\Users\Fengyuan\AppData\Local\Temp\gh_00006b81.s
0000000c 00000000*  1332 	.data.w	..bof.C.3A.5CVector.5CCBD1800257_D01_S32K1xx.5CApplications.5CS32K144_Start_new.5CAppl.5Cobj.5CEcuM...43.3A.5CVector.5CCBD1800257_D01_S32K1xx.5CApplications.5CS32K144_Start_new.5CAppl..60CBFD91..0
00000010 00000000*  1333 	.data.w	..eof.C.3A.5CVector.5CCBD1800257_D01_S32K1xx.5CApplications.5CS32K144_Start_new.5CAppl.5Cobj.5CEcuM...43.3A.5CVector.5CCBD1800257_D01_S32K1xx.5CApplications.5CS32K144_Start_new.5CAppl..60CBFD91..0
00000014 2e2f2e2e   1334 	.data.b	46,46,47,46,46,47,46,46,47,66,83,87,47,69,99,117,77,47,69,99,117,77,46,99,0
00000018 2e2e2f2e 
0000001c 5753422f 
00000020 7563452f 
00000024 63452f4d 
00000028 632e4d75 
0000002c 00 
0000002d 565c3a43   1335 	.data.b	67,58,92,86,101,99,116,111,114,92,67,66,68,49,56,48,48,50,53,55,95,68,48,49,95,83,51,50,75,49,120,120,92,65,112,112,108,105,99,97,116,105,111,110,115,92,83,51,50,75,49,52,52,95,83,116,97,114,116,95
00000031 6f746365 
00000035 42435c72 
00000039 30383144 
0000003d 37353230 
00000041 3130445f 
00000045 3233535f 
00000049 7878314b 
0000004d 7070415c 
00000051 6163696c 
00000055 6e6f6974 
00000059 33535c73 
0000005d 34314b32 
00000061 74535f34 
00000065 5f747261 
00000069 5c77656e   1336 	.data.b	110,101,119,92,65,112,112,108,0
0000006d 6c707041 
00000071 00 
00000072 20534847   1337 	.data.b	71,72,83,32,67,32,50,48,49,55,46,49,46,52,32,91,100,117,97,108,93,0
00000076 30322043 
0000007a 312e3731 
0000007e 5b20342e 
00000082 6c617564 
00000086 005d 
00000088 0001       1338 	.data.b	1,0
0000008a 00000000*  1339 	.data.w	.Ldw_line_begin
0000008e 00000000*  1340 	.data.w	.Ldw_macinfo_begin
00000092 00         1341 	.data.b	0
                    1342 
                    1343 	.section	.debug_abbrev
00000000 01         1344 	.data.b	1
00000001 11         1345 	.data.b	17
00000002 01         1346 	.data.b	1
00000003 0111       1347 	.data.b	17,1
00000005 0112       1348 	.data.b	18,1
00000007 0803       1349 	.data.b	3,8
00000009 081b       1350 	.data.b	27,8
0000000b 0825       1351 	.data.b	37,8
0000000d 0513       1352 	.data.b	19,5
0000000f 0610       1353 	.data.b	16,6
00000011 0643       1354 	.data.b	67,6
00000013 0b42       1355 	.data.b	66,11
00000015 0000       1356 	.data.b	0,0
                    1357 
                    1358 	.section	.debug_line
                    1359 .Ldw_line_begin:
00000000 00000000*  1360 	.data.w	.Ldw_line_end-.Ldw_line_begin-4
00000004 0002       1361 	.data.b	2,0
00000006 00000000*  1362 	.data.w	.Ldw_lpro_end-.Ldw_lpro_begin
                    1363 .Ldw_lpro_begin:
0000000a 01         1364 	.data.b	1
0000000b 00         1365 	.data.b	0

                                                                      Page 24
                                                              C:\Users\Fengyuan\AppData\Local\Temp\gh_00006b81.s
0000000c 00         1366 	.data.b	0
0000000d 04         1367 	.data.b	4
0000000e 0a         1368 	.data.b	10
0000000f 010100     1369 	.data.b	0,1,1
00000012 000101     1370 	.data.b	1,1,0
00000015 010000     1371 	.data.b	0,0,1
00000018 00         1372 	.data.b	0
00000019 2e2f2e2e   1373 	.data.b	46,46,47,46,46,47,46,46,47,66,83,87,47,69,99,117,77,47,69,99,117,77,46,99,0
0000001d 2e2e2f2e 
00000021 5753422f 
00000025 7563452f 
00000029 63452f4d 
0000002d 632e4d75 
00000031 00 
00000032 000000     1374 	.data.b	0,0,0
00000035 2e2f2e2e   1375 	.data.b	46,46,47,46,46,47,46,46,47,66,83,87,47,69,99,117,77,47,69,99,117,77,46,104,0
00000039 2e2e2f2e 
0000003d 5753422f 
00000041 7563452f 
00000045 63452f4d 
00000049 682e4d75 
0000004d 00 
0000004e 000000     1376 	.data.b	0,0,0
00000051 2e2f2e2e   1377 	.data.b	46,46,47,46,46,47,46,46,47,66,83,87,47,69,99,117,77,47,69,99,117,77,95,67,98,107,46,104,0
00000055 2e2e2f2e 
00000059 5753422f 
0000005d 7563452f 
00000061 63452f4d 
00000065 435f4d75 
00000069 682e6b62 
0000006d 00 
0000006e 000000     1378 	.data.b	0,0,0
00000071 646e6567   1379 	.data.b	103,101,110,100,97,116,97,92,69,99,117,77,95,71,101,110,101,114,97,116,101,100,95,84,121,112,101,115,46,104,0
00000075 5c617461 
00000079 4d756345 
0000007d 6e65475f 
00000081 74617265 
00000085 545f6465 
00000089 73657079 
0000008d 00682e 
00000090 000000     1380 	.data.b	0,0,0
00000093 646e6567   1381 	.data.b	103,101,110,100,97,116,97,47,99,111,109,112,111,110,101,110,116,115,47,82,116,101,95,69,99,117,77,95,84,121,112,101,46,104,0
00000097 2f617461 
0000009b 706d6f63 
0000009f 6e656e6f 
000000a3 522f7374 
000000a7 455f6574 
000000ab 5f4d7563 
000000af 65707954 
000000b3 00682e 
000000b6 000000     1382 	.data.b	0,0,0
000000b9 646e6567   1383 	.data.b	103,101,110,100,97,116,97,92,82,116,101,95,84,121,112,101,46,104,0
000000bd 5c617461 
000000c1 5f657452 
000000c5 65707954 
000000c9 00682e 
000000cc 000000     1384 	.data.b	0,0,0
000000cf 646e6567   1385 	.data.b	103,101,110,100,97,116,97,92,82,116,101,46,104,0
000000d3 5c617461 
000000d7 2e657452 
000000db 0068 

                                                                      Page 25
                                                              C:\Users\Fengyuan\AppData\Local\Temp\gh_00006b81.s
000000dd 000000     1386 	.data.b	0,0,0
000000e0 2e2f2e2e   1387 	.data.b	46,46,47,46,46,47,46,46,47,98,115,119,47,95,99,111,109,109,111,110,47,83,116,100,95,84,121,112,101,115,46,104,0
000000e4 2e2e2f2e 
000000e8 7773622f 
000000ec 6f635f2f 
000000f0 6e6f6d6d 
000000f4 6474532f 
000000f8 7079545f 
000000fc 682e7365 
00000100 00 
00000101 000000     1388 	.data.b	0,0,0
00000104 2e2f2e2e   1389 	.data.b	46,46,47,46,46,47,46,46,47,98,115,119,47,95,99,111,109,109,111,110,47,80,108,97,116,102,111,114,109,95,84,121,112,101,115,46,104,0
00000108 2e2e2f2e 
0000010c 7773622f 
00000110 6f635f2f 
00000114 6e6f6d6d 
00000118 616c502f 
0000011c 726f6674 
00000120 79545f6d 
00000124 2e736570 
00000128 0068 
0000012a 000000     1390 	.data.b	0,0,0
0000012d 2e2f2e2e   1391 	.data.b	46,46,47,46,46,47,46,46,47,98,115,119,47,95,99,111,109,109,111,110,47,67,111,109,112,105,108,101,114,46,104,0
00000131 2e2e2f2e 
00000135 7773622f 
00000139 6f635f2f 
0000013d 6e6f6d6d 
00000141 6d6f432f 
00000145 656c6970 
00000149 00682e72 
0000014d 000000     1392 	.data.b	0,0,0
00000150 6c636e69   1393 	.data.b	105,110,99,108,117,100,101,92,67,111,109,112,105,108,101,114,95,67,102,103,46,104,0
00000154 5c656475 
00000158 706d6f43 
0000015c 72656c69 
00000160 6766435f 
00000164 00682e 
00000167 000000     1394 	.data.b	0,0,0
0000016a 646e6567   1395 	.data.b	103,101,110,100,97,116,97,92,82,116,101,95,67,111,109,112,105,108,101,114,95,67,102,103,46,104,0
0000016e 5c617461 
00000172 5f657452 
00000176 706d6f43 
0000017a 72656c69 
0000017e 6766435f 
00000182 00682e 
00000185 000000     1396 	.data.b	0,0,0
00000188 6c636e69   1397 	.data.b	105,110,99,108,117,100,101,92,67,100,100,95,84,112,95,67,111,109,112,105,108,101,114,95,67,102,103,46,104,0
0000018c 5c656475 
00000190 5f646443 
00000194 435f7054 
00000198 69706d6f 
0000019c 5f72656c 
000001a0 2e676643 
000001a4 0068 
000001a6 000000     1398 	.data.b	0,0,0
000001a9 6c636e69   1399 	.data.b	105,110,99,108,117,100,101,92,67,100,100,95,67,111,109,95,67,111,109,112,105,108,101,114,95,67,102,103,46,104,0
000001ad 5c656475 
000001b1 5f646443 
000001b5 5f6d6f43 
000001b9 706d6f43 
000001bd 72656c69 

                                                                      Page 26
                                                              C:\Users\Fengyuan\AppData\Local\Temp\gh_00006b81.s
000001c1 6766435f 
000001c5 00682e 
000001c8 000000     1400 	.data.b	0,0,0
000001cb 646e6567   1401 	.data.b	103,101,110,100,97,116,97,92,79,115,95,67,111,109,112,105,108,101,114,95,67,102,103,46,104,0
000001cf 5c617461 
000001d3 435f734f 
000001d7 69706d6f 
000001db 5f72656c 
000001df 2e676643 
000001e3 0068 
000001e5 000000     1402 	.data.b	0,0,0
000001e8 646e6567   1403 	.data.b	103,101,110,100,97,116,97,92,82,116,101,95,85,115,101,114,84,121,112,101,115,46,104,0
000001ec 5c617461 
000001f0 5f657452 
000001f4 72657355 
000001f8 65707954 
000001fc 00682e73 
00000200 000000     1404 	.data.b	0,0,0
00000203 2e2f2e2e   1405 	.data.b	46,46,47,46,46,47,46,46,47,98,115,119,47,95,99,111,109,109,111,110,47,67,111,109,83,116,97,99,107,95,84,121,112,101,115,46,104,0
00000207 2e2e2f2e 
0000020b 7773622f 
0000020f 6f635f2f 
00000213 6e6f6d6d 
00000217 6d6f432f 
0000021b 63617453 
0000021f 79545f6b 
00000223 2e736570 
00000227 0068 
00000229 000000     1406 	.data.b	0,0,0
0000022c 646e6567   1407 	.data.b	103,101,110,100,97,116,97,92,67,111,109,83,116,97,99,107,95,67,102,103,46,104,0
00000230 5c617461 
00000234 536d6f43 
00000238 6b636174 
0000023c 6766435f 
00000240 00682e 
00000243 000000     1408 	.data.b	0,0,0
00000246 646e6567   1409 	.data.b	103,101,110,100,97,116,97,92,82,116,101,95,68,97,116,97,72,97,110,100,108,101,84,121,112,101,46,104,0
0000024a 5c617461 
0000024e 5f657452 
00000252 61746144 
00000256 646e6148 
0000025a 7954656c 
0000025e 682e6570 
00000262 00 
00000263 000000     1410 	.data.b	0,0,0
00000266 646e6567   1411 	.data.b	103,101,110,100,97,116,97,92,69,99,117,77,95,67,102,103,46,104,0
0000026a 5c617461 
0000026e 4d756345 
00000272 6766435f 
00000276 00682e 
00000279 000000     1412 	.data.b	0,0,0
0000027c 6c636e69   1413 	.data.b	105,110,99,108,117,100,101,92,77,101,109,77,97,112,46,104,0
00000280 5c656475 
00000284 4d6d654d 
00000288 682e7061 
0000028c 00 
0000028d 000000     1414 	.data.b	0,0,0
00000290 646e6567   1415 	.data.b	103,101,110,100,97,116,97,92,69,99,117,77,95,80,114,105,118,97,116,101,67,102,103,46,104,0
00000294 5c617461 
00000298 4d756345 
0000029c 6972505f 

                                                                      Page 27
                                                              C:\Users\Fengyuan\AppData\Local\Temp\gh_00006b81.s
000002a0 65746176 
000002a4 2e676643 
000002a8 0068 
000002aa 000000     1416 	.data.b	0,0,0
000002ad 646e6567   1417 	.data.b	103,101,110,100,97,116,97,92,69,99,117,77,95,73,110,105,116,95,80,66,99,102,103,46,104,0
000002b1 5c617461 
000002b5 4d756345 
000002b9 696e495f 
000002bd 42505f74 
000002c1 2e676663 
000002c5 0068 
000002c7 000000     1418 	.data.b	0,0,0
000002ca 646e6567   1419 	.data.b	103,101,110,100,97,116,97,92,69,99,117,77,95,73,110,105,116,95,67,102,103,46,104,0
000002ce 5c617461 
000002d2 4d756345 
000002d6 696e495f 
000002da 66435f74 
000002de 00682e67 
000002e2 000000     1420 	.data.b	0,0,0
000002e5 2e2f2e2e   1421 	.data.b	46,46,47,46,46,47,46,46,47,98,115,119,47,111,115,47,79,115,46,104,0
000002e9 2e2e2f2e 
000002ed 7773622f 
000002f1 2f736f2f 
000002f5 682e734f 
000002f9 00 
000002fa 000000     1422 	.data.b	0,0,0
000002fd 2e2f2e2e   1423 	.data.b	46,46,47,46,46,47,46,46,47,98,115,119,47,111,115,47,79,115,73,110,116,46,104,0
00000301 2e2e2f2e 
00000305 7773622f 
00000309 2f736f2f 
0000030d 6e49734f 
00000311 00682e74 
00000315 000000     1424 	.data.b	0,0,0
00000318 646e6567   1425 	.data.b	103,101,110,100,97,116,97,92,79,115,95,76,99,102,103,46,104,0
0000031c 5c617461 
00000320 4c5f734f 
00000324 2e676663 
00000328 0068 
0000032a 000000     1426 	.data.b	0,0,0
0000032d 646e6567   1427 	.data.b	103,101,110,100,97,116,97,92,79,115,95,67,102,103,46,104,0
00000331 5c617461 
00000335 435f734f 
00000339 682e6766 
0000033d 00 
0000033e 000000     1428 	.data.b	0,0,0
00000341 646e6567   1429 	.data.b	103,101,110,100,97,116,97,92,79,115,95,72,97,108,95,67,102,103,46,104,0
00000345 5c617461 
00000349 485f734f 
0000034d 435f6c61 
00000351 682e6766 
00000355 00 
00000356 000000     1430 	.data.b	0,0,0
00000359 2e2f2e2e   1431 	.data.b	46,46,47,46,46,47,46,46,47,98,115,119,47,111,115,47,79,115,95,84,121,112,101,115,46,104,0
0000035d 2e2e2f2e 
00000361 7773622f 
00000365 2f736f2f 
00000369 545f734f 
0000036d 73657079 
00000371 00682e 
00000374 000000     1432 	.data.b	0,0,0
00000377 646e6567   1433 	.data.b	103,101,110,100,97,116,97,92,79,115,95,84,121,112,101,115,95,76,99,102,103,46,104,0

                                                                      Page 28
                                                              C:\Users\Fengyuan\AppData\Local\Temp\gh_00006b81.s
0000037b 5c617461 
0000037f 545f734f 
00000383 73657079 
00000387 66634c5f 
0000038b 00682e67 
0000038f 000000     1434 	.data.b	0,0,0
00000392 2e2f2e2e   1435 	.data.b	46,46,47,46,46,47,46,46,47,98,115,119,47,111,115,47,79,115,95,72,97,108,95,79,115,95,84,121,112,101,115,46,104,0
00000396 2e2e2f2e 
0000039a 7773622f 
0000039e 2f736f2f 
000003a2 485f734f 
000003a6 4f5f6c61 
000003aa 79545f73 
000003ae 2e736570 
000003b2 0068 
000003b4 000000     1436 	.data.b	0,0,0
000003b7 646e6567   1437 	.data.b	103,101,110,100,97,116,97,92,79,115,95,72,97,108,95,76,99,102,103,46,104,0
000003bb 5c617461 
000003bf 485f734f 
000003c3 4c5f6c61 
000003c7 2e676663 
000003cb 0068 
000003cd 000000     1438 	.data.b	0,0,0
000003d0 2e2f2e2e   1439 	.data.b	46,46,47,46,46,47,46,46,47,98,115,119,47,111,115,47,79,115,95,72,97,108,95,79,115,73,110,116,46,104,0
000003d4 2e2e2f2e 
000003d8 7773622f 
000003dc 2f736f2f 
000003e0 485f734f 
000003e4 4f5f6c61 
000003e8 746e4973 
000003ec 00682e 
000003ef 000000     1440 	.data.b	0,0,0
000003f2 2e2f2e2e   1441 	.data.b	46,46,47,46,46,47,46,46,47,98,115,119,47,111,115,47,79,115,95,72,97,108,95,79,115,46,104,0
000003f6 2e2e2f2e 
000003fa 7773622f 
000003fe 2f736f2f 
00000402 485f734f 
00000406 4f5f6c61 
0000040a 00682e73 
0000040e 000000     1442 	.data.b	0,0,0
00000411 2e2f2e2e   1443 	.data.b	46,46,47,46,46,47,46,46,47,98,115,119,47,111,115,47,79,115,95,77,101,109,77,97,112,95,79,115,67,111,100,101,46,104,0
00000415 2e2e2f2e 
00000419 7773622f 
0000041d 2f736f2f 
00000421 4d5f734f 
00000425 614d6d65 
00000429 734f5f70 
0000042d 65646f43 
00000431 00682e 
00000434 000000     1444 	.data.b	0,0,0
00000437 646e6567   1445 	.data.b	103,101,110,100,97,116,97,92,79,115,95,77,101,109,77,97,112,95,79,115,67,111,100,101,73,110,116,46,104,0
0000043b 5c617461 
0000043f 4d5f734f 
00000443 614d6d65 
00000447 734f5f70 
0000044b 65646f43 
0000044f 2e746e49 
00000453 0068 
00000455 000000     1446 	.data.b	0,0,0
00000458 2e2f2e2e   1447 	.data.b	46,46,47,46,46,47,46,46,47,98,115,119,47,46,46,47,116,104,105,114,100,112,97,114,116,121,47,109,99,97,108,95,115,51,50,107,47,115,117,112,112,108,121,47,115,51,50,107,49,52,120,95,109,99,97,108,52,95,50,95
0000045c 2e2e2f2e 

                                                                      Page 29
                                                              C:\Users\Fengyuan\AppData\Local\Temp\gh_00006b81.s
00000460 7773622f 
00000464 2f2e2e2f 
00000468 72696874 
0000046c 72617064 
00000470 6d2f7974 
00000474 5f6c6163 
00000478 6b323373 
0000047c 7075732f 
00000480 2f796c70 
00000484 6b323373 
00000488 5f783431 
0000048c 6c61636d 
00000490 5f325f34 
00000494 5f6d7472   1448 	.data.b	114,116,109,95,104,102,51,95,49,95,48,95,49,47,101,99,108,105,112,115,101,47,112,108,117,103,105,110,115,47,109,99,117,95,116,115,95,116,52,48,100,50,109,49,48,105,49,114,48,47,105,110,99,108,117,100,101,47,77,99
00000498 5f336668 
0000049c 5f305f31 
000004a0 63652f31 
000004a4 7370696c 
000004a8 6c702f65 
000004ac 6e696775 
000004b0 636d2f73 
000004b4 73745f75 
000004b8 3034745f 
000004bc 316d3264 
000004c0 72316930 
000004c4 6e692f30 
000004c8 64756c63 
000004cc 634d2f65 
000004d0 00682e75   1449 	.data.b	117,46,104,0
000004d4 000000     1450 	.data.b	0,0,0
000004d7 646e6567   1451 	.data.b	103,101,110,100,97,116,97,47,105,110,99,108,117,100,101,47,77,99,117,95,67,102,103,46,104,0
000004db 2f617461 
000004df 6c636e69 
000004e3 2f656475 
000004e7 5f75634d 
000004eb 2e676643 
000004ef 0068 
000004f1 000000     1452 	.data.b	0,0,0
000004f4 2e2f2e2e   1453 	.data.b	46,46,47,46,46,47,46,46,47,98,115,119,47,46,46,47,116,104,105,114,100,112,97,114,116,121,47,109,99,97,108,95,115,51,50,107,47,115,117,112,112,108,121,47,115,51,50,107,49,52,120,95,109,99,97,108,52,95,50,95
000004f8 2e2e2f2e 
000004fc 7773622f 
00000500 2f2e2e2f 
00000504 72696874 
00000508 72617064 
0000050c 6d2f7974 
00000510 5f6c6163 
00000514 6b323373 
00000518 7075732f 
0000051c 2f796c70 
00000520 6b323373 
00000524 5f783431 
00000528 6c61636d 
0000052c 5f325f34 
00000530 5f6d7472   1454 	.data.b	114,116,109,95,104,102,51,95,49,95,48,95,49,47,101,99,108,105,112,115,101,47,112,108,117,103,105,110,115,47,98,97,115,101,95,116,115,95,116,52,48,100,50,109,49,48,105,49,114,48,47,105,110,99,108,117,100,101,47,77
00000534 5f336668 
00000538 5f305f31 
0000053c 63652f31 
00000540 7370696c 
00000544 6c702f65 
00000548 6e696775 
0000054c 61622f73 

                                                                      Page 30
                                                              C:\Users\Fengyuan\AppData\Local\Temp\gh_00006b81.s
00000550 745f6573 
00000554 34745f73 
00000558 6d326430 
0000055c 31693031 
00000560 692f3072 
00000564 756c636e 
00000568 4d2f6564 
0000056c 2e6c6163   1455 	.data.b	99,97,108,46,104,0
00000570 0068 
00000572 000000     1456 	.data.b	0,0,0
00000575 2e2f2e2e   1457 	.data.b	46,46,47,46,46,47,46,46,47,98,115,119,47,46,46,47,116,104,105,114,100,112,97,114,116,121,47,109,99,97,108,95,115,51,50,107,47,115,117,112,112,108,121,47,115,51,50,107,49,52,120,95,109,99,97,108,52,95,50,95
00000579 2e2e2f2e 
0000057d 7773622f 
00000581 2f2e2e2f 
00000585 72696874 
00000589 72617064 
0000058d 6d2f7974 
00000591 5f6c6163 
00000595 6b323373 
00000599 7075732f 
0000059d 2f796c70 
000005a1 6b323373 
000005a5 5f783431 
000005a9 6c61636d 
000005ad 5f325f34 
000005b1 5f6d7472   1458 	.data.b	114,116,109,95,104,102,51,95,49,95,48,95,49,47,101,99,108,105,112,115,101,47,112,108,117,103,105,110,115,47,98,97,115,101,95,116,115,95,116,52,48,100,50,109,49,48,105,49,114,48,47,105,110,99,108,117,100,101,47,83
000005b5 5f336668 
000005b9 5f305f31 
000005bd 63652f31 
000005c1 7370696c 
000005c5 6c702f65 
000005c9 6e696775 
000005cd 61622f73 
000005d1 745f6573 
000005d5 34745f73 
000005d9 6d326430 
000005dd 31693031 
000005e1 692f3072 
000005e5 756c636e 
000005e9 532f6564 
000005ed 495f636f   1459 	.data.b	111,99,95,73,112,115,46,104,0
000005f1 682e7370 
000005f5 00 
000005f6 000000     1460 	.data.b	0,0,0
000005f9 2e2f2e2e   1461 	.data.b	46,46,47,46,46,47,46,46,47,98,115,119,47,46,46,47,116,104,105,114,100,112,97,114,116,121,47,109,99,97,108,95,115,51,50,107,47,115,117,112,112,108,121,47,115,51,50,107,49,52,120,95,109,99,97,108,52,95,50,95
000005fd 2e2e2f2e 
00000601 7773622f 
00000605 2f2e2e2f 
00000609 72696874 
0000060d 72617064 
00000611 6d2f7974 
00000615 5f6c6163 
00000619 6b323373 
0000061d 7075732f 
00000621 2f796c70 
00000625 6b323373 
00000629 5f783431 
0000062d 6c61636d 
00000631 5f325f34 
00000635 5f6d7472   1462 	.data.b	114,116,109,95,104,102,51,95,49,95,48,95,49,47,101,99,108,105,112,115,101,47,112,108,117,103,105,110,115,47,109,99,117,95,116,115,95,116,52,48,100,50,109,49,48,105,49,114,48,47,105,110,99,108,117,100,101,47,77,99
00000639 5f336668 

                                                                      Page 31
                                                              C:\Users\Fengyuan\AppData\Local\Temp\gh_00006b81.s
0000063d 5f305f31 
00000641 63652f31 
00000645 7370696c 
00000649 6c702f65 
0000064d 6e696775 
00000651 636d2f73 
00000655 73745f75 
00000659 3034745f 
0000065d 316d3264 
00000661 72316930 
00000665 6e692f30 
00000669 64756c63 
0000066d 634d2f65 
00000671 6e455f75   1463 	.data.b	117,95,69,110,118,67,102,103,46,104,0
00000675 67664376 
00000679 00682e 
0000067c 000000     1464 	.data.b	0,0,0
0000067f 2e2f2e2e   1465 	.data.b	46,46,47,46,46,47,46,46,47,98,115,119,47,46,46,47,116,104,105,114,100,112,97,114,116,121,47,109,99,97,108,95,115,51,50,107,47,115,117,112,112,108,121,47,115,51,50,107,49,52,120,95,109,99,97,108,52,95,50,95
00000683 2e2e2f2e 
00000687 7773622f 
0000068b 2f2e2e2f 
0000068f 72696874 
00000693 72617064 
00000697 6d2f7974 
0000069b 5f6c6163 
0000069f 6b323373 
000006a3 7075732f 
000006a7 2f796c70 
000006ab 6b323373 
000006af 5f783431 
000006b3 6c61636d 
000006b7 5f325f34 
000006bb 5f6d7472   1466 	.data.b	114,116,109,95,104,102,51,95,49,95,48,95,49,47,101,99,108,105,112,115,101,47,112,108,117,103,105,110,115,47,109,99,117,95,116,115,95,116,52,48,100,50,109,49,48,105,49,114,48,47,105,110,99,108,117,100,101,47,77,99
000006bf 5f336668 
000006c3 5f305f31 
000006c7 63652f31 
000006cb 7370696c 
000006cf 6c702f65 
000006d3 6e696775 
000006d7 636d2f73 
000006db 73745f75 
000006df 3034745f 
000006e3 316d3264 
000006e7 72316930 
000006eb 6e692f30 
000006ef 64756c63 
000006f3 634d2f65 
000006f7 50495f75   1467 	.data.b	117,95,73,80,87,95,84,121,112,101,115,46,104,0
000006fb 79545f57 
000006ff 2e736570 
00000703 0068 
00000705 000000     1468 	.data.b	0,0,0
00000708 2e2f2e2e   1469 	.data.b	46,46,47,46,46,47,46,46,47,98,115,119,47,46,46,47,116,104,105,114,100,112,97,114,116,121,47,109,99,97,108,95,115,51,50,107,47,115,117,112,112,108,121,47,115,51,50,107,49,52,120,95,109,99,97,108,52,95,50,95
0000070c 2e2e2f2e 
00000710 7773622f 
00000714 2f2e2e2f 
00000718 72696874 
0000071c 72617064 
00000720 6d2f7974 
00000724 5f6c6163 
00000728 6b323373 

                                                                      Page 32
                                                              C:\Users\Fengyuan\AppData\Local\Temp\gh_00006b81.s
0000072c 7075732f 
00000730 2f796c70 
00000734 6b323373 
00000738 5f783431 
0000073c 6c61636d 
00000740 5f325f34 
00000744 5f6d7472   1470 	.data.b	114,116,109,95,104,102,51,95,49,95,48,95,49,47,101,99,108,105,112,115,101,47,112,108,117,103,105,110,115,47,109,99,117,95,116,115,95,116,52,48,100,50,109,49,48,105,49,114,48,47,105,110,99,108,117,100,101,47,77,99
00000748 5f336668 
0000074c 5f305f31 
00000750 63652f31 
00000754 7370696c 
00000758 6c702f65 
0000075c 6e696775 
00000760 636d2f73 
00000764 73745f75 
00000768 3034745f 
0000076c 316d3264 
00000770 72316930 
00000774 6e692f30 
00000778 64756c63 
0000077c 634d2f65 
00000780 43505f75   1471 	.data.b	117,95,80,67,67,95,84,121,112,101,115,46,104,0
00000784 79545f43 
00000788 2e736570 
0000078c 0068 
0000078e 000000     1472 	.data.b	0,0,0
00000791 2e2f2e2e   1473 	.data.b	46,46,47,46,46,47,46,46,47,98,115,119,47,46,46,47,116,104,105,114,100,112,97,114,116,121,47,109,99,97,108,95,115,51,50,107,47,115,117,112,112,108,121,47,115,51,50,107,49,52,120,95,109,99,97,108,52,95,50,95
00000795 2e2e2f2e 
00000799 7773622f 
0000079d 2f2e2e2f 
000007a1 72696874 
000007a5 72617064 
000007a9 6d2f7974 
000007ad 5f6c6163 
000007b1 6b323373 
000007b5 7075732f 
000007b9 2f796c70 
000007bd 6b323373 
000007c1 5f783431 
000007c5 6c61636d 
000007c9 5f325f34 
000007cd 5f6d7472   1474 	.data.b	114,116,109,95,104,102,51,95,49,95,48,95,49,47,101,99,108,105,112,115,101,47,112,108,117,103,105,110,115,47,109,99,117,95,116,115,95,116,52,48,100,50,109,49,48,105,49,114,48,47,105,110,99,108,117,100,101,47,77,99
000007d1 5f336668 
000007d5 5f305f31 
000007d9 63652f31 
000007dd 7370696c 
000007e1 6c702f65 
000007e5 6e696775 
000007e9 636d2f73 
000007ed 73745f75 
000007f1 3034745f 
000007f5 316d3264 
000007f9 72316930 
000007fd 6e692f30 
00000801 64756c63 
00000805 634d2f65 
00000809 4d505f75   1475 	.data.b	117,95,80,77,67,95,84,121,112,101,115,46,104,0
0000080d 79545f43 
00000811 2e736570 
00000815 0068 
00000817 000000     1476 	.data.b	0,0,0

                                                                      Page 33
                                                              C:\Users\Fengyuan\AppData\Local\Temp\gh_00006b81.s
0000081a 2e2f2e2e   1477 	.data.b	46,46,47,46,46,47,46,46,47,98,115,119,47,46,46,47,116,104,105,114,100,112,97,114,116,121,47,109,99,97,108,95,115,51,50,107,47,115,117,112,112,108,121,47,115,51,50,107,49,52,120,95,109,99,97,108,52,95,50,95
0000081e 2e2e2f2e 
00000822 7773622f 
00000826 2f2e2e2f 
0000082a 72696874 
0000082e 72617064 
00000832 6d2f7974 
00000836 5f6c6163 
0000083a 6b323373 
0000083e 7075732f 
00000842 2f796c70 
00000846 6b323373 
0000084a 5f783431 
0000084e 6c61636d 
00000852 5f325f34 
00000856 5f6d7472   1478 	.data.b	114,116,109,95,104,102,51,95,49,95,48,95,49,47,101,99,108,105,112,115,101,47,112,108,117,103,105,110,115,47,109,99,117,95,116,115,95,116,52,48,100,50,109,49,48,105,49,114,48,47,105,110,99,108,117,100,101,47,82,101
0000085a 5f336668 
0000085e 5f305f31 
00000862 63652f31 
00000866 7370696c 
0000086a 6c702f65 
0000086e 6e696775 
00000872 636d2f73 
00000876 73745f75 
0000087a 3034745f 
0000087e 316d3264 
00000882 72316930 
00000886 6e692f30 
0000088a 64756c63 
0000088e 65522f65 
00000892 53655f67   1479 	.data.b	103,95,101,83,121,115,95,80,77,67,46,104,0
00000896 505f7379 
0000089a 682e434d 
0000089e 00 
0000089f 000000     1480 	.data.b	0,0,0
000008a2 646e6567   1481 	.data.b	103,101,110,100,97,116,97,47,105,110,99,108,117,100,101,47,82,101,103,95,101,83,121,115,46,104,0
000008a6 2f617461 
000008aa 6c636e69 
000008ae 2f656475 
000008b2 5f676552 
000008b6 73795365 
000008ba 00682e 
000008bd 000000     1482 	.data.b	0,0,0
000008c0 2e2f2e2e   1483 	.data.b	46,46,47,46,46,47,46,46,47,98,115,119,47,46,46,47,116,104,105,114,100,112,97,114,116,121,47,109,99,97,108,95,115,51,50,107,47,115,117,112,112,108,121,47,115,51,50,107,49,52,120,95,109,99,97,108,52,95,50,95
000008c4 2e2e2f2e 
000008c8 7773622f 
000008cc 2f2e2e2f 
000008d0 72696874 
000008d4 72617064 
000008d8 6d2f7974 
000008dc 5f6c6163 
000008e0 6b323373 
000008e4 7075732f 
000008e8 2f796c70 
000008ec 6b323373 
000008f0 5f783431 
000008f4 6c61636d 
000008f8 5f325f34 
000008fc 5f6d7472   1484 	.data.b	114,116,109,95,104,102,51,95,49,95,48,95,49,47,101,99,108,105,112,115,101,47,112,108,117,103,105,110,115,47,109,99,117,95,116,115,95,116,52,48,100,50,109,49,48,105,49,114,48,47,105,110,99,108,117,100,101,47,77,99
00000900 5f336668 
00000904 5f305f31 

                                                                      Page 34
                                                              C:\Users\Fengyuan\AppData\Local\Temp\gh_00006b81.s
00000908 63652f31 
0000090c 7370696c 
00000910 6c702f65 
00000914 6e696775 
00000918 636d2f73 
0000091c 73745f75 
00000920 3034745f 
00000924 316d3264 
00000928 72316930 
0000092c 6e692f30 
00000930 64756c63 
00000934 634d2f65 
00000938 4d505f75   1485 	.data.b	117,95,80,77,67,95,73,80,86,101,114,115,105,111,110,46,104,0
0000093c 50495f43 
00000940 73726556 
00000944 2e6e6f69 
00000948 0068 
0000094a 000000     1486 	.data.b	0,0,0
0000094d 2e2f2e2e   1487 	.data.b	46,46,47,46,46,47,46,46,47,98,115,119,47,46,46,47,116,104,105,114,100,112,97,114,116,121,47,109,99,97,108,95,115,51,50,107,47,115,117,112,112,108,121,47,115,51,50,107,49,52,120,95,109,99,97,108,52,95,50,95
00000951 2e2e2f2e 
00000955 7773622f 
00000959 2f2e2e2f 
0000095d 72696874 
00000961 72617064 
00000965 6d2f7974 
00000969 5f6c6163 
0000096d 6b323373 
00000971 7075732f 
00000975 2f796c70 
00000979 6b323373 
0000097d 5f783431 
00000981 6c61636d 
00000985 5f325f34 
00000989 5f6d7472   1488 	.data.b	114,116,109,95,104,102,51,95,49,95,48,95,49,47,101,99,108,105,112,115,101,47,112,108,117,103,105,110,115,47,109,99,117,95,116,115,95,116,52,48,100,50,109,49,48,105,49,114,48,47,105,110,99,108,117,100,101,47,77,99
0000098d 5f336668 
00000991 5f305f31 
00000995 63652f31 
00000999 7370696c 
0000099d 6c702f65 
000009a1 6e696775 
000009a5 636d2f73 
000009a9 73745f75 
000009ad 3034745f 
000009b1 316d3264 
000009b5 72316930 
000009b9 6e692f30 
000009bd 64756c63 
000009c1 634d2f65 
000009c5 43525f75   1489 	.data.b	117,95,82,67,77,95,84,121,112,101,115,46,104,0
000009c9 79545f4d 
000009cd 2e736570 
000009d1 0068 
000009d3 000000     1490 	.data.b	0,0,0
000009d6 2e2f2e2e   1491 	.data.b	46,46,47,46,46,47,46,46,47,98,115,119,47,46,46,47,116,104,105,114,100,112,97,114,116,121,47,109,99,97,108,95,115,51,50,107,47,115,117,112,112,108,121,47,115,51,50,107,49,52,120,95,109,99,97,108,52,95,50,95
000009da 2e2e2f2e 
000009de 7773622f 
000009e2 2f2e2e2f 
000009e6 72696874 
000009ea 72617064 
000009ee 6d2f7974 
000009f2 5f6c6163 

                                                                      Page 35
                                                              C:\Users\Fengyuan\AppData\Local\Temp\gh_00006b81.s
000009f6 6b323373 
000009fa 7075732f 
000009fe 2f796c70 
00000a02 6b323373 
00000a06 5f783431 
00000a0a 6c61636d 
00000a0e 5f325f34 
00000a12 5f6d7472   1492 	.data.b	114,116,109,95,104,102,51,95,49,95,48,95,49,47,101,99,108,105,112,115,101,47,112,108,117,103,105,110,115,47,109,99,117,95,116,115,95,116,52,48,100,50,109,49,48,105,49,114,48,47,105,110,99,108,117,100,101,47,77,99
00000a16 5f336668 
00000a1a 5f305f31 
00000a1e 63652f31 
00000a22 7370696c 
00000a26 6c702f65 
00000a2a 6e696775 
00000a2e 636d2f73 
00000a32 73745f75 
00000a36 3034745f 
00000a3a 316d3264 
00000a3e 72316930 
00000a42 6e692f30 
00000a46 64756c63 
00000a4a 634d2f65 
00000a4e 43535f75   1493 	.data.b	117,95,83,67,71,95,84,121,112,101,115,46,104,0
00000a52 79545f47 
00000a56 2e736570 
00000a5a 0068 
00000a5c 000000     1494 	.data.b	0,0,0
00000a5f 2e2f2e2e   1495 	.data.b	46,46,47,46,46,47,46,46,47,98,115,119,47,46,46,47,116,104,105,114,100,112,97,114,116,121,47,109,99,97,108,95,115,51,50,107,47,115,117,112,112,108,121,47,115,51,50,107,49,52,120,95,109,99,97,108,52,95,50,95
00000a63 2e2e2f2e 
00000a67 7773622f 
00000a6b 2f2e2e2f 
00000a6f 72696874 
00000a73 72617064 
00000a77 6d2f7974 
00000a7b 5f6c6163 
00000a7f 6b323373 
00000a83 7075732f 
00000a87 2f796c70 
00000a8b 6b323373 
00000a8f 5f783431 
00000a93 6c61636d 
00000a97 5f325f34 
00000a9b 5f6d7472   1496 	.data.b	114,116,109,95,104,102,51,95,49,95,48,95,49,47,101,99,108,105,112,115,101,47,112,108,117,103,105,110,115,47,109,99,117,95,116,115,95,116,52,48,100,50,109,49,48,105,49,114,48,47,105,110,99,108,117,100,101,47,77,99
00000a9f 5f336668 
00000aa3 5f305f31 
00000aa7 63652f31 
00000aab 7370696c 
00000aaf 6c702f65 
00000ab3 6e696775 
00000ab7 636d2f73 
00000abb 73745f75 
00000abf 3034745f 
00000ac3 316d3264 
00000ac7 72316930 
00000acb 6e692f30 
00000acf 64756c63 
00000ad3 634d2f65 
00000ad7 49535f75   1497 	.data.b	117,95,83,73,77,95,84,121,112,101,115,46,104,0
00000adb 79545f4d 
00000adf 2e736570 
00000ae3 0068 

                                                                      Page 36
                                                              C:\Users\Fengyuan\AppData\Local\Temp\gh_00006b81.s
00000ae5 000000     1498 	.data.b	0,0,0
00000ae8 2e2f2e2e   1499 	.data.b	46,46,47,46,46,47,46,46,47,98,115,119,47,46,46,47,116,104,105,114,100,112,97,114,116,121,47,109,99,97,108,95,115,51,50,107,47,115,117,112,112,108,121,47,115,51,50,107,49,52,120,95,109,99,97,108,52,95,50,95
00000aec 2e2e2f2e 
00000af0 7773622f 
00000af4 2f2e2e2f 
00000af8 72696874 
00000afc 72617064 
00000b00 6d2f7974 
00000b04 5f6c6163 
00000b08 6b323373 
00000b0c 7075732f 
00000b10 2f796c70 
00000b14 6b323373 
00000b18 5f783431 
00000b1c 6c61636d 
00000b20 5f325f34 
00000b24 5f6d7472   1500 	.data.b	114,116,109,95,104,102,51,95,49,95,48,95,49,47,101,99,108,105,112,115,101,47,112,108,117,103,105,110,115,47,109,99,117,95,116,115,95,116,52,48,100,50,109,49,48,105,49,114,48,47,105,110,99,108,117,100,101,47,77,99
00000b28 5f336668 
00000b2c 5f305f31 
00000b30 63652f31 
00000b34 7370696c 
00000b38 6c702f65 
00000b3c 6e696775 
00000b40 636d2f73 
00000b44 73745f75 
00000b48 3034745f 
00000b4c 316d3264 
00000b50 72316930 
00000b54 6e692f30 
00000b58 64756c63 
00000b5c 634d2f65 
00000b60 4d535f75   1501 	.data.b	117,95,83,77,67,95,84,121,112,101,115,46,104,0
00000b64 79545f43 
00000b68 2e736570 
00000b6c 0068 
00000b6e 000000     1502 	.data.b	0,0,0
00000b71 2e2f2e2e   1503 	.data.b	46,46,47,46,46,47,46,46,47,98,115,119,47,46,46,47,116,104,105,114,100,112,97,114,116,121,47,109,99,97,108,95,115,51,50,107,47,115,117,112,112,108,121,47,115,51,50,107,49,52,120,95,109,99,97,108,52,95,50,95
00000b75 2e2e2f2e 
00000b79 7773622f 
00000b7d 2f2e2e2f 
00000b81 72696874 
00000b85 72617064 
00000b89 6d2f7974 
00000b8d 5f6c6163 
00000b91 6b323373 
00000b95 7075732f 
00000b99 2f796c70 
00000b9d 6b323373 
00000ba1 5f783431 
00000ba5 6c61636d 
00000ba9 5f325f34 
00000bad 5f6d7472   1504 	.data.b	114,116,109,95,104,102,51,95,49,95,48,95,49,47,101,99,108,105,112,115,101,47,112,108,117,103,105,110,115,47,109,99,117,95,116,115,95,116,52,48,100,50,109,49,48,105,49,114,48,47,105,110,99,108,117,100,101,47,77,99
00000bb1 5f336668 
00000bb5 5f305f31 
00000bb9 63652f31 
00000bbd 7370696c 
00000bc1 6c702f65 
00000bc5 6e696775 
00000bc9 636d2f73 
00000bcd 73745f75 
00000bd1 3034745f 

                                                                      Page 37
                                                              C:\Users\Fengyuan\AppData\Local\Temp\gh_00006b81.s
00000bd5 316d3264 
00000bd9 72316930 
00000bdd 6e692f30 
00000be1 64756c63 
00000be5 634d2f65 
00000be9 4d435f75   1505 	.data.b	117,95,67,77,85,95,84,121,112,101,115,46,104,0
00000bed 79545f55 
00000bf1 2e736570 
00000bf5 0068 
00000bf7 000000     1506 	.data.b	0,0,0
00000bfa 2e2f2e2e   1507 	.data.b	46,46,47,46,46,47,46,46,47,98,115,119,47,46,46,47,116,104,105,114,100,112,97,114,116,121,47,109,99,97,108,95,115,51,50,107,47,115,117,112,112,108,121,47,115,51,50,107,49,52,120,95,109,99,97,108,52,95,50,95
00000bfe 2e2e2f2e 
00000c02 7773622f 
00000c06 2f2e2e2f 
00000c0a 72696874 
00000c0e 72617064 
00000c12 6d2f7974 
00000c16 5f6c6163 
00000c1a 6b323373 
00000c1e 7075732f 
00000c22 2f796c70 
00000c26 6b323373 
00000c2a 5f783431 
00000c2e 6c61636d 
00000c32 5f325f34 
00000c36 5f6d7472   1508 	.data.b	114,116,109,95,104,102,51,95,49,95,48,95,49,47,101,99,108,105,112,115,101,47,112,108,117,103,105,110,115,47,109,99,117,95,116,115,95,116,52,48,100,50,109,49,48,105,49,114,48,47,105,110,99,108,117,100,101,47,82,101
00000c3a 5f336668 
00000c3e 5f305f31 
00000c42 63652f31 
00000c46 7370696c 
00000c4a 6c702f65 
00000c4e 6e696775 
00000c52 636d2f73 
00000c56 73745f75 
00000c5a 3034745f 
00000c5e 316d3264 
00000c62 72316930 
00000c66 6e692f30 
00000c6a 64756c63 
00000c6e 65522f65 
00000c72 53655f67   1509 	.data.b	103,95,101,83,121,115,95,67,77,85,46,104,0
00000c76 435f7379 
00000c7a 682e554d 
00000c7e 00 
00000c7f 000000     1510 	.data.b	0,0,0
00000c82 2e2f2e2e   1511 	.data.b	46,46,47,46,46,47,46,46,47,98,115,119,47,46,46,47,116,104,105,114,100,112,97,114,116,121,47,109,99,97,108,95,115,51,50,107,47,115,117,112,112,108,121,47,115,51,50,107,49,52,120,95,109,99,97,108,52,95,50,95
00000c86 2e2e2f2e 
00000c8a 7773622f 
00000c8e 2f2e2e2f 
00000c92 72696874 
00000c96 72617064 
00000c9a 6d2f7974 
00000c9e 5f6c6163 
00000ca2 6b323373 
00000ca6 7075732f 
00000caa 2f796c70 
00000cae 6b323373 
00000cb2 5f783431 
00000cb6 6c61636d 
00000cba 5f325f34 
00000cbe 5f6d7472   1512 	.data.b	114,116,109,95,104,102,51,95,49,95,48,95,49,47,101,99,108,105,112,115,101,47,112,108,117,103,105,110,115,47,109,99,117,95,116,115,95,116,52,48,100,50,109,49,48,105,49,114,48,47,105,110,99,108,117,100,101,47,77,99

                                                                      Page 38
                                                              C:\Users\Fengyuan\AppData\Local\Temp\gh_00006b81.s
00000cc2 5f336668 
00000cc6 5f305f31 
00000cca 63652f31 
00000cce 7370696c 
00000cd2 6c702f65 
00000cd6 6e696775 
00000cda 636d2f73 
00000cde 73745f75 
00000ce2 3034745f 
00000ce6 316d3264 
00000cea 72316930 
00000cee 6e692f30 
00000cf2 64756c63 
00000cf6 634d2f65 
00000cfa 4d435f75   1513 	.data.b	117,95,67,77,85,95,73,80,86,101,114,115,105,111,110,46,104,0
00000cfe 50495f55 
00000d02 73726556 
00000d06 2e6e6f69 
00000d0a 0068 
00000d0c 000000     1514 	.data.b	0,0,0
00000d0f 2e2f2e2e   1515 	.data.b	46,46,47,46,46,47,46,46,47,98,115,119,47,109,99,97,108,95,115,51,50,107,47,77,99,117,95,77,101,109,77,97,112,46,104,0
00000d13 2e2e2f2e 
00000d17 7773622f 
00000d1b 61636d2f 
00000d1f 33735f6c 
00000d23 4d2f6b32 
00000d27 4d5f7563 
00000d2b 614d6d65 
00000d2f 00682e70 
00000d33 000000     1516 	.data.b	0,0,0
00000d36 2e2f2e2e   1517 	.data.b	46,46,47,46,46,47,46,46,47,98,115,119,47,100,101,116,47,68,101,116,46,104,0
00000d3a 2e2e2f2e 
00000d3e 7773622f 
00000d42 7465642f 
00000d46 7465442f 
00000d4a 00682e 
00000d4d 000000     1518 	.data.b	0,0,0
00000d50 646e6567   1519 	.data.b	103,101,110,100,97,116,97,92,68,101,116,95,67,102,103,46,104,0
00000d54 5c617461 
00000d58 5f746544 
00000d5c 2e676643 
00000d60 0068 
00000d62 000000     1520 	.data.b	0,0,0
00000d65 2e2f2e2e   1521 	.data.b	46,46,47,46,46,47,46,46,47,98,115,119,47,98,115,119,109,47,66,115,119,77,46,104,0
00000d69 2e2e2f2e 
00000d6d 7773622f 
00000d71 7773622f 
00000d75 73422f6d 
00000d79 682e4d77 
00000d7d 00 
00000d7e 000000     1522 	.data.b	0,0,0
00000d81 646e6567   1523 	.data.b	103,101,110,100,97,116,97,92,66,115,119,77,95,67,102,103,46,104,0
00000d85 5c617461 
00000d89 4d777342 
00000d8d 6766435f 
00000d91 00682e 
00000d94 000000     1524 	.data.b	0,0,0
00000d97 2e2f2e2e   1525 	.data.b	46,46,47,46,46,47,46,46,47,98,115,119,47,98,115,119,109,47,66,115,119,77,95,67,111,109,77,46,104,0
00000d9b 2e2e2f2e 
00000d9f 7773622f 
00000da3 7773622f 

                                                                      Page 39
                                                              C:\Users\Fengyuan\AppData\Local\Temp\gh_00006b81.s
00000da7 73422f6d 
00000dab 435f4d77 
00000daf 2e4d6d6f 
00000db3 0068 
00000db5 000000     1526 	.data.b	0,0,0
00000db8 2e2f2e2e   1527 	.data.b	46,46,47,46,46,47,46,46,47,98,115,119,47,99,111,109,109,47,67,111,109,77,46,104,0
00000dbc 2e2e2f2e 
00000dc0 7773622f 
00000dc4 6d6f632f 
00000dc8 6f432f6d 
00000dcc 682e4d6d 
00000dd0 00 
00000dd1 000000     1528 	.data.b	0,0,0
00000dd4 646e6567   1529 	.data.b	103,101,110,100,97,116,97,92,67,111,109,77,95,76,99,102,103,46,104,0
00000dd8 5c617461 
00000ddc 4d6d6f43 
00000de0 66634c5f 
00000de4 00682e67 
00000de8 000000     1530 	.data.b	0,0,0
00000deb 646e6567   1531 	.data.b	103,101,110,100,97,116,97,92,67,111,109,77,95,67,102,103,46,104,0
00000def 5c617461 
00000df3 4d6d6f43 
00000df7 6766435f 
00000dfb 00682e 
00000dfe 000000     1532 	.data.b	0,0,0
00000e01 2e2f2e2e   1533 	.data.b	46,46,47,46,46,47,46,46,47,98,115,119,47,99,111,109,109,47,67,111,109,77,95,84,121,112,101,115,46,104,0
00000e05 2e2e2f2e 
00000e09 7773622f 
00000e0d 6d6f632f 
00000e11 6f432f6d 
00000e15 545f4d6d 
00000e19 73657079 
00000e1d 00682e 
00000e20 000000     1534 	.data.b	0,0,0
00000e23 646e6567   1535 	.data.b	103,101,110,100,97,116,97,92,67,111,109,77,95,71,101,110,84,121,112,101,115,46,104,0
00000e27 5c617461 
00000e2b 4d6d6f43 
00000e2f 6e65475f 
00000e33 65707954 
00000e37 00682e73 
00000e3b 000000     1536 	.data.b	0,0,0
00000e3e 646e6567   1537 	.data.b	103,101,110,100,97,116,97,47,99,111,109,112,111,110,101,110,116,115,47,82,116,101,95,67,111,109,77,95,84,121,112,101,46,104,0
00000e42 2f617461 
00000e46 706d6f63 
00000e4a 6e656e6f 
00000e4e 522f7374 
00000e52 435f6574 
00000e56 5f4d6d6f 
00000e5a 65707954 
00000e5e 00682e 
00000e61 000000     1538 	.data.b	0,0,0
00000e64 646e6567   1539 	.data.b	103,101,110,100,97,116,97,92,67,111,109,77,95,80,66,99,102,103,46,104,0
00000e68 5c617461 
00000e6c 4d6d6f43 
00000e70 6342505f 
00000e74 682e6766 
00000e78 00 
00000e79 000000     1540 	.data.b	0,0,0
00000e7c 2e2f2e2e   1541 	.data.b	46,46,47,46,46,47,46,46,47,98,115,119,47,99,111,109,109,47,67,111,109,77,95,69,99,117,77,66,115,119,77,46,104,0
00000e80 2e2e2f2e 
00000e84 7773622f 

                                                                      Page 40
                                                              C:\Users\Fengyuan\AppData\Local\Temp\gh_00006b81.s
00000e88 6d6f632f 
00000e8c 6f432f6d 
00000e90 455f4d6d 
00000e94 424d7563 
00000e98 2e4d7773 
00000e9c 0068 
00000e9e 000000     1542 	.data.b	0,0,0
00000ea1 2e2f2e2e   1543 	.data.b	46,46,47,46,46,47,46,46,47,98,115,119,47,98,115,119,109,47,66,115,119,77,95,67,97,110,83,77,46,104,0
00000ea5 2e2e2f2e 
00000ea9 7773622f 
00000ead 7773622f 
00000eb1 73422f6d 
00000eb5 435f4d77 
00000eb9 4d536e61 
00000ebd 00682e 
00000ec0 000000     1544 	.data.b	0,0,0
00000ec3 2e2f2e2e   1545 	.data.b	46,46,47,46,46,47,46,46,47,98,115,119,47,99,97,110,115,109,47,67,97,110,83,77,95,66,115,119,77,46,104,0
00000ec7 2e2e2f2e 
00000ecb 7773622f 
00000ecf 6e61632f 
00000ed3 432f6d73 
00000ed7 4d536e61 
00000edb 7773425f 
00000edf 00682e4d 
00000ee3 000000     1546 	.data.b	0,0,0
00000ee6 2e2f2e2e   1547 	.data.b	46,46,47,46,46,47,46,46,47,98,115,119,47,98,115,119,109,47,66,115,119,77,95,68,99,109,46,104,0
00000eea 2e2e2f2e 
00000eee 7773622f 
00000ef2 7773622f 
00000ef6 73422f6d 
00000efa 445f4d77 
00000efe 682e6d63 
00000f02 00 
00000f03 000000     1548 	.data.b	0,0,0
00000f06 2e2f2e2e   1549 	.data.b	46,46,47,46,46,47,46,46,47,98,115,119,47,100,99,109,47,68,99,109,46,104,0
00000f0a 2e2e2f2e 
00000f0e 7773622f 
00000f12 6d63642f 
00000f16 6d63442f 
00000f1a 00682e 
00000f1d 000000     1550 	.data.b	0,0,0
00000f20 2e2f2e2e   1551 	.data.b	46,46,47,46,46,47,46,46,47,98,115,119,47,100,99,109,47,68,99,109,95,67,98,107,46,104,0
00000f24 2e2e2f2e 
00000f28 7773622f 
00000f2c 6d63642f 
00000f30 6d63442f 
00000f34 6b62435f 
00000f38 00682e 
00000f3b 000000     1552 	.data.b	0,0,0
00000f3e 2e2f2e2e   1553 	.data.b	46,46,47,46,46,47,46,46,47,98,115,119,47,100,99,109,47,68,99,109,95,84,121,112,101,115,46,104,0
00000f42 2e2e2f2e 
00000f46 7773622f 
00000f4a 6d63642f 
00000f4e 6d63442f 
00000f52 7079545f 
00000f56 682e7365 
00000f5a 00 
00000f5b 000000     1554 	.data.b	0,0,0
00000f5e 646e6567   1555 	.data.b	103,101,110,100,97,116,97,47,99,111,109,112,111,110,101,110,116,115,47,82,116,101,95,68,99,109,95,84,121,112,101,46,104,0
00000f62 2f617461 
00000f66 706d6f63 

                                                                      Page 41
                                                              C:\Users\Fengyuan\AppData\Local\Temp\gh_00006b81.s
00000f6a 6e656e6f 
00000f6e 522f7374 
00000f72 445f6574 
00000f76 545f6d63 
00000f7a 2e657079 
00000f7e 0068 
00000f80 000000     1556 	.data.b	0,0,0
00000f83 646e6567   1557 	.data.b	103,101,110,100,97,116,97,92,68,99,109,95,67,102,103,46,104,0
00000f87 5c617461 
00000f8b 5f6d6344 
00000f8f 2e676643 
00000f93 0068 
00000f95 000000     1558 	.data.b	0,0,0
00000f98 2e2f2e2e   1559 	.data.b	46,46,47,46,46,47,46,46,47,98,115,119,47,100,99,109,47,68,99,109,95,66,97,115,101,84,121,112,101,115,46,104,0
00000f9c 2e2e2f2e 
00000fa0 7773622f 
00000fa4 6d63642f 
00000fa8 6d63442f 
00000fac 7361425f 
00000fb0 70795465 
00000fb4 682e7365 
00000fb8 00 
00000fb9 000000     1560 	.data.b	0,0,0
00000fbc 2e2f2e2e   1561 	.data.b	46,46,47,46,46,47,46,46,47,98,115,119,47,100,99,109,47,68,99,109,95,69,120,116,84,121,112,101,115,46,104,0
00000fc0 2e2e2f2e 
00000fc4 7773622f 
00000fc8 6d63642f 
00000fcc 6d63442f 
00000fd0 7478455f 
00000fd4 65707954 
00000fd8 00682e73 
00000fdc 000000     1562 	.data.b	0,0,0
00000fdf 2e2f2e2e   1563 	.data.b	46,46,47,46,46,47,46,46,47,98,115,119,47,100,99,109,47,68,99,109,95,67,111,114,101,84,121,112,101,115,46,104,0
00000fe3 2e2e2f2e 
00000fe7 7773622f 
00000feb 6d63642f 
00000fef 6d63442f 
00000ff3 726f435f 
00000ff7 70795465 
00000ffb 682e7365 
00000fff 00 
00001000 000000     1564 	.data.b	0,0,0
00001003 2e2f2e2e   1565 	.data.b	46,46,47,46,46,47,46,46,47,98,115,119,47,100,99,109,47,68,99,109,95,66,97,115,101,67,98,107,46,104,0
00001007 2e2e2f2e 
0000100b 7773622f 
0000100f 6d63642f 
00001013 6d63442f 
00001017 7361425f 
0000101b 6b624365 
0000101f 00682e 
00001022 000000     1566 	.data.b	0,0,0
00001025 2e2f2e2e   1567 	.data.b	46,46,47,46,46,47,46,46,47,98,115,119,47,100,99,109,47,68,99,109,95,69,120,116,67,98,107,46,104,0
00001029 2e2e2f2e 
0000102d 7773622f 
00001031 6d63642f 
00001035 6d63442f 
00001039 7478455f 
0000103d 2e6b6243 
00001041 0068 
00001043 000000     1568 	.data.b	0,0,0
00001046 2e2f2e2e   1569 	.data.b	46,46,47,46,46,47,46,46,47,98,115,119,47,100,99,109,47,68,99,109,95,67,111,114,101,67,98,107,46,104,0

                                                                      Page 42
                                                              C:\Users\Fengyuan\AppData\Local\Temp\gh_00006b81.s
0000104a 2e2e2f2e 
0000104e 7773622f 
00001052 6d63642f 
00001056 6d63442f 
0000105a 726f435f 
0000105e 6b624365 
00001062 00682e 
00001065 000000     1570 	.data.b	0,0,0
00001068 646e6567   1571 	.data.b	103,101,110,100,97,116,97,92,68,99,109,95,76,99,102,103,46,104,0
0000106c 5c617461 
00001070 5f6d6344 
00001074 6766634c 
00001078 00682e 
0000107b 000000     1572 	.data.b	0,0,0
0000107e 2e2f2e2e   1573 	.data.b	46,46,47,46,46,47,46,46,47,98,115,119,47,100,101,109,47,68,101,109,46,104,0
00001082 2e2e2f2e 
00001086 7773622f 
0000108a 6d65642f 
0000108e 6d65442f 
00001092 00682e 
00001095 000000     1574 	.data.b	0,0,0
00001098 2e2f2e2e   1575 	.data.b	46,46,47,46,46,47,46,46,47,98,115,119,47,100,101,109,47,68,101,109,95,84,121,112,101,115,46,104,0
0000109c 2e2e2f2e 
000010a0 7773622f 
000010a4 6d65642f 
000010a8 6d65442f 
000010ac 7079545f 
000010b0 682e7365 
000010b4 00 
000010b5 000000     1576 	.data.b	0,0,0
000010b8 646e6567   1577 	.data.b	103,101,110,100,97,116,97,92,68,101,109,95,67,102,103,46,104,0
000010bc 5c617461 
000010c0 5f6d6544 
000010c4 2e676643 
000010c8 0068 
000010ca 000000     1578 	.data.b	0,0,0
000010cd 646e6567   1579 	.data.b	103,101,110,100,97,116,97,92,68,101,109,95,83,119,99,95,84,121,112,101,115,46,104,0
000010d1 5c617461 
000010d5 5f6d6544 
000010d9 5f637753 
000010dd 65707954 
000010e1 00682e73 
000010e5 000000     1580 	.data.b	0,0,0
000010e8 646e6567   1581 	.data.b	103,101,110,100,97,116,97,47,99,111,109,112,111,110,101,110,116,115,47,82,116,101,95,68,101,109,77,97,115,116,101,114,95,48,95,84,121,112,101,46,104,0
000010ec 2f617461 
000010f0 706d6f63 
000010f4 6e656e6f 
000010f8 522f7374 
000010fc 445f6574 
00001100 614d6d65 
00001104 72657473 
00001108 545f305f 
0000110c 2e657079 
00001110 0068 
00001112 000000     1582 	.data.b	0,0,0
00001115 646e6567   1583 	.data.b	103,101,110,100,97,116,97,92,68,101,109,95,76,99,102,103,46,104,0
00001119 5c617461 
0000111d 5f6d6544 
00001121 6766634c 
00001125 00682e 
00001128 000000     1584 	.data.b	0,0,0

                                                                      Page 43
                                                              C:\Users\Fengyuan\AppData\Local\Temp\gh_00006b81.s
0000112b 2e2f2e2e   1585 	.data.b	46,46,47,46,46,47,46,46,47,98,115,119,47,100,101,109,47,68,101,109,95,83,97,116,101,108,108,105,116,101,68,97,116,97,95,84,121,112,101,115,46,104,0
0000112f 2e2e2f2e 
00001133 7773622f 
00001137 6d65642f 
0000113b 6d65442f 
0000113f 7461535f 
00001143 696c6c65 
00001147 61446574 
0000114b 545f6174 
0000114f 73657079 
00001153 00682e 
00001156 000000     1586 	.data.b	0,0,0
00001159 2e2f2e2e   1587 	.data.b	46,46,47,46,46,47,46,46,47,98,115,119,47,100,101,109,47,68,101,109,95,73,110,116,46,104,0
0000115d 2e2e2f2e 
00001161 7773622f 
00001165 6d65642f 
00001169 6d65442f 
0000116d 746e495f 
00001171 00682e 
00001174 000000     1588 	.data.b	0,0,0
00001177 646e6567   1589 	.data.b	103,101,110,100,97,116,97,92,83,99,104,77,95,68,101,109,46,104,0
0000117b 5c617461 
0000117f 4d686353 
00001183 6d65445f 
00001187 00682e 
0000118a 000000     1590 	.data.b	0,0,0
0000118d 646e6567   1591 	.data.b	103,101,110,100,97,116,97,92,83,99,104,77,95,68,101,109,95,84,121,112,101,46,104,0
00001191 5c617461 
00001195 4d686353 
00001199 6d65445f 
0000119d 7079545f 
000011a1 00682e65 
000011a5 000000     1592 	.data.b	0,0,0
000011a8 2e2f2e2e   1593 	.data.b	46,46,47,46,46,47,46,46,47,98,115,119,47,100,101,109,47,68,101,109,95,67,111,109,95,84,121,112,101,115,46,104,0
000011ac 2e2e2f2e 
000011b0 7773622f 
000011b4 6d65642f 
000011b8 6d65442f 
000011bc 6d6f435f 
000011c0 7079545f 
000011c4 682e7365 
000011c8 00 
000011c9 000000     1594 	.data.b	0,0,0
000011cc 2e2f2e2e   1595 	.data.b	46,46,47,46,46,47,46,46,47,98,115,119,47,100,101,109,47,68,101,109,95,69,118,101,110,116,81,117,101,117,101,95,84,121,112,101,115,46,104,0
000011d0 2e2e2f2e 
000011d4 7773622f 
000011d8 6d65642f 
000011dc 6d65442f 
000011e0 6576455f 
000011e4 7551746e 
000011e8 5f657565 
000011ec 65707954 
000011f0 00682e73 
000011f4 000000     1596 	.data.b	0,0,0
000011f7 2e2f2e2e   1597 	.data.b	46,46,47,46,46,47,46,46,47,98,115,119,47,100,101,109,47,68,101,109,95,68,101,98,111,117,110,99,101,66,97,115,101,95,70,119,100,46,104,0
000011fb 2e2e2f2e 
000011ff 7773622f 
00001203 6d65642f 
00001207 6d65442f 
0000120b 6265445f 
0000120f 636e756f 

                                                                      Page 44
                                                              C:\Users\Fengyuan\AppData\Local\Temp\gh_00006b81.s
00001213 73614265 
00001217 77465f65 
0000121b 00682e64 
0000121f 000000     1598 	.data.b	0,0,0
00001222 2e2f2e2e   1599 	.data.b	46,46,47,46,46,47,46,46,47,98,115,119,47,100,101,109,47,68,101,109,95,68,84,67,83,101,108,101,99,116,111,114,95,84,121,112,101,115,46,104,0
00001226 2e2e2f2e 
0000122a 7773622f 
0000122e 6d65642f 
00001232 6d65442f 
00001236 4354445f 
0000123a 656c6553 
0000123e 726f7463 
00001242 7079545f 
00001246 682e7365 
0000124a 00 
0000124b 000000     1600 	.data.b	0,0,0
0000124e 2e2f2e2e   1601 	.data.b	46,46,47,46,46,47,46,46,47,98,115,119,47,100,101,109,47,68,101,109,95,70,105,108,116,101,114,68,97,116,97,95,84,121,112,101,115,46,104,0
00001252 2e2e2f2e 
00001256 7773622f 
0000125a 6d65642f 
0000125e 6d65442f 
00001262 6c69465f 
00001266 44726574 
0000126a 5f617461 
0000126e 65707954 
00001272 00682e73 
00001276 000000     1602 	.data.b	0,0,0
00001279 2e2f2e2e   1603 	.data.b	46,46,47,46,46,47,46,46,47,98,115,119,47,100,101,109,47,68,101,109,95,67,102,103,95,84,121,112,101,115,46,104,0
0000127d 2e2e2f2e 
00001281 7773622f 
00001285 6d65642f 
00001289 6d65442f 
0000128d 6766435f 
00001291 7079545f 
00001295 682e7365 
00001299 00 
0000129a 000000     1604 	.data.b	0,0,0
0000129d 2e2f2e2e   1605 	.data.b	46,46,47,46,46,47,46,46,47,98,115,119,47,100,101,109,47,68,101,109,95,80,114,101,115,116,111,114,101,95,84,121,112,101,115,46,104,0
000012a1 2e2e2f2e 
000012a5 7773622f 
000012a9 6d65642f 
000012ad 6d65442f 
000012b1 6572505f 
000012b5 726f7473 
000012b9 79545f65 
000012bd 2e736570 
000012c1 0068 
000012c3 000000     1606 	.data.b	0,0,0
000012c6 2e2f2e2e   1607 	.data.b	46,46,47,46,46,47,46,46,47,98,115,119,47,100,101,109,47,68,101,109,95,77,101,109,83,116,97,116,101,95,84,121,112,101,115,46,104,0
000012ca 2e2e2f2e 
000012ce 7773622f 
000012d2 6d65642f 
000012d6 6d65442f 
000012da 6d654d5f 
000012de 74617453 
000012e2 79545f65 
000012e6 2e736570 
000012ea 0068 
000012ec 000000     1608 	.data.b	0,0,0
000012ef 2e2f2e2e   1609 	.data.b	46,46,47,46,46,47,46,46,47,98,115,119,47,100,101,109,47,68,101,109,95,77,101,109,111,114,121,95,84,121,112,101,115,46,104,0
000012f3 2e2e2f2e 

                                                                      Page 45
                                                              C:\Users\Fengyuan\AppData\Local\Temp\gh_00006b81.s
000012f7 7773622f 
000012fb 6d65642f 
000012ff 6d65442f 
00001303 6d654d5f 
00001307 5f79726f 
0000130b 65707954 
0000130f 00682e73 
00001313 000000     1610 	.data.b	0,0,0
00001316 2e2f2e2e   1611 	.data.b	46,46,47,46,46,47,46,46,47,98,115,119,47,100,101,109,47,68,101,109,95,74,49,57,51,57,68,99,109,65,80,73,95,84,121,112,101,115,46,104,0
0000131a 2e2e2f2e 
0000131e 7773622f 
00001322 6d65642f 
00001326 6d65442f 
0000132a 39314a5f 
0000132e 63443933 
00001332 4950416d 
00001336 7079545f 
0000133a 682e7365 
0000133e 00 
0000133f 000000     1612 	.data.b	0,0,0
00001342 2e2f2e2e   1613 	.data.b	46,46,47,46,46,47,46,46,47,98,115,119,47,100,101,109,47,68,101,109,95,70,114,101,101,122,101,70,114,97,109,101,73,116,101,114,97,116,111,114,95,84,121,112,101,115,46,104,0
00001346 2e2e2f2e 
0000134a 7773622f 
0000134e 6d65642f 
00001352 6d65442f 
00001356 6572465f 
0000135a 46657a65 
0000135e 656d6172 
00001362 72657449 
00001366 726f7461 
0000136a 7079545f 
0000136e 682e7365 
00001372 00 
00001373 000000     1614 	.data.b	0,0,0
00001376 2e2f2e2e   1615 	.data.b	46,46,47,46,46,47,46,46,47,98,115,119,47,100,101,109,47,68,101,109,95,83,110,97,112,115,104,111,116,69,110,116,114,121,95,84,121,112,101,115,46,104,0
0000137a 2e2e2f2e 
0000137e 7773622f 
00001382 6d65642f 
00001386 6d65442f 
0000138a 616e535f 
0000138e 6f687370 
00001392 746e4574 
00001396 545f7972 
0000139a 73657079 
0000139e 00682e 
000013a1 000000     1616 	.data.b	0,0,0
000013a4 2e2f2e2e   1617 	.data.b	46,46,47,46,46,47,46,46,47,98,115,119,47,100,101,109,47,68,101,109,95,77,101,109,111,114,121,69,110,116,114,121,95,70,119,100,46,104,0
000013a8 2e2e2f2e 
000013ac 7773622f 
000013b0 6d65642f 
000013b4 6d65442f 
000013b8 6d654d5f 
000013bc 4579726f 
000013c0 7972746e 
000013c4 6477465f 
000013c8 00682e 
000013cb 000000     1618 	.data.b	0,0,0
000013ce 2e2f2e2e   1619 	.data.b	46,46,47,46,46,47,46,46,47,98,115,119,47,100,101,109,47,68,101,109,95,67,108,101,97,114,68,84,67,95,84,121,112,101,115,46,104,0
000013d2 2e2e2f2e 
000013d6 7773622f 
000013da 6d65642f 

                                                                      Page 46
                                                              C:\Users\Fengyuan\AppData\Local\Temp\gh_00006b81.s
000013de 6d65442f 
000013e2 656c435f 
000013e6 54447261 
000013ea 79545f43 
000013ee 2e736570 
000013f2 0068 
000013f4 000000     1620 	.data.b	0,0,0
000013f7 2e2f2e2e   1621 	.data.b	46,46,47,46,46,47,46,46,47,98,115,119,47,100,101,109,47,68,101,109,95,69,118,101,110,116,95,84,121,112,101,115,46,104,0
000013fb 2e2e2f2e 
000013ff 7773622f 
00001403 6d65642f 
00001407 6d65442f 
0000140b 6576455f 
0000140f 545f746e 
00001413 73657079 
00001417 00682e 
0000141a 000000     1622 	.data.b	0,0,0
0000141d 2e2f2e2e   1623 	.data.b	46,46,47,46,46,47,46,46,47,98,115,119,47,100,101,109,47,68,101,109,95,69,118,101,110,116,73,110,116,101,114,110,97,108,83,116,97,116,117,115,95,84,121,112,101,115,46,104,0
00001421 2e2e2f2e 
00001425 7773622f 
00001429 6d65642f 
0000142d 6d65442f 
00001431 6576455f 
00001435 6e49746e 
00001439 6e726574 
0000143d 74536c61 
00001441 73757461 
00001445 7079545f 
00001449 682e7365 
0000144d 00 
0000144e 000000     1624 	.data.b	0,0,0
00001451 2e2f2e2e   1625 	.data.b	46,46,47,46,46,47,46,46,47,98,115,119,47,100,101,109,47,68,101,109,95,85,68,83,83,116,97,116,117,115,95,84,121,112,101,115,46,104,0
00001455 2e2e2f2e 
00001459 7773622f 
0000145d 6d65642f 
00001461 6d65442f 
00001465 5344555f 
00001469 74617453 
0000146d 545f7375 
00001471 73657079 
00001475 00682e 
00001478 000000     1626 	.data.b	0,0,0
0000147b 2e2f2e2e   1627 	.data.b	46,46,47,46,46,47,46,46,47,98,115,119,47,100,101,109,47,68,101,109,95,68,84,67,82,101,97,100,111,117,116,66,117,102,102,101,114,95,84,121,112,101,115,46,104,0
0000147f 2e2e2f2e 
00001483 7773622f 
00001487 6d65642f 
0000148b 6d65442f 
0000148f 4354445f 
00001493 64616552 
00001497 4274756f 
0000149b 65666675 
0000149f 79545f72 
000014a3 2e736570 
000014a7 0068 
000014a9 000000     1628 	.data.b	0,0,0
000014ac 2e2f2e2e   1629 	.data.b	46,46,47,46,46,47,46,46,47,98,115,119,47,100,101,109,47,68,101,109,95,69,120,116,101,110,100,101,100,69,110,116,114,121,95,84,121,112,101,115,46,104,0
000014b0 2e2e2f2e 
000014b4 7773622f 
000014b8 6d65642f 
000014bc 6d65442f 
000014c0 7478455f 

                                                                      Page 47
                                                              C:\Users\Fengyuan\AppData\Local\Temp\gh_00006b81.s
000014c4 65646e65 
000014c8 746e4564 
000014cc 545f7972 
000014d0 73657079 
000014d4 00682e 
000014d7 000000     1630 	.data.b	0,0,0
000014da 2e2f2e2e   1631 	.data.b	46,46,47,46,46,47,46,46,47,98,115,119,47,100,101,109,47,68,101,109,95,77,101,109,111,114,121,69,110,116,114,121,95,84,121,112,101,115,46,104,0
000014de 2e2e2f2e 
000014e2 7773622f 
000014e6 6d65642f 
000014ea 6d65442f 
000014ee 6d654d5f 
000014f2 4579726f 
000014f6 7972746e 
000014fa 7079545f 
000014fe 682e7365 
00001502 00 
00001503 000000     1632 	.data.b	0,0,0
00001506 646e6567   1633 	.data.b	103,101,110,100,97,116,97,92,68,101,109,95,80,66,99,102,103,46,104,0
0000150a 5c617461 
0000150e 5f6d6544 
00001512 66634250 
00001516 00682e67 
0000151a 000000     1634 	.data.b	0,0,0
0000151d 2e2f2e2e   1635 	.data.b	46,46,47,46,46,47,46,46,47,98,115,119,47,100,101,109,47,68,101,109,95,67,102,103,95,77,97,99,114,111,115,46,104,0
00001521 2e2e2f2e 
00001525 7773622f 
00001529 6d65642f 
0000152d 6d65442f 
00001531 6766435f 
00001535 63614d5f 
00001539 2e736f72 
0000153d 0068 
0000153f 000000     1636 	.data.b	0,0,0
00001542 2e2f2e2e   1637 	.data.b	46,46,47,46,46,47,46,46,47,98,115,119,47,100,101,109,47,68,101,109,95,86,97,108,105,100,97,116,105,111,110,46,104,0
00001546 2e2e2f2e 
0000154a 7773622f 
0000154e 6d65642f 
00001552 6d65442f 
00001556 6c61565f 
0000155a 74616469 
0000155e 2e6e6f69 
00001562 0068 
00001564 000000     1638 	.data.b	0,0,0
00001567 2e2f2e2e   1639 	.data.b	46,46,47,46,46,47,46,46,47,98,115,119,47,100,101,109,47,68,101,109,95,65,80,73,95,73,110,116,101,114,102,97,99,101,46,104,0
0000156b 2e2e2f2e 
0000156f 7773622f 
00001573 6d65642f 
00001577 6d65442f 
0000157b 4950415f 
0000157f 746e495f 
00001583 61667265 
00001587 682e6563 
0000158b 00 
0000158c 000000     1640 	.data.b	0,0,0
0000158f 2e2f2e2e   1641 	.data.b	46,46,47,46,46,47,46,46,47,98,115,119,47,100,101,109,47,68,101,109,95,65,80,73,95,84,121,112,101,115,46,104,0
00001593 2e2e2f2e 
00001597 7773622f 
0000159b 6d65642f 
0000159f 6d65442f 
000015a3 4950415f 

                                                                      Page 48
                                                              C:\Users\Fengyuan\AppData\Local\Temp\gh_00006b81.s
000015a7 7079545f 
000015ab 682e7365 
000015af 00 
000015b0 000000     1642 	.data.b	0,0,0
000015b3 2e2f2e2e   1643 	.data.b	46,46,47,46,46,47,46,46,47,98,115,119,47,100,101,109,47,68,101,109,95,83,97,116,101,108,108,105,116,101,95,84,121,112,101,115,46,104,0
000015b7 2e2e2f2e 
000015bb 7773622f 
000015bf 6d65642f 
000015c3 6d65442f 
000015c7 7461535f 
000015cb 696c6c65 
000015cf 545f6574 
000015d3 73657079 
000015d7 00682e 
000015da 000000     1644 	.data.b	0,0,0
000015dd 2e2f2e2e   1645 	.data.b	46,46,47,46,46,47,46,46,47,98,115,119,47,100,101,109,47,68,101,109,95,68,99,109,46,104,0
000015e1 2e2e2f2e 
000015e5 7773622f 
000015e9 6d65642f 
000015ed 6d65442f 
000015f1 6d63445f 
000015f5 00682e 
000015f8 000000     1646 	.data.b	0,0,0
000015fb 2e2f2e2e   1647 	.data.b	46,46,47,46,46,47,46,46,47,98,115,119,47,100,101,109,47,68,101,109,95,68,99,109,65,80,73,95,73,110,116,101,114,102,97,99,101,46,104,0
000015ff 2e2e2f2e 
00001603 7773622f 
00001607 6d65642f 
0000160b 6d65442f 
0000160f 6d63445f 
00001613 5f495041 
00001617 65746e49 
0000161b 63616672 
0000161f 00682e65 
00001623 000000     1648 	.data.b	0,0,0
00001626 2e2f2e2e   1649 	.data.b	46,46,47,46,46,47,46,46,47,98,115,119,47,100,101,109,47,68,101,109,95,68,99,109,65,80,73,95,84,121,112,101,115,46,104,0
0000162a 2e2e2f2e 
0000162e 7773622f 
00001632 6d65642f 
00001636 6d65442f 
0000163a 6d63445f 
0000163e 5f495041 
00001642 65707954 
00001646 00682e73 
0000164a 000000     1650 	.data.b	0,0,0
0000164d 646e6567   1651 	.data.b	103,101,110,100,97,116,97,92,68,99,109,95,80,66,99,102,103,46,104,0
00001651 5c617461 
00001655 5f6d6344 
00001659 66634250 
0000165d 00682e67 
00001661 000000     1652 	.data.b	0,0,0
00001664 2e2f2e2e   1653 	.data.b	46,46,47,46,46,47,46,46,47,98,115,119,47,100,99,109,47,68,99,109,95,66,97,115,101,46,104,0
00001668 2e2e2f2e 
0000166c 7773622f 
00001670 6d63642f 
00001674 6d63442f 
00001678 7361425f 
0000167c 00682e65 
00001680 000000     1654 	.data.b	0,0,0
00001683 2e2f2e2e   1655 	.data.b	46,46,47,46,46,47,46,46,47,98,115,119,47,100,99,109,47,68,99,109,95,69,120,116,46,104,0
00001687 2e2e2f2e 
0000168b 7773622f 

                                                                      Page 49
                                                              C:\Users\Fengyuan\AppData\Local\Temp\gh_00006b81.s
0000168f 6d63642f 
00001693 6d63442f 
00001697 7478455f 
0000169b 00682e 
0000169e 000000     1656 	.data.b	0,0,0
000016a1 2e2f2e2e   1657 	.data.b	46,46,47,46,46,47,46,46,47,98,115,119,47,100,99,109,47,68,99,109,95,67,111,114,101,46,104,0
000016a5 2e2e2f2e 
000016a9 7773622f 
000016ad 6d63642f 
000016b1 6d63442f 
000016b5 726f435f 
000016b9 00682e65 
000016bd 000000     1658 	.data.b	0,0,0
000016c0 2e2f2e2e   1659 	.data.b	46,46,47,46,46,47,46,46,47,98,115,119,47,98,115,119,109,47,66,115,119,77,95,69,99,117,77,46,104,0
000016c4 2e2e2f2e 
000016c8 7773622f 
000016cc 7773622f 
000016d0 73422f6d 
000016d4 455f4d77 
000016d8 2e4d7563 
000016dc 0068 
000016de 000000     1660 	.data.b	0,0,0
000016e1 646e6567   1661 	.data.b	103,101,110,100,97,116,97,47,99,111,109,112,111,110,101,110,116,115,47,82,116,101,95,69,99,117,77,46,104,0
000016e5 2f617461 
000016e9 706d6f63 
000016ed 6e656e6f 
000016f1 522f7374 
000016f5 455f6574 
000016f9 2e4d7563 
000016fd 0068 
000016ff 000000     1662 	.data.b	0,0,0
00001702 646e6567   1663 	.data.b	103,101,110,100,97,116,97,47,99,111,109,112,111,110,101,110,116,115,47,69,99,117,77,95,77,101,109,77,97,112,46,104,0
00001706 2f617461 
0000170a 706d6f63 
0000170e 6e656e6f 
00001712 452f7374 
00001716 5f4d7563 
0000171a 4d6d654d 
0000171e 682e7061 
00001722 00 
00001723 000000     1664 	.data.b	0,0,0
00001726 646e6567   1665 	.data.b	103,101,110,100,97,116,97,92,82,116,101,95,77,97,105,110,46,104,0
0000172a 5c617461 
0000172e 5f657452 
00001732 6e69614d 
00001736 00682e 
00001739 000000     1666 	.data.b	0,0,0
0000173c 646e6567   1667 	.data.b	103,101,110,100,97,116,97,92,83,99,104,77,95,69,99,117,77,46,104,0
00001740 5c617461 
00001744 4d686353 
00001748 7563455f 
0000174c 00682e4d 
00001750 000000     1668 	.data.b	0,0,0
00001753 646e6567   1669 	.data.b	103,101,110,100,97,116,97,92,83,99,104,77,95,69,99,117,77,95,84,121,112,101,46,104,0
00001757 5c617461 
0000175b 4d686353 
0000175f 7563455f 
00001763 79545f4d 
00001767 682e6570 
0000176b 00 
0000176c 000000     1670 	.data.b	0,0,0

                                                                      Page 50
                                                              C:\Users\Fengyuan\AppData\Local\Temp\gh_00006b81.s
0000176f 2e2f2e2e   1671 	.data.b	46,46,47,46,46,47,46,46,47,66,83,87,47,69,99,117,77,47,69,99,117,77,95,69,114,114,111,114,46,104,0
00001773 2e2e2f2e 
00001777 5753422f 
0000177b 7563452f 
0000177f 63452f4d 
00001783 455f4d75 
00001787 726f7272 
0000178b 00682e 
0000178e 000000     1672 	.data.b	0,0,0
00001791 00         1673 	.data.b	0
                    1674 .Ldw_lpro_end:
                    1675 	.section	.debug_macinfo
                    1676 .Ldw_macinfo_begin:
                    1677 	.section	.debug_frame
                    1678 .LDW_626e228:
00000000 00000000*  1679 	.data.w	.LDW_unq_2-.LDW_unq_1
                    1680 .LDW_unq_1:
00000004 ffffffff   1681 	.data.b	255,255,255,255
00000008 01         1682 	.data.b	1
00000009 00         1683 	.data.b	0
0000000a 01         1684 	.data.b	1
0000000b 01         1685 	.data.b	1
0000000c 00         1686 	.data.b	0
0000000d 0c         1687 	.data.b	12
0000000e 0d         1688 	.data.b	13
0000000f 00         1689 	.data.b	0
00000010 07         1690 	.data.b	7
00000011 00         1691 	.data.b	0
00000012 07         1692 	.data.b	7
00000013 01         1693 	.data.b	1
00000014 07         1694 	.data.b	7
00000015 02         1695 	.data.b	2
00000016 07         1696 	.data.b	7
00000017 03         1697 	.data.b	3
00000018 07         1698 	.data.b	7
00000019 04         1699 	.data.b	4
0000001a 07         1700 	.data.b	7
0000001b 05         1701 	.data.b	5
0000001c 07         1702 	.data.b	7
0000001d 06         1703 	.data.b	6
0000001e 07         1704 	.data.b	7
0000001f 07         1705 	.data.b	7
00000020 07         1706 	.data.b	7
00000021 08         1707 	.data.b	8
00000022 07         1708 	.data.b	7
00000023 09         1709 	.data.b	9
00000024 07         1710 	.data.b	7
00000025 0a         1711 	.data.b	10
00000026 07         1712 	.data.b	7
00000027 0b         1713 	.data.b	11
00000028 07         1714 	.data.b	7
00000029 0c         1715 	.data.b	12
0000002a 07         1716 	.data.b	7
0000002b 0d         1717 	.data.b	13
0000002c 07         1718 	.data.b	7
0000002d 0e         1719 	.data.b	14
0000002e 07         1720 	.data.b	7
0000002f 0f         1721 	.data.b	15
00000030 07         1722 	.data.b	7
00000031 10         1723 	.data.b	16
00000032 07         1724 	.data.b	7

                                                                      Page 51
                                                              C:\Users\Fengyuan\AppData\Local\Temp\gh_00006b81.s
00000033 11         1725 	.data.b	17
00000034 07         1726 	.data.b	7
00000035 12         1727 	.data.b	18
00000036 07         1728 	.data.b	7
00000037 13         1729 	.data.b	19
00000038 07         1730 	.data.b	7
00000039 14         1731 	.data.b	20
0000003a 07         1732 	.data.b	7
0000003b 15         1733 	.data.b	21
0000003c 07         1734 	.data.b	7
0000003d 16         1735 	.data.b	22
0000003e 07         1736 	.data.b	7
0000003f 17         1737 	.data.b	23
00000040 07         1738 	.data.b	7
00000041 18         1739 	.data.b	24
00000042 07         1740 	.data.b	7
00000043 19         1741 	.data.b	25
00000044 07         1742 	.data.b	7
00000045 1a         1743 	.data.b	26
00000046 07         1744 	.data.b	7
00000047 1b         1745 	.data.b	27
00000048 07         1746 	.data.b	7
00000049 1c         1747 	.data.b	28
0000004a 07         1748 	.data.b	7
0000004b 1d         1749 	.data.b	29
0000004c 07         1750 	.data.b	7
0000004d 1e         1751 	.data.b	30
0000004e 07         1752 	.data.b	7
0000004f 1f         1753 	.data.b	31
00000050 07         1754 	.data.b	7
00000051 20         1755 	.data.b	32
00000052 07         1756 	.data.b	7
00000053 21         1757 	.data.b	33
00000054 07         1758 	.data.b	7
00000055 22         1759 	.data.b	34
00000056 07         1760 	.data.b	7
00000057 23         1761 	.data.b	35
00000058 07         1762 	.data.b	7
00000059 24         1763 	.data.b	36
0000005a 07         1764 	.data.b	7
0000005b 25         1765 	.data.b	37
0000005c 07         1766 	.data.b	7
0000005d 26         1767 	.data.b	38
0000005e 07         1768 	.data.b	7
0000005f 27         1769 	.data.b	39
00000060 07         1770 	.data.b	7
00000061 28         1771 	.data.b	40
00000062 07         1772 	.data.b	7
00000063 29         1773 	.data.b	41
00000064 07         1774 	.data.b	7
00000065 2a         1775 	.data.b	42
00000066 07         1776 	.data.b	7
00000067 2b         1777 	.data.b	43
00000068 07         1778 	.data.b	7
00000069 2c         1779 	.data.b	44
0000006a 07         1780 	.data.b	7
0000006b 2d         1781 	.data.b	45
0000006c 07         1782 	.data.b	7
0000006d 2e         1783 	.data.b	46
0000006e 07         1784 	.data.b	7
0000006f 2f         1785 	.data.b	47

                                                                      Page 52
                                                              C:\Users\Fengyuan\AppData\Local\Temp\gh_00006b81.s
00000070 07         1786 	.data.b	7
00000071 30         1787 	.data.b	48
00000072 07         1788 	.data.b	7
00000073 31         1789 	.data.b	49
00000074 07         1790 	.data.b	7
00000075 32         1791 	.data.b	50
00000076 07         1792 	.data.b	7
00000077 33         1793 	.data.b	51
00000078 07         1794 	.data.b	7
00000079 34         1795 	.data.b	52
0000007a 07         1796 	.data.b	7
0000007b 35         1797 	.data.b	53
0000007c 07         1798 	.data.b	7
0000007d 36         1799 	.data.b	54
0000007e 07         1800 	.data.b	7
0000007f 37         1801 	.data.b	55
00000080 07         1802 	.data.b	7
00000081 38         1803 	.data.b	56
00000082 07         1804 	.data.b	7
00000083 39         1805 	.data.b	57
00000084 07         1806 	.data.b	7
00000085 3a         1807 	.data.b	58
00000086 07         1808 	.data.b	7
00000087 3b         1809 	.data.b	59
00000088 07         1810 	.data.b	7
00000089 3c         1811 	.data.b	60
0000008a 07         1812 	.data.b	7
0000008b 3d         1813 	.data.b	61
0000008c 07         1814 	.data.b	7
0000008d 3e         1815 	.data.b	62
0000008e 07         1816 	.data.b	7
0000008f 3f         1817 	.data.b	63
                    1818 .LDW_unq_2:
                    1819 	.section	.debug_info
                    1820 .LDW_4b1d5a0:
00000093 27         1821 	.data.b	39
00000094 69736e75   1822 	.data.b	117,110,115,105,103,110,101,100,32,99,104,97,114,0
00000098 64656e67 
0000009c 61686320 
000000a0 0072 
000000a2 08         1823 	.data.b	8
000000a3 01         1824 	.data.b	1
                    1825 
                    1826 	.section	.debug_abbrev
00000017 27         1827 	.data.b	39
00000018 24         1828 	.data.b	36
00000019 00         1829 	.data.b	0
0000001a 0803       1830 	.data.b	3,8
0000001c 0b3e       1831 	.data.b	62,11
0000001e 0b0b       1832 	.data.b	11,11
00000020 0000       1833 	.data.b	0,0
                    1834 
                    1835 	.section	.debug_info
                    1836 .LDW_4b1d220:
000000a4 27         1837 	.data.b	39
000000a5 69736e75   1838 	.data.b	117,110,115,105,103,110,101,100,32,108,111,110,103,0
000000a9 64656e67 
000000ad 6e6f6c20 
000000b1 0067 
000000b3 07         1839 	.data.b	7
000000b4 04         1840 	.data.b	4

                                                                      Page 53
                                                              C:\Users\Fengyuan\AppData\Local\Temp\gh_00006b81.s
                    1841 
                    1842 .LDW_4b1d418:
000000b5 46         1843 	.data.b	70
000000b6 00000000*  1844 	.data.w	.LDW_5da7408
000000ba 01         1845 	.data.b	1
                    1846 
                    1847 	.section	.debug_abbrev
00000022 46         1848 	.data.b	70
00000023 15         1849 	.data.b	21
00000024 01         1850 	.data.b	1
00000025 1049       1851 	.data.b	73,16
00000027 0c27       1852 	.data.b	39,12
00000029 0000       1853 	.data.b	0,0
                    1854 
                    1855 	.section	.debug_info
                    1856 .LDW_5da5da8:
000000bb 14         1857 	.data.b	20
000000bc 00000000*  1858 	.data.w	.LDW_5da74b8
000000c0 00         1859 	.data.b	0
                    1860 
                    1861 	.section	.debug_abbrev
0000002b 14         1862 	.data.b	20
0000002c 05         1863 	.data.b	5
0000002d 00         1864 	.data.b	0
0000002e 1049       1865 	.data.b	73,16
00000030 0c4b       1866 	.data.b	75,12
00000032 0000       1867 	.data.b	0,0
                    1868 
                    1869 	.section	.debug_info
000000c1 00         1870 	.data.b	0
                    1871 
                    1872 .LDW_4b1d568:
000000c2 47         1873 	.data.b	71
000000c3 01         1874 	.data.b	1
                    1875 
                    1876 	.section	.debug_abbrev
00000034 47         1877 	.data.b	71
00000035 15         1878 	.data.b	21
00000036 01         1879 	.data.b	1
00000037 0c27       1880 	.data.b	39,12
00000039 0000       1881 	.data.b	0,0
                    1882 
                    1883 	.section	.debug_info
000000c4 00         1884 	.data.b	0
                    1885 
                    1886 .LDW_4b1d3a8:
000000c5 47         1887 	.data.b	71
000000c6 01         1888 	.data.b	1
                    1889 
                    1890 .LDW_5da60d8:
000000c7 14         1891 	.data.b	20
000000c8 00000000*  1892 	.data.w	.LDW_5da74b8
000000cc 00         1893 	.data.b	0
                    1894 
000000cd 00         1895 	.data.b	0
                    1896 
                    1897 .LDW_4b1d488:
000000ce 47         1898 	.data.b	71
000000cf 01         1899 	.data.b	1
                    1900 
000000d0 00         1901 	.data.b	0

                                                                      Page 54
                                                              C:\Users\Fengyuan\AppData\Local\Temp\gh_00006b81.s
                    1902 
                    1903 .LDW_4b1d4f8:
000000d1 47         1904 	.data.b	71
000000d2 01         1905 	.data.b	1
                    1906 
000000d3 00         1907 	.data.b	0
                    1908 
                    1909 .LDW_4b1d530:
000000d4 47         1910 	.data.b	71
000000d5 01         1911 	.data.b	1
                    1912 
000000d6 00         1913 	.data.b	0
                    1914 
                    1915 .LDW_4b1d648:
000000d7 46         1916 	.data.b	70
000000d8 00000000*  1917 	.data.w	.LDW_5f2cf80
000000dc 01         1918 	.data.b	1
                    1919 
                    1920 .LDW_5da5f58:
000000dd 14         1921 	.data.b	20
000000de 00000000*  1922 	.data.w	.LDW_4b3be80
000000e2 00         1923 	.data.b	0
                    1924 
                    1925 .LDW_5da5f88:
000000e3 14         1926 	.data.b	20
000000e4 00000000*  1927 	.data.w	.LDW_5da7408
000000e8 00         1928 	.data.b	0
                    1929 
000000e9 00         1930 	.data.b	0
                    1931 
                    1932 .LDW_4b1d6b8:
000000ea 31         1933 	.data.b	49
000000eb 00000000*  1934 	.data.w	.LDW_4b3be80
                    1935 
                    1936 	.section	.debug_abbrev
0000003b 31         1937 	.data.b	49
0000003c 0f         1938 	.data.b	15
0000003d 00         1939 	.data.b	0
0000003e 1049       1940 	.data.b	73,16
00000040 0000       1941 	.data.b	0,0
                    1942 
                    1943 	.section	.debug_info
                    1944 .LDW_4b1d878:
000000ef 31         1945 	.data.b	49
000000f0 00000000*  1946 	.data.w	.LDW_5da7408
                    1947 
                    1948 .LDW_4b1d680:
000000f4 46         1949 	.data.b	70
000000f5 00000000*  1950 	.data.w	.LDW_5f2cf80
000000f9 01         1951 	.data.b	1
                    1952 
                    1953 .LDW_5da6138:
000000fa 14         1954 	.data.b	20
000000fb 00000000*  1955 	.data.w	.LDW_4b1d6b8
000000ff 00         1956 	.data.b	0
                    1957 
                    1958 .LDW_5da6108:
00000100 14         1959 	.data.b	20
00000101 00000000*  1960 	.data.w	.LDW_4b1d878
00000105 00         1961 	.data.b	0
                    1962 

                                                                      Page 55
                                                              C:\Users\Fengyuan\AppData\Local\Temp\gh_00006b81.s
00000106 00         1963 	.data.b	0
                    1964 
                    1965 .LDW_4b1d808:
00000107 46         1966 	.data.b	70
00000108 00000000*  1967 	.data.w	.LDW_5f2cf80
0000010c 01         1968 	.data.b	1
                    1969 
                    1970 .LDW_5da6378:
0000010d 14         1971 	.data.b	20
0000010e 00000000*  1972 	.data.w	.LDW_4b1d6b8
00000112 00         1973 	.data.b	0
                    1974 
                    1975 .LDW_5da6318:
00000113 14         1976 	.data.b	20
00000114 00000000*  1977 	.data.w	.LDW_4b1d878
00000118 00         1978 	.data.b	0
                    1979 
00000119 00         1980 	.data.b	0
                    1981 
                    1982 .LDW_4b1d840:
0000011a 46         1983 	.data.b	70
0000011b 00000000*  1984 	.data.w	.LDW_5f2cf80
0000011f 01         1985 	.data.b	1
                    1986 
                    1987 .LDW_5da6348:
00000120 14         1988 	.data.b	20
00000121 00000000*  1989 	.data.w	.LDW_4b3bd78
00000125 00         1990 	.data.b	0
                    1991 
00000126 00         1992 	.data.b	0
                    1993 
                    1994 .LDW_5da29f0:
00000127 31         1995 	.data.b	49
00000128 00000000*  1996 	.data.w	.LDW_4b3bd78
                    1997 
                    1998 .LDW_5da2f68:
0000012c 46         1999 	.data.b	70
0000012d 00000000*  2000 	.data.w	.LDW_5f2cf80
00000131 01         2001 	.data.b	1
                    2002 
                    2003 .LDW_5da6258:
00000132 14         2004 	.data.b	20
00000133 00000000*  2005 	.data.w	.LDW_5da29f0
00000137 00         2006 	.data.b	0
                    2007 
00000138 00         2008 	.data.b	0
                    2009 
                    2010 .LDW_5da28a0:
00000139 46         2011 	.data.b	70
0000013a 00000000*  2012 	.data.w	.LDW_5da74b8
0000013e 01         2013 	.data.b	1
                    2014 
0000013f 00         2015 	.data.b	0
                    2016 
                    2017 .LDW_5da2ad0:
00000140 47         2018 	.data.b	71
00000141 01         2019 	.data.b	1
                    2020 
                    2021 .LDW_5da62e8:
00000142 14         2022 	.data.b	20
00000143 00000000*  2023 	.data.w	.LDW_5da74b8

                                                                      Page 56
                                                              C:\Users\Fengyuan\AppData\Local\Temp\gh_00006b81.s
00000147 00         2024 	.data.b	0
                    2025 
00000148 00         2026 	.data.b	0
                    2027 
                    2028 .LDW_5da2948:
00000149 47         2029 	.data.b	71
0000014a 01         2030 	.data.b	1
                    2031 
                    2032 .LDW_5e8cd10:
0000014b 14         2033 	.data.b	20
0000014c 00000000*  2034 	.data.w	.LDW_5da74b8
00000150 00         2035 	.data.b	0
                    2036 
00000151 00         2037 	.data.b	0
                    2038 
                    2039 .LDW_5da2b08:
00000152 46         2040 	.data.b	70
00000153 00000000*  2041 	.data.w	.LDW_5da74b8
00000157 01         2042 	.data.b	1
                    2043 
00000158 00         2044 	.data.b	0
                    2045 
                    2046 .LDW_5da2a28:
00000159 46         2047 	.data.b	70
0000015a 00000000*  2048 	.data.w	.LDW_5da74b8
0000015e 01         2049 	.data.b	1
                    2050 
0000015f 00         2051 	.data.b	0
                    2052 
                    2053 .LDW_5da2be8:
00000160 31         2054 	.data.b	49
00000161 00000000*  2055 	.data.w	.LDW_5da33d0
                    2056 
                    2057 .LDW_5da2c58:
00000165 46         2058 	.data.b	70
00000166 00000000*  2059 	.data.w	.LDW_5f2cf80
0000016a 01         2060 	.data.b	1
                    2061 
                    2062 .LDW_5e8d100:
0000016b 14         2063 	.data.b	20
0000016c 00000000*  2064 	.data.w	.LDW_5da2be8
00000170 00         2065 	.data.b	0
                    2066 
00000171 00         2067 	.data.b	0
                    2068 
                    2069 .LDW_5da2c90:
00000172 46         2070 	.data.b	70
00000173 00000000*  2071 	.data.w	.LDW_5f2cf80
00000177 01         2072 	.data.b	1
                    2073 
                    2074 .LDW_5e8cf80:
00000178 14         2075 	.data.b	20
00000179 00000000*  2076 	.data.w	.LDW_5da33d0
0000017d 00         2077 	.data.b	0
                    2078 
0000017e 00         2079 	.data.b	0
                    2080 
                    2081 .LDW_5da2ef8:
0000017f 47         2082 	.data.b	71
00000180 01         2083 	.data.b	1
                    2084 

                                                                      Page 57
                                                              C:\Users\Fengyuan\AppData\Local\Temp\gh_00006b81.s
00000181 00         2085 	.data.b	0
                    2086 
                    2087 .LDW_5da2e18:
00000182 47         2088 	.data.b	71
00000183 01         2089 	.data.b	1
                    2090 
                    2091 .LDW_5e8d160:
00000184 14         2092 	.data.b	20
00000185 00000000*  2093 	.data.w	.LDW_5da74b8
00000189 00         2094 	.data.b	0
                    2095 
0000018a 00         2096 	.data.b	0
                    2097 
                    2098 .LDW_5da2cc8:
0000018b 47         2099 	.data.b	71
0000018c 01         2100 	.data.b	1
                    2101 
                    2102 .LDW_5e8d220:
0000018d 14         2103 	.data.b	20
0000018e 00000000*  2104 	.data.w	.LDW_5da74b8
00000192 00         2105 	.data.b	0
                    2106 
00000193 00         2107 	.data.b	0
                    2108 
                    2109 .LDW_5da2a60:
00000194 46         2110 	.data.b	70
00000195 00000000*  2111 	.data.w	.LDW_5f2cf80
00000199 01         2112 	.data.b	1
                    2113 
0000019a 00         2114 	.data.b	0
                    2115 
                    2116 .LDW_5da2de0:
0000019b 46         2117 	.data.b	70
0000019c 00000000*  2118 	.data.w	.LDW_5f2cf80
000001a0 01         2119 	.data.b	1
                    2120 
000001a1 00         2121 	.data.b	0
                    2122 
                    2123 .LDW_5da2e88:
000001a2 46         2124 	.data.b	70
000001a3 00000000*  2125 	.data.w	.LDW_5f2cf80
000001a7 01         2126 	.data.b	1
                    2127 
000001a8 00         2128 	.data.b	0
                    2129 
                    2130 .LDW_5da2f30:
000001a9 27         2131 	.data.b	39
000001aa 69736e75   2132 	.data.b	117,110,115,105,103,110,101,100,32,115,104,111,114,116,0
000001ae 64656e67 
000001b2 6f687320 
000001b6 007472 
000001b9 07         2133 	.data.b	7
000001ba 02         2134 	.data.b	2
                    2135 
                    2136 .LDW_5da2bb0:
000001bb 46         2137 	.data.b	70
000001bc 00000000*  2138 	.data.w	.LDW_5f2cf80
000001c0 01         2139 	.data.b	1
                    2140 
                    2141 .LDW_5e8cf50:
000001c1 14         2142 	.data.b	20

                                                                      Page 58
                                                              C:\Users\Fengyuan\AppData\Local\Temp\gh_00006b81.s
000001c2 00000000*  2143 	.data.w	.LDW_5da3798
000001c6 00         2144 	.data.b	0
                    2145 
000001c7 00         2146 	.data.b	0
                    2147 
                    2148 .LDW_5da28d8:
000001c8 27         2149 	.data.b	39
000001c9 00746e69   2150 	.data.b	105,110,116,0
000001cd 05         2151 	.data.b	5
000001ce 04         2152 	.data.b	4
                    2153 
                    2154 .LDW_5da2910:
000001cf 27         2155 	.data.b	39
000001d0 69736e75   2156 	.data.b	117,110,115,105,103,110,101,100,32,105,110,116,0
000001d4 64656e67 
000001d8 746e6920 
000001dc 00 
000001dd 07         2157 	.data.b	7
000001de 04         2158 	.data.b	4
                    2159 
                    2160 .LDW_5da2e50:
000001df 47         2161 	.data.b	71
000001e0 01         2162 	.data.b	1
                    2163 
000001e1 00         2164 	.data.b	0
                    2165 
                    2166 .LDW_5da29b8:
000001e2 31         2167 	.data.b	49
000001e3 00000000*  2168 	.data.w	.LDW_5da2e50
                    2169 
                    2170 .LDW_6349788:
000001e7 2b         2171 	.data.b	43
000001e8 00000000*  2172 	.data.w	.LDW_6283460
                    2173 
                    2174 	.section	.debug_abbrev
00000042 2b         2175 	.data.b	43
00000043 26         2176 	.data.b	38
00000044 00         2177 	.data.b	0
00000045 1049       2178 	.data.b	73,16
00000047 0000       2179 	.data.b	0,0
                    2180 
                    2181 	.section	.debug_info
                    2182 .LDW_634f400:
000001ec 3c         2183 	.data.b	60
000001ed 00         2184 	.data.b	0
000001ee 04         2185 	.data.b	4
000001ef 00000000*  2186 	.data.w	.LDW_6349788
                    2187 
                    2188 	.section	.debug_abbrev
00000049 3c         2189 	.data.b	60
0000004a 01         2190 	.data.b	1
0000004b 01         2191 	.data.b	1
0000004c 0b09       2192 	.data.b	9,11
0000004e 0f0b       2193 	.data.b	11,15
00000050 1049       2194 	.data.b	73,16
00000052 0000       2195 	.data.b	0,0
                    2196 
                    2197 	.section	.debug_info
000001f3 34         2198 	.data.b	52
000001f4 00000000*  2199 	.data.w	.LDW_5da28d8
000001f8 04         2200 	.data.b	4

                                                                      Page 59
                                                              C:\Users\Fengyuan\AppData\Local\Temp\gh_00006b81.s
000001f9 00         2201 	.data.b	0
000001fa 00         2202 	.data.b	0
                    2203 
                    2204 	.section	.debug_abbrev
00000054 34         2205 	.data.b	52
00000055 21         2206 	.data.b	33
00000056 00         2207 	.data.b	0
00000057 1049       2208 	.data.b	73,16
00000059 0f0b       2209 	.data.b	11,15
0000005b 0d22       2210 	.data.b	34,13
0000005d 0d2f       2211 	.data.b	47,13
0000005f 0000       2212 	.data.b	0,0
                    2213 
                    2214 	.section	.debug_info
000001fb 00         2215 	.data.b	0
                    2216 
                    2217 .LDW_6349cb0:
000001fc 2b         2218 	.data.b	43
000001fd 00000000*  2219 	.data.w	.LDW_6283510
                    2220 
                    2221 .LDW_634f510:
00000201 3c         2222 	.data.b	60
00000202 00         2223 	.data.b	0
00000203 06         2224 	.data.b	6
00000204 00000000*  2225 	.data.w	.LDW_6349cb0
                    2226 
00000208 34         2227 	.data.b	52
00000209 00000000*  2228 	.data.w	.LDW_5da28d8
0000020d 04         2229 	.data.b	4
0000020e 00         2230 	.data.b	0
0000020f 05         2231 	.data.b	5
                    2232 
00000210 00         2233 	.data.b	0
                    2234 
                    2235 .LDW_635af48:
00000211 47         2236 	.data.b	71
00000212 01         2237 	.data.b	1
                    2238 
00000213 00         2239 	.data.b	0
                    2240 
                    2241 .LDW_635b1e8:
00000214 47         2242 	.data.b	71
00000215 01         2243 	.data.b	1
                    2244 
00000216 00         2245 	.data.b	0
                    2246 
                    2247 .LDW_6363f78:
00000217 46         2248 	.data.b	70
00000218 00000000*  2249 	.data.w	.LDW_5f2cf80
0000021c 01         2250 	.data.b	1
                    2251 
                    2252 .LDW_635e548:
0000021d 14         2253 	.data.b	20
0000021e 00000000*  2254 	.data.w	.LDW_5da3798
00000222 00         2255 	.data.b	0
                    2256 
                    2257 .LDW_635e7e8:
00000223 14         2258 	.data.b	20
00000224 00000000*  2259 	.data.w	.LDW_5da7408
00000228 00         2260 	.data.b	0
                    2261 

                                                                      Page 60
                                                              C:\Users\Fengyuan\AppData\Local\Temp\gh_00006b81.s
                    2262 .LDW_635e848:
00000229 14         2263 	.data.b	20
0000022a 00000000*  2264 	.data.w	.LDW_5da7408
0000022e 00         2265 	.data.b	0
                    2266 
                    2267 .LDW_635e6c8:
0000022f 14         2268 	.data.b	20
00000230 00000000*  2269 	.data.w	.LDW_5da7408
00000234 00         2270 	.data.b	0
                    2271 
00000235 00         2272 	.data.b	0
                    2273 
                    2274 .LDW_6363fe8:
00000236 47         2275 	.data.b	71
00000237 01         2276 	.data.b	1
                    2277 
00000238 00         2278 	.data.b	0
                    2279 
                    2280 .LDW_6364b48:
00000239 47         2281 	.data.b	71
0000023a 01         2282 	.data.b	1
                    2283 
                    2284 .LDW_6365480:
0000023b 14         2285 	.data.b	20
0000023c 00000000*  2286 	.data.w	.LDW_6284ca8
00000240 00         2287 	.data.b	0
                    2288 
00000241 00         2289 	.data.b	0
                    2290 
                    2291 .LDW_6364870:
00000242 47         2292 	.data.b	71
00000243 01         2293 	.data.b	1
                    2294 
                    2295 .LDW_63657b0:
00000244 14         2296 	.data.b	20
00000245 00000000*  2297 	.data.w	.LDW_5f2cf80
00000249 00         2298 	.data.b	0
                    2299 
0000024a 00         2300 	.data.b	0
                    2301 
                    2302 .LDW_6364790:
0000024b 47         2303 	.data.b	71
0000024c 01         2304 	.data.b	1
                    2305 
0000024d 00         2306 	.data.b	0
                    2307 
                    2308 .LDW_6364b80:
0000024e 47         2309 	.data.b	71
0000024f 01         2310 	.data.b	1
                    2311 
                    2312 .LDW_6365540:
00000250 14         2313 	.data.b	20
00000251 00000000*  2314 	.data.w	.LDW_62830f0
00000255 00         2315 	.data.b	0
                    2316 
00000256 00         2317 	.data.b	0
                    2318 
                    2319 .LDW_6364720:
00000257 47         2320 	.data.b	71
00000258 01         2321 	.data.b	1
                    2322 

                                                                      Page 61
                                                              C:\Users\Fengyuan\AppData\Local\Temp\gh_00006b81.s
00000259 00         2323 	.data.b	0
                    2324 
                    2325 .LDW_63648a8:
0000025a 47         2326 	.data.b	71
0000025b 01         2327 	.data.b	1
                    2328 
0000025c 00         2329 	.data.b	0
                    2330 
                    2331 .LDW_6364608:
0000025d 47         2332 	.data.b	71
0000025e 01         2333 	.data.b	1
                    2334 
0000025f 00         2335 	.data.b	0
                    2336 
                    2337 .LDW_6364ad8:
00000260 31         2338 	.data.b	49
00000261 00000000*  2339 	.data.w	.LDW_5da76f0
                    2340 
                    2341 .LDW_63649c0:
00000265 46         2342 	.data.b	70
00000266 00000000*  2343 	.data.w	.LDW_5f2cf80
0000026a 01         2344 	.data.b	1
                    2345 
                    2346 .LDW_6365630:
0000026b 14         2347 	.data.b	20
0000026c 00000000*  2348 	.data.w	.LDW_6364ad8
00000270 00         2349 	.data.b	0
                    2350 
00000271 00         2351 	.data.b	0
                    2352 
                    2353 .LDW_6368c40:
00000272 47         2354 	.data.b	71
00000273 01         2355 	.data.b	1
                    2356 
                    2357 .LDW_6365c30:
00000274 14         2358 	.data.b	20
00000275 00000000*  2359 	.data.w	.LDW_4b4e9a8
00000279 00         2360 	.data.b	0
                    2361 
0000027a 00         2362 	.data.b	0
                    2363 
                    2364 .LDW_636da60:
0000027b 47         2365 	.data.b	71
0000027c 01         2366 	.data.b	1
                    2367 
                    2368 .LDW_636f420:
0000027d 14         2369 	.data.b	20
0000027e 00000000*  2370 	.data.w	.LDW_5da74b8
00000282 00         2371 	.data.b	0
                    2372 
                    2373 .LDW_636f120:
00000283 14         2374 	.data.b	20
00000284 00000000*  2375 	.data.w	.LDW_6283408
00000288 00         2376 	.data.b	0
                    2377 
00000289 00         2378 	.data.b	0
                    2379 
                    2380 .LDW_6351640:
0000028a 2b         2381 	.data.b	43
0000028b 00000000*  2382 	.data.w	.LDW_63499f0
                    2383 

                                                                      Page 62
                                                              C:\Users\Fengyuan\AppData\Local\Temp\gh_00006b81.s
                    2384 .LDW_636c1a8:
0000028f 31         2385 	.data.b	49
00000290 00000000*  2386 	.data.w	.LDW_6351640
                    2387 
                    2388 .LDW_636c410:
00000294 47         2389 	.data.b	71
00000295 01         2390 	.data.b	1
                    2391 
                    2392 .LDW_636f480:
00000296 14         2393 	.data.b	20
00000297 00000000*  2394 	.data.w	.LDW_636c1a8
0000029b 00         2395 	.data.b	0
                    2396 
0000029c 00         2397 	.data.b	0
                    2398 
                    2399 .LDW_636be98:
0000029d 47         2400 	.data.b	71
0000029e 01         2401 	.data.b	1
                    2402 
0000029f 00         2403 	.data.b	0
                    2404 
                    2405 .LDW_636c3a0:
000002a0 47         2406 	.data.b	71
000002a1 01         2407 	.data.b	1
                    2408 
000002a2 00         2409 	.data.b	0
                    2410 
                    2411 .LDW_636c3d8:
000002a3 47         2412 	.data.b	71
000002a4 01         2413 	.data.b	1
                    2414 
000002a5 00         2415 	.data.b	0
                    2416 
                    2417 .LDW_5da7408:
000002a6 2a         2418 	.data.b	42
000002a7 746e6975   2419 	.data.b	117,105,110,116,56,0
000002ab 0038 
000002ad 7d         2420 	.data.b	125
000002ae 1d         2421 	.data.b	29
000002af 09         2422 	.data.b	9
000002b0 00000000*  2423 	.data.w	.LDW_4b1d5a0
                    2424 
                    2425 	.section	.debug_abbrev
00000061 2a         2426 	.data.b	42
00000062 16         2427 	.data.b	22
00000063 00         2428 	.data.b	0
00000064 0803       2429 	.data.b	3,8
00000066 0f3b       2430 	.data.b	59,15
00000068 0f39       2431 	.data.b	57,15
0000006a 0f3a       2432 	.data.b	58,15
0000006c 1049       2433 	.data.b	73,16
0000006e 0000       2434 	.data.b	0,0
                    2435 
                    2436 	.section	.debug_info
                    2437 .LDW_5da3798:
000002b4 2a         2438 	.data.b	42
000002b5 746e6975   2439 	.data.b	117,105,110,116,49,54,0
000002b9 003631 
000002bc 7f         2440 	.data.b	127
000002bd 1d         2441 	.data.b	29
000002be 09         2442 	.data.b	9

                                                                      Page 63
                                                              C:\Users\Fengyuan\AppData\Local\Temp\gh_00006b81.s
000002bf 00000000*  2443 	.data.w	.LDW_5da2f30
                    2444 
                    2445 .LDW_5da7460:
000002c3 2a         2446 	.data.b	42
000002c4 746e6975   2447 	.data.b	117,105,110,116,51,50,0
000002c8 003233 
000002cb 0181       2448 	.data.b	129,1
000002cd 1d         2449 	.data.b	29
000002ce 09         2450 	.data.b	9
000002cf 00000000*  2451 	.data.w	.LDW_4b1d220
                    2452 
                    2453 .LDW_5da77a0:
000002d3 2a         2454 	.data.b	42
000002d4 746e6975   2455 	.data.b	117,105,110,116,56,95,108,101,97,115,116,0
000002d8 656c5f38 
000002dc 00747361 
000002e0 0185       2456 	.data.b	133,1
000002e2 1d         2457 	.data.b	29
000002e3 09         2458 	.data.b	9
000002e4 00000000*  2459 	.data.w	.LDW_4b1d220
                    2460 
                    2461 .LDW_5f2cf80:
000002e8 2a         2462 	.data.b	42
000002e9 5f647453   2463 	.data.b	83,116,100,95,82,101,116,117,114,110,84,121,112,101,0
000002ed 75746552 
000002f1 79546e72 
000002f5 006570 
000002f8 0184       2464 	.data.b	132,1
000002fa 0f         2465 	.data.b	15
000002fb 08         2466 	.data.b	8
000002fc 00000000*  2467 	.data.w	.LDW_5da7408
                    2468 
                    2469 .LDW_4b4e9a8:
00000300 2a         2470 	.data.b	42
00000301 7774654e   2471 	.data.b	78,101,116,119,111,114,107,72,97,110,100,108,101,84,121,112,101,0
00000305 486b726f 
00000309 6c646e61 
0000030d 70795465 
00000311 0065 
00000313 01d5       2472 	.data.b	213,1
00000315 16         2473 	.data.b	22
00000316 11         2474 	.data.b	17
00000317 00000000*  2475 	.data.w	.LDW_5da7408
                    2476 
                    2477 .LDW_5da33d0:
0000031b 2a         2478 	.data.b	42
0000031c 4d756345   2479 	.data.b	69,99,117,77,95,66,111,111,116,84,97,114,103,101,116,84,121,112,101,0
00000320 6f6f425f 
00000324 72615474 
00000328 54746567 
0000032c 00657079 
00000330 019d       2480 	.data.b	157,1
00000332 0f         2481 	.data.b	15
00000333 06         2482 	.data.b	6
00000334 00000000*  2483 	.data.w	.LDW_5da7408
                    2484 
                    2485 .LDW_6283e58:
00000338 2a         2486 	.data.b	42
00000339 4d756345   2487 	.data.b	69,99,117,77,95,77,111,100,101,84,121,112,101,0
0000033d 646f4d5f 
00000341 70795465 

                                                                      Page 64
                                                              C:\Users\Fengyuan\AppData\Local\Temp\gh_00006b81.s
00000345 0065 
00000347 01a0       2488 	.data.b	160,1
00000349 0f         2489 	.data.b	15
0000034a 06         2490 	.data.b	6
0000034b 00000000*  2491 	.data.w	.LDW_5da7408
                    2492 
                    2493 .LDW_4b3bd78:
0000034f 2a         2494 	.data.b	42
00000350 4d756345   2495 	.data.b	69,99,117,77,95,83,104,117,116,100,111,119,110,67,97,117,115,101,84,121,112,101,0
00000354 7568535f 
00000358 776f6474 
0000035c 7561436e 
00000360 79546573 
00000364 006570 
00000367 01a3       2496 	.data.b	163,1
00000369 0f         2497 	.data.b	15
0000036a 06         2498 	.data.b	6
0000036b 00000000*  2499 	.data.w	.LDW_5da7408
                    2500 
                    2501 .LDW_4b3be80:
0000036f 2a         2502 	.data.b	42
00000370 4d756345   2503 	.data.b	69,99,117,77,95,83,116,97,116,101,84,121,112,101,0
00000374 6174535f 
00000378 79546574 
0000037c 006570 
0000037f 01a6       2504 	.data.b	166,1
00000381 0f         2505 	.data.b	15
00000382 06         2506 	.data.b	6
00000383 00000000*  2507 	.data.w	.LDW_5da7408
                    2508 
                    2509 .LDW_5da74b8:
00000387 2a         2510 	.data.b	42
00000388 4d756345   2511 	.data.b	69,99,117,77,95,87,97,107,101,117,112,83,111,117,114,99,101,84,121,112,101,0
0000038c 6b61575f 
00000390 53707565 
00000394 6372756f 
00000398 70795465 
0000039c 0065 
0000039e 2e         2512 	.data.b	46
0000039f 11         2513 	.data.b	17
000003a0 04         2514 	.data.b	4
000003a1 00000000*  2515 	.data.w	.LDW_5da7460
                    2516 
                    2517 .LDW_6283408:
000003a5 2a         2518 	.data.b	42
000003a6 4d756345   2519 	.data.b	69,99,117,77,95,87,97,107,101,117,112,83,116,97,116,101,84,121,112,101,0
000003aa 6b61575f 
000003ae 53707565 
000003b2 65746174 
000003b6 65707954 
000003ba 00 
000003bb 5f         2520 	.data.b	95
000003bc 0f         2521 	.data.b	15
000003bd 04         2522 	.data.b	4
000003be 00000000*  2523 	.data.w	.LDW_5da7408
                    2524 
                    2525 .LDW_62830f0:
000003c2 2a         2526 	.data.b	42
000003c3 4d756345   2527 	.data.b	69,99,117,77,95,82,101,115,101,116,84,121,112,101,0
000003c7 7365525f 
000003cb 79547465 

                                                                      Page 65
                                                              C:\Users\Fengyuan\AppData\Local\Temp\gh_00006b81.s
000003cf 006570 
000003d2 74         2528 	.data.b	116
000003d3 17         2529 	.data.b	23
000003d4 04         2530 	.data.b	4
000003d5 00000000*  2531 	.data.w	.LDW_6283e58
                    2532 
                    2533 .LDW_62838d8:
000003d9 2a         2534 	.data.b	42
000003da 4d756345   2535 	.data.b	69,99,117,77,95,68,114,105,118,101,114,70,117,110,99,84,121,112,101,0
000003de 6972445f 
000003e2 46726576 
000003e6 54636e75 
000003ea 00657079 
000003ee 02bd       2536 	.data.b	189,2
000003f0 09         2537 	.data.b	9
000003f1 14         2538 	.data.b	20
000003f2 00000000*  2539 	.data.w	.LDW_5da29b8
                    2540 
                    2541 .LDW_6283300:
000003f6 2a         2542 	.data.b	42
000003f7 4d756345   2543 	.data.b	69,99,117,77,95,67,104,97,110,110,101,108,79,102,87,97,107,101,117,112,83,111,117,114,99,101,76,105,115,116,84,121,112,101,0
000003fb 6168435f 
000003ff 6c656e6e 
00000403 6157664f 
00000407 7075656b 
0000040b 72756f53 
0000040f 694c6563 
00000413 79547473 
00000417 006570 
0000041a 02f8       2544 	.data.b	248,2
0000041c 0f         2545 	.data.b	15
0000041d 14         2546 	.data.b	20
0000041e 00000000*  2547 	.data.w	.LDW_5da7408
                    2548 
                    2549 .LDW_6283358:
00000422 42         2550 	.data.b	66
00000423 75634573   2551 	.data.b	115,69,99,117,77,95,68,114,105,118,101,114,73,110,105,116,79,110,101,84,121,112,101,0
00000427 72445f4d 
0000042b 72657669 
0000042f 74696e49 
00000433 54656e4f 
00000437 00657079 
0000043b 0384       2552 	.data.b	132,3
0000043d 10         2553 	.data.b	16
0000043e 14         2554 	.data.b	20
0000043f 04         2555 	.data.b	4
00000440 01         2556 	.data.b	1
                    2557 
                    2558 	.section	.debug_abbrev
00000070 42         2559 	.data.b	66
00000071 13         2560 	.data.b	19
00000072 01         2561 	.data.b	1
00000073 0803       2562 	.data.b	3,8
00000075 0f3b       2563 	.data.b	59,15
00000077 0f39       2564 	.data.b	57,15
00000079 0f3a       2565 	.data.b	58,15
0000007b 0f0b       2566 	.data.b	11,15
0000007d 0b32       2567 	.data.b	50,11
0000007f 0000       2568 	.data.b	0,0
                    2569 
                    2570 	.section	.debug_info

                                                                      Page 66
                                                              C:\Users\Fengyuan\AppData\Local\Temp\gh_00006b81.s
                    2571 .LDW_5e8b648:
00000441 25         2572 	.data.b	37
00000442 636e7546   2573 	.data.b	70,117,110,99,116,105,111,110,79,102,68,114,105,118,101,114,73,110,105,116,79,110,101,0
00000446 6e6f6974 
0000044a 7244664f 
0000044e 72657669 
00000452 74696e49 
00000456 00656e4f 
0000045a 0386       2574 	.data.b	134,3
0000045c 17         2575 	.data.b	23
0000045d 14         2576 	.data.b	20
0000045e 00000000*  2577 	.data.w	.LDW_62838d8
00000462 2302       2578 	.data.b	2,35
00000464 00         2579 	.data.b	0
00000465 01         2580 	.data.b	1
                    2581 
                    2582 	.section	.debug_abbrev
00000081 25         2583 	.data.b	37
00000082 0d         2584 	.data.b	13
00000083 00         2585 	.data.b	0
00000084 0803       2586 	.data.b	3,8
00000086 0f3b       2587 	.data.b	59,15
00000088 0f39       2588 	.data.b	57,15
0000008a 0f3a       2589 	.data.b	58,15
0000008c 1049       2590 	.data.b	73,16
0000008e 0a38       2591 	.data.b	56,10
00000090 0b32       2592 	.data.b	50,11
00000092 0000       2593 	.data.b	0,0
                    2594 
                    2595 	.section	.debug_info
00000466 00         2596 	.data.b	0
                    2597 
                    2598 .LDW_6283460:
00000467 2a         2599 	.data.b	42
00000468 4d756345   2600 	.data.b	69,99,117,77,95,68,114,105,118,101,114,73,110,105,116,79,110,101,84,121,112,101,0
0000046c 6972445f 
00000470 49726576 
00000474 4f74696e 
00000478 7954656e 
0000047c 006570 
0000047f 0387       2601 	.data.b	135,3
00000481 03         2602 	.data.b	3
00000482 14         2603 	.data.b	20
00000483 00000000*  2604 	.data.w	.LDW_6283358
                    2605 
                    2606 .LDW_62834b8:
00000487 42         2607 	.data.b	66
00000488 75634573   2608 	.data.b	115,69,99,117,77,95,87,97,107,101,117,112,83,111,117,114,99,101,76,105,115,116,84,121,112,101,0
0000048c 61575f4d 
00000490 7075656b 
00000494 72756f53 
00000498 694c6563 
0000049c 79547473 
000004a0 006570 
000004a3 038a       2609 	.data.b	138,3
000004a5 10         2610 	.data.b	16
000004a6 14         2611 	.data.b	20
000004a7 01         2612 	.data.b	1
000004a8 01         2613 	.data.b	1
                    2614 
                    2615 .LDW_5e8bb10:

                                                                      Page 67
                                                              C:\Users\Fengyuan\AppData\Local\Temp\gh_00006b81.s
000004a9 25         2616 	.data.b	37
000004aa 6e616843   2617 	.data.b	67,104,97,110,110,101,108,79,102,87,97,107,101,117,112,83,111,117,114,99,101,76,105,115,116,0
000004ae 4f6c656e 
000004b2 6b615766 
000004b6 53707565 
000004ba 6372756f 
000004be 73694c65 
000004c2 0074 
000004c4 038c       2618 	.data.b	140,3
000004c6 26         2619 	.data.b	38
000004c7 14         2620 	.data.b	20
000004c8 00000000*  2621 	.data.w	.LDW_6283300
000004cc 2302       2622 	.data.b	2,35
000004ce 00         2623 	.data.b	0
000004cf 01         2624 	.data.b	1
                    2625 
000004d0 00         2626 	.data.b	0
                    2627 
                    2628 .LDW_6283510:
000004d1 2a         2629 	.data.b	42
000004d2 4d756345   2630 	.data.b	69,99,117,77,95,87,97,107,101,117,112,83,111,117,114,99,101,76,105,115,116,84,121,112,101,0
000004d6 6b61575f 
000004da 53707565 
000004de 6372756f 
000004e2 73694c65 
000004e6 70795474 
000004ea 0065 
000004ec 038d       2631 	.data.b	141,3
000004ee 03         2632 	.data.b	3
000004ef 14         2633 	.data.b	20
000004f0 00000000*  2634 	.data.w	.LDW_62834b8
                    2635 
                    2636 .LDW_6283828:
000004f4 30         2637 	.data.b	48
000004f5 00         2638 	.data.b	0
000004f6 6c         2639 	.data.b	108
000004f7 01         2640 	.data.b	1
000004f8 1f         2641 	.data.b	31
000004f9 04         2642 	.data.b	4
000004fa 01         2643 	.data.b	1
                    2644 
                    2645 	.section	.debug_abbrev
00000094 30         2646 	.data.b	48
00000095 04         2647 	.data.b	4
00000096 01         2648 	.data.b	1
00000097 0803       2649 	.data.b	3,8
00000099 0f3b       2650 	.data.b	59,15
0000009b 0f39       2651 	.data.b	57,15
0000009d 0f3a       2652 	.data.b	58,15
0000009f 0f0b       2653 	.data.b	11,15
000000a1 0b32       2654 	.data.b	50,11
000000a3 0000       2655 	.data.b	0,0
                    2656 
                    2657 	.section	.debug_info
                    2658 .LDW_5e8e4f0:
000004fb 2f         2659 	.data.b	47
000004fc 74737953   2660 	.data.b	83,121,115,116,101,109,65,112,112,108,105,99,97,116,105,111,110,95,79,115,67,111,114,101,48,0
00000500 70416d65 
00000504 63696c70 
00000508 6f697461 
0000050c 734f5f6e 

                                                                      Page 68
                                                              C:\Users\Fengyuan\AppData\Local\Temp\gh_00006b81.s
00000510 65726f43 
00000514 0030 
00000516 6d         2661 	.data.b	109
00000517 03         2662 	.data.b	3
00000518 1f         2663 	.data.b	31
00000519 00         2664 	.data.b	0
                    2665 
                    2666 	.section	.debug_abbrev
000000a5 2f         2667 	.data.b	47
000000a6 28         2668 	.data.b	40
000000a7 00         2669 	.data.b	0
000000a8 0803       2670 	.data.b	3,8
000000aa 0f3b       2671 	.data.b	59,15
000000ac 0f39       2672 	.data.b	57,15
000000ae 0f3a       2673 	.data.b	58,15
000000b0 0d1c       2674 	.data.b	28,13
000000b2 0000       2675 	.data.b	0,0
                    2676 
                    2677 	.section	.debug_info
                    2678 .LDW_5e8ebd8:
0000051a 2f         2679 	.data.b	47
0000051b 415f534f   2680 	.data.b	79,83,95,65,80,80,73,68,95,67,79,85,78,84,0
0000051f 44495050 
00000523 554f435f 
00000527 00544e 
0000052a 6e         2681 	.data.b	110
0000052b 03         2682 	.data.b	3
0000052c 1f         2683 	.data.b	31
0000052d 01         2684 	.data.b	1
                    2685 
                    2686 .LDW_5e8ec58:
0000052e 2f         2687 	.data.b	47
0000052f 41564e49   2688 	.data.b	73,78,86,65,76,73,68,95,79,83,65,80,80,76,73,67,65,84,73,79,78,0
00000533 5f44494c 
00000537 5041534f 
0000053b 43494c50 
0000053f 4f495441 
00000543 004e 
00000545 6f         2689 	.data.b	111
00000546 03         2690 	.data.b	3
00000547 1f         2691 	.data.b	31
00000548 01         2692 	.data.b	1
                    2693 
00000549 00         2694 	.data.b	0
                    2695 
                    2696 .LDW_6284620:
0000054a 2a         2697 	.data.b	42
0000054b 6c707041   2698 	.data.b	65,112,112,108,105,99,97,116,105,111,110,84,121,112,101,0
0000054f 74616369 
00000553 546e6f69 
00000557 00657079 
0000055b 70         2699 	.data.b	112
0000055c 03         2700 	.data.b	3
0000055d 1f         2701 	.data.b	31
0000055e 00000000*  2702 	.data.w	.LDW_6283828
                    2703 
                    2704 .LDW_6284780:
00000562 30         2705 	.data.b	48
00000563 00         2706 	.data.b	0
00000564 0186       2707 	.data.b	134,1
00000566 01         2708 	.data.b	1

                                                                      Page 69
                                                              C:\Users\Fengyuan\AppData\Local\Temp\gh_00006b81.s
00000567 1f         2709 	.data.b	31
00000568 04         2710 	.data.b	4
00000569 01         2711 	.data.b	1
                    2712 
                    2713 .LDW_5e8eb58:
0000056a 2f         2714 	.data.b	47
0000056b 61666544   2715 	.data.b	68,101,102,97,117,108,116,95,73,110,105,116,95,84,97,115,107,0
0000056f 5f746c75 
00000573 74696e49 
00000577 7361545f 
0000057b 006b 
0000057d 0187       2716 	.data.b	135,1
0000057f 03         2717 	.data.b	3
00000580 1f         2718 	.data.b	31
00000581 00         2719 	.data.b	0
                    2720 
                    2721 .LDW_5e8ec18:
00000582 2f         2722 	.data.b	47
00000583 656c6449   2723 	.data.b	73,100,108,101,84,97,115,107,95,79,115,67,111,114,101,48,0
00000587 6b736154 
0000058b 43734f5f 
0000058f 3065726f 
00000593 00 
00000594 0188       2724 	.data.b	136,1
00000596 03         2725 	.data.b	3
00000597 1f         2726 	.data.b	31
00000598 01         2727 	.data.b	1
                    2728 
                    2729 .LDW_5e8e718:
00000599 2f         2730 	.data.b	47
0000059a 6154734f   2731 	.data.b	79,115,84,97,115,107,95,65,80,80,0
0000059e 415f6b73 
000005a2 005050 
000005a5 0189       2732 	.data.b	137,1
000005a7 03         2733 	.data.b	3
000005a8 1f         2734 	.data.b	31
000005a9 02         2735 	.data.b	2
                    2736 
                    2737 .LDW_5e8ec98:
000005aa 2f         2738 	.data.b	47
000005ab 6154734f   2739 	.data.b	79,115,84,97,115,107,95,66,83,87,95,83,67,72,77,0
000005af 425f6b73 
000005b3 535f5753 
000005b7 004d4843 
000005bb 018a       2740 	.data.b	138,1
000005bd 03         2741 	.data.b	3
000005be 1f         2742 	.data.b	31
000005bf 03         2743 	.data.b	3
                    2744 
                    2745 .LDW_5e8e798:
000005c0 2f         2746 	.data.b	47
000005c1 545f534f   2747 	.data.b	79,83,95,84,65,83,75,73,68,95,67,79,85,78,84,0
000005c5 494b5341 
000005c9 4f435f44 
000005cd 00544e55 
000005d1 018b       2748 	.data.b	139,1
000005d3 03         2749 	.data.b	3
000005d4 1f         2750 	.data.b	31
000005d5 04         2751 	.data.b	4
                    2752 
                    2753 .LDW_5e8e818:

                                                                      Page 70
                                                              C:\Users\Fengyuan\AppData\Local\Temp\gh_00006b81.s
000005d6 2f         2754 	.data.b	47
000005d7 41564e49   2755 	.data.b	73,78,86,65,76,73,68,95,84,65,83,75,0
000005db 5f44494c 
000005df 4b534154 
000005e3 00 
000005e4 018c       2756 	.data.b	140,1
000005e6 03         2757 	.data.b	3
000005e7 1f         2758 	.data.b	31
000005e8 04         2759 	.data.b	4
                    2760 
000005e9 00         2761 	.data.b	0
                    2762 
                    2763 .LDW_62840a0:
000005ea 2a         2764 	.data.b	42
000005eb 6b736154   2765 	.data.b	84,97,115,107,84,121,112,101,0
000005ef 65707954 
000005f3 00 
000005f4 018d       2766 	.data.b	141,1
000005f6 03         2767 	.data.b	3
000005f7 1f         2768 	.data.b	31
000005f8 00000000*  2769 	.data.w	.LDW_6284780
                    2770 
                    2771 .LDW_6284518:
000005fc 30         2772 	.data.b	48
000005fd 00         2773 	.data.b	0
000005fe 0191       2774 	.data.b	145,1
00000600 01         2775 	.data.b	1
00000601 1f         2776 	.data.b	31
00000602 04         2777 	.data.b	4
00000603 01         2778 	.data.b	1
                    2779 
                    2780 .LDW_5e8e898:
00000604 2f         2781 	.data.b	47
00000605 496e6143   2782 	.data.b	67,97,110,73,115,114,95,48,95,66,117,115,79,102,102,0
00000609 305f7273 
0000060d 7375425f 
00000611 0066664f 
00000615 0192       2783 	.data.b	146,1
00000617 03         2784 	.data.b	3
00000618 1f         2785 	.data.b	31
00000619 00         2786 	.data.b	0
                    2787 
                    2788 .LDW_5e8e958:
0000061a 2f         2789 	.data.b	47
0000061b 496e6143   2790 	.data.b	67,97,110,73,115,114,95,48,95,77,66,48,48,84,111,49,53,0
0000061f 305f7273 
00000623 30424d5f 
00000627 316f5430 
0000062b 0035 
0000062d 0193       2791 	.data.b	147,1
0000062f 03         2792 	.data.b	3
00000630 1f         2793 	.data.b	31
00000631 01         2794 	.data.b	1
                    2795 
                    2796 .LDW_5e8e8d8:
00000632 2f         2797 	.data.b	47
00000633 496e6143   2798 	.data.b	67,97,110,73,115,114,95,48,95,77,66,49,54,84,111,51,49,0
00000637 305f7273 
0000063b 31424d5f 
0000063f 336f5436 
00000643 0031 

                                                                      Page 71
                                                              C:\Users\Fengyuan\AppData\Local\Temp\gh_00006b81.s
00000645 0194       2799 	.data.b	148,1
00000647 03         2800 	.data.b	3
00000648 1f         2801 	.data.b	31
00000649 02         2802 	.data.b	2
                    2803 
                    2804 .LDW_5e8e858:
0000064a 2f         2805 	.data.b	47
0000064b 6e756f43   2806 	.data.b	67,111,117,110,116,101,114,73,115,114,95,83,121,115,116,101,109,84,105,109,101,114,0
0000064f 49726574 
00000653 535f7273 
00000657 65747379 
0000065b 6d69546d 
0000065f 007265 
00000662 0195       2807 	.data.b	149,1
00000664 03         2808 	.data.b	3
00000665 1f         2809 	.data.b	31
00000666 03         2810 	.data.b	3
                    2811 
                    2812 .LDW_5e8e9d8:
00000667 2f         2813 	.data.b	47
00000668 495f534f   2814 	.data.b	79,83,95,73,83,82,73,68,95,67,79,85,78,84,0
0000066c 44495253 
00000670 554f435f 
00000674 00544e 
00000677 0196       2815 	.data.b	150,1
00000679 03         2816 	.data.b	3
0000067a 1f         2817 	.data.b	31
0000067b 04         2818 	.data.b	4
                    2819 
                    2820 .LDW_5e8e758:
0000067c 2f         2821 	.data.b	47
0000067d 41564e49   2822 	.data.b	73,78,86,65,76,73,68,95,73,83,82,0
00000681 5f44494c 
00000685 00525349 
00000689 0197       2823 	.data.b	151,1
0000068b 03         2824 	.data.b	3
0000068c 1f         2825 	.data.b	31
0000068d 04         2826 	.data.b	4
                    2827 
0000068e 00         2828 	.data.b	0
                    2829 
                    2830 .LDW_6284938:
0000068f 2a         2831 	.data.b	42
00000690 54525349   2832 	.data.b	73,83,82,84,121,112,101,0
00000694 00657079 
00000698 0198       2833 	.data.b	152,1
0000069a 03         2834 	.data.b	3
0000069b 1f         2835 	.data.b	31
0000069c 00000000*  2836 	.data.w	.LDW_6284518
                    2837 
                    2838 .LDW_6284a40:
000006a0 30         2839 	.data.b	48
000006a1 00         2840 	.data.b	0
000006a2 01bb       2841 	.data.b	187,1
000006a4 01         2842 	.data.b	1
000006a5 1f         2843 	.data.b	31
000006a6 04         2844 	.data.b	4
000006a7 01         2845 	.data.b	1
                    2846 
                    2847 .LDW_5e8e698:
000006a8 2f         2848 	.data.b	47

                                                                      Page 72
                                                              C:\Users\Fengyuan\AppData\Local\Temp\gh_00006b81.s
000006a9 535f534f   2849 	.data.b	79,83,95,83,80,73,78,76,79,67,75,73,68,95,67,79,85,78,84,0
000006ad 4c4e4950 
000006b1 494b434f 
000006b5 4f435f44 
000006b9 00544e55 
000006bd 01bc       2850 	.data.b	188,1
000006bf 03         2851 	.data.b	3
000006c0 1f         2852 	.data.b	31
000006c1 00         2853 	.data.b	0
                    2854 
                    2855 .LDW_5e8e6d8:
000006c2 2f         2856 	.data.b	47
000006c3 41564e49   2857 	.data.b	73,78,86,65,76,73,68,95,83,80,73,78,76,79,67,75,0
000006c7 5f44494c 
000006cb 4e495053 
000006cf 4b434f4c 
000006d3 00 
000006d4 01bd       2858 	.data.b	189,1
000006d6 03         2859 	.data.b	3
000006d7 1f         2860 	.data.b	31
000006d8 00         2861 	.data.b	0
                    2862 
000006d9 00         2863 	.data.b	0
                    2864 
                    2865 .LDW_6284990:
000006da 2a         2866 	.data.b	42
000006db 6e697053   2867 	.data.b	83,112,105,110,108,111,99,107,73,100,84,121,112,101,0
000006df 6b636f6c 
000006e3 79546449 
000006e7 006570 
000006ea 01be       2868 	.data.b	190,1
000006ec 03         2869 	.data.b	3
000006ed 1f         2870 	.data.b	31
000006ee 00000000*  2871 	.data.w	.LDW_6284a40
                    2872 
                    2873 .LDW_6284200:
000006f2 30         2874 	.data.b	48
000006f3 00         2875 	.data.b	0
000006f4 01ce       2876 	.data.b	206,1
000006f6 01         2877 	.data.b	1
000006f7 1f         2878 	.data.b	31
000006f8 04         2879 	.data.b	4
000006f9 01         2880 	.data.b	1
                    2881 
                    2882 .LDW_62857d0:
000006fa 2f         2883 	.data.b	47
000006fb 545f534f   2884 	.data.b	79,83,95,84,82,65,67,69,95,84,72,82,69,65,68,73,68,95,67,79,85,78,84,0
000006ff 45434152 
00000703 5248545f 
00000707 49444145 
0000070b 4f435f44 
0000070f 00544e55 
00000713 01cf       2885 	.data.b	207,1
00000715 03         2886 	.data.b	3
00000716 1f         2887 	.data.b	31
00000717 00         2888 	.data.b	0
                    2889 
                    2890 .LDW_6285790:
00000718 2f         2891 	.data.b	47
00000719 545f534f   2892 	.data.b	79,83,95,84,82,65,67,69,95,73,78,86,65,76,73,68,95,84,72,82,69,65,68,0
0000071d 45434152 

                                                                      Page 73
                                                              C:\Users\Fengyuan\AppData\Local\Temp\gh_00006b81.s
00000721 564e495f 
00000725 44494c41 
00000729 5248545f 
0000072d 00444145 
00000731 01d0       2893 	.data.b	208,1
00000733 03         2894 	.data.b	3
00000734 1f         2895 	.data.b	31
00000735 01         2896 	.data.b	1
                    2897 
00000736 00         2898 	.data.b	0
                    2899 
                    2900 .LDW_6284150:
00000737 2a         2901 	.data.b	42
00000738 545f734f   2902 	.data.b	79,115,95,84,114,97,99,101,84,104,114,101,97,100,73,100,84,121,112,101,0
0000073c 65636172 
00000740 65726854 
00000744 64496461 
00000748 65707954 
0000074c 00 
0000074d 01d1       2903 	.data.b	209,1
0000074f 03         2904 	.data.b	3
00000750 1f         2905 	.data.b	31
00000751 00000000*  2906 	.data.w	.LDW_6284200
                    2907 
                    2908 .LDW_62842b0:
00000755 30         2909 	.data.b	48
00000756 00         2910 	.data.b	0
00000757 01d5       2911 	.data.b	213,1
00000759 01         2912 	.data.b	1
0000075a 1f         2913 	.data.b	31
0000075b 04         2914 	.data.b	4
0000075c 01         2915 	.data.b	1
                    2916 
                    2917 .LDW_6285610:
0000075d 2f         2918 	.data.b	47
0000075e 545f534f   2919 	.data.b	79,83,95,84,82,65,67,69,95,78,85,77,66,69,82,95,79,70,95,67,79,78,70,73,71,85,82,69,68,95,83,80,73,78,76,79,67,75,83,0
00000762 45434152 
00000766 4d554e5f 
0000076a 5f524542 
0000076e 435f464f 
00000772 49464e4f 
00000776 45525547 
0000077a 50535f44 
0000077e 4f4c4e49 
00000782 00534b43 
00000786 01d6       2920 	.data.b	214,1
00000788 03         2921 	.data.b	3
00000789 1f         2922 	.data.b	31
0000078a 00         2923 	.data.b	0
                    2924 
                    2925 .LDW_6285690:
0000078b 2f         2926 	.data.b	47
0000078c 545f534f   2927 	.data.b	79,83,95,84,82,65,67,69,95,78,85,77,66,69,82,95,79,70,95,65,76,76,95,83,80,73,78,76,79,67,75,83,0
00000790 45434152 
00000794 4d554e5f 
00000798 5f524542 
0000079c 415f464f 
000007a0 535f4c4c 
000007a4 4c4e4950 
000007a8 534b434f 
000007ac 00 

                                                                      Page 74
                                                              C:\Users\Fengyuan\AppData\Local\Temp\gh_00006b81.s
000007ad 01d7       2928 	.data.b	215,1
000007af 03         2929 	.data.b	3
000007b0 1f         2930 	.data.b	31
000007b1 00         2931 	.data.b	0
                    2932 
                    2933 .LDW_6285090:
000007b2 2f         2934 	.data.b	47
000007b3 545f534f   2935 	.data.b	79,83,95,84,82,65,67,69,95,73,78,86,65,76,73,68,95,83,80,73,78,76,79,67,75,0
000007b7 45434152 
000007bb 564e495f 
000007bf 44494c41 
000007c3 4950535f 
000007c7 434f4c4e 
000007cb 004b 
000007cd 01d8       2936 	.data.b	216,1
000007cf 03         2937 	.data.b	3
000007d0 1f         2938 	.data.b	31
000007d1 01         2939 	.data.b	1
                    2940 
000007d2 00         2941 	.data.b	0
                    2942 
                    2943 .LDW_6284308:
000007d3 2a         2944 	.data.b	42
000007d4 545f734f   2945 	.data.b	79,115,95,84,114,97,99,101,83,112,105,110,108,111,99,107,73,100,84,121,112,101,0
000007d8 65636172 
000007dc 6e697053 
000007e0 6b636f6c 
000007e4 79546449 
000007e8 006570 
000007eb 01d9       2946 	.data.b	217,1
000007ed 03         2947 	.data.b	3
000007ee 1f         2948 	.data.b	31
000007ef 00000000*  2949 	.data.w	.LDW_62842b0
                    2950 
                    2951 .LDW_6284ca8:
000007f3 2a         2952 	.data.b	42
000007f4 4d707041   2953 	.data.b	65,112,112,77,111,100,101,84,121,112,101,0
000007f8 5465646f 
000007fc 00657079 
00000800 01d6       2954 	.data.b	214,1
00000802 10         2955 	.data.b	16
00000803 1e         2956 	.data.b	30
00000804 00000000*  2957 	.data.w	.LDW_5da7408
                    2958 
                    2959 .LDW_5da76f0:
00000808 2a         2960 	.data.b	42
00000809 4d6d6f43   2961 	.data.b	67,111,109,77,95,73,110,105,116,83,116,97,116,117,115,84,121,112,101,0
0000080d 696e495f 
00000811 61745374 
00000815 54737574 
00000819 00657079 
0000081d 52         2962 	.data.b	82
0000081e 0f         2963 	.data.b	15
0000081f 41         2964 	.data.b	65
00000820 00000000*  2965 	.data.w	.LDW_5da7408
                    2966 
                    2967 .LDW_6349208:
00000824 42         2968 	.data.b	66
00000825 77734273   2969 	.data.b	115,66,115,119,77,95,80,67,67,111,110,102,105,103,84,121,112,101,0
00000829 43505f4d 
0000082d 666e6f43 

                                                                      Page 75
                                                              C:\Users\Fengyuan\AppData\Local\Temp\gh_00006b81.s
00000831 79546769 
00000835 006570 
00000838 09db       2970 	.data.b	219,9
0000083a 10         2971 	.data.b	16
0000083b 3c         2972 	.data.b	60
0000083c 01         2973 	.data.b	1
0000083d 01         2974 	.data.b	1
                    2975 
                    2976 .LDW_634e868:
0000083e 25         2977 	.data.b	37
0000083f 4d777342   2978 	.data.b	66,115,119,77,95,80,67,67,111,110,102,105,103,78,101,118,101,114,85,115,101,100,0
00000843 4343505f 
00000847 69666e6f 
0000084b 76654e67 
0000084f 73557265 
00000853 006465 
00000856 09dd       2979 	.data.b	221,9
00000858 09         2980 	.data.b	9
00000859 3c         2981 	.data.b	60
0000085a 00000000*  2982 	.data.w	.LDW_5da7408
0000085e 2302       2983 	.data.b	2,35
00000860 00         2984 	.data.b	0
00000861 01         2985 	.data.b	1
                    2986 
00000862 00         2987 	.data.b	0
                    2988 
                    2989 .LDW_6349158:
00000863 2a         2990 	.data.b	42
00000864 4d777342   2991 	.data.b	66,115,119,77,95,80,67,67,111,110,102,105,103,84,121,112,101,0
00000868 4343505f 
0000086c 69666e6f 
00000870 70795467 
00000874 0065 
00000876 09de       2992 	.data.b	222,9
00000878 03         2993 	.data.b	3
00000879 3c         2994 	.data.b	60
0000087a 00000000*  2995 	.data.w	.LDW_6349208
                    2996 
                    2997 .LDW_63499f0:
0000087e 2a         2998 	.data.b	42
0000087f 4d777342   2999 	.data.b	66,115,119,77,95,67,111,110,102,105,103,84,121,112,101,0
00000883 6e6f435f 
00000887 54676966 
0000088b 00657079 
0000088f 09e0       3000 	.data.b	224,9
00000891 1b         3001 	.data.b	27
00000892 3c         3002 	.data.b	60
00000893 00000000*  3003 	.data.w	.LDW_6349158
                    3004 
                    3005 .LDW_634a6a8:
00000897 07         3006 	.data.b	7
00000898 4d756345   3007 	.data.b	69,99,117,77,95,68,114,105,118,101,114,73,110,105,116,79,110,101,0
0000089c 6972445f 
000008a0 49726576 
000008a4 4f74696e 
000008a8 00656e 
000008ab 0284       3008 	.data.b	132,2
000008ad 32         3009 	.data.b	50
000008ae 16         3010 	.data.b	22
000008af 00000000*  3011 	.data.w	.LDW_634f400
000008b3 01         3012 	.data.b	1

                                                                      Page 76
                                                              C:\Users\Fengyuan\AppData\Local\Temp\gh_00006b81.s
000008b4 01         3013 	.data.b	1
                    3014 
                    3015 	.section	.debug_abbrev
000000b4 07         3016 	.data.b	7
000000b5 34         3017 	.data.b	52
000000b6 00         3018 	.data.b	0
000000b7 0803       3019 	.data.b	3,8
000000b9 0f3b       3020 	.data.b	59,15
000000bb 0f39       3021 	.data.b	57,15
000000bd 0f3a       3022 	.data.b	58,15
000000bf 1049       3023 	.data.b	73,16
000000c1 0c3f       3024 	.data.b	63,12
000000c3 0c3c       3025 	.data.b	60,12
000000c5 0000       3026 	.data.b	0,0
                    3027 
                    3028 	.section	.debug_info
                    3029 .LDW_6349f18:
000008b5 07         3030 	.data.b	7
000008b6 4d756345   3031 	.data.b	69,99,117,77,95,87,97,107,101,117,112,83,111,117,114,99,101,76,105,115,116,0
000008ba 6b61575f 
000008be 53707565 
000008c2 6372756f 
000008c6 73694c65 
000008ca 0074 
000008cc 0298       3032 	.data.b	152,2
000008ce 35         3033 	.data.b	53
000008cf 16         3034 	.data.b	22
000008d0 00000000*  3035 	.data.w	.LDW_634f510
000008d4 01         3036 	.data.b	1
000008d5 01         3037 	.data.b	1
                    3038 
                    3039 .LDW_634a230:
000008d6 07         3040 	.data.b	7
000008d7 4d756345   3041 	.data.b	69,99,117,77,95,77,111,100,117,108,101,83,116,97,116,101,0
000008db 646f4d5f 
000008df 53656c75 
000008e3 65746174 
000008e7 00 
000008e8 02a5       3042 	.data.b	165,2
000008ea 2d         3043 	.data.b	45
000008eb 16         3044 	.data.b	22
000008ec 00000000*  3045 	.data.w	.LDW_4b3be80
000008f0 01         3046 	.data.b	1
000008f1 01         3047 	.data.b	1
                    3048 
                    3049 .LDW_6351958:
000008f2 06         3050 	.data.b	6
000008f3 4d756345   3051 	.data.b	69,99,117,77,95,67,117,114,114,101,110,116,83,104,117,116,100,111,119,110,77,111,100,101,0
000008f7 7275435f 
000008fb 746e6572 
000008ff 74756853 
00000903 6e776f64 
00000907 65646f4d 
0000090b 00 
0000090c 0286       3052 	.data.b	134,2
0000090e 28         3053 	.data.b	40
0000090f 01         3054 	.data.b	1
00000910 00000000*  3055 	.data.w	.LDW_5da7408
00000914 00         3056 	.data.b	0
00000915 00         3057 	.data.b	0
00000916 0305       3058 	.data.b	5,3

                                                                      Page 77
                                                              C:\Users\Fengyuan\AppData\Local\Temp\gh_00006b81.s
00000918 00000000*  3059 	.data.w	EcuM_CurrentShutdownMode..C.3A.5CVector.5CCBD1800257_D01_S32K1xx.5CApplications.5CS32K144_Start_new.5CAppl.5Cobj.5CEcuM.
                    3060 
                    3061 	.section	.debug_abbrev
000000c7 06         3062 	.data.b	6
000000c8 34         3063 	.data.b	52
000000c9 00         3064 	.data.b	0
000000ca 0803       3065 	.data.b	3,8
000000cc 0f3b       3066 	.data.b	59,15
000000ce 0f39       3067 	.data.b	57,15
000000d0 0f3a       3068 	.data.b	58,15
000000d2 1049       3069 	.data.b	73,16
000000d4 0c3f       3070 	.data.b	63,12
000000d6 0c3c       3071 	.data.b	60,12
000000d8 0a02       3072 	.data.b	2,10
000000da 0000       3073 	.data.b	0,0
                    3074 
                    3075 	.section	.debug_info
                    3076 .LDW_6351b68:
0000091c 06         3077 	.data.b	6
0000091d 4d756345   3078 	.data.b	69,99,117,77,95,67,117,114,114,101,110,116,83,104,117,116,100,111,119,110,84,97,114,103,101,116,0
00000921 7275435f 
00000925 746e6572 
00000929 74756853 
0000092d 6e776f64 
00000931 67726154 
00000935 007465 
00000938 0289       3079 	.data.b	137,2
0000093a 31         3080 	.data.b	49
0000093b 01         3081 	.data.b	1
0000093c 00000000*  3082 	.data.w	.LDW_4b3be80
00000940 00         3083 	.data.b	0
00000941 00         3084 	.data.b	0
00000942 0305       3085 	.data.b	5,3
00000944 00000000*  3086 	.data.w	EcuM_CurrentShutdownTarget..C.3A.5CVector.5CCBD1800257_D01_S32K1xx.5CApplications.5CS32K144_Start_new.5CAppl.5Cobj.5CEcuM.
                    3087 
                    3088 .LDW_63515e8:
00000948 06         3089 	.data.b	6
00000949 4d756345   3090 	.data.b	69,99,117,77,95,76,97,115,116,83,104,117,116,100,111,119,110,84,97,114,103,101,116,0
0000094d 73614c5f 
00000951 75685374 
00000955 776f6474 
00000959 7261546e 
0000095d 00746567 
00000961 028c       3091 	.data.b	140,2
00000963 31         3092 	.data.b	49
00000964 01         3093 	.data.b	1
00000965 00000000*  3094 	.data.w	.LDW_4b3be80
00000969 00         3095 	.data.b	0
0000096a 00         3096 	.data.b	0
0000096b 0305       3097 	.data.b	5,3
0000096d 00000000*  3098 	.data.w	EcuM_LastShutdownTarget..C.3A.5CVector.5CCBD1800257_D01_S32K1xx.5CApplications.5CS32K144_Start_new.5CAppl.5Cobj.5CEcuM.
                    3099 
                    3100 .LDW_6351850:
00000971 06         3101 	.data.b	6
00000972 4d756345   3102 	.data.b	69,99,117,77,95,76,97,115,116,83,104,117,116,100,111,119,110,77,111,100,101,0
00000976 73614c5f 
0000097a 75685374 
0000097e 776f6474 
00000982 646f4d6e 
00000986 0065 
00000988 028f       3103 	.data.b	143,2

                                                                      Page 78
                                                              C:\Users\Fengyuan\AppData\Local\Temp\gh_00006b81.s
0000098a 28         3104 	.data.b	40
0000098b 01         3105 	.data.b	1
0000098c 00000000*  3106 	.data.w	.LDW_5da7408
00000990 00         3107 	.data.b	0
00000991 00         3108 	.data.b	0
00000992 0305       3109 	.data.b	5,3
00000994 00000000*  3110 	.data.w	EcuM_LastShutdownMode..C.3A.5CVector.5CCBD1800257_D01_S32K1xx.5CApplications.5CS32K144_Start_new.5CAppl.5Cobj.5CEcuM.
                    3111 
                    3112 .LDW_6351bc0:
00000998 06         3113 	.data.b	6
00000999 4d756345   3114 	.data.b	69,99,117,77,95,83,104,117,116,100,111,119,110,67,97,117,115,101,0
0000099d 7568535f 
000009a1 776f6474 
000009a5 7561436e 
000009a9 006573 
000009ac 0293       3115 	.data.b	147,2
000009ae 28         3116 	.data.b	40
000009af 01         3117 	.data.b	1
000009b0 00000000*  3118 	.data.w	.LDW_5da7408
000009b4 00         3119 	.data.b	0
000009b5 00         3120 	.data.b	0
000009b6 0305       3121 	.data.b	5,3
000009b8 00000000*  3122 	.data.w	EcuM_ShutdownCause..C.3A.5CVector.5CCBD1800257_D01_S32K1xx.5CApplications.5CS32K144_Start_new.5CAppl.5Cobj.5CEcuM.
                    3123 
                    3124 .LDW_63513d8:
000009bc 06         3125 	.data.b	6
000009bd 4d756345   3126 	.data.b	69,99,117,77,95,67,117,114,114,101,110,116,66,111,111,116,84,97,114,103,101,116,0
000009c1 7275435f 
000009c5 746e6572 
000009c9 746f6f42 
000009cd 67726154 
000009d1 007465 
000009d4 029c       3127 	.data.b	156,2
000009d6 36         3128 	.data.b	54
000009d7 01         3129 	.data.b	1
000009d8 00000000*  3130 	.data.w	.LDW_5da33d0
000009dc 00         3131 	.data.b	0
000009dd 00         3132 	.data.b	0
000009de 0305       3133 	.data.b	5,3
000009e0 00000000*  3134 	.data.w	EcuM_CurrentBootTarget..C.3A.5CVector.5CCBD1800257_D01_S32K1xx.5CApplications.5CS32K144_Start_new.5CAppl.5Cobj.5CEcuM.
                    3135 
                    3136 .LDW_6351c18:
000009e4 06         3137 	.data.b	6
000009e5 4d756345   3138 	.data.b	69,99,117,77,95,86,97,108,105,100,97,116,101,100,87,97,107,101,117,112,115,0
000009e9 6c61565f 
000009ed 74616469 
000009f1 61576465 
000009f5 7075656b 
000009f9 0073 
000009fb 02ab       3139 	.data.b	171,2
000009fd 38         3140 	.data.b	56
000009fe 01         3141 	.data.b	1
000009ff 00000000*  3142 	.data.w	.LDW_5da74b8
00000a03 00         3143 	.data.b	0
00000a04 00         3144 	.data.b	0
00000a05 0305       3145 	.data.b	5,3
00000a07 00000000*  3146 	.data.w	EcuM_ValidatedWakeups..C.3A.5CVector.5CCBD1800257_D01_S32K1xx.5CApplications.5CS32K144_Start_new.5CAppl.5Cobj.5CEcuM.
                    3147 
                    3148 .LDW_63514e0:
00000a0b 06         3149 	.data.b	6
00000a0c 4d756345   3150 	.data.b	69,99,117,77,95,66,115,119,77,95,66,117,102,102,101,114,101,100,87,97,107,101,117,112,115,0

                                                                      Page 79
                                                              C:\Users\Fengyuan\AppData\Local\Temp\gh_00006b81.s
00000a10 7773425f 
00000a14 75425f4d 
00000a18 72656666 
00000a1c 61576465 
00000a20 7075656b 
00000a24 0073 
00000a26 02b3       3151 	.data.b	179,2
00000a28 38         3152 	.data.b	56
00000a29 01         3153 	.data.b	1
00000a2a 00000000*  3154 	.data.w	.LDW_5da74b8
00000a2e 00         3155 	.data.b	0
00000a2f 00         3156 	.data.b	0
00000a30 0305       3157 	.data.b	5,3
00000a32 00000000*  3158 	.data.w	EcuM_BswM_BufferedWakeups..C.3A.5CVector.5CCBD1800257_D01_S32K1xx.5CApplications.5CS32K144_Start_new.5CAppl.5Cobj.5CEcuM.
                    3159 
                    3160 .LDW_6351538:
00000a36 06         3161 	.data.b	6
00000a37 4d756345   3162 	.data.b	69,99,117,77,95,67,111,109,77,95,66,117,102,102,101,114,101,100,87,97,107,101,117,112,115,0
00000a3b 6d6f435f 
00000a3f 75425f4d 
00000a43 72656666 
00000a47 61576465 
00000a4b 7075656b 
00000a4f 0073 
00000a51 02d4       3163 	.data.b	212,2
00000a53 38         3164 	.data.b	56
00000a54 01         3165 	.data.b	1
00000a55 00000000*  3166 	.data.w	.LDW_5da74b8
00000a59 00         3167 	.data.b	0
00000a5a 00         3168 	.data.b	0
00000a5b 0305       3169 	.data.b	5,3
00000a5d 00000000*  3170 	.data.w	EcuM_ComM_BufferedWakeups..C.3A.5CVector.5CCBD1800257_D01_S32K1xx.5CApplications.5CS32K144_Start_new.5CAppl.5Cobj.5CEcuM.
                    3171 
                    3172 .LDW_6359830:
00000a61 17         3173 	.data.b	23
00000a62 70737553   3174 	.data.b	83,117,115,112,101,110,100,65,108,108,73,110,116,101,114,114,117,112,116,115,0
00000a66 41646e65 
00000a6a 6e496c6c 
00000a6e 72726574 
00000a72 73747075 
00000a76 00 
00000a77 0a97       3175 	.data.b	151,10
00000a79 15         3176 	.data.b	21
00000a7a 19         3177 	.data.b	25
00000a7b 01         3178 	.data.b	1
00000a7c 00         3179 	.data.b	0
00000a7d 01         3180 	.data.b	1
00000a7e 01         3181 	.data.b	1
00000a7f 00         3182 	.data.b	0
00000a80 01         3183 	.data.b	1
                    3184 
                    3185 	.section	.debug_abbrev
000000dc 17         3186 	.data.b	23
000000dd 2e         3187 	.data.b	46
000000de 01         3188 	.data.b	1
000000df 0803       3189 	.data.b	3,8
000000e1 0f3b       3190 	.data.b	59,15
000000e3 0f39       3191 	.data.b	57,15
000000e5 0f3a       3192 	.data.b	58,15
000000e7 0c3c       3193 	.data.b	60,12
000000e9 0b20       3194 	.data.b	32,11

                                                                      Page 80
                                                              C:\Users\Fengyuan\AppData\Local\Temp\gh_00006b81.s
000000eb 0c3f       3195 	.data.b	63,12
000000ed 0b32       3196 	.data.b	50,11
000000ef 0b4c       3197 	.data.b	76,11
000000f1 0c27       3198 	.data.b	39,12
000000f3 0000       3199 	.data.b	0,0
                    3200 
                    3201 	.section	.debug_info
00000a81 00         3202 	.data.b	0
                    3203 
                    3204 .LDW_6359700:
00000a82 17         3205 	.data.b	23
00000a83 75736552   3206 	.data.b	82,101,115,117,109,101,65,108,108,73,110,116,101,114,114,117,112,116,115,0
00000a87 6c41656d 
00000a8b 746e496c 
00000a8f 75727265 
00000a93 00737470 
00000a97 0aaa       3207 	.data.b	170,10
00000a99 15         3208 	.data.b	21
00000a9a 19         3209 	.data.b	25
00000a9b 01         3210 	.data.b	1
00000a9c 00         3211 	.data.b	0
00000a9d 01         3212 	.data.b	1
00000a9e 01         3213 	.data.b	1
00000a9f 00         3214 	.data.b	0
00000aa0 01         3215 	.data.b	1
                    3216 
00000aa1 00         3217 	.data.b	0
                    3218 
                    3219 .LDW_6362ee8:
00000aa2 18         3220 	.data.b	24
00000aa3 5f746544   3221 	.data.b	68,101,116,95,82,101,112,111,114,116,69,114,114,111,114,0
00000aa7 6f706552 
00000aab 72457472 
00000aaf 00726f72 
00000ab3 0296       3222 	.data.b	150,2
00000ab5 20         3223 	.data.b	32
00000ab6 39         3224 	.data.b	57
00000ab7 00000000*  3225 	.data.w	.LDW_5f2cf80
00000abb 01         3226 	.data.b	1
00000abc 00         3227 	.data.b	0
00000abd 01         3228 	.data.b	1
00000abe 01         3229 	.data.b	1
00000abf 00         3230 	.data.b	0
00000ac0 01         3231 	.data.b	1
                    3232 
                    3233 	.section	.debug_abbrev
000000f5 18         3234 	.data.b	24
000000f6 2e         3235 	.data.b	46
000000f7 01         3236 	.data.b	1
000000f8 0803       3237 	.data.b	3,8
000000fa 0f3b       3238 	.data.b	59,15
000000fc 0f39       3239 	.data.b	57,15
000000fe 0f3a       3240 	.data.b	58,15
00000100 1049       3241 	.data.b	73,16
00000102 0c3c       3242 	.data.b	60,12
00000104 0b20       3243 	.data.b	32,11
00000106 0c3f       3244 	.data.b	63,12
00000108 0b32       3245 	.data.b	50,11
0000010a 0b4c       3246 	.data.b	76,11
0000010c 0c27       3247 	.data.b	39,12
0000010e 0000       3248 	.data.b	0,0

                                                                      Page 81
                                                              C:\Users\Fengyuan\AppData\Local\Temp\gh_00006b81.s
                    3249 
                    3250 	.section	.debug_info
00000ac1 00         3251 	.data.b	0
                    3252 
                    3253 .LDW_6362f80:
00000ac2 17         3254 	.data.b	23
00000ac3 4d756345   3255 	.data.b	69,99,117,77,95,65,76,95,83,101,116,80,114,111,103,114,97,109,109,97,98,108,101,73,110,116,101,114,114,117,112,116,115,0
00000ac7 5f4c415f 
00000acb 50746553 
00000acf 72676f72 
00000ad3 616d6d61 
00000ad7 49656c62 
00000adb 7265746e 
00000adf 74707572 
00000ae3 0073 
00000ae5 02c9       3256 	.data.b	201,2
00000ae7 17         3257 	.data.b	23
00000ae8 16         3258 	.data.b	22
00000ae9 01         3259 	.data.b	1
00000aea 00         3260 	.data.b	0
00000aeb 01         3261 	.data.b	1
00000aec 01         3262 	.data.b	1
00000aed 00         3263 	.data.b	0
00000aee 01         3264 	.data.b	1
                    3265 
00000aef 00         3266 	.data.b	0
                    3267 
                    3268 .LDW_6361db0:
00000af0 17         3269 	.data.b	23
00000af1 4d756345   3270 	.data.b	69,99,117,77,95,83,116,97,114,116,79,83,0
00000af5 6174535f 
00000af9 534f7472 
00000afd 00 
00000afe 02d6       3271 	.data.b	214,2
00000b00 17         3272 	.data.b	23
00000b01 16         3273 	.data.b	22
00000b02 01         3274 	.data.b	1
00000b03 00         3275 	.data.b	0
00000b04 01         3276 	.data.b	1
00000b05 01         3277 	.data.b	1
00000b06 00         3278 	.data.b	0
00000b07 01         3279 	.data.b	1
                    3280 
00000b08 00         3281 	.data.b	0
                    3282 
                    3283 .LDW_63620a8:
00000b09 17         3284 	.data.b	23
00000b0a 4d756345   3285 	.data.b	69,99,117,77,95,83,104,117,116,100,111,119,110,79,83,0
00000b0e 7568535f 
00000b12 776f6474 
00000b16 00534f6e 
00000b1a 03d1       3286 	.data.b	209,3
00000b1c 17         3287 	.data.b	23
00000b1d 16         3288 	.data.b	22
00000b1e 01         3289 	.data.b	1
00000b1f 00         3290 	.data.b	0
00000b20 01         3291 	.data.b	1
00000b21 01         3292 	.data.b	1
00000b22 00         3293 	.data.b	0
00000b23 01         3294 	.data.b	1
                    3295 

                                                                      Page 82
                                                              C:\Users\Fengyuan\AppData\Local\Temp\gh_00006b81.s
00000b24 00         3296 	.data.b	0
                    3297 
                    3298 .LDW_6361e48:
00000b25 17         3299 	.data.b	23
00000b26 4d756345   3300 	.data.b	69,99,117,77,95,65,76,95,83,119,105,116,99,104,79,102,102,0
00000b2a 5f4c415f 
00000b2e 74697753 
00000b32 664f6863 
00000b36 0066 
00000b38 03dd       3301 	.data.b	221,3
00000b3a 17         3302 	.data.b	23
00000b3b 16         3303 	.data.b	22
00000b3c 01         3304 	.data.b	1
00000b3d 00         3305 	.data.b	0
00000b3e 01         3306 	.data.b	1
00000b3f 01         3307 	.data.b	1
00000b40 00         3308 	.data.b	0
00000b41 01         3309 	.data.b	1
                    3310 
00000b42 00         3311 	.data.b	0
                    3312 
                    3313 .LDW_6362ac0:
00000b43 17         3314 	.data.b	23
00000b44 4d756345   3315 	.data.b	69,99,117,77,95,65,76,95,82,101,115,101,116,0
00000b48 5f4c415f 
00000b4c 65736552 
00000b50 0074 
00000b52 03ea       3316 	.data.b	234,3
00000b54 17         3317 	.data.b	23
00000b55 16         3318 	.data.b	22
00000b56 01         3319 	.data.b	1
00000b57 00         3320 	.data.b	0
00000b58 01         3321 	.data.b	1
00000b59 01         3322 	.data.b	1
00000b5a 00         3323 	.data.b	0
00000b5b 01         3324 	.data.b	1
                    3325 
00000b5c 00         3326 	.data.b	0
                    3327 
                    3328 .LDW_6362600:
00000b5d 17         3329 	.data.b	23
00000b5e 4d756345   3330 	.data.b	69,99,117,77,95,79,110,71,111,79,102,102,79,110,101,0
00000b62 476e4f5f 
00000b66 66664f6f 
00000b6a 00656e4f 
00000b6e 04db       3331 	.data.b	219,4
00000b70 17         3332 	.data.b	23
00000b71 16         3333 	.data.b	22
00000b72 01         3334 	.data.b	1
00000b73 00         3335 	.data.b	0
00000b74 01         3336 	.data.b	1
00000b75 01         3337 	.data.b	1
00000b76 00         3338 	.data.b	0
00000b77 01         3339 	.data.b	1
                    3340 
00000b78 00         3341 	.data.b	0
                    3342 
                    3343 .LDW_63623a0:
00000b79 17         3344 	.data.b	23
00000b7a 4d756345   3345 	.data.b	69,99,117,77,95,79,110,71,111,79,102,102,84,119,111,0
00000b7e 476e4f5f 

                                                                      Page 83
                                                              C:\Users\Fengyuan\AppData\Local\Temp\gh_00006b81.s
00000b82 66664f6f 
00000b86 006f7754 
00000b8a 04e8       3346 	.data.b	232,4
00000b8c 17         3347 	.data.b	23
00000b8d 16         3348 	.data.b	22
00000b8e 01         3349 	.data.b	1
00000b8f 00         3350 	.data.b	0
00000b90 01         3351 	.data.b	1
00000b91 01         3352 	.data.b	1
00000b92 00         3353 	.data.b	0
00000b93 01         3354 	.data.b	1
                    3355 
00000b94 00         3356 	.data.b	0
                    3357 
                    3358 .LDW_6362438:
00000b95 17         3359 	.data.b	23
00000b96 4d756345   3360 	.data.b	69,99,117,77,95,65,76,95,68,114,105,118,101,114,73,110,105,116,90,101,114,111,0
00000b9a 5f4c415f 
00000b9e 76697244 
00000ba2 6e497265 
00000ba6 655a7469 
00000baa 006f72 
00000bad 0681       3361 	.data.b	129,6
00000baf 1e         3362 	.data.b	30
00000bb0 16         3363 	.data.b	22
00000bb1 01         3364 	.data.b	1
00000bb2 00         3365 	.data.b	0
00000bb3 01         3366 	.data.b	1
00000bb4 01         3367 	.data.b	1
00000bb5 00         3368 	.data.b	0
00000bb6 01         3369 	.data.b	1
                    3370 
00000bb7 00         3371 	.data.b	0
                    3372 
                    3373 .LDW_63669a8:
00000bb8 18         3374 	.data.b	24
00000bb9 4d6d6f43   3375 	.data.b	67,111,109,77,95,71,101,116,83,116,97,116,117,115,0
00000bbd 7465475f 
00000bc1 74617453 
00000bc5 007375 
00000bc8 02b8       3376 	.data.b	184,2
00000bca 28         3377 	.data.b	40
00000bcb 3e         3378 	.data.b	62
00000bcc 00000000*  3379 	.data.w	.LDW_5f2cf80
00000bd0 01         3380 	.data.b	1
00000bd1 00         3381 	.data.b	0
00000bd2 01         3382 	.data.b	1
00000bd3 01         3383 	.data.b	1
00000bd4 00         3384 	.data.b	0
00000bd5 01         3385 	.data.b	1
                    3386 
00000bd6 00         3387 	.data.b	0
                    3388 
                    3389 .LDW_6366b70:
00000bd7 17         3390 	.data.b	23
00000bd8 4d6d6f43   3391 	.data.b	67,111,109,77,95,69,99,117,77,95,87,97,107,101,85,112,73,110,100,105,99,97,116,105,111,110,0
00000bdc 7563455f 
00000be0 61575f4d 
00000be4 7055656b 
00000be8 69646e49 
00000bec 69746163 

                                                                      Page 84
                                                              C:\Users\Fengyuan\AppData\Local\Temp\gh_00006b81.s
00000bf0 006e6f 
00000bf3 61         3392 	.data.b	97
00000bf4 1e         3393 	.data.b	30
00000bf5 45         3394 	.data.b	69
00000bf6 01         3395 	.data.b	1
00000bf7 00         3396 	.data.b	0
00000bf8 01         3397 	.data.b	1
00000bf9 01         3398 	.data.b	1
00000bfa 00         3399 	.data.b	0
00000bfb 01         3400 	.data.b	1
                    3401 
00000bfc 00         3402 	.data.b	0
                    3403 
                    3404 .LDW_6371818:
00000bfd 17         3405 	.data.b	23
00000bfe 4d777342   3406 	.data.b	66,115,119,77,95,69,99,117,77,95,67,117,114,114,101,110,116,87,97,107,101,117,112,0
00000c02 7563455f 
00000c06 75435f4d 
00000c0a 6e657272 
00000c0e 6b615774 
00000c12 00707565 
00000c16 5e         3407 	.data.b	94
00000c17 1e         3408 	.data.b	30
00000c18 0180       3409 	.data.b	128,1
00000c1a 01         3410 	.data.b	1
00000c1b 00         3411 	.data.b	0
00000c1c 01         3412 	.data.b	1
00000c1d 01         3413 	.data.b	1
00000c1e 00         3414 	.data.b	0
00000c1f 01         3415 	.data.b	1
                    3416 
00000c20 00         3417 	.data.b	0
                    3418 
                    3419 .LDW_6371358:
00000c21 17         3420 	.data.b	23
00000c22 4d777342   3421 	.data.b	66,115,119,77,95,73,110,105,116,0
00000c26 696e495f 
00000c2a 0074 
00000c2c 0284       3422 	.data.b	132,2
00000c2e 1e         3423 	.data.b	30
00000c2f 3b         3424 	.data.b	59
00000c30 01         3425 	.data.b	1
00000c31 00         3426 	.data.b	0
00000c32 01         3427 	.data.b	1
00000c33 01         3428 	.data.b	1
00000c34 00         3429 	.data.b	0
00000c35 01         3430 	.data.b	1
                    3431 
00000c36 00         3432 	.data.b	0
                    3433 
                    3434 .LDW_6371488:
00000c37 17         3435 	.data.b	23
00000c38 4d777342   3436 	.data.b	66,115,119,77,95,68,101,105,110,105,116,0
00000c3c 6965445f 
00000c40 0074696e 
00000c44 0293       3437 	.data.b	147,2
00000c46 1e         3438 	.data.b	30
00000c47 3b         3439 	.data.b	59
00000c48 01         3440 	.data.b	1
00000c49 00         3441 	.data.b	0
00000c4a 01         3442 	.data.b	1

                                                                      Page 85
                                                              C:\Users\Fengyuan\AppData\Local\Temp\gh_00006b81.s
00000c4b 01         3443 	.data.b	1
00000c4c 00         3444 	.data.b	0
00000c4d 01         3445 	.data.b	1
                    3446 
00000c4e 00         3447 	.data.b	0
                    3448 
                    3449 .LDW_63719e0:
00000c4f 17         3450 	.data.b	23
00000c50 4d686353   3451 	.data.b	83,99,104,77,95,73,110,105,116,0
00000c54 696e495f 
00000c58 0074 
00000c5a 20         3452 	.data.b	32
00000c5b 16         3453 	.data.b	22
00000c5c 0183       3454 	.data.b	131,1
00000c5e 01         3455 	.data.b	1
00000c5f 00         3456 	.data.b	0
00000c60 01         3457 	.data.b	1
00000c61 01         3458 	.data.b	1
00000c62 00         3459 	.data.b	0
00000c63 01         3460 	.data.b	1
                    3461 
00000c64 00         3462 	.data.b	0
                    3463 
                    3464 .LDW_63715b8:
00000c65 17         3465 	.data.b	23
00000c66 4d686353   3466 	.data.b	83,99,104,77,95,68,101,105,110,105,116,0
00000c6a 6965445f 
00000c6e 0074696e 
00000c72 21         3467 	.data.b	33
00000c73 16         3468 	.data.b	22
00000c74 0183       3469 	.data.b	131,1
00000c76 01         3470 	.data.b	1
00000c77 00         3471 	.data.b	0
00000c78 01         3472 	.data.b	1
00000c79 01         3473 	.data.b	1
00000c7a 00         3474 	.data.b	0
00000c7b 01         3475 	.data.b	1
                    3476 
00000c7c 00         3477 	.data.b	0
                    3478 
                    3479 .LDW_5da7510:
00000c7d 16         3480 	.data.b	22
00000c7e 4d756345   3481 	.data.b	69,99,117,77,95,71,101,116,83,104,105,102,116,67,111,117,110,116,0
00000c82 7465475f 
00000c86 66696853 
00000c8a 756f4374 
00000c8e 00746e 
00000c91 05f7       3482 	.data.b	247,5
00000c93 23         3483 	.data.b	35
00000c94 01         3484 	.data.b	1
00000c95 00000000*  3485 	.data.w	.LDW_5da7408
00000c99 00000000*  3486 	.data.w	EcuM_GetShiftCount..C.3A.5CVector.5CCBD1800257_D01_S32K1xx.5CApplications.5CS32K144_Start_new.5CAppl.5Cobj.5CEcuM.
00000c9d 00000000*  3487 	.data.w	__ghs_eofn_EcuM_GetShiftCount
00000ca1 5d01       3488 	.data.b	1,93
00000ca3 00         3489 	.data.b	0
00000ca4 04         3490 	.data.b	4
00000ca5 00         3491 	.data.b	0
00000ca6 7c         3492 	.data.b	124
00000ca7 01         3493 	.data.b	1
00000ca8 00         3494 	.data.b	0
00000ca9 00         3495 	.data.b	0

                                                                      Page 86
                                                              C:\Users\Fengyuan\AppData\Local\Temp\gh_00006b81.s
00000caa 00         3496 	.data.b	0
00000cab 01         3497 	.data.b	1
00000cac 00         3498 	.data.b	0
00000cad 01         3499 	.data.b	1
                    3500 
                    3501 	.section	.debug_abbrev
00000110 16         3502 	.data.b	22
00000111 2e         3503 	.data.b	46
00000112 01         3504 	.data.b	1
00000113 0803       3505 	.data.b	3,8
00000115 0f3b       3506 	.data.b	59,15
00000117 0f39       3507 	.data.b	57,15
00000119 0f3a       3508 	.data.b	58,15
0000011b 1049       3509 	.data.b	73,16
0000011d 0111       3510 	.data.b	17,1
0000011f 0112       3511 	.data.b	18,1
00000121 0a40       3512 	.data.b	64,10
00000123 4183       3513 	.data.b	131,65
00000125 0f         3514 	.data.b	15
00000126 4187       3515 	.data.b	135,65
00000128 0d         3516 	.data.b	13
00000129 4185       3517 	.data.b	133,65
0000012b 0f         3518 	.data.b	15
0000012c 4186       3519 	.data.b	134,65
0000012e 0d         3520 	.data.b	13
0000012f 4192       3521 	.data.b	146,65
00000131 0f         3522 	.data.b	15
00000132 0c3c       3523 	.data.b	60,12
00000134 0b20       3524 	.data.b	32,11
00000136 0c3f       3525 	.data.b	63,12
00000138 0b32       3526 	.data.b	50,11
0000013a 0b4c       3527 	.data.b	76,11
0000013c 0c27       3528 	.data.b	39,12
0000013e 0000       3529 	.data.b	0,0
                    3530 
                    3531 	.section	.debug_frame
                    3532 .LDW_6338130:
00000090 00000000*  3533 	.data.w	.LDW_unq_4-.LDW_unq_3
                    3534 .LDW_unq_3:
00000094 00000000*  3535 	.data.w	.LDW_626e228
00000098 00000000*  3536 	.data.w	EcuM_GetShiftCount..C.3A.5CVector.5CCBD1800257_D01_S32K1xx.5CApplications.5CS32K144_Start_new.5CAppl.5Cobj.5CEcuM.
0000009c 00000014   3537 	.data.w	__ghs_eofn_EcuM_GetShiftCount-EcuM_GetShiftCount..C.3A.5CVector.5CCBD1800257_D01_S32K1xx.5CApplications.5CS32K144_Start_new.5CAppl.5Cobj.5CEcuM.
000000a0 01         3538 	.data.b	1
000000a1 00000000*  3539 	.data.w	.LDW11
000000a5 00         3540 	.data.b	0
000000a6 00         3541 	.data.b	0
000000a7 00         3542 	.data.b	0
                    3543 .LDW_unq_4:
                    3544 	.section	.debug_line
00001792 020500     3545 	.data.b	0,5,2
00001795 00000000*  3546 	.data.w	EcuM_GetShiftCount..C.3A.5CVector.5CCBD1800257_D01_S32K1xx.5CApplications.5CS32K144_Start_new.5CAppl.5Cobj.5CEcuM.
00001799 06         3547 	.data.b	6
0000179a 03         3548 	.data.b	3
0000179b 05f9       3549 	.data.b	249,5
0000179d 02         3550 	.data.b	2
0000179e 00         3551 	.data.b	0
0000179f 01         3552 	.data.b	1
000017a0 15         3553 	.data.b	21
000017a1 03         3554 	.data.b	3
000017a2 04         3555 	.data.b	4
000017a3 02         3556 	.data.b	2

                                                                      Page 87
                                                              C:\Users\Fengyuan\AppData\Local\Temp\gh_00006b81.s
000017a4 02         3557 	.data.b	2
000017a5 01         3558 	.data.b	1
000017a6 020500     3559 	.data.b	0,5,2
000017a9 00000000*  3560 	.data.w	.LDWlin1
000017ad 0c         3561 	.data.b	12
000017ae 1c         3562 	.data.b	28
000017af 03         3563 	.data.b	3
000017b0 7c         3564 	.data.b	124
000017b1 02         3565 	.data.b	2
000017b2 02         3566 	.data.b	2
000017b3 01         3567 	.data.b	1
000017b4 020500     3568 	.data.b	0,5,2
000017b7 00000000*  3569 	.data.w	.LDWlin2
000017bb 03         3570 	.data.b	3
000017bc 05         3571 	.data.b	5
000017bd 02         3572 	.data.b	2
000017be 00         3573 	.data.b	0
000017bf 01         3574 	.data.b	1
000017c0 0c         3575 	.data.b	12
000017c1 06         3576 	.data.b	6
000017c2 02         3577 	.data.b	2
000017c3 02         3578 	.data.b	2
000017c4 02         3579 	.data.b	2
000017c5 02         3580 	.data.b	2
000017c6 010100     3581 	.data.b	0,1,1
                    3582 	.section	.debug_info
                    3583 .LDW_5da75a8:
00000cae 11         3584 	.data.b	17
00000caf 0078       3585 	.data.b	120,0
00000cb1 05f7       3586 	.data.b	247,5
00000cb3 4c         3587 	.data.b	76
00000cb4 01         3588 	.data.b	1
00000cb5 00000000*  3589 	.data.w	.LDW_5da74b8
00000cb9 00         3590 	.data.b	0
00000cba 5001       3591 	.data.b	1,80
                    3592 
                    3593 	.section	.debug_abbrev
00000140 11         3594 	.data.b	17
00000141 05         3595 	.data.b	5
00000142 00         3596 	.data.b	0
00000143 0803       3597 	.data.b	3,8
00000145 0f3b       3598 	.data.b	59,15
00000147 0f39       3599 	.data.b	57,15
00000149 0f3a       3600 	.data.b	58,15
0000014b 1049       3601 	.data.b	73,16
0000014d 0c4b       3602 	.data.b	75,12
0000014f 0a02       3603 	.data.b	2,10
00000151 0000       3604 	.data.b	0,0
                    3605 
                    3606 	.section	.debug_info
                    3607 .LDW_5da6078:
00000cbc 1f         3608 	.data.b	31
00000cbd 00000000*  3609 	.data.w	.LDW01
00000cc1 00000000*  3610 	.data.w	.LDW11
                    3611 
                    3612 	.section	.debug_abbrev
00000153 1f         3613 	.data.b	31
00000154 0b         3614 	.data.b	11
00000155 01         3615 	.data.b	1
00000156 0111       3616 	.data.b	17,1
00000158 0112       3617 	.data.b	18,1

                                                                      Page 88
                                                              C:\Users\Fengyuan\AppData\Local\Temp\gh_00006b81.s
0000015a 0000       3618 	.data.b	0,0
                    3619 
                    3620 	.section	.debug_info
                    3621 .LDW_5da7600:
00000cc5 06         3622 	.data.b	6
00000cc6 76746572   3623 	.data.b	114,101,116,118,97,108,0
00000cca 006c61 
00000ccd 05fa       3624 	.data.b	250,5
00000ccf 09         3625 	.data.b	9
00000cd0 01         3626 	.data.b	1
00000cd1 00000000*  3627 	.data.w	.LDW_5da7408
00000cd5 00         3628 	.data.b	0
00000cd6 00         3629 	.data.b	0
00000cd7 5101       3630 	.data.b	1,81
                    3631 
00000cd9 00         3632 	.data.b	0
                    3633 
00000cda 00         3634 	.data.b	0
                    3635 
                    3636 .LDW_5da7658:
00000cdb 17         3637 	.data.b	23
00000cdc 4d756345   3638 	.data.b	69,99,117,77,95,73,110,116,101,114,110,97,108,67,111,109,77,78,111,116,105,102,105,99,97,116,105,111,110,115,0
00000ce0 746e495f 
00000ce4 616e7265 
00000ce8 6d6f436c 
00000cec 746f4e4d 
00000cf0 63696669 
00000cf4 6f697461 
00000cf8 00736e 
00000cfb 09b6       3639 	.data.b	182,9
00000cfd 29         3640 	.data.b	41
00000cfe 01         3641 	.data.b	1
00000cff 00         3642 	.data.b	0
00000d00 03         3643 	.data.b	3
00000d01 00         3644 	.data.b	0
00000d02 01         3645 	.data.b	1
00000d03 00         3646 	.data.b	0
00000d04 01         3647 	.data.b	1
                    3648 
                    3649 .LDW_5da5dd8:
00000d05 22         3650 	.data.b	34
                    3651 
                    3652 	.section	.debug_abbrev
0000015c 22         3653 	.data.b	34
0000015d 0b         3654 	.data.b	11
0000015e 01         3655 	.data.b	1
0000015f 0000       3656 	.data.b	0,0
                    3657 
                    3658 	.section	.debug_info
                    3659 .LDW_5da7748:
00000d06 07         3660 	.data.b	7
00000d07 4d6d6f43   3661 	.data.b	67,111,109,77,83,116,97,116,117,115,0
00000d0b 74617453 
00000d0f 007375 
00000d12 09b9       3662 	.data.b	185,9
00000d14 17         3663 	.data.b	23
00000d15 01         3664 	.data.b	1
00000d16 00000000*  3665 	.data.w	.LDW_5da76f0
00000d1a 00         3666 	.data.b	0
00000d1b 00         3667 	.data.b	0
                    3668 

                                                                      Page 89
                                                              C:\Users\Fengyuan\AppData\Local\Temp\gh_00006b81.s
                    3669 .LDW_5da5e08:
00000d1c 22         3670 	.data.b	34
                    3671 
                    3672 .LDW_5f2cc18:
00000d1d 07         3673 	.data.b	7
00000d1e 72756f73   3674 	.data.b	115,111,117,114,99,101,73,68,0
00000d22 44496563 
00000d26 00 
00000d27 09c0       3675 	.data.b	192,9
00000d29 11         3676 	.data.b	17
00000d2a 01         3677 	.data.b	1
00000d2b 00000000*  3678 	.data.w	.LDW_5da77a0
00000d2f 00         3679 	.data.b	0
00000d30 00         3680 	.data.b	0
                    3681 
00000d31 00         3682 	.data.b	0
                    3683 
00000d32 00         3684 	.data.b	0
                    3685 
00000d33 00         3686 	.data.b	0
                    3687 
                    3688 .LDW_5f2cc70:
00000d34 17         3689 	.data.b	23
00000d35 4d756345   3690 	.data.b	69,99,117,77,95,73,110,116,101,114,110,97,108,67,108,101,97,114,87,97,107,101,117,112,69,118,101,110,116,0
00000d39 746e495f 
00000d3d 616e7265 
00000d41 656c436c 
00000d45 61577261 
00000d49 7075656b 
00000d4d 6e657645 
00000d51 0074 
00000d53 0dea       3691 	.data.b	234,13
00000d55 29         3692 	.data.b	41
00000d56 01         3693 	.data.b	1
00000d57 00         3694 	.data.b	0
00000d58 03         3695 	.data.b	3
00000d59 00         3696 	.data.b	0
00000d5a 01         3697 	.data.b	1
00000d5b 00         3698 	.data.b	0
00000d5c 01         3699 	.data.b	1
                    3700 
                    3701 .LDW_5f2cd08:
00000d5d 12         3702 	.data.b	18
00000d5e 656b6157   3703 	.data.b	87,97,107,101,117,112,83,111,117,114,99,101,0
00000d62 6f537075 
00000d66 65637275 
00000d6a 00 
00000d6b 0deb       3704 	.data.b	235,13
00000d6d 2b         3705 	.data.b	43
00000d6e 01         3706 	.data.b	1
00000d6f 00000000*  3707 	.data.w	.LDW_5da74b8
00000d73 00         3708 	.data.b	0
                    3709 
                    3710 	.section	.debug_abbrev
00000161 12         3711 	.data.b	18
00000162 05         3712 	.data.b	5
00000163 00         3713 	.data.b	0
00000164 0803       3714 	.data.b	3,8
00000166 0f3b       3715 	.data.b	59,15
00000168 0f39       3716 	.data.b	57,15
0000016a 0f3a       3717 	.data.b	58,15

                                                                      Page 90
                                                              C:\Users\Fengyuan\AppData\Local\Temp\gh_00006b81.s
0000016c 1049       3718 	.data.b	73,16
0000016e 0c4b       3719 	.data.b	75,12
00000170 0000       3720 	.data.b	0,0
                    3721 
                    3722 	.section	.debug_info
                    3723 .LDW_5da5e98:
00000d74 22         3724 	.data.b	34
                    3725 
00000d75 00         3726 	.data.b	0
                    3727 
00000d76 00         3728 	.data.b	0
                    3729 
                    3730 .LDW_5f2cd60:
00000d77 15         3731 	.data.b	21
00000d78 4d756345   3732 	.data.b	69,99,117,77,95,77,97,105,110,70,117,110,99,116,105,111,110,0
00000d7c 69614d5f 
00000d80 6e75466e 
00000d84 6f697463 
00000d88 006e 
00000d8a 16c0       3733 	.data.b	192,22
00000d8c 17         3734 	.data.b	23
00000d8d 01         3735 	.data.b	1
00000d8e 00000000*  3736 	.data.w	EcuM_MainFunction
00000d92 00000000*  3737 	.data.w	__ghs_eofn_EcuM_MainFunction
00000d96 5d01       3738 	.data.b	1,93
00000d98 0180f0     3739 	.data.b	240,128,1
00000d9b 74         3740 	.data.b	116
00000d9c 00         3741 	.data.b	0
00000d9d 10         3742 	.data.b	16
00000d9e 01         3743 	.data.b	1
00000d9f 00         3744 	.data.b	0
00000da0 00         3745 	.data.b	0
00000da1 01         3746 	.data.b	1
00000da2 01         3747 	.data.b	1
00000da3 00         3748 	.data.b	0
00000da4 01         3749 	.data.b	1
                    3750 
                    3751 	.section	.debug_abbrev
00000172 15         3752 	.data.b	21
00000173 2e         3753 	.data.b	46
00000174 01         3754 	.data.b	1
00000175 0803       3755 	.data.b	3,8
00000177 0f3b       3756 	.data.b	59,15
00000179 0f39       3757 	.data.b	57,15
0000017b 0f3a       3758 	.data.b	58,15
0000017d 0111       3759 	.data.b	17,1
0000017f 0112       3760 	.data.b	18,1
00000181 0a40       3761 	.data.b	64,10
00000183 4183       3762 	.data.b	131,65
00000185 0f         3763 	.data.b	15
00000186 4187       3764 	.data.b	135,65
00000188 0d         3765 	.data.b	13
00000189 4185       3766 	.data.b	133,65
0000018b 0f         3767 	.data.b	15
0000018c 4186       3768 	.data.b	134,65
0000018e 0d         3769 	.data.b	13
0000018f 4192       3770 	.data.b	146,65
00000191 0f         3771 	.data.b	15
00000192 0c3c       3772 	.data.b	60,12
00000194 0b20       3773 	.data.b	32,11
00000196 0c3f       3774 	.data.b	63,12

                                                                      Page 91
                                                              C:\Users\Fengyuan\AppData\Local\Temp\gh_00006b81.s
00000198 0b32       3775 	.data.b	50,11
0000019a 0b4c       3776 	.data.b	76,11
0000019c 0c27       3777 	.data.b	39,12
0000019e 0000       3778 	.data.b	0,0
                    3779 
                    3780 	.section	.debug_frame
                    3781 .LDW_6338430:
000000a8 00000000*  3782 	.data.w	.LDW_unq_6-.LDW_unq_5
                    3783 .LDW_unq_5:
000000ac 00000000*  3784 	.data.w	.LDW_626e228
000000b0 00000000*  3785 	.data.w	EcuM_MainFunction
000000b4 00000040   3786 	.data.w	__ghs_eofn_EcuM_MainFunction-EcuM_MainFunction
000000b8 01         3787 	.data.b	1
000000b9 00000000*  3788 	.data.w	.LDW31
000000bd 00         3789 	.data.b	0
000000be 00         3790 	.data.b	0
000000bf 00         3791 	.data.b	0
                    3792 .LDW_unq_6:
                    3793 	.section	.debug_line
000017c9 020500     3794 	.data.b	0,5,2
000017cc 00000000*  3795 	.data.w	EcuM_MainFunction
000017d0 06         3796 	.data.b	6
000017d1 03         3797 	.data.b	3
000017d2 16c0       3798 	.data.b	192,22
000017d4 02         3799 	.data.b	2
000017d5 00         3800 	.data.b	0
000017d6 01         3801 	.data.b	1
000017d7 03         3802 	.data.b	3
000017d8 28         3803 	.data.b	40
000017d9 02         3804 	.data.b	2
000017da 06         3805 	.data.b	6
000017db 01         3806 	.data.b	1
000017dc 1b         3807 	.data.b	27
000017dd 0b         3808 	.data.b	11
000017de 020500     3809 	.data.b	0,5,2
000017e1 00000000*  3810 	.data.w	.LDWlin3
000017e5 0b         3811 	.data.b	11
000017e6 02         3812 	.data.b	2
000017e7 00         3813 	.data.b	0
000017e8 03         3814 	.data.b	3
000017e9 00e7       3815 	.data.b	231,0
000017eb 02         3816 	.data.b	2
000017ec 00         3817 	.data.b	0
000017ed 01         3818 	.data.b	1
000017ee 02         3819 	.data.b	2
000017ef 04         3820 	.data.b	4
000017f0 010100     3821 	.data.b	0,1,1
                    3822 	.section	.debug_info
                    3823 .LDW_5da5ec8:
00000da5 1f         3824 	.data.b	31
00000da6 00000000*  3825 	.data.w	.LDW21
00000daa 00000000*  3826 	.data.w	.LDW31
                    3827 
00000dae 00         3828 	.data.b	0
                    3829 
00000daf 00         3830 	.data.b	0
                    3831 
                    3832 .LDW_5f2cdf8:
00000db0 15         3833 	.data.b	21
00000db1 4d756345   3834 	.data.b	69,99,117,77,95,73,110,105,116,0
00000db5 696e495f 

                                                                      Page 92
                                                              C:\Users\Fengyuan\AppData\Local\Temp\gh_00006b81.s
00000db9 0074 
00000dbb 17eb       3835 	.data.b	235,23
00000dbd 17         3836 	.data.b	23
00000dbe 01         3837 	.data.b	1
00000dbf 00000000*  3838 	.data.w	EcuM_Init
00000dc3 00000000*  3839 	.data.w	__ghs_eofn_EcuM_Init
00000dc7 5d01       3840 	.data.b	1,93
00000dc9 018090     3841 	.data.b	144,128,1
00000dcc 7c         3842 	.data.b	124
00000dcd 00         3843 	.data.b	0
00000dce 04         3844 	.data.b	4
00000dcf 01         3845 	.data.b	1
00000dd0 00         3846 	.data.b	0
00000dd1 00         3847 	.data.b	0
00000dd2 01         3848 	.data.b	1
00000dd3 01         3849 	.data.b	1
00000dd4 00         3850 	.data.b	0
00000dd5 01         3851 	.data.b	1
                    3852 
                    3853 	.section	.debug_frame
                    3854 .LDW_5dd82d0:
000000c0 00000000*  3855 	.data.w	.LDW_unq_8-.LDW_unq_7
                    3856 .LDW_unq_7:
000000c4 00000000*  3857 	.data.w	.LDW_626e228
000000c8 00000000*  3858 	.data.w	EcuM_Init
000000cc 0000004a   3859 	.data.w	__ghs_eofn_EcuM_Init-EcuM_Init
000000d0 01         3860 	.data.b	1
000000d1 00000000*  3861 	.data.w	.LDW51
000000d5 00         3862 	.data.b	0
000000d6 00         3863 	.data.b	0
000000d7 00         3864 	.data.b	0
                    3865 .LDW_unq_8:
                    3866 	.section	.debug_line
000017f3 020500     3867 	.data.b	0,5,2
000017f6 00000000*  3868 	.data.w	EcuM_Init
000017fa 06         3869 	.data.b	6
000017fb 03         3870 	.data.b	3
000017fc 17eb       3871 	.data.b	235,23
000017fe 02         3872 	.data.b	2
000017ff 00         3873 	.data.b	0
00001800 01         3874 	.data.b	1
00001801 03         3875 	.data.b	3
00001802 29         3876 	.data.b	41
00001803 02         3877 	.data.b	2
00001804 04         3878 	.data.b	4
00001805 01         3879 	.data.b	1
00001806 25         3880 	.data.b	37
00001807 1d         3881 	.data.b	29
00001808 03         3882 	.data.b	3
00001809 0d         3883 	.data.b	13
0000180a 02         3884 	.data.b	2
0000180b 04         3885 	.data.b	4
0000180c 01         3886 	.data.b	1
0000180d 03         3887 	.data.b	3
0000180e 07         3888 	.data.b	7
0000180f 02         3889 	.data.b	2
00001810 08         3890 	.data.b	8
00001811 01         3891 	.data.b	1
00001812 15         3892 	.data.b	21
00001813 03         3893 	.data.b	3
00001814 11         3894 	.data.b	17

                                                                      Page 93
                                                              C:\Users\Fengyuan\AppData\Local\Temp\gh_00006b81.s
00001815 02         3895 	.data.b	2
00001816 04         3896 	.data.b	4
00001817 01         3897 	.data.b	1
00001818 03         3898 	.data.b	3
00001819 26         3899 	.data.b	38
0000181a 02         3900 	.data.b	2
0000181b 06         3901 	.data.b	6
0000181c 01         3902 	.data.b	1
0000181d 03         3903 	.data.b	3
0000181e 31         3904 	.data.b	49
0000181f 02         3905 	.data.b	2
00001820 06         3906 	.data.b	6
00001821 01         3907 	.data.b	1
00001822 2d         3908 	.data.b	45
00001823 03         3909 	.data.b	3
00001824 07         3910 	.data.b	7
00001825 02         3911 	.data.b	2
00001826 06         3912 	.data.b	6
00001827 01         3913 	.data.b	1
00001828 1b         3914 	.data.b	27
00001829 03         3915 	.data.b	3
0000182a 18         3916 	.data.b	24
0000182b 02         3917 	.data.b	2
0000182c 04         3918 	.data.b	4
0000182d 01         3919 	.data.b	1
0000182e 25         3920 	.data.b	37
0000182f 02         3921 	.data.b	2
00001830 02         3922 	.data.b	2
00001831 010100     3923 	.data.b	0,1,1
                    3924 	.section	.debug_info
                    3925 .LDW_5da60a8:
00000dd6 1f         3926 	.data.b	31
00000dd7 00000000*  3927 	.data.w	.LDW41
00000ddb 00000000*  3928 	.data.w	.LDW51
                    3929 
00000ddf 00         3930 	.data.b	0
                    3931 
00000de0 00         3932 	.data.b	0
                    3933 
                    3934 .LDW_5f2ce90:
00000de1 15         3935 	.data.b	21
00000de2 4d756345   3936 	.data.b	69,99,117,77,95,83,104,117,116,100,111,119,110,0
00000de6 7568535f 
00000dea 776f6474 
00000dee 006e 
00000df0 19d3       3937 	.data.b	211,25
00000df2 17         3938 	.data.b	23
00000df3 01         3939 	.data.b	1
00000df4 00000000*  3940 	.data.w	EcuM_Shutdown
00000df8 00000000*  3941 	.data.w	__ghs_eofn_EcuM_Shutdown
00000dfc 5d01       3942 	.data.b	1,93
00000dfe 018090     3943 	.data.b	144,128,1
00000e01 7c         3944 	.data.b	124
00000e02 00         3945 	.data.b	0
00000e03 04         3946 	.data.b	4
00000e04 01         3947 	.data.b	1
00000e05 00         3948 	.data.b	0
00000e06 00         3949 	.data.b	0
00000e07 01         3950 	.data.b	1
00000e08 01         3951 	.data.b	1
00000e09 00         3952 	.data.b	0

                                                                      Page 94
                                                              C:\Users\Fengyuan\AppData\Local\Temp\gh_00006b81.s
00000e0a 01         3953 	.data.b	1
                    3954 
                    3955 	.section	.debug_frame
                    3956 .LDW_5dd8410:
000000d8 00000000*  3957 	.data.w	.LDW_unq_a-.LDW_unq_9
                    3958 .LDW_unq_9:
000000dc 00000000*  3959 	.data.w	.LDW_626e228
000000e0 00000000*  3960 	.data.w	EcuM_Shutdown
000000e4 00000042   3961 	.data.w	__ghs_eofn_EcuM_Shutdown-EcuM_Shutdown
000000e8 01         3962 	.data.b	1
000000e9 00000000*  3963 	.data.w	.LDW71
000000ed 00         3964 	.data.b	0
000000ee 00         3965 	.data.b	0
000000ef 00         3966 	.data.b	0
                    3967 .LDW_unq_a:
                    3968 	.section	.debug_line
00001834 020500     3969 	.data.b	0,5,2
00001837 00000000*  3970 	.data.w	EcuM_Shutdown
0000183b 06         3971 	.data.b	6
0000183c 03         3972 	.data.b	3
0000183d 19d3       3973 	.data.b	211,25
0000183f 02         3974 	.data.b	2
00001840 00         3975 	.data.b	0
00001841 01         3976 	.data.b	1
00001842 03         3977 	.data.b	3
00001843 06         3978 	.data.b	6
00001844 02         3979 	.data.b	2
00001845 02         3980 	.data.b	2
00001846 01         3981 	.data.b	1
00001847 020500     3982 	.data.b	0,5,2
0000184a 00000000*  3983 	.data.w	.LDWlin4
0000184e 0b         3984 	.data.b	11
0000184f 0b         3985 	.data.b	11
00001850 020500     3986 	.data.b	0,5,2
00001853 00000000*  3987 	.data.w	.LDWlin5
00001857 0b         3988 	.data.b	11
00001858 0d         3989 	.data.b	13
00001859 0d         3990 	.data.b	13
0000185a 1d         3991 	.data.b	29
0000185b 1d         3992 	.data.b	29
0000185c 1b         3993 	.data.b	27
0000185d 03         3994 	.data.b	3
0000185e 09         3995 	.data.b	9
0000185f 02         3996 	.data.b	2
00001860 04         3997 	.data.b	4
00001861 01         3998 	.data.b	1
00001862 020500     3999 	.data.b	0,5,2
00001865 00000000*  4000 	.data.w	.LDWlin6
00001869 03         4001 	.data.b	3
0000186a 04         4002 	.data.b	4
0000186b 02         4003 	.data.b	2
0000186c 00         4004 	.data.b	0
0000186d 01         4005 	.data.b	1
0000186e 1b         4006 	.data.b	27
0000186f 020500     4007 	.data.b	0,5,2
00001872 00000000*  4008 	.data.w	.LDWlin7
00001876 03         4009 	.data.b	3
00001877 04         4010 	.data.b	4
00001878 02         4011 	.data.b	2
00001879 00         4012 	.data.b	0
0000187a 01         4013 	.data.b	1

                                                                      Page 95
                                                              C:\Users\Fengyuan\AppData\Local\Temp\gh_00006b81.s
0000187b 1b         4014 	.data.b	27
0000187c 020500     4015 	.data.b	0,5,2
0000187f 00000000*  4016 	.data.w	.LDWlin8
00001883 0c         4017 	.data.b	12
00001884 0c         4018 	.data.b	12
00001885 13         4019 	.data.b	19
00001886 02         4020 	.data.b	2
00001887 00         4021 	.data.b	0
00001888 0b         4022 	.data.b	11
00001889 02         4023 	.data.b	2
0000188a 00         4024 	.data.b	0
0000188b 03         4025 	.data.b	3
0000188c 04         4026 	.data.b	4
0000188d 02         4027 	.data.b	2
0000188e 00         4028 	.data.b	0
0000188f 01         4029 	.data.b	1
00001890 0b         4030 	.data.b	11
00001891 0b         4031 	.data.b	11
00001892 33         4032 	.data.b	51
00001893 02         4033 	.data.b	2
00001894 00         4034 	.data.b	0
00001895 03         4035 	.data.b	3
00001896 04         4036 	.data.b	4
00001897 02         4037 	.data.b	2
00001898 00         4038 	.data.b	0
00001899 01         4039 	.data.b	1
0000189a 02         4040 	.data.b	2
0000189b 02         4041 	.data.b	2
0000189c 010100     4042 	.data.b	0,1,1
                    4043 	.section	.debug_info
                    4044 .LDW_5da5f28:
00000e0b 1f         4045 	.data.b	31
00000e0c 00000000*  4046 	.data.w	.LDW61
00000e10 00000000*  4047 	.data.w	.LDW71
                    4048 
                    4049 .LDW_5f2cf28:
00000e14 07         4050 	.data.b	7
00000e15 6f727265   4051 	.data.b	101,114,114,111,114,73,100,0
00000e19 00644972 
00000e1d 19d6       4052 	.data.b	214,25
00000e1f 09         4053 	.data.b	9
00000e20 01         4054 	.data.b	1
00000e21 00000000*  4055 	.data.w	.LDW_5da7408
00000e25 00         4056 	.data.b	0
00000e26 00         4057 	.data.b	0
                    4058 
00000e27 00         4059 	.data.b	0
                    4060 
00000e28 00         4061 	.data.b	0
                    4062 
                    4063 .LDW_4b3c3a0:
00000e29 16         4064 	.data.b	22
00000e2a 4d756345   4065 	.data.b	69,99,117,77,95,83,101,108,101,99,116,83,104,117,116,100,111,119,110,84,97,114,103,101,116,0
00000e2e 6c65535f 
00000e32 53746365 
00000e36 64747568 
00000e3a 546e776f 
00000e3e 65677261 
00000e42 0074 
00000e44 1a9d       4066 	.data.b	157,26
00000e46 21         4067 	.data.b	33

                                                                      Page 96
                                                              C:\Users\Fengyuan\AppData\Local\Temp\gh_00006b81.s
00000e47 01         4068 	.data.b	1
00000e48 00000000*  4069 	.data.w	.LDW_5f2cf80
00000e4c 00000000*  4070 	.data.w	EcuM_SelectShutdownTarget
00000e50 00000000*  4071 	.data.w	__ghs_eofn_EcuM_SelectShutdownTarget
00000e54 5d01       4072 	.data.b	1,93
00000e56 0180a0     4073 	.data.b	160,128,1
00000e59 7c         4074 	.data.b	124
00000e5a 00         4075 	.data.b	0
00000e5b 04         4076 	.data.b	4
00000e5c 01         4077 	.data.b	1
00000e5d 00         4078 	.data.b	0
00000e5e 00         4079 	.data.b	0
00000e5f 01         4080 	.data.b	1
00000e60 01         4081 	.data.b	1
00000e61 00         4082 	.data.b	0
00000e62 01         4083 	.data.b	1
                    4084 
                    4085 	.section	.debug_frame
                    4086 .LDW_5dd8490:
000000f0 00000000*  4087 	.data.w	.LDW_unq_c-.LDW_unq_b
                    4088 .LDW_unq_b:
000000f4 00000000*  4089 	.data.w	.LDW_626e228
000000f8 00000000*  4090 	.data.w	EcuM_SelectShutdownTarget
000000fc 00000042   4091 	.data.w	__ghs_eofn_EcuM_SelectShutdownTarget-EcuM_SelectShutdownTarget
00000100 01         4092 	.data.b	1
00000101 00000000*  4093 	.data.w	.LDW91
00000105 00         4094 	.data.b	0
00000106 00         4095 	.data.b	0
00000107 00         4096 	.data.b	0
                    4097 .LDW_unq_c:
                    4098 	.section	.debug_line
0000189f 020500     4099 	.data.b	0,5,2
000018a2 00000000*  4100 	.data.w	EcuM_SelectShutdownTarget
000018a6 06         4101 	.data.b	6
000018a7 03         4102 	.data.b	3
000018a8 1a9e       4103 	.data.b	158,26
000018aa 02         4104 	.data.b	2
000018ab 00         4105 	.data.b	0
000018ac 01         4106 	.data.b	1
000018ad 03         4107 	.data.b	3
000018ae 08         4108 	.data.b	8
000018af 02         4109 	.data.b	2
000018b0 02         4110 	.data.b	2
000018b1 01         4111 	.data.b	1
000018b2 020500     4112 	.data.b	0,5,2
000018b5 00000000*  4113 	.data.w	.LDWlin9
000018b9 0b         4114 	.data.b	11
000018ba 0b         4115 	.data.b	11
000018bb 03         4116 	.data.b	3
000018bc 34         4117 	.data.b	52
000018bd 02         4118 	.data.b	2
000018be 02         4119 	.data.b	2
000018bf 01         4120 	.data.b	1
000018c0 02         4121 	.data.b	2
000018c1 00         4122 	.data.b	0
000018c2 02         4123 	.data.b	2
000018c3 00         4124 	.data.b	0
000018c4 02         4125 	.data.b	2
000018c5 00         4126 	.data.b	0
000018c6 03         4127 	.data.b	3
000018c7 04         4128 	.data.b	4

                                                                      Page 97
                                                              C:\Users\Fengyuan\AppData\Local\Temp\gh_00006b81.s
000018c8 02         4129 	.data.b	2
000018c9 00         4130 	.data.b	0
000018ca 01         4131 	.data.b	1
000018cb 06         4132 	.data.b	6
000018cc 03         4133 	.data.b	3
000018cd 68         4134 	.data.b	104
000018ce 02         4135 	.data.b	2
000018cf 00         4136 	.data.b	0
000018d0 01         4137 	.data.b	1
000018d1 03         4138 	.data.b	3
000018d2 61         4139 	.data.b	97
000018d3 02         4140 	.data.b	2
000018d4 00         4141 	.data.b	0
000018d5 01         4142 	.data.b	1
000018d6 06         4143 	.data.b	6
000018d7 03         4144 	.data.b	3
000018d8 38         4145 	.data.b	56
000018d9 02         4146 	.data.b	2
000018da 00         4147 	.data.b	0
000018db 01         4148 	.data.b	1
000018dc 0b         4149 	.data.b	11
000018dd 3b         4150 	.data.b	59
000018de 02         4151 	.data.b	2
000018df 00         4152 	.data.b	0
000018e0 03         4153 	.data.b	3
000018e1 05         4154 	.data.b	5
000018e2 02         4155 	.data.b	2
000018e3 00         4156 	.data.b	0
000018e4 01         4157 	.data.b	1
000018e5 020500     4158 	.data.b	0,5,2
000018e8 00000000*  4159 	.data.w	.LDWlin10
000018ec 03         4160 	.data.b	3
000018ed 5e         4161 	.data.b	94
000018ee 02         4162 	.data.b	2
000018ef 00         4163 	.data.b	0
000018f0 01         4164 	.data.b	1
000018f1 0b         4165 	.data.b	11
000018f2 020500     4166 	.data.b	0,5,2
000018f5 00000000*  4167 	.data.w	.LDWlin11
000018f9 03         4168 	.data.b	3
000018fa 63         4169 	.data.b	99
000018fb 02         4170 	.data.b	2
000018fc 00         4171 	.data.b	0
000018fd 01         4172 	.data.b	1
000018fe 03         4173 	.data.b	3
000018ff 08         4174 	.data.b	8
00001900 02         4175 	.data.b	2
00001901 00         4176 	.data.b	0
00001902 01         4177 	.data.b	1
00001903 02         4178 	.data.b	2
00001904 00         4179 	.data.b	0
00001905 020500     4180 	.data.b	0,5,2
00001908 00000000*  4181 	.data.w	.LDWlin12
0000190c 03         4182 	.data.b	3
0000190d 17         4183 	.data.b	23
0000190e 02         4184 	.data.b	2
0000190f 00         4185 	.data.b	0
00001910 01         4186 	.data.b	1
00001911 0c         4187 	.data.b	12
00001912 0d         4188 	.data.b	13
00001913 14         4189 	.data.b	20

                                                                      Page 98
                                                              C:\Users\Fengyuan\AppData\Local\Temp\gh_00006b81.s
00001914 020500     4190 	.data.b	0,5,2
00001917 00000000*  4191 	.data.w	.LDWlin13
0000191b 03         4192 	.data.b	3
0000191c 04         4193 	.data.b	4
0000191d 02         4194 	.data.b	2
0000191e 00         4195 	.data.b	0
0000191f 01         4196 	.data.b	1
00001920 0c         4197 	.data.b	12
00001921 0c         4198 	.data.b	12
00001922 13         4199 	.data.b	19
00001923 02         4200 	.data.b	2
00001924 00         4201 	.data.b	0
00001925 0c         4202 	.data.b	12
00001926 06         4203 	.data.b	6
00001927 02         4204 	.data.b	2
00001928 04         4205 	.data.b	4
00001929 02         4206 	.data.b	2
0000192a 02         4207 	.data.b	2
0000192b 010100     4208 	.data.b	0,1,1
                    4209 	.section	.debug_info
                    4210 .LDW_4b3c2a0:
00000e63 11         4211 	.data.b	17
00000e64 67726174   4212 	.data.b	116,97,114,103,101,116,83,116,97,116,101,0
00000e68 74537465 
00000e6c 00657461 
00000e70 1a9d       4213 	.data.b	157,26
00000e72 5a         4214 	.data.b	90
00000e73 01         4215 	.data.b	1
00000e74 00000000*  4216 	.data.w	.LDW_4b3be80
00000e78 00         4217 	.data.b	0
00000e79 5001       4218 	.data.b	1,80
                    4219 
                    4220 .LDW_4b3c2f8:
00000e7b 11         4221 	.data.b	17
00000e7c 65736572   4222 	.data.b	114,101,115,101,116,83,108,101,101,112,77,111,100,101,0
00000e80 656c5374 
00000e84 6f4d7065 
00000e88 006564 
00000e8b 1a9e       4223 	.data.b	158,26
00000e8d 17         4224 	.data.b	23
00000e8e 01         4225 	.data.b	1
00000e8f 00000000*  4226 	.data.w	.LDW_5da7408
00000e93 00         4227 	.data.b	0
00000e94 5101       4228 	.data.b	1,81
                    4229 
                    4230 .LDW_5da5fe8:
00000e96 1f         4231 	.data.b	31
00000e97 00000000*  4232 	.data.w	.LDW81
00000e9b 00000000*  4233 	.data.w	.LDW91
                    4234 
                    4235 .LDW_4b3bcc8:
00000e9f 06         4236 	.data.b	6
00000ea0 6f727265   4237 	.data.b	101,114,114,111,114,73,100,0
00000ea4 00644972 
00000ea8 1aa1       4238 	.data.b	161,26
00000eaa 09         4239 	.data.b	9
00000eab 01         4240 	.data.b	1
00000eac 00000000*  4241 	.data.w	.LDW_5da7408
00000eb0 00         4242 	.data.b	0
00000eb1 00         4243 	.data.b	0
00000eb2 5301       4244 	.data.b	1,83

                                                                      Page 99
                                                              C:\Users\Fengyuan\AppData\Local\Temp\gh_00006b81.s
                    4245 
                    4246 .LDW_4b3bf88:
00000eb4 06         4247 	.data.b	6
00000eb5 76746572   4248 	.data.b	114,101,116,118,97,108,0
00000eb9 006c61 
00000ebc 1aa2       4249 	.data.b	162,26
00000ebe 12         4250 	.data.b	18
00000ebf 01         4251 	.data.b	1
00000ec0 00000000*  4252 	.data.w	.LDW_5f2cf80
00000ec4 00         4253 	.data.b	0
00000ec5 00         4254 	.data.b	0
00000ec6 5401       4255 	.data.b	1,84
                    4256 
00000ec8 00         4257 	.data.b	0
                    4258 
00000ec9 00         4259 	.data.b	0
                    4260 
                    4261 .LDW_4b3c438:
00000eca 16         4262 	.data.b	22
00000ecb 4d756345   4263 	.data.b	69,99,117,77,95,71,101,116,83,104,117,116,100,111,119,110,84,97,114,103,101,116,0
00000ecf 7465475f 
00000ed3 74756853 
00000ed7 6e776f64 
00000edb 67726154 
00000edf 007465 
00000ee2 1af7       4264 	.data.b	247,26
00000ee4 21         4265 	.data.b	33
00000ee5 01         4266 	.data.b	1
00000ee6 00000000*  4267 	.data.w	.LDW_5f2cf80
00000eea 00000000*  4268 	.data.w	EcuM_GetShutdownTarget
00000eee 00000000*  4269 	.data.w	__ghs_eofn_EcuM_GetShutdownTarget
00000ef2 5d01       4270 	.data.b	1,93
00000ef4 0180b0     4271 	.data.b	176,128,1
00000ef7 78         4272 	.data.b	120
00000ef8 00         4273 	.data.b	0
00000ef9 08         4274 	.data.b	8
00000efa 01         4275 	.data.b	1
00000efb 00         4276 	.data.b	0
00000efc 00         4277 	.data.b	0
00000efd 01         4278 	.data.b	1
00000efe 01         4279 	.data.b	1
00000eff 00         4280 	.data.b	0
00000f00 01         4281 	.data.b	1
                    4282 
                    4283 	.section	.debug_frame
                    4284 .LDW_5dd8550:
00000108 00000000*  4285 	.data.w	.LDW_unq_e-.LDW_unq_d
                    4286 .LDW_unq_d:
0000010c 00000000*  4287 	.data.w	.LDW_626e228
00000110 00000000*  4288 	.data.w	EcuM_GetShutdownTarget
00000114 00000032   4289 	.data.w	__ghs_eofn_EcuM_GetShutdownTarget-EcuM_GetShutdownTarget
00000118 01         4290 	.data.b	1
00000119 00000000*  4291 	.data.w	.LDW12
0000011d 00         4292 	.data.b	0
0000011e 00         4293 	.data.b	0
0000011f 00         4294 	.data.b	0
                    4295 .LDW_unq_e:
                    4296 	.section	.debug_line
0000192e 020500     4297 	.data.b	0,5,2
00001931 00000000*  4298 	.data.w	EcuM_GetShutdownTarget
00001935 06         4299 	.data.b	6

                                                                      Page 100
                                                              C:\Users\Fengyuan\AppData\Local\Temp\gh_00006b81.s
00001936 03         4300 	.data.b	3
00001937 1af9       4301 	.data.b	249,26
00001939 02         4302 	.data.b	2
0000193a 00         4303 	.data.b	0
0000193b 01         4304 	.data.b	1
0000193c 14         4305 	.data.b	20
0000193d 03         4306 	.data.b	3
0000193e 06         4307 	.data.b	6
0000193f 02         4308 	.data.b	2
00001940 02         4309 	.data.b	2
00001941 01         4310 	.data.b	1
00001942 020500     4311 	.data.b	0,5,2
00001945 00000000*  4312 	.data.w	.LDWlin14
00001949 0b         4313 	.data.b	11
0000194a 0b         4314 	.data.b	11
0000194b 03         4315 	.data.b	3
0000194c 13         4316 	.data.b	19
0000194d 02         4317 	.data.b	2
0000194e 02         4318 	.data.b	2
0000194f 01         4319 	.data.b	1
00001950 02         4320 	.data.b	2
00001951 00         4321 	.data.b	0
00001952 02         4322 	.data.b	2
00001953 00         4323 	.data.b	0
00001954 02         4324 	.data.b	2
00001955 00         4325 	.data.b	0
00001956 03         4326 	.data.b	3
00001957 04         4327 	.data.b	4
00001958 02         4328 	.data.b	2
00001959 00         4329 	.data.b	0
0000195a 01         4330 	.data.b	1
0000195b 0b         4331 	.data.b	11
0000195c 0b         4332 	.data.b	11
0000195d 020500     4333 	.data.b	0,5,2
00001960 00000000*  4334 	.data.w	.LDWlin15
00001964 03         4335 	.data.b	3
00001965 68         4336 	.data.b	104
00001966 02         4337 	.data.b	2
00001967 00         4338 	.data.b	0
00001968 01         4339 	.data.b	1
00001969 03         4340 	.data.b	3
0000196a 04         4341 	.data.b	4
0000196b 02         4342 	.data.b	2
0000196c 00         4343 	.data.b	0
0000196d 01         4344 	.data.b	1
0000196e 02         4345 	.data.b	2
0000196f 00         4346 	.data.b	0
00001970 1b         4347 	.data.b	27
00001971 0b         4348 	.data.b	11
00001972 020500     4349 	.data.b	0,5,2
00001975 00000000*  4350 	.data.w	.LDWlin16
00001979 0b         4351 	.data.b	11
0000197a 0c         4352 	.data.b	12
0000197b 03         4353 	.data.b	3
0000197c 04         4354 	.data.b	4
0000197d 02         4355 	.data.b	2
0000197e 00         4356 	.data.b	0
0000197f 01         4357 	.data.b	1
00001980 1c         4358 	.data.b	28
00001981 1c         4359 	.data.b	28
00001982 03         4360 	.data.b	3

                                                                      Page 101
                                                              C:\Users\Fengyuan\AppData\Local\Temp\gh_00006b81.s
00001983 08         4361 	.data.b	8
00001984 02         4362 	.data.b	2
00001985 02         4363 	.data.b	2
00001986 01         4364 	.data.b	1
00001987 02         4365 	.data.b	2
00001988 00         4366 	.data.b	0
00001989 03         4367 	.data.b	3
0000198a 05         4368 	.data.b	5
0000198b 02         4369 	.data.b	2
0000198c 00         4370 	.data.b	0
0000198d 01         4371 	.data.b	1
0000198e 06         4372 	.data.b	6
0000198f 02         4373 	.data.b	2
00001990 02         4374 	.data.b	2
00001991 02         4375 	.data.b	2
00001992 02         4376 	.data.b	2
00001993 010100     4377 	.data.b	0,1,1
                    4378 	.section	.debug_info
                    4379 .LDW_4b3bed8:
00000f01 11         4380 	.data.b	17
00000f02 67726174   4381 	.data.b	116,97,114,103,101,116,0
00000f06 007465 
00000f09 1af8       4382 	.data.b	248,26
00000f0b 32         4383 	.data.b	50
00000f0c 01         4384 	.data.b	1
00000f0d 00000000*  4385 	.data.w	.LDW_4b1d6b8
00000f11 00         4386 	.data.b	0
00000f12 5001       4387 	.data.b	1,80
                    4388 
                    4389 .LDW_4b3be28:
00000f14 11         4390 	.data.b	17
00000f15 65736572   4391 	.data.b	114,101,115,101,116,83,108,101,101,112,77,111,100,101,0
00000f19 656c5374 
00000f1d 6f4d7065 
00000f21 006564 
00000f24 1af9       4392 	.data.b	249,26
00000f26 29         4393 	.data.b	41
00000f27 01         4394 	.data.b	1
00000f28 00000000*  4395 	.data.w	.LDW_4b1d878
00000f2c 00         4396 	.data.b	0
00000f2d 5101       4397 	.data.b	1,81
                    4398 
                    4399 .LDW_5da6168:
00000f2f 1f         4400 	.data.b	31
00000f30 00000000*  4401 	.data.w	.LDW02
00000f34 00000000*  4402 	.data.w	.LDW12
                    4403 
                    4404 .LDW_4b3bc18:
00000f38 06         4405 	.data.b	6
00000f39 76746572   4406 	.data.b	114,101,116,118,97,108,0
00000f3d 006c61 
00000f40 1afc       4407 	.data.b	252,26
00000f42 12         4408 	.data.b	18
00000f43 01         4409 	.data.b	1
00000f44 00000000*  4410 	.data.w	.LDW_5f2cf80
00000f48 00         4411 	.data.b	0
00000f49 00         4412 	.data.b	0
00000f4a 5401       4413 	.data.b	1,84
                    4414 
                    4415 .LDW_4b3bf30:
00000f4c 07         4416 	.data.b	7

                                                                      Page 102
                                                              C:\Users\Fengyuan\AppData\Local\Temp\gh_00006b81.s
00000f4d 6f727265   4417 	.data.b	101,114,114,111,114,73,100,0
00000f51 00644972 
00000f55 1afd       4418 	.data.b	253,26
00000f57 09         4419 	.data.b	9
00000f58 01         4420 	.data.b	1
00000f59 00000000*  4421 	.data.w	.LDW_5da7408
00000f5d 00         4422 	.data.b	0
00000f5e 00         4423 	.data.b	0
                    4424 
00000f5f 00         4425 	.data.b	0
                    4426 
00000f60 00         4427 	.data.b	0
                    4428 
                    4429 .LDW_4b3c4d0:
00000f61 16         4430 	.data.b	22
00000f62 4d756345   4431 	.data.b	69,99,117,77,95,71,101,116,76,97,115,116,83,104,117,116,100,111,119,110,84,97,114,103,101,116,0
00000f66 7465475f 
00000f6a 7473614c 
00000f6e 74756853 
00000f72 6e776f64 
00000f76 67726154 
00000f7a 007465 
00000f7d 1bb1       4432 	.data.b	177,27
00000f7f 21         4433 	.data.b	33
00000f80 01         4434 	.data.b	1
00000f81 00000000*  4435 	.data.w	.LDW_5f2cf80
00000f85 00000000*  4436 	.data.w	EcuM_GetLastShutdownTarget
00000f89 00000000*  4437 	.data.w	__ghs_eofn_EcuM_GetLastShutdownTarget
00000f8d 5d01       4438 	.data.b	1,93
00000f8f 0180b0     4439 	.data.b	176,128,1
00000f92 78         4440 	.data.b	120
00000f93 00         4441 	.data.b	0
00000f94 08         4442 	.data.b	8
00000f95 01         4443 	.data.b	1
00000f96 00         4444 	.data.b	0
00000f97 00         4445 	.data.b	0
00000f98 01         4446 	.data.b	1
00000f99 01         4447 	.data.b	1
00000f9a 00         4448 	.data.b	0
00000f9b 01         4449 	.data.b	1
                    4450 
                    4451 	.section	.debug_frame
                    4452 .LDW_5dd8210:
00000120 00000000*  4453 	.data.w	.LDW_unq_10-.LDW_unq_f
                    4454 .LDW_unq_f:
00000124 00000000*  4455 	.data.w	.LDW_626e228
00000128 00000000*  4456 	.data.w	EcuM_GetLastShutdownTarget
0000012c 00000032   4457 	.data.w	__ghs_eofn_EcuM_GetLastShutdownTarget-EcuM_GetLastShutdownTarget
00000130 01         4458 	.data.b	1
00000131 00000000*  4459 	.data.w	.LDW32
00000135 00         4460 	.data.b	0
00000136 00         4461 	.data.b	0
00000137 00         4462 	.data.b	0
                    4463 .LDW_unq_10:
                    4464 	.section	.debug_line
00001996 020500     4465 	.data.b	0,5,2
00001999 00000000*  4466 	.data.w	EcuM_GetLastShutdownTarget
0000199d 06         4467 	.data.b	6
0000199e 03         4468 	.data.b	3
0000199f 1bb2       4469 	.data.b	178,27
000019a1 02         4470 	.data.b	2

                                                                      Page 103
                                                              C:\Users\Fengyuan\AppData\Local\Temp\gh_00006b81.s
000019a2 00         4471 	.data.b	0
000019a3 01         4472 	.data.b	1
000019a4 14         4473 	.data.b	20
000019a5 03         4474 	.data.b	3
000019a6 06         4475 	.data.b	6
000019a7 02         4476 	.data.b	2
000019a8 02         4477 	.data.b	2
000019a9 01         4478 	.data.b	1
000019aa 020500     4479 	.data.b	0,5,2
000019ad 00000000*  4480 	.data.w	.LDWlin17
000019b1 0b         4481 	.data.b	11
000019b2 0b         4482 	.data.b	11
000019b3 03         4483 	.data.b	3
000019b4 13         4484 	.data.b	19
000019b5 02         4485 	.data.b	2
000019b6 02         4486 	.data.b	2
000019b7 01         4487 	.data.b	1
000019b8 02         4488 	.data.b	2
000019b9 00         4489 	.data.b	0
000019ba 02         4490 	.data.b	2
000019bb 00         4491 	.data.b	0
000019bc 02         4492 	.data.b	2
000019bd 00         4493 	.data.b	0
000019be 03         4494 	.data.b	3
000019bf 04         4495 	.data.b	4
000019c0 02         4496 	.data.b	2
000019c1 00         4497 	.data.b	0
000019c2 01         4498 	.data.b	1
000019c3 0b         4499 	.data.b	11
000019c4 0b         4500 	.data.b	11
000019c5 020500     4501 	.data.b	0,5,2
000019c8 00000000*  4502 	.data.w	.LDWlin18
000019cc 03         4503 	.data.b	3
000019cd 68         4504 	.data.b	104
000019ce 02         4505 	.data.b	2
000019cf 00         4506 	.data.b	0
000019d0 01         4507 	.data.b	1
000019d1 03         4508 	.data.b	3
000019d2 04         4509 	.data.b	4
000019d3 02         4510 	.data.b	2
000019d4 00         4511 	.data.b	0
000019d5 01         4512 	.data.b	1
000019d6 02         4513 	.data.b	2
000019d7 00         4514 	.data.b	0
000019d8 1b         4515 	.data.b	27
000019d9 0b         4516 	.data.b	11
000019da 020500     4517 	.data.b	0,5,2
000019dd 00000000*  4518 	.data.w	.LDWlin19
000019e1 0b         4519 	.data.b	11
000019e2 0c         4520 	.data.b	12
000019e3 03         4521 	.data.b	3
000019e4 04         4522 	.data.b	4
000019e5 02         4523 	.data.b	2
000019e6 00         4524 	.data.b	0
000019e7 01         4525 	.data.b	1
000019e8 1c         4526 	.data.b	28
000019e9 1c         4527 	.data.b	28
000019ea 03         4528 	.data.b	3
000019eb 08         4529 	.data.b	8
000019ec 02         4530 	.data.b	2
000019ed 02         4531 	.data.b	2

                                                                      Page 104
                                                              C:\Users\Fengyuan\AppData\Local\Temp\gh_00006b81.s
000019ee 01         4532 	.data.b	1
000019ef 02         4533 	.data.b	2
000019f0 00         4534 	.data.b	0
000019f1 03         4535 	.data.b	3
000019f2 05         4536 	.data.b	5
000019f3 02         4537 	.data.b	2
000019f4 00         4538 	.data.b	0
000019f5 01         4539 	.data.b	1
000019f6 06         4540 	.data.b	6
000019f7 02         4541 	.data.b	2
000019f8 02         4542 	.data.b	2
000019f9 02         4543 	.data.b	2
000019fa 02         4544 	.data.b	2
000019fb 010100     4545 	.data.b	0,1,1
                    4546 	.section	.debug_info
                    4547 .LDW_4b3c140:
00000f9c 11         4548 	.data.b	17
00000f9d 67726174   4549 	.data.b	116,97,114,103,101,116,0
00000fa1 007465 
00000fa4 1bb1       4550 	.data.b	177,27
00000fa6 6d         4551 	.data.b	109
00000fa7 01         4552 	.data.b	1
00000fa8 00000000*  4553 	.data.w	.LDW_4b1d6b8
00000fac 00         4554 	.data.b	0
00000fad 5001       4555 	.data.b	1,80
                    4556 
                    4557 .LDW_4b3c1f0:
00000faf 11         4558 	.data.b	17
00000fb0 65736572   4559 	.data.b	114,101,115,101,116,83,108,101,101,112,77,111,100,101,0
00000fb4 656c5374 
00000fb8 6f4d7065 
00000fbc 006564 
00000fbf 1bb2       4560 	.data.b	178,27
00000fc1 29         4561 	.data.b	41
00000fc2 01         4562 	.data.b	1
00000fc3 00000000*  4563 	.data.w	.LDW_4b1d878
00000fc7 00         4564 	.data.b	0
00000fc8 5101       4565 	.data.b	1,81
                    4566 
                    4567 .LDW_5da6228:
00000fca 1f         4568 	.data.b	31
00000fcb 00000000*  4569 	.data.w	.LDW22
00000fcf 00000000*  4570 	.data.w	.LDW32
                    4571 
                    4572 .LDW_4b3bd20:
00000fd3 06         4573 	.data.b	6
00000fd4 76746572   4574 	.data.b	114,101,116,118,97,108,0
00000fd8 006c61 
00000fdb 1bb5       4575 	.data.b	181,27
00000fdd 12         4576 	.data.b	18
00000fde 01         4577 	.data.b	1
00000fdf 00000000*  4578 	.data.w	.LDW_5f2cf80
00000fe3 00         4579 	.data.b	0
00000fe4 00         4580 	.data.b	0
00000fe5 5401       4581 	.data.b	1,84
                    4582 
                    4583 .LDW_4b3bbc0:
00000fe7 07         4584 	.data.b	7
00000fe8 6f727265   4585 	.data.b	101,114,114,111,114,73,100,0
00000fec 00644972 
00000ff0 1bb6       4586 	.data.b	182,27

                                                                      Page 105
                                                              C:\Users\Fengyuan\AppData\Local\Temp\gh_00006b81.s
00000ff2 09         4587 	.data.b	9
00000ff3 01         4588 	.data.b	1
00000ff4 00000000*  4589 	.data.w	.LDW_5da7408
00000ff8 00         4590 	.data.b	0
00000ff9 00         4591 	.data.b	0
                    4592 
00000ffa 00         4593 	.data.b	0
                    4594 
00000ffb 00         4595 	.data.b	0
                    4596 
                    4597 .LDW_5da27d8:
00000ffc 16         4598 	.data.b	22
00000ffd 4d756345   4599 	.data.b	69,99,117,77,95,83,101,108,101,99,116,83,104,117,116,100,111,119,110,67,97,117,115,101,0
00001001 6c65535f 
00001005 53746365 
00001009 64747568 
0000100d 436e776f 
00001011 65737561 
00001015 00 
00001016 1bea       4600 	.data.b	234,27
00001018 21         4601 	.data.b	33
00001019 01         4602 	.data.b	1
0000101a 00000000*  4603 	.data.w	.LDW_5f2cf80
0000101e 00000000*  4604 	.data.w	EcuM_SelectShutdownCause
00001022 00000000*  4605 	.data.w	__ghs_eofn_EcuM_SelectShutdownCause
00001026 5d01       4606 	.data.b	1,93
00001028 0180b0     4607 	.data.b	176,128,1
0000102b 78         4608 	.data.b	120
0000102c 00         4609 	.data.b	0
0000102d 08         4610 	.data.b	8
0000102e 01         4611 	.data.b	1
0000102f 00         4612 	.data.b	0
00001030 00         4613 	.data.b	0
00001031 01         4614 	.data.b	1
00001032 01         4615 	.data.b	1
00001033 00         4616 	.data.b	0
00001034 01         4617 	.data.b	1
                    4618 
                    4619 	.section	.debug_frame
                    4620 .LDW_5dd87d0:
00000138 00000000*  4621 	.data.w	.LDW_unq_12-.LDW_unq_11
                    4622 .LDW_unq_11:
0000013c 00000000*  4623 	.data.w	.LDW_626e228
00000140 00000000*  4624 	.data.w	EcuM_SelectShutdownCause
00000144 0000002a   4625 	.data.w	__ghs_eofn_EcuM_SelectShutdownCause-EcuM_SelectShutdownCause
00000148 01         4626 	.data.b	1
00000149 00000000*  4627 	.data.w	.LDW52
0000014d 00         4628 	.data.b	0
0000014e 00         4629 	.data.b	0
0000014f 00         4630 	.data.b	0
                    4631 .LDW_unq_12:
                    4632 	.section	.debug_line
000019fe 020500     4633 	.data.b	0,5,2
00001a01 00000000*  4634 	.data.w	EcuM_SelectShutdownCause
00001a05 06         4635 	.data.b	6
00001a06 03         4636 	.data.b	3
00001a07 1bea       4637 	.data.b	234,27
00001a09 02         4638 	.data.b	2
00001a0a 00         4639 	.data.b	0
00001a0b 01         4640 	.data.b	1
00001a0c 14         4641 	.data.b	20

                                                                      Page 106
                                                              C:\Users\Fengyuan\AppData\Local\Temp\gh_00006b81.s
00001a0d 03         4642 	.data.b	3
00001a0e 06         4643 	.data.b	6
00001a0f 02         4644 	.data.b	2
00001a10 02         4645 	.data.b	2
00001a11 01         4646 	.data.b	1
00001a12 020500     4647 	.data.b	0,5,2
00001a15 00000000*  4648 	.data.w	.LDWlin20
00001a19 0b         4649 	.data.b	11
00001a1a 0b         4650 	.data.b	11
00001a1b 03         4651 	.data.b	3
00001a1c 0f         4652 	.data.b	15
00001a1d 02         4653 	.data.b	2
00001a1e 02         4654 	.data.b	2
00001a1f 01         4655 	.data.b	1
00001a20 02         4656 	.data.b	2
00001a21 00         4657 	.data.b	0
00001a22 03         4658 	.data.b	3
00001a23 04         4659 	.data.b	4
00001a24 02         4660 	.data.b	2
00001a25 00         4661 	.data.b	0
00001a26 01         4662 	.data.b	1
00001a27 02         4663 	.data.b	2
00001a28 00         4664 	.data.b	0
00001a29 03         4665 	.data.b	3
00001a2a 05         4666 	.data.b	5
00001a2b 02         4667 	.data.b	2
00001a2c 00         4668 	.data.b	0
00001a2d 01         4669 	.data.b	1
00001a2e 0c         4670 	.data.b	12
00001a2f 0b         4671 	.data.b	11
00001a30 020500     4672 	.data.b	0,5,2
00001a33 00000000*  4673 	.data.w	.LDWlin21
00001a37 03         4674 	.data.b	3
00001a38 66         4675 	.data.b	102
00001a39 02         4676 	.data.b	2
00001a3a 00         4677 	.data.b	0
00001a3b 01         4678 	.data.b	1
00001a3c 0d         4679 	.data.b	13
00001a3d 03         4680 	.data.b	3
00001a3e 04         4681 	.data.b	4
00001a3f 02         4682 	.data.b	2
00001a40 00         4683 	.data.b	0
00001a41 01         4684 	.data.b	1
00001a42 020500     4685 	.data.b	0,5,2
00001a45 00000000*  4686 	.data.w	.LDWlin22
00001a49 0b         4687 	.data.b	11
00001a4a 0d         4688 	.data.b	13
00001a4b 1b         4689 	.data.b	27
00001a4c 03         4690 	.data.b	3
00001a4d 0f         4691 	.data.b	15
00001a4e 02         4692 	.data.b	2
00001a4f 02         4693 	.data.b	2
00001a50 01         4694 	.data.b	1
00001a51 02         4695 	.data.b	2
00001a52 00         4696 	.data.b	0
00001a53 03         4697 	.data.b	3
00001a54 05         4698 	.data.b	5
00001a55 02         4699 	.data.b	2
00001a56 00         4700 	.data.b	0
00001a57 01         4701 	.data.b	1
00001a58 06         4702 	.data.b	6

                                                                      Page 107
                                                              C:\Users\Fengyuan\AppData\Local\Temp\gh_00006b81.s
00001a59 02         4703 	.data.b	2
00001a5a 02         4704 	.data.b	2
00001a5b 02         4705 	.data.b	2
00001a5c 02         4706 	.data.b	2
00001a5d 010100     4707 	.data.b	0,1,1
                    4708 	.section	.debug_info
                    4709 .LDW_4b3c248:
00001035 11         4710 	.data.b	17
00001036 74756873   4711 	.data.b	115,104,117,116,100,111,119,110,67,97,117,115,101,0
0000103a 6e776f64 
0000103e 73756143 
00001042 0065 
00001044 1bea       4712 	.data.b	234,27
00001046 61         4713 	.data.b	97
00001047 01         4714 	.data.b	1
00001048 00000000*  4715 	.data.w	.LDW_4b3bd78
0000104c 00         4716 	.data.b	0
0000104d 5001       4717 	.data.b	1,80
                    4718 
                    4719 .LDW_5da63a8:
0000104f 1f         4720 	.data.b	31
00001050 00000000*  4721 	.data.w	.LDW42
00001054 00000000*  4722 	.data.w	.LDW52
                    4723 
                    4724 .LDW_4b3bdd0:
00001058 06         4725 	.data.b	6
00001059 76746572   4726 	.data.b	114,101,116,118,97,108,0
0000105d 006c61 
00001060 1bed       4727 	.data.b	237,27
00001062 12         4728 	.data.b	18
00001063 01         4729 	.data.b	1
00001064 00000000*  4730 	.data.w	.LDW_5f2cf80
00001068 00         4731 	.data.b	0
00001069 00         4732 	.data.b	0
0000106a 5401       4733 	.data.b	1,84
                    4734 
                    4735 .LDW_4b3bc70:
0000106c 06         4736 	.data.b	6
0000106d 6f727265   4737 	.data.b	101,114,114,111,114,73,100,0
00001071 00644972 
00001075 1bee       4738 	.data.b	238,27
00001077 09         4739 	.data.b	9
00001078 01         4740 	.data.b	1
00001079 00000000*  4741 	.data.w	.LDW_5da7408
0000107d 00         4742 	.data.b	0
0000107e 00         4743 	.data.b	0
0000107f 5301       4744 	.data.b	1,83
                    4745 
00001081 00         4746 	.data.b	0
                    4747 
00001082 00         4748 	.data.b	0
                    4749 
                    4750 .LDW_5da3078:
00001083 16         4751 	.data.b	22
00001084 4d756345   4752 	.data.b	69,99,117,77,95,71,101,116,83,104,117,116,100,111,119,110,67,97,117,115,101,0
00001088 7465475f 
0000108c 74756853 
00001090 6e776f64 
00001094 73756143 
00001098 0065 
0000109a 1ca5       4753 	.data.b	165,28

                                                                      Page 108
                                                              C:\Users\Fengyuan\AppData\Local\Temp\gh_00006b81.s
0000109c 21         4754 	.data.b	33
0000109d 01         4755 	.data.b	1
0000109e 00000000*  4756 	.data.w	.LDW_5f2cf80
000010a2 00000000*  4757 	.data.w	EcuM_GetShutdownCause
000010a6 00000000*  4758 	.data.w	__ghs_eofn_EcuM_GetShutdownCause
000010aa 5d01       4759 	.data.b	1,93
000010ac 0180b0     4760 	.data.b	176,128,1
000010af 78         4761 	.data.b	120
000010b0 00         4762 	.data.b	0
000010b1 08         4763 	.data.b	8
000010b2 01         4764 	.data.b	1
000010b3 00         4765 	.data.b	0
000010b4 00         4766 	.data.b	0
000010b5 01         4767 	.data.b	1
000010b6 01         4768 	.data.b	1
000010b7 00         4769 	.data.b	0
000010b8 01         4770 	.data.b	1
                    4771 
                    4772 	.section	.debug_frame
                    4773 .LDW_5dd8810:
00000150 00000000*  4774 	.data.w	.LDW_unq_14-.LDW_unq_13
                    4775 .LDW_unq_13:
00000154 00000000*  4776 	.data.w	.LDW_626e228
00000158 00000000*  4777 	.data.w	EcuM_GetShutdownCause
0000015c 0000002a   4778 	.data.w	__ghs_eofn_EcuM_GetShutdownCause-EcuM_GetShutdownCause
00000160 01         4779 	.data.b	1
00000161 00000000*  4780 	.data.w	.LDW72
00000165 00         4781 	.data.b	0
00000166 00         4782 	.data.b	0
00000167 00         4783 	.data.b	0
                    4784 .LDW_unq_14:
                    4785 	.section	.debug_line
00001a60 020500     4786 	.data.b	0,5,2
00001a63 00000000*  4787 	.data.w	EcuM_GetShutdownCause
00001a67 06         4788 	.data.b	6
00001a68 03         4789 	.data.b	3
00001a69 1ca5       4790 	.data.b	165,28
00001a6b 02         4791 	.data.b	2
00001a6c 00         4792 	.data.b	0
00001a6d 01         4793 	.data.b	1
00001a6e 14         4794 	.data.b	20
00001a6f 03         4795 	.data.b	3
00001a70 07         4796 	.data.b	7
00001a71 02         4797 	.data.b	2
00001a72 02         4798 	.data.b	2
00001a73 01         4799 	.data.b	1
00001a74 020500     4800 	.data.b	0,5,2
00001a77 00000000*  4801 	.data.w	.LDWlin23
00001a7b 0b         4802 	.data.b	11
00001a7c 0c         4803 	.data.b	12
00001a7d 03         4804 	.data.b	3
00001a7e 04         4805 	.data.b	4
00001a7f 02         4806 	.data.b	2
00001a80 00         4807 	.data.b	0
00001a81 01         4808 	.data.b	1
00001a82 02         4809 	.data.b	2
00001a83 00         4810 	.data.b	0
00001a84 1b         4811 	.data.b	27
00001a85 0c         4812 	.data.b	12
00001a86 0c         4813 	.data.b	12
00001a87 0c         4814 	.data.b	12

                                                                      Page 109
                                                              C:\Users\Fengyuan\AppData\Local\Temp\gh_00006b81.s
00001a88 23         4815 	.data.b	35
00001a89 13         4816 	.data.b	19
00001a8a 020500     4817 	.data.b	0,5,2
00001a8d 00000000*  4818 	.data.w	.LDWlin24
00001a91 0b         4819 	.data.b	11
00001a92 02         4820 	.data.b	2
00001a93 00         4821 	.data.b	0
00001a94 02         4822 	.data.b	2
00001a95 00         4823 	.data.b	0
00001a96 02         4824 	.data.b	2
00001a97 00         4825 	.data.b	0
00001a98 03         4826 	.data.b	3
00001a99 05         4827 	.data.b	5
00001a9a 02         4828 	.data.b	2
00001a9b 00         4829 	.data.b	0
00001a9c 01         4830 	.data.b	1
00001a9d 0c         4831 	.data.b	12
00001a9e 0c         4832 	.data.b	12
00001a9f 33         4833 	.data.b	51
00001aa0 02         4834 	.data.b	2
00001aa1 00         4835 	.data.b	0
00001aa2 03         4836 	.data.b	3
00001aa3 05         4837 	.data.b	5
00001aa4 02         4838 	.data.b	2
00001aa5 00         4839 	.data.b	0
00001aa6 01         4840 	.data.b	1
00001aa7 06         4841 	.data.b	6
00001aa8 02         4842 	.data.b	2
00001aa9 02         4843 	.data.b	2
00001aaa 02         4844 	.data.b	2
00001aab 02         4845 	.data.b	2
00001aac 010100     4846 	.data.b	0,1,1
                    4847 	.section	.debug_info
                    4848 .LDW_4b3bfe0:
000010b9 11         4849 	.data.b	17
000010ba 74756873   4850 	.data.b	115,104,117,116,100,111,119,110,67,97,117,115,101,0
000010be 6e776f64 
000010c2 73756143 
000010c6 0065 
000010c8 1ca5       4851 	.data.b	165,28
000010ca 70         4852 	.data.b	112
000010cb 01         4853 	.data.b	1
000010cc 00000000*  4854 	.data.w	.LDW_5da29f0
000010d0 00         4855 	.data.b	0
000010d1 5001       4856 	.data.b	1,80
                    4857 
                    4858 .LDW_5da6288:
000010d3 1f         4859 	.data.b	31
000010d4 00000000*  4860 	.data.w	.LDW62
000010d8 00000000*  4861 	.data.w	.LDW72
                    4862 
                    4863 .LDW_4b3c038:
000010dc 06         4864 	.data.b	6
000010dd 76746572   4865 	.data.b	114,101,116,118,97,108,0
000010e1 006c61 
000010e4 1ca8       4866 	.data.b	168,28
000010e6 12         4867 	.data.b	18
000010e7 01         4868 	.data.b	1
000010e8 00000000*  4869 	.data.w	.LDW_5f2cf80
000010ec 00         4870 	.data.b	0
000010ed 00         4871 	.data.b	0

                                                                      Page 110
                                                              C:\Users\Fengyuan\AppData\Local\Temp\gh_00006b81.s
000010ee 5401       4872 	.data.b	1,84
                    4873 
                    4874 .LDW_4b3c090:
000010f0 06         4875 	.data.b	6
000010f1 6f727265   4876 	.data.b	101,114,114,111,114,73,100,0
000010f5 00644972 
000010f9 1ca9       4877 	.data.b	169,28
000010fb 09         4878 	.data.b	9
000010fc 01         4879 	.data.b	1
000010fd 00000000*  4880 	.data.w	.LDW_5da7408
00001101 00         4881 	.data.b	0
00001102 00         4882 	.data.b	0
00001103 5301       4883 	.data.b	1,83
                    4884 
00001105 00         4885 	.data.b	0
                    4886 
00001106 00         4887 	.data.b	0
                    4888 
                    4889 .LDW_5da3110:
00001107 16         4890 	.data.b	22
00001108 4d756345   4891 	.data.b	69,99,117,77,95,71,101,116,80,101,110,100,105,110,103,87,97,107,101,117,112,69,118,101,110,116,115,0
0000110c 7465475f 
00001110 646e6550 
00001114 57676e69 
00001118 75656b61 
0000111c 65764570 
00001120 0073746e 
00001124 1cdd       4892 	.data.b	221,28
00001126 28         4893 	.data.b	40
00001127 01         4894 	.data.b	1
00001128 00000000*  4895 	.data.w	.LDW_5da74b8
0000112c 00000000*  4896 	.data.w	EcuM_GetPendingWakeupEvents
00001130 00000000*  4897 	.data.w	__ghs_eofn_EcuM_GetPendingWakeupEvents
00001134 5d01       4898 	.data.b	1,93
00001136 018090     4899 	.data.b	144,128,1
00001139 7c         4900 	.data.b	124
0000113a 00         4901 	.data.b	0
0000113b 04         4902 	.data.b	4
0000113c 01         4903 	.data.b	1
0000113d 00         4904 	.data.b	0
0000113e 00         4905 	.data.b	0
0000113f 01         4906 	.data.b	1
00001140 01         4907 	.data.b	1
00001141 00         4908 	.data.b	0
00001142 01         4909 	.data.b	1
                    4910 
                    4911 	.section	.debug_frame
                    4912 .LDW_5dd8850:
00000168 00000000*  4913 	.data.w	.LDW_unq_16-.LDW_unq_15
                    4914 .LDW_unq_15:
0000016c 00000000*  4915 	.data.w	.LDW_626e228
00000170 00000000*  4916 	.data.w	EcuM_GetPendingWakeupEvents
00000174 0000001a   4917 	.data.w	__ghs_eofn_EcuM_GetPendingWakeupEvents-EcuM_GetPendingWakeupEvents
00000178 01         4918 	.data.b	1
00000179 00000000*  4919 	.data.w	.LDW92
0000017d 00         4920 	.data.b	0
0000017e 00         4921 	.data.b	0
0000017f 00         4922 	.data.b	0
                    4923 .LDW_unq_16:
                    4924 	.section	.debug_line
00001aaf 020500     4925 	.data.b	0,5,2

                                                                      Page 111
                                                              C:\Users\Fengyuan\AppData\Local\Temp\gh_00006b81.s
00001ab2 00000000*  4926 	.data.w	EcuM_GetPendingWakeupEvents
00001ab6 06         4927 	.data.b	6
00001ab7 03         4928 	.data.b	3
00001ab8 1cdd       4929 	.data.b	221,28
00001aba 02         4930 	.data.b	2
00001abb 00         4931 	.data.b	0
00001abc 01         4932 	.data.b	1
00001abd 03         4933 	.data.b	3
00001abe 07         4934 	.data.b	7
00001abf 02         4935 	.data.b	2
00001ac0 02         4936 	.data.b	2
00001ac1 01         4937 	.data.b	1
00001ac2 020500     4938 	.data.b	0,5,2
00001ac5 00000000*  4939 	.data.w	.LDWlin25
00001ac9 0b         4940 	.data.b	11
00001aca 0c         4941 	.data.b	12
00001acb 0d         4942 	.data.b	13
00001acc 03         4943 	.data.b	3
00001acd 0c         4944 	.data.b	12
00001ace 02         4945 	.data.b	2
00001acf 00         4946 	.data.b	0
00001ad0 01         4947 	.data.b	1
00001ad1 02         4948 	.data.b	2
00001ad2 00         4949 	.data.b	0
00001ad3 0d         4950 	.data.b	13
00001ad4 0b         4951 	.data.b	11
00001ad5 0c         4952 	.data.b	12
00001ad6 3b         4953 	.data.b	59
00001ad7 02         4954 	.data.b	2
00001ad8 00         4955 	.data.b	0
00001ad9 03         4956 	.data.b	3
00001ada 05         4957 	.data.b	5
00001adb 02         4958 	.data.b	2
00001adc 00         4959 	.data.b	0
00001add 01         4960 	.data.b	1
00001ade 06         4961 	.data.b	6
00001adf 02         4962 	.data.b	2
00001ae0 02         4963 	.data.b	2
00001ae1 02         4964 	.data.b	2
00001ae2 02         4965 	.data.b	2
00001ae3 010100     4966 	.data.b	0,1,1
                    4967 	.section	.debug_info
                    4968 .LDW_5da62b8:
00001143 1f         4969 	.data.b	31
00001144 00000000*  4970 	.data.w	.LDW82
00001148 00000000*  4971 	.data.w	.LDW92
                    4972 
                    4973 .LDW_4b3c0e8:
0000114c 07         4974 	.data.b	7
0000114d 6f727265   4975 	.data.b	101,114,114,111,114,73,100,0
00001151 00644972 
00001155 1ce0       4976 	.data.b	224,28
00001157 09         4977 	.data.b	9
00001158 01         4978 	.data.b	1
00001159 00000000*  4979 	.data.w	.LDW_5da7408
0000115d 00         4980 	.data.b	0
0000115e 00         4981 	.data.b	0
                    4982 
                    4983 .LDW_4b3c198:
0000115f 07         4984 	.data.b	7
00001160 76746572   4985 	.data.b	114,101,116,118,97,108,0

                                                                      Page 112
                                                              C:\Users\Fengyuan\AppData\Local\Temp\gh_00006b81.s
00001164 006c61 
00001167 1ce1       4986 	.data.b	225,28
00001169 19         4987 	.data.b	25
0000116a 01         4988 	.data.b	1
0000116b 00000000*  4989 	.data.w	.LDW_5da74b8
0000116f 00         4990 	.data.b	0
00001170 00         4991 	.data.b	0
                    4992 
00001171 00         4993 	.data.b	0
                    4994 
00001172 00         4995 	.data.b	0
                    4996 
                    4997 .LDW_5da31a8:
00001173 15         4998 	.data.b	21
00001174 4d756345   4999 	.data.b	69,99,117,77,95,67,108,101,97,114,87,97,107,101,117,112,69,118,101,110,116,0
00001178 656c435f 
0000117c 61577261 
00001180 7075656b 
00001184 6e657645 
00001188 0074 
0000118a 1d92       5000 	.data.b	146,29
0000118c 17         5001 	.data.b	23
0000118d 01         5002 	.data.b	1
0000118e 00000000*  5003 	.data.w	EcuM_ClearWakeupEvent
00001192 00000000*  5004 	.data.w	__ghs_eofn_EcuM_ClearWakeupEvent
00001196 5d01       5005 	.data.b	1,93
00001198 0180b0     5006 	.data.b	176,128,1
0000119b 78         5007 	.data.b	120
0000119c 00         5008 	.data.b	0
0000119d 08         5009 	.data.b	8
0000119e 01         5010 	.data.b	1
0000119f 00         5011 	.data.b	0
000011a0 00         5012 	.data.b	0
000011a1 01         5013 	.data.b	1
000011a2 01         5014 	.data.b	1
000011a3 00         5015 	.data.b	0
000011a4 01         5016 	.data.b	1
                    5017 
                    5018 	.section	.debug_frame
                    5019 .LDW_5dd8d50:
00000180 00000000*  5020 	.data.w	.LDW_unq_18-.LDW_unq_17
                    5021 .LDW_unq_17:
00000184 00000000*  5022 	.data.w	.LDW_626e228
00000188 00000000*  5023 	.data.w	EcuM_ClearWakeupEvent
0000018c 0000004a   5024 	.data.w	__ghs_eofn_EcuM_ClearWakeupEvent-EcuM_ClearWakeupEvent
00000190 01         5025 	.data.b	1
00000191 00000000*  5026 	.data.w	.LDW13
00000195 00         5027 	.data.b	0
00000196 00         5028 	.data.b	0
00000197 00         5029 	.data.b	0
                    5030 .LDW_unq_18:
                    5031 	.section	.debug_line
00001ae6 020500     5032 	.data.b	0,5,2
00001ae9 00000000*  5033 	.data.w	EcuM_ClearWakeupEvent
00001aed 06         5034 	.data.b	6
00001aee 03         5035 	.data.b	3
00001aef 1d92       5036 	.data.b	146,29
00001af1 02         5037 	.data.b	2
00001af2 00         5038 	.data.b	0
00001af3 01         5039 	.data.b	1
00001af4 03         5040 	.data.b	3

                                                                      Page 113
                                                              C:\Users\Fengyuan\AppData\Local\Temp\gh_00006b81.s
00001af5 07         5041 	.data.b	7
00001af6 02         5042 	.data.b	2
00001af7 04         5043 	.data.b	4
00001af8 01         5044 	.data.b	1
00001af9 020500     5045 	.data.b	0,5,2
00001afc 00000000*  5046 	.data.w	.LDWlin26
00001b00 0b         5047 	.data.b	11
00001b01 0c         5048 	.data.b	12
00001b02 0d         5049 	.data.b	13
00001b03 0d         5050 	.data.b	13
00001b04 03         5051 	.data.b	3
00001b05 06         5052 	.data.b	6
00001b06 02         5053 	.data.b	2
00001b07 04         5054 	.data.b	4
00001b08 01         5055 	.data.b	1
00001b09 5c         5056 	.data.b	92
00001b0a 020500     5057 	.data.b	0,5,2
00001b0d 00000000*  5058 	.data.w	.LDWlin27
00001b11 0b         5059 	.data.b	11
00001b12 0b         5060 	.data.b	11
00001b13 2b         5061 	.data.b	43
00001b14 02         5062 	.data.b	2
00001b15 00         5063 	.data.b	0
00001b16 0d         5064 	.data.b	13
00001b17 020500     5065 	.data.b	0,5,2
00001b1a 00000000*  5066 	.data.w	.LDWlin28
00001b1e 0b         5067 	.data.b	11
00001b1f 02         5068 	.data.b	2
00001b20 00         5069 	.data.b	0
00001b21 03         5070 	.data.b	3
00001b22 04         5071 	.data.b	4
00001b23 02         5072 	.data.b	2
00001b24 00         5073 	.data.b	0
00001b25 01         5074 	.data.b	1
00001b26 0b         5075 	.data.b	11
00001b27 0b         5076 	.data.b	11
00001b28 3b         5077 	.data.b	59
00001b29 02         5078 	.data.b	2
00001b2a 00         5079 	.data.b	0
00001b2b 03         5080 	.data.b	3
00001b2c 04         5081 	.data.b	4
00001b2d 02         5082 	.data.b	2
00001b2e 00         5083 	.data.b	0
00001b2f 01         5084 	.data.b	1
00001b30 02         5085 	.data.b	2
00001b31 02         5086 	.data.b	2
00001b32 010100     5087 	.data.b	0,1,1
                    5088 	.section	.debug_info
                    5089 .LDW_5da36e8:
000011a5 11         5090 	.data.b	17
000011a6 656b6157   5091 	.data.b	87,97,107,101,117,112,83,111,117,114,99,101,0
000011aa 6f537075 
000011ae 65637275 
000011b2 00 
000011b3 1d92       5092 	.data.b	146,29
000011b5 53         5093 	.data.b	83
000011b6 01         5094 	.data.b	1
000011b7 00000000*  5095 	.data.w	.LDW_5da74b8
000011bb 00         5096 	.data.b	0
000011bc 5501       5097 	.data.b	1,85
                    5098 

                                                                      Page 114
                                                              C:\Users\Fengyuan\AppData\Local\Temp\gh_00006b81.s
                    5099 .LDW_5e8d280:
000011be 1f         5100 	.data.b	31
000011bf 00000000*  5101 	.data.w	.LDW03
000011c3 00000000*  5102 	.data.w	.LDW13
                    5103 
                    5104 .LDW_5da3320:
000011c7 07         5105 	.data.b	7
000011c8 6f727265   5106 	.data.b	101,114,114,111,114,73,100,0
000011cc 00644972 
000011d0 1d95       5107 	.data.b	149,29
000011d2 09         5108 	.data.b	9
000011d3 01         5109 	.data.b	1
000011d4 00000000*  5110 	.data.w	.LDW_5da7408
000011d8 00         5111 	.data.b	0
000011d9 00         5112 	.data.b	0
                    5113 
000011da 00         5114 	.data.b	0
                    5115 
000011db 00         5116 	.data.b	0
                    5117 
                    5118 .LDW_5da4248:
000011dc 15         5119 	.data.b	21
000011dd 4d756345   5120 	.data.b	69,99,117,77,95,67,108,101,97,114,86,97,108,105,100,97,116,101,100,87,97,107,101,117,112,69,118,101,110,116,0
000011e1 656c435f 
000011e5 61567261 
000011e9 6164696c 
000011ed 57646574 
000011f1 75656b61 
000011f5 65764570 
000011f9 00746e 
000011fc 1dcb       5121 	.data.b	203,29
000011fe 17         5122 	.data.b	23
000011ff 01         5123 	.data.b	1
00001200 00000000*  5124 	.data.w	EcuM_ClearValidatedWakeupEvent
00001204 00000000*  5125 	.data.w	__ghs_eofn_EcuM_ClearValidatedWakeupEvent
00001208 5d01       5126 	.data.b	1,93
0000120a 018090     5127 	.data.b	144,128,1
0000120d 7c         5128 	.data.b	124
0000120e 00         5129 	.data.b	0
0000120f 04         5130 	.data.b	4
00001210 01         5131 	.data.b	1
00001211 00         5132 	.data.b	0
00001212 00         5133 	.data.b	0
00001213 01         5134 	.data.b	1
00001214 01         5135 	.data.b	1
00001215 00         5136 	.data.b	0
00001216 01         5137 	.data.b	1
                    5138 
                    5139 	.section	.debug_frame
                    5140 .LDW_5dd8a10:
00000198 00000000*  5141 	.data.w	.LDW_unq_1a-.LDW_unq_19
                    5142 .LDW_unq_19:
0000019c 00000000*  5143 	.data.w	.LDW_626e228
000001a0 00000000*  5144 	.data.w	EcuM_ClearValidatedWakeupEvent
000001a4 00000034   5145 	.data.w	__ghs_eofn_EcuM_ClearValidatedWakeupEvent-EcuM_ClearValidatedWakeupEvent
000001a8 01         5146 	.data.b	1
000001a9 00000000*  5147 	.data.w	.LDW33
000001ad 00         5148 	.data.b	0
000001ae 00         5149 	.data.b	0
000001af 00         5150 	.data.b	0
                    5151 .LDW_unq_1a:

                                                                      Page 115
                                                              C:\Users\Fengyuan\AppData\Local\Temp\gh_00006b81.s
                    5152 	.section	.debug_line
00001b35 020500     5153 	.data.b	0,5,2
00001b38 00000000*  5154 	.data.w	EcuM_ClearValidatedWakeupEvent
00001b3c 06         5155 	.data.b	6
00001b3d 03         5156 	.data.b	3
00001b3e 1dcb       5157 	.data.b	203,29
00001b40 02         5158 	.data.b	2
00001b41 00         5159 	.data.b	0
00001b42 01         5160 	.data.b	1
00001b43 03         5161 	.data.b	3
00001b44 07         5162 	.data.b	7
00001b45 02         5163 	.data.b	2
00001b46 04         5164 	.data.b	4
00001b47 01         5165 	.data.b	1
00001b48 020500     5166 	.data.b	0,5,2
00001b4b 00000000*  5167 	.data.w	.LDWlin29
00001b4f 0b         5168 	.data.b	11
00001b50 0c         5169 	.data.b	12
00001b51 0d         5170 	.data.b	13
00001b52 0d         5171 	.data.b	13
00001b53 1c         5172 	.data.b	28
00001b54 03         5173 	.data.b	3
00001b55 07         5174 	.data.b	7
00001b56 02         5175 	.data.b	2
00001b57 08         5176 	.data.b	8
00001b58 01         5177 	.data.b	1
00001b59 03         5178 	.data.b	3
00001b5a 04         5179 	.data.b	4
00001b5b 02         5180 	.data.b	2
00001b5c 08         5181 	.data.b	8
00001b5d 01         5182 	.data.b	1
00001b5e 020500     5183 	.data.b	0,5,2
00001b61 00000000*  5184 	.data.w	.LDWlin30
00001b65 0b         5185 	.data.b	11
00001b66 02         5186 	.data.b	2
00001b67 00         5187 	.data.b	0
00001b68 03         5188 	.data.b	3
00001b69 04         5189 	.data.b	4
00001b6a 02         5190 	.data.b	2
00001b6b 00         5191 	.data.b	0
00001b6c 01         5192 	.data.b	1
00001b6d 0b         5193 	.data.b	11
00001b6e 0b         5194 	.data.b	11
00001b6f 3b         5195 	.data.b	59
00001b70 02         5196 	.data.b	2
00001b71 00         5197 	.data.b	0
00001b72 03         5198 	.data.b	3
00001b73 04         5199 	.data.b	4
00001b74 02         5200 	.data.b	2
00001b75 00         5201 	.data.b	0
00001b76 01         5202 	.data.b	1
00001b77 02         5203 	.data.b	2
00001b78 02         5204 	.data.b	2
00001b79 010100     5205 	.data.b	0,1,1
                    5206 	.section	.debug_info
                    5207 .LDW_5da3c10:
00001217 11         5208 	.data.b	17
00001218 656b6157   5209 	.data.b	87,97,107,101,117,112,83,111,117,114,99,101,0
0000121c 6f537075 
00001220 65637275 
00001224 00 

                                                                      Page 116
                                                              C:\Users\Fengyuan\AppData\Local\Temp\gh_00006b81.s
00001225 1dcb       5210 	.data.b	203,29
00001227 5c         5211 	.data.b	92
00001228 01         5212 	.data.b	1
00001229 00000000*  5213 	.data.w	.LDW_5da74b8
0000122d 00         5214 	.data.b	0
0000122e 5401       5215 	.data.b	1,84
                    5216 
                    5217 .LDW_5e8d0a0:
00001230 1f         5218 	.data.b	31
00001231 00000000*  5219 	.data.w	.LDW23
00001235 00000000*  5220 	.data.w	.LDW33
                    5221 
                    5222 .LDW_5da3ab0:
00001239 07         5223 	.data.b	7
0000123a 6f727265   5224 	.data.b	101,114,114,111,114,73,100,0
0000123e 00644972 
00001242 1dce       5225 	.data.b	206,29
00001244 09         5226 	.data.b	9
00001245 01         5227 	.data.b	1
00001246 00000000*  5228 	.data.w	.LDW_5da7408
0000124a 00         5229 	.data.b	0
0000124b 00         5230 	.data.b	0
                    5231 
0000124c 00         5232 	.data.b	0
                    5233 
0000124d 00         5234 	.data.b	0
                    5235 
                    5236 .LDW_5da42e0:
0000124e 16         5237 	.data.b	22
0000124f 4d756345   5238 	.data.b	69,99,117,77,95,71,101,116,86,97,108,105,100,97,116,101,100,87,97,107,101,117,112,69,118,101,110,116,115,0
00001253 7465475f 
00001257 696c6156 
0000125b 65746164 
0000125f 6b615764 
00001263 45707565 
00001267 746e6576 
0000126b 0073 
0000126d 1e82       5239 	.data.b	130,30
0000126f 28         5240 	.data.b	40
00001270 01         5241 	.data.b	1
00001271 00000000*  5242 	.data.w	.LDW_5da74b8
00001275 00000000*  5243 	.data.w	EcuM_GetValidatedWakeupEvents
00001279 00000000*  5244 	.data.w	__ghs_eofn_EcuM_GetValidatedWakeupEvents
0000127d 5d01       5245 	.data.b	1,93
0000127f 0180b0     5246 	.data.b	176,128,1
00001282 78         5247 	.data.b	120
00001283 00         5248 	.data.b	0
00001284 08         5249 	.data.b	8
00001285 01         5250 	.data.b	1
00001286 00         5251 	.data.b	0
00001287 00         5252 	.data.b	0
00001288 01         5253 	.data.b	1
00001289 01         5254 	.data.b	1
0000128a 00         5255 	.data.b	0
0000128b 01         5256 	.data.b	1
                    5257 
                    5258 	.section	.debug_frame
                    5259 .LDW_5dd8b10:
000001b0 00000000*  5260 	.data.w	.LDW_unq_1c-.LDW_unq_1b
                    5261 .LDW_unq_1b:
000001b4 00000000*  5262 	.data.w	.LDW_626e228

                                                                      Page 117
                                                              C:\Users\Fengyuan\AppData\Local\Temp\gh_00006b81.s
000001b8 00000000*  5263 	.data.w	EcuM_GetValidatedWakeupEvents
000001bc 00000022   5264 	.data.w	__ghs_eofn_EcuM_GetValidatedWakeupEvents-EcuM_GetValidatedWakeupEvents
000001c0 01         5265 	.data.b	1
000001c1 00000000*  5266 	.data.w	.LDW53
000001c5 00         5267 	.data.b	0
000001c6 00         5268 	.data.b	0
000001c7 00         5269 	.data.b	0
                    5270 .LDW_unq_1c:
                    5271 	.section	.debug_line
00001b7c 020500     5272 	.data.b	0,5,2
00001b7f 00000000*  5273 	.data.w	EcuM_GetValidatedWakeupEvents
00001b83 06         5274 	.data.b	6
00001b84 03         5275 	.data.b	3
00001b85 1e82       5276 	.data.b	130,30
00001b87 02         5277 	.data.b	2
00001b88 00         5278 	.data.b	0
00001b89 01         5279 	.data.b	1
00001b8a 03         5280 	.data.b	3
00001b8b 09         5281 	.data.b	9
00001b8c 02         5282 	.data.b	2
00001b8d 02         5283 	.data.b	2
00001b8e 01         5284 	.data.b	1
00001b8f 020500     5285 	.data.b	0,5,2
00001b92 00000000*  5286 	.data.w	.LDWlin31
00001b96 0b         5287 	.data.b	11
00001b97 0c         5288 	.data.b	12
00001b98 0d         5289 	.data.b	13
00001b99 03         5290 	.data.b	3
00001b9a 06         5291 	.data.b	6
00001b9b 02         5292 	.data.b	2
00001b9c 00         5293 	.data.b	0
00001b9d 01         5294 	.data.b	1
00001b9e 1c         5295 	.data.b	28
00001b9f 020500     5296 	.data.b	0,5,2
00001ba2 00000000*  5297 	.data.w	.LDWlin32
00001ba6 0b         5298 	.data.b	11
00001ba7 02         5299 	.data.b	2
00001ba8 00         5300 	.data.b	0
00001ba9 03         5301 	.data.b	3
00001baa 04         5302 	.data.b	4
00001bab 02         5303 	.data.b	2
00001bac 00         5304 	.data.b	0
00001bad 01         5305 	.data.b	1
00001bae 0b         5306 	.data.b	11
00001baf 0b         5307 	.data.b	11
00001bb0 3b         5308 	.data.b	59
00001bb1 02         5309 	.data.b	2
00001bb2 00         5310 	.data.b	0
00001bb3 03         5311 	.data.b	3
00001bb4 05         5312 	.data.b	5
00001bb5 02         5313 	.data.b	2
00001bb6 00         5314 	.data.b	0
00001bb7 01         5315 	.data.b	1
00001bb8 06         5316 	.data.b	6
00001bb9 02         5317 	.data.b	2
00001bba 02         5318 	.data.b	2
00001bbb 02         5319 	.data.b	2
00001bbc 02         5320 	.data.b	2
00001bbd 010100     5321 	.data.b	0,1,1
                    5322 	.section	.debug_info
                    5323 .LDW_5e8d250:

                                                                      Page 118
                                                              C:\Users\Fengyuan\AppData\Local\Temp\gh_00006b81.s
0000128c 1f         5324 	.data.b	31
0000128d 00000000*  5325 	.data.w	.LDW43
00001291 00000000*  5326 	.data.w	.LDW53
                    5327 
                    5328 .LDW_5da39a8:
00001295 07         5329 	.data.b	7
00001296 6f727265   5330 	.data.b	101,114,114,111,114,73,100,0
0000129a 00644972 
0000129e 1e85       5331 	.data.b	133,30
000012a0 09         5332 	.data.b	9
000012a1 01         5333 	.data.b	1
000012a2 00000000*  5334 	.data.w	.LDW_5da7408
000012a6 00         5335 	.data.b	0
000012a7 00         5336 	.data.b	0
                    5337 
                    5338 .LDW_5da32c8:
000012a8 06         5339 	.data.b	6
000012a9 76746572   5340 	.data.b	114,101,116,118,97,108,0
000012ad 006c61 
000012b0 1e86       5341 	.data.b	134,30
000012b2 19         5342 	.data.b	25
000012b3 01         5343 	.data.b	1
000012b4 00000000*  5344 	.data.w	.LDW_5da74b8
000012b8 00         5345 	.data.b	0
000012b9 00         5346 	.data.b	0
000012ba 5401       5347 	.data.b	1,84
                    5348 
000012bc 00         5349 	.data.b	0
                    5350 
000012bd 00         5351 	.data.b	0
                    5352 
                    5353 .LDW_5e8d9d0:
000012be 16         5354 	.data.b	22
000012bf 4d756345   5355 	.data.b	69,99,117,77,95,71,101,116,69,120,112,105,114,101,100,87,97,107,101,117,112,69,118,101,110,116,115,0
000012c3 7465475f 
000012c7 69707845 
000012cb 57646572 
000012cf 75656b61 
000012d3 65764570 
000012d7 0073746e 
000012db 1eb5       5356 	.data.b	181,30
000012dd 28         5357 	.data.b	40
000012de 01         5358 	.data.b	1
000012df 00000000*  5359 	.data.w	.LDW_5da74b8
000012e3 00000000*  5360 	.data.w	EcuM_GetExpiredWakeupEvents
000012e7 00000000*  5361 	.data.w	__ghs_eofn_EcuM_GetExpiredWakeupEvents
000012eb 5d01       5362 	.data.b	1,93
000012ed 018090     5363 	.data.b	144,128,1
000012f0 7c         5364 	.data.b	124
000012f1 00         5365 	.data.b	0
000012f2 04         5366 	.data.b	4
000012f3 01         5367 	.data.b	1
000012f4 00         5368 	.data.b	0
000012f5 00         5369 	.data.b	0
000012f6 01         5370 	.data.b	1
000012f7 01         5371 	.data.b	1
000012f8 00         5372 	.data.b	0
000012f9 01         5373 	.data.b	1
                    5374 
                    5375 	.section	.debug_frame
                    5376 .LDW_5f09568:

                                                                      Page 119
                                                              C:\Users\Fengyuan\AppData\Local\Temp\gh_00006b81.s
000001c8 00000000*  5377 	.data.w	.LDW_unq_1e-.LDW_unq_1d
                    5378 .LDW_unq_1d:
000001cc 00000000*  5379 	.data.w	.LDW_626e228
000001d0 00000000*  5380 	.data.w	EcuM_GetExpiredWakeupEvents
000001d4 0000001a   5381 	.data.w	__ghs_eofn_EcuM_GetExpiredWakeupEvents-EcuM_GetExpiredWakeupEvents
000001d8 01         5382 	.data.b	1
000001d9 00000000*  5383 	.data.w	.LDW73
000001dd 00         5384 	.data.b	0
000001de 00         5385 	.data.b	0
000001df 00         5386 	.data.b	0
                    5387 .LDW_unq_1e:
                    5388 	.section	.debug_line
00001bc0 020500     5389 	.data.b	0,5,2
00001bc3 00000000*  5390 	.data.w	EcuM_GetExpiredWakeupEvents
00001bc7 06         5391 	.data.b	6
00001bc8 03         5392 	.data.b	3
00001bc9 1eb5       5393 	.data.b	181,30
00001bcb 02         5394 	.data.b	2
00001bcc 00         5395 	.data.b	0
00001bcd 01         5396 	.data.b	1
00001bce 03         5397 	.data.b	3
00001bcf 08         5398 	.data.b	8
00001bd0 02         5399 	.data.b	2
00001bd1 02         5400 	.data.b	2
00001bd2 01         5401 	.data.b	1
00001bd3 020500     5402 	.data.b	0,5,2
00001bd6 00000000*  5403 	.data.w	.LDWlin33
00001bda 0b         5404 	.data.b	11
00001bdb 0c         5405 	.data.b	12
00001bdc 0d         5406 	.data.b	13
00001bdd 03         5407 	.data.b	3
00001bde 0d         5408 	.data.b	13
00001bdf 02         5409 	.data.b	2
00001be0 00         5410 	.data.b	0
00001be1 01         5411 	.data.b	1
00001be2 02         5412 	.data.b	2
00001be3 00         5413 	.data.b	0
00001be4 03         5414 	.data.b	3
00001be5 04         5415 	.data.b	4
00001be6 02         5416 	.data.b	2
00001be7 00         5417 	.data.b	0
00001be8 01         5418 	.data.b	1
00001be9 0b         5419 	.data.b	11
00001bea 0b         5420 	.data.b	11
00001beb 3b         5421 	.data.b	59
00001bec 02         5422 	.data.b	2
00001bed 00         5423 	.data.b	0
00001bee 03         5424 	.data.b	3
00001bef 05         5425 	.data.b	5
00001bf0 02         5426 	.data.b	2
00001bf1 00         5427 	.data.b	0
00001bf2 01         5428 	.data.b	1
00001bf3 06         5429 	.data.b	6
00001bf4 02         5430 	.data.b	2
00001bf5 02         5431 	.data.b	2
00001bf6 02         5432 	.data.b	2
00001bf7 02         5433 	.data.b	2
00001bf8 010100     5434 	.data.b	0,1,1
                    5435 	.section	.debug_info
                    5436 .LDW_5e8d070:
000012fa 1f         5437 	.data.b	31

                                                                      Page 120
                                                              C:\Users\Fengyuan\AppData\Local\Temp\gh_00006b81.s
000012fb 00000000*  5438 	.data.w	.LDW63
000012ff 00000000*  5439 	.data.w	.LDW73
                    5440 
                    5441 .LDW_5da3950:
00001303 07         5442 	.data.b	7
00001304 6f727265   5443 	.data.b	101,114,114,111,114,73,100,0
00001308 00644972 
0000130c 1eb8       5444 	.data.b	184,30
0000130e 09         5445 	.data.b	9
0000130f 01         5446 	.data.b	1
00001310 00000000*  5447 	.data.w	.LDW_5da7408
00001314 00         5448 	.data.b	0
00001315 00         5449 	.data.b	0
                    5450 
                    5451 .LDW_5da3b08:
00001316 07         5452 	.data.b	7
00001317 76746572   5453 	.data.b	114,101,116,118,97,108,0
0000131b 006c61 
0000131e 1eb9       5454 	.data.b	185,30
00001320 19         5455 	.data.b	25
00001321 01         5456 	.data.b	1
00001322 00000000*  5457 	.data.w	.LDW_5da74b8
00001326 00         5458 	.data.b	0
00001327 00         5459 	.data.b	0
                    5460 
00001328 00         5461 	.data.b	0
                    5462 
00001329 00         5463 	.data.b	0
                    5464 
                    5465 .LDW_5e8da68:
0000132a 16         5466 	.data.b	22
0000132b 4d756345   5467 	.data.b	69,99,117,77,95,71,101,116,66,111,111,116,84,97,114,103,101,116,0
0000132f 7465475f 
00001333 746f6f42 
00001337 67726154 
0000133b 007465 
0000133e 20f8       5468 	.data.b	248,32
00001340 21         5469 	.data.b	33
00001341 01         5470 	.data.b	1
00001342 00000000*  5471 	.data.w	.LDW_5f2cf80
00001346 00000000*  5472 	.data.w	EcuM_GetBootTarget
0000134a 00000000*  5473 	.data.w	__ghs_eofn_EcuM_GetBootTarget
0000134e 5d01       5474 	.data.b	1,93
00001350 0180b0     5475 	.data.b	176,128,1
00001353 78         5476 	.data.b	120
00001354 00         5477 	.data.b	0
00001355 08         5478 	.data.b	8
00001356 01         5479 	.data.b	1
00001357 00         5480 	.data.b	0
00001358 00         5481 	.data.b	0
00001359 01         5482 	.data.b	1
0000135a 01         5483 	.data.b	1
0000135b 00         5484 	.data.b	0
0000135c 01         5485 	.data.b	1
                    5486 
                    5487 	.section	.debug_frame
                    5488 .LDW_5f097a8:
000001e0 00000000*  5489 	.data.w	.LDW_unq_20-.LDW_unq_1f
                    5490 .LDW_unq_1f:
000001e4 00000000*  5491 	.data.w	.LDW_626e228
000001e8 00000000*  5492 	.data.w	EcuM_GetBootTarget

                                                                      Page 121
                                                              C:\Users\Fengyuan\AppData\Local\Temp\gh_00006b81.s
000001ec 0000002a   5493 	.data.w	__ghs_eofn_EcuM_GetBootTarget-EcuM_GetBootTarget
000001f0 01         5494 	.data.b	1
000001f1 00000000*  5495 	.data.w	.LDW93
000001f5 00         5496 	.data.b	0
000001f6 00         5497 	.data.b	0
000001f7 00         5498 	.data.b	0
                    5499 .LDW_unq_20:
                    5500 	.section	.debug_line
00001bfb 020500     5501 	.data.b	0,5,2
00001bfe 00000000*  5502 	.data.w	EcuM_GetBootTarget
00001c02 06         5503 	.data.b	6
00001c03 03         5504 	.data.b	3
00001c04 20f8       5505 	.data.b	248,32
00001c06 02         5506 	.data.b	2
00001c07 00         5507 	.data.b	0
00001c08 01         5508 	.data.b	1
00001c09 15         5509 	.data.b	21
00001c0a 03         5510 	.data.b	3
00001c0b 05         5511 	.data.b	5
00001c0c 02         5512 	.data.b	2
00001c0d 02         5513 	.data.b	2
00001c0e 01         5514 	.data.b	1
00001c0f 020500     5515 	.data.b	0,5,2
00001c12 00000000*  5516 	.data.w	.LDWlin34
00001c16 0b         5517 	.data.b	11
00001c17 0c         5518 	.data.b	12
00001c18 0d         5519 	.data.b	13
00001c19 02         5520 	.data.b	2
00001c1a 00         5521 	.data.b	0
00001c1b 1b         5522 	.data.b	27
00001c1c 0c         5523 	.data.b	12
00001c1d 0d         5524 	.data.b	13
00001c1e 0d         5525 	.data.b	13
00001c1f 23         5526 	.data.b	35
00001c20 020500     5527 	.data.b	0,5,2
00001c23 00000000*  5528 	.data.w	.LDWlin35
00001c27 0b         5529 	.data.b	11
00001c28 02         5530 	.data.b	2
00001c29 00         5531 	.data.b	0
00001c2a 02         5532 	.data.b	2
00001c2b 00         5533 	.data.b	0
00001c2c 02         5534 	.data.b	2
00001c2d 00         5535 	.data.b	0
00001c2e 03         5536 	.data.b	3
00001c2f 04         5537 	.data.b	4
00001c30 02         5538 	.data.b	2
00001c31 00         5539 	.data.b	0
00001c32 01         5540 	.data.b	1
00001c33 0b         5541 	.data.b	11
00001c34 0b         5542 	.data.b	11
00001c35 33         5543 	.data.b	51
00001c36 02         5544 	.data.b	2
00001c37 00         5545 	.data.b	0
00001c38 03         5546 	.data.b	3
00001c39 05         5547 	.data.b	5
00001c3a 02         5548 	.data.b	2
00001c3b 00         5549 	.data.b	0
00001c3c 01         5550 	.data.b	1
00001c3d 06         5551 	.data.b	6
00001c3e 02         5552 	.data.b	2
00001c3f 02         5553 	.data.b	2

                                                                      Page 122
                                                              C:\Users\Fengyuan\AppData\Local\Temp\gh_00006b81.s
00001c40 02         5554 	.data.b	2
00001c41 02         5555 	.data.b	2
00001c42 010100     5556 	.data.b	0,1,1
                    5557 	.section	.debug_info
                    5558 .LDW_5da3378:
0000135d 11         5559 	.data.b	17
0000135e 746f6f42   5560 	.data.b	66,111,111,116,84,97,114,103,101,116,0
00001362 67726154 
00001366 007465 
00001369 20f8       5561 	.data.b	248,32
0000136b 6a         5562 	.data.b	106
0000136c 01         5563 	.data.b	1
0000136d 00000000*  5564 	.data.w	.LDW_5da2be8
00001371 00         5565 	.data.b	0
00001372 5001       5566 	.data.b	1,80
                    5567 
                    5568 .LDW_5e8d0d0:
00001374 1f         5569 	.data.b	31
00001375 00000000*  5570 	.data.w	.LDW83
00001379 00000000*  5571 	.data.w	.LDW93
                    5572 
                    5573 .LDW_5da3428:
0000137d 06         5574 	.data.b	6
0000137e 6f727265   5575 	.data.b	101,114,114,111,114,73,100,0
00001382 00644972 
00001386 20fb       5576 	.data.b	251,32
00001388 09         5577 	.data.b	9
00001389 01         5578 	.data.b	1
0000138a 00000000*  5579 	.data.w	.LDW_5da7408
0000138e 00         5580 	.data.b	0
0000138f 00         5581 	.data.b	0
00001390 5301       5582 	.data.b	1,83
                    5583 
                    5584 .LDW_5da3530:
00001392 06         5585 	.data.b	6
00001393 76746572   5586 	.data.b	114,101,116,118,97,108,0
00001397 006c61 
0000139a 20fc       5587 	.data.b	252,32
0000139c 12         5588 	.data.b	18
0000139d 01         5589 	.data.b	1
0000139e 00000000*  5590 	.data.w	.LDW_5f2cf80
000013a2 00         5591 	.data.b	0
000013a3 00         5592 	.data.b	0
000013a4 5401       5593 	.data.b	1,84
                    5594 
000013a6 00         5595 	.data.b	0
                    5596 
000013a7 00         5597 	.data.b	0
                    5598 
                    5599 .LDW_5e8db98:
000013a8 16         5600 	.data.b	22
000013a9 4d756345   5601 	.data.b	69,99,117,77,95,83,101,108,101,99,116,66,111,111,116,84,97,114,103,101,116,0
000013ad 6c65535f 
000013b1 42746365 
000013b5 54746f6f 
000013b9 65677261 
000013bd 0074 
000013bf 21ab       5602 	.data.b	171,33
000013c1 21         5603 	.data.b	33
000013c2 01         5604 	.data.b	1
000013c3 00000000*  5605 	.data.w	.LDW_5f2cf80

                                                                      Page 123
                                                              C:\Users\Fengyuan\AppData\Local\Temp\gh_00006b81.s
000013c7 00000000*  5606 	.data.w	EcuM_SelectBootTarget
000013cb 00000000*  5607 	.data.w	__ghs_eofn_EcuM_SelectBootTarget
000013cf 5d01       5608 	.data.b	1,93
000013d1 0180b0     5609 	.data.b	176,128,1
000013d4 78         5610 	.data.b	120
000013d5 00         5611 	.data.b	0
000013d6 08         5612 	.data.b	8
000013d7 01         5613 	.data.b	1
000013d8 00         5614 	.data.b	0
000013d9 00         5615 	.data.b	0
000013da 01         5616 	.data.b	1
000013db 01         5617 	.data.b	1
000013dc 00         5618 	.data.b	0
000013dd 01         5619 	.data.b	1
                    5620 
                    5621 	.section	.debug_frame
                    5622 .LDW_5f090a8:
000001f8 00000000*  5623 	.data.w	.LDW_unq_22-.LDW_unq_21
                    5624 .LDW_unq_21:
000001fc 00000000*  5625 	.data.w	.LDW_626e228
00000200 00000000*  5626 	.data.w	EcuM_SelectBootTarget
00000204 00000030   5627 	.data.w	__ghs_eofn_EcuM_SelectBootTarget-EcuM_SelectBootTarget
00000208 01         5628 	.data.b	1
00000209 00000000*  5629 	.data.w	.LDW14
0000020d 00         5630 	.data.b	0
0000020e 00         5631 	.data.b	0
0000020f 00         5632 	.data.b	0
                    5633 .LDW_unq_22:
                    5634 	.section	.debug_line
00001c45 020500     5635 	.data.b	0,5,2
00001c48 00000000*  5636 	.data.w	EcuM_SelectBootTarget
00001c4c 06         5637 	.data.b	6
00001c4d 03         5638 	.data.b	3
00001c4e 21ab       5639 	.data.b	171,33
00001c50 02         5640 	.data.b	2
00001c51 00         5641 	.data.b	0
00001c52 01         5642 	.data.b	1
00001c53 15         5643 	.data.b	21
00001c54 03         5644 	.data.b	3
00001c55 05         5645 	.data.b	5
00001c56 02         5646 	.data.b	2
00001c57 02         5647 	.data.b	2
00001c58 01         5648 	.data.b	1
00001c59 020500     5649 	.data.b	0,5,2
00001c5c 00000000*  5650 	.data.w	.LDWlin36
00001c60 0b         5651 	.data.b	11
00001c61 0c         5652 	.data.b	12
00001c62 0d         5653 	.data.b	13
00001c63 0b         5654 	.data.b	11
00001c64 020500     5655 	.data.b	0,5,2
00001c67 00000000*  5656 	.data.w	.LDWlin37
00001c6b 0d         5657 	.data.b	13
00001c6c 0c         5658 	.data.b	12
00001c6d 0c         5659 	.data.b	12
00001c6e 0d         5660 	.data.b	13
00001c6f 1b         5661 	.data.b	27
00001c70 020500     5662 	.data.b	0,5,2
00001c73 00000000*  5663 	.data.w	.LDWlin38
00001c77 0b         5664 	.data.b	11
00001c78 02         5665 	.data.b	2
00001c79 00         5666 	.data.b	0

                                                                      Page 124
                                                              C:\Users\Fengyuan\AppData\Local\Temp\gh_00006b81.s
00001c7a 0b         5667 	.data.b	11
00001c7b 02         5668 	.data.b	2
00001c7c 00         5669 	.data.b	0
00001c7d 03         5670 	.data.b	3
00001c7e 04         5671 	.data.b	4
00001c7f 02         5672 	.data.b	2
00001c80 00         5673 	.data.b	0
00001c81 01         5674 	.data.b	1
00001c82 0b         5675 	.data.b	11
00001c83 0b         5676 	.data.b	11
00001c84 33         5677 	.data.b	51
00001c85 02         5678 	.data.b	2
00001c86 00         5679 	.data.b	0
00001c87 03         5680 	.data.b	3
00001c88 05         5681 	.data.b	5
00001c89 02         5682 	.data.b	2
00001c8a 00         5683 	.data.b	0
00001c8b 01         5684 	.data.b	1
00001c8c 06         5685 	.data.b	6
00001c8d 02         5686 	.data.b	2
00001c8e 02         5687 	.data.b	2
00001c8f 02         5688 	.data.b	2
00001c90 56         5689 	.data.b	86
00001c91 010100     5690 	.data.b	0,1,1
                    5691 	.section	.debug_info
                    5692 .LDW_5da3cc0:
000013de 11         5693 	.data.b	17
000013df 746f6f42   5694 	.data.b	66,111,111,116,84,97,114,103,101,116,0
000013e3 67726154 
000013e7 007465 
000013ea 21ab       5695 	.data.b	171,33
000013ec 5b         5696 	.data.b	91
000013ed 01         5697 	.data.b	1
000013ee 00000000*  5698 	.data.w	.LDW_5da33d0
000013f2 00         5699 	.data.b	0
000013f3 5001       5700 	.data.b	1,80
                    5701 
                    5702 .LDW_5e8cef0:
000013f5 1f         5703 	.data.b	31
000013f6 00000000*  5704 	.data.w	.LDW04
000013fa 00000000*  5705 	.data.w	.LDW14
                    5706 
                    5707 .LDW_5da3480:
000013fe 06         5708 	.data.b	6
000013ff 6f727265   5709 	.data.b	101,114,114,111,114,73,100,0
00001403 00644972 
00001407 21ae       5710 	.data.b	174,33
00001409 09         5711 	.data.b	9
0000140a 01         5712 	.data.b	1
0000140b 00000000*  5713 	.data.w	.LDW_5da7408
0000140f 00         5714 	.data.b	0
00001410 00         5715 	.data.b	0
00001411 5301       5716 	.data.b	1,83
                    5717 
                    5718 .LDW_5da34d8:
00001413 06         5719 	.data.b	6
00001414 76746572   5720 	.data.b	114,101,116,118,97,108,0
00001418 006c61 
0000141b 21af       5721 	.data.b	175,33
0000141d 12         5722 	.data.b	18
0000141e 01         5723 	.data.b	1

                                                                      Page 125
                                                              C:\Users\Fengyuan\AppData\Local\Temp\gh_00006b81.s
0000141f 00000000*  5724 	.data.w	.LDW_5f2cf80
00001423 00         5725 	.data.b	0
00001424 00         5726 	.data.b	0
00001425 5401       5727 	.data.b	1,84
                    5728 
00001427 00         5729 	.data.b	0
                    5730 
00001428 00         5731 	.data.b	0
                    5732 
                    5733 .LDW_5e8dfc0:
00001429 15         5734 	.data.b	21
0000142a 4d756345   5735 	.data.b	69,99,117,77,95,83,116,97,114,116,117,112,84,119,111,0
0000142e 6174535f 
00001432 70757472 
00001436 006f7754 
0000143a 21f1       5736 	.data.b	241,33
0000143c 17         5737 	.data.b	23
0000143d 01         5738 	.data.b	1
0000143e 00000000*  5739 	.data.w	EcuM_StartupTwo
00001442 00000000*  5740 	.data.w	__ghs_eofn_EcuM_StartupTwo
00001446 5d01       5741 	.data.b	1,93
00001448 018090     5742 	.data.b	144,128,1
0000144b 7c         5743 	.data.b	124
0000144c 00         5744 	.data.b	0
0000144d 04         5745 	.data.b	4
0000144e 01         5746 	.data.b	1
0000144f 00         5747 	.data.b	0
00001450 00         5748 	.data.b	0
00001451 01         5749 	.data.b	1
00001452 01         5750 	.data.b	1
00001453 00         5751 	.data.b	0
00001454 01         5752 	.data.b	1
                    5753 
                    5754 	.section	.debug_frame
                    5755 .LDW_5f08de8:
00000210 00000000*  5756 	.data.w	.LDW_unq_24-.LDW_unq_23
                    5757 .LDW_unq_23:
00000214 00000000*  5758 	.data.w	.LDW_626e228
00000218 00000000*  5759 	.data.w	EcuM_StartupTwo
0000021c 0000004a   5760 	.data.w	__ghs_eofn_EcuM_StartupTwo-EcuM_StartupTwo
00000220 01         5761 	.data.b	1
00000221 00000000*  5762 	.data.w	.LDW54
00000225 00         5763 	.data.b	0
00000226 00         5764 	.data.b	0
00000227 00         5765 	.data.b	0
                    5766 .LDW_unq_24:
                    5767 	.section	.debug_line
00001c94 020500     5768 	.data.b	0,5,2
00001c97 00000000*  5769 	.data.w	EcuM_StartupTwo
00001c9b 06         5770 	.data.b	6
00001c9c 03         5771 	.data.b	3
00001c9d 21f1       5772 	.data.b	241,33
00001c9f 02         5773 	.data.b	2
00001ca0 00         5774 	.data.b	0
00001ca1 01         5775 	.data.b	1
00001ca2 03         5776 	.data.b	3
00001ca3 17         5777 	.data.b	23
00001ca4 02         5778 	.data.b	2
00001ca5 02         5779 	.data.b	2
00001ca6 01         5780 	.data.b	1
00001ca7 020500     5781 	.data.b	0,5,2

                                                                      Page 126
                                                              C:\Users\Fengyuan\AppData\Local\Temp\gh_00006b81.s
00001caa 00000000*  5782 	.data.w	.LDWlin39
00001cae 0b         5783 	.data.b	11
00001caf 0c         5784 	.data.b	12
00001cb0 0d         5785 	.data.b	13
00001cb1 03         5786 	.data.b	3
00001cb2 09         5787 	.data.b	9
00001cb3 02         5788 	.data.b	2
00001cb4 00         5789 	.data.b	0
00001cb5 01         5790 	.data.b	1
00001cb6 1d         5791 	.data.b	29
00001cb7 03         5792 	.data.b	3
00001cb8 14         5793 	.data.b	20
00001cb9 02         5794 	.data.b	2
00001cba 06         5795 	.data.b	6
00001cbb 01         5796 	.data.b	1
00001cbc 03         5797 	.data.b	3
00001cbd 04         5798 	.data.b	4
00001cbe 02         5799 	.data.b	2
00001cbf 06         5800 	.data.b	6
00001cc0 01         5801 	.data.b	1
00001cc1 1c         5802 	.data.b	28
00001cc2 1b         5803 	.data.b	27
00001cc3 0b         5804 	.data.b	11
00001cc4 33         5805 	.data.b	51
00001cc5 2b         5806 	.data.b	43
00001cc6 02         5807 	.data.b	2
00001cc7 00         5808 	.data.b	0
00001cc8 0c         5809 	.data.b	12
00001cc9 020500     5810 	.data.b	0,5,2
00001ccc 00000000*  5811 	.data.w	.LDWlin40
00001cd0 03         5812 	.data.b	3
00001cd1 06         5813 	.data.b	6
00001cd2 02         5814 	.data.b	2
00001cd3 00         5815 	.data.b	0
00001cd4 01         5816 	.data.b	1
00001cd5 02         5817 	.data.b	2
00001cd6 00         5818 	.data.b	0
00001cd7 03         5819 	.data.b	3
00001cd8 04         5820 	.data.b	4
00001cd9 02         5821 	.data.b	2
00001cda 00         5822 	.data.b	0
00001cdb 01         5823 	.data.b	1
00001cdc 0b         5824 	.data.b	11
00001cdd 0b         5825 	.data.b	11
00001cde 3b         5826 	.data.b	59
00001cdf 02         5827 	.data.b	2
00001ce0 00         5828 	.data.b	0
00001ce1 03         5829 	.data.b	3
00001ce2 30         5830 	.data.b	48
00001ce3 02         5831 	.data.b	2
00001ce4 00         5832 	.data.b	0
00001ce5 01         5833 	.data.b	1
00001ce6 02         5834 	.data.b	2
00001ce7 02         5835 	.data.b	2
00001ce8 010100     5836 	.data.b	0,1,1
                    5837 	.section	.debug_info
                    5838 .LDW_5e8d2e0:
00001455 1f         5839 	.data.b	31
00001456 00000000*  5840 	.data.w	.LDW24
0000145a 00000000*  5841 	.data.w	.LDW54
                    5842 

                                                                      Page 127
                                                              C:\Users\Fengyuan\AppData\Local\Temp\gh_00006b81.s
                    5843 .LDW_5e8ce60:
0000145e 1f         5844 	.data.b	31
0000145f 00000000*  5845 	.data.w	.LDW34
00001463 00000000*  5846 	.data.w	.LDW44
                    5847 
                    5848 .LDW_5da3d18:
00001467 07         5849 	.data.b	7
00001468 6f727265   5850 	.data.b	101,114,114,111,114,73,100,0
0000146c 00644972 
00001470 2284       5851 	.data.b	132,34
00001472 0b         5852 	.data.b	11
00001473 01         5853 	.data.b	1
00001474 00000000*  5854 	.data.w	.LDW_5da7408
00001478 00         5855 	.data.b	0
00001479 00         5856 	.data.b	0
                    5857 
0000147a 00         5858 	.data.b	0
                    5859 
0000147b 00         5860 	.data.b	0
                    5861 
0000147c 00         5862 	.data.b	0
                    5863 
                    5864 .LDW_5e8db00:
0000147d 15         5865 	.data.b	21
0000147e 4d756345   5866 	.data.b	69,99,117,77,95,83,101,116,87,97,107,101,117,112,69,118,101,110,116,0
00001482 7465535f 
00001486 656b6157 
0000148a 76457075 
0000148e 00746e65 
00001492 238c       5867 	.data.b	140,35
00001494 17         5868 	.data.b	23
00001495 01         5869 	.data.b	1
00001496 00000000*  5870 	.data.w	EcuM_SetWakeupEvent
0000149a 00000000*  5871 	.data.w	__ghs_eofn_EcuM_SetWakeupEvent
0000149e 5d01       5872 	.data.b	1,93
000014a0 018090     5873 	.data.b	144,128,1
000014a3 7c         5874 	.data.b	124
000014a4 00         5875 	.data.b	0
000014a5 04         5876 	.data.b	4
000014a6 01         5877 	.data.b	1
000014a7 00         5878 	.data.b	0
000014a8 00         5879 	.data.b	0
000014a9 01         5880 	.data.b	1
000014aa 01         5881 	.data.b	1
000014ab 00         5882 	.data.b	0
000014ac 01         5883 	.data.b	1
                    5884 
                    5885 	.section	.debug_frame
                    5886 .LDW_5f08ba8:
00000228 00000000*  5887 	.data.w	.LDW_unq_26-.LDW_unq_25
                    5888 .LDW_unq_25:
0000022c 00000000*  5889 	.data.w	.LDW_626e228
00000230 00000000*  5890 	.data.w	EcuM_SetWakeupEvent
00000234 00000028   5891 	.data.w	__ghs_eofn_EcuM_SetWakeupEvent-EcuM_SetWakeupEvent
00000238 01         5892 	.data.b	1
00000239 00000000*  5893 	.data.w	.LDW74
0000023d 00         5894 	.data.b	0
0000023e 00         5895 	.data.b	0
0000023f 00         5896 	.data.b	0
                    5897 .LDW_unq_26:
                    5898 	.section	.debug_line

                                                                      Page 128
                                                              C:\Users\Fengyuan\AppData\Local\Temp\gh_00006b81.s
00001ceb 020500     5899 	.data.b	0,5,2
00001cee 00000000*  5900 	.data.w	EcuM_SetWakeupEvent
00001cf2 06         5901 	.data.b	6
00001cf3 03         5902 	.data.b	3
00001cf4 238c       5903 	.data.b	140,35
00001cf6 02         5904 	.data.b	2
00001cf7 00         5905 	.data.b	0
00001cf8 01         5906 	.data.b	1
00001cf9 03         5907 	.data.b	3
00001cfa 05         5908 	.data.b	5
00001cfb 02         5909 	.data.b	2
00001cfc 02         5910 	.data.b	2
00001cfd 01         5911 	.data.b	1
00001cfe 03         5912 	.data.b	3
00001cff 07         5913 	.data.b	7
00001d00 02         5914 	.data.b	2
00001d01 06         5915 	.data.b	6
00001d02 01         5916 	.data.b	1
00001d03 020500     5917 	.data.b	0,5,2
00001d06 00000000*  5918 	.data.w	.LDWlin41
00001d0a 03         5919 	.data.b	3
00001d0b 06         5920 	.data.b	6
00001d0c 02         5921 	.data.b	2
00001d0d 00         5922 	.data.b	0
00001d0e 01         5923 	.data.b	1
00001d0f 0d         5924 	.data.b	13
00001d10 0c         5925 	.data.b	12
00001d11 03         5926 	.data.b	3
00001d12 36         5927 	.data.b	54
00001d13 02         5928 	.data.b	2
00001d14 00         5929 	.data.b	0
00001d15 01         5930 	.data.b	1
00001d16 020500     5931 	.data.b	0,5,2
00001d19 00000000*  5932 	.data.w	.LDWlin42
00001d1d 03         5933 	.data.b	3
00001d1e 0b         5934 	.data.b	11
00001d1f 02         5935 	.data.b	2
00001d20 00         5936 	.data.b	0
00001d21 01         5937 	.data.b	1
00001d22 02         5938 	.data.b	2
00001d23 00         5939 	.data.b	0
00001d24 03         5940 	.data.b	3
00001d25 04         5941 	.data.b	4
00001d26 02         5942 	.data.b	2
00001d27 00         5943 	.data.b	0
00001d28 01         5944 	.data.b	1
00001d29 0b         5945 	.data.b	11
00001d2a 0b         5946 	.data.b	11
00001d2b 3b         5947 	.data.b	59
00001d2c 02         5948 	.data.b	2
00001d2d 00         5949 	.data.b	0
00001d2e 03         5950 	.data.b	3
00001d2f 04         5951 	.data.b	4
00001d30 02         5952 	.data.b	2
00001d31 00         5953 	.data.b	0
00001d32 01         5954 	.data.b	1
00001d33 02         5955 	.data.b	2
00001d34 02         5956 	.data.b	2
00001d35 010100     5957 	.data.b	0,1,1
                    5958 	.section	.debug_info
                    5959 .LDW_5da3b60:

                                                                      Page 129
                                                              C:\Users\Fengyuan\AppData\Local\Temp\gh_00006b81.s
000014ad 11         5960 	.data.b	17
000014ae 656b6157   5961 	.data.b	87,97,107,101,117,112,83,111,117,114,99,101,0
000014b2 6f537075 
000014b6 65637275 
000014ba 00 
000014bb 238c       5962 	.data.b	140,35
000014bd 51         5963 	.data.b	81
000014be 01         5964 	.data.b	1
000014bf 00000000*  5965 	.data.w	.LDW_5da74b8
000014c3 00         5966 	.data.b	0
000014c4 5401       5967 	.data.b	1,84
                    5968 
                    5969 .LDW_5e8cfe0:
000014c6 1f         5970 	.data.b	31
000014c7 00000000*  5971 	.data.w	.LDW64
000014cb 00000000*  5972 	.data.w	.LDW74
                    5973 
                    5974 .LDW_5da3588:
000014cf 07         5975 	.data.b	7
000014d0 6f727265   5976 	.data.b	101,114,114,111,114,73,100,0
000014d4 00644972 
000014d8 238f       5977 	.data.b	143,35
000014da 09         5978 	.data.b	9
000014db 01         5979 	.data.b	1
000014dc 00000000*  5980 	.data.w	.LDW_5da7408
000014e0 00         5981 	.data.b	0
000014e1 00         5982 	.data.b	0
                    5983 
                    5984 .LDW_5da37f0:
000014e2 06         5985 	.data.b	6
000014e3 66696853   5986 	.data.b	83,104,105,102,116,99,111,117,110,116,0
000014e7 756f6374 
000014eb 00746e 
000014ee 2390       5987 	.data.b	144,35
000014f0 09         5988 	.data.b	9
000014f1 01         5989 	.data.b	1
000014f2 00000000*  5990 	.data.w	.LDW_5da7408
000014f6 00         5991 	.data.b	0
000014f7 00         5992 	.data.b	0
000014f8 5001       5993 	.data.b	1,80
                    5994 
000014fa 00         5995 	.data.b	0
                    5996 
000014fb 00         5997 	.data.b	0
                    5998 
                    5999 .LDW_5e8de90:
000014fc 15         6000 	.data.b	21
000014fd 4d756345   6001 	.data.b	69,99,117,77,95,86,97,108,105,100,97,116,101,87,97,107,101,117,112,69,118,101,110,116,0
00001501 6c61565f 
00001505 74616469 
00001509 6b615765 
0000150d 45707565 
00001511 746e6576 
00001515 00 
00001516 2488       6002 	.data.b	136,36
00001518 17         6003 	.data.b	23
00001519 01         6004 	.data.b	1
0000151a 00000000*  6005 	.data.w	EcuM_ValidateWakeupEvent
0000151e 00000000*  6006 	.data.w	__ghs_eofn_EcuM_ValidateWakeupEvent
00001522 5d01       6007 	.data.b	1,93
00001524 0180f0     6008 	.data.b	240,128,1

                                                                      Page 130
                                                              C:\Users\Fengyuan\AppData\Local\Temp\gh_00006b81.s
00001527 74         6009 	.data.b	116
00001528 00         6010 	.data.b	0
00001529 10         6011 	.data.b	16
0000152a 01         6012 	.data.b	1
0000152b 00         6013 	.data.b	0
0000152c 00         6014 	.data.b	0
0000152d 01         6015 	.data.b	1
0000152e 01         6016 	.data.b	1
0000152f 00         6017 	.data.b	0
00001530 01         6018 	.data.b	1
                    6019 
                    6020 	.section	.debug_frame
                    6021 .LDW_5f08ae8:
00000240 00000000*  6022 	.data.w	.LDW_unq_28-.LDW_unq_27
                    6023 .LDW_unq_27:
00000244 00000000*  6024 	.data.w	.LDW_626e228
00000248 00000000*  6025 	.data.w	EcuM_ValidateWakeupEvent
0000024c 00000082   6026 	.data.w	__ghs_eofn_EcuM_ValidateWakeupEvent-EcuM_ValidateWakeupEvent
00000250 01         6027 	.data.b	1
00000251 00000000*  6028 	.data.w	.LDW15
00000255 00         6029 	.data.b	0
00000256 00         6030 	.data.b	0
00000257 00         6031 	.data.b	0
                    6032 .LDW_unq_28:
                    6033 	.section	.debug_line
00001d38 020500     6034 	.data.b	0,5,2
00001d3b 00000000*  6035 	.data.w	EcuM_ValidateWakeupEvent
00001d3f 06         6036 	.data.b	6
00001d40 03         6037 	.data.b	3
00001d41 2488       6038 	.data.b	136,36
00001d43 02         6039 	.data.b	2
00001d44 00         6040 	.data.b	0
00001d45 01         6041 	.data.b	1
00001d46 1d         6042 	.data.b	29
00001d47 03         6043 	.data.b	3
00001d48 05         6044 	.data.b	5
00001d49 02         6045 	.data.b	2
00001d4a 08         6046 	.data.b	8
00001d4b 01         6047 	.data.b	1
00001d4c 020500     6048 	.data.b	0,5,2
00001d4f 00000000*  6049 	.data.w	.LDWlin43
00001d53 03         6050 	.data.b	3
00001d54 06         6051 	.data.b	6
00001d55 02         6052 	.data.b	2
00001d56 00         6053 	.data.b	0
00001d57 01         6054 	.data.b	1
00001d58 0c         6055 	.data.b	12
00001d59 0c         6056 	.data.b	12
00001d5a 0d         6057 	.data.b	13
00001d5b 03         6058 	.data.b	3
00001d5c 08         6059 	.data.b	8
00001d5d 02         6060 	.data.b	2
00001d5e 04         6061 	.data.b	4
00001d5f 01         6062 	.data.b	1
00001d60 020500     6063 	.data.b	0,5,2
00001d63 00000000*  6064 	.data.w	.LDWlin44
00001d67 03         6065 	.data.b	3
00001d68 0d         6066 	.data.b	13
00001d69 02         6067 	.data.b	2
00001d6a 00         6068 	.data.b	0
00001d6b 01         6069 	.data.b	1

                                                                      Page 131
                                                              C:\Users\Fengyuan\AppData\Local\Temp\gh_00006b81.s
00001d6c 0c         6070 	.data.b	12
00001d6d 03         6071 	.data.b	3
00001d6e 08         6072 	.data.b	8
00001d6f 02         6073 	.data.b	2
00001d70 06         6074 	.data.b	6
00001d71 01         6075 	.data.b	1
00001d72 020500     6076 	.data.b	0,5,2
00001d75 00000000*  6077 	.data.w	.LDWlin45
00001d79 0b         6078 	.data.b	11
00001d7a 0b         6079 	.data.b	11
00001d7b 020500     6080 	.data.b	0,5,2
00001d7e 00000000*  6081 	.data.w	.LDWlin46
00001d82 0b         6082 	.data.b	11
00001d83 0c         6083 	.data.b	12
00001d84 0c         6084 	.data.b	12
00001d85 23         6085 	.data.b	35
00001d86 02         6086 	.data.b	2
00001d87 00         6087 	.data.b	0
00001d88 03         6088 	.data.b	3
00001d89 08         6089 	.data.b	8
00001d8a 02         6090 	.data.b	2
00001d8b 00         6091 	.data.b	0
00001d8c 01         6092 	.data.b	1
00001d8d 020500     6093 	.data.b	0,5,2
00001d90 00000000*  6094 	.data.w	.LDWlin47
00001d94 03         6095 	.data.b	3
00001d95 04         6096 	.data.b	4
00001d96 02         6097 	.data.b	2
00001d97 00         6098 	.data.b	0
00001d98 01         6099 	.data.b	1
00001d99 0d         6100 	.data.b	13
00001d9a 2d         6101 	.data.b	45
00001d9b 020500     6102 	.data.b	0,5,2
00001d9e 00000000*  6103 	.data.w	.LDWlin48
00001da2 0b         6104 	.data.b	11
00001da3 03         6105 	.data.b	3
00001da4 06         6106 	.data.b	6
00001da5 02         6107 	.data.b	2
00001da6 00         6108 	.data.b	0
00001da7 01         6109 	.data.b	1
00001da8 020500     6110 	.data.b	0,5,2
00001dab 00000000*  6111 	.data.w	.LDWlin49
00001daf 03         6112 	.data.b	3
00001db0 09         6113 	.data.b	9
00001db1 02         6114 	.data.b	2
00001db2 00         6115 	.data.b	0
00001db3 01         6116 	.data.b	1
00001db4 0d         6117 	.data.b	13
00001db5 0b         6118 	.data.b	11
00001db6 23         6119 	.data.b	35
00001db7 02         6120 	.data.b	2
00001db8 00         6121 	.data.b	0
00001db9 0b         6122 	.data.b	11
00001dba 02         6123 	.data.b	2
00001dbb 00         6124 	.data.b	0
00001dbc 0c         6125 	.data.b	12
00001dbd 02         6126 	.data.b	2
00001dbe 00         6127 	.data.b	0
00001dbf 03         6128 	.data.b	3
00001dc0 0a         6129 	.data.b	10
00001dc1 02         6130 	.data.b	2

                                                                      Page 132
                                                              C:\Users\Fengyuan\AppData\Local\Temp\gh_00006b81.s
00001dc2 00         6131 	.data.b	0
00001dc3 01         6132 	.data.b	1
00001dc4 020500     6133 	.data.b	0,5,2
00001dc7 00000000*  6134 	.data.w	.LDWlin50
00001dcb 0b         6135 	.data.b	11
00001dcc 02         6136 	.data.b	2
00001dcd 00         6137 	.data.b	0
00001dce 03         6138 	.data.b	3
00001dcf 04         6139 	.data.b	4
00001dd0 02         6140 	.data.b	2
00001dd1 00         6141 	.data.b	0
00001dd2 01         6142 	.data.b	1
00001dd3 0b         6143 	.data.b	11
00001dd4 0b         6144 	.data.b	11
00001dd5 3b         6145 	.data.b	59
00001dd6 02         6146 	.data.b	2
00001dd7 00         6147 	.data.b	0
00001dd8 03         6148 	.data.b	3
00001dd9 04         6149 	.data.b	4
00001dda 02         6150 	.data.b	2
00001ddb 00         6151 	.data.b	0
00001ddc 01         6152 	.data.b	1
00001ddd 02         6153 	.data.b	2
00001dde 04         6154 	.data.b	4
00001ddf 010100     6155 	.data.b	0,1,1
                    6156 	.section	.debug_info
                    6157 .LDW_5da3270:
00001531 11         6158 	.data.b	17
00001532 656b6157   6159 	.data.b	87,97,107,101,117,112,83,111,117,114,99,101,0
00001536 6f537075 
0000153a 65637275 
0000153e 00 
0000153f 2488       6160 	.data.b	136,36
00001541 56         6161 	.data.b	86
00001542 01         6162 	.data.b	1
00001543 00000000*  6163 	.data.w	.LDW_5da74b8
00001547 00         6164 	.data.b	0
00001548 5501       6165 	.data.b	1,85
                    6166 
                    6167 .LDW_5e8cd40:
0000154a 1f         6168 	.data.b	31
0000154b 00000000*  6169 	.data.w	.LDW84
0000154f 00000000*  6170 	.data.w	.LDW15
                    6171 
                    6172 .LDW_5da3a00:
00001553 07         6173 	.data.b	7
00001554 6f727265   6174 	.data.b	101,114,114,111,114,73,100,0
00001558 00644972 
0000155c 248b       6175 	.data.b	139,36
0000155e 09         6176 	.data.b	9
0000155f 01         6177 	.data.b	1
00001560 00000000*  6178 	.data.w	.LDW_5da7408
00001564 00         6179 	.data.b	0
00001565 00         6180 	.data.b	0
                    6181 
                    6182 .LDW_5da35e0:
00001566 06         6183 	.data.b	6
00001567 66696853   6184 	.data.b	83,104,105,102,116,99,111,117,110,116,0
0000156b 756f6374 
0000156f 00746e 
00001572 248c       6185 	.data.b	140,36

                                                                      Page 133
                                                              C:\Users\Fengyuan\AppData\Local\Temp\gh_00006b81.s
00001574 09         6186 	.data.b	9
00001575 01         6187 	.data.b	1
00001576 00000000*  6188 	.data.w	.LDW_5da7408
0000157a 00         6189 	.data.b	0
0000157b 00         6190 	.data.b	0
0000157c 5601       6191 	.data.b	1,86
                    6192 
                    6193 .LDW_5e8d130:
0000157e 1f         6194 	.data.b	31
0000157f 00000000*  6195 	.data.w	.LDW94
00001583 00000000*  6196 	.data.w	.LDW05
                    6197 
                    6198 .LDW_5da3638:
00001587 06         6199 	.data.b	6
00001588 4d6d6f43   6200 	.data.b	67,111,109,77,83,116,97,116,117,115,0
0000158c 74617453 
00001590 007375 
00001593 24d3       6201 	.data.b	211,36
00001595 2d         6202 	.data.b	45
00001596 01         6203 	.data.b	1
00001597 00000000*  6204 	.data.w	.LDW_5da76f0
0000159b 00         6205 	.data.b	0
0000159c 00         6206 	.data.b	0
0000159d 7d02       6207 	.data.b	2,125
0000159f 03         6208 	.data.b	3
                    6209 
000015a0 00         6210 	.data.b	0
                    6211 
000015a1 00         6212 	.data.b	0
                    6213 
000015a2 00         6214 	.data.b	0
                    6215 
                    6216 .LDW_5e8e220:
000015a3 16         6217 	.data.b	22
000015a4 4d756345   6218 	.data.b	69,99,117,77,95,71,111,72,97,108,116,0
000015a8 486f475f 
000015ac 00746c61 
000015b0 2596       6219 	.data.b	150,37
000015b2 21         6220 	.data.b	33
000015b3 01         6221 	.data.b	1
000015b4 00000000*  6222 	.data.w	.LDW_5f2cf80
000015b8 00000000*  6223 	.data.w	EcuM_GoHalt
000015bc 00000000*  6224 	.data.w	__ghs_eofn_EcuM_GoHalt
000015c0 5d01       6225 	.data.b	1,93
000015c2 018090     6226 	.data.b	144,128,1
000015c5 7c         6227 	.data.b	124
000015c6 00         6228 	.data.b	0
000015c7 04         6229 	.data.b	4
000015c8 01         6230 	.data.b	1
000015c9 00         6231 	.data.b	0
000015ca 00         6232 	.data.b	0
000015cb 01         6233 	.data.b	1
000015cc 01         6234 	.data.b	1
000015cd 00         6235 	.data.b	0
000015ce 01         6236 	.data.b	1
                    6237 
                    6238 	.section	.debug_frame
                    6239 .LDW_5f09028:
00000258 00000000*  6240 	.data.w	.LDW_unq_2a-.LDW_unq_29
                    6241 .LDW_unq_29:
0000025c 00000000*  6242 	.data.w	.LDW_626e228

                                                                      Page 134
                                                              C:\Users\Fengyuan\AppData\Local\Temp\gh_00006b81.s
00000260 00000000*  6243 	.data.w	EcuM_GoHalt
00000264 00000012   6244 	.data.w	__ghs_eofn_EcuM_GoHalt-EcuM_GoHalt
00000268 01         6245 	.data.b	1
00000269 00000000*  6246 	.data.w	.LDW35
0000026d 00         6247 	.data.b	0
0000026e 00         6248 	.data.b	0
0000026f 00         6249 	.data.b	0
                    6250 .LDW_unq_2a:
                    6251 	.section	.debug_line
00001de2 020500     6252 	.data.b	0,5,2
00001de5 00000000*  6253 	.data.w	EcuM_GoHalt
00001de9 06         6254 	.data.b	6
00001dea 03         6255 	.data.b	3
00001deb 2596       6256 	.data.b	150,37
00001ded 02         6257 	.data.b	2
00001dee 00         6258 	.data.b	0
00001def 01         6259 	.data.b	1
00001df0 03         6260 	.data.b	3
00001df1 39         6261 	.data.b	57
00001df2 02         6262 	.data.b	2
00001df3 02         6263 	.data.b	2
00001df4 01         6264 	.data.b	1
00001df5 03         6265 	.data.b	3
00001df6 04         6266 	.data.b	4
00001df7 02         6267 	.data.b	2
00001df8 0c         6268 	.data.b	12
00001df9 01         6269 	.data.b	1
00001dfa 06         6270 	.data.b	6
00001dfb 02         6271 	.data.b	2
00001dfc 02         6272 	.data.b	2
00001dfd 02         6273 	.data.b	2
00001dfe 02         6274 	.data.b	2
00001dff 010100     6275 	.data.b	0,1,1
                    6276 	.section	.debug_info
                    6277 .LDW_5e8ce90:
000015cf 1f         6278 	.data.b	31
000015d0 00000000*  6279 	.data.w	.LDW25
000015d4 00000000*  6280 	.data.w	.LDW35
                    6281 
                    6282 .LDW_5da3690:
000015d8 07         6283 	.data.b	7
000015d9 56746572   6284 	.data.b	114,101,116,86,97,108,0
000015dd 006c61 
000015e0 2599       6285 	.data.b	153,37
000015e2 12         6286 	.data.b	18
000015e3 01         6287 	.data.b	1
000015e4 00000000*  6288 	.data.w	.LDW_5f2cf80
000015e8 00         6289 	.data.b	0
000015e9 00         6290 	.data.b	0
                    6291 
000015ea 00         6292 	.data.b	0
                    6293 
000015eb 00         6294 	.data.b	0
                    6295 
                    6296 .LDW_5e8d640:
000015ec 16         6297 	.data.b	22
000015ed 4d756345   6298 	.data.b	69,99,117,77,95,71,111,80,111,108,108,0
000015f1 506f475f 
000015f5 006c6c6f 
000015f9 25e5       6299 	.data.b	229,37
000015fb 21         6300 	.data.b	33

                                                                      Page 135
                                                              C:\Users\Fengyuan\AppData\Local\Temp\gh_00006b81.s
000015fc 01         6301 	.data.b	1
000015fd 00000000*  6302 	.data.w	.LDW_5f2cf80
00001601 00000000*  6303 	.data.w	EcuM_GoPoll
00001605 00000000*  6304 	.data.w	__ghs_eofn_EcuM_GoPoll
00001609 5d01       6305 	.data.b	1,93
0000160b 018090     6306 	.data.b	144,128,1
0000160e 7c         6307 	.data.b	124
0000160f 00         6308 	.data.b	0
00001610 04         6309 	.data.b	4
00001611 01         6310 	.data.b	1
00001612 00         6311 	.data.b	0
00001613 00         6312 	.data.b	0
00001614 01         6313 	.data.b	1
00001615 01         6314 	.data.b	1
00001616 00         6315 	.data.b	0
00001617 01         6316 	.data.b	1
                    6317 
                    6318 	.section	.debug_frame
                    6319 .LDW_5d0ebe0:
00000270 00000000*  6320 	.data.w	.LDW_unq_2c-.LDW_unq_2b
                    6321 .LDW_unq_2b:
00000274 00000000*  6322 	.data.w	.LDW_626e228
00000278 00000000*  6323 	.data.w	EcuM_GoPoll
0000027c 00000012   6324 	.data.w	__ghs_eofn_EcuM_GoPoll-EcuM_GoPoll
00000280 01         6325 	.data.b	1
00000281 00000000*  6326 	.data.w	.LDW55
00000285 00         6327 	.data.b	0
00000286 00         6328 	.data.b	0
00000287 00         6329 	.data.b	0
                    6330 .LDW_unq_2c:
                    6331 	.section	.debug_line
00001e02 020500     6332 	.data.b	0,5,2
00001e05 00000000*  6333 	.data.w	EcuM_GoPoll
00001e09 06         6334 	.data.b	6
00001e0a 03         6335 	.data.b	3
00001e0b 25e5       6336 	.data.b	229,37
00001e0d 02         6337 	.data.b	2
00001e0e 00         6338 	.data.b	0
00001e0f 01         6339 	.data.b	1
00001e10 03         6340 	.data.b	3
00001e11 3a         6341 	.data.b	58
00001e12 02         6342 	.data.b	2
00001e13 02         6343 	.data.b	2
00001e14 01         6344 	.data.b	1
00001e15 03         6345 	.data.b	3
00001e16 04         6346 	.data.b	4
00001e17 02         6347 	.data.b	2
00001e18 0c         6348 	.data.b	12
00001e19 01         6349 	.data.b	1
00001e1a 06         6350 	.data.b	6
00001e1b 02         6351 	.data.b	2
00001e1c 02         6352 	.data.b	2
00001e1d 02         6353 	.data.b	2
00001e1e 02         6354 	.data.b	2
00001e1f 010100     6355 	.data.b	0,1,1
                    6356 	.section	.debug_info
                    6357 .LDW_5e8cda0:
00001618 1f         6358 	.data.b	31
00001619 00000000*  6359 	.data.w	.LDW45
0000161d 00000000*  6360 	.data.w	.LDW55
                    6361 

                                                                      Page 136
                                                              C:\Users\Fengyuan\AppData\Local\Temp\gh_00006b81.s
                    6362 .LDW_5da3bb8:
00001621 07         6363 	.data.b	7
00001622 56746572   6364 	.data.b	114,101,116,86,97,108,0
00001626 006c61 
00001629 25e8       6365 	.data.b	232,37
0000162b 12         6366 	.data.b	18
0000162c 01         6367 	.data.b	1
0000162d 00000000*  6368 	.data.w	.LDW_5f2cf80
00001631 00         6369 	.data.b	0
00001632 00         6370 	.data.b	0
                    6371 
00001633 00         6372 	.data.b	0
                    6373 
00001634 00         6374 	.data.b	0
                    6375 
                    6376 .LDW_5e8e3e8:
00001635 16         6377 	.data.b	22
00001636 4d756345   6378 	.data.b	69,99,117,77,95,71,111,84,111,83,101,108,101,99,116,101,100,83,104,117,116,100,111,119,110,84,97,114,103,101,116,0
0000163a 546f475f 
0000163e 6c65536f 
00001642 65746365 
00001646 75685364 
0000164a 776f6474 
0000164e 7261546e 
00001652 00746567 
00001656 26b2       6379 	.data.b	178,38
00001658 21         6380 	.data.b	33
00001659 01         6381 	.data.b	1
0000165a 00000000*  6382 	.data.w	.LDW_5f2cf80
0000165e 00000000*  6383 	.data.w	EcuM_GoToSelectedShutdownTarget
00001662 00000000*  6384 	.data.w	__ghs_eofn_EcuM_GoToSelectedShutdownTarget
00001666 5d01       6385 	.data.b	1,93
00001668 00         6386 	.data.b	0
00001669 04         6387 	.data.b	4
0000166a 00         6388 	.data.b	0
0000166b 7c         6389 	.data.b	124
0000166c 01         6390 	.data.b	1
0000166d 00         6391 	.data.b	0
0000166e 00         6392 	.data.b	0
0000166f 01         6393 	.data.b	1
00001670 01         6394 	.data.b	1
00001671 00         6395 	.data.b	0
00001672 01         6396 	.data.b	1
                    6397 
                    6398 	.section	.debug_frame
                    6399 .LDW_5d0ed60:
00000288 00000000*  6400 	.data.w	.LDW_unq_2e-.LDW_unq_2d
                    6401 .LDW_unq_2d:
0000028c 00000000*  6402 	.data.w	.LDW_626e228
00000290 00000000*  6403 	.data.w	EcuM_GoToSelectedShutdownTarget
00000294 00000006   6404 	.data.w	__ghs_eofn_EcuM_GoToSelectedShutdownTarget-EcuM_GoToSelectedShutdownTarget
00000298 01         6405 	.data.b	1
00000299 00000000*  6406 	.data.w	.LDW75
0000029d 00         6407 	.data.b	0
0000029e 00         6408 	.data.b	0
0000029f 00         6409 	.data.b	0
                    6410 .LDW_unq_2e:
                    6411 	.section	.debug_line
00001e22 020500     6412 	.data.b	0,5,2
00001e25 00000000*  6413 	.data.w	EcuM_GoToSelectedShutdownTarget
00001e29 06         6414 	.data.b	6

                                                                      Page 137
                                                              C:\Users\Fengyuan\AppData\Local\Temp\gh_00006b81.s
00001e2a 03         6415 	.data.b	3
00001e2b 26cd       6416 	.data.b	205,38
00001e2d 02         6417 	.data.b	2
00001e2e 00         6418 	.data.b	0
00001e2f 01         6419 	.data.b	1
00001e30 02         6420 	.data.b	2
00001e31 06         6421 	.data.b	6
00001e32 010100     6422 	.data.b	0,1,1
                    6423 	.section	.debug_info
                    6424 .LDW_5e8ce30:
00001673 1f         6425 	.data.b	31
00001674 00000000*  6426 	.data.w	.LDW65
00001678 00000000*  6427 	.data.w	.LDW75
                    6428 
                    6429 .LDW_5da3740:
0000167c 07         6430 	.data.b	7
0000167d 56746572   6431 	.data.b	114,101,116,86,97,108,0
00001681 006c61 
00001684 26b5       6432 	.data.b	181,38
00001686 12         6433 	.data.b	18
00001687 01         6434 	.data.b	1
00001688 00000000*  6435 	.data.w	.LDW_5f2cf80
0000168c 00         6436 	.data.b	0
0000168d 00         6437 	.data.b	0
                    6438 
0000168e 00         6439 	.data.b	0
                    6440 
0000168f 00         6441 	.data.b	0
                    6442 
                    6443 .LDW_5e8e350:
00001690 16         6444 	.data.b	22
00001691 4d756345   6445 	.data.b	69,99,117,77,95,71,111,68,111,119,110,0
00001695 446f475f 
00001699 006e776f 
0000169d 26ed       6446 	.data.b	237,38
0000169f 21         6447 	.data.b	33
000016a0 01         6448 	.data.b	1
000016a1 00000000*  6449 	.data.w	.LDW_5f2cf80
000016a5 00000000*  6450 	.data.w	EcuM_GoDown
000016a9 00000000*  6451 	.data.w	__ghs_eofn_EcuM_GoDown
000016ad 5d01       6452 	.data.b	1,93
000016af 0180b0     6453 	.data.b	176,128,1
000016b2 78         6454 	.data.b	120
000016b3 00         6455 	.data.b	0
000016b4 08         6456 	.data.b	8
000016b5 01         6457 	.data.b	1
000016b6 00         6458 	.data.b	0
000016b7 00         6459 	.data.b	0
000016b8 01         6460 	.data.b	1
000016b9 01         6461 	.data.b	1
000016ba 00         6462 	.data.b	0
000016bb 01         6463 	.data.b	1
                    6464 
                    6465 	.section	.debug_frame
                    6466 .LDW_5d0e9e0:
000002a0 00000000*  6467 	.data.w	.LDW_unq_30-.LDW_unq_2f
                    6468 .LDW_unq_2f:
000002a4 00000000*  6469 	.data.w	.LDW_626e228
000002a8 00000000*  6470 	.data.w	EcuM_GoDown
000002ac 00000052   6471 	.data.w	__ghs_eofn_EcuM_GoDown-EcuM_GoDown
000002b0 01         6472 	.data.b	1

                                                                      Page 138
                                                              C:\Users\Fengyuan\AppData\Local\Temp\gh_00006b81.s
000002b1 00000000*  6473 	.data.w	.LDW95
000002b5 00         6474 	.data.b	0
000002b6 00         6475 	.data.b	0
000002b7 00         6476 	.data.b	0
                    6477 .LDW_unq_30:
                    6478 	.section	.debug_line
00001e35 020500     6479 	.data.b	0,5,2
00001e38 00000000*  6480 	.data.w	EcuM_GoDown
00001e3c 06         6481 	.data.b	6
00001e3d 03         6482 	.data.b	3
00001e3e 26f0       6483 	.data.b	240,38
00001e40 02         6484 	.data.b	2
00001e41 00         6485 	.data.b	0
00001e42 01         6486 	.data.b	1
00001e43 03         6487 	.data.b	3
00001e44 1d         6488 	.data.b	29
00001e45 02         6489 	.data.b	2
00001e46 02         6490 	.data.b	2
00001e47 01         6491 	.data.b	1
00001e48 020500     6492 	.data.b	0,5,2
00001e4b 00000000*  6493 	.data.w	.LDWlin51
00001e4f 0b         6494 	.data.b	11
00001e50 0c         6495 	.data.b	12
00001e51 0d         6496 	.data.b	13
00001e52 03         6497 	.data.b	3
00001e53 22         6498 	.data.b	34
00001e54 02         6499 	.data.b	2
00001e55 00         6500 	.data.b	0
00001e56 01         6501 	.data.b	1
00001e57 03         6502 	.data.b	3
00001e58 0a         6503 	.data.b	10
00001e59 02         6504 	.data.b	2
00001e5a 02         6505 	.data.b	2
00001e5b 01         6506 	.data.b	1
00001e5c 1d         6507 	.data.b	29
00001e5d 03         6508 	.data.b	3
00001e5e 04         6509 	.data.b	4
00001e5f 02         6510 	.data.b	2
00001e60 04         6511 	.data.b	4
00001e61 01         6512 	.data.b	1
00001e62 1c         6513 	.data.b	28
00001e63 03         6514 	.data.b	3
00001e64 09         6515 	.data.b	9
00001e65 02         6516 	.data.b	2
00001e66 04         6517 	.data.b	4
00001e67 01         6518 	.data.b	1
00001e68 020500     6519 	.data.b	0,5,2
00001e6b 00000000*  6520 	.data.w	.LDWlin52
00001e6f 0b         6521 	.data.b	11
00001e70 0c         6522 	.data.b	12
00001e71 1c         6523 	.data.b	28
00001e72 1b         6524 	.data.b	27
00001e73 0c         6525 	.data.b	12
00001e74 1d         6526 	.data.b	29
00001e75 03         6527 	.data.b	3
00001e76 05         6528 	.data.b	5
00001e77 02         6529 	.data.b	2
00001e78 04         6530 	.data.b	4
00001e79 01         6531 	.data.b	1
00001e7a 02         6532 	.data.b	2
00001e7b 00         6533 	.data.b	0

                                                                      Page 139
                                                              C:\Users\Fengyuan\AppData\Local\Temp\gh_00006b81.s
00001e7c 0c         6534 	.data.b	12
00001e7d 1b         6535 	.data.b	27
00001e7e 02         6536 	.data.b	2
00001e7f 00         6537 	.data.b	0
00001e80 0d         6538 	.data.b	13
00001e81 020500     6539 	.data.b	0,5,2
00001e84 00000000*  6540 	.data.w	.LDWlin53
00001e88 0c         6541 	.data.b	12
00001e89 02         6542 	.data.b	2
00001e8a 00         6543 	.data.b	0
00001e8b 03         6544 	.data.b	3
00001e8c 04         6545 	.data.b	4
00001e8d 02         6546 	.data.b	2
00001e8e 00         6547 	.data.b	0
00001e8f 01         6548 	.data.b	1
00001e90 0b         6549 	.data.b	11
00001e91 0b         6550 	.data.b	11
00001e92 3b         6551 	.data.b	59
00001e93 02         6552 	.data.b	2
00001e94 00         6553 	.data.b	0
00001e95 03         6554 	.data.b	3
00001e96 33         6555 	.data.b	51
00001e97 02         6556 	.data.b	2
00001e98 00         6557 	.data.b	0
00001e99 01         6558 	.data.b	1
00001e9a 06         6559 	.data.b	6
00001e9b 02         6560 	.data.b	2
00001e9c 02         6561 	.data.b	2
00001e9d 02         6562 	.data.b	2
00001e9e 02         6563 	.data.b	2
00001e9f 010100     6564 	.data.b	0,1,1
                    6565 	.section	.debug_info
                    6566 .LDW_5da3c68:
000016bc 11         6567 	.data.b	17
000016bd 6c6c6163   6568 	.data.b	99,97,108,108,101,114,0
000016c1 007265 
000016c4 26ed       6569 	.data.b	237,38
000016c6 44         6570 	.data.b	68
000016c7 01         6571 	.data.b	1
000016c8 00000000*  6572 	.data.w	.LDW_5da3798
000016cc 00         6573 	.data.b	0
000016cd 5001       6574 	.data.b	1,80
                    6575 
                    6576 .LDW_5e8d2b0:
000016cf 1f         6577 	.data.b	31
000016d0 00000000*  6578 	.data.w	.LDW85
000016d4 00000000*  6579 	.data.w	.LDW95
                    6580 
                    6581 .LDW_5da3848:
000016d8 06         6582 	.data.b	6
000016d9 56746572   6583 	.data.b	114,101,116,86,97,108,0
000016dd 006c61 
000016e0 26f3       6584 	.data.b	243,38
000016e2 12         6585 	.data.b	18
000016e3 01         6586 	.data.b	1
000016e4 00000000*  6587 	.data.w	.LDW_5f2cf80
000016e8 00         6588 	.data.b	0
000016e9 00         6589 	.data.b	0
000016ea 5401       6590 	.data.b	1,84
                    6591 
                    6592 .LDW_5da38a0:

                                                                      Page 140
                                                              C:\Users\Fengyuan\AppData\Local\Temp\gh_00006b81.s
000016ec 07         6593 	.data.b	7
000016ed 6f727265   6594 	.data.b	101,114,114,111,114,73,100,0
000016f1 00644972 
000016f5 26f4       6595 	.data.b	244,38
000016f7 09         6596 	.data.b	9
000016f8 01         6597 	.data.b	1
000016f9 00000000*  6598 	.data.w	.LDW_5da7408
000016fd 00         6599 	.data.b	0
000016fe 00         6600 	.data.b	0
                    6601 
000016ff 00         6602 	.data.b	0
                    6603 
00001700 00         6604 	.data.b	0
                    6605 
00001701 00         6606 	.data.b	0
                    6607 
                    6608 	.section	.debug_line
                    6609 .Ldw_line_end:
                    6610 	.section	.debug_macinfo
00000000 03         6611 	.data.b	3
00000001 00         6612 	.data.b	0
00000002 01         6613 	.data.b	1
00000003 03         6614 	.data.b	3
00000004 2f         6615 	.data.b	47
00000005 02         6616 	.data.b	2
00000006 03         6617 	.data.b	3
00000007 01a5       6618 	.data.b	165,1
00000009 03         6619 	.data.b	3
0000000a 03         6620 	.data.b	3
0000000b 21         6621 	.data.b	33
0000000c 04         6622 	.data.b	4
0000000d 03         6623 	.data.b	3
0000000e 27         6624 	.data.b	39
0000000f 05         6625 	.data.b	5
00000010 03         6626 	.data.b	3
00000011 1f         6627 	.data.b	31
00000012 06         6628 	.data.b	6
00000013 03         6629 	.data.b	3
00000014 1a         6630 	.data.b	26
00000015 07         6631 	.data.b	7
00000016 03         6632 	.data.b	3
00000017 26         6633 	.data.b	38
00000018 08         6634 	.data.b	8
00000019 03         6635 	.data.b	3
0000001a 3f         6636 	.data.b	63
0000001b 09         6637 	.data.b	9
0000001c 04         6638 	.data.b	4
0000001d 03         6639 	.data.b	3
0000001e 40         6640 	.data.b	64
0000001f 0a         6641 	.data.b	10
00000020 03         6642 	.data.b	3
00000021 3e         6643 	.data.b	62
00000022 0b         6644 	.data.b	11
00000023 01         6645 	.data.b	1
00000024 7e         6646 	.data.b	126
00000025 4552475f   6647 	.data.b	95,71,82,69,69,78,72,73,76,76,83,95,67,95,83,51,50,75,49,52,120,95,32,0
00000029 49484e45 
0000002d 5f534c4c 
00000031 33535f43 
00000035 34314b32 
00000039 00205f78 

                                                                      Page 141
                                                              C:\Users\Fengyuan\AppData\Local\Temp\gh_00006b81.s
0000003d 03         6648 	.data.b	3
0000003e 7f         6649 	.data.b	127
0000003f 0c         6650 	.data.b	12
00000040 04         6651 	.data.b	4
00000041 01         6652 	.data.b	1
00000042 01ab       6653 	.data.b	171,1
00000044 41534944   6654 	.data.b	68,73,83,65,66,76,69,95,77,67,65,76,95,73,78,84,69,82,77,79,68,85,76,69,95,65,83,82,95,67,72,69,67,75,32,0
00000048 5f454c42 
0000004c 4c41434d 
00000050 544e495f 
00000054 4f4d5245 
00000058 454c5544 
0000005c 5253415f 
00000060 4548435f 
00000064 00204b43 
00000068 03         6655 	.data.b	3
00000069 01d6       6656 	.data.b	214,1
0000006b 0d         6657 	.data.b	13
0000006c 04         6658 	.data.b	4
0000006d 03         6659 	.data.b	3
0000006e 01d7       6660 	.data.b	215,1
00000070 0e         6661 	.data.b	14
00000071 04         6662 	.data.b	4
00000072 03         6663 	.data.b	3
00000073 06c5       6664 	.data.b	197,6
00000075 0f         6665 	.data.b	15
00000076 04         6666 	.data.b	4
00000077 04         6667 	.data.b	4
00000078 01         6668 	.data.b	1
00000079 5b         6669 	.data.b	91
0000007a 4f545541   6670 	.data.b	65,85,84,79,77,65,84,73,67,32,0
0000007e 4954414d 
00000082 002043 
00000085 01         6671 	.data.b	1
00000086 5e         6672 	.data.b	94
00000087 45505954   6673 	.data.b	84,89,80,69,68,69,70,32,0
0000008b 20464544 
0000008f 00 
00000090 01         6674 	.data.b	1
00000091 63         6675 	.data.b	99
00000092 4c4c554e   6676 	.data.b	78,85,76,76,95,80,84,82,32,40,40,118,111,105,100,32,42,41,48,41,0
00000096 5254505f 
0000009a 76282820 
0000009e 2064696f 
000000a2 2930292a 
000000a6 00 
000000a7 01         6677 	.data.b	1
000000a8 6f         6678 	.data.b	111
000000a9 41434f4c   6679 	.data.b	76,79,67,65,76,95,73,78,76,73,78,69,32,115,116,97,116,105,99,32,105,110,108,105,110,101,0
000000ad 4e495f4c 
000000b1 454e494c 
000000b5 61747320 
000000b9 20636974 
000000bd 696c6e69 
000000c1 00656e 
000000c4 01         6680 	.data.b	1
000000c5 75         6681 	.data.b	117
000000c6 434e5546   6682 	.data.b	70,85,78,67,40,114,101,116,116,121,112,101,44,109,101,109,99,108,97,115,115,41,32,114,101,116,116,121,112,101,0
000000ca 74657228 
000000ce 65707974 
000000d2 6d656d2c 

                                                                      Page 142
                                                              C:\Users\Fengyuan\AppData\Local\Temp\gh_00006b81.s
000000d6 73616c63 
000000da 72202973 
000000de 79747465 
000000e2 006570 
000000e5 01         6683 	.data.b	1
000000e6 7c         6684 	.data.b	124
000000e7 434e5546   6685 	.data.b	70,85,78,67,95,80,50,67,79,78,83,84,40,114,101,116,116,121,112,101,44,112,116,114,99,108,97,115,115,44,109,101,109,99,108,97,115,115,41,32,99,111,110,115,116,32,114,101,116,116,121,112,101,42,0
000000eb 4332505f 
000000ef 54534e4f 
000000f3 74657228 
000000f7 65707974 
000000fb 7274702c 
000000ff 73616c63 
00000103 656d2c73 
00000107 616c636d 
0000010b 20297373 
0000010f 736e6f63 
00000113 65722074 
00000117 70797474 
0000011b 002a65 
0000011e 01         6686 	.data.b	1
0000011f 018a       6687 	.data.b	138,1
00000121 41563250   6688 	.data.b	80,50,86,65,82,40,112,116,114,116,121,112,101,44,109,101,109,99,108,97,115,115,44,112,116,114,99,108,97,115,115,41,32,112,116,114,116,121,112,101,42,0
00000125 74702852 
00000129 70797472 
0000012d 656d2c65 
00000131 616c636d 
00000135 702c7373 
00000139 6c637274 
0000013d 29737361 
00000141 72747020 
00000145 65707974 
00000149 002a 
0000014b 01         6689 	.data.b	1
0000014c 0191       6690 	.data.b	145,1
0000014e 4f433250   6691 	.data.b	80,50,67,79,78,83,84,40,112,116,114,116,121,112,101,44,109,101,109,99,108,97,115,115,44,112,116,114,99,108,97,115,115,41,32,99,111,110,115,116,32,112,116,114,116,121,112,101,42,0
00000152 2854534e 
00000156 74727470 
0000015a 2c657079 
0000015e 636d656d 
00000162 7373616c 
00000166 7274702c 
0000016a 73616c63 
0000016e 63202973 
00000172 74736e6f 
00000176 72747020 
0000017a 65707974 
0000017e 002a 
00000180 01         6692 	.data.b	1
00000181 0198       6693 	.data.b	152,1
00000183 534e4f43   6694 	.data.b	67,79,78,83,84,80,50,86,65,82,40,112,116,114,116,121,112,101,44,109,101,109,99,108,97,115,115,44,112,116,114,99,108,97,115,115,41,32,112,116,114,116,121,112,101,42,32,99,111,110,115,116,0
00000187 56325054 
0000018b 70285241 
0000018f 79747274 
00000193 6d2c6570 
00000197 6c636d65 
0000019b 2c737361 
0000019f 63727470 
000001a3 7373616c 
000001a7 74702029 
000001ab 70797472 

                                                                      Page 143
                                                              C:\Users\Fengyuan\AppData\Local\Temp\gh_00006b81.s
000001af 63202a65 
000001b3 74736e6f 
000001b7 00 
000001b8 01         6695 	.data.b	1
000001b9 019f       6696 	.data.b	159,1
000001bb 534e4f43   6697 	.data.b	67,79,78,83,84,80,50,67,79,78,83,84,40,112,116,114,116,121,112,101,44,109,101,109,99,108,97,115,115,44,112,116,114,99,108,97,115,115,41,32,99,111,110,115,116,32,112,116,114,116,121,112,101,42,32,99,111,110,115,116
000001bf 43325054 
000001c3 54534e4f 
000001c7 72747028 
000001cb 65707974 
000001cf 6d656d2c 
000001d3 73616c63 
000001d7 74702c73 
000001db 616c6372 
000001df 20297373 
000001e3 736e6f63 
000001e7 74702074 
000001eb 70797472 
000001ef 63202a65 
000001f3 74736e6f 
000001f7 00         6698 	.data.b	0
000001f8 01         6699 	.data.b	1
000001f9 01a6       6700 	.data.b	166,1
000001fb 55463250   6701 	.data.b	80,50,70,85,78,67,40,114,101,116,116,121,112,101,44,112,116,114,99,108,97,115,115,44,102,99,116,110,97,109,101,41,32,114,101,116,116,121,112,101,32,40,42,32,102,99,116,110,97,109,101,41,0
000001ff 7228434e 
00000203 79747465 
00000207 702c6570 
0000020b 6c637274 
0000020f 2c737361 
00000213 6e746366 
00000217 29656d61 
0000021b 74657220 
0000021f 65707974 
00000223 202a2820 
00000227 6e746366 
0000022b 29656d61 
0000022f 00 
00000230 01         6702 	.data.b	1
00000231 01b6       6703 	.data.b	182,1
00000233 534e4f43   6704 	.data.b	67,79,78,83,84,40,116,121,112,101,44,109,101,109,99,108,97,115,115,41,32,99,111,110,115,116,32,116,121,112,101,0
00000237 79742854 
0000023b 6d2c6570 
0000023f 6c636d65 
00000243 29737361 
00000247 6e6f6320 
0000024b 74207473 
0000024f 00657079 
00000253 01         6705 	.data.b	1
00000254 01bc       6706 	.data.b	188,1
00000256 28524156   6707 	.data.b	86,65,82,40,118,97,114,116,121,112,101,44,109,101,109,99,108,97,115,115,41,32,118,97,114,116,121,112,101,0
0000025a 74726176 
0000025e 2c657079 
00000262 636d656d 
00000266 7373616c 
0000026a 61762029 
0000026e 70797472 
00000272 0065 
00000274 04         6708 	.data.b	4
00000275 01         6709 	.data.b	1
00000276 6d         6710 	.data.b	109
00000277 5f445453   6711 	.data.b	83,84,68,95,79,78,32,49,117,0

                                                                      Page 144
                                                              C:\Users\Fengyuan\AppData\Local\Temp\gh_00006b81.s
0000027b 31204e4f 
0000027f 0075 
00000281 01         6712 	.data.b	1
00000282 6e         6713 	.data.b	110
00000283 5f445453   6714 	.data.b	83,84,68,95,79,70,70,32,48,117,0
00000287 2046464f 
0000028b 007530 
0000028e 01         6715 	.data.b	1
0000028f 7c         6716 	.data.b	124
00000290 4b4f5f45   6717 	.data.b	69,95,79,75,32,48,117,0
00000294 00753020 
00000298 01         6718 	.data.b	1
00000299 0180       6719 	.data.b	128,1
0000029b 4f4e5f45   6720 	.data.b	69,95,78,79,84,95,79,75,32,49,117,0
0000029f 4b4f5f54 
000002a3 00753120 
000002a7 04         6721 	.data.b	4
000002a8 03         6722 	.data.b	3
000002a9 28         6723 	.data.b	40
000002aa 10         6724 	.data.b	16
000002ab 03         6725 	.data.b	3
000002ac 27         6726 	.data.b	39
000002ad 11         6727 	.data.b	17
000002ae 03         6728 	.data.b	3
000002af 4c         6729 	.data.b	76
000002b0 12         6730 	.data.b	18
000002b1 04         6731 	.data.b	4
000002b2 01         6732 	.data.b	1
000002b3 5a         6733 	.data.b	90
000002b4 534d4f43   6734 	.data.b	67,79,77,83,84,65,67,75,84,89,80,69,95,65,82,95,82,69,76,69,65,83,69,95,82,69,86,73,83,73,79,78,95,86,69,82,83,73,79,78,32,40,51,117,41,0
000002b8 4b434154 
000002bc 45505954 
000002c0 5f52415f 
000002c4 454c4552 
000002c8 5f455341 
000002cc 49564552 
000002d0 4e4f4953 
000002d4 5245565f 
000002d8 4e4f4953 
000002dc 75332820 
000002e0 0029 
000002e2 04         6735 	.data.b	4
000002e3 04         6736 	.data.b	4
000002e4 04         6737 	.data.b	4
000002e5 03         6738 	.data.b	3
000002e6 01c4       6739 	.data.b	196,1
000002e8 13         6740 	.data.b	19
000002e9 04         6741 	.data.b	4
000002ea 04         6742 	.data.b	4
000002eb 01         6743 	.data.b	1
000002ec 28         6744 	.data.b	40
000002ed 4d554345   6745 	.data.b	69,67,85,77,95,66,79,79,84,95,84,65,82,71,69,84,95,65,80,80,32,40,48,85,41,0
000002f1 4f4f425f 
000002f5 41545f54 
000002f9 54454752 
000002fd 5050415f 
00000301 55302820 
00000305 0029 
00000307 01         6746 	.data.b	1
00000308 2c         6747 	.data.b	44
00000309 4d554345   6748 	.data.b	69,67,85,77,95,66,79,79,84,95,84,65,82,71,69,84,95,79,69,77,95,66,79,79,84,76,79,65,68,69,82,32,40,49,85,41,0

                                                                      Page 145
                                                              C:\Users\Fengyuan\AppData\Local\Temp\gh_00006b81.s
0000030d 4f4f425f 
00000311 41545f54 
00000315 54454752 
00000319 4d454f5f 
0000031d 4f4f425f 
00000321 414f4c54 
00000325 20524544 
00000329 29553128 
0000032d 00 
0000032e 01         6749 	.data.b	1
0000032f 30         6750 	.data.b	48
00000330 4d554345   6751 	.data.b	69,67,85,77,95,66,79,79,84,95,84,65,82,71,69,84,95,83,89,83,95,66,79,79,84,76,79,65,68,69,82,32,40,50,85,41,0
00000334 4f4f425f 
00000338 41545f54 
0000033c 54454752 
00000340 5359535f 
00000344 4f4f425f 
00000348 414f4c54 
0000034c 20524544 
00000350 29553228 
00000354 00 
00000355 01         6752 	.data.b	1
00000356 3c         6753 	.data.b	60
00000357 4d756345   6754 	.data.b	69,99,117,77,67,111,110,102,95,69,99,117,77,82,101,115,101,116,77,111,100,101,95,69,67,85,77,95,82,69,83,69,84,95,87,65,75,69,85,80,32,40,51,85,41,0
0000035b 666e6f43 
0000035f 7563455f 
00000363 7365524d 
00000367 6f4d7465 
0000036b 455f6564 
0000036f 5f4d5543 
00000373 45534552 
00000377 41575f54 
0000037b 5055454b 
0000037f 55332820 
00000383 0029 
00000385 01         6755 	.data.b	1
00000386 44         6756 	.data.b	68
00000387 4d756345   6757 	.data.b	69,99,117,77,67,111,110,102,95,69,99,117,77,83,104,117,116,100,111,119,110,67,97,117,115,101,95,69,67,85,77,95,67,65,85,83,69,95,85,78,75,78,79,87,78,32,40,48,85,41,0
0000038b 666e6f43 
0000038f 7563455f 
00000393 7568534d 
00000397 776f6474 
0000039b 7561436e 
0000039f 455f6573 
000003a3 5f4d5543 
000003a7 53554143 
000003ab 4e555f45 
000003af 574f4e4b 
000003b3 3028204e 
000003b7 002955 
000003ba 01         6758 	.data.b	1
000003bb 54         6759 	.data.b	84
000003bc 4d554345   6760 	.data.b	69,67,85,77,95,83,84,65,84,69,95,83,76,69,69,80,32,40,56,48,85,41,0
000003c0 4154535f 
000003c4 535f4554 
000003c8 5045454c 
000003cc 30382820 
000003d0 002955 
000003d3 01         6761 	.data.b	1
000003d4 58         6762 	.data.b	88
000003d5 4d554345   6763 	.data.b	69,67,85,77,95,83,84,65,84,69,95,79,70,70,32,40,49,50,56,85,41,0

                                                                      Page 146
                                                              C:\Users\Fengyuan\AppData\Local\Temp\gh_00006b81.s
000003d9 4154535f 
000003dd 4f5f4554 
000003e1 28204646 
000003e5 55383231 
000003e9 0029 
000003eb 01         6764 	.data.b	1
000003ec 5c         6765 	.data.b	92
000003ed 4d554345   6766 	.data.b	69,67,85,77,95,83,84,65,84,69,95,82,69,83,69,84,32,40,49,52,52,85,41,0
000003f1 4154535f 
000003f5 525f4554 
000003f9 54455345 
000003fd 34312820 
00000401 00295534 
00000405 04         6767 	.data.b	4
00000406 01         6768 	.data.b	1
00000407 3c         6769 	.data.b	60
00000408 4d554345   6770 	.data.b	69,67,85,77,95,87,75,83,79,85,82,67,69,95,78,79,78,69,32,40,69,99,117,77,95,87,97,107,101,117,112,83,111,117,114,99,101,84,121,112,101,41,40,48,120,48,48,48,48,48,48,48,48,117,76,41,0
0000040c 534b575f 
00000410 4352554f 
00000414 4f4e5f45 
00000418 2820454e 
0000041c 4d756345 
00000420 6b61575f 
00000424 53707565 
00000428 6372756f 
0000042c 70795465 
00000430 30282965 
00000434 30303078 
00000438 30303030 
0000043c 294c7530 
00000440 00 
00000441 01         6771 	.data.b	1
00000442 3d         6772 	.data.b	61
00000443 4d554345   6773 	.data.b	69,67,85,77,95,87,75,83,79,85,82,67,69,95,65,76,76,95,83,79,85,82,67,69,83,32,40,69,99,117,77,95,87,97,107,101,117,112,83,111,117,114,99,101,84,121,112,101,41,40,126,40,40,69,99,117,77,95,87,97
00000447 534b575f 
0000044b 4352554f 
0000044f 4c415f45 
00000453 4f535f4c 
00000457 45435255 
0000045b 45282053 
0000045f 5f4d7563 
00000463 656b6157 
00000467 6f537075 
0000046b 65637275 
0000046f 65707954 
00000473 287e2829 
00000477 75634528 
0000047b 61575f4d 
0000047f 7075656b   6774 	.data.b	107,101,117,112,83,111,117,114,99,101,84,121,112,101,41,48,120,48,48,85,76,41,41,0
00000483 72756f53 
00000487 79546563 
0000048b 30296570 
0000048f 55303078 
00000493 0029294c 
00000497 01         6775 	.data.b	1
00000498 3f         6776 	.data.b	63
00000499 4d554345   6777 	.data.b	69,67,85,77,95,87,75,83,79,85,82,67,69,95,82,69,83,69,84,32,40,69,99,117,77,95,87,97,107,101,117,112,83,111,117,114,99,101,84,121,112,101,41,40,50,117,76,41,0
0000049d 534b575f 
000004a1 4352554f 
000004a5 45525f45 
000004a9 20544553 

                                                                      Page 147
                                                              C:\Users\Fengyuan\AppData\Local\Temp\gh_00006b81.s
000004ad 75634528 
000004b1 61575f4d 
000004b5 7075656b 
000004b9 72756f53 
000004bd 79546563 
000004c1 28296570 
000004c5 294c7532 
000004c9 00 
000004ca 01         6778 	.data.b	1
000004cb 49         6779 	.data.b	73
000004cc 4d554345   6780 	.data.b	69,67,85,77,95,83,84,65,84,69,95,83,84,65,82,84,85,80,32,40,48,120,49,48,117,41,0
000004d0 4154535f 
000004d4 535f4554 
000004d8 54524154 
000004dc 28205055 
000004e0 30317830 
000004e4 002975 
000004e7 01         6781 	.data.b	1
000004e8 4a         6782 	.data.b	74
000004e9 4d554345   6783 	.data.b	69,67,85,77,95,83,84,65,84,69,95,83,84,65,82,84,85,80,95,79,78,69,32,40,48,120,49,49,117,41,0
000004ed 4154535f 
000004f1 535f4554 
000004f5 54524154 
000004f9 4f5f5055 
000004fd 2820454e 
00000501 31317830 
00000505 002975 
00000508 01         6784 	.data.b	1
00000509 4b         6785 	.data.b	75
0000050a 4d554345   6786 	.data.b	69,67,85,77,95,83,84,65,84,69,95,83,84,65,82,84,85,80,95,84,87,79,32,40,48,120,49,50,117,41,0
0000050e 4154535f 
00000512 535f4554 
00000516 54524154 
0000051a 545f5055 
0000051e 28204f57 
00000522 32317830 
00000526 002975 
00000529 01         6787 	.data.b	1
0000052a 53         6788 	.data.b	83
0000052b 4d554345   6789 	.data.b	69,67,85,77,95,83,84,65,84,69,95,82,85,78,32,40,48,120,51,48,117,41,0
0000052f 4154535f 
00000533 525f4554 
00000537 28204e55 
0000053b 30337830 
0000053f 002975 
00000542 01         6790 	.data.b	1
00000543 54         6791 	.data.b	84
00000544 4d554345   6792 	.data.b	69,67,85,77,95,83,84,65,84,69,95,65,80,80,95,82,85,78,32,40,48,120,51,50,117,41,0
00000548 4154535f 
0000054c 415f4554 
00000550 525f5050 
00000554 28204e55 
00000558 32337830 
0000055c 002975 
0000055f 01         6793 	.data.b	1
00000560 59         6794 	.data.b	89
00000561 4d554345   6795 	.data.b	69,67,85,77,95,83,84,65,84,69,95,71,79,95,79,70,70,95,79,78,69,32,40,48,120,52,68,117,41,0
00000565 4154535f 
00000569 475f4554 
0000056d 464f5f4f 
00000571 4e4f5f46 

                                                                      Page 148
                                                              C:\Users\Fengyuan\AppData\Local\Temp\gh_00006b81.s
00000575 30282045 
00000579 75443478 
0000057d 0029 
0000057f 01         6796 	.data.b	1
00000580 5a         6797 	.data.b	90
00000581 4d554345   6798 	.data.b	69,67,85,77,95,83,84,65,84,69,95,71,79,95,79,70,70,95,84,87,79,32,40,48,120,52,69,117,41,0
00000585 4154535f 
00000589 475f4554 
0000058d 464f5f4f 
00000591 57545f46 
00000595 3028204f 
00000599 75453478 
0000059d 0029 
0000059f 01         6799 	.data.b	1
000005a0 61         6800 	.data.b	97
000005a1 4d554345   6801 	.data.b	69,67,85,77,95,87,75,83,84,65,84,85,83,95,78,79,78,69,32,40,48,117,41,0
000005a5 534b575f 
000005a9 55544154 
000005ad 4f4e5f53 
000005b1 2820454e 
000005b5 00297530 
000005b9 01         6802 	.data.b	1
000005ba 63         6803 	.data.b	99
000005bb 4d554345   6804 	.data.b	69,67,85,77,95,87,75,83,84,65,84,85,83,95,86,65,76,73,68,65,84,69,68,32,40,50,117,41,0
000005bf 534b575f 
000005c3 55544154 
000005c7 41565f53 
000005cb 4144494c 
000005cf 20444554 
000005d3 29753228 
000005d7 00 
000005d8 04         6805 	.data.b	4
000005d9 03         6806 	.data.b	3
000005da 22         6807 	.data.b	34
000005db 14         6808 	.data.b	20
000005dc 01         6809 	.data.b	1
000005dd 29         6810 	.data.b	41
000005de 4d554345   6811 	.data.b	69,67,85,77,95,68,69,86,95,69,82,82,79,82,95,68,69,84,69,67,84,32,83,84,68,95,79,78,0
000005e2 5645445f 
000005e6 5252455f 
000005ea 445f524f 
000005ee 43455445 
000005f2 54532054 
000005f6 4e4f5f44 
000005fa 00 
000005fb 01         6812 	.data.b	1
000005fc 2c         6813 	.data.b	44
000005fd 4d554345   6814 	.data.b	69,67,85,77,95,68,69,86,95,69,82,82,79,82,95,82,69,80,79,82,84,32,83,84,68,95,79,78,0
00000601 5645445f 
00000605 5252455f 
00000609 525f524f 
0000060d 524f5045 
00000611 54532054 
00000615 4e4f5f44 
00000619 00 
0000061a 01         6815 	.data.b	1
0000061b 2f         6816 	.data.b	47
0000061c 4d554345   6817 	.data.b	69,67,85,77,95,68,69,70,69,82,82,69,68,95,66,83,87,77,95,78,79,84,73,70,73,67,65,84,73,79,78,32,40,83,84,68,95,79,70,70,41,0
00000620 4645445f 
00000624 45525245 
00000628 53425f44 

                                                                      Page 149
                                                              C:\Users\Fengyuan\AppData\Local\Temp\gh_00006b81.s
0000062c 4e5f4d57 
00000630 4649544f 
00000634 54414349 
00000638 204e4f49 
0000063c 44545328 
00000640 46464f5f 
00000644 0029 
00000646 01         6818 	.data.b	1
00000647 30         6819 	.data.b	48
00000648 4d554345   6820 	.data.b	69,67,85,77,95,78,79,78,67,72,65,78,78,69,76,95,87,65,75,69,85,80,95,82,85,78,32,40,83,84,68,95,79,70,70,41,0
0000064c 4e4f4e5f 
00000650 4e414843 
00000654 5f4c454e 
00000658 454b4157 
0000065c 525f5055 
00000660 28204e55 
00000664 5f445453 
00000668 2946464f 
0000066c 00 
0000066d 01         6821 	.data.b	1
0000066e 31         6822 	.data.b	49
0000066f 4d554345   6823 	.data.b	69,67,85,77,95,83,76,65,86,69,95,67,79,82,69,95,72,65,78,68,76,73,78,71,32,40,83,84,68,95,79,70,70,41,0
00000673 414c535f 
00000677 435f4556 
0000067b 5f45524f 
0000067f 444e4148 
00000683 474e494c 
00000687 54532820 
0000068b 464f5f44 
0000068f 002946 
00000692 01         6824 	.data.b	1
00000693 36         6825 	.data.b	54
00000694 4d554345   6826 	.data.b	69,67,85,77,95,86,69,82,83,73,79,78,95,73,78,70,79,95,65,80,73,32,40,83,84,68,95,79,70,70,41,0
00000698 5245565f 
0000069c 4e4f4953 
000006a0 464e495f 
000006a4 50415f4f 
000006a8 53282049 
000006ac 4f5f4454 
000006b0 00294646 
000006b4 01         6827 	.data.b	1
000006b5 3b         6828 	.data.b	59
000006b6 4d554345   6829 	.data.b	69,67,85,77,95,65,76,65,82,77,95,67,76,79,67,75,95,80,82,69,83,69,78,84,32,40,83,84,68,95,79,70,70,41,0
000006ba 414c415f 
000006be 435f4d52 
000006c2 4b434f4c 
000006c6 4552505f 
000006ca 544e4553 
000006ce 54532820 
000006d2 464f5f44 
000006d6 002946 
000006d9 01         6830 	.data.b	1
000006da 3c         6831 	.data.b	60
000006db 4d554345   6832 	.data.b	69,67,85,77,95,77,79,68,69,95,72,65,78,68,76,73,78,71,32,40,83,84,68,95,79,70,70,41,0
000006df 444f4d5f 
000006e3 41485f45 
000006e7 494c444e 
000006eb 2820474e 
000006ef 5f445453 
000006f3 2946464f 
000006f7 00 

                                                                      Page 150
                                                              C:\Users\Fengyuan\AppData\Local\Temp\gh_00006b81.s
000006f8 01         6833 	.data.b	1
000006f9 41         6834 	.data.b	65
000006fa 4d554345   6835 	.data.b	69,67,85,77,95,70,73,88,69,68,95,66,69,72,65,86,73,79,82,32,40,83,84,68,95,79,70,70,41,0
000006fe 5849465f 
00000702 425f4445 
00000706 56414845 
0000070a 20524f49 
0000070e 44545328 
00000712 46464f5f 
00000716 0029 
00000718 01         6836 	.data.b	1
00000719 43         6837 	.data.b	67
0000071a 4d554345   6838 	.data.b	69,67,85,77,95,83,85,80,80,79,82,84,95,82,84,69,95,77,79,68,69,95,83,87,73,84,67,72,32,40,83,84,68,95,79,70,70,41,0
0000071e 5055535f 
00000722 54524f50 
00000726 4554525f 
0000072a 444f4d5f 
0000072e 57535f45 
00000732 48435449 
00000736 54532820 
0000073a 464f5f44 
0000073e 002946 
00000741 01         6839 	.data.b	1
00000742 45         6840 	.data.b	69
00000743 4d554345   6841 	.data.b	69,67,85,77,95,73,78,67,76,85,68,69,95,78,86,82,65,77,95,77,71,82,32,40,83,84,68,95,79,70,70,41,0
00000747 434e495f 
0000074b 4544554c 
0000074f 52564e5f 
00000753 4d5f4d41 
00000757 28205247 
0000075b 5f445453 
0000075f 2946464f 
00000763 00 
00000764 01         6842 	.data.b	1
00000765 47         6843 	.data.b	71
00000766 4d554345   6844 	.data.b	69,67,85,77,95,83,85,80,80,79,82,84,95,67,79,77,77,32,40,83,84,68,95,79,70,70,41,0
0000076a 5055535f 
0000076e 54524f50 
00000772 4d4f435f 
00000776 5328204d 
0000077a 4f5f4454 
0000077e 00294646 
00000782 01         6845 	.data.b	1
00000783 50         6846 	.data.b	80
00000784 4d554345   6847 	.data.b	69,67,85,77,95,68,85,77,77,89,95,83,84,65,84,69,77,69,78,84,40,118,41,32,40,118,41,61,40,118,41,0
00000788 4d55445f 
0000078c 535f594d 
00000790 45544154 
00000794 544e454d 
00000798 20297628 
0000079c 3d297628 
000007a0 00297628 
000007a4 01         6848 	.data.b	1
000007a5 59         6849 	.data.b	89
000007a6 4d554345   6850 	.data.b	69,67,85,77,95,65,84,79,77,73,67,95,86,65,82,73,65,66,76,69,95,65,67,67,69,83,83,32,51,50,117,0
000007aa 4f54415f 
000007ae 5f43494d 
000007b2 49524156 
000007b6 454c4241 
000007ba 4343415f 
000007be 20535345 

                                                                      Page 151
                                                              C:\Users\Fengyuan\AppData\Local\Temp\gh_00006b81.s
000007c2 00753233 
000007c6 01         6851 	.data.b	1
000007c7 68         6852 	.data.b	104
000007c8 4d554345   6853 	.data.b	69,67,85,77,95,67,79,78,70,73,71,85,82,65,84,73,79,78,95,86,65,82,73,65,78,84,95,80,82,69,67,79,77,80,73,76,69,32,49,0
000007cc 4e4f435f 
000007d0 55474946 
000007d4 49544152 
000007d8 565f4e4f 
000007dc 41495241 
000007e0 505f544e 
000007e4 4f434552 
000007e8 4c49504d 
000007ec 00312045 
000007f0 01         6854 	.data.b	1
000007f1 6e         6855 	.data.b	110
000007f2 4d554345   6856 	.data.b	69,67,85,77,95,67,79,78,70,73,71,85,82,65,84,73,79,78,95,86,65,82,73,65,78,84,95,80,79,83,84,66,85,73,76,68,95,76,79,65,68,65,66,76,69,32,51,0
000007f6 4e4f435f 
000007fa 55474946 
000007fe 49544152 
00000802 565f4e4f 
00000806 41495241 
0000080a 505f544e 
0000080e 4254534f 
00000812 444c4955 
00000816 414f4c5f 
0000081a 4c424144 
0000081e 00332045 
00000822 01         6857 	.data.b	1
00000823 71         6858 	.data.b	113
00000824 4d554345   6859 	.data.b	69,67,85,77,95,67,79,78,70,73,71,85,82,65,84,73,79,78,95,86,65,82,73,65,78,84,32,69,67,85,77,95,67,79,78,70,73,71,85,82,65,84,73,79,78,95,86,65,82,73,65,78,84,95,80,82,69,67,79,77
00000828 4e4f435f 
0000082c 55474946 
00000830 49544152 
00000834 565f4e4f 
00000838 41495241 
0000083c 4520544e 
00000840 5f4d5543 
00000844 464e4f43 
00000848 52554749 
0000084c 4f495441 
00000850 41565f4e 
00000854 4e414952 
00000858 52505f54 
0000085c 4d4f4345 
00000860 454c4950   6860 	.data.b	80,73,76,69,0
00000864 00 
00000865 01         6861 	.data.b	1
00000866 74         6862 	.data.b	116
00000867 4d554345   6863 	.data.b	69,67,85,77,95,80,79,83,84,66,85,73,76,68,95,86,65,82,73,65,78,84,95,83,85,80,80,79,82,84,32,83,84,68,95,79,70,70,0
0000086b 534f505f 
0000086f 49554254 
00000873 565f444c 
00000877 41495241 
0000087b 535f544e 
0000087f 4f505055 
00000883 53205452 
00000887 4f5f4454 
0000088b 004646 
0000088e 01         6864 	.data.b	1
0000088f 7c         6865 	.data.b	124
00000890 4d554345   6866 	.data.b	69,67,85,77,95,82,69,83,69,84,77,79,68,69,67,79,85,78,84,32,40,52,117,41,0

                                                                      Page 152
                                                              C:\Users\Fengyuan\AppData\Local\Temp\gh_00006b81.s
00000894 5345525f 
00000898 4f4d5445 
0000089c 4f434544 
000008a0 20544e55 
000008a4 29753428 
000008a8 00 
000008a9 01         6867 	.data.b	1
000008aa 7d         6868 	.data.b	125
000008ab 4d554345   6869 	.data.b	69,67,85,77,95,83,72,85,84,68,79,87,78,67,65,85,83,69,67,79,85,78,84,32,40,52,117,41,0
000008af 5548535f 
000008b3 574f4454 
000008b7 5541434e 
000008bb 4f434553 
000008bf 20544e55 
000008c3 29753428 
000008c7 00 
000008c8 01         6870 	.data.b	1
000008c9 7e         6871 	.data.b	126
000008ca 4d554345   6872 	.data.b	69,67,85,77,95,78,85,77,66,69,82,95,79,70,95,67,79,82,69,83,32,40,49,117,41,0
000008ce 4d554e5f 
000008d2 5f524542 
000008d6 435f464f 
000008da 5345524f 
000008de 75312820 
000008e2 0029 
000008e4 01         6873 	.data.b	1
000008e5 0186       6874 	.data.b	134,1
000008e7 4d554345   6875 	.data.b	69,67,85,77,95,66,83,87,77,95,67,79,78,70,73,71,95,80,79,73,78,84,69,82,32,66,115,119,77,95,67,111,110,102,105,103,95,80,116,114,0
000008eb 5753425f 
000008ef 4f435f4d 
000008f3 4749464e 
000008f7 494f505f 
000008fb 5245544e 
000008ff 77734220 
00000903 6f435f4d 
00000907 6769666e 
0000090b 7274505f 
0000090f 00 
00000910 01         6876 	.data.b	1
00000911 0187       6877 	.data.b	135,1
00000913 4d554345   6878 	.data.b	69,67,85,77,95,83,67,72,77,95,67,79,78,70,73,71,95,80,79,73,78,84,69,82,32,0
00000917 4843535f 
0000091b 4f435f4d 
0000091f 4749464e 
00000923 494f505f 
00000927 5245544e 
0000092b 0020 
0000092d 01         6879 	.data.b	1
0000092e 018b       6880 	.data.b	139,1
00000930 4d756345   6881 	.data.b	69,99,117,77,95,68,101,116,95,82,101,112,111,114,116,69,114,114,111,114,40,69,99,117,77,95,70,117,110,99,116,105,111,110,73,100,44,69,99,117,77,95,69,114,114,111,114,67,111,100,101,41,32,40,40,118,111,105,100,41
00000934 7465445f 
00000938 7065525f 
0000093c 4574726f 
00000940 726f7272 
00000944 75634528 
00000948 75465f4d 
0000094c 6974636e 
00000950 64496e6f 
00000954 7563452c 
00000958 72455f4d 
0000095c 43726f72 

                                                                      Page 153
                                                              C:\Users\Fengyuan\AppData\Local\Temp\gh_00006b81.s
00000960 2965646f 
00000964 76282820 
00000968 2964696f 
0000096c 5f746544   6882 	.data.b	68,101,116,95,82,101,112,111,114,116,69,114,114,111,114,40,40,69,67,85,77,95,77,79,68,85,76,69,95,73,68,41,44,32,40,69,67,85,77,95,73,78,83,84,65,78,67,69,95,73,68,41,44,32,40,69,99,117,77,95
00000970 6f706552 
00000974 72457472 
00000978 28726f72 
0000097c 55434528 
00000980 4f4d5f4d 
00000984 454c5544 
00000988 2944495f 
0000098c 4528202c 
00000990 5f4d5543 
00000994 54534e49 
00000998 45434e41 
0000099c 2944495f 
000009a0 4528202c 
000009a4 5f4d7563 
000009a8 636e7546   6883 	.data.b	70,117,110,99,116,105,111,110,73,100,41,44,32,40,69,99,117,77,95,69,114,114,111,114,67,111,100,101,41,41,41,0
000009ac 6e6f6974 
000009b0 2c296449 
000009b4 63452820 
000009b8 455f4d75 
000009bc 726f7272 
000009c0 65646f43 
000009c4 00292929 
000009c8 01         6884 	.data.b	1
000009c9 01b8       6885 	.data.b	184,1
000009cb 4d554345   6886 	.data.b	69,67,85,77,95,80,78,67,79,70,67,79,77,77,80,78,67,83,32,83,84,68,95,79,70,70,0
000009cf 434e505f 
000009d3 4f43464f 
000009d7 4e504d4d 
000009db 53205343 
000009df 4f5f4454 
000009e3 004646 
000009e6 01         6887 	.data.b	1
000009e7 01b9       6888 	.data.b	185,1
000009e9 4d554345   6889 	.data.b	69,67,85,77,95,67,79,82,69,82,69,83,79,85,82,67,69,32,83,84,68,95,79,70,70,0
000009ed 524f435f 
000009f1 53455245 
000009f5 4352554f 
000009f9 54532045 
000009fd 464f5f44 
00000a01 0046 
00000a03 01         6890 	.data.b	1
00000a04 01c6       6891 	.data.b	198,1
00000a06 4d554345   6892 	.data.b	69,67,85,77,95,71,79,68,79,87,78,65,76,76,79,87,69,68,79,70,70,76,69,88,85,83,69,82,32,83,84,68,95,79,70,70,0
00000a0a 444f475f 
00000a0e 414e574f 
00000a12 574f4c4c 
00000a16 464f4445 
00000a1a 58454c46 
00000a1e 52455355 
00000a22 44545320 
00000a26 46464f5f 
00000a2a 00 
00000a2b 01         6893 	.data.b	1
00000a2c 01ce       6894 	.data.b	206,1
00000a2e 4d554345   6895 	.data.b	69,67,85,77,95,80,65,82,84,73,84,73,79,78,73,78,73,84,32,83,84,68,95,79,70,70,0
00000a32 5241505f 
00000a36 49544954 

                                                                      Page 154
                                                              C:\Users\Fengyuan\AppData\Local\Temp\gh_00006b81.s
00000a3a 4e494e4f 
00000a3e 53205449 
00000a42 4f5f4454 
00000a46 004646 
00000a49 01         6896 	.data.b	1
00000a4a 01d4       6897 	.data.b	212,1
00000a4c 4d554345   6898 	.data.b	69,67,85,77,95,83,76,69,69,80,77,79,68,69,76,73,83,84,32,83,84,68,95,79,70,70,0
00000a50 454c535f 
00000a54 4f4d5045 
00000a58 494c4544 
00000a5c 53205453 
00000a60 4f5f4454 
00000a64 004646 
00000a67 01         6899 	.data.b	1
00000a68 01d6       6900 	.data.b	214,1
00000a6a 4d554345   6901 	.data.b	69,67,85,77,95,80,79,76,76,73,78,71,79,70,83,76,69,69,80,77,79,68,69,76,73,83,84,32,83,84,68,95,79,70,70,0
00000a6e 4c4f505f 
00000a72 474e494c 
00000a76 4c53464f 
00000a7a 4d504545 
00000a7e 4c45444f 
00000a82 20545349 
00000a86 5f445453 
00000a8a 0046464f 
00000a8e 01         6902 	.data.b	1
00000a8f 01db       6903 	.data.b	219,1
00000a91 4d554345   6904 	.data.b	69,67,85,77,95,67,72,65,78,78,69,76,79,70,87,65,75,69,85,80,83,79,85,82,67,69,76,73,83,84,32,83,84,68,95,79,78,0
00000a95 4148435f 
00000a99 4c454e4e 
00000a9d 4157464f 
00000aa1 5055454b 
00000aa5 52554f53 
00000aa9 494c4543 
00000aad 53205453 
00000ab1 4f5f4454 
00000ab5 004e 
00000ab7 01         6905 	.data.b	1
00000ab8 01dc       6906 	.data.b	220,1
00000aba 4d554345   6907 	.data.b	69,67,85,77,95,67,72,69,67,75,87,65,75,69,85,80,84,73,77,69,79,70,87,65,75,69,85,80,83,79,85,82,67,69,76,73,83,84,32,83,84,68,95,79,70,70,0
00000abe 4548435f 
00000ac2 41574b43 
00000ac6 5055454b 
00000aca 454d4954 
00000ace 4157464f 
00000ad2 5055454b 
00000ad6 52554f53 
00000ada 494c4543 
00000ade 53205453 
00000ae2 4f5f4454 
00000ae6 004646 
00000ae9 01         6908 	.data.b	1
00000aea 01e1       6909 	.data.b	225,1
00000aec 4d554345   6910 	.data.b	69,67,85,77,95,82,69,65,83,79,78,79,70,87,65,75,69,85,80,83,79,85,82,67,69,76,73,83,84,32,83,84,68,95,79,70,70,0
00000af0 4145525f 
00000af4 4f4e4f53 
00000af8 4b415746 
00000afc 53505545 
00000b00 4352554f 
00000b04 53494c45 
00000b08 54532054 
00000b0c 464f5f44 

                                                                      Page 155
                                                              C:\Users\Fengyuan\AppData\Local\Temp\gh_00006b81.s
00000b10 0046 
00000b12 01         6911 	.data.b	1
00000b13 01e2       6912 	.data.b	226,1
00000b15 4d554345   6913 	.data.b	69,67,85,77,95,86,65,76,73,68,79,70,87,65,75,69,85,80,83,79,85,82,67,69,76,73,83,84,32,83,84,68,95,79,70,70,0
00000b19 4c41565f 
00000b1d 464f4449 
00000b21 454b4157 
00000b25 4f535055 
00000b29 45435255 
00000b2d 5453494c 
00000b31 44545320 
00000b35 46464f5f 
00000b39 00 
00000b3a 01         6914 	.data.b	1
00000b3b 01e3       6915 	.data.b	227,1
00000b3d 4d554345   6916 	.data.b	69,67,85,77,95,86,65,76,73,68,65,84,73,79,78,84,73,77,69,79,70,87,65,75,69,85,80,83,79,85,82,67,69,76,73,83,84,32,83,84,68,95,79,70,70,0
00000b41 4c41565f 
00000b45 54414449 
00000b49 544e4f49 
00000b4d 4f454d49 
00000b51 4b415746 
00000b55 53505545 
00000b59 4352554f 
00000b5d 53494c45 
00000b61 54532054 
00000b65 464f5f44 
00000b69 0046 
00000b6b 04         6917 	.data.b	4
00000b6c 01         6918 	.data.b	1
00000b6d 30         6919 	.data.b	48
00000b6e 4d554345   6920 	.data.b	69,67,85,77,95,67,66,75,95,83,87,95,77,65,74,79,82,95,86,69,82,83,73,79,78,32,40,57,117,41,0
00000b72 4b42435f 
00000b76 5f57535f 
00000b7a 4f4a414d 
00000b7e 45565f52 
00000b82 4f495352 
00000b86 3928204e 
00000b8a 002975 
00000b8d 01         6921 	.data.b	1
00000b8e 31         6922 	.data.b	49
00000b8f 4d554345   6923 	.data.b	69,67,85,77,95,67,66,75,95,83,87,95,77,73,78,79,82,95,86,69,82,83,73,79,78,32,40,50,117,41,0
00000b93 4b42435f 
00000b97 5f57535f 
00000b9b 4f4e494d 
00000b9f 45565f52 
00000ba3 4f495352 
00000ba7 3228204e 
00000bab 002975 
00000bae 01         6924 	.data.b	1
00000baf 32         6925 	.data.b	50
00000bb0 4d554345   6926 	.data.b	69,67,85,77,95,67,66,75,95,83,87,95,80,65,84,67,72,95,86,69,82,83,73,79,78,32,40,48,117,41,0
00000bb4 4b42435f 
00000bb8 5f57535f 
00000bbc 43544150 
00000bc0 45565f48 
00000bc4 4f495352 
00000bc8 3028204e 
00000bcc 002975 
00000bcf 01         6927 	.data.b	1
00000bd0 35         6928 	.data.b	53
00000bd1 4d554345   6929 	.data.b	69,67,85,77,95,67,66,75,95,65,82,95,82,69,76,69,65,83,69,95,77,65,74,79,82,95,86,69,82,83,73,79,78,32,40,52,117,41,0

                                                                      Page 156
                                                              C:\Users\Fengyuan\AppData\Local\Temp\gh_00006b81.s
00000bd5 4b42435f 
00000bd9 5f52415f 
00000bdd 454c4552 
00000be1 5f455341 
00000be5 4f4a414d 
00000be9 45565f52 
00000bed 4f495352 
00000bf1 3428204e 
00000bf5 002975 
00000bf8 01         6930 	.data.b	1
00000bf9 36         6931 	.data.b	54
00000bfa 4d554345   6932 	.data.b	69,67,85,77,95,67,66,75,95,65,82,95,82,69,76,69,65,83,69,95,77,73,78,79,82,95,86,69,82,83,73,79,78,32,40,48,117,41,0
00000bfe 4b42435f 
00000c02 5f52415f 
00000c06 454c4552 
00000c0a 5f455341 
00000c0e 4f4e494d 
00000c12 45565f52 
00000c16 4f495352 
00000c1a 3028204e 
00000c1e 002975 
00000c21 01         6933 	.data.b	1
00000c22 37         6934 	.data.b	55
00000c23 4d554345   6935 	.data.b	69,67,85,77,95,67,66,75,95,65,82,95,82,69,76,69,65,83,69,95,82,69,86,73,83,73,79,78,95,86,69,82,83,73,79,78,32,40,51,117,41,0
00000c27 4b42435f 
00000c2b 5f52415f 
00000c2f 454c4552 
00000c33 5f455341 
00000c37 49564552 
00000c3b 4e4f4953 
00000c3f 5245565f 
00000c43 4e4f4953 
00000c47 75332820 
00000c4b 0029 
00000c4d 03         6936 	.data.b	3
00000c4e 3d         6937 	.data.b	61
00000c4f 15         6938 	.data.b	21
00000c50 04         6939 	.data.b	4
00000c51 03         6940 	.data.b	3
00000c52 0194       6941 	.data.b	148,1
00000c54 15         6942 	.data.b	21
00000c55 04         6943 	.data.b	4
00000c56 04         6944 	.data.b	4
00000c57 01         6945 	.data.b	1
00000c58 01ac       6946 	.data.b	172,1
00000c5a 53535953   6947 	.data.b	83,89,83,83,69,82,86,73,67,69,95,65,83,82,52,69,67,85,77,95,86,69,82,83,73,79,78,32,48,120,48,57,48,50,117,0
00000c5e 49565245 
00000c62 415f4543 
00000c66 45345253 
00000c6a 5f4d5543 
00000c6e 53524556 
00000c72 204e4f49 
00000c76 39307830 
00000c7a 00753230 
00000c7e 01         6948 	.data.b	1
00000c7f 01ad       6949 	.data.b	173,1
00000c81 53535953   6950 	.data.b	83,89,83,83,69,82,86,73,67,69,95,65,83,82,52,69,67,85,77,95,82,69,76,69,65,83,69,95,86,69,82,83,73,79,78,32,48,120,48,48,117,0
00000c85 49565245 
00000c89 415f4543 
00000c8d 45345253 
00000c91 5f4d5543 

                                                                      Page 157
                                                              C:\Users\Fengyuan\AppData\Local\Temp\gh_00006b81.s
00000c95 454c4552 
00000c99 5f455341 
00000c9d 53524556 
00000ca1 204e4f49 
00000ca5 30307830 
00000ca9 0075 
00000cab 01         6951 	.data.b	1
00000cac 01b1       6952 	.data.b	177,1
00000cae 4d554345   6953 	.data.b	69,67,85,77,95,77,79,68,85,76,69,95,73,68,32,40,49,48,117,41,0
00000cb2 444f4d5f 
00000cb6 5f454c55 
00000cba 28204449 
00000cbe 29753031 
00000cc2 00 
00000cc3 01         6954 	.data.b	1
00000cc4 01b2       6955 	.data.b	178,1
00000cc6 4d554345   6956 	.data.b	69,67,85,77,95,73,78,83,84,65,78,67,69,95,73,68,32,40,48,117,41,0
00000cca 534e495f 
00000cce 434e4154 
00000cd2 44495f45 
00000cd6 75302820 
00000cda 0029 
00000cdc 01         6957 	.data.b	1
00000cdd 01b5       6958 	.data.b	181,1
00000cdf 4d554345   6959 	.data.b	69,67,85,77,95,65,82,95,82,69,76,69,65,83,69,95,77,65,74,79,82,95,86,69,82,83,73,79,78,32,40,52,117,41,0
00000ce3 5f52415f 
00000ce7 454c4552 
00000ceb 5f455341 
00000cef 4f4a414d 
00000cf3 45565f52 
00000cf7 4f495352 
00000cfb 3428204e 
00000cff 002975 
00000d02 01         6960 	.data.b	1
00000d03 01b6       6961 	.data.b	182,1
00000d05 4d554345   6962 	.data.b	69,67,85,77,95,65,82,95,82,69,76,69,65,83,69,95,77,73,78,79,82,95,86,69,82,83,73,79,78,32,40,48,117,41,0
00000d09 5f52415f 
00000d0d 454c4552 
00000d11 5f455341 
00000d15 4f4e494d 
00000d19 45565f52 
00000d1d 4f495352 
00000d21 3028204e 
00000d25 002975 
00000d28 01         6963 	.data.b	1
00000d29 01b7       6964 	.data.b	183,1
00000d2b 4d554345   6965 	.data.b	69,67,85,77,95,65,82,95,82,69,76,69,65,83,69,95,82,69,86,73,83,73,79,78,95,86,69,82,83,73,79,78,32,40,51,117,41,0
00000d2f 5f52415f 
00000d33 454c4552 
00000d37 5f455341 
00000d3b 49564552 
00000d3f 4e4f4953 
00000d43 5245565f 
00000d47 4e4f4953 
00000d4b 75332820 
00000d4f 0029 
00000d51 01         6966 	.data.b	1
00000d52 01ba       6967 	.data.b	186,1
00000d54 4d554345   6968 	.data.b	69,67,85,77,95,83,87,95,77,65,74,79,82,95,86,69,82,83,73,79,78,32,40,83,89,83,83,69,82,86,73,67,69,95,65,83,82,52,69,67,85,77,95,86,69,82,83,73,79,78,32,62,62,32,56,41,0
00000d58 5f57535f 
00000d5c 4f4a414d 

                                                                      Page 158
                                                              C:\Users\Fengyuan\AppData\Local\Temp\gh_00006b81.s
00000d60 45565f52 
00000d64 4f495352 
00000d68 5328204e 
00000d6c 45535359 
00000d70 43495652 
00000d74 53415f45 
00000d78 43453452 
00000d7c 565f4d55 
00000d80 49535245 
00000d84 3e204e4f 
00000d88 2938203e 
00000d8c 00 
00000d8d 01         6969 	.data.b	1
00000d8e 01bb       6970 	.data.b	187,1
00000d90 4d554345   6971 	.data.b	69,67,85,77,95,83,87,95,77,73,78,79,82,95,86,69,82,83,73,79,78,32,40,83,89,83,83,69,82,86,73,67,69,95,65,83,82,52,69,67,85,77,95,86,69,82,83,73,79,78,32,38,32,48,120,48,48,70,70,117
00000d94 5f57535f 
00000d98 4f4e494d 
00000d9c 45565f52 
00000da0 4f495352 
00000da4 5328204e 
00000da8 45535359 
00000dac 43495652 
00000db0 53415f45 
00000db4 43453452 
00000db8 565f4d55 
00000dbc 49535245 
00000dc0 26204e4f 
00000dc4 30783020 
00000dc8 75464630 
00000dcc 0029       6972 	.data.b	41,0
00000dce 01         6973 	.data.b	1
00000dcf 01bc       6974 	.data.b	188,1
00000dd1 4d554345   6975 	.data.b	69,67,85,77,95,83,87,95,80,65,84,67,72,95,86,69,82,83,73,79,78,32,40,83,89,83,83,69,82,86,73,67,69,95,65,83,82,52,69,67,85,77,95,82,69,76,69,65,83,69,95,86,69,82,83,73,79,78,41,0
00000dd5 5f57535f 
00000dd9 43544150 
00000ddd 45565f48 
00000de1 4f495352 
00000de5 5328204e 
00000de9 45535359 
00000ded 43495652 
00000df1 53415f45 
00000df5 43453452 
00000df9 525f4d55 
00000dfd 41454c45 
00000e01 565f4553 
00000e05 49535245 
00000e09 00294e4f 
00000e0d 01         6976 	.data.b	1
00000e0e 01c5       6977 	.data.b	197,1
00000e10 4d554345   6978 	.data.b	69,67,85,77,95,69,95,85,78,73,78,73,84,32,40,48,120,49,48,117,41,0
00000e14 555f455f 
00000e18 494e494e 
00000e1c 30282054 
00000e20 75303178 
00000e24 0029 
00000e26 01         6979 	.data.b	1
00000e27 01c7       6980 	.data.b	199,1
00000e29 4d554345   6981 	.data.b	69,67,85,77,95,69,95,78,85,76,76,95,80,79,73,78,84,69,82,32,40,48,120,49,50,117,41,0
00000e2d 4e5f455f 
00000e31 5f4c4c55 
00000e35 4e494f50 

                                                                      Page 159
                                                              C:\Users\Fengyuan\AppData\Local\Temp\gh_00006b81.s
00000e39 20524554 
00000e3d 31783028 
00000e41 00297532 
00000e45 01         6982 	.data.b	1
00000e46 01c8       6983 	.data.b	200,1
00000e48 4d554345   6984 	.data.b	69,67,85,77,95,69,95,73,78,86,65,76,73,68,95,80,65,82,32,40,48,120,49,51,117,41,0
00000e4c 495f455f 
00000e50 4c41564e 
00000e54 505f4449 
00000e58 28205241 
00000e5c 33317830 
00000e60 002975 
00000e63 01         6985 	.data.b	1
00000e64 01cb       6986 	.data.b	203,1
00000e66 4d554345   6987 	.data.b	69,67,85,77,95,69,95,83,84,65,84,69,95,80,65,82,95,79,85,84,95,79,70,95,82,65,78,71,69,32,40,48,120,49,54,117,41,0
00000e6a 535f455f 
00000e6e 45544154 
00000e72 5241505f 
00000e76 54554f5f 
00000e7a 5f464f5f 
00000e7e 474e4152 
00000e82 30282045 
00000e86 75363178 
00000e8a 0029 
00000e8c 01         6988 	.data.b	1
00000e8d 01cc       6989 	.data.b	204,1
00000e8f 4d554345   6990 	.data.b	69,67,85,77,95,69,95,85,78,75,78,79,87,78,95,87,65,75,69,85,80,95,83,79,85,82,67,69,32,40,48,120,49,55,117,41,0
00000e93 555f455f 
00000e97 4f4e4b4e 
00000e9b 575f4e57 
00000e9f 55454b41 
00000ea3 4f535f50 
00000ea7 45435255 
00000eab 78302820 
00000eaf 29753731 
00000eb3 00 
00000eb4 01         6991 	.data.b	1
00000eb5 01cf       6992 	.data.b	207,1
00000eb7 4d554345   6993 	.data.b	69,67,85,77,95,69,95,78,79,95,69,82,82,79,82,32,40,48,120,48,48,117,41,0
00000ebb 4e5f455f 
00000ebf 52455f4f 
00000ec3 20524f52 
00000ec7 30783028 
00000ecb 00297530 
00000ecf 01         6994 	.data.b	1
00000ed0 01d0       6995 	.data.b	208,1
00000ed2 4d554345   6996 	.data.b	69,67,85,77,95,69,95,77,79,68,85,76,69,95,78,79,84,95,73,78,95,83,84,65,82,84,85,80,32,40,48,120,50,48,117,41,0
00000ed6 4d5f455f 
00000eda 4c55444f 
00000ede 4f4e5f45 
00000ee2 4e495f54 
00000ee6 4154535f 
00000eea 50555452 
00000eee 78302820 
00000ef2 29753032 
00000ef6 00 
00000ef7 01         6997 	.data.b	1
00000ef8 01d1       6998 	.data.b	209,1
00000efa 4d554345   6999 	.data.b	69,67,85,77,95,69,95,77,79,68,85,76,69,95,78,79,84,95,73,78,95,80,82,69,80,83,72,85,84,68,79,87,78,32,40,48,120,50,49,117,41,0
00000efe 4d5f455f 
00000f02 4c55444f 

                                                                      Page 160
                                                              C:\Users\Fengyuan\AppData\Local\Temp\gh_00006b81.s
00000f06 4f4e5f45 
00000f0a 4e495f54 
00000f0e 4552505f 
00000f12 55485350 
00000f16 574f4454 
00000f1a 3028204e 
00000f1e 75313278 
00000f22 0029 
00000f24 01         7000 	.data.b	1
00000f25 01d2       7001 	.data.b	210,1
00000f27 4d554345   7002 	.data.b	69,67,85,77,95,69,95,77,79,68,85,76,69,95,78,79,84,95,73,78,95,82,85,78,95,83,84,65,84,69,32,40,48,120,50,50,117,41,0
00000f2b 4d5f455f 
00000f2f 4c55444f 
00000f33 4f4e5f45 
00000f37 4e495f54 
00000f3b 4e55525f 
00000f3f 4154535f 
00000f43 28204554 
00000f47 32327830 
00000f4b 002975 
00000f4e 01         7003 	.data.b	1
00000f4f 01d3       7004 	.data.b	211,1
00000f51 4d554345   7005 	.data.b	69,67,85,77,95,69,95,78,79,95,83,76,69,69,80,77,79,68,69,95,67,79,78,70,73,71,85,82,69,68,32,40,48,120,50,51,117,41,0
00000f55 4e5f455f 
00000f59 4c535f4f 
00000f5d 4d504545 
00000f61 5f45444f 
00000f65 464e4f43 
00000f69 52554749 
00000f6d 28204445 
00000f71 33327830 
00000f75 002975 
00000f78 01         7006 	.data.b	1
00000f79 0282       7007 	.data.b	130,2
00000f7b 4d554345   7008 	.data.b	69,67,85,77,95,83,73,68,95,83,72,85,84,68,79,87,78,32,40,48,120,48,50,117,41,0
00000f7f 4449535f 
00000f83 5548535f 
00000f87 574f4454 
00000f8b 3028204e 
00000f8f 75323078 
00000f93 0029 
00000f95 01         7009 	.data.b	1
00000f96 0286       7010 	.data.b	134,2
00000f98 4d554345   7011 	.data.b	69,67,85,77,95,83,73,68,95,83,69,76,69,67,84,95,83,72,85,84,68,79,87,78,95,84,65,82,71,69,84,32,40,48,120,48,54,117,41,0
00000f9c 4449535f 
00000fa0 4c45535f 
00000fa4 5f544345 
00000fa8 54554853 
00000fac 4e574f44 
00000fb0 5241545f 
00000fb4 20544547 
00000fb8 30783028 
00000fbc 00297536 
00000fc0 01         7012 	.data.b	1
00000fc1 0288       7013 	.data.b	136,2
00000fc3 4d554345   7014 	.data.b	69,67,85,77,95,83,73,68,95,71,69,84,95,76,65,83,84,95,83,72,85,84,68,79,87,78,95,84,65,82,71,69,84,32,40,48,120,48,56,117,41,0
00000fc7 4449535f 
00000fcb 5445475f 
00000fcf 53414c5f 
00000fd3 48535f54 
00000fd7 4f445455 

                                                                      Page 161
                                                              C:\Users\Fengyuan\AppData\Local\Temp\gh_00006b81.s
00000fdb 545f4e57 
00000fdf 45475241 
00000fe3 30282054 
00000fe7 75383078 
00000feb 0029 
00000fed 01         7015 	.data.b	1
00000fee 0289       7016 	.data.b	137,2
00000ff0 4d554345   7017 	.data.b	69,67,85,77,95,83,73,68,95,71,69,84,95,83,72,85,84,68,79,87,78,95,84,65,82,71,69,84,32,40,48,120,48,57,117,41,0
00000ff4 4449535f 
00000ff8 5445475f 
00000ffc 5548535f 
00001000 574f4454 
00001004 41545f4e 
00001008 54454752 
0000100c 78302820 
00001010 29753930 
00001014 00 
00001015 01         7018 	.data.b	1
00001016 028c       7019 	.data.b	140,2
00001018 4d554345   7020 	.data.b	69,67,85,77,95,83,73,68,95,83,69,84,95,87,65,75,69,85,80,95,69,86,69,78,84,32,40,48,120,48,67,117,41,0
0000101c 4449535f 
00001020 5445535f 
00001024 4b41575f 
00001028 5f505545 
0000102c 4e455645 
00001030 30282054 
00001034 75433078 
00001038 0029 
0000103a 01         7021 	.data.b	1
0000103b 028d       7022 	.data.b	141,2
0000103d 4d554345   7023 	.data.b	69,67,85,77,95,83,73,68,95,71,69,84,95,80,69,78,68,73,78,71,95,87,65,75,69,85,80,95,69,86,69,78,84,83,32,40,48,120,48,68,117,41,0
00001041 4449535f 
00001045 5445475f 
00001049 4e45505f 
0000104d 474e4944 
00001051 4b41575f 
00001055 5f505545 
00001059 4e455645 
0000105d 28205354 
00001061 44307830 
00001065 002975 
00001068 01         7024 	.data.b	1
00001069 028e       7025 	.data.b	142,2
0000106b 4d554345   7026 	.data.b	69,67,85,77,95,83,73,68,95,83,69,76,69,67,84,95,66,79,79,84,95,84,65,82,71,69,84,32,40,48,120,49,50,117,41,0
0000106f 4449535f 
00001073 4c45535f 
00001077 5f544345 
0000107b 544f4f42 
0000107f 5241545f 
00001083 20544547 
00001087 31783028 
0000108b 00297532 
0000108f 01         7027 	.data.b	1
00001090 028f       7028 	.data.b	143,2
00001092 4d554345   7029 	.data.b	69,67,85,77,95,83,73,68,95,71,69,84,95,66,79,79,84,95,84,65,82,71,69,84,32,40,48,120,49,51,117,41,0
00001096 4449535f 
0000109a 5445475f 
0000109e 4f4f425f 
000010a2 41545f54 
000010a6 54454752 
000010aa 78302820 

                                                                      Page 162
                                                              C:\Users\Fengyuan\AppData\Local\Temp\gh_00006b81.s
000010ae 29753331 
000010b2 00 
000010b3 01         7030 	.data.b	1
000010b4 0290       7031 	.data.b	144,2
000010b6 4d554345   7032 	.data.b	69,67,85,77,95,83,73,68,95,86,65,76,73,68,65,84,69,95,87,65,75,69,85,80,95,69,86,69,78,84,32,40,48,120,49,52,117,41,0
000010ba 4449535f 
000010be 4c41565f 
000010c2 54414449 
000010c6 41575f45 
000010ca 5055454b 
000010ce 4556455f 
000010d2 2820544e 
000010d6 34317830 
000010da 002975 
000010dd 01         7033 	.data.b	1
000010de 0291       7034 	.data.b	145,2
000010e0 4d554345   7035 	.data.b	69,67,85,77,95,83,73,68,95,71,69,84,95,86,65,76,73,68,65,84,69,68,95,87,65,75,69,85,80,95,69,86,69,78,84,83,32,40,48,120,49,53,117,41,0
000010e4 4449535f 
000010e8 5445475f 
000010ec 4c41565f 
000010f0 54414449 
000010f4 575f4445 
000010f8 55454b41 
000010fc 56455f50 
00001100 53544e45 
00001104 78302820 
00001108 29753531 
0000110c 00 
0000110d 01         7036 	.data.b	1
0000110e 0292       7037 	.data.b	146,2
00001110 4d554345   7038 	.data.b	69,67,85,77,95,83,73,68,95,67,76,69,65,82,95,87,65,75,69,85,80,95,69,86,69,78,84,32,40,48,120,49,54,117,41,0
00001114 4449535f 
00001118 454c435f 
0000111c 575f5241 
00001120 55454b41 
00001124 56455f50 
00001128 20544e45 
0000112c 31783028 
00001130 00297536 
00001134 01         7039 	.data.b	1
00001135 0294       7040 	.data.b	148,2
00001137 4d554345   7041 	.data.b	69,67,85,77,95,83,73,68,95,71,69,84,95,69,88,80,73,82,69,68,95,87,65,75,69,85,80,95,69,86,69,78,84,83,32,40,48,120,49,57,117,41,0
0000113b 4449535f 
0000113f 5445475f 
00001143 5058455f 
00001147 44455249 
0000114b 4b41575f 
0000114f 5f505545 
00001153 4e455645 
00001157 28205354 
0000115b 39317830 
0000115f 002975 
00001162 01         7042 	.data.b	1
00001163 0295       7043 	.data.b	149,2
00001165 4d554345   7044 	.data.b	69,67,85,77,95,83,73,68,95,83,84,65,82,84,85,80,95,84,87,79,32,40,48,120,49,65,117,41,0
00001169 4449535f 
0000116d 4154535f 
00001171 50555452 
00001175 4f57545f 
00001179 78302820 
0000117d 29754131 

                                                                      Page 163
                                                              C:\Users\Fengyuan\AppData\Local\Temp\gh_00006b81.s
00001181 00 
00001182 01         7045 	.data.b	1
00001183 0296       7046 	.data.b	150,2
00001185 4d554345   7047 	.data.b	69,67,85,77,95,83,73,68,95,83,69,76,69,67,84,95,83,72,85,84,68,79,87,78,95,67,65,85,83,69,32,40,48,120,49,66,117,41,0
00001189 4449535f 
0000118d 4c45535f 
00001191 5f544345 
00001195 54554853 
00001199 4e574f44 
0000119d 5541435f 
000011a1 28204553 
000011a5 42317830 
000011a9 002975 
000011ac 01         7048 	.data.b	1
000011ad 0297       7049 	.data.b	151,2
000011af 4d554345   7050 	.data.b	69,67,85,77,95,83,73,68,95,71,69,84,95,83,72,85,84,68,79,87,78,95,67,65,85,83,69,32,40,48,120,49,67,117,41,0
000011b3 4449535f 
000011b7 5445475f 
000011bb 5548535f 
000011bf 574f4454 
000011c3 41435f4e 
000011c7 20455355 
000011cb 31783028 
000011cf 00297543 
000011d3 01         7051 	.data.b	1
000011d4 029a       7052 	.data.b	154,2
000011d6 4d554345   7053 	.data.b	69,67,85,77,95,83,73,68,95,71,79,95,68,79,87,78,32,40,48,120,49,70,117,41,0
000011da 4449535f 
000011de 5f4f475f 
000011e2 4e574f44 
000011e6 78302820 
000011ea 29754631 
000011ee 00 
000011ef 01         7054 	.data.b	1
000011f0 029b       7055 	.data.b	155,2
000011f2 4d554345   7056 	.data.b	69,67,85,77,95,83,73,68,95,71,79,95,72,65,76,84,32,40,48,120,50,48,117,41,0
000011f6 4449535f 
000011fa 5f4f475f 
000011fe 544c4148 
00001202 78302820 
00001206 29753032 
0000120a 00 
0000120b 01         7057 	.data.b	1
0000120c 029c       7058 	.data.b	156,2
0000120e 4d554345   7059 	.data.b	69,67,85,77,95,83,73,68,95,71,79,95,80,79,76,76,32,40,48,120,50,49,117,41,0
00001212 4449535f 
00001216 5f4f475f 
0000121a 4c4c4f50 
0000121e 78302820 
00001222 29753132 
00001226 00 
00001227 01         7060 	.data.b	1
00001228 02a7       7061 	.data.b	167,2
0000122a 4d554345   7062 	.data.b	69,67,85,77,95,83,73,68,95,67,76,69,65,82,95,86,65,76,73,68,65,84,69,68,95,87,65,75,69,85,80,95,69,86,69,78,84,32,40,48,120,51,48,117,41,0
0000122e 4449535f 
00001232 454c435f 
00001236 565f5241 
0000123a 44494c41 
0000123e 44455441 
00001242 4b41575f 
00001246 5f505545 

                                                                      Page 164
                                                              C:\Users\Fengyuan\AppData\Local\Temp\gh_00006b81.s
0000124a 4e455645 
0000124e 30282054 
00001252 75303378 
00001256 0029 
00001258 03         7063 	.data.b	3
00001259 02bd       7064 	.data.b	189,2
0000125b 15         7065 	.data.b	21
0000125c 04         7066 	.data.b	4
0000125d 03         7067 	.data.b	3
0000125e 07b5       7068 	.data.b	181,7
00001260 15         7069 	.data.b	21
00001261 04         7070 	.data.b	4
00001262 04         7071 	.data.b	4
00001263 01         7072 	.data.b	1
00001264 31         7073 	.data.b	49
00001265 4d554345   7074 	.data.b	69,67,85,77,95,80,82,73,86,65,84,69,95,67,70,71,95,73,78,67,76,85,68,69,32,0
00001269 4952505f 
0000126d 45544156 
00001271 4746435f 
00001275 434e495f 
00001279 4544554c 
0000127d 0020 
0000127f 03         7075 	.data.b	3
00001280 32         7076 	.data.b	50
00001281 16         7077 	.data.b	22
00001282 03         7078 	.data.b	3
00001283 2a         7079 	.data.b	42
00001284 17         7080 	.data.b	23
00001285 03         7081 	.data.b	3
00001286 35         7082 	.data.b	53
00001287 18         7083 	.data.b	24
00001288 04         7084 	.data.b	4
00001289 04         7085 	.data.b	4
0000128a 03         7086 	.data.b	3
0000128b 2d         7087 	.data.b	45
0000128c 19         7088 	.data.b	25
0000128d 01         7089 	.data.b	1
0000128e 02ff       7090 	.data.b	255,2
00001290 485f534f   7091 	.data.b	79,83,95,72,32,0
00001294 0020 
00001296 03         7092 	.data.b	3
00001297 0388       7093 	.data.b	136,3
00001299 1a         7094 	.data.b	26
0000129a 03         7095 	.data.b	3
0000129b 27         7096 	.data.b	39
0000129c 1b         7097 	.data.b	27
0000129d 01         7098 	.data.b	1
0000129e 21         7099 	.data.b	33
0000129f 4c5f534f   7100 	.data.b	79,83,95,76,67,70,71,95,72,32,0
000012a3 5f474643 
000012a7 002048 
000012aa 03         7101 	.data.b	3
000012ab 2b         7102 	.data.b	43
000012ac 1c         7103 	.data.b	28
000012ad 01         7104 	.data.b	1
000012ae 21         7105 	.data.b	33
000012af 435f534f   7106 	.data.b	79,83,95,67,70,71,95,72,32,0
000012b3 485f4746 
000012b7 0020 
000012b9 03         7107 	.data.b	3
000012ba 2e         7108 	.data.b	46

                                                                      Page 165
                                                              C:\Users\Fengyuan\AppData\Local\Temp\gh_00006b81.s
000012bb 1d         7109 	.data.b	29
000012bc 04         7110 	.data.b	4
000012bd 01         7111 	.data.b	1
000012be 4e         7112 	.data.b	78
000012bf 435f534f   7113 	.data.b	79,83,95,67,70,71,95,80,82,69,84,65,83,75,72,79,79,75,32,40,83,84,68,95,79,70,70,41,0
000012c3 505f4746 
000012c7 41544552 
000012cb 4f484b53 
000012cf 28204b4f 
000012d3 5f445453 
000012d7 2946464f 
000012db 00 
000012dc 01         7114 	.data.b	1
000012dd 51         7115 	.data.b	81
000012de 435f534f   7116 	.data.b	79,83,95,67,70,71,95,80,79,83,84,84,65,83,75,72,79,79,75,32,40,83,84,68,95,79,70,70,41,0
000012e2 505f4746 
000012e6 5454534f 
000012ea 484b5341 
000012ee 204b4f4f 
000012f2 44545328 
000012f6 46464f5f 
000012fa 0029 
000012fc 01         7117 	.data.b	1
000012fd 54         7118 	.data.b	84
000012fe 435f534f   7119 	.data.b	79,83,95,67,70,71,95,80,65,78,73,67,72,79,79,75,32,40,83,84,68,95,79,78,41,0
00001302 505f4746 
00001306 43494e41 
0000130a 4b4f4f48 
0000130e 54532820 
00001312 4e4f5f44 
00001316 0029 
00001318 01         7120 	.data.b	1
00001319 57         7121 	.data.b	87
0000131a 435f534f   7122 	.data.b	79,83,95,67,70,71,95,83,84,65,82,84,85,80,72,79,79,75,95,83,89,83,84,69,77,32,40,83,84,68,95,79,70,70,41,0
0000131e 535f4746 
00001322 54524154 
00001326 4f485055 
0000132a 535f4b4f 
0000132e 45545359 
00001332 5328204d 
00001336 4f5f4454 
0000133a 00294646 
0000133e 01         7123 	.data.b	1
0000133f 5a         7124 	.data.b	90
00001340 435f534f   7125 	.data.b	79,83,95,67,70,71,95,83,72,85,84,68,79,87,78,72,79,79,75,95,83,89,83,84,69,77,32,40,83,84,68,95,79,70,70,41,0
00001344 535f4746 
00001348 44545548 
0000134c 484e574f 
00001350 5f4b4f4f 
00001354 54535953 
00001358 28204d45 
0000135c 5f445453 
00001360 2946464f 
00001364 00 
00001365 01         7126 	.data.b	1
00001366 5d         7127 	.data.b	93
00001367 435f534f   7128 	.data.b	79,83,95,67,70,71,95,69,82,82,79,82,72,79,79,75,95,83,89,83,84,69,77,32,40,83,84,68,95,79,78,41,0
0000136b 455f4746 
0000136f 524f5252 
00001373 4b4f4f48 
00001377 5359535f 

                                                                      Page 166
                                                              C:\Users\Fengyuan\AppData\Local\Temp\gh_00006b81.s
0000137b 204d4554 
0000137f 44545328 
00001383 294e4f5f 
00001387 00 
00001388 01         7129 	.data.b	1
00001389 60         7130 	.data.b	96
0000138a 435f534f   7131 	.data.b	79,83,95,67,70,71,95,80,82,79,84,69,67,84,73,79,78,72,79,79,75,95,83,89,83,84,69,77,32,40,83,84,68,95,79,70,70,41,0
0000138e 505f4746 
00001392 45544f52 
00001396 4f495443 
0000139a 4f4f484e 
0000139e 59535f4b 
000013a2 4d455453 
000013a6 54532820 
000013aa 464f5f44 
000013ae 002946 
000013b1 01         7132 	.data.b	1
000013b2 63         7133 	.data.b	99
000013b3 435f534f   7134 	.data.b	79,83,95,67,70,71,95,80,69,82,73,80,72,69,82,65,76,95,67,79,77,80,65,84,73,66,73,76,73,84,89,32,40,83,84,68,95,79,70,70,41,0
000013b7 505f4746 
000013bb 50495245 
000013bf 41524548 
000013c3 4f435f4c 
000013c7 5441504d 
000013cb 4c494249 
000013cf 20595449 
000013d3 44545328 
000013d7 46464f5f 
000013db 0029 
000013dd 01         7135 	.data.b	1
000013de 68         7136 	.data.b	104
000013df 4544534f   7137 	.data.b	79,83,68,69,70,65,85,76,84,65,80,80,77,79,68,69,32,40,40,65,112,112,77,111,100,101,84,121,112,101,41,49,41,0
000013e3 4c554146 
000013e7 50504154 
000013eb 45444f4d 
000013ef 41282820 
000013f3 6f4d7070 
000013f7 79546564 
000013fb 31296570 
000013ff 0029 
00001401 04         7138 	.data.b	4
00001402 03         7139 	.data.b	3
00001403 2c         7140 	.data.b	44
00001404 1e         7141 	.data.b	30
00001405 03         7142 	.data.b	3
00001406 27         7143 	.data.b	39
00001407 1f         7144 	.data.b	31
00001408 01         7145 	.data.b	1
00001409 21         7146 	.data.b	33
0000140a 545f534f   7147 	.data.b	79,83,95,84,89,80,69,83,95,76,67,70,71,95,72,32,0
0000140e 53455059 
00001412 46434c5f 
00001416 20485f47 
0000141a 00 
0000141b 01         7148 	.data.b	1
0000141c 35         7149 	.data.b	53
0000141d 74737953   7150 	.data.b	83,121,115,116,101,109,65,112,112,108,105,99,97,116,105,111,110,95,79,115,67,111,114,101,48,32,83,121,115,116,101,109,65,112,112,108,105,99,97,116,105,111,110,95,79,115,67,111,114,101,48,0
00001421 70416d65 
00001425 63696c70 
00001429 6f697461 
0000142d 734f5f6e 

                                                                      Page 167
                                                              C:\Users\Fengyuan\AppData\Local\Temp\gh_00006b81.s
00001431 65726f43 
00001435 79532030 
00001439 6d657473 
0000143d 6c707041 
00001441 74616369 
00001445 5f6e6f69 
00001449 6f43734f 
0000144d 00306572 
00001451 01         7151 	.data.b	1
00001452 3e         7152 	.data.b	62
00001453 61666544   7153 	.data.b	68,101,102,97,117,108,116,95,73,110,105,116,95,84,97,115,107,32,68,101,102,97,117,108,116,95,73,110,105,116,95,84,97,115,107,0
00001457 5f746c75 
0000145b 74696e49 
0000145f 7361545f 
00001463 6544206b 
00001467 6c756166 
0000146b 6e495f74 
0000146f 545f7469 
00001473 006b7361 
00001477 01         7154 	.data.b	1
00001478 3f         7155 	.data.b	63
00001479 656c6449   7156 	.data.b	73,100,108,101,84,97,115,107,95,79,115,67,111,114,101,48,32,73,100,108,101,84,97,115,107,95,79,115,67,111,114,101,48,0
0000147d 6b736154 
00001481 43734f5f 
00001485 3065726f 
00001489 6c644920 
0000148d 73615465 
00001491 734f5f6b 
00001495 65726f43 
00001499 0030 
0000149b 01         7157 	.data.b	1
0000149c 40         7158 	.data.b	64
0000149d 6154734f   7159 	.data.b	79,115,84,97,115,107,95,65,80,80,32,79,115,84,97,115,107,95,65,80,80,0
000014a1 415f6b73 
000014a5 4f205050 
000014a9 73615473 
000014ad 50415f6b 
000014b1 0050 
000014b3 01         7160 	.data.b	1
000014b4 41         7161 	.data.b	65
000014b5 6154734f   7162 	.data.b	79,115,84,97,115,107,95,66,83,87,95,83,67,72,77,32,79,115,84,97,115,107,95,66,83,87,95,83,67,72,77,0
000014b9 425f6b73 
000014bd 535f5753 
000014c1 204d4843 
000014c5 6154734f 
000014c9 425f6b73 
000014cd 535f5753 
000014d1 004d4843 
000014d5 01         7163 	.data.b	1
000014d6 44         7164 	.data.b	68
000014d7 496e6143   7165 	.data.b	67,97,110,73,115,114,95,48,95,66,117,115,79,102,102,32,67,97,110,73,115,114,95,48,95,66,117,115,79,102,102,0
000014db 305f7273 
000014df 7375425f 
000014e3 2066664f 
000014e7 496e6143 
000014eb 305f7273 
000014ef 7375425f 
000014f3 0066664f 
000014f7 01         7166 	.data.b	1
000014f8 45         7167 	.data.b	69
000014f9 496e6143   7168 	.data.b	67,97,110,73,115,114,95,48,95,77,66,48,48,84,111,49,53,32,67,97,110,73,115,114,95,48,95,77,66,48,48,84,111,49,53,0

                                                                      Page 168
                                                              C:\Users\Fengyuan\AppData\Local\Temp\gh_00006b81.s
000014fd 305f7273 
00001501 30424d5f 
00001505 316f5430 
00001509 61432035 
0000150d 7273496e 
00001511 4d5f305f 
00001515 54303042 
00001519 0035316f 
0000151d 01         7169 	.data.b	1
0000151e 46         7170 	.data.b	70
0000151f 496e6143   7171 	.data.b	67,97,110,73,115,114,95,48,95,77,66,49,54,84,111,51,49,32,67,97,110,73,115,114,95,48,95,77,66,49,54,84,111,51,49,0
00001523 305f7273 
00001527 31424d5f 
0000152b 336f5436 
0000152f 61432031 
00001533 7273496e 
00001537 4d5f305f 
0000153b 54363142 
0000153f 0031336f 
00001543 01         7172 	.data.b	1
00001544 47         7173 	.data.b	71
00001545 6e756f43   7174 	.data.b	67,111,117,110,116,101,114,73,115,114,95,83,121,115,116,101,109,84,105,109,101,114,32,67,111,117,110,116,101,114,73,115,114,95,83,121,115,116,101,109,84,105,109,101,114,0
00001549 49726574 
0000154d 535f7273 
00001551 65747379 
00001555 6d69546d 
00001559 43207265 
0000155d 746e756f 
00001561 73497265 
00001565 79535f72 
00001569 6d657473 
0000156d 656d6954 
00001571 0072 
00001573 01         7175 	.data.b	1
00001574 4a         7176 	.data.b	74
00001575 5f657452   7177 	.data.b	82,116,101,95,65,108,95,84,69,50,95,79,115,84,97,115,107,95,66,83,87,95,83,67,72,77,95,48,95,49,48,109,115,32,82,116,101,95,65,108,95,84,69,50,95,79,115,84,97,115,107,95,66,83,87,95,83,67,72,77
00001579 545f6c41 
0000157d 4f5f3245 
00001581 73615473 
00001585 53425f6b 
00001589 43535f57 
0000158d 305f4d48 
00001591 6d30315f 
00001595 74522073 
00001599 6c415f65 
0000159d 3245545f 
000015a1 54734f5f 
000015a5 5f6b7361 
000015a9 5f575342 
000015ad 4d484353 
000015b1 315f305f   7178 	.data.b	95,48,95,49,48,109,115,0
000015b5 00736d30 
000015b9 01         7179 	.data.b	1
000015ba 4b         7180 	.data.b	75
000015bb 5f657452   7181 	.data.b	82,116,101,95,65,108,95,84,69,50,95,79,115,84,97,115,107,95,66,83,87,95,83,67,72,77,95,48,95,50,48,109,115,32,82,116,101,95,65,108,95,84,69,50,95,79,115,84,97,115,107,95,66,83,87,95,83,67,72,77
000015bf 545f6c41 
000015c3 4f5f3245 
000015c7 73615473 
000015cb 53425f6b 
000015cf 43535f57 
000015d3 305f4d48 

                                                                      Page 169
                                                              C:\Users\Fengyuan\AppData\Local\Temp\gh_00006b81.s
000015d7 6d30325f 
000015db 74522073 
000015df 6c415f65 
000015e3 3245545f 
000015e7 54734f5f 
000015eb 5f6b7361 
000015ef 5f575342 
000015f3 4d484353 
000015f7 325f305f   7182 	.data.b	95,48,95,50,48,109,115,0
000015fb 00736d30 
000015ff 01         7183 	.data.b	1
00001600 4c         7184 	.data.b	76
00001601 5f657452   7185 	.data.b	82,116,101,95,65,108,95,84,69,95,67,97,110,84,112,95,67,97,110,84,112,95,77,97,105,110,70,117,110,99,116,105,111,110,32,82,116,101,95,65,108,95,84,69,95,67,97,110,84,112,95,67,97,110,84,112,95,77,97,105
00001605 545f6c41 
00001609 61435f45 
0000160d 5f70546e 
00001611 546e6143 
00001615 614d5f70 
00001619 75466e69 
0000161d 6974636e 
00001621 52206e6f 
00001625 415f6574 
00001629 45545f6c 
0000162d 6e61435f 
00001631 435f7054 
00001635 70546e61 
00001639 69614d5f 
0000163d 6e75466e   7186 	.data.b	110,70,117,110,99,116,105,111,110,0
00001641 6f697463 
00001645 006e 
00001647 01         7187 	.data.b	1
00001648 4d         7188 	.data.b	77
00001649 5f657452   7189 	.data.b	82,116,101,95,65,108,95,84,69,95,67,100,100,95,83,66,67,95,85,74,65,49,49,54,57,95,83,98,99,95,84,101,115,116,95,82,117,110,110,97,98,108,101,32,82,116,101,95,65,108,95,84,69,95,67,100,100,95,83,66
0000164d 545f6c41 
00001651 64435f45 
00001655 42535f64 
00001659 4a555f43 
0000165d 36313141 
00001661 62535f39 
00001665 65545f63 
00001669 525f7473 
0000166d 616e6e75 
00001671 20656c62 
00001675 5f657452 
00001679 545f6c41 
0000167d 64435f45 
00001681 42535f64 
00001685 4a555f43   7190 	.data.b	67,95,85,74,65,49,49,54,57,95,83,98,99,95,84,101,115,116,95,82,117,110,110,97,98,108,101,0
00001689 36313141 
0000168d 62535f39 
00001691 65545f63 
00001695 525f7473 
00001699 616e6e75 
0000169d 00656c62 
000016a1 01         7191 	.data.b	1
000016a2 4e         7192 	.data.b	78
000016a3 5f657452   7193 	.data.b	82,116,101,95,65,108,95,84,69,95,67,112,76,101,100,84,97,115,107,95,76,101,100,82,117,110,110,97,98,108,101,32,82,116,101,95,65,108,95,84,69,95,67,112,76,101,100,84,97,115,107,95,76,101,100,82,117,110,110,97
000016a7 545f6c41 
000016ab 70435f45 
000016af 5464654c 
000016b3 5f6b7361 

                                                                      Page 170
                                                              C:\Users\Fengyuan\AppData\Local\Temp\gh_00006b81.s
000016b7 5264654c 
000016bb 616e6e75 
000016bf 20656c62 
000016c3 5f657452 
000016c7 545f6c41 
000016cb 70435f45 
000016cf 5464654c 
000016d3 5f6b7361 
000016d7 5264654c 
000016db 616e6e75 
000016df 00656c62   7194 	.data.b	98,108,101,0
000016e3 01         7195 	.data.b	1
000016e4 51         7196 	.data.b	81
000016e5 74737953   7197 	.data.b	83,121,115,116,101,109,84,105,109,101,114,32,83,121,115,116,101,109,84,105,109,101,114,0
000016e9 69546d65 
000016ed 2072656d 
000016f1 74737953 
000016f5 69546d65 
000016f9 0072656d 
000016fd 01         7198 	.data.b	1
000016fe 56         7199 	.data.b	86
000016ff 6552734f   7200 	.data.b	79,115,82,101,115,111,117,114,99,101,32,79,115,82,101,115,111,117,114,99,101,0
00001703 72756f73 
00001707 4f206563 
0000170b 73655273 
0000170f 6372756f 
00001713 0065 
00001715 04         7201 	.data.b	4
00001716 03         7202 	.data.b	3
00001717 2b         7203 	.data.b	43
00001718 20         7204 	.data.b	32
00001719 01         7205 	.data.b	1
0000171a 1c         7206 	.data.b	28
0000171b 485f534f   7207 	.data.b	79,83,95,72,65,76,95,79,83,95,84,89,80,69,83,95,72,32,0
0000171f 4f5f4c41 
00001723 59545f53 
00001727 5f534550 
0000172b 002048 
0000172e 04         7208 	.data.b	4
0000172f 01         7209 	.data.b	1
00001730 33         7210 	.data.b	51
00001731 534f5f45   7211 	.data.b	69,95,79,83,95,65,67,67,69,83,83,32,40,40,83,116,97,116,117,115,84,121,112,101,41,48,120,48,49,41,0
00001735 4343415f 
00001739 20535345 
0000173d 74532828 
00001741 73757461 
00001745 65707954 
00001749 30783029 
0000174d 002931 
00001750 01         7212 	.data.b	1
00001751 35         7213 	.data.b	53
00001752 534f5f45   7214 	.data.b	69,95,79,83,95,67,65,76,76,69,86,69,76,32,40,40,83,116,97,116,117,115,84,121,112,101,41,48,120,48,50,41,0
00001756 4c41435f 
0000175a 4556454c 
0000175e 2828204c 
00001762 74617453 
00001766 79547375 
0000176a 30296570 
0000176e 29323078 
00001772 00 
00001773 01         7215 	.data.b	1

                                                                      Page 171
                                                              C:\Users\Fengyuan\AppData\Local\Temp\gh_00006b81.s
00001774 37         7216 	.data.b	55
00001775 534f5f45   7217 	.data.b	69,95,79,83,95,73,68,32,40,40,83,116,97,116,117,115,84,121,112,101,41,48,120,48,51,41,0
00001779 2044495f 
0000177d 74532828 
00001781 73757461 
00001785 65707954 
00001789 30783029 
0000178d 002933 
00001790 01         7218 	.data.b	1
00001791 39         7219 	.data.b	57
00001792 534f5f45   7220 	.data.b	69,95,79,83,95,76,73,77,73,84,32,40,40,83,116,97,116,117,115,84,121,112,101,41,48,120,48,52,41,0
00001796 4d494c5f 
0000179a 28205449 
0000179e 61745328 
000017a2 54737574 
000017a6 29657079 
000017aa 34307830 
000017ae 0029 
000017b0 01         7221 	.data.b	1
000017b1 3b         7222 	.data.b	59
000017b2 534f5f45   7223 	.data.b	69,95,79,83,95,78,79,70,85,78,67,32,40,40,83,116,97,116,117,115,84,121,112,101,41,48,120,48,53,41,0
000017b6 464f4e5f 
000017ba 20434e55 
000017be 74532828 
000017c2 73757461 
000017c6 65707954 
000017ca 30783029 
000017ce 002935 
000017d1 01         7224 	.data.b	1
000017d2 3d         7225 	.data.b	61
000017d3 534f5f45   7226 	.data.b	69,95,79,83,95,82,69,83,79,85,82,67,69,32,40,40,83,116,97,116,117,115,84,121,112,101,41,48,120,48,54,41,0
000017d7 5345525f 
000017db 4352554f 
000017df 28282045 
000017e3 74617453 
000017e7 79547375 
000017eb 30296570 
000017ef 29363078 
000017f3 00 
000017f4 01         7227 	.data.b	1
000017f5 3f         7228 	.data.b	63
000017f6 534f5f45   7229 	.data.b	69,95,79,83,95,83,84,65,84,69,32,40,40,83,116,97,116,117,115,84,121,112,101,41,48,120,48,55,41,0
000017fa 4154535f 
000017fe 28204554 
00001802 61745328 
00001806 54737574 
0000180a 29657079 
0000180e 37307830 
00001812 0029 
00001814 01         7230 	.data.b	1
00001815 41         7231 	.data.b	65
00001816 534f5f45   7232 	.data.b	69,95,79,83,95,86,65,76,85,69,32,40,40,83,116,97,116,117,115,84,121,112,101,41,48,120,48,56,41,0
0000181a 4c41565f 
0000181e 28204555 
00001822 61745328 
00001826 54737574 
0000182a 29657079 
0000182e 38307830 
00001832 0029 
00001834 01         7233 	.data.b	1
00001835 45         7234 	.data.b	69

                                                                      Page 172
                                                              C:\Users\Fengyuan\AppData\Local\Temp\gh_00006b81.s
00001836 534f5f45   7235 	.data.b	69,95,79,83,95,83,69,82,86,73,67,69,73,68,32,40,40,83,116,97,116,117,115,84,121,112,101,41,48,120,48,57,41,0
0000183a 5245535f 
0000183e 45434956 
00001842 28204449 
00001846 61745328 
0000184a 54737574 
0000184e 29657079 
00001852 39307830 
00001856 0029 
00001858 01         7236 	.data.b	1
00001859 49         7237 	.data.b	73
0000185a 534f5f45   7238 	.data.b	69,95,79,83,95,73,76,76,69,71,65,76,95,65,68,68,82,69,83,83,32,40,40,83,116,97,116,117,115,84,121,112,101,41,48,120,48,65,41,0
0000185e 4c4c495f 
00001862 4c414745 
00001866 4444415f 
0000186a 53534552 
0000186e 53282820 
00001872 75746174 
00001876 70795473 
0000187a 78302965 
0000187e 00294130 
00001882 01         7239 	.data.b	1
00001883 4b         7240 	.data.b	75
00001884 534f5f45   7241 	.data.b	69,95,79,83,95,77,73,83,83,73,78,71,69,78,68,32,40,40,83,116,97,116,117,115,84,121,112,101,41,48,120,48,66,41,0
00001888 53494d5f 
0000188c 474e4953 
00001890 20444e45 
00001894 74532828 
00001898 73757461 
0000189c 65707954 
000018a0 30783029 
000018a4 002942 
000018a7 01         7242 	.data.b	1
000018a8 4d         7243 	.data.b	77
000018a9 534f5f45   7244 	.data.b	69,95,79,83,95,68,73,83,65,66,76,69,68,73,78,84,32,40,40,83,116,97,116,117,115,84,121,112,101,41,48,120,48,67,41,0
000018ad 5349445f 
000018b1 454c4241 
000018b5 544e4944 
000018b9 53282820 
000018bd 75746174 
000018c1 70795473 
000018c5 78302965 
000018c9 00294330 
000018cd 01         7245 	.data.b	1
000018ce 4f         7246 	.data.b	79
000018cf 534f5f45   7247 	.data.b	69,95,79,83,95,83,84,65,67,75,70,65,85,76,84,32,40,40,83,116,97,116,117,115,84,121,112,101,41,48,120,48,68,41,0
000018d3 4154535f 
000018d7 41464b43 
000018db 20544c55 
000018df 74532828 
000018e3 73757461 
000018e7 65707954 
000018eb 30783029 
000018ef 002944 
000018f2 01         7248 	.data.b	1
000018f3 51         7249 	.data.b	81
000018f4 534f5f45   7250 	.data.b	69,95,79,83,95,80,82,79,84,69,67,84,73,79,78,95,77,69,77,79,82,89,32,40,40,83,116,97,116,117,115,84,121,112,101,41,48,120,48,69,41,0
000018f8 4f52505f 
000018fc 54434554 
00001900 5f4e4f49 
00001904 4f4d454d 

                                                                      Page 173
                                                              C:\Users\Fengyuan\AppData\Local\Temp\gh_00006b81.s
00001908 28205952 
0000190c 61745328 
00001910 54737574 
00001914 29657079 
00001918 45307830 
0000191c 0029 
0000191e 01         7251 	.data.b	1
0000191f 53         7252 	.data.b	83
00001920 534f5f45   7253 	.data.b	69,95,79,83,95,80,82,79,84,69,67,84,73,79,78,95,84,73,77,69,32,40,40,83,116,97,116,117,115,84,121,112,101,41,48,120,48,70,41,0
00001924 4f52505f 
00001928 54434554 
0000192c 5f4e4f49 
00001930 454d4954 
00001934 53282820 
00001938 75746174 
0000193c 70795473 
00001940 78302965 
00001944 00294630 
00001948 01         7254 	.data.b	1
00001949 55         7255 	.data.b	85
0000194a 534f5f45   7256 	.data.b	69,95,79,83,95,80,82,79,84,69,67,84,73,79,78,95,65,82,82,73,86,65,76,32,40,40,83,116,97,116,117,115,84,121,112,101,41,48,120,49,48,41,0
0000194e 4f52505f 
00001952 54434554 
00001956 5f4e4f49 
0000195a 49525241 
0000195e 204c4156 
00001962 74532828 
00001966 73757461 
0000196a 65707954 
0000196e 31783029 
00001972 002930 
00001975 01         7257 	.data.b	1
00001976 57         7258 	.data.b	87
00001977 534f5f45   7259 	.data.b	69,95,79,83,95,80,82,79,84,69,67,84,73,79,78,95,76,79,67,75,69,68,32,40,40,83,116,97,116,117,115,84,121,112,101,41,48,120,49,49,41,0
0000197b 4f52505f 
0000197f 54434554 
00001983 5f4e4f49 
00001987 4b434f4c 
0000198b 28204445 
0000198f 61745328 
00001993 54737574 
00001997 29657079 
0000199b 31317830 
0000199f 0029 
000019a1 01         7260 	.data.b	1
000019a2 59         7261 	.data.b	89
000019a3 534f5f45   7262 	.data.b	69,95,79,83,95,80,82,79,84,69,67,84,73,79,78,95,69,88,67,69,80,84,73,79,78,32,40,40,83,116,97,116,117,115,84,121,112,101,41,48,120,49,50,41,0
000019a7 4f52505f 
000019ab 54434554 
000019af 5f4e4f49 
000019b3 45435845 
000019b7 4f495450 
000019bb 2828204e 
000019bf 74617453 
000019c3 79547375 
000019c7 30296570 
000019cb 29323178 
000019cf 00 
000019d0 01         7263 	.data.b	1
000019d1 5b         7264 	.data.b	91
000019d2 534f5f45   7265 	.data.b	69,95,79,83,95,73,78,84,69,82,70,69,82,69,78,67,69,95,68,69,65,68,76,79,67,75,32,40,40,83,116,97,116,117,115,84,121,112,101,41,48,120,49,51,41,0

                                                                      Page 174
                                                              C:\Users\Fengyuan\AppData\Local\Temp\gh_00006b81.s
000019d6 544e495f 
000019da 45465245 
000019de 434e4552 
000019e2 45445f45 
000019e6 4f4c4441 
000019ea 28204b43 
000019ee 61745328 
000019f2 54737574 
000019f6 29657079 
000019fa 33317830 
000019fe 0029 
00001a00 01         7266 	.data.b	1
00001a01 5d         7267 	.data.b	93
00001a02 534f5f45   7268 	.data.b	69,95,79,83,95,78,69,83,84,73,78,71,95,68,69,65,68,76,79,67,75,32,40,40,83,116,97,116,117,115,84,121,112,101,41,48,120,49,52,41,0
00001a06 53454e5f 
00001a0a 474e4954 
00001a0e 4145445f 
00001a12 434f4c44 
00001a16 2828204b 
00001a1a 74617453 
00001a1e 79547375 
00001a22 30296570 
00001a26 29343178 
00001a2a 00 
00001a2b 01         7269 	.data.b	1
00001a2c 5f         7270 	.data.b	95
00001a2d 534f5f45   7271 	.data.b	69,95,79,83,95,83,80,73,78,76,79,67,75,32,40,40,83,116,97,116,117,115,84,121,112,101,41,48,120,49,53,41,0
00001a31 4950535f 
00001a35 434f4c4e 
00001a39 2828204b 
00001a3d 74617453 
00001a41 79547375 
00001a45 30296570 
00001a49 29353178 
00001a4d 00 
00001a4e 01         7272 	.data.b	1
00001a4f 61         7273 	.data.b	97
00001a50 534f5f45   7274 	.data.b	69,95,79,83,95,67,79,82,69,32,40,40,83,116,97,116,117,115,84,121,112,101,41,48,120,49,54,41,0
00001a54 524f435f 
00001a58 28282045 
00001a5c 74617453 
00001a60 79547375 
00001a64 30296570 
00001a68 29363178 
00001a6c 00 
00001a6d 01         7275 	.data.b	1
00001a6e 63         7276 	.data.b	99
00001a6f 534f5f45   7277 	.data.b	69,95,79,83,95,80,65,82,65,77,95,80,79,73,78,84,69,82,32,40,40,83,116,97,116,117,115,84,121,112,101,41,48,120,49,55,41,0
00001a73 5241505f 
00001a77 505f4d41 
00001a7b 544e494f 
00001a7f 28205245 
00001a83 61745328 
00001a87 54737574 
00001a8b 29657079 
00001a8f 37317830 
00001a93 0029 
00001a95 01         7278 	.data.b	1
00001a96 67         7279 	.data.b	103
00001a97 534f5f45   7280 	.data.b	69,95,79,83,95,83,89,83,95,78,79,95,66,65,82,82,73,69,82,95,80,65,82,84,73,67,73,80,65,78,84,32,40,40,83,116,97,116,117,115,84,121,112,101,41,48,120,70,50,41,0
00001a9b 5359535f 

                                                                      Page 175
                                                              C:\Users\Fengyuan\AppData\Local\Temp\gh_00006b81.s
00001a9f 5f4f4e5f 
00001aa3 52524142 
00001aa7 5f524549 
00001aab 54524150 
00001aaf 50494349 
00001ab3 20544e41 
00001ab7 74532828 
00001abb 73757461 
00001abf 65707954 
00001ac3 46783029 
00001ac7 002932 
00001aca 01         7281 	.data.b	1
00001acb 6a         7282 	.data.b	106
00001acc 534f5f45   7283 	.data.b	69,95,79,83,95,83,89,83,95,85,78,73,77,80,76,69,77,69,78,84,69,68,95,70,85,78,67,84,73,79,78,65,76,73,84,89,32,40,40,83,116,97,116,117,115,84,121,112,101,41,48,120,70,51,41,0
00001ad0 5359535f 
00001ad4 494e555f 
00001ad8 454c504d 
00001adc 544e454d 
00001ae0 465f4445 
00001ae4 54434e55 
00001ae8 414e4f49 
00001aec 5954494c 
00001af0 53282820 
00001af4 75746174 
00001af8 70795473 
00001afc 78302965 
00001b00 00293346 
00001b04 01         7284 	.data.b	1
00001b05 6c         7285 	.data.b	108
00001b06 534f5f45   7286 	.data.b	69,95,79,83,95,83,89,83,95,78,79,95,78,84,70,83,84,65,67,75,32,40,40,83,116,97,116,117,115,84,121,112,101,41,48,120,70,52,41,0
00001b0a 5359535f 
00001b0e 5f4f4e5f 
00001b12 5346544e 
00001b16 4b434154 
00001b1a 53282820 
00001b1e 75746174 
00001b22 70795473 
00001b26 78302965 
00001b2a 00293446 
00001b2e 01         7287 	.data.b	1
00001b2f 6e         7288 	.data.b	110
00001b30 534f5f45   7289 	.data.b	69,95,79,83,95,83,89,83,95,79,86,69,82,70,76,79,87,32,40,40,83,116,97,116,117,115,84,121,112,101,41,48,120,70,53,41,0
00001b34 5359535f 
00001b38 45564f5f 
00001b3c 4f4c4652 
00001b40 28282057 
00001b44 74617453 
00001b48 79547375 
00001b4c 30296570 
00001b50 29354678 
00001b54 00 
00001b55 01         7290 	.data.b	1
00001b56 70         7291 	.data.b	112
00001b57 534f5f45   7292 	.data.b	69,95,79,83,95,83,89,83,95,75,73,76,76,95,75,69,82,78,69,76,95,79,66,74,32,40,40,83,116,97,116,117,115,84,121,112,101,41,48,120,70,54,41,0
00001b5b 5359535f 
00001b5f 4c494b5f 
00001b63 454b5f4c 
00001b67 4c454e52 
00001b6b 4a424f5f 
00001b6f 53282820 
00001b73 75746174 

                                                                      Page 176
                                                              C:\Users\Fengyuan\AppData\Local\Temp\gh_00006b81.s
00001b77 70795473 
00001b7b 78302965 
00001b7f 00293646 
00001b83 01         7293 	.data.b	1
00001b84 72         7294 	.data.b	114
00001b85 534f5f45   7295 	.data.b	69,95,79,83,95,83,89,83,95,78,79,95,82,69,83,84,65,82,84,84,65,83,75,32,40,40,83,116,97,116,117,115,84,121,112,101,41,48,120,70,55,41,0
00001b89 5359535f 
00001b8d 5f4f4e5f 
00001b91 54534552 
00001b95 54545241 
00001b99 204b5341 
00001b9d 74532828 
00001ba1 73757461 
00001ba5 65707954 
00001ba9 46783029 
00001bad 002937 
00001bb0 01         7296 	.data.b	1
00001bb1 74         7297 	.data.b	116
00001bb2 534f5f45   7298 	.data.b	69,95,79,83,95,83,89,83,95,67,65,76,76,95,78,79,84,95,65,76,76,79,87,69,68,32,40,40,83,116,97,116,117,115,84,121,112,101,41,48,120,70,56,41,0
00001bb6 5359535f 
00001bba 4c41435f 
00001bbe 4f4e5f4c 
00001bc2 4c415f54 
00001bc6 45574f4c 
00001bca 28282044 
00001bce 74617453 
00001bd2 79547375 
00001bd6 30296570 
00001bda 29384678 
00001bde 00 
00001bdf 01         7299 	.data.b	1
00001be0 76         7300 	.data.b	118
00001be1 534f5f45   7301 	.data.b	69,95,79,83,95,83,89,83,95,70,85,78,67,84,73,79,78,95,85,78,65,86,65,73,76,65,66,76,69,32,40,40,83,116,97,116,117,115,84,121,112,101,41,48,120,70,57,41,0
00001be5 5359535f 
00001be9 4e55465f 
00001bed 4f495443 
00001bf1 4e555f4e 
00001bf5 49415641 
00001bf9 4c42414c 
00001bfd 28282045 
00001c01 74617453 
00001c05 79547375 
00001c09 30296570 
00001c0d 29394678 
00001c11 00 
00001c12 01         7302 	.data.b	1
00001c13 78         7303 	.data.b	120
00001c14 534f5f45   7304 	.data.b	69,95,79,83,95,83,89,83,95,80,82,79,84,69,67,84,73,79,78,95,83,89,83,67,65,76,76,32,40,40,83,116,97,116,117,115,84,121,112,101,41,48,120,70,65,41,0
00001c18 5359535f 
00001c1c 4f52505f 
00001c20 54434554 
00001c24 5f4e4f49 
00001c28 43535953 
00001c2c 204c4c41 
00001c30 74532828 
00001c34 73757461 
00001c38 65707954 
00001c3c 46783029 
00001c40 002941 
00001c43 01         7305 	.data.b	1
00001c44 7a         7306 	.data.b	122

                                                                      Page 177
                                                              C:\Users\Fengyuan\AppData\Local\Temp\gh_00006b81.s
00001c45 534f5f45   7307 	.data.b	69,95,79,83,95,83,89,83,95,80,82,79,84,69,67,84,73,79,78,95,73,82,81,32,40,40,83,116,97,116,117,115,84,121,112,101,41,48,120,70,66,41,0
00001c49 5359535f 
00001c4d 4f52505f 
00001c51 54434554 
00001c55 5f4e4f49 
00001c59 20515249 
00001c5d 74532828 
00001c61 73757461 
00001c65 65707954 
00001c69 46783029 
00001c6d 002942 
00001c70 01         7308 	.data.b	1
00001c71 7c         7309 	.data.b	124
00001c72 534f5f45   7310 	.data.b	69,95,79,83,95,83,89,83,95,65,80,73,95,69,82,82,79,82,32,40,40,83,116,97,116,117,115,84,121,112,101,41,48,120,70,67,41,0
00001c76 5359535f 
00001c7a 4950415f 
00001c7e 5252455f 
00001c82 2820524f 
00001c86 61745328 
00001c8a 54737574 
00001c8e 29657079 
00001c92 43467830 
00001c96 0029 
00001c98 01         7311 	.data.b	1
00001c99 7e         7312 	.data.b	126
00001c9a 534f5f45   7313 	.data.b	69,95,79,83,95,83,89,83,95,65,83,83,69,82,84,73,79,78,32,40,40,83,116,97,116,117,115,84,121,112,101,41,48,120,70,68,41,0
00001c9e 5359535f 
00001ca2 5353415f 
00001ca6 49545245 
00001caa 28204e4f 
00001cae 61745328 
00001cb2 54737574 
00001cb6 29657079 
00001cba 44467830 
00001cbe 0029 
00001cc0 01         7314 	.data.b	1
00001cc1 0180       7315 	.data.b	128,1
00001cc3 534f5f45   7316 	.data.b	69,95,79,83,95,83,89,83,95,79,86,69,82,76,79,65,68,32,40,40,83,116,97,116,117,115,84,121,112,101,41,48,120,70,69,41,0
00001cc7 5359535f 
00001ccb 45564f5f 
00001ccf 414f4c52 
00001cd3 28282044 
00001cd7 74617453 
00001cdb 79547375 
00001cdf 30296570 
00001ce3 29454678 
00001ce7 00 
00001ce8 01         7317 	.data.b	1
00001ce9 01bd       7318 	.data.b	189,1
00001ceb 535f534f   7319 	.data.b	79,83,95,83,84,65,84,85,83,95,84,89,80,69,95,86,65,82,73,65,78,84,40,83,116,97,116,117,115,44,86,97,114,105,97,110,116,41,32,40,40,117,105,110,116,51,50,41,32,40,40,40,117,105,110,116,51,50,41,40
00001cef 55544154 
00001cf3 59545f53 
00001cf7 565f4550 
00001cfb 41495241 
00001cff 5328544e 
00001d03 75746174 
00001d07 61562c73 
00001d0b 6e616972 
00001d0f 28202974 
00001d13 6e697528 
00001d17 29323374 

                                                                      Page 178
                                                              C:\Users\Fengyuan\AppData\Local\Temp\gh_00006b81.s
00001d1b 28282820 
00001d1f 746e6975 
00001d23 28293233 
00001d27 69726156   7320 	.data.b	86,97,114,105,97,110,116,41,41,32,60,60,32,40,115,105,122,101,111,102,40,83,116,97,116,117,115,84,121,112,101,41,42,56,41,41,32,124,32,40,117,105,110,116,51,50,41,40,83,116,97,116,117,115,41,41,0
00001d2b 29746e61 
00001d2f 3c3c2029 
00001d33 69732820 
00001d37 666f657a 
00001d3b 61745328 
00001d3f 54737574 
00001d43 29657079 
00001d47 2929382a 
00001d4b 28207c20 
00001d4f 746e6975 
00001d53 28293233 
00001d57 74617453 
00001d5b 29297375 
00001d5f 00 
00001d60 04         7321 	.data.b	4
00001d61 03         7322 	.data.b	3
00001d62 2d         7323 	.data.b	45
00001d63 1f         7324 	.data.b	31
00001d64 04         7325 	.data.b	4
00001d65 03         7326 	.data.b	3
00001d66 32         7327 	.data.b	50
00001d67 21         7328 	.data.b	33
00001d68 03         7329 	.data.b	3
00001d69 2b         7330 	.data.b	43
00001d6a 1c         7331 	.data.b	28
00001d6b 04         7332 	.data.b	4
00001d6c 01         7333 	.data.b	1
00001d6d 37         7334 	.data.b	55
00001d6e 435f534f   7335 	.data.b	79,83,95,67,79,82,69,95,73,68,95,48,32,79,83,95,67,79,82,69,95,73,68,95,48,0
00001d72 5f45524f 
00001d76 305f4449 
00001d7a 5f534f20 
00001d7e 45524f43 
00001d82 5f44495f 
00001d86 0030 
00001d88 04         7336 	.data.b	4
00001d89 03         7337 	.data.b	3
00001d8a 50         7338 	.data.b	80
00001d8b 15         7339 	.data.b	21
00001d8c 04         7340 	.data.b	4
00001d8d 03         7341 	.data.b	3
00001d8e 58         7342 	.data.b	88
00001d8f 15         7343 	.data.b	21
00001d90 04         7344 	.data.b	4
00001d91 03         7345 	.data.b	3
00001d92 5c         7346 	.data.b	92
00001d93 15         7347 	.data.b	21
00001d94 04         7348 	.data.b	4
00001d95 03         7349 	.data.b	3
00001d96 64         7350 	.data.b	100
00001d97 15         7351 	.data.b	21
00001d98 04         7352 	.data.b	4
00001d99 03         7353 	.data.b	3
00001d9a 68         7354 	.data.b	104
00001d9b 15         7355 	.data.b	21
00001d9c 04         7356 	.data.b	4
00001d9d 03         7357 	.data.b	3

                                                                      Page 179
                                                              C:\Users\Fengyuan\AppData\Local\Temp\gh_00006b81.s
00001d9e 70         7358 	.data.b	112
00001d9f 15         7359 	.data.b	21
00001da0 04         7360 	.data.b	4
00001da1 03         7361 	.data.b	3
00001da2 74         7362 	.data.b	116
00001da3 15         7363 	.data.b	21
00001da4 04         7364 	.data.b	4
00001da5 03         7365 	.data.b	3
00001da6 7c         7366 	.data.b	124
00001da7 15         7367 	.data.b	21
00001da8 04         7368 	.data.b	4
00001da9 03         7369 	.data.b	3
00001daa 0180       7370 	.data.b	128,1
00001dac 15         7371 	.data.b	21
00001dad 04         7372 	.data.b	4
00001dae 03         7373 	.data.b	3
00001daf 0188       7374 	.data.b	136,1
00001db1 15         7375 	.data.b	21
00001db2 04         7376 	.data.b	4
00001db3 04         7377 	.data.b	4
00001db4 03         7378 	.data.b	3
00001db5 2d         7379 	.data.b	45
00001db6 22         7380 	.data.b	34
00001db7 01         7381 	.data.b	1
00001db8 21         7382 	.data.b	33
00001db9 485f534f   7383 	.data.b	79,83,95,72,65,76,95,79,83,73,78,84,95,72,32,0
00001dbd 4f5f4c41 
00001dc1 544e4953 
00001dc5 0020485f 
00001dc9 03         7384 	.data.b	3
00001dca 2a         7385 	.data.b	42
00001dcb 20         7386 	.data.b	32
00001dcc 04         7387 	.data.b	4
00001dcd 03         7388 	.data.b	3
00001dce 2d         7389 	.data.b	45
00001dcf 1b         7390 	.data.b	27
00001dd0 04         7391 	.data.b	4
00001dd1 04         7392 	.data.b	4
00001dd2 03         7393 	.data.b	3
00001dd3 02e4       7394 	.data.b	228,2
00001dd5 15         7395 	.data.b	21
00001dd6 04         7396 	.data.b	4
00001dd7 03         7397 	.data.b	3
00001dd8 02fd       7398 	.data.b	253,2
00001dda 15         7399 	.data.b	21
00001ddb 04         7400 	.data.b	4
00001ddc 03         7401 	.data.b	3
00001ddd 03e0       7402 	.data.b	224,3
00001ddf 15         7403 	.data.b	21
00001de0 04         7404 	.data.b	4
00001de1 03         7405 	.data.b	3
00001de2 03f4       7406 	.data.b	244,3
00001de4 15         7407 	.data.b	21
00001de5 04         7408 	.data.b	4
00001de6 04         7409 	.data.b	4
00001de7 03         7410 	.data.b	3
00001de8 0389       7411 	.data.b	137,3
00001dea 1c         7412 	.data.b	28
00001deb 04         7413 	.data.b	4
00001dec 03         7414 	.data.b	3
00001ded 038a       7415 	.data.b	138,3

                                                                      Page 180
                                                              C:\Users\Fengyuan\AppData\Local\Temp\gh_00006b81.s
00001def 1f         7416 	.data.b	31
00001df0 04         7417 	.data.b	4
00001df1 03         7418 	.data.b	3
00001df2 038f       7419 	.data.b	143,3
00001df4 23         7420 	.data.b	35
00001df5 03         7421 	.data.b	3
00001df6 7b         7422 	.data.b	123
00001df7 22         7423 	.data.b	34
00001df8 04         7424 	.data.b	4
00001df9 03         7425 	.data.b	3
00001dfa 7e         7426 	.data.b	126
00001dfb 1b         7427 	.data.b	27
00001dfc 04         7428 	.data.b	4
00001dfd 04         7429 	.data.b	4
00001dfe 01         7430 	.data.b	1
00001dff 03f7       7431 	.data.b	247,3
00001e01 535f534f   7432 	.data.b	79,83,95,83,84,65,82,84,95,83,69,67,95,67,79,68,69,32,0
00001e05 54524154 
00001e09 4345535f 
00001e0d 444f435f 
00001e11 002045 
00001e14 03         7433 	.data.b	3
00001e15 03f8       7434 	.data.b	248,3
00001e17 24         7435 	.data.b	36
00001e18 01         7436 	.data.b	1
00001e19 24         7437 	.data.b	36
00001e1a 4d4d454d   7438 	.data.b	77,69,77,77,65,80,95,69,82,82,79,82,32,0
00001e1e 455f5041 
00001e22 524f5252 
00001e26 0020 
00001e28 03         7439 	.data.b	3
00001e29 26         7440 	.data.b	38
00001e2a 25         7441 	.data.b	37
00001e2b 01         7442 	.data.b	1
00001e2c 26         7443 	.data.b	38
00001e2d 4d5f534f   7444 	.data.b	79,83,95,77,69,77,77,65,80,95,83,69,67,84,73,79,78,95,79,80,69,78,32,0
00001e31 414d4d45 
00001e35 45535f50 
00001e39 4f495443 
00001e3d 504f5f4e 
00001e41 00204e45 
00001e45 01         7445 	.data.b	1
00001e46 27         7446 	.data.b	39
00001e47 435f534f   7447 	.data.b	79,83,95,67,79,68,69,95,79,80,69,78,32,0
00001e4b 5f45444f 
00001e4f 4e45504f 
00001e53 0020 
00001e55 04         7448 	.data.b	4
00001e56 04         7449 	.data.b	4
00001e57 01         7450 	.data.b	1
00001e58 29d2       7451 	.data.b	210,41
00001e5a 535f534f   7452 	.data.b	79,83,95,83,84,79,80,95,83,69,67,95,67,79,68,69,32,0
00001e5e 5f504f54 
00001e62 5f434553 
00001e66 45444f43 
00001e6a 0020 
00001e6c 03         7453 	.data.b	3
00001e6d 29d3       7454 	.data.b	211,41
00001e6f 24         7455 	.data.b	36
00001e70 01         7456 	.data.b	1
00001e71 24         7457 	.data.b	36

                                                                      Page 181
                                                              C:\Users\Fengyuan\AppData\Local\Temp\gh_00006b81.s
00001e72 4d4d454d   7458 	.data.b	77,69,77,77,65,80,95,69,82,82,79,82,32,0
00001e76 455f5041 
00001e7a 524f5252 
00001e7e 0020 
00001e80 03         7459 	.data.b	3
00001e81 26         7460 	.data.b	38
00001e82 25         7461 	.data.b	37
00001e83 04         7462 	.data.b	4
00001e84 04         7463 	.data.b	4
00001e85 04         7464 	.data.b	4
00001e86 03         7465 	.data.b	3
00001e87 2e         7466 	.data.b	46
00001e88 26         7467 	.data.b	38
00001e89 03         7468 	.data.b	3
00001e8a 47         7469 	.data.b	71
00001e8b 27         7470 	.data.b	39
00001e8c 03         7471 	.data.b	3
00001e8d 53         7472 	.data.b	83
00001e8e 28         7473 	.data.b	40
00001e8f 03         7474 	.data.b	3
00001e90 70         7475 	.data.b	112
00001e91 29         7476 	.data.b	41
00001e92 01         7477 	.data.b	1
00001e93 49         7478 	.data.b	73
00001e94 5f434f53   7479 	.data.b	83,79,67,95,73,80,83,95,86,69,78,68,79,82,95,73,68,32,52,51,0
00001e98 5f535049 
00001e9c 444e4556 
00001ea0 495f524f 
00001ea4 33342044 
00001ea8 00 
00001ea9 01         7480 	.data.b	1
00001eaa 4b         7481 	.data.b	75
00001eab 5f434f53   7482 	.data.b	83,79,67,95,73,80,83,95,65,82,95,82,69,76,69,65,83,69,95,77,65,74,79,82,95,86,69,82,83,73,79,78,32,52,0
00001eaf 5f535049 
00001eb3 525f5241 
00001eb7 41454c45 
00001ebb 4d5f4553 
00001ebf 524f4a41 
00001ec3 5245565f 
00001ec7 4e4f4953 
00001ecb 003420 
00001ece 01         7483 	.data.b	1
00001ecf 4c         7484 	.data.b	76
00001ed0 5f434f53   7485 	.data.b	83,79,67,95,73,80,83,95,65,82,95,82,69,76,69,65,83,69,95,77,73,78,79,82,95,86,69,82,83,73,79,78,32,50,0
00001ed4 5f535049 
00001ed8 525f5241 
00001edc 41454c45 
00001ee0 4d5f4553 
00001ee4 524f4e49 
00001ee8 5245565f 
00001eec 4e4f4953 
00001ef0 003220 
00001ef3 01         7486 	.data.b	1
00001ef4 4d         7487 	.data.b	77
00001ef5 5f434f53   7488 	.data.b	83,79,67,95,73,80,83,95,65,82,95,82,69,76,69,65,83,69,95,82,69,86,73,83,73,79,78,95,86,69,82,83,73,79,78,32,50,0
00001ef9 5f535049 
00001efd 525f5241 
00001f01 41454c45 
00001f05 525f4553 
00001f09 53495645 
00001f0d 5f4e4f49 

                                                                      Page 182
                                                              C:\Users\Fengyuan\AppData\Local\Temp\gh_00006b81.s
00001f11 53524556 
00001f15 204e4f49 
00001f19 0032 
00001f1b 01         7489 	.data.b	1
00001f1c 4e         7490 	.data.b	78
00001f1d 5f434f53   7491 	.data.b	83,79,67,95,73,80,83,95,83,87,95,77,65,74,79,82,95,86,69,82,83,73,79,78,32,49,0
00001f21 5f535049 
00001f25 4d5f5753 
00001f29 524f4a41 
00001f2d 5245565f 
00001f31 4e4f4953 
00001f35 003120 
00001f38 01         7492 	.data.b	1
00001f39 4f         7493 	.data.b	79
00001f3a 5f434f53   7494 	.data.b	83,79,67,95,73,80,83,95,83,87,95,77,73,78,79,82,95,86,69,82,83,73,79,78,32,48,0
00001f3e 5f535049 
00001f42 4d5f5753 
00001f46 524f4e49 
00001f4a 5245565f 
00001f4e 4e4f4953 
00001f52 003020 
00001f55 01         7495 	.data.b	1
00001f56 50         7496 	.data.b	80
00001f57 5f434f53   7497 	.data.b	83,79,67,95,73,80,83,95,83,87,95,80,65,84,67,72,95,86,69,82,83,73,79,78,32,49,0
00001f5b 5f535049 
00001f5f 505f5753 
00001f63 48435441 
00001f67 5245565f 
00001f6b 4e4f4953 
00001f6f 003120 
00001f72 01         7498 	.data.b	1
00001f73 65         7499 	.data.b	101
00001f74 5f565049   7500 	.data.b	73,80,86,95,80,77,67,32,40,48,120,48,51,48,48,48,49,48,48,85,41,0
00001f78 20434d50 
00001f7c 30783028 
00001f80 30303033 
00001f84 55303031 
00001f88 0029 
00001f8a 01         7501 	.data.b	1
00001f8b 72         7502 	.data.b	114
00001f8c 5f565049   7503 	.data.b	73,80,86,95,67,77,85,32,40,48,120,48,48,48,48,48,48,48,49,85,41,0
00001f90 20554d43 
00001f94 30783028 
00001f98 30303030 
00001f9c 55313030 
00001fa0 0029 
00001fa2 04         7504 	.data.b	4
00001fa3 03         7505 	.data.b	3
00001fa4 07a9       7506 	.data.b	169,7
00001fa6 19         7507 	.data.b	25
00001fa7 04         7508 	.data.b	4
00001fa8 04         7509 	.data.b	4
00001fa9 01         7510 	.data.b	1
00001faa 58         7511 	.data.b	88
00001fab 5f55434d   7512 	.data.b	77,67,85,95,67,70,71,95,86,69,78,68,79,82,95,73,68,32,52,51,0
00001faf 5f474643 
00001fb3 444e4556 
00001fb7 495f524f 
00001fbb 33342044 
00001fbf 00 
00001fc0 01         7513 	.data.b	1

                                                                      Page 183
                                                              C:\Users\Fengyuan\AppData\Local\Temp\gh_00006b81.s
00001fc1 59         7514 	.data.b	89
00001fc2 5f55434d   7515 	.data.b	77,67,85,95,67,70,71,95,65,82,95,82,69,76,69,65,83,69,95,77,65,74,79,82,95,86,69,82,83,73,79,78,32,52,0
00001fc6 5f474643 
00001fca 525f5241 
00001fce 41454c45 
00001fd2 4d5f4553 
00001fd6 524f4a41 
00001fda 5245565f 
00001fde 4e4f4953 
00001fe2 003420 
00001fe5 01         7516 	.data.b	1
00001fe6 5a         7517 	.data.b	90
00001fe7 5f55434d   7518 	.data.b	77,67,85,95,67,70,71,95,65,82,95,82,69,76,69,65,83,69,95,77,73,78,79,82,95,86,69,82,83,73,79,78,32,50,0
00001feb 5f474643 
00001fef 525f5241 
00001ff3 41454c45 
00001ff7 4d5f4553 
00001ffb 524f4e49 
00001fff 5245565f 
00002003 4e4f4953 
00002007 003220 
0000200a 01         7519 	.data.b	1
0000200b 5b         7520 	.data.b	91
0000200c 5f55434d   7521 	.data.b	77,67,85,95,67,70,71,95,65,82,95,82,69,76,69,65,83,69,95,82,69,86,73,83,73,79,78,95,86,69,82,83,73,79,78,32,50,0
00002010 5f474643 
00002014 525f5241 
00002018 41454c45 
0000201c 525f4553 
00002020 53495645 
00002024 5f4e4f49 
00002028 53524556 
0000202c 204e4f49 
00002030 0032 
00002032 01         7522 	.data.b	1
00002033 5c         7523 	.data.b	92
00002034 5f55434d   7524 	.data.b	77,67,85,95,67,70,71,95,83,87,95,77,65,74,79,82,95,86,69,82,83,73,79,78,32,49,0
00002038 5f474643 
0000203c 4d5f5753 
00002040 524f4a41 
00002044 5245565f 
00002048 4e4f4953 
0000204c 003120 
0000204f 01         7525 	.data.b	1
00002050 5d         7526 	.data.b	93
00002051 5f55434d   7527 	.data.b	77,67,85,95,67,70,71,95,83,87,95,77,73,78,79,82,95,86,69,82,83,73,79,78,32,48,0
00002055 5f474643 
00002059 4d5f5753 
0000205d 524f4e49 
00002061 5245565f 
00002065 4e4f4953 
00002069 003020 
0000206c 01         7528 	.data.b	1
0000206d 5e         7529 	.data.b	94
0000206e 5f55434d   7530 	.data.b	77,67,85,95,67,70,71,95,83,87,95,80,65,84,67,72,95,86,69,82,83,73,79,78,32,49,0
00002072 5f474643 
00002076 505f5753 
0000207a 48435441 
0000207e 5245565f 
00002082 4e4f4953 
00002086 003120 
00002089 01         7531 	.data.b	1

                                                                      Page 184
                                                              C:\Users\Fengyuan\AppData\Local\Temp\gh_00006b81.s
0000208a 01b9       7532 	.data.b	185,1
0000208c 5f55434d   7533 	.data.b	77,67,85,95,86,69,82,83,73,79,78,95,73,78,70,79,95,65,80,73,32,40,83,84,68,95,79,70,70,41,0
00002090 53524556 
00002094 5f4e4f49 
00002098 4f464e49 
0000209c 4950415f 
000020a0 54532820 
000020a4 464f5f44 
000020a8 002946 
000020ab 01         7534 	.data.b	1
000020ac 01bf       7535 	.data.b	191,1
000020ae 5f55434d   7536 	.data.b	77,67,85,95,71,69,84,95,82,65,77,95,83,84,65,84,69,95,65,80,73,32,40,83,84,68,95,79,70,70,41,0
000020b2 5f544547 
000020b6 5f4d4152 
000020ba 54415453 
000020be 50415f45 
000020c2 53282049 
000020c6 4f5f4454 
000020ca 00294646 
000020ce 01         7537 	.data.b	1
000020cf 01c5       7538 	.data.b	197,1
000020d1 5f55434d   7539 	.data.b	77,67,85,95,73,78,73,84,95,67,76,79,67,75,32,40,83,84,68,95,79,78,41,0
000020d5 54494e49 
000020d9 4f4c435f 
000020dd 28204b43 
000020e1 5f445453 
000020e5 00294e4f 
000020e9 01         7540 	.data.b	1
000020ea 01cb       7541 	.data.b	203,1
000020ec 5f55434d   7542 	.data.b	77,67,85,95,78,79,95,80,76,76,32,40,83,84,68,95,79,70,70,41,0
000020f0 505f4f4e 
000020f4 28204c4c 
000020f8 5f445453 
000020fc 2946464f 
00002100 00 
00002101 01         7543 	.data.b	1
00002102 01e5       7544 	.data.b	229,1
00002104 5f55434d   7545 	.data.b	77,67,85,95,80,69,82,70,79,82,77,95,82,69,83,69,84,95,65,80,73,32,40,83,84,68,95,79,70,70,41,0
00002108 46524550 
0000210c 5f4d524f 
00002110 45534552 
00002114 50415f54 
00002118 53282049 
0000211c 4f5f4454 
00002120 00294646 
00002124 01         7546 	.data.b	1
00002125 0289       7547 	.data.b	137,2
00002127 5f55434d   7548 	.data.b	77,67,85,95,71,69,84,95,80,69,82,73,80,72,95,83,84,65,84,69,95,65,80,73,32,40,83,84,68,95,79,70,70,41,0
0000212b 5f544547 
0000212f 49524550 
00002133 535f4850 
00002137 45544154 
0000213b 4950415f 
0000213f 54532820 
00002143 464f5f44 
00002147 002946 
0000214a 01         7549 	.data.b	1
0000214b 028e       7550 	.data.b	142,2
0000214d 5f55434d   7551 	.data.b	77,67,85,95,71,69,84,95,83,89,83,84,69,77,95,83,84,65,84,69,95,65,80,73,32,40,83,84,68,95,79,70,70,41,0
00002151 5f544547 
00002155 54535953 

                                                                      Page 185
                                                              C:\Users\Fengyuan\AppData\Local\Temp\gh_00006b81.s
00002159 535f4d45 
0000215d 45544154 
00002161 4950415f 
00002165 54532820 
00002169 464f5f44 
0000216d 002946 
00002170 01         7552 	.data.b	1
00002171 0293       7553 	.data.b	147,2
00002173 5f55434d   7554 	.data.b	77,67,85,95,80,79,87,69,82,77,79,68,69,95,83,84,65,84,69,95,65,80,73,32,40,83,84,68,95,79,70,70,41,0
00002177 45574f50 
0000217b 444f4d52 
0000217f 54535f45 
00002183 5f455441 
00002187 20495041 
0000218b 44545328 
0000218f 46464f5f 
00002193 0029 
00002195 01         7555 	.data.b	1
00002196 0298       7556 	.data.b	152,2
00002198 5f55434d   7557 	.data.b	77,67,85,95,71,69,84,95,80,79,87,69,82,95,68,79,77,65,73,78,95,65,80,73,32,40,83,84,68,95,79,70,70,41,0
0000219c 5f544547 
000021a0 45574f50 
000021a4 4f445f52 
000021a8 4e49414d 
000021ac 4950415f 
000021b0 54532820 
000021b4 464f5f44 
000021b8 002946 
000021bb 01         7558 	.data.b	1
000021bc 02a2       7559 	.data.b	162,2
000021be 5f55434d   7560 	.data.b	77,67,85,95,71,69,84,95,77,69,77,95,67,79,78,70,73,71,95,65,80,73,32,40,83,84,68,95,79,70,70,41,0
000021c2 5f544547 
000021c6 5f4d454d 
000021ca 464e4f43 
000021ce 415f4749 
000021d2 28204950 
000021d6 5f445453 
000021da 2946464f 
000021de 00 
000021df 01         7561 	.data.b	1
000021e0 02a7       7562 	.data.b	167,2
000021e2 5f55434d   7563 	.data.b	77,67,85,95,83,83,67,77,95,71,69,84,95,83,84,65,84,85,83,95,65,80,73,32,40,83,84,68,95,79,70,70,41,0
000021e6 4d435353 
000021ea 5445475f 
000021ee 4154535f 
000021f2 5f535554 
000021f6 20495041 
000021fa 44545328 
000021fe 46464f5f 
00002202 0029 
00002204 01         7564 	.data.b	1
00002205 02ac       7565 	.data.b	172,2
00002207 5f55434d   7566 	.data.b	77,67,85,95,83,83,67,77,95,71,69,84,95,85,79,80,83,95,65,80,73,32,40,83,84,68,95,79,70,70,41,0
0000220b 4d435353 
0000220f 5445475f 
00002213 504f555f 
00002217 50415f53 
0000221b 53282049 
0000221f 4f5f4454 
00002223 00294646 
00002227 01         7567 	.data.b	1

                                                                      Page 186
                                                              C:\Users\Fengyuan\AppData\Local\Temp\gh_00006b81.s
00002228 02b1       7568 	.data.b	177,2
0000222a 5f55434d   7569 	.data.b	77,67,85,95,71,69,84,95,77,73,68,82,95,65,80,73,32,40,83,84,68,95,79,70,70,41,0
0000222e 5f544547 
00002232 5244494d 
00002236 4950415f 
0000223a 54532820 
0000223e 464f5f44 
00002242 002946 
00002245 01         7570 	.data.b	1
00002246 02b6       7571 	.data.b	182,2
00002248 5f55434d   7572 	.data.b	77,67,85,95,69,77,73,79,83,95,67,79,78,70,73,71,85,82,69,95,71,80,82,69,78,95,65,80,73,32,40,83,84,68,95,79,70,70,41,0
0000224c 4f494d45 
00002250 4f435f53 
00002254 4749464e 
00002258 5f455255 
0000225c 45525047 
00002260 50415f4e 
00002264 53282049 
00002268 4f5f4454 
0000226c 00294646 
00002270 01         7573 	.data.b	1
00002271 02bb       7574 	.data.b	187,2
00002273 5f55434d   7575 	.data.b	77,67,85,95,68,73,83,65,66,76,69,95,67,77,85,95,65,80,73,32,40,83,84,68,95,79,70,70,41,0
00002277 41534944 
0000227b 5f454c42 
0000227f 5f554d43 
00002283 20495041 
00002287 44545328 
0000228b 46464f5f 
0000228f 0029 
00002291 01         7576 	.data.b	1
00002292 02c0       7577 	.data.b	192,2
00002294 5f55434d   7578 	.data.b	77,67,85,95,69,78,65,66,76,69,95,67,77,85,95,80,69,82,73,80,72,69,82,65,76,32,40,83,84,68,95,79,70,70,41,0
00002298 42414e45 
0000229c 435f454c 
000022a0 505f554d 
000022a4 50495245 
000022a8 41524548 
000022ac 5328204c 
000022b0 4f5f4454 
000022b4 00294646 
000022b8 01         7579 	.data.b	1
000022b9 02c5       7580 	.data.b	197,2
000022bb 5f55434d   7581 	.data.b	77,67,85,95,68,73,83,65,66,76,69,95,68,69,77,95,82,69,80,79,82,84,95,69,82,82,79,82,95,83,84,65,84,85,83,32,40,83,84,68,95,79,78,41,0
000022bf 41534944 
000022c3 5f454c42 
000022c7 5f4d4544 
000022cb 4f504552 
000022cf 455f5452 
000022d3 524f5252 
000022d7 4154535f 
000022db 20535554 
000022df 44545328 
000022e3 294e4f5f 
000022e7 00 
000022e8 01         7582 	.data.b	1
000022e9 02ca       7583 	.data.b	202,2
000022eb 5f55434d   7584 	.data.b	77,67,85,95,76,80,85,95,83,85,80,80,79,82,84,32,40,83,84,68,95,79,70,70,41,0
000022ef 5f55504c 
000022f3 50505553 
000022f7 2054524f 

                                                                      Page 187
                                                              C:\Users\Fengyuan\AppData\Local\Temp\gh_00006b81.s
000022fb 44545328 
000022ff 46464f5f 
00002303 0029 
00002305 01         7585 	.data.b	1
00002306 02cf       7586 	.data.b	207,2
00002308 5f55434d   7587 	.data.b	77,67,85,95,77,65,88,95,67,76,75,67,79,78,70,73,71,83,32,40,40,117,105,110,116,51,50,41,49,85,41,0
0000230c 5f58414d 
00002310 434b4c43 
00002314 49464e4f 
00002318 28205347 
0000231c 6e697528 
00002320 29323374 
00002324 00295531 
00002328 01         7588 	.data.b	1
00002329 02d5       7589 	.data.b	213,2
0000232b 5f55434d   7590 	.data.b	77,67,85,95,77,65,88,95,77,79,68,69,67,79,78,70,73,71,83,32,40,40,117,105,110,116,51,50,41,49,85,41,0
0000232f 5f58414d 
00002333 45444f4d 
00002337 464e4f43 
0000233b 20534749 
0000233f 69752828 
00002343 3233746e 
00002347 29553129 
0000234b 00 
0000234c 01         7591 	.data.b	1
0000234d 02dc       7592 	.data.b	220,2
0000234f 5f55434d   7593 	.data.b	77,67,85,95,77,65,88,95,78,79,82,65,77,67,79,78,70,73,71,83,32,0
00002353 5f58414d 
00002357 41524f4e 
0000235b 4e4f434d 
0000235f 53474946 
00002363 0020 
00002365 01         7594 	.data.b	1
00002366 02e2       7595 	.data.b	226,2
00002368 5f55434d   7596 	.data.b	77,67,85,95,80,82,69,67,79,77,80,73,76,69,95,83,85,80,80,79,82,84,32,40,83,84,68,95,79,70,70,41,0
0000236c 43455250 
00002370 49504d4f 
00002374 535f454c 
00002378 4f505055 
0000237c 28205452 
00002380 5f445453 
00002384 2946464f 
00002388 00 
00002389 01         7597 	.data.b	1
0000238a 0386       7598 	.data.b	134,3
0000238c 5f55434d   7599 	.data.b	77,67,85,95,69,78,65,66,76,69,95,85,83,69,82,95,77,79,68,69,95,83,85,80,80,79,82,84,32,40,83,84,68,95,79,70,70,41,0
00002390 42414e45 
00002394 555f454c 
00002398 5f524553 
0000239c 45444f4d 
000023a0 5055535f 
000023a4 54524f50 
000023a8 54532820 
000023ac 464f5f44 
000023b0 002946 
000023b3 01         7600 	.data.b	1
000023b4 03ba       7601 	.data.b	186,3
000023b6 5f55434d   7602 	.data.b	77,67,85,95,67,79,78,70,95,80,66,32,101,120,116,101,114,110,32,67,79,78,83,84,40,77,99,117,95,67,111,110,102,105,103,84,121,112,101,44,32,77,67,85,95,67,79,78,83,84,41,32,77,99,117,77,111,100,117,108
000023ba 464e4f43 
000023be 2042505f 
000023c2 65747865 

                                                                      Page 188
                                                              C:\Users\Fengyuan\AppData\Local\Temp\gh_00006b81.s
000023c6 43206e72 
000023ca 54534e4f 
000023ce 75634d28 
000023d2 6e6f435f 
000023d6 54676966 
000023da 2c657079 
000023de 55434d20 
000023e2 4e4f435f 
000023e6 20295453 
000023ea 4d75634d 
000023ee 6c75646f 
000023f2 6e6f4365   7603 	.data.b	101,67,111,110,102,105,103,117,114,97,116,105,111,110,59,0
000023f6 75676966 
000023fa 69746172 
000023fe 003b6e6f 
00002402 04         7604 	.data.b	4
00002403 03         7605 	.data.b	3
00002404 48         7606 	.data.b	72
00002405 2a         7607 	.data.b	42
00002406 01         7608 	.data.b	1
00002407 4e         7609 	.data.b	78
00002408 5f55434d   7610 	.data.b	77,67,85,95,83,67,70,71,95,86,69,78,68,79,82,95,73,68,32,52,51,0
0000240c 47464353 
00002410 4e45565f 
00002414 5f524f44 
00002418 34204449 
0000241c 0033 
0000241e 01         7611 	.data.b	1
0000241f 4f         7612 	.data.b	79
00002420 5f55434d   7613 	.data.b	77,67,85,95,83,67,70,71,95,65,82,95,82,69,76,69,65,83,69,95,77,65,74,79,82,95,86,69,82,83,73,79,78,32,52,0
00002424 47464353 
00002428 5f52415f 
0000242c 454c4552 
00002430 5f455341 
00002434 4f4a414d 
00002438 45565f52 
0000243c 4f495352 
00002440 0034204e 
00002444 01         7614 	.data.b	1
00002445 50         7615 	.data.b	80
00002446 5f55434d   7616 	.data.b	77,67,85,95,83,67,70,71,95,65,82,95,82,69,76,69,65,83,69,95,77,73,78,79,82,95,86,69,82,83,73,79,78,32,50,0
0000244a 47464353 
0000244e 5f52415f 
00002452 454c4552 
00002456 5f455341 
0000245a 4f4e494d 
0000245e 45565f52 
00002462 4f495352 
00002466 0032204e 
0000246a 01         7617 	.data.b	1
0000246b 51         7618 	.data.b	81
0000246c 5f55434d   7619 	.data.b	77,67,85,95,83,67,70,71,95,65,82,95,82,69,76,69,65,83,69,95,82,69,86,73,83,73,79,78,95,86,69,82,83,73,79,78,32,50,0
00002470 47464353 
00002474 5f52415f 
00002478 454c4552 
0000247c 5f455341 
00002480 49564552 
00002484 4e4f4953 
00002488 5245565f 
0000248c 4e4f4953 
00002490 003220 

                                                                      Page 189
                                                              C:\Users\Fengyuan\AppData\Local\Temp\gh_00006b81.s
00002493 01         7620 	.data.b	1
00002494 52         7621 	.data.b	82
00002495 5f55434d   7622 	.data.b	77,67,85,95,83,67,70,71,95,83,87,95,77,65,74,79,82,95,86,69,82,83,73,79,78,32,49,0
00002499 47464353 
0000249d 5f57535f 
000024a1 4f4a414d 
000024a5 45565f52 
000024a9 4f495352 
000024ad 0031204e 
000024b1 01         7623 	.data.b	1
000024b2 53         7624 	.data.b	83
000024b3 5f55434d   7625 	.data.b	77,67,85,95,83,67,70,71,95,83,87,95,77,73,78,79,82,95,86,69,82,83,73,79,78,32,48,0
000024b7 47464353 
000024bb 5f57535f 
000024bf 4f4e494d 
000024c3 45565f52 
000024c7 4f495352 
000024cb 0030204e 
000024cf 01         7626 	.data.b	1
000024d0 54         7627 	.data.b	84
000024d1 5f55434d   7628 	.data.b	77,67,85,95,83,67,70,71,95,83,87,95,80,65,84,67,72,95,86,69,82,83,73,79,78,32,49,0
000024d5 47464353 
000024d9 5f57535f 
000024dd 43544150 
000024e1 45565f48 
000024e5 4f495352 
000024e9 0031204e 
000024ed 04         7629 	.data.b	4
000024ee 03         7630 	.data.b	3
000024ef 49         7631 	.data.b	73
000024f0 2b         7632 	.data.b	43
000024f1 03         7633 	.data.b	3
000024f2 38         7634 	.data.b	56
000024f3 2c         7635 	.data.b	44
000024f4 01         7636 	.data.b	1
000024f5 3f         7637 	.data.b	63
000024f6 5f55434d   7638 	.data.b	77,67,85,95,80,67,67,95,84,89,80,69,83,95,86,69,78,68,79,82,95,73,68,32,52,51,0
000024fa 5f434350 
000024fe 45505954 
00002502 45565f53 
00002506 524f444e 
0000250a 2044495f 
0000250e 003334 
00002511 01         7639 	.data.b	1
00002512 40         7640 	.data.b	64
00002513 5f55434d   7641 	.data.b	77,67,85,95,80,67,67,95,84,89,80,69,83,95,65,82,95,82,69,76,69,65,83,69,95,77,65,74,79,82,95,86,69,82,83,73,79,78,32,52,0
00002517 5f434350 
0000251b 45505954 
0000251f 52415f53 
00002523 4c45525f 
00002527 45534145 
0000252b 4a414d5f 
0000252f 565f524f 
00002533 49535245 
00002537 34204e4f 
0000253b 00 
0000253c 01         7642 	.data.b	1
0000253d 41         7643 	.data.b	65
0000253e 5f55434d   7644 	.data.b	77,67,85,95,80,67,67,95,84,89,80,69,83,95,65,82,95,82,69,76,69,65,83,69,95,77,73,78,79,82,95,86,69,82,83,73,79,78,32,50,0
00002542 5f434350 
00002546 45505954 

                                                                      Page 190
                                                              C:\Users\Fengyuan\AppData\Local\Temp\gh_00006b81.s
0000254a 52415f53 
0000254e 4c45525f 
00002552 45534145 
00002556 4e494d5f 
0000255a 565f524f 
0000255e 49535245 
00002562 32204e4f 
00002566 00 
00002567 01         7645 	.data.b	1
00002568 42         7646 	.data.b	66
00002569 5f55434d   7647 	.data.b	77,67,85,95,80,67,67,95,84,89,80,69,83,95,65,82,95,82,69,76,69,65,83,69,95,82,69,86,73,83,73,79,78,95,86,69,82,83,73,79,78,32,50,0
0000256d 5f434350 
00002571 45505954 
00002575 52415f53 
00002579 4c45525f 
0000257d 45534145 
00002581 5645525f 
00002585 4f495349 
00002589 45565f4e 
0000258d 4f495352 
00002591 0032204e 
00002595 01         7648 	.data.b	1
00002596 43         7649 	.data.b	67
00002597 5f55434d   7650 	.data.b	77,67,85,95,80,67,67,95,84,89,80,69,83,95,83,87,95,77,65,74,79,82,95,86,69,82,83,73,79,78,32,49,0
0000259b 5f434350 
0000259f 45505954 
000025a3 57535f53 
000025a7 4a414d5f 
000025ab 565f524f 
000025af 49535245 
000025b3 31204e4f 
000025b7 00 
000025b8 01         7651 	.data.b	1
000025b9 44         7652 	.data.b	68
000025ba 5f55434d   7653 	.data.b	77,67,85,95,80,67,67,95,84,89,80,69,83,95,83,87,95,77,73,78,79,82,95,86,69,82,83,73,79,78,32,48,0
000025be 5f434350 
000025c2 45505954 
000025c6 57535f53 
000025ca 4e494d5f 
000025ce 565f524f 
000025d2 49535245 
000025d6 30204e4f 
000025da 00 
000025db 01         7654 	.data.b	1
000025dc 45         7655 	.data.b	69
000025dd 5f55434d   7656 	.data.b	77,67,85,95,80,67,67,95,84,89,80,69,83,95,83,87,95,80,65,84,67,72,95,86,69,82,83,73,79,78,32,49,0
000025e1 5f434350 
000025e5 45505954 
000025e9 57535f53 
000025ed 5441505f 
000025f1 565f4843 
000025f5 49535245 
000025f9 31204e4f 
000025fd 00 
000025fe 04         7657 	.data.b	4
000025ff 03         7658 	.data.b	3
00002600 39         7659 	.data.b	57
00002601 2d         7660 	.data.b	45
00002602 03         7661 	.data.b	3
00002603 3e         7662 	.data.b	62
00002604 2e         7663 	.data.b	46

                                                                      Page 191
                                                              C:\Users\Fengyuan\AppData\Local\Temp\gh_00006b81.s
00002605 03         7664 	.data.b	3
00002606 3e         7665 	.data.b	62
00002607 2f         7666 	.data.b	47
00002608 01         7667 	.data.b	1
00002609 50         7668 	.data.b	80
0000260a 5f474552   7669 	.data.b	82,69,71,95,69,83,89,83,95,86,69,78,68,79,82,95,73,68,32,52,51,0
0000260e 53595345 
00002612 4e45565f 
00002616 5f524f44 
0000261a 34204449 
0000261e 0033 
00002620 01         7670 	.data.b	1
00002621 52         7671 	.data.b	82
00002622 5f474552   7672 	.data.b	82,69,71,95,69,83,89,83,95,65,82,95,82,69,76,69,65,83,69,95,77,65,74,79,82,95,86,69,82,83,73,79,78,32,52,0
00002626 53595345 
0000262a 5f52415f 
0000262e 454c4552 
00002632 5f455341 
00002636 4f4a414d 
0000263a 45565f52 
0000263e 4f495352 
00002642 0034204e 
00002646 01         7673 	.data.b	1
00002647 53         7674 	.data.b	83
00002648 5f474552   7675 	.data.b	82,69,71,95,69,83,89,83,95,65,82,95,82,69,76,69,65,83,69,95,77,73,78,79,82,95,86,69,82,83,73,79,78,32,50,0
0000264c 53595345 
00002650 5f52415f 
00002654 454c4552 
00002658 5f455341 
0000265c 4f4e494d 
00002660 45565f52 
00002664 4f495352 
00002668 0032204e 
0000266c 01         7676 	.data.b	1
0000266d 54         7677 	.data.b	84
0000266e 5f474552   7678 	.data.b	82,69,71,95,69,83,89,83,95,65,82,95,82,69,76,69,65,83,69,95,82,69,86,73,83,73,79,78,95,86,69,82,83,73,79,78,32,50,0
00002672 53595345 
00002676 5f52415f 
0000267a 454c4552 
0000267e 5f455341 
00002682 49564552 
00002686 4e4f4953 
0000268a 5245565f 
0000268e 4e4f4953 
00002692 003220 
00002695 01         7679 	.data.b	1
00002696 55         7680 	.data.b	85
00002697 5f474552   7681 	.data.b	82,69,71,95,69,83,89,83,95,83,87,95,77,65,74,79,82,95,86,69,82,83,73,79,78,32,49,0
0000269b 53595345 
0000269f 5f57535f 
000026a3 4f4a414d 
000026a7 45565f52 
000026ab 4f495352 
000026af 0031204e 
000026b3 01         7682 	.data.b	1
000026b4 56         7683 	.data.b	86
000026b5 5f474552   7684 	.data.b	82,69,71,95,69,83,89,83,95,83,87,95,77,73,78,79,82,95,86,69,82,83,73,79,78,32,48,0
000026b9 53595345 
000026bd 5f57535f 
000026c1 4f4e494d 
000026c5 45565f52 

                                                                      Page 192
                                                              C:\Users\Fengyuan\AppData\Local\Temp\gh_00006b81.s
000026c9 4f495352 
000026cd 0030204e 
000026d1 01         7685 	.data.b	1
000026d2 57         7686 	.data.b	87
000026d3 5f474552   7687 	.data.b	82,69,71,95,69,83,89,83,95,83,87,95,80,65,84,67,72,95,86,69,82,83,73,79,78,32,49,0
000026d7 53595345 
000026db 5f57535f 
000026df 43544150 
000026e3 45565f48 
000026e7 4f495352 
000026eb 0031204e 
000026ef 04         7688 	.data.b	4
000026f0 03         7689 	.data.b	3
000026f1 3f         7690 	.data.b	63
000026f2 30         7691 	.data.b	48
000026f3 01         7692 	.data.b	1
000026f4 3d         7693 	.data.b	61
000026f5 5f55434d   7694 	.data.b	77,67,85,95,80,77,67,95,73,80,86,69,82,83,73,79,78,95,86,69,78,68,79,82,95,73,68,32,52,51,0
000026f9 5f434d50 
000026fd 45565049 
00002701 4f495352 
00002705 45565f4e 
00002709 524f444e 
0000270d 2044495f 
00002711 003334 
00002714 01         7695 	.data.b	1
00002715 3f         7696 	.data.b	63
00002716 5f55434d   7697 	.data.b	77,67,85,95,80,77,67,95,73,80,86,69,82,83,73,79,78,95,65,82,95,82,69,76,69,65,83,69,95,77,65,74,79,82,95,86,69,82,83,73,79,78,32,52,0
0000271a 5f434d50 
0000271e 45565049 
00002722 4f495352 
00002726 52415f4e 
0000272a 4c45525f 
0000272e 45534145 
00002732 4a414d5f 
00002736 565f524f 
0000273a 49535245 
0000273e 34204e4f 
00002742 00 
00002743 01         7698 	.data.b	1
00002744 41         7699 	.data.b	65
00002745 5f55434d   7700 	.data.b	77,67,85,95,80,77,67,95,73,80,86,69,82,83,73,79,78,95,65,82,95,82,69,76,69,65,83,69,95,77,73,78,79,82,95,86,69,82,83,73,79,78,32,50,0
00002749 5f434d50 
0000274d 45565049 
00002751 4f495352 
00002755 52415f4e 
00002759 4c45525f 
0000275d 45534145 
00002761 4e494d5f 
00002765 565f524f 
00002769 49535245 
0000276d 32204e4f 
00002771 00 
00002772 01         7701 	.data.b	1
00002773 43         7702 	.data.b	67
00002774 5f55434d   7703 	.data.b	77,67,85,95,80,77,67,95,73,80,86,69,82,83,73,79,78,95,65,82,95,82,69,76,69,65,83,69,95,82,69,86,73,83,73,79,78,95,86,69,82,83,73,79,78,32,50,0
00002778 5f434d50 
0000277c 45565049 
00002780 4f495352 
00002784 52415f4e 
00002788 4c45525f 

                                                                      Page 193
                                                              C:\Users\Fengyuan\AppData\Local\Temp\gh_00006b81.s
0000278c 45534145 
00002790 5645525f 
00002794 4f495349 
00002798 45565f4e 
0000279c 4f495352 
000027a0 0032204e 
000027a4 01         7704 	.data.b	1
000027a5 44         7705 	.data.b	68
000027a6 5f55434d   7706 	.data.b	77,67,85,95,80,77,67,95,73,80,86,69,82,83,73,79,78,95,83,87,95,77,65,74,79,82,95,86,69,82,83,73,79,78,32,49,0
000027aa 5f434d50 
000027ae 45565049 
000027b2 4f495352 
000027b6 57535f4e 
000027ba 4a414d5f 
000027be 565f524f 
000027c2 49535245 
000027c6 31204e4f 
000027ca 00 
000027cb 01         7707 	.data.b	1
000027cc 45         7708 	.data.b	69
000027cd 5f55434d   7709 	.data.b	77,67,85,95,80,77,67,95,73,80,86,69,82,83,73,79,78,95,83,87,95,77,73,78,79,82,95,86,69,82,83,73,79,78,32,48,0
000027d1 5f434d50 
000027d5 45565049 
000027d9 4f495352 
000027dd 57535f4e 
000027e1 4e494d5f 
000027e5 565f524f 
000027e9 49535245 
000027ed 30204e4f 
000027f1 00 
000027f2 01         7710 	.data.b	1
000027f3 46         7711 	.data.b	70
000027f4 5f55434d   7712 	.data.b	77,67,85,95,80,77,67,95,73,80,86,69,82,83,73,79,78,95,83,87,95,80,65,84,67,72,95,86,69,82,83,73,79,78,32,49,0
000027f8 5f434d50 
000027fc 45565049 
00002800 4f495352 
00002804 57535f4e 
00002808 5441505f 
0000280c 565f4843 
00002810 49535245 
00002814 31204e4f 
00002818 00 
00002819 01         7713 	.data.b	1
0000281a 57         7714 	.data.b	87
0000281b 5f565049   7715 	.data.b	73,80,86,95,80,77,67,95,48,48,95,48,48,95,48,49,95,50,48,32,40,48,120,48,48,48,48,48,49,50,48,85,76,41,0
0000281f 5f434d50 
00002823 305f3030 
00002827 31305f30 
0000282b 2030325f 
0000282f 30783028 
00002833 30303030 
00002837 55303231 
0000283b 00294c 
0000283e 01         7716 	.data.b	1
0000283f 58         7717 	.data.b	88
00002840 5f565049   7718 	.data.b	73,80,86,95,80,77,67,95,48,48,95,48,48,95,48,48,95,49,53,32,40,48,120,48,48,48,48,48,48,49,53,85,76,41,0
00002844 5f434d50 
00002848 305f3030 
0000284c 30305f30 
00002850 2035315f 
00002854 30783028 

                                                                      Page 194
                                                              C:\Users\Fengyuan\AppData\Local\Temp\gh_00006b81.s
00002858 30303030 
0000285c 55353130 
00002860 00294c 
00002863 01         7719 	.data.b	1
00002864 59         7720 	.data.b	89
00002865 5f565049   7721 	.data.b	73,80,86,95,80,77,67,95,48,51,95,48,48,95,48,49,95,48,48,32,40,48,120,48,51,48,48,48,49,48,48,85,76,41,0
00002869 5f434d50 
0000286d 305f3330 
00002871 31305f30 
00002875 2030305f 
00002879 30783028 
0000287d 30303033 
00002881 55303031 
00002885 00294c 
00002888 01         7722 	.data.b	1
00002889 5a         7723 	.data.b	90
0000288a 5f565049   7724 	.data.b	73,80,86,95,80,77,67,95,48,49,95,48,48,95,48,50,95,48,53,32,40,48,120,48,49,48,48,48,50,48,53,85,76,41,0
0000288e 5f434d50 
00002892 305f3130 
00002896 32305f30 
0000289a 2035305f 
0000289e 30783028 
000028a2 30303031 
000028a6 55353032 
000028aa 00294c 
000028ad 04         7725 	.data.b	4
000028ae 01         7726 	.data.b	1
000028af 45         7727 	.data.b	69
000028b0 5f474552   7728 	.data.b	82,69,71,95,69,83,89,83,95,80,77,67,95,86,69,78,68,79,82,95,73,68,32,52,51,0
000028b4 53595345 
000028b8 434d505f 
000028bc 4e45565f 
000028c0 5f524f44 
000028c4 34204449 
000028c8 0033 
000028ca 01         7729 	.data.b	1
000028cb 46         7730 	.data.b	70
000028cc 5f474552   7731 	.data.b	82,69,71,95,69,83,89,83,95,80,77,67,95,65,82,95,82,69,76,69,65,83,69,95,77,65,74,79,82,95,86,69,82,83,73,79,78,32,52,0
000028d0 53595345 
000028d4 434d505f 
000028d8 5f52415f 
000028dc 454c4552 
000028e0 5f455341 
000028e4 4f4a414d 
000028e8 45565f52 
000028ec 4f495352 
000028f0 0034204e 
000028f4 01         7732 	.data.b	1
000028f5 47         7733 	.data.b	71
000028f6 5f474552   7734 	.data.b	82,69,71,95,69,83,89,83,95,80,77,67,95,65,82,95,82,69,76,69,65,83,69,95,77,73,78,79,82,95,86,69,82,83,73,79,78,32,50,0
000028fa 53595345 
000028fe 434d505f 
00002902 5f52415f 
00002906 454c4552 
0000290a 5f455341 
0000290e 4f4e494d 
00002912 45565f52 
00002916 4f495352 
0000291a 0032204e 
0000291e 01         7735 	.data.b	1
0000291f 48         7736 	.data.b	72

                                                                      Page 195
                                                              C:\Users\Fengyuan\AppData\Local\Temp\gh_00006b81.s
00002920 5f474552   7737 	.data.b	82,69,71,95,69,83,89,83,95,80,77,67,95,65,82,95,82,69,76,69,65,83,69,95,82,69,86,73,83,73,79,78,95,86,69,82,83,73,79,78,32,50,0
00002924 53595345 
00002928 434d505f 
0000292c 5f52415f 
00002930 454c4552 
00002934 5f455341 
00002938 49564552 
0000293c 4e4f4953 
00002940 5245565f 
00002944 4e4f4953 
00002948 003220 
0000294b 01         7738 	.data.b	1
0000294c 49         7739 	.data.b	73
0000294d 5f474552   7740 	.data.b	82,69,71,95,69,83,89,83,95,80,77,67,95,83,87,95,77,65,74,79,82,95,86,69,82,83,73,79,78,32,49,0
00002951 53595345 
00002955 434d505f 
00002959 5f57535f 
0000295d 4f4a414d 
00002961 45565f52 
00002965 4f495352 
00002969 0031204e 
0000296d 01         7741 	.data.b	1
0000296e 4a         7742 	.data.b	74
0000296f 5f474552   7743 	.data.b	82,69,71,95,69,83,89,83,95,80,77,67,95,83,87,95,77,73,78,79,82,95,86,69,82,83,73,79,78,32,48,0
00002973 53595345 
00002977 434d505f 
0000297b 5f57535f 
0000297f 4f4e494d 
00002983 45565f52 
00002987 4f495352 
0000298b 0030204e 
0000298f 01         7744 	.data.b	1
00002990 4b         7745 	.data.b	75
00002991 5f474552   7746 	.data.b	82,69,71,95,69,83,89,83,95,80,77,67,95,83,87,95,80,65,84,67,72,95,86,69,82,83,73,79,78,32,49,0
00002995 53595345 
00002999 434d505f 
0000299d 5f57535f 
000029a1 43544150 
000029a5 45565f48 
000029a9 4f495352 
000029ad 0031204e 
000029b1 04         7747 	.data.b	4
000029b2 01         7748 	.data.b	1
000029b3 45         7749 	.data.b	69
000029b4 5f55434d   7750 	.data.b	77,67,85,95,80,77,67,95,84,89,80,69,83,95,86,69,78,68,79,82,95,73,68,32,52,51,0
000029b8 5f434d50 
000029bc 45505954 
000029c0 45565f53 
000029c4 524f444e 
000029c8 2044495f 
000029cc 003334 
000029cf 01         7751 	.data.b	1
000029d0 46         7752 	.data.b	70
000029d1 5f55434d   7753 	.data.b	77,67,85,95,80,77,67,95,84,89,80,69,83,95,65,82,95,82,69,76,69,65,83,69,95,77,65,74,79,82,95,86,69,82,83,73,79,78,32,52,0
000029d5 5f434d50 
000029d9 45505954 
000029dd 52415f53 
000029e1 4c45525f 
000029e5 45534145 
000029e9 4a414d5f 
000029ed 565f524f 

                                                                      Page 196
                                                              C:\Users\Fengyuan\AppData\Local\Temp\gh_00006b81.s
000029f1 49535245 
000029f5 34204e4f 
000029f9 00 
000029fa 01         7754 	.data.b	1
000029fb 47         7755 	.data.b	71
000029fc 5f55434d   7756 	.data.b	77,67,85,95,80,77,67,95,84,89,80,69,83,95,65,82,95,82,69,76,69,65,83,69,95,77,73,78,79,82,95,86,69,82,83,73,79,78,32,50,0
00002a00 5f434d50 
00002a04 45505954 
00002a08 52415f53 
00002a0c 4c45525f 
00002a10 45534145 
00002a14 4e494d5f 
00002a18 565f524f 
00002a1c 49535245 
00002a20 32204e4f 
00002a24 00 
00002a25 01         7757 	.data.b	1
00002a26 48         7758 	.data.b	72
00002a27 5f55434d   7759 	.data.b	77,67,85,95,80,77,67,95,84,89,80,69,83,95,65,82,95,82,69,76,69,65,83,69,95,82,69,86,73,83,73,79,78,95,86,69,82,83,73,79,78,32,50,0
00002a2b 5f434d50 
00002a2f 45505954 
00002a33 52415f53 
00002a37 4c45525f 
00002a3b 45534145 
00002a3f 5645525f 
00002a43 4f495349 
00002a47 45565f4e 
00002a4b 4f495352 
00002a4f 0032204e 
00002a53 01         7760 	.data.b	1
00002a54 49         7761 	.data.b	73
00002a55 5f55434d   7762 	.data.b	77,67,85,95,80,77,67,95,84,89,80,69,83,95,83,87,95,77,65,74,79,82,95,86,69,82,83,73,79,78,32,49,0
00002a59 5f434d50 
00002a5d 45505954 
00002a61 57535f53 
00002a65 4a414d5f 
00002a69 565f524f 
00002a6d 49535245 
00002a71 31204e4f 
00002a75 00 
00002a76 01         7763 	.data.b	1
00002a77 4a         7764 	.data.b	74
00002a78 5f55434d   7765 	.data.b	77,67,85,95,80,77,67,95,84,89,80,69,83,95,83,87,95,77,73,78,79,82,95,86,69,82,83,73,79,78,32,48,0
00002a7c 5f434d50 
00002a80 45505954 
00002a84 57535f53 
00002a88 4e494d5f 
00002a8c 565f524f 
00002a90 49535245 
00002a94 30204e4f 
00002a98 00 
00002a99 01         7766 	.data.b	1
00002a9a 4b         7767 	.data.b	75
00002a9b 5f55434d   7768 	.data.b	77,67,85,95,80,77,67,95,84,89,80,69,83,95,83,87,95,80,65,84,67,72,95,86,69,82,83,73,79,78,32,49,0
00002a9f 5f434d50 
00002aa3 45505954 
00002aa7 57535f53 
00002aab 5441505f 
00002aaf 565f4843 
00002ab3 49535245 
00002ab7 31204e4f 

                                                                      Page 197
                                                              C:\Users\Fengyuan\AppData\Local\Temp\gh_00006b81.s
00002abb 00 
00002abc 04         7769 	.data.b	4
00002abd 03         7770 	.data.b	3
00002abe 3a         7771 	.data.b	58
00002abf 31         7772 	.data.b	49
00002ac0 01         7773 	.data.b	1
00002ac1 3f         7774 	.data.b	63
00002ac2 5f55434d   7775 	.data.b	77,67,85,95,82,67,77,95,84,89,80,69,83,95,86,69,78,68,79,82,95,73,68,32,52,51,0
00002ac6 5f4d4352 
00002aca 45505954 
00002ace 45565f53 
00002ad2 524f444e 
00002ad6 2044495f 
00002ada 003334 
00002add 01         7776 	.data.b	1
00002ade 40         7777 	.data.b	64
00002adf 5f55434d   7778 	.data.b	77,67,85,95,82,67,77,95,84,89,80,69,83,95,65,82,95,82,69,76,69,65,83,69,95,77,65,74,79,82,95,86,69,82,83,73,79,78,32,52,0
00002ae3 5f4d4352 
00002ae7 45505954 
00002aeb 52415f53 
00002aef 4c45525f 
00002af3 45534145 
00002af7 4a414d5f 
00002afb 565f524f 
00002aff 49535245 
00002b03 34204e4f 
00002b07 00 
00002b08 01         7779 	.data.b	1
00002b09 41         7780 	.data.b	65
00002b0a 5f55434d   7781 	.data.b	77,67,85,95,82,67,77,95,84,89,80,69,83,95,65,82,95,82,69,76,69,65,83,69,95,77,73,78,79,82,95,86,69,82,83,73,79,78,32,50,0
00002b0e 5f4d4352 
00002b12 45505954 
00002b16 52415f53 
00002b1a 4c45525f 
00002b1e 45534145 
00002b22 4e494d5f 
00002b26 565f524f 
00002b2a 49535245 
00002b2e 32204e4f 
00002b32 00 
00002b33 01         7782 	.data.b	1
00002b34 42         7783 	.data.b	66
00002b35 5f55434d   7784 	.data.b	77,67,85,95,82,67,77,95,84,89,80,69,83,95,65,82,95,82,69,76,69,65,83,69,95,82,69,86,73,83,73,79,78,95,86,69,82,83,73,79,78,32,50,0
00002b39 5f4d4352 
00002b3d 45505954 
00002b41 52415f53 
00002b45 4c45525f 
00002b49 45534145 
00002b4d 5645525f 
00002b51 4f495349 
00002b55 45565f4e 
00002b59 4f495352 
00002b5d 0032204e 
00002b61 01         7785 	.data.b	1
00002b62 43         7786 	.data.b	67
00002b63 5f55434d   7787 	.data.b	77,67,85,95,82,67,77,95,84,89,80,69,83,95,83,87,95,77,65,74,79,82,95,86,69,82,83,73,79,78,32,49,0
00002b67 5f4d4352 
00002b6b 45505954 
00002b6f 57535f53 
00002b73 4a414d5f 
00002b77 565f524f 

                                                                      Page 198
                                                              C:\Users\Fengyuan\AppData\Local\Temp\gh_00006b81.s
00002b7b 49535245 
00002b7f 31204e4f 
00002b83 00 
00002b84 01         7788 	.data.b	1
00002b85 44         7789 	.data.b	68
00002b86 5f55434d   7790 	.data.b	77,67,85,95,82,67,77,95,84,89,80,69,83,95,83,87,95,77,73,78,79,82,95,86,69,82,83,73,79,78,32,48,0
00002b8a 5f4d4352 
00002b8e 45505954 
00002b92 57535f53 
00002b96 4e494d5f 
00002b9a 565f524f 
00002b9e 49535245 
00002ba2 30204e4f 
00002ba6 00 
00002ba7 01         7791 	.data.b	1
00002ba8 45         7792 	.data.b	69
00002ba9 5f55434d   7793 	.data.b	77,67,85,95,82,67,77,95,84,89,80,69,83,95,83,87,95,80,65,84,67,72,95,86,69,82,83,73,79,78,32,49,0
00002bad 5f4d4352 
00002bb1 45505954 
00002bb5 57535f53 
00002bb9 5441505f 
00002bbd 565f4843 
00002bc1 49535245 
00002bc5 31204e4f 
00002bc9 00 
00002bca 04         7794 	.data.b	4
00002bcb 03         7795 	.data.b	3
00002bcc 3b         7796 	.data.b	59
00002bcd 32         7797 	.data.b	50
00002bce 01         7798 	.data.b	1
00002bcf 3f         7799 	.data.b	63
00002bd0 5f55434d   7800 	.data.b	77,67,85,95,83,67,71,95,84,89,80,69,83,95,86,69,78,68,79,82,95,73,68,32,52,51,0
00002bd4 5f474353 
00002bd8 45505954 
00002bdc 45565f53 
00002be0 524f444e 
00002be4 2044495f 
00002be8 003334 
00002beb 01         7801 	.data.b	1
00002bec 40         7802 	.data.b	64
00002bed 5f55434d   7803 	.data.b	77,67,85,95,83,67,71,95,84,89,80,69,83,95,65,82,95,82,69,76,69,65,83,69,95,77,65,74,79,82,95,86,69,82,83,73,79,78,32,52,0
00002bf1 5f474353 
00002bf5 45505954 
00002bf9 52415f53 
00002bfd 4c45525f 
00002c01 45534145 
00002c05 4a414d5f 
00002c09 565f524f 
00002c0d 49535245 
00002c11 34204e4f 
00002c15 00 
00002c16 01         7804 	.data.b	1
00002c17 41         7805 	.data.b	65
00002c18 5f55434d   7806 	.data.b	77,67,85,95,83,67,71,95,84,89,80,69,83,95,65,82,95,82,69,76,69,65,83,69,95,77,73,78,79,82,95,86,69,82,83,73,79,78,32,50,0
00002c1c 5f474353 
00002c20 45505954 
00002c24 52415f53 
00002c28 4c45525f 
00002c2c 45534145 
00002c30 4e494d5f 
00002c34 565f524f 

                                                                      Page 199
                                                              C:\Users\Fengyuan\AppData\Local\Temp\gh_00006b81.s
00002c38 49535245 
00002c3c 32204e4f 
00002c40 00 
00002c41 01         7807 	.data.b	1
00002c42 42         7808 	.data.b	66
00002c43 5f55434d   7809 	.data.b	77,67,85,95,83,67,71,95,84,89,80,69,83,95,65,82,95,82,69,76,69,65,83,69,95,82,69,86,73,83,73,79,78,95,86,69,82,83,73,79,78,32,50,0
00002c47 5f474353 
00002c4b 45505954 
00002c4f 52415f53 
00002c53 4c45525f 
00002c57 45534145 
00002c5b 5645525f 
00002c5f 4f495349 
00002c63 45565f4e 
00002c67 4f495352 
00002c6b 0032204e 
00002c6f 01         7810 	.data.b	1
00002c70 43         7811 	.data.b	67
00002c71 5f55434d   7812 	.data.b	77,67,85,95,83,67,71,95,84,89,80,69,83,95,83,87,95,77,65,74,79,82,95,86,69,82,83,73,79,78,32,49,0
00002c75 5f474353 
00002c79 45505954 
00002c7d 57535f53 
00002c81 4a414d5f 
00002c85 565f524f 
00002c89 49535245 
00002c8d 31204e4f 
00002c91 00 
00002c92 01         7813 	.data.b	1
00002c93 44         7814 	.data.b	68
00002c94 5f55434d   7815 	.data.b	77,67,85,95,83,67,71,95,84,89,80,69,83,95,83,87,95,77,73,78,79,82,95,86,69,82,83,73,79,78,32,48,0
00002c98 5f474353 
00002c9c 45505954 
00002ca0 57535f53 
00002ca4 4e494d5f 
00002ca8 565f524f 
00002cac 49535245 
00002cb0 30204e4f 
00002cb4 00 
00002cb5 01         7816 	.data.b	1
00002cb6 45         7817 	.data.b	69
00002cb7 5f55434d   7818 	.data.b	77,67,85,95,83,67,71,95,84,89,80,69,83,95,83,87,95,80,65,84,67,72,95,86,69,82,83,73,79,78,32,49,0
00002cbb 5f474353 
00002cbf 45505954 
00002cc3 57535f53 
00002cc7 5441505f 
00002ccb 565f4843 
00002ccf 49535245 
00002cd3 31204e4f 
00002cd7 00 
00002cd8 04         7819 	.data.b	4
00002cd9 03         7820 	.data.b	3
00002cda 3c         7821 	.data.b	60
00002cdb 33         7822 	.data.b	51
00002cdc 01         7823 	.data.b	1
00002cdd 3f         7824 	.data.b	63
00002cde 5f55434d   7825 	.data.b	77,67,85,95,83,73,77,95,84,89,80,69,83,95,86,69,78,68,79,82,95,73,68,32,52,51,0
00002ce2 5f4d4953 
00002ce6 45505954 
00002cea 45565f53 
00002cee 524f444e 
00002cf2 2044495f 

                                                                      Page 200
                                                              C:\Users\Fengyuan\AppData\Local\Temp\gh_00006b81.s
00002cf6 003334 
00002cf9 01         7826 	.data.b	1
00002cfa 40         7827 	.data.b	64
00002cfb 5f55434d   7828 	.data.b	77,67,85,95,83,73,77,95,84,89,80,69,83,95,65,82,95,82,69,76,69,65,83,69,95,77,65,74,79,82,95,86,69,82,83,73,79,78,32,52,0
00002cff 5f4d4953 
00002d03 45505954 
00002d07 52415f53 
00002d0b 4c45525f 
00002d0f 45534145 
00002d13 4a414d5f 
00002d17 565f524f 
00002d1b 49535245 
00002d1f 34204e4f 
00002d23 00 
00002d24 01         7829 	.data.b	1
00002d25 41         7830 	.data.b	65
00002d26 5f55434d   7831 	.data.b	77,67,85,95,83,73,77,95,84,89,80,69,83,95,65,82,95,82,69,76,69,65,83,69,95,77,73,78,79,82,95,86,69,82,83,73,79,78,32,50,0
00002d2a 5f4d4953 
00002d2e 45505954 
00002d32 52415f53 
00002d36 4c45525f 
00002d3a 45534145 
00002d3e 4e494d5f 
00002d42 565f524f 
00002d46 49535245 
00002d4a 32204e4f 
00002d4e 00 
00002d4f 01         7832 	.data.b	1
00002d50 42         7833 	.data.b	66
00002d51 5f55434d   7834 	.data.b	77,67,85,95,83,73,77,95,84,89,80,69,83,95,65,82,95,82,69,76,69,65,83,69,95,82,69,86,73,83,73,79,78,95,86,69,82,83,73,79,78,32,50,0
00002d55 5f4d4953 
00002d59 45505954 
00002d5d 52415f53 
00002d61 4c45525f 
00002d65 45534145 
00002d69 5645525f 
00002d6d 4f495349 
00002d71 45565f4e 
00002d75 4f495352 
00002d79 0032204e 
00002d7d 01         7835 	.data.b	1
00002d7e 43         7836 	.data.b	67
00002d7f 5f55434d   7837 	.data.b	77,67,85,95,83,73,77,95,84,89,80,69,83,95,83,87,95,77,65,74,79,82,95,86,69,82,83,73,79,78,32,49,0
00002d83 5f4d4953 
00002d87 45505954 
00002d8b 57535f53 
00002d8f 4a414d5f 
00002d93 565f524f 
00002d97 49535245 
00002d9b 31204e4f 
00002d9f 00 
00002da0 01         7838 	.data.b	1
00002da1 44         7839 	.data.b	68
00002da2 5f55434d   7840 	.data.b	77,67,85,95,83,73,77,95,84,89,80,69,83,95,83,87,95,77,73,78,79,82,95,86,69,82,83,73,79,78,32,48,0
00002da6 5f4d4953 
00002daa 45505954 
00002dae 57535f53 
00002db2 4e494d5f 
00002db6 565f524f 
00002dba 49535245 
00002dbe 30204e4f 

                                                                      Page 201
                                                              C:\Users\Fengyuan\AppData\Local\Temp\gh_00006b81.s
00002dc2 00 
00002dc3 01         7841 	.data.b	1
00002dc4 45         7842 	.data.b	69
00002dc5 5f55434d   7843 	.data.b	77,67,85,95,83,73,77,95,84,89,80,69,83,95,83,87,95,80,65,84,67,72,95,86,69,82,83,73,79,78,32,49,0
00002dc9 5f4d4953 
00002dcd 45505954 
00002dd1 57535f53 
00002dd5 5441505f 
00002dd9 565f4843 
00002ddd 49535245 
00002de1 31204e4f 
00002de5 00 
00002de6 04         7844 	.data.b	4
00002de7 03         7845 	.data.b	3
00002de8 3d         7846 	.data.b	61
00002de9 34         7847 	.data.b	52
00002dea 01         7848 	.data.b	1
00002deb 3f         7849 	.data.b	63
00002dec 5f55434d   7850 	.data.b	77,67,85,95,83,77,67,95,84,89,80,69,83,95,86,69,78,68,79,82,95,73,68,32,52,51,0
00002df0 5f434d53 
00002df4 45505954 
00002df8 45565f53 
00002dfc 524f444e 
00002e00 2044495f 
00002e04 003334 
00002e07 01         7851 	.data.b	1
00002e08 40         7852 	.data.b	64
00002e09 5f55434d   7853 	.data.b	77,67,85,95,83,77,67,95,84,89,80,69,83,95,65,82,95,82,69,76,69,65,83,69,95,77,65,74,79,82,95,86,69,82,83,73,79,78,32,52,0
00002e0d 5f434d53 
00002e11 45505954 
00002e15 52415f53 
00002e19 4c45525f 
00002e1d 45534145 
00002e21 4a414d5f 
00002e25 565f524f 
00002e29 49535245 
00002e2d 34204e4f 
00002e31 00 
00002e32 01         7854 	.data.b	1
00002e33 41         7855 	.data.b	65
00002e34 5f55434d   7856 	.data.b	77,67,85,95,83,77,67,95,84,89,80,69,83,95,65,82,95,82,69,76,69,65,83,69,95,77,73,78,79,82,95,86,69,82,83,73,79,78,32,50,0
00002e38 5f434d53 
00002e3c 45505954 
00002e40 52415f53 
00002e44 4c45525f 
00002e48 45534145 
00002e4c 4e494d5f 
00002e50 565f524f 
00002e54 49535245 
00002e58 32204e4f 
00002e5c 00 
00002e5d 01         7857 	.data.b	1
00002e5e 42         7858 	.data.b	66
00002e5f 5f55434d   7859 	.data.b	77,67,85,95,83,77,67,95,84,89,80,69,83,95,65,82,95,82,69,76,69,65,83,69,95,82,69,86,73,83,73,79,78,95,86,69,82,83,73,79,78,32,50,0
00002e63 5f434d53 
00002e67 45505954 
00002e6b 52415f53 
00002e6f 4c45525f 
00002e73 45534145 
00002e77 5645525f 
00002e7b 4f495349 

                                                                      Page 202
                                                              C:\Users\Fengyuan\AppData\Local\Temp\gh_00006b81.s
00002e7f 45565f4e 
00002e83 4f495352 
00002e87 0032204e 
00002e8b 01         7860 	.data.b	1
00002e8c 43         7861 	.data.b	67
00002e8d 5f55434d   7862 	.data.b	77,67,85,95,83,77,67,95,84,89,80,69,83,95,83,87,95,77,65,74,79,82,95,86,69,82,83,73,79,78,32,49,0
00002e91 5f434d53 
00002e95 45505954 
00002e99 57535f53 
00002e9d 4a414d5f 
00002ea1 565f524f 
00002ea5 49535245 
00002ea9 31204e4f 
00002ead 00 
00002eae 01         7863 	.data.b	1
00002eaf 44         7864 	.data.b	68
00002eb0 5f55434d   7865 	.data.b	77,67,85,95,83,77,67,95,84,89,80,69,83,95,83,87,95,77,73,78,79,82,95,86,69,82,83,73,79,78,32,48,0
00002eb4 5f434d53 
00002eb8 45505954 
00002ebc 57535f53 
00002ec0 4e494d5f 
00002ec4 565f524f 
00002ec8 49535245 
00002ecc 30204e4f 
00002ed0 00 
00002ed1 01         7866 	.data.b	1
00002ed2 45         7867 	.data.b	69
00002ed3 5f55434d   7868 	.data.b	77,67,85,95,83,77,67,95,84,89,80,69,83,95,83,87,95,80,65,84,67,72,95,86,69,82,83,73,79,78,32,49,0
00002ed7 5f434d53 
00002edb 45505954 
00002edf 57535f53 
00002ee3 5441505f 
00002ee7 565f4843 
00002eeb 49535245 
00002eef 31204e4f 
00002ef3 00 
00002ef4 04         7869 	.data.b	4
00002ef5 03         7870 	.data.b	3
00002ef6 3e         7871 	.data.b	62
00002ef7 35         7872 	.data.b	53
00002ef8 03         7873 	.data.b	3
00002ef9 40         7874 	.data.b	64
00002efa 36         7875 	.data.b	54
00002efb 03         7876 	.data.b	3
00002efc 3f         7877 	.data.b	63
00002efd 37         7878 	.data.b	55
00002efe 01         7879 	.data.b	1
00002eff 58         7880 	.data.b	88
00002f00 5f565049   7881 	.data.b	73,80,86,95,67,77,85,95,48,48,95,48,48,95,48,48,95,48,49,32,40,48,120,48,48,48,48,48,48,48,49,85,41,0
00002f04 5f554d43 
00002f08 305f3030 
00002f0c 30305f30 
00002f10 2031305f 
00002f14 30783028 
00002f18 30303030 
00002f1c 55313030 
00002f20 0029 
00002f22 04         7882 	.data.b	4
00002f23 01         7883 	.data.b	1
00002f24 44         7884 	.data.b	68
00002f25 5f474552   7885 	.data.b	82,69,71,95,69,83,89,83,95,67,77,85,95,86,69,78,68,79,82,95,73,68,32,52,51,0

                                                                      Page 203
                                                              C:\Users\Fengyuan\AppData\Local\Temp\gh_00006b81.s
00002f29 53595345 
00002f2d 554d435f 
00002f31 4e45565f 
00002f35 5f524f44 
00002f39 34204449 
00002f3d 0033 
00002f3f 01         7886 	.data.b	1
00002f40 45         7887 	.data.b	69
00002f41 5f474552   7888 	.data.b	82,69,71,95,69,83,89,83,95,67,77,85,95,65,82,95,82,69,76,69,65,83,69,95,77,65,74,79,82,95,86,69,82,83,73,79,78,32,52,0
00002f45 53595345 
00002f49 554d435f 
00002f4d 5f52415f 
00002f51 454c4552 
00002f55 5f455341 
00002f59 4f4a414d 
00002f5d 45565f52 
00002f61 4f495352 
00002f65 0034204e 
00002f69 01         7889 	.data.b	1
00002f6a 46         7890 	.data.b	70
00002f6b 5f474552   7891 	.data.b	82,69,71,95,69,83,89,83,95,67,77,85,95,65,82,95,82,69,76,69,65,83,69,95,77,73,78,79,82,95,86,69,82,83,73,79,78,32,50,0
00002f6f 53595345 
00002f73 554d435f 
00002f77 5f52415f 
00002f7b 454c4552 
00002f7f 5f455341 
00002f83 4f4e494d 
00002f87 45565f52 
00002f8b 4f495352 
00002f8f 0032204e 
00002f93 01         7892 	.data.b	1
00002f94 47         7893 	.data.b	71
00002f95 5f474552   7894 	.data.b	82,69,71,95,69,83,89,83,95,67,77,85,95,65,82,95,82,69,76,69,65,83,69,95,82,69,86,73,83,73,79,78,95,86,69,82,83,73,79,78,32,50,0
00002f99 53595345 
00002f9d 554d435f 
00002fa1 5f52415f 
00002fa5 454c4552 
00002fa9 5f455341 
00002fad 49564552 
00002fb1 4e4f4953 
00002fb5 5245565f 
00002fb9 4e4f4953 
00002fbd 003220 
00002fc0 01         7895 	.data.b	1
00002fc1 48         7896 	.data.b	72
00002fc2 5f474552   7897 	.data.b	82,69,71,95,69,83,89,83,95,67,77,85,95,83,87,95,77,65,74,79,82,95,86,69,82,83,73,79,78,32,49,0
00002fc6 53595345 
00002fca 554d435f 
00002fce 5f57535f 
00002fd2 4f4a414d 
00002fd6 45565f52 
00002fda 4f495352 
00002fde 0031204e 
00002fe2 01         7898 	.data.b	1
00002fe3 49         7899 	.data.b	73
00002fe4 5f474552   7900 	.data.b	82,69,71,95,69,83,89,83,95,67,77,85,95,83,87,95,77,73,78,79,82,95,86,69,82,83,73,79,78,32,48,0
00002fe8 53595345 
00002fec 554d435f 
00002ff0 5f57535f 
00002ff4 4f4e494d 
00002ff8 45565f52 

                                                                      Page 204
                                                              C:\Users\Fengyuan\AppData\Local\Temp\gh_00006b81.s
00002ffc 4f495352 
00003000 0030204e 
00003004 01         7901 	.data.b	1
00003005 4a         7902 	.data.b	74
00003006 5f474552   7903 	.data.b	82,69,71,95,69,83,89,83,95,67,77,85,95,83,87,95,80,65,84,67,72,95,86,69,82,83,73,79,78,32,49,0
0000300a 53595345 
0000300e 554d435f 
00003012 5f57535f 
00003016 43544150 
0000301a 45565f48 
0000301e 4f495352 
00003022 0031204e 
00003026 04         7904 	.data.b	4
00003027 01         7905 	.data.b	1
00003028 45         7906 	.data.b	69
00003029 5f55434d   7907 	.data.b	77,67,85,95,67,77,85,95,84,89,80,69,83,95,86,69,78,68,79,82,95,73,68,32,52,51,0
0000302d 5f554d43 
00003031 45505954 
00003035 45565f53 
00003039 524f444e 
0000303d 2044495f 
00003041 003334 
00003044 01         7908 	.data.b	1
00003045 46         7909 	.data.b	70
00003046 5f55434d   7910 	.data.b	77,67,85,95,67,77,85,95,84,89,80,69,83,95,65,82,95,82,69,76,69,65,83,69,95,77,65,74,79,82,95,86,69,82,83,73,79,78,32,52,0
0000304a 5f554d43 
0000304e 45505954 
00003052 52415f53 
00003056 4c45525f 
0000305a 45534145 
0000305e 4a414d5f 
00003062 565f524f 
00003066 49535245 
0000306a 34204e4f 
0000306e 00 
0000306f 01         7911 	.data.b	1
00003070 47         7912 	.data.b	71
00003071 5f55434d   7913 	.data.b	77,67,85,95,67,77,85,95,84,89,80,69,83,95,65,82,95,82,69,76,69,65,83,69,95,77,73,78,79,82,95,86,69,82,83,73,79,78,32,50,0
00003075 5f554d43 
00003079 45505954 
0000307d 52415f53 
00003081 4c45525f 
00003085 45534145 
00003089 4e494d5f 
0000308d 565f524f 
00003091 49535245 
00003095 32204e4f 
00003099 00 
0000309a 01         7914 	.data.b	1
0000309b 48         7915 	.data.b	72
0000309c 5f55434d   7916 	.data.b	77,67,85,95,67,77,85,95,84,89,80,69,83,95,65,82,95,82,69,76,69,65,83,69,95,82,69,86,73,83,73,79,78,95,86,69,82,83,73,79,78,32,50,0
000030a0 5f554d43 
000030a4 45505954 
000030a8 52415f53 
000030ac 4c45525f 
000030b0 45534145 
000030b4 5645525f 
000030b8 4f495349 
000030bc 45565f4e 
000030c0 4f495352 
000030c4 0032204e 

                                                                      Page 205
                                                              C:\Users\Fengyuan\AppData\Local\Temp\gh_00006b81.s
000030c8 01         7917 	.data.b	1
000030c9 49         7918 	.data.b	73
000030ca 5f55434d   7919 	.data.b	77,67,85,95,67,77,85,95,84,89,80,69,83,95,83,87,95,77,65,74,79,82,95,86,69,82,83,73,79,78,32,49,0
000030ce 5f554d43 
000030d2 45505954 
000030d6 57535f53 
000030da 4a414d5f 
000030de 565f524f 
000030e2 49535245 
000030e6 31204e4f 
000030ea 00 
000030eb 01         7920 	.data.b	1
000030ec 4a         7921 	.data.b	74
000030ed 5f55434d   7922 	.data.b	77,67,85,95,67,77,85,95,84,89,80,69,83,95,83,87,95,77,73,78,79,82,95,86,69,82,83,73,79,78,32,48,0
000030f1 5f554d43 
000030f5 45505954 
000030f9 57535f53 
000030fd 4e494d5f 
00003101 565f524f 
00003105 49535245 
00003109 30204e4f 
0000310d 00 
0000310e 01         7923 	.data.b	1
0000310f 4b         7924 	.data.b	75
00003110 5f55434d   7925 	.data.b	77,67,85,95,67,77,85,95,84,89,80,69,83,95,83,87,95,80,65,84,67,72,95,86,69,82,83,73,79,78,32,49,0
00003114 5f554d43 
00003118 45505954 
0000311c 57535f53 
00003120 5441505f 
00003124 565f4843 
00003128 49535245 
0000312c 31204e4f 
00003130 00 
00003131 04         7926 	.data.b	4
00003132 01         7927 	.data.b	1
00003133 44         7928 	.data.b	68
00003134 5f55434d   7929 	.data.b	77,67,85,95,73,80,87,95,84,89,80,69,83,95,86,69,78,68,79,82,95,73,68,32,52,51,0
00003138 5f575049 
0000313c 45505954 
00003140 45565f53 
00003144 524f444e 
00003148 2044495f 
0000314c 003334 
0000314f 01         7930 	.data.b	1
00003150 45         7931 	.data.b	69
00003151 5f55434d   7932 	.data.b	77,67,85,95,73,80,87,95,84,89,80,69,83,95,65,82,95,82,69,76,69,65,83,69,95,77,65,74,79,82,95,86,69,82,83,73,79,78,32,52,0
00003155 5f575049 
00003159 45505954 
0000315d 52415f53 
00003161 4c45525f 
00003165 45534145 
00003169 4a414d5f 
0000316d 565f524f 
00003171 49535245 
00003175 34204e4f 
00003179 00 
0000317a 01         7933 	.data.b	1
0000317b 46         7934 	.data.b	70
0000317c 5f55434d   7935 	.data.b	77,67,85,95,73,80,87,95,84,89,80,69,83,95,65,82,95,82,69,76,69,65,83,69,95,77,73,78,79,82,95,86,69,82,83,73,79,78,32,50,0
00003180 5f575049 
00003184 45505954 

                                                                      Page 206
                                                              C:\Users\Fengyuan\AppData\Local\Temp\gh_00006b81.s
00003188 52415f53 
0000318c 4c45525f 
00003190 45534145 
00003194 4e494d5f 
00003198 565f524f 
0000319c 49535245 
000031a0 32204e4f 
000031a4 00 
000031a5 01         7936 	.data.b	1
000031a6 47         7937 	.data.b	71
000031a7 5f55434d   7938 	.data.b	77,67,85,95,73,80,87,95,84,89,80,69,83,95,65,82,95,82,69,76,69,65,83,69,95,82,69,86,73,83,73,79,78,95,86,69,82,83,73,79,78,32,50,0
000031ab 5f575049 
000031af 45505954 
000031b3 52415f53 
000031b7 4c45525f 
000031bb 45534145 
000031bf 5645525f 
000031c3 4f495349 
000031c7 45565f4e 
000031cb 4f495352 
000031cf 0032204e 
000031d3 01         7939 	.data.b	1
000031d4 48         7940 	.data.b	72
000031d5 5f55434d   7941 	.data.b	77,67,85,95,73,80,87,95,84,89,80,69,83,95,83,87,95,77,65,74,79,82,95,86,69,82,83,73,79,78,32,49,0
000031d9 5f575049 
000031dd 45505954 
000031e1 57535f53 
000031e5 4a414d5f 
000031e9 565f524f 
000031ed 49535245 
000031f1 31204e4f 
000031f5 00 
000031f6 01         7942 	.data.b	1
000031f7 49         7943 	.data.b	73
000031f8 5f55434d   7944 	.data.b	77,67,85,95,73,80,87,95,84,89,80,69,83,95,83,87,95,77,73,78,79,82,95,86,69,82,83,73,79,78,32,48,0
000031fc 5f575049 
00003200 45505954 
00003204 57535f53 
00003208 4e494d5f 
0000320c 565f524f 
00003210 49535245 
00003214 30204e4f 
00003218 00 
00003219 01         7945 	.data.b	1
0000321a 4a         7946 	.data.b	74
0000321b 5f55434d   7947 	.data.b	77,67,85,95,73,80,87,95,84,89,80,69,83,95,83,87,95,80,65,84,67,72,95,86,69,82,83,73,79,78,32,49,0
0000321f 5f575049 
00003223 45505954 
00003227 57535f53 
0000322b 5441505f 
0000322f 565f4843 
00003233 49535245 
00003237 31204e4f 
0000323b 00 
0000323c 04         7948 	.data.b	4
0000323d 01         7949 	.data.b	1
0000323e 4f         7950 	.data.b	79
0000323f 5f55434d   7951 	.data.b	77,67,85,95,86,69,78,68,79,82,95,73,68,32,52,51,0
00003243 444e4556 
00003247 495f524f 
0000324b 33342044 

                                                                      Page 207
                                                              C:\Users\Fengyuan\AppData\Local\Temp\gh_00006b81.s
0000324f 00 
00003250 01         7952 	.data.b	1
00003251 50         7953 	.data.b	80
00003252 5f55434d   7954 	.data.b	77,67,85,95,65,82,95,82,69,76,69,65,83,69,95,77,65,74,79,82,95,86,69,82,83,73,79,78,32,52,0
00003256 525f5241 
0000325a 41454c45 
0000325e 4d5f4553 
00003262 524f4a41 
00003266 5245565f 
0000326a 4e4f4953 
0000326e 003420 
00003271 01         7955 	.data.b	1
00003272 51         7956 	.data.b	81
00003273 5f55434d   7957 	.data.b	77,67,85,95,65,82,95,82,69,76,69,65,83,69,95,77,73,78,79,82,95,86,69,82,83,73,79,78,32,50,0
00003277 525f5241 
0000327b 41454c45 
0000327f 4d5f4553 
00003283 524f4e49 
00003287 5245565f 
0000328b 4e4f4953 
0000328f 003220 
00003292 01         7958 	.data.b	1
00003293 52         7959 	.data.b	82
00003294 5f55434d   7960 	.data.b	77,67,85,95,65,82,95,82,69,76,69,65,83,69,95,82,69,86,73,83,73,79,78,95,86,69,82,83,73,79,78,32,50,0
00003298 525f5241 
0000329c 41454c45 
000032a0 525f4553 
000032a4 53495645 
000032a8 5f4e4f49 
000032ac 53524556 
000032b0 204e4f49 
000032b4 0032 
000032b6 01         7961 	.data.b	1
000032b7 53         7962 	.data.b	83
000032b8 5f55434d   7963 	.data.b	77,67,85,95,83,87,95,77,65,74,79,82,95,86,69,82,83,73,79,78,32,49,0
000032bc 4d5f5753 
000032c0 524f4a41 
000032c4 5245565f 
000032c8 4e4f4953 
000032cc 003120 
000032cf 01         7964 	.data.b	1
000032d0 54         7965 	.data.b	84
000032d1 5f55434d   7966 	.data.b	77,67,85,95,83,87,95,77,73,78,79,82,95,86,69,82,83,73,79,78,32,48,0
000032d5 4d5f5753 
000032d9 524f4e49 
000032dd 5245565f 
000032e1 4e4f4953 
000032e5 003020 
000032e8 01         7967 	.data.b	1
000032e9 55         7968 	.data.b	85
000032ea 5f55434d   7969 	.data.b	77,67,85,95,83,87,95,80,65,84,67,72,95,86,69,82,83,73,79,78,32,49,0
000032ee 505f5753 
000032f2 48435441 
000032f6 5245565f 
000032fa 4e4f4953 
000032fe 003120 
00003301 03         7970 	.data.b	3
00003302 01e5       7971 	.data.b	229,1
00003304 38         7972 	.data.b	56
00003305 03         7973 	.data.b	3
00003306 01         7974 	.data.b	1

                                                                      Page 208
                                                              C:\Users\Fengyuan\AppData\Local\Temp\gh_00006b81.s
00003307 15         7975 	.data.b	21
00003308 04         7976 	.data.b	4
00003309 04         7977 	.data.b	4
0000330a 03         7978 	.data.b	3
0000330b 01ee       7979 	.data.b	238,1
0000330d 38         7980 	.data.b	56
0000330e 03         7981 	.data.b	3
0000330f 01         7982 	.data.b	1
00003310 15         7983 	.data.b	21
00003311 04         7984 	.data.b	4
00003312 04         7985 	.data.b	4
00003313 03         7986 	.data.b	3
00003314 01f3       7987 	.data.b	243,1
00003316 38         7988 	.data.b	56
00003317 03         7989 	.data.b	3
00003318 01         7990 	.data.b	1
00003319 15         7991 	.data.b	21
0000331a 04         7992 	.data.b	4
0000331b 04         7993 	.data.b	4
0000331c 03         7994 	.data.b	3
0000331d 01ff       7995 	.data.b	255,1
0000331f 38         7996 	.data.b	56
00003320 03         7997 	.data.b	3
00003321 01         7998 	.data.b	1
00003322 15         7999 	.data.b	21
00003323 04         8000 	.data.b	4
00003324 04         8001 	.data.b	4
00003325 03         8002 	.data.b	3
00003326 0286       8003 	.data.b	134,2
00003328 38         8004 	.data.b	56
00003329 03         8005 	.data.b	3
0000332a 01         8006 	.data.b	1
0000332b 15         8007 	.data.b	21
0000332c 04         8008 	.data.b	4
0000332d 04         8009 	.data.b	4
0000332e 03         8010 	.data.b	3
0000332f 02e3       8011 	.data.b	227,2
00003331 38         8012 	.data.b	56
00003332 03         8013 	.data.b	3
00003333 01         8014 	.data.b	1
00003334 15         8015 	.data.b	21
00003335 04         8016 	.data.b	4
00003336 04         8017 	.data.b	4
00003337 04         8018 	.data.b	4
00003338 03         8019 	.data.b	3
00003339 2f         8020 	.data.b	47
0000333a 39         8021 	.data.b	57
0000333b 03         8022 	.data.b	3
0000333c 4e         8023 	.data.b	78
0000333d 3a         8024 	.data.b	58
0000333e 01         8025 	.data.b	1
0000333f 2b         8026 	.data.b	43
00003340 5f544544   8027 	.data.b	68,69,84,95,69,78,65,66,76,69,68,32,83,84,68,95,79,78,0
00003344 42414e45 
00003348 2044454c 
0000334c 5f445453 
00003350 004e4f 
00003353 01         8028 	.data.b	1
00003354 2c         8029 	.data.b	44
00003355 5f544544   8030 	.data.b	68,69,84,95,86,69,82,83,73,79,78,95,73,78,70,79,95,65,80,73,32,83,84,68,95,79,70,70,0
00003359 53524556 

                                                                      Page 209
                                                              C:\Users\Fengyuan\AppData\Local\Temp\gh_00006b81.s
0000335d 5f4e4f49 
00003361 4f464e49 
00003365 4950415f 
00003369 44545320 
0000336d 46464f5f 
00003371 00 
00003372 01         8031 	.data.b	1
00003373 2d         8032 	.data.b	45
00003374 5f544544   8033 	.data.b	68,69,84,95,68,69,66,85,71,95,69,78,65,66,76,69,68,32,83,84,68,95,79,70,70,0
00003378 55424544 
0000337c 4e455f47 
00003380 454c4241 
00003384 54532044 
00003388 464f5f44 
0000338c 0046 
0000338e 03         8034 	.data.b	3
0000338f 0288       8035 	.data.b	136,2
00003391 15         8036 	.data.b	21
00003392 04         8037 	.data.b	4
00003393 03         8038 	.data.b	3
00003394 028e       8039 	.data.b	142,2
00003396 15         8040 	.data.b	21
00003397 04         8041 	.data.b	4
00003398 04         8042 	.data.b	4
00003399 03         8043 	.data.b	3
0000339a 01d5       8044 	.data.b	213,1
0000339c 15         8045 	.data.b	21
0000339d 04         8046 	.data.b	4
0000339e 03         8047 	.data.b	3
0000339f 02d3       8048 	.data.b	211,2
000033a1 15         8049 	.data.b	21
000033a2 04         8050 	.data.b	4
000033a3 04         8051 	.data.b	4
000033a4 01         8052 	.data.b	1
000033a5 4f         8053 	.data.b	79
000033a6 4d756345   8054 	.data.b	69,99,117,77,95,71,101,116,68,101,102,97,117,108,116,65,112,112,77,111,100,101,79,102,80,67,67,111,110,102,105,103,40,41,32,79,83,68,69,70,65,85,76,84,65,80,80,77,79,68,69,0
000033aa 7465475f 
000033ae 61666544 
000033b2 41746c75 
000033b6 6f4d7070 
000033ba 664f6564 
000033be 6f434350 
000033c2 6769666e 
000033c6 4f202928 
000033ca 46454453 
000033ce 544c5541 
000033d2 4d505041 
000033d6 0045444f 
000033da 01         8055 	.data.b	1
000033db 50         8056 	.data.b	80
000033dc 4d756345   8057 	.data.b	69,99,117,77,95,71,101,116,68,101,102,97,117,108,116,83,104,117,116,100,111,119,110,77,111,100,101,79,102,80,67,67,111,110,102,105,103,40,41,32,48,117,0
000033e0 7465475f 
000033e4 61666544 
000033e8 53746c75 
000033ec 64747568 
000033f0 4d6e776f 
000033f4 4f65646f 
000033f8 43435066 
000033fc 69666e6f 
00003400 20292867 
00003404 007530 

                                                                      Page 210
                                                              C:\Users\Fengyuan\AppData\Local\Temp\gh_00006b81.s
00003407 01         8058 	.data.b	1
00003408 51         8059 	.data.b	81
00003409 4d756345   8060 	.data.b	69,99,117,77,95,71,101,116,68,101,102,97,117,108,116,83,104,117,116,100,111,119,110,84,97,114,103,101,116,79,102,80,67,67,111,110,102,105,103,40,41,32,69,67,85,77,95,83,84,65,84,69,95,79,70,70,0
0000340d 7465475f 
00003411 61666544 
00003415 53746c75 
00003419 64747568 
0000341d 546e776f 
00003421 65677261 
00003425 50664f74 
00003429 6e6f4343 
0000342d 28676966 
00003431 43452029 
00003435 535f4d55 
00003439 45544154 
0000343d 46464f5f 
00003441 00 
00003442 01         8061 	.data.b	1
00003443 52         8062 	.data.b	82
00003444 4d756345   8063 	.data.b	69,99,117,77,95,71,101,116,68,114,105,118,101,114,73,110,105,116,79,110,101,79,102,80,67,67,111,110,102,105,103,40,41,32,69,99,117,77,95,68,114,105,118,101,114,73,110,105,116,79,110,101,0
00003448 7465475f 
0000344c 76697244 
00003450 6e497265 
00003454 6e4f7469 
00003458 50664f65 
0000345c 6e6f4343 
00003460 28676966 
00003464 63452029 
00003468 445f4d75 
0000346c 65766972 
00003470 696e4972 
00003474 656e4f74 
00003478 00 
00003479 01         8064 	.data.b	1
0000347a 56         8065 	.data.b	86
0000347b 4d756345   8066 	.data.b	69,99,117,77,95,71,101,116,77,97,120,87,97,107,101,117,112,83,111,117,114,99,101,67,111,117,110,116,79,102,80,67,67,111,110,102,105,103,40,41,32,54,117,0
0000347f 7465475f 
00003483 5778614d 
00003487 75656b61 
0000348b 756f5370 
0000348f 43656372 
00003493 746e756f 
00003497 4350664f 
0000349b 666e6f43 
0000349f 29286769 
000034a3 00753620 
000034a7 01         8067 	.data.b	1
000034a8 57         8068 	.data.b	87
000034a9 4d756345   8069 	.data.b	69,99,117,77,95,71,101,116,77,111,100,117,108,101,83,116,97,116,101,79,102,80,67,67,111,110,102,105,103,40,41,32,69,99,117,77,95,77,111,100,117,108,101,83,116,97,116,101,0
000034ad 7465475f 
000034b1 75646f4d 
000034b5 7453656c 
000034b9 4f657461 
000034bd 43435066 
000034c1 69666e6f 
000034c5 20292867 
000034c9 4d756345 
000034cd 646f4d5f 
000034d1 53656c75 
000034d5 65746174 
000034d9 00 

                                                                      Page 211
                                                              C:\Users\Fengyuan\AppData\Local\Temp\gh_00006b81.s
000034da 01         8070 	.data.b	1
000034db 5a         8071 	.data.b	90
000034dc 4d756345   8072 	.data.b	69,99,117,77,95,71,101,116,83,105,122,101,79,102,87,97,107,101,117,112,83,111,117,114,99,101,76,105,115,116,79,102,80,67,67,111,110,102,105,103,40,41,32,54,117,0
000034e0 7465475f 
000034e4 657a6953 
000034e8 6157664f 
000034ec 7075656b 
000034f0 72756f53 
000034f4 694c6563 
000034f8 664f7473 
000034fc 6f434350 
00003500 6769666e 
00003504 36202928 
00003508 0075 
0000350a 01         8073 	.data.b	1
0000350b 5b         8074 	.data.b	91
0000350c 4d756345   8075 	.data.b	69,99,117,77,95,71,101,116,87,97,107,101,117,112,83,111,117,114,99,101,76,105,115,116,79,102,80,67,67,111,110,102,105,103,40,41,32,69,99,117,77,95,87,97,107,101,117,112,83,111,117,114,99,101,76,105,115,116,0
00003510 7465475f 
00003514 656b6157 
00003518 6f537075 
0000351c 65637275 
00003520 7473694c 
00003524 4350664f 
00003528 666e6f43 
0000352c 29286769 
00003530 75634520 
00003534 61575f4d 
00003538 7075656b 
0000353c 72756f53 
00003540 694c6563 
00003544 007473 
00003547 01         8076 	.data.b	1
00003548 65         8077 	.data.b	101
00003549 4d756345   8078 	.data.b	69,99,117,77,95,71,101,116,70,117,110,99,116,105,111,110,79,102,68,114,105,118,101,114,73,110,105,116,79,110,101,40,73,110,100,101,120,41,32,40,69,99,117,77,95,71,101,116,68,114,105,118,101,114,73,110,105,116,79,110
0000354d 7465475f 
00003551 636e7546 
00003555 6e6f6974 
00003559 7244664f 
0000355d 72657669 
00003561 74696e49 
00003565 28656e4f 
00003569 65646e49 
0000356d 28202978 
00003571 4d756345 
00003575 7465475f 
00003579 76697244 
0000357d 6e497265 
00003581 6e4f7469 
00003585 50664f65   8079 	.data.b	101,79,102,80,67,67,111,110,102,105,103,40,41,91,40,73,110,100,101,120,41,93,46,70,117,110,99,116,105,111,110,79,102,68,114,105,118,101,114,73,110,105,116,79,110,101,41,0
00003589 6e6f4343 
0000358d 28676966 
00003591 49285b29 
00003595 7865646e 
00003599 462e5d29 
0000359d 74636e75 
000035a1 4f6e6f69 
000035a5 69724466 
000035a9 49726576 
000035ad 4f74696e 
000035b1 0029656e 
000035b5 01         8080 	.data.b	1

                                                                      Page 212
                                                              C:\Users\Fengyuan\AppData\Local\Temp\gh_00006b81.s
000035b6 66         8081 	.data.b	102
000035b7 4d756345   8082 	.data.b	69,99,117,77,95,71,101,116,77,111,100,117,108,101,83,116,97,116,101,40,41,32,40,69,99,117,77,95,71,101,116,77,111,100,117,108,101,83,116,97,116,101,79,102,80,67,67,111,110,102,105,103,40,41,41,0
000035bb 7465475f 
000035bf 75646f4d 
000035c3 7453656c 
000035c7 28657461 
000035cb 45282029 
000035cf 5f4d7563 
000035d3 4d746547 
000035d7 6c75646f 
000035db 61745365 
000035df 664f6574 
000035e3 6f434350 
000035e7 6769666e 
000035eb 00292928 
000035ef 01         8083 	.data.b	1
000035f0 67         8084 	.data.b	103
000035f1 4d756345   8085 	.data.b	69,99,117,77,95,71,101,116,67,104,97,110,110,101,108,79,102,87,97,107,101,117,112,83,111,117,114,99,101,76,105,115,116,40,73,110,100,101,120,41,32,40,69,99,117,77,95,71,101,116,87,97,107,101,117,112,83,111,117,114
000035f5 7465475f 
000035f9 6e616843 
000035fd 4f6c656e 
00003601 6b615766 
00003605 53707565 
00003609 6372756f 
0000360d 73694c65 
00003611 6e492874 
00003615 29786564 
00003619 63452820 
0000361d 475f4d75 
00003621 61577465 
00003625 7075656b 
00003629 72756f53 
0000362d 694c6563   8086 	.data.b	99,101,76,105,115,116,79,102,80,67,67,111,110,102,105,103,40,41,91,40,73,110,100,101,120,41,93,46,67,104,97,110,110,101,108,79,102,87,97,107,101,117,112,83,111,117,114,99,101,76,105,115,116,41,0
00003631 664f7473 
00003635 6f434350 
00003639 6769666e 
0000363d 285b2928 
00003641 65646e49 
00003645 2e5d2978 
00003649 6e616843 
0000364d 4f6c656e 
00003651 6b615766 
00003655 53707565 
00003659 6372756f 
0000365d 73694c65 
00003661 002974 
00003664 01         8087 	.data.b	1
00003665 71         8088 	.data.b	113
00003666 4d756345   8089 	.data.b	69,99,117,77,95,71,101,116,68,101,102,97,117,108,116,65,112,112,77,111,100,101,40,41,32,69,99,117,77,95,71,101,116,68,101,102,97,117,108,116,65,112,112,77,111,100,101,79,102,80,67,67,111,110,102,105,103,40,41,0
0000366a 7465475f 
0000366e 61666544 
00003672 41746c75 
00003676 6f4d7070 
0000367a 29286564 
0000367e 75634520 
00003682 65475f4d 
00003686 66654474 
0000368a 746c7561 
0000368e 4d707041 
00003692 4f65646f 
00003696 43435066 

                                                                      Page 213
                                                              C:\Users\Fengyuan\AppData\Local\Temp\gh_00006b81.s
0000369a 69666e6f 
0000369e 00292867 
000036a2 01         8090 	.data.b	1
000036a3 72         8091 	.data.b	114
000036a4 4d756345   8092 	.data.b	69,99,117,77,95,71,101,116,68,101,102,97,117,108,116,83,104,117,116,100,111,119,110,77,111,100,101,40,41,32,69,99,117,77,95,71,101,116,68,101,102,97,117,108,116,83,104,117,116,100,111,119,110,77,111,100,101,79,102,80
000036a8 7465475f 
000036ac 61666544 
000036b0 53746c75 
000036b4 64747568 
000036b8 4d6e776f 
000036bc 2865646f 
000036c0 63452029 
000036c4 475f4d75 
000036c8 65447465 
000036cc 6c756166 
000036d0 75685374 
000036d4 776f6474 
000036d8 646f4d6e 
000036dc 50664f65 
000036e0 6e6f4343   8093 	.data.b	67,67,111,110,102,105,103,40,41,0
000036e4 28676966 
000036e8 0029 
000036ea 01         8094 	.data.b	1
000036eb 73         8095 	.data.b	115
000036ec 4d756345   8096 	.data.b	69,99,117,77,95,71,101,116,68,101,102,97,117,108,116,83,104,117,116,100,111,119,110,84,97,114,103,101,116,40,41,32,69,99,117,77,95,71,101,116,68,101,102,97,117,108,116,83,104,117,116,100,111,119,110,84,97,114,103,101
000036f0 7465475f 
000036f4 61666544 
000036f8 53746c75 
000036fc 64747568 
00003700 546e776f 
00003704 65677261 
00003708 20292874 
0000370c 4d756345 
00003710 7465475f 
00003714 61666544 
00003718 53746c75 
0000371c 64747568 
00003720 546e776f 
00003724 65677261 
00003728 50664f74   8097 	.data.b	116,79,102,80,67,67,111,110,102,105,103,40,41,0
0000372c 6e6f4343 
00003730 28676966 
00003734 0029 
00003736 01         8098 	.data.b	1
00003737 77         8099 	.data.b	119
00003738 4d756345   8100 	.data.b	69,99,117,77,95,71,101,116,77,97,120,87,97,107,101,117,112,83,111,117,114,99,101,67,111,117,110,116,40,41,32,69,99,117,77,95,71,101,116,77,97,120,87,97,107,101,117,112,83,111,117,114,99,101,67,111,117,110,116,79
0000373c 7465475f 
00003740 5778614d 
00003744 75656b61 
00003748 756f5370 
0000374c 43656372 
00003750 746e756f 
00003754 45202928 
00003758 5f4d7563 
0000375c 4d746547 
00003760 61577861 
00003764 7075656b 
00003768 72756f53 
0000376c 6f436563 
00003770 4f746e75 
00003774 43435066   8101 	.data.b	102,80,67,67,111,110,102,105,103,40,41,0

                                                                      Page 214
                                                              C:\Users\Fengyuan\AppData\Local\Temp\gh_00006b81.s
00003778 69666e6f 
0000377c 00292867 
00003780 01         8102 	.data.b	1
00003781 7a         8103 	.data.b	122
00003782 4d756345   8104 	.data.b	69,99,117,77,95,71,101,116,83,105,122,101,79,102,87,97,107,101,117,112,83,111,117,114,99,101,76,105,115,116,40,41,32,69,99,117,77,95,71,101,116,83,105,122,101,79,102,87,97,107,101,117,112,83,111,117,114,99,101,76
00003786 7465475f 
0000378a 657a6953 
0000378e 6157664f 
00003792 7075656b 
00003796 72756f53 
0000379a 694c6563 
0000379e 29287473 
000037a2 75634520 
000037a6 65475f4d 
000037aa 7a695374 
000037ae 57664f65 
000037b2 75656b61 
000037b6 756f5370 
000037ba 4c656372 
000037be 4f747369   8105 	.data.b	105,115,116,79,102,80,67,67,111,110,102,105,103,40,41,0
000037c2 43435066 
000037c6 69666e6f 
000037ca 00292867 
000037ce 01         8106 	.data.b	1
000037cf 0184       8107 	.data.b	132,1
000037d1 4d756345   8108 	.data.b	69,99,117,77,95,83,101,116,77,111,100,117,108,101,83,116,97,116,101,40,86,97,108,117,101,41,32,69,99,117,77,95,71,101,116,77,111,100,117,108,101,83,116,97,116,101,79,102,80,67,67,111,110,102,105,103,40,41,32,61
000037d5 7465535f 
000037d9 75646f4d 
000037dd 7453656c 
000037e1 28657461 
000037e5 756c6156 
000037e9 45202965 
000037ed 5f4d7563 
000037f1 4d746547 
000037f5 6c75646f 
000037f9 61745365 
000037fd 664f6574 
00003801 6f434350 
00003805 6769666e 
00003809 3d202928 
0000380d 61562820   8109 	.data.b	32,40,86,97,108,117,101,41,0
00003811 2965756c 
00003815 00 
00003816 03         8110 	.data.b	3
00003817 0282       8111 	.data.b	130,2
00003819 15         8112 	.data.b	21
0000381a 04         8113 	.data.b	4
0000381b 03         8114 	.data.b	3
0000381c 0287       8115 	.data.b	135,2
0000381e 15         8116 	.data.b	21
0000381f 04         8117 	.data.b	4
00003820 03         8118 	.data.b	3
00003821 0296       8119 	.data.b	150,2
00003823 15         8120 	.data.b	21
00003824 04         8121 	.data.b	4
00003825 03         8122 	.data.b	3
00003826 029b       8123 	.data.b	155,2
00003828 15         8124 	.data.b	21
00003829 04         8125 	.data.b	4
0000382a 03         8126 	.data.b	3
0000382b 02a3       8127 	.data.b	163,2

                                                                      Page 215
                                                              C:\Users\Fengyuan\AppData\Local\Temp\gh_00006b81.s
0000382d 15         8128 	.data.b	21
0000382e 04         8129 	.data.b	4
0000382f 03         8130 	.data.b	3
00003830 02a8       8131 	.data.b	168,2
00003832 15         8132 	.data.b	21
00003833 04         8133 	.data.b	4
00003834 03         8134 	.data.b	3
00003835 02bb       8135 	.data.b	187,2
00003837 15         8136 	.data.b	21
00003838 04         8137 	.data.b	4
00003839 03         8138 	.data.b	3
0000383a 068a       8139 	.data.b	138,6
0000383c 15         8140 	.data.b	21
0000383d 04         8141 	.data.b	4
0000383e 04         8142 	.data.b	4
0000383f 03         8143 	.data.b	3
00003840 35         8144 	.data.b	53
00003841 3b         8145 	.data.b	59
00003842 03         8146 	.data.b	3
00003843 79         8147 	.data.b	121
00003844 3c         8148 	.data.b	60
00003845 03         8149 	.data.b	3
00003846 29         8150 	.data.b	41
00003847 3d         8151 	.data.b	61
00003848 03         8152 	.data.b	3
00003849 24         8153 	.data.b	36
0000384a 3e         8154 	.data.b	62
0000384b 03         8155 	.data.b	3
0000384c 74         8156 	.data.b	116
0000384d 3f         8157 	.data.b	63
0000384e 03         8158 	.data.b	3
0000384f 28         8159 	.data.b	40
00003850 40         8160 	.data.b	64
00003851 03         8161 	.data.b	3
00003852 28         8162 	.data.b	40
00003853 41         8163 	.data.b	65
00003854 03         8164 	.data.b	3
00003855 26         8165 	.data.b	38
00003856 42         8166 	.data.b	66
00003857 03         8167 	.data.b	3
00003858 29         8168 	.data.b	41
00003859 43         8169 	.data.b	67
0000385a 04         8170 	.data.b	4
0000385b 04         8171 	.data.b	4
0000385c 01         8172 	.data.b	1
0000385d 4c         8173 	.data.b	76
0000385e 4d4d4f43   8174 	.data.b	67,79,77,77,95,73,78,73,84,32,40,49,117,41,0
00003862 494e495f 
00003866 31282054 
0000386a 002975 
0000386d 04         8175 	.data.b	4
0000386e 01         8176 	.data.b	1
0000386f 60         8177 	.data.b	96
00003870 4d4d4f43   8178 	.data.b	67,79,77,77,95,73,78,73,84,95,80,79,73,78,84,69,82,95,69,78,65,66,76,69,68,32,83,84,68,95,79,70,70,0
00003874 494e495f 
00003878 4f505f54 
0000387c 45544e49 
00003880 4e455f52 
00003884 454c4241 
00003888 54532044 
0000388c 464f5f44 

                                                                      Page 216
                                                              C:\Users\Fengyuan\AppData\Local\Temp\gh_00006b81.s
00003890 0046 
00003892 01         8179 	.data.b	1
00003893 61         8180 	.data.b	97
00003894 4d4d4f43   8181 	.data.b	67,79,77,77,95,86,69,82,83,73,79,78,95,73,78,70,79,95,65,80,73,32,83,84,68,95,79,70,70,0
00003898 5245565f 
0000389c 4e4f4953 
000038a0 464e495f 
000038a4 50415f4f 
000038a8 54532049 
000038ac 464f5f44 
000038b0 0046 
000038b2 01         8182 	.data.b	1
000038b3 68         8183 	.data.b	104
000038b4 4d4d4f43   8184 	.data.b	67,79,77,77,95,80,78,67,95,80,83,95,84,73,77,69,82,32,48,117,0
000038b8 434e505f 
000038bc 5f53505f 
000038c0 454d4954 
000038c4 75302052 
000038c8 00 
000038c9 01         8185 	.data.b	1
000038ca 6b         8186 	.data.b	107
000038cb 4d4d4f43   8187 	.data.b	67,79,77,77,95,80,78,67,95,84,79,95,67,72,65,78,78,69,76,95,82,79,85,84,73,78,71,95,76,73,77,73,84,65,84,73,79,78,95,69,78,65,66,76,69,68,32,83,84,68,95,79,70,70,0
000038cf 434e505f 
000038d3 5f4f545f 
000038d7 4e414843 
000038db 5f4c454e 
000038df 54554f52 
000038e3 5f474e49 
000038e7 494d494c 
000038eb 49544154 
000038ef 455f4e4f 
000038f3 4c42414e 
000038f7 53204445 
000038fb 4f5f4454 
000038ff 004646 
00003902 01         8188 	.data.b	1
00003903 78         8189 	.data.b	120
00003904 4d4d4f43   8190 	.data.b	67,79,77,77,95,68,67,77,95,73,78,68,73,67,65,84,73,79,78,32,83,84,68,95,79,78,0
00003908 4d43445f 
0000390c 444e495f 
00003910 54414349 
00003914 204e4f49 
00003918 5f445453 
0000391c 004e4f 
0000391f 01         8191 	.data.b	1
00003920 01a7       8192 	.data.b	167,1
00003922 4d4d4f43   8193 	.data.b	67,79,77,77,95,77,73,78,70,85,76,76,67,79,77,84,73,77,69,79,70,67,72,65,78,78,69,76,32,83,84,68,95,79,70,70,0
00003926 4e494d5f 
0000392a 4c4c5546 
0000392e 544d4f43 
00003932 4f454d49 
00003936 41484346 
0000393a 4c454e4e 
0000393e 44545320 
00003942 46464f5f 
00003946 00 
00003947 01         8194 	.data.b	1
00003948 01c4       8195 	.data.b	196,1
0000394a 4d4d4f43   8196 	.data.b	67,79,77,77,95,87,65,75,69,85,80,69,78,65,66,76,69,68,79,70,80,78,67,32,83,84,68,95,79,70,70,0
0000394e 4b41575f 
00003952 45505545 

                                                                      Page 217
                                                              C:\Users\Fengyuan\AppData\Local\Temp\gh_00006b81.s
00003956 4c42414e 
0000395a 464f4445 
0000395e 20434e50 
00003962 5f445453 
00003966 0046464f 
0000396a 04         8197 	.data.b	4
0000396b 03         8198 	.data.b	3
0000396c 30         8199 	.data.b	48
0000396d 15         8200 	.data.b	21
0000396e 04         8201 	.data.b	4
0000396f 03         8202 	.data.b	3
00003970 36         8203 	.data.b	54
00003971 15         8204 	.data.b	21
00003972 04         8205 	.data.b	4
00003973 03         8206 	.data.b	3
00003974 3e         8207 	.data.b	62
00003975 15         8208 	.data.b	21
00003976 04         8209 	.data.b	4
00003977 03         8210 	.data.b	3
00003978 72         8211 	.data.b	114
00003979 15         8212 	.data.b	21
0000397a 04         8213 	.data.b	4
0000397b 04         8214 	.data.b	4
0000397c 03         8215 	.data.b	3
0000397d 75         8216 	.data.b	117
0000397e 44         8217 	.data.b	68
0000397f 04         8218 	.data.b	4
00003980 03         8219 	.data.b	3
00003981 01ce       8220 	.data.b	206,1
00003983 15         8221 	.data.b	21
00003984 04         8222 	.data.b	4
00003985 03         8223 	.data.b	3
00003986 01d5       8224 	.data.b	213,1
00003988 15         8225 	.data.b	21
00003989 04         8226 	.data.b	4
0000398a 03         8227 	.data.b	3
0000398b 01dd       8228 	.data.b	221,1
0000398d 15         8229 	.data.b	21
0000398e 04         8230 	.data.b	4
0000398f 03         8231 	.data.b	3
00003990 01ef       8232 	.data.b	239,1
00003992 15         8233 	.data.b	21
00003993 04         8234 	.data.b	4
00003994 03         8235 	.data.b	3
00003995 01f7       8236 	.data.b	247,1
00003997 15         8237 	.data.b	21
00003998 04         8238 	.data.b	4
00003999 03         8239 	.data.b	3
0000399a 04f4       8240 	.data.b	244,4
0000399c 15         8241 	.data.b	21
0000399d 04         8242 	.data.b	4
0000399e 04         8243 	.data.b	4
0000399f 03         8244 	.data.b	3
000039a0 26         8245 	.data.b	38
000039a1 45         8246 	.data.b	69
000039a2 03         8247 	.data.b	3
000039a3 40         8248 	.data.b	64
000039a4 15         8249 	.data.b	21
000039a5 04         8250 	.data.b	4
000039a6 03         8251 	.data.b	3
000039a7 75         8252 	.data.b	117

                                                                      Page 218
                                                              C:\Users\Fengyuan\AppData\Local\Temp\gh_00006b81.s
000039a8 15         8253 	.data.b	21
000039a9 04         8254 	.data.b	4
000039aa 04         8255 	.data.b	4
000039ab 03         8256 	.data.b	3
000039ac 42         8257 	.data.b	66
000039ad 15         8258 	.data.b	21
000039ae 04         8259 	.data.b	4
000039af 03         8260 	.data.b	3
000039b0 75         8261 	.data.b	117
000039b1 15         8262 	.data.b	21
000039b2 04         8263 	.data.b	4
000039b3 04         8264 	.data.b	4
000039b4 03         8265 	.data.b	3
000039b5 2a         8266 	.data.b	42
000039b6 46         8267 	.data.b	70
000039b7 03         8268 	.data.b	3
000039b8 24         8269 	.data.b	36
000039b9 47         8270 	.data.b	71
000039ba 04         8271 	.data.b	4
000039bb 03         8272 	.data.b	3
000039bc 3f         8273 	.data.b	63
000039bd 15         8274 	.data.b	21
000039be 04         8275 	.data.b	4
000039bf 03         8276 	.data.b	3
000039c0 53         8277 	.data.b	83
000039c1 15         8278 	.data.b	21
000039c2 04         8279 	.data.b	4
000039c3 04         8280 	.data.b	4
000039c4 03         8281 	.data.b	3
000039c5 2b         8282 	.data.b	43
000039c6 48         8283 	.data.b	72
000039c7 03         8284 	.data.b	3
000039c8 24         8285 	.data.b	36
000039c9 49         8286 	.data.b	73
000039ca 03         8287 	.data.b	3
000039cb 0393       8288 	.data.b	147,3
000039cd 4a         8289 	.data.b	74
000039ce 03         8290 	.data.b	3
000039cf 22         8291 	.data.b	34
000039d0 4b         8292 	.data.b	75
000039d1 03         8293 	.data.b	3
000039d2 23         8294 	.data.b	35
000039d3 4c         8295 	.data.b	76
000039d4 04         8296 	.data.b	4
000039d5 03         8297 	.data.b	3
000039d6 24         8298 	.data.b	36
000039d7 4d         8299 	.data.b	77
000039d8 01         8300 	.data.b	1
000039d9 31         8301 	.data.b	49
000039da 5f4d4344   8302 	.data.b	68,67,77,95,86,69,82,83,73,79,78,95,73,78,70,79,95,65,80,73,32,83,84,68,95,79,70,70,0
000039de 53524556 
000039e2 5f4e4f49 
000039e6 4f464e49 
000039ea 4950415f 
000039ee 44545320 
000039f2 46464f5f 
000039f6 00 
000039f7 01         8303 	.data.b	1
000039f8 35         8304 	.data.b	53
000039f9 5f4d4344   8305 	.data.b	68,67,77,95,66,83,87,95,69,78,86,95,65,83,82,95,86,69,82,83,73,79,78,95,51,88,88,95,69,78,65,66,76,69,68,32,83,84,68,95,79,70,70,0
000039fd 5f575342 

                                                                      Page 219
                                                              C:\Users\Fengyuan\AppData\Local\Temp\gh_00006b81.s
00003a01 5f564e45 
00003a05 5f525341 
00003a09 53524556 
00003a0d 5f4e4f49 
00003a11 5f585833 
00003a15 42414e45 
00003a19 2044454c 
00003a1d 5f445453 
00003a21 0046464f 
00003a25 01         8306 	.data.b	1
00003a26 37         8307 	.data.b	55
00003a27 5f4d4344   8308 	.data.b	68,67,77,95,66,83,87,95,69,78,86,95,65,83,82,95,86,69,82,83,73,79,78,95,52,48,49,95,69,78,65,66,76,69,68,32,83,84,68,95,79,70,70,0
00003a2b 5f575342 
00003a2f 5f564e45 
00003a33 5f525341 
00003a37 53524556 
00003a3b 5f4e4f49 
00003a3f 5f313034 
00003a43 42414e45 
00003a47 2044454c 
00003a4b 5f445453 
00003a4f 0046464f 
00003a53 01         8309 	.data.b	1
00003a54 39         8310 	.data.b	57
00003a55 5f4d4344   8311 	.data.b	68,67,77,95,66,83,87,95,69,78,86,95,65,83,82,95,86,69,82,83,73,79,78,95,52,88,88,95,69,78,65,66,76,69,68,32,83,84,68,95,79,78,0
00003a59 5f575342 
00003a5d 5f564e45 
00003a61 5f525341 
00003a65 53524556 
00003a69 5f4e4f49 
00003a6d 5f585834 
00003a71 42414e45 
00003a75 2044454c 
00003a79 5f445453 
00003a7d 004e4f 
00003a80 01         8312 	.data.b	1
00003a81 3f         8313 	.data.b	63
00003a82 5f4d4344   8314 	.data.b	68,67,77,95,69,88,84,95,78,69,69,68,95,65,80,73,95,85,84,73,78,86,77,87,82,73,84,69,95,69,78,65,66,76,69,68,32,83,84,68,95,79,70,70,0
00003a86 5f545845 
00003a8a 4445454e 
00003a8e 4950415f 
00003a92 4954555f 
00003a96 574d564e 
00003a9a 45544952 
00003a9e 414e455f 
00003aa2 44454c42 
00003aa6 44545320 
00003aaa 46464f5f 
00003aae 00 
00003aaf 01         8315 	.data.b	1
00003ab0 41         8316 	.data.b	65
00003ab1 5f4d4344   8317 	.data.b	68,67,77,95,69,88,84,95,78,69,69,68,95,65,80,73,95,85,84,73,78,86,77,82,69,65,68,95,69,78,65,66,76,69,68,32,83,84,68,95,79,70,70,0
00003ab5 5f545845 
00003ab9 4445454e 
00003abd 4950415f 
00003ac1 4954555f 
00003ac5 524d564e 
00003ac9 5f444145 
00003acd 42414e45 
00003ad1 2044454c 
00003ad5 5f445453 

                                                                      Page 220
                                                              C:\Users\Fengyuan\AppData\Local\Temp\gh_00006b81.s
00003ad9 0046464f 
00003add 01         8318 	.data.b	1
00003ade 49         8319 	.data.b	73
00003adf 5f4d4344   8320 	.data.b	68,67,77,95,68,69,66,85,71,95,69,82,82,79,82,95,68,69,84,69,67,84,32,83,84,68,95,79,70,70,0
00003ae3 55424544 
00003ae7 52455f47 
00003aeb 5f524f52 
00003aef 45544544 
00003af3 53205443 
00003af7 4f5f4454 
00003afb 004646 
00003afe 01         8321 	.data.b	1
00003aff 55         8322 	.data.b	85
00003b00 5f4d4344   8323 	.data.b	68,67,77,95,78,69,84,95,80,69,82,73,79,68,73,67,95,84,88,95,69,78,65,66,76,69,68,32,83,84,68,95,79,70,70,0
00003b04 5f54454e 
00003b08 49524550 
00003b0c 4349444f 
00003b10 5f58545f 
00003b14 42414e45 
00003b18 2044454c 
00003b1c 5f445453 
00003b20 0046464f 
00003b24 01         8324 	.data.b	1
00003b25 5b         8325 	.data.b	91
00003b26 5f4d4344   8326 	.data.b	68,67,77,95,78,69,84,95,80,82,79,84,79,67,79,76,95,80,82,73,79,82,73,84,73,83,65,84,73,79,78,95,69,78,65,66,76,69,68,32,83,84,68,95,79,70,70,0
00003b2a 5f54454e 
00003b2e 544f5250 
00003b32 4c4f434f 
00003b36 4952505f 
00003b3a 5449524f 
00003b3e 54415349 
00003b42 5f4e4f49 
00003b46 42414e45 
00003b4a 2044454c 
00003b4e 5f445453 
00003b52 0046464f 
00003b56 01         8327 	.data.b	1
00003b57 5f         8328 	.data.b	95
00003b58 5f4d4344   8329 	.data.b	68,67,77,95,78,69,84,95,83,85,80,80,82,69,83,83,95,79,78,95,70,85,78,67,95,82,69,81,95,69,78,65,66,76,69,68,32,83,84,68,95,79,70,70,0
00003b5c 5f54454e 
00003b60 50505553 
00003b64 53534552 
00003b68 5f4e4f5f 
00003b6c 434e5546 
00003b70 5145525f 
00003b74 414e455f 
00003b78 44454c42 
00003b7c 44545320 
00003b80 46464f5f 
00003b84 00 
00003b85 01         8330 	.data.b	1
00003b86 61         8331 	.data.b	97
00003b87 5f4d4344   8332 	.data.b	68,67,77,95,78,69,84,95,77,79,78,73,84,79,82,95,70,79,82,69,73,71,78,95,78,95,84,65,95,69,78,65,66,76,69,68,32,83,84,68,95,79,70,70,0
00003b8b 5f54454e 
00003b8f 494e4f4d 
00003b93 5f524f54 
00003b97 45524f46 
00003b9b 5f4e4749 
00003b9f 41545f4e 
00003ba3 414e455f 
00003ba7 44454c42 

                                                                      Page 221
                                                              C:\Users\Fengyuan\AppData\Local\Temp\gh_00006b81.s
00003bab 44545320 
00003baf 46464f5f 
00003bb3 00 
00003bb4 01         8333 	.data.b	1
00003bb5 67         8334 	.data.b	103
00003bb6 5f4d4344   8335 	.data.b	68,67,77,95,78,69,84,95,67,79,78,78,69,67,84,73,79,78,95,87,73,84,72,79,85,84,95,84,88,95,69,78,65,66,76,69,68,32,83,84,68,95,79,70,70,0
00003bba 5f54454e 
00003bbe 4e4e4f43 
00003bc2 49544345 
00003bc6 575f4e4f 
00003bca 4f485449 
00003bce 545f5455 
00003bd2 4e455f58 
00003bd6 454c4241 
00003bda 54532044 
00003bde 464f5f44 
00003be2 0046 
00003be4 01         8336 	.data.b	1
00003be5 69         8337 	.data.b	105
00003be6 5f4d4344   8338 	.data.b	68,67,77,95,78,69,84,95,67,79,78,78,95,69,67,85,95,65,68,68,82,69,83,83,95,69,78,65,66,76,69,68,32,83,84,68,95,79,70,70,0
00003bea 5f54454e 
00003bee 4e4e4f43 
00003bf2 5543455f 
00003bf6 4444415f 
00003bfa 53534552 
00003bfe 414e455f 
00003c02 44454c42 
00003c06 44545320 
00003c0a 46464f5f 
00003c0e 00 
00003c0f 01         8339 	.data.b	1
00003c10 6d         8340 	.data.b	109
00003c11 5f4d4344   8341 	.data.b	68,67,77,95,80,65,71,69,68,95,66,85,70,70,69,82,95,69,78,65,66,76,69,68,32,83,84,68,95,79,78,0
00003c15 45474150 
00003c19 55425f44 
00003c1d 52454646 
00003c21 414e455f 
00003c25 44454c42 
00003c29 44545320 
00003c2d 004e4f5f 
00003c31 01         8342 	.data.b	1
00003c32 71         8343 	.data.b	113
00003c33 5f4d4344   8344 	.data.b	68,67,77,95,77,79,68,69,77,71,82,95,83,85,80,80,79,82,84,95,69,78,65,66,76,69,68,32,83,84,68,95,79,78,0
00003c37 45444f4d 
00003c3b 5f52474d 
00003c3f 50505553 
00003c43 5f54524f 
00003c47 42414e45 
00003c4b 2044454c 
00003c4f 5f445453 
00003c53 004e4f 
00003c56 01         8345 	.data.b	1
00003c57 73         8346 	.data.b	115
00003c58 5f4d4344   8347 	.data.b	68,67,77,95,77,79,68,69,77,71,82,95,67,72,69,67,75,95,83,85,80,80,79,82,84,95,69,78,65,66,76,69,68,32,83,84,68,95,79,70,70,0
00003c5c 45444f4d 
00003c60 5f52474d 
00003c64 43454843 
00003c68 55535f4b 
00003c6c 524f5050 
00003c70 4e455f54 
00003c74 454c4241 

                                                                      Page 222
                                                              C:\Users\Fengyuan\AppData\Local\Temp\gh_00006b81.s
00003c78 54532044 
00003c7c 464f5f44 
00003c80 0046 
00003c82 01         8348 	.data.b	1
00003c83 7d         8349 	.data.b	125
00003c84 5f4d4344   8350 	.data.b	68,67,77,95,77,79,68,69,95,67,79,77,77,67,84,82,76,95,69,78,65,66,76,69,68,32,83,84,68,95,79,70,70,0
00003c88 45444f4d 
00003c8c 4d4f435f 
00003c90 5254434d 
00003c94 4e455f4c 
00003c98 454c4241 
00003c9c 54532044 
00003ca0 464f5f44 
00003ca4 0046 
00003ca6 01         8351 	.data.b	1
00003ca7 0181       8352 	.data.b	129,1
00003ca9 5f4d4344   8353 	.data.b	68,67,77,95,77,79,68,69,95,83,69,67,85,82,73,84,89,95,65,67,67,69,83,83,95,69,78,65,66,76,69,68,32,83,84,68,95,79,70,70,0
00003cad 45444f4d 
00003cb1 4345535f 
00003cb5 54495255 
00003cb9 43415f59 
00003cbd 53534543 
00003cc1 414e455f 
00003cc5 44454c42 
00003cc9 44545320 
00003ccd 46464f5f 
00003cd1 00 
00003cd2 01         8354 	.data.b	1
00003cd3 0185       8355 	.data.b	133,1
00003cd5 5f4d4344   8356 	.data.b	68,67,77,95,83,84,65,84,69,95,83,69,67,85,82,73,84,89,95,69,78,65,66,76,69,68,32,83,84,68,95,79,78,0
00003cd9 54415453 
00003cdd 45535f45 
00003ce1 49525543 
00003ce5 455f5954 
00003ce9 4c42414e 
00003ced 53204445 
00003cf1 4f5f4454 
00003cf5 004e 
00003cf7 01         8357 	.data.b	1
00003cf8 0189       8358 	.data.b	137,1
00003cfa 5f4d4344   8359 	.data.b	68,67,77,95,83,84,65,84,69,95,83,69,67,95,82,69,84,82,89,95,69,78,65,66,76,69,68,32,83,84,68,95,79,78,0
00003cfe 54415453 
00003d02 45535f45 
00003d06 45525f43 
00003d0a 5f595254 
00003d0e 42414e45 
00003d12 2044454c 
00003d16 5f445453 
00003d1a 004e4f 
00003d1d 01         8360 	.data.b	1
00003d1e 018b       8361 	.data.b	139,1
00003d20 5f4d4344   8362 	.data.b	68,67,77,95,83,84,65,84,69,95,83,69,67,95,68,69,76,65,89,95,79,78,95,66,79,79,84,95,69,78,65,66,76,69,68,32,83,84,68,95,79,70,70,0
00003d24 54415453 
00003d28 45535f45 
00003d2c 45445f43 
00003d30 5f59414c 
00003d34 425f4e4f 
00003d38 5f544f4f 
00003d3c 42414e45 
00003d40 2044454c 
00003d44 5f445453 

                                                                      Page 223
                                                              C:\Users\Fengyuan\AppData\Local\Temp\gh_00006b81.s
00003d48 0046464f 
00003d4c 01         8363 	.data.b	1
00003d4d 018d       8364 	.data.b	141,1
00003d4f 5f4d4344   8365 	.data.b	68,67,77,95,83,84,65,84,69,95,83,69,67,95,68,69,76,65,89,95,84,73,77,69,95,79,78,95,70,65,73,76,69,68,95,71,69,84,95,65,84,84,95,67,78,84,82,95,69,78,65,66,76,69,68,32,83,84,68,95
00003d53 54415453 
00003d57 45535f45 
00003d5b 45445f43 
00003d5f 5f59414c 
00003d63 454d4954 
00003d67 5f4e4f5f 
00003d6b 4c494146 
00003d6f 475f4445 
00003d73 415f5445 
00003d77 435f5454 
00003d7b 5f52544e 
00003d7f 42414e45 
00003d83 2044454c 
00003d87 5f445453 
00003d8b 0046464f   8366 	.data.b	79,70,70,0
00003d8f 01         8367 	.data.b	1
00003d90 018f       8368 	.data.b	143,1
00003d92 5f4d4344   8369 	.data.b	68,67,77,95,83,84,65,84,69,95,83,69,67,95,65,84,84,95,67,78,84,82,95,69,88,84,95,83,84,79,82,65,71,69,95,69,78,65,66,76,69,68,32,83,84,68,95,79,70,70,0
00003d96 54415453 
00003d9a 45535f45 
00003d9e 54415f43 
00003da2 4e435f54 
00003da6 455f5254 
00003daa 535f5458 
00003dae 41524f54 
00003db2 455f4547 
00003db6 4c42414e 
00003dba 53204445 
00003dbe 4f5f4454 
00003dc2 004646 
00003dc5 01         8370 	.data.b	1
00003dc6 0191       8371 	.data.b	145,1
00003dc8 5f4d4344   8372 	.data.b	68,67,77,95,83,84,65,84,69,95,83,69,67,85,82,73,84,89,95,70,73,88,69,68,95,66,89,84,69,83,95,69,78,65,66,76,69,68,32,83,84,68,95,79,70,70,0
00003dcc 54415453 
00003dd0 45535f45 
00003dd4 49525543 
00003dd8 465f5954 
00003ddc 44455849 
00003de0 5459425f 
00003de4 455f5345 
00003de8 4c42414e 
00003dec 53204445 
00003df0 4f5f4454 
00003df4 004646 
00003df7 01         8373 	.data.b	1
00003df8 0195       8374 	.data.b	149,1
00003dfa 5f4d4344   8375 	.data.b	68,67,77,95,83,84,65,84,69,95,83,69,83,83,73,79,78,95,78,79,84,73,70,73,67,65,84,73,79,78,95,69,78,65,66,76,69,68,32,83,84,68,95,79,70,70,0
00003dfe 54415453 
00003e02 45535f45 
00003e06 4f495353 
00003e0a 4f4e5f4e 
00003e0e 49464954 
00003e12 49544143 
00003e16 455f4e4f 
00003e1a 4c42414e 
00003e1e 53204445 
00003e22 4f5f4454 

                                                                      Page 224
                                                              C:\Users\Fengyuan\AppData\Local\Temp\gh_00006b81.s
00003e26 004646 
00003e29 01         8376 	.data.b	1
00003e2a 0197       8377 	.data.b	151,1
00003e2c 5f4d4344   8378 	.data.b	68,67,77,95,83,84,65,84,69,95,83,69,67,85,82,73,84,89,95,78,79,84,73,70,73,67,65,84,73,79,78,95,69,78,65,66,76,69,68,32,83,84,68,95,79,70,70,0
00003e30 54415453 
00003e34 45535f45 
00003e38 49525543 
00003e3c 4e5f5954 
00003e40 4649544f 
00003e44 54414349 
00003e48 5f4e4f49 
00003e4c 42414e45 
00003e50 2044454c 
00003e54 5f445453 
00003e58 0046464f 
00003e5c 01         8379 	.data.b	1
00003e5d 01a1       8380 	.data.b	161,1
00003e5f 5f4d4344   8381 	.data.b	68,67,77,95,68,69,77,95,65,80,73,95,52,51,48,95,69,78,65,66,76,69,68,32,83,84,68,95,79,78,0
00003e63 5f4d4544 
00003e67 5f495041 
00003e6b 5f303334 
00003e6f 42414e45 
00003e73 2044454c 
00003e77 5f445453 
00003e7b 004e4f 
00003e7e 01         8382 	.data.b	1
00003e7f 01a3       8383 	.data.b	163,1
00003e81 5f4d4344   8384 	.data.b	68,67,77,95,68,69,77,95,67,76,73,69,78,84,73,68,95,69,78,65,66,76,69,68,32,83,84,68,95,79,78,0
00003e85 5f4d4544 
00003e89 45494c43 
00003e8d 4449544e 
00003e91 414e455f 
00003e95 44454c42 
00003e99 44545320 
00003e9d 004e4f5f 
00003ea1 01         8385 	.data.b	1
00003ea2 01a5       8386 	.data.b	165,1
00003ea4 5f4d4344   8387 	.data.b	68,67,77,95,68,73,68,77,71,82,95,83,85,80,80,79,82,84,95,69,78,65,66,76,69,68,32,83,84,68,95,79,78,0
00003ea8 4d444944 
00003eac 535f5247 
00003eb0 4f505055 
00003eb4 455f5452 
00003eb8 4c42414e 
00003ebc 53204445 
00003ec0 4f5f4454 
00003ec4 004e 
00003ec6 01         8388 	.data.b	1
00003ec7 01a7       8389 	.data.b	167,1
00003ec9 5f4d4344   8390 	.data.b	68,67,77,95,68,73,68,77,71,82,95,69,88,84,69,78,68,69,68,95,76,79,79,75,85,80,95,69,78,65,66,76,69,68,32,83,84,68,95,79,70,70,0
00003ecd 4d444944 
00003ed1 455f5247 
00003ed5 4e455458 
00003ed9 5f444544 
00003edd 4b4f4f4c 
00003ee1 455f5055 
00003ee5 4c42414e 
00003ee9 53204445 
00003eed 4f5f4454 
00003ef1 004646 
00003ef4 01         8391 	.data.b	1
00003ef5 01b3       8392 	.data.b	179,1

                                                                      Page 225
                                                              C:\Users\Fengyuan\AppData\Local\Temp\gh_00006b81.s
00003ef7 5f4d4344   8393 	.data.b	68,67,77,95,68,73,68,77,71,82,95,82,65,78,71,69,95,83,85,80,80,79,82,84,95,69,78,65,66,76,69,68,32,83,84,68,95,79,70,70,0
00003efb 4d444944 
00003eff 525f5247 
00003f03 45474e41 
00003f07 5055535f 
00003f0b 54524f50 
00003f0f 414e455f 
00003f13 44454c42 
00003f17 44545320 
00003f1b 46464f5f 
00003f1f 00 
00003f20 01         8394 	.data.b	1
00003f21 01b5       8395 	.data.b	181,1
00003f23 5f4d4344   8396 	.data.b	68,67,77,95,68,73,68,77,71,82,95,73,79,95,77,65,83,75,82,69,67,79,82,68,95,69,78,65,66,76,69,68,32,83,84,68,95,79,70,70,0
00003f27 4d444944 
00003f2b 495f5247 
00003f2f 414d5f4f 
00003f33 45524b53 
00003f37 44524f43 
00003f3b 414e455f 
00003f3f 44454c42 
00003f43 44545320 
00003f47 46464f5f 
00003f4b 00 
00003f4c 01         8397 	.data.b	1
00003f4d 01b9       8398 	.data.b	185,1
00003f4f 5f4d4344   8399 	.data.b	68,67,77,95,68,73,68,77,71,82,95,73,79,68,73,68,95,69,88,69,67,95,80,82,69,67,79,78,68,95,76,73,77,73,84,95,69,78,65,66,76,69,68,32,83,84,68,95,79,70,70,0
00003f53 4d444944 
00003f57 495f5247 
00003f5b 4449444f 
00003f5f 4558455f 
00003f63 52505f43 
00003f67 4e4f4345 
00003f6b 494c5f44 
00003f6f 5f54494d 
00003f73 42414e45 
00003f77 2044454c 
00003f7b 5f445453 
00003f7f 0046464f 
00003f83 01         8400 	.data.b	1
00003f84 01bd       8401 	.data.b	189,1
00003f86 5f4d4344   8402 	.data.b	68,67,77,95,68,73,68,77,71,82,95,83,82,95,73,79,95,67,79,78,84,82,79,76,95,69,78,65,66,76,69,68,32,83,84,68,95,79,70,70,0
00003f8a 4d444944 
00003f8e 535f5247 
00003f92 4f495f52 
00003f96 4e4f435f 
00003f9a 4c4f5254 
00003f9e 414e455f 
00003fa2 44454c42 
00003fa6 44545320 
00003faa 46464f5f 
00003fae 00 
00003faf 01         8403 	.data.b	1
00003fb0 01c7       8404 	.data.b	199,1
00003fb2 5f4d4344   8405 	.data.b	68,67,77,95,68,73,68,77,71,82,95,79,80,95,73,78,70,79,95,82,79,69,95,69,78,65,66,76,69,68,32,83,84,68,95,79,70,70,0
00003fb6 4d444944 
00003fba 4f5f5247 
00003fbe 4e495f50 
00003fc2 525f4f46 
00003fc6 455f454f 
00003fca 4c42414e 

                                                                      Page 226
                                                              C:\Users\Fengyuan\AppData\Local\Temp\gh_00006b81.s
00003fce 53204445 
00003fd2 4f5f4454 
00003fd6 004646 
00003fd9 01         8406 	.data.b	1
00003fda 01c9       8407 	.data.b	201,1
00003fdc 5f4d4344   8408 	.data.b	68,67,77,95,68,73,68,77,71,82,95,79,80,95,73,78,70,79,95,68,69,70,73,78,69,95,69,78,65,66,76,69,68,32,83,84,68,95,79,70,70,0
00003fe0 4d444944 
00003fe4 4f5f5247 
00003fe8 4e495f50 
00003fec 445f4f46 
00003ff0 4e494645 
00003ff4 4e455f45 
00003ff8 454c4241 
00003ffc 54532044 
00004000 464f5f44 
00004004 0046 
00004006 01         8409 	.data.b	1
00004007 01cb       8410 	.data.b	203,1
00004009 5f4d4344   8411 	.data.b	68,67,77,95,68,73,68,77,71,82,95,79,80,95,73,78,70,79,95,67,79,77,66,73,78,69,68,95,69,78,65,66,76,69,68,32,83,84,68,95,79,70,70,0
0000400d 4d444944 
00004011 4f5f5247 
00004015 4e495f50 
00004019 435f4f46 
0000401d 49424d4f 
00004021 5f44454e 
00004025 42414e45 
00004029 2044454c 
0000402d 5f445453 
00004031 0046464f 
00004035 01         8412 	.data.b	1
00004036 01cd       8413 	.data.b	205,1
00004038 5f4d4344   8414 	.data.b	68,67,77,95,68,73,68,77,71,82,95,79,80,95,73,78,70,79,95,65,78,89,95,69,78,65,66,76,69,68,32,83,84,68,95,79,70,70,0
0000403c 4d444944 
00004040 4f5f5247 
00004044 4e495f50 
00004048 415f4f46 
0000404c 455f594e 
00004050 4c42414e 
00004054 53204445 
00004058 4f5f4454 
0000405c 004646 
0000405f 01         8415 	.data.b	1
00004060 01d5       8416 	.data.b	213,1
00004062 5f4d4344   8417 	.data.b	68,67,77,95,68,73,68,77,71,82,95,78,86,77,95,82,69,65,68,95,69,78,65,66,76,69,68,32,83,84,68,95,79,70,70,0
00004066 4d444944 
0000406a 4e5f5247 
0000406e 525f4d56 
00004072 5f444145 
00004076 42414e45 
0000407a 2044454c 
0000407e 5f445453 
00004082 0046464f 
00004086 01         8418 	.data.b	1
00004087 01d7       8419 	.data.b	215,1
00004089 5f4d4344   8420 	.data.b	68,67,77,95,68,73,68,77,71,82,95,78,86,77,95,87,82,73,84,69,95,69,78,65,66,76,69,68,32,83,84,68,95,79,70,70,0
0000408d 4d444944 
00004091 4e5f5247 
00004095 575f4d56 
00004099 45544952 
0000409d 414e455f 
000040a1 44454c42 

                                                                      Page 227
                                                              C:\Users\Fengyuan\AppData\Local\Temp\gh_00006b81.s
000040a5 44545320 
000040a9 46464f5f 
000040ad 00 
000040ae 01         8421 	.data.b	1
000040af 01e3       8422 	.data.b	227,1
000040b1 5f4d4344   8423 	.data.b	68,67,77,95,68,73,68,77,71,82,95,79,80,84,89,80,69,95,73,79,95,82,69,84,67,84,82,76,50,69,67,85,95,69,78,65,66,76,69,68,32,83,84,68,95,79,70,70,0
000040b5 4d444944 
000040b9 4f5f5247 
000040bd 50595450 
000040c1 4f495f45 
000040c5 5445525f 
000040c9 4c525443 
000040cd 55434532 
000040d1 414e455f 
000040d5 44454c42 
000040d9 44545320 
000040dd 46464f5f 
000040e1 00 
000040e2 01         8424 	.data.b	1
000040e3 01f1       8425 	.data.b	241,1
000040e5 5f4d4344   8426 	.data.b	68,67,77,95,82,73,68,77,71,82,95,83,85,80,80,79,82,84,95,69,78,65,66,76,69,68,32,83,84,68,95,79,70,70,0
000040e9 4d444952 
000040ed 535f5247 
000040f1 4f505055 
000040f5 455f5452 
000040f9 4c42414e 
000040fd 53204445 
00004101 4f5f4454 
00004105 004646 
00004108 01         8427 	.data.b	1
00004109 01f7       8428 	.data.b	247,1
0000410b 5f4d4344   8429 	.data.b	68,67,77,95,77,69,77,77,71,82,95,83,85,80,80,79,82,84,95,69,78,65,66,76,69,68,32,83,84,68,95,79,70,70,0
0000410f 4d4d454d 
00004113 535f5247 
00004117 4f505055 
0000411b 455f5452 
0000411f 4c42414e 
00004123 53204445 
00004127 4f5f4454 
0000412b 004646 
0000412e 01         8430 	.data.b	1
0000412f 01ff       8431 	.data.b	255,1
00004131 5f4d4344   8432 	.data.b	68,67,77,95,79,66,68,85,68,83,73,68,77,71,82,95,83,85,80,80,79,82,84,95,69,78,65,66,76,69,68,32,83,84,68,95,79,70,70,0
00004135 5544424f 
00004139 44495344 
0000413d 5f52474d 
00004141 50505553 
00004145 5f54524f 
00004149 42414e45 
0000414d 2044454c 
00004151 5f445453 
00004155 0046464f 
00004159 01         8433 	.data.b	1
0000415a 028f       8434 	.data.b	143,2
0000415c 5f4d4344   8435 	.data.b	68,67,77,95,79,66,68,73,68,77,71,82,95,79,66,68,77,73,68,95,83,85,80,80,79,82,84,95,66,89,95,68,67,77,95,69,78,65,66,76,69,68,32,83,84,68,95,79,70,70,0
00004160 4944424f 
00004164 52474d44 
00004168 44424f5f 
0000416c 5f44494d 
00004170 50505553 
00004174 5f54524f 

                                                                      Page 228
                                                              C:\Users\Fengyuan\AppData\Local\Temp\gh_00006b81.s
00004178 445f5942 
0000417c 455f4d43 
00004180 4c42414e 
00004184 53204445 
00004188 4f5f4454 
0000418c 004646 
0000418f 01         8436 	.data.b	1
00004190 0293       8437 	.data.b	147,2
00004192 5f4d4344   8438 	.data.b	68,67,77,95,83,80,76,73,84,95,84,65,83,75,83,95,69,78,65,66,76,69,68,32,83,84,68,95,79,70,70,0
00004196 494c5053 
0000419a 41545f54 
0000419e 5f534b53 
000041a2 42414e45 
000041a6 2044454c 
000041aa 5f445453 
000041ae 0046464f 
000041b2 01         8439 	.data.b	1
000041b3 0297       8440 	.data.b	151,2
000041b5 5f4d4344   8441 	.data.b	68,67,77,95,68,73,65,71,95,79,69,77,95,78,79,84,73,70,73,67,65,84,73,79,78,95,69,78,65,66,76,69,68,32,83,84,68,95,79,70,70,0
000041b9 47414944 
000041bd 4d454f5f 
000041c1 544f4e5f 
000041c5 43494649 
000041c9 4f495441 
000041cd 4e455f4e 
000041d1 454c4241 
000041d5 54532044 
000041d9 464f5f44 
000041dd 0046 
000041df 01         8442 	.data.b	1
000041e0 0299       8443 	.data.b	153,2
000041e2 5f4d4344   8444 	.data.b	68,67,77,95,68,73,65,71,95,83,89,83,95,78,79,84,73,70,73,67,65,84,73,79,78,95,69,78,65,66,76,69,68,32,83,84,68,95,79,70,70,0
000041e6 47414944 
000041ea 5359535f 
000041ee 544f4e5f 
000041f2 43494649 
000041f6 4f495441 
000041fa 4e455f4e 
000041fe 454c4241 
00004202 54532044 
00004206 464f5f44 
0000420a 0046 
0000420c 01         8445 	.data.b	1
0000420d 029d       8446 	.data.b	157,2
0000420f 5f4d4344   8447 	.data.b	68,67,77,95,68,73,65,71,95,69,88,84,69,82,78,95,83,86,67,95,72,65,78,68,76,73,78,71,95,69,78,65,66,76,69,68,32,83,84,68,95,79,70,70,0
00004213 47414944 
00004217 5458455f 
0000421b 5f4e5245 
0000421f 5f435653 
00004223 444e4148 
00004227 474e494c 
0000422b 414e455f 
0000422f 44454c42 
00004233 44545320 
00004237 46464f5f 
0000423b 00 
0000423c 01         8448 	.data.b	1
0000423d 02a3       8449 	.data.b	163,2
0000423f 5f4d4344   8450 	.data.b	68,67,77,95,68,73,65,71,95,74,85,77,80,70,82,79,77,70,66,76,95,69,78,65,66,76,69,68,32,83,84,68,95,79,78,0
00004243 47414944 
00004247 4d554a5f 

                                                                      Page 229
                                                              C:\Users\Fengyuan\AppData\Local\Temp\gh_00006b81.s
0000424b 4f524650 
0000424f 4c42464d 
00004253 414e455f 
00004257 44454c42 
0000425b 44545320 
0000425f 004e4f5f 
00004263 01         8451 	.data.b	1
00004264 02a5       8452 	.data.b	165,2
00004266 5f4d4344   8453 	.data.b	68,67,77,95,68,73,65,71,95,74,85,77,80,84,79,70,66,76,95,69,78,65,66,76,69,68,32,83,84,68,95,79,70,70,0
0000426a 47414944 
0000426e 4d554a5f 
00004272 464f5450 
00004276 455f4c42 
0000427a 4c42414e 
0000427e 53204445 
00004282 4f5f4454 
00004286 004646 
00004289 01         8454 	.data.b	1
0000428a 02a7       8455 	.data.b	167,2
0000428c 5f4d4344   8456 	.data.b	68,67,77,95,68,73,65,71,95,77,85,76,84,73,95,83,86,67,95,84,65,66,76,69,95,69,78,65,66,76,69,68,32,83,84,68,95,79,70,70,0
00004290 47414944 
00004294 4c554d5f 
00004298 535f4954 
0000429c 545f4356 
000042a0 454c4241 
000042a4 414e455f 
000042a8 44454c42 
000042ac 44545320 
000042b0 46464f5f 
000042b4 00 
000042b5 01         8457 	.data.b	1
000042b6 02a9       8458 	.data.b	169,2
000042b8 5f4d4344   8459 	.data.b	68,67,77,95,68,73,65,71,95,70,65,83,84,95,80,79,83,84,95,80,82,79,67,69,83,83,73,78,71,95,69,78,65,66,76,69,68,32,83,84,68,95,79,78,0
000042bc 47414944 
000042c0 5341465f 
000042c4 4f505f54 
000042c8 505f5453 
000042cc 45434f52 
000042d0 4e495353 
000042d4 4e455f47 
000042d8 454c4241 
000042dc 54532044 
000042e0 4e4f5f44 
000042e4 00 
000042e5 01         8460 	.data.b	1
000042e6 02b1       8461 	.data.b	177,2
000042e8 5f4d4344   8462 	.data.b	68,67,77,95,68,73,65,71,95,83,84,65,84,69,95,82,69,67,79,86,69,82,89,95,69,78,65,66,76,69,68,32,83,84,68,95,79,70,70,0
000042ec 47414944 
000042f0 4154535f 
000042f4 525f4554 
000042f8 564f4345 
000042fc 5f595245 
00004300 42414e45 
00004304 2044454c 
00004308 5f445453 
0000430c 0046464f 
00004310 01         8463 	.data.b	1
00004311 02b3       8464 	.data.b	179,2
00004313 5f4d4344   8465 	.data.b	68,67,77,95,68,73,65,71,95,82,67,82,82,80,95,76,73,77,73,84,95,69,78,65,66,76,69,68,32,83,84,68,95,79,70,70,0
00004317 47414944 
0000431b 5243525f 

                                                                      Page 230
                                                              C:\Users\Fengyuan\AppData\Local\Temp\gh_00006b81.s
0000431f 4c5f5052 
00004323 54494d49 
00004327 414e455f 
0000432b 44454c42 
0000432f 44545320 
00004333 46464f5f 
00004337 00 
00004338 01         8466 	.data.b	1
00004339 02b5       8467 	.data.b	181,2
0000433b 5f4d4344   8468 	.data.b	68,67,77,95,68,73,65,71,95,86,73,82,84,85,65,76,95,82,69,81,85,69,83,84,95,69,78,65,66,76,69,68,32,83,84,68,95,79,70,70,0
0000433f 47414944 
00004343 5249565f 
00004347 4c415554 
0000434b 5145525f 
0000434f 54534555 
00004353 414e455f 
00004357 44454c42 
0000435b 44545320 
0000435f 46464f5f 
00004363 00 
00004364 01         8469 	.data.b	1
00004365 02b9       8470 	.data.b	185,2
00004367 5f4d4344   8471 	.data.b	68,67,77,95,68,73,65,71,95,83,69,82,86,73,67,69,95,68,73,83,80,65,84,67,72,69,82,95,69,78,65,66,76,69,68,32,83,84,68,95,79,70,70,0
0000436b 47414944 
0000436f 5245535f 
00004373 45434956 
00004377 5349445f 
0000437b 43544150 
0000437f 5f524548 
00004383 42414e45 
00004387 2044454c 
0000438b 5f445453 
0000438f 0046464f 
00004393 01         8472 	.data.b	1
00004394 02bb       8473 	.data.b	187,2
00004396 5f4d4344   8474 	.data.b	68,67,77,95,86,65,82,77,71,82,95,83,85,80,80,79,82,84,95,69,78,65,66,76,69,68,32,83,84,68,95,79,70,70,0
0000439a 4d524156 
0000439e 535f5247 
000043a2 4f505055 
000043a6 455f5452 
000043aa 4c42414e 
000043ae 53204445 
000043b2 4f5f4454 
000043b6 004646 
000043b9 01         8475 	.data.b	1
000043ba 02bd       8476 	.data.b	189,2
000043bc 5f4d4344   8477 	.data.b	68,67,77,95,86,65,82,77,71,82,95,77,85,76,84,73,95,83,86,67,95,69,88,67,76,85,83,73,86,69,95,69,78,65,66,76,69,68,32,83,84,68,95,79,70,70,0
000043c0 4d524156 
000043c4 4d5f5247 
000043c8 49544c55 
000043cc 4356535f 
000043d0 4358455f 
000043d4 4953554c 
000043d8 455f4556 
000043dc 4c42414e 
000043e0 53204445 
000043e4 4f5f4454 
000043e8 004646 
000043eb 01         8478 	.data.b	1
000043ec 02bf       8479 	.data.b	191,2
000043ee 5f4d4344   8480 	.data.b	68,67,77,95,86,65,82,77,71,82,95,77,85,76,84,73,95,83,86,67,95,73,78,67,76,85,83,73,86,69,95,69,78,65,66,76,69,68,32,83,84,68,95,79,70,70,0

                                                                      Page 231
                                                              C:\Users\Fengyuan\AppData\Local\Temp\gh_00006b81.s
000043f2 4d524156 
000043f6 4d5f5247 
000043fa 49544c55 
000043fe 4356535f 
00004402 434e495f 
00004406 4953554c 
0000440a 455f4556 
0000440e 4c42414e 
00004412 53204445 
00004416 4f5f4454 
0000441a 004646 
0000441d 01         8481 	.data.b	1
0000441e 02c1       8482 	.data.b	193,2
00004420 5f4d4344   8483 	.data.b	68,67,77,95,86,65,82,77,71,82,95,77,85,76,84,73,95,67,79,77,95,69,78,65,66,76,69,68,32,83,84,68,95,79,70,70,0
00004424 4d524156 
00004428 4d5f5247 
0000442c 49544c55 
00004430 4d4f435f 
00004434 414e455f 
00004438 44454c42 
0000443c 44545320 
00004440 46464f5f 
00004444 00 
00004445 01         8484 	.data.b	1
00004446 02c7       8485 	.data.b	199,2
00004448 5f4d4344   8486 	.data.b	68,67,77,95,86,65,82,77,71,82,95,77,79,68,69,95,80,79,83,84,66,85,73,76,68,95,76,79,65,68,95,69,78,65,66,76,69,68,32,83,84,68,95,79,70,70,0
0000444c 4d524156 
00004450 4d5f5247 
00004454 5f45444f 
00004458 54534f50 
0000445c 4c495542 
00004460 4f4c5f44 
00004464 455f4441 
00004468 4c42414e 
0000446c 53204445 
00004470 4f5f4454 
00004474 004646 
00004477 01         8487 	.data.b	1
00004478 02c9       8488 	.data.b	201,2
0000447a 5f4d4344   8489 	.data.b	68,67,77,95,86,65,82,77,71,82,95,77,79,68,69,95,80,79,83,84,66,85,73,76,68,95,83,69,76,69,67,84,95,69,78,65,66,76,69,68,32,83,84,68,95,79,70,70,0
0000447e 4d524156 
00004482 4d5f5247 
00004486 5f45444f 
0000448a 54534f50 
0000448e 4c495542 
00004492 45535f44 
00004496 5443454c 
0000449a 414e455f 
0000449e 44454c42 
000044a2 44545320 
000044a6 46464f5f 
000044aa 00 
000044ab 01         8490 	.data.b	1
000044ac 02cd       8491 	.data.b	205,2
000044ae 5f4d4344   8492 	.data.b	68,67,77,95,83,86,67,95,48,49,95,83,85,80,80,79,82,84,95,69,78,65,66,76,69,68,32,83,84,68,95,79,70,70,0
000044b2 5f435653 
000044b6 535f3130 
000044ba 4f505055 
000044be 455f5452 
000044c2 4c42414e 
000044c6 53204445 

                                                                      Page 232
                                                              C:\Users\Fengyuan\AppData\Local\Temp\gh_00006b81.s
000044ca 4f5f4454 
000044ce 004646 
000044d1 01         8493 	.data.b	1
000044d2 02d5       8494 	.data.b	213,2
000044d4 5f4d4344   8495 	.data.b	68,67,77,95,83,86,67,95,48,54,95,83,85,80,80,79,82,84,95,69,78,65,66,76,69,68,32,83,84,68,95,79,70,70,0
000044d8 5f435653 
000044dc 535f3630 
000044e0 4f505055 
000044e4 455f5452 
000044e8 4c42414e 
000044ec 53204445 
000044f0 4f5f4454 
000044f4 004646 
000044f7 01         8496 	.data.b	1
000044f8 02d9       8497 	.data.b	217,2
000044fa 5f4d4344   8498 	.data.b	68,67,77,95,83,86,67,95,48,56,95,83,85,80,80,79,82,84,95,69,78,65,66,76,69,68,32,83,84,68,95,79,70,70,0
000044fe 5f435653 
00004502 535f3830 
00004506 4f505055 
0000450a 455f5452 
0000450e 4c42414e 
00004512 53204445 
00004516 4f5f4454 
0000451a 004646 
0000451d 01         8499 	.data.b	1
0000451e 02db       8500 	.data.b	219,2
00004520 5f4d4344   8501 	.data.b	68,67,77,95,83,86,67,95,48,57,95,83,85,80,80,79,82,84,95,69,78,65,66,76,69,68,32,83,84,68,95,79,70,70,0
00004524 5f435653 
00004528 535f3930 
0000452c 4f505055 
00004530 455f5452 
00004534 4c42414e 
00004538 53204445 
0000453c 4f5f4454 
00004540 004646 
00004543 01         8502 	.data.b	1
00004544 02df       8503 	.data.b	223,2
00004546 5f4d4344   8504 	.data.b	68,67,77,95,83,86,67,95,49,48,95,83,85,80,80,79,82,84,95,69,78,65,66,76,69,68,32,83,84,68,95,79,78,0
0000454a 5f435653 
0000454e 535f3031 
00004552 4f505055 
00004556 455f5452 
0000455a 4c42414e 
0000455e 53204445 
00004562 4f5f4454 
00004566 004e 
00004568 01         8505 	.data.b	1
00004569 02e1       8506 	.data.b	225,2
0000456b 5f4d4344   8507 	.data.b	68,67,77,95,83,86,67,95,49,48,95,74,77,80,50,66,79,79,84,95,69,78,65,66,76,69,68,32,83,84,68,95,79,70,70,0
0000456f 5f435653 
00004573 4a5f3031 
00004577 4232504d 
0000457b 5f544f4f 
0000457f 42414e45 
00004583 2044454c 
00004587 5f445453 
0000458b 0046464f 
0000458f 01         8508 	.data.b	1
00004590 02e5       8509 	.data.b	229,2
00004592 5f4d4344   8510 	.data.b	68,67,77,95,83,86,67,95,49,49,95,83,85,80,80,79,82,84,95,69,78,65,66,76,69,68,32,83,84,68,95,79,78,0
00004596 5f435653 

                                                                      Page 233
                                                              C:\Users\Fengyuan\AppData\Local\Temp\gh_00006b81.s
0000459a 535f3131 
0000459e 4f505055 
000045a2 455f5452 
000045a6 4c42414e 
000045aa 53204445 
000045ae 4f5f4454 
000045b2 004e 
000045b4 01         8511 	.data.b	1
000045b5 02f2       8512 	.data.b	242,2
000045b7 5f4d4344   8513 	.data.b	68,67,77,95,83,86,67,95,49,57,95,83,85,80,80,79,82,84,95,69,78,65,66,76,69,68,32,83,84,68,95,79,78,0
000045bb 5f435653 
000045bf 535f3931 
000045c3 4f505055 
000045c7 455f5452 
000045cb 4c42414e 
000045cf 53204445 
000045d3 4f5f4454 
000045d7 004e 
000045d9 01         8514 	.data.b	1
000045da 0396       8515 	.data.b	150,3
000045dc 5f4d4344   8516 	.data.b	68,67,77,95,83,86,67,95,50,55,95,83,85,80,80,79,82,84,95,69,78,65,66,76,69,68,32,83,84,68,95,79,78,0
000045e0 5f435653 
000045e4 535f3732 
000045e8 4f505055 
000045ec 455f5452 
000045f0 4c42414e 
000045f4 53204445 
000045f8 4f5f4454 
000045fc 004e 
000045fe 01         8517 	.data.b	1
000045ff 039c       8518 	.data.b	156,3
00004601 5f4d4344   8519 	.data.b	68,67,77,95,83,86,67,95,50,56,95,83,85,80,80,79,82,84,95,69,78,65,66,76,69,68,32,83,84,68,95,79,70,70,0
00004605 5f435653 
00004609 535f3832 
0000460d 4f505055 
00004611 455f5452 
00004615 4c42414e 
00004619 53204445 
0000461d 4f5f4454 
00004621 004646 
00004624 01         8520 	.data.b	1
00004625 03a6       8521 	.data.b	166,3
00004627 5f4d4344   8522 	.data.b	68,67,77,95,83,86,67,95,50,67,95,83,85,80,80,79,82,84,95,69,78,65,66,76,69,68,32,83,84,68,95,79,70,70,0
0000462b 5f435653 
0000462f 535f4332 
00004633 4f505055 
00004637 455f5452 
0000463b 4c42414e 
0000463f 53204445 
00004643 4f5f4454 
00004647 004646 
0000464a 01         8523 	.data.b	1
0000464b 03c2       8524 	.data.b	194,3
0000464d 5f4d4344   8525 	.data.b	68,67,77,95,83,86,67,95,56,53,95,83,85,80,80,79,82,84,95,69,78,65,66,76,69,68,32,83,84,68,95,79,78,0
00004651 5f435653 
00004655 535f3538 
00004659 4f505055 
0000465d 455f5452 
00004661 4c42414e 
00004665 53204445 
00004669 4f5f4454 

                                                                      Page 234
                                                              C:\Users\Fengyuan\AppData\Local\Temp\gh_00006b81.s
0000466d 004e 
0000466f 01         8526 	.data.b	1
00004670 03c6       8527 	.data.b	198,3
00004672 5f4d4344   8528 	.data.b	68,67,77,95,83,86,67,95,56,54,95,83,85,80,80,79,82,84,95,69,78,65,66,76,69,68,32,83,84,68,95,79,70,70,0
00004676 5f435653 
0000467a 535f3638 
0000467e 4f505055 
00004682 455f5452 
00004686 4c42414e 
0000468a 53204445 
0000468e 4f5f4454 
00004692 004646 
00004695 01         8529 	.data.b	1
00004696 03ee       8530 	.data.b	238,3
00004698 5f4d4344   8531 	.data.b	68,67,77,95,68,67,77,95,65,82,95,86,69,82,83,73,79,78,95,52,48,51,32,48,120,48,52,48,51,117,0
0000469c 5f4d4344 
000046a0 565f5241 
000046a4 49535245 
000046a8 345f4e4f 
000046ac 30203330 
000046b0 30343078 
000046b4 007533 
000046b7 01         8532 	.data.b	1
000046b8 03f4       8533 	.data.b	244,3
000046ba 5f4d4344   8534 	.data.b	68,67,77,95,68,67,77,95,65,82,95,86,69,82,83,73,79,78,32,48,120,48,52,50,49,117,0
000046be 5f4d4344 
000046c2 565f5241 
000046c6 49535245 
000046ca 30204e4f 
000046ce 32343078 
000046d2 007531 
000046d5 01         8535 	.data.b	1
000046d6 03f6       8536 	.data.b	246,3
000046d8 5f4d4344   8537 	.data.b	68,67,77,95,69,88,84,69,78,83,73,79,78,95,73,68,32,48,120,57,54,65,67,68,53,52,51,85,76,0
000046dc 45545845 
000046e0 4f49534e 
000046e4 44495f4e 
000046e8 39783020 
000046ec 44434136 
000046f0 55333435 
000046f4 004c 
000046f6 01         8538 	.data.b	1
000046f7 03f8       8539 	.data.b	248,3
000046f9 5f4d4344   8540 	.data.b	68,67,77,95,80,68,85,82,95,65,80,73,95,65,82,95,86,69,82,83,73,79,78,32,48,120,52,49,50,0
000046fd 52554450 
00004701 4950415f 
00004705 5f52415f 
00004709 53524556 
0000470d 204e4f49 
00004711 31347830 
00004715 0032 
00004717 04         8541 	.data.b	4
00004718 03         8542 	.data.b	3
00004719 25         8543 	.data.b	37
0000471a 4e         8544 	.data.b	78
0000471b 04         8545 	.data.b	4
0000471c 03         8546 	.data.b	3
0000471d 26         8547 	.data.b	38
0000471e 4f         8548 	.data.b	79
0000471f 04         8549 	.data.b	4
00004720 03         8550 	.data.b	3

                                                                      Page 235
                                                              C:\Users\Fengyuan\AppData\Local\Temp\gh_00006b81.s
00004721 27         8551 	.data.b	39
00004722 50         8552 	.data.b	80
00004723 01         8553 	.data.b	1
00004724 50         8554 	.data.b	80
00004725 5f4d4344   8555 	.data.b	68,67,77,95,78,69,84,95,67,79,78,78,95,80,82,79,80,69,82,84,73,69,83,95,69,78,65,66,76,69,68,32,83,84,68,95,79,70,70,0
00004729 5f54454e 
0000472d 4e4e4f43 
00004731 4f52505f 
00004735 54524550 
00004739 5f534549 
0000473d 42414e45 
00004741 2044454c 
00004745 5f445453 
00004749 0046464f 
0000474d 01         8556 	.data.b	1
0000474e 57         8557 	.data.b	87
0000474f 5f4d4344   8558 	.data.b	68,67,77,95,78,69,84,95,80,82,79,67,69,83,83,73,78,71,95,67,65,78,67,69,76,76,65,84,73,79,78,95,69,78,65,66,76,69,68,32,83,84,68,95,79,70,70,0
00004753 5f54454e 
00004757 434f5250 
0000475b 49535345 
0000475f 435f474e 
00004763 45434e41 
00004767 54414c4c 
0000476b 5f4e4f49 
0000476f 42414e45 
00004773 2044454c 
00004777 5f445453 
0000477b 0046464f 
0000477f 01         8559 	.data.b	1
00004780 6a         8560 	.data.b	106
00004781 5f4d4344   8561 	.data.b	68,67,77,95,83,84,65,84,69,95,83,69,67,85,82,73,84,89,95,69,88,84,95,83,69,84,84,69,82,95,69,78,65,66,76,69,68,32,83,84,68,95,79,70,70,0
00004785 54415453 
00004789 45535f45 
0000478d 49525543 
00004791 455f5954 
00004795 535f5458 
00004799 45545445 
0000479d 4e455f52 
000047a1 454c4241 
000047a5 54532044 
000047a9 464f5f44 
000047ad 0046 
000047af 01         8562 	.data.b	1
000047b0 028b       8563 	.data.b	139,2
000047b2 5f4d4344   8564 	.data.b	68,67,77,95,85,83,69,68,95,80,68,85,82,95,65,80,73,95,65,82,95,86,69,82,83,73,79,78,32,68,67,77,95,80,68,85,82,95,65,80,73,95,65,82,95,86,69,82,83,73,79,78,0
000047b6 44455355 
000047ba 5544505f 
000047be 50415f52 
000047c2 52415f49 
000047c6 5245565f 
000047ca 4e4f4953 
000047ce 4d434420 
000047d2 5544505f 
000047d6 50415f52 
000047da 52415f49 
000047de 5245565f 
000047e2 4e4f4953 
000047e6 00 
000047e7 01         8565 	.data.b	1
000047e8 0293       8566 	.data.b	147,2
000047ea 5f4d4344   8567 	.data.b	68,67,77,95,80,68,85,82,95,65,80,73,95,52,49,50,95,69,78,65,66,76,69,68,32,83,84,68,95,79,78,0

                                                                      Page 236
                                                              C:\Users\Fengyuan\AppData\Local\Temp\gh_00006b81.s
000047ee 52554450 
000047f2 4950415f 
000047f6 3231345f 
000047fa 414e455f 
000047fe 44454c42 
00004802 44545320 
00004806 004e4f5f 
0000480a 01         8568 	.data.b	1
0000480b 0299       8569 	.data.b	153,2
0000480d 5f4d4344   8570 	.data.b	68,67,77,95,80,68,85,82,95,65,80,73,95,52,48,49,95,69,78,65,66,76,69,68,32,83,84,68,95,79,70,70,0
00004811 52554450 
00004815 4950415f 
00004819 3130345f 
0000481d 414e455f 
00004821 44454c42 
00004825 44545320 
00004829 46464f5f 
0000482d 00 
0000482e 01         8571 	.data.b	1
0000482f 029c       8572 	.data.b	156,2
00004831 5f4d4344   8573 	.data.b	68,67,77,95,80,68,85,82,95,65,80,73,95,52,48,51,95,69,78,65,66,76,69,68,32,83,84,68,95,79,70,70,0
00004835 52554450 
00004839 4950415f 
0000483d 3330345f 
00004841 414e455f 
00004845 44454c42 
00004849 44545320 
0000484d 46464f5f 
00004851 00 
00004852 01         8574 	.data.b	1
00004853 02a3       8575 	.data.b	163,2
00004855 5f4d4344   8576 	.data.b	68,67,77,95,78,69,84,95,84,79,66,74,95,65,68,68,66,85,70,70,69,82,95,83,73,90,69,32,51,117,0
00004859 5f54454e 
0000485d 4a424f54 
00004861 4444415f 
00004865 46465542 
00004869 535f5245 
0000486d 20455a49 
00004871 007533 
00004874 01         8577 	.data.b	1
00004875 02ca       8578 	.data.b	202,2
00004877 5f6d6344   8579 	.data.b	68,99,109,95,85,116,105,80,97,105,114,84,121,112,101,40,102,105,114,115,116,84,121,112,101,44,115,101,99,111,110,100,84,121,112,101,41,32,115,116,114,117,99,116,32,123,32,102,105,114,115,116,84,121,112,101,32,70,105,114
0000487b 50697455 
0000487f 54726961 
00004883 28657079 
00004887 73726966 
0000488b 70795474 
0000488f 65732c65 
00004893 646e6f63 
00004897 65707954 
0000489b 74732029 
0000489f 74637572 
000048a3 66207b20 
000048a7 74737269 
000048ab 65707954 
000048af 72694620 
000048b3 203b7473   8580 	.data.b	115,116,59,32,115,101,99,111,110,100,84,121,112,101,32,83,101,99,111,110,100,59,32,125,0
000048b7 6f636573 
000048bb 7954646e 
000048bf 53206570 
000048c3 6e6f6365 

                                                                      Page 237
                                                              C:\Users\Fengyuan\AppData\Local\Temp\gh_00006b81.s
000048c7 7d203b64 
000048cb 00 
000048cc 01         8581 	.data.b	1
000048cd 03af       8582 	.data.b	175,3
000048cf 5f6d6344   8583 	.data.b	68,99,109,95,78,101,116,65,114,69,110,118,78,111,116,105,102,82,101,115,117,108,116,84,121,112,101,32,83,116,100,95,82,101,116,117,114,110,84,121,112,101,0
000048d3 4174654e 
000048d7 766e4572 
000048db 69746f4e 
000048df 73655266 
000048e3 54746c75 
000048e7 20657079 
000048eb 5f647453 
000048ef 75746552 
000048f3 79546e72 
000048f7 006570 
000048fa 04         8584 	.data.b	4
000048fb 04         8585 	.data.b	4
000048fc 03         8586 	.data.b	3
000048fd 23         8587 	.data.b	35
000048fe 51         8588 	.data.b	81
000048ff 04         8589 	.data.b	4
00004900 03         8590 	.data.b	3
00004901 24         8591 	.data.b	36
00004902 52         8592 	.data.b	82
00004903 04         8593 	.data.b	4
00004904 03         8594 	.data.b	3
00004905 25         8595 	.data.b	37
00004906 53         8596 	.data.b	83
00004907 03         8597 	.data.b	3
00004908 2c         8598 	.data.b	44
00004909 15         8599 	.data.b	21
0000490a 04         8600 	.data.b	4
0000490b 03         8601 	.data.b	3
0000490c 038d       8602 	.data.b	141,3
0000490e 15         8603 	.data.b	21
0000490f 04         8604 	.data.b	4
00004910 04         8605 	.data.b	4
00004911 04         8606 	.data.b	4
00004912 03         8607 	.data.b	3
00004913 0394       8608 	.data.b	148,3
00004915 54         8609 	.data.b	84
00004916 03         8610 	.data.b	3
00004917 27         8611 	.data.b	39
00004918 55         8612 	.data.b	85
00004919 01         8613 	.data.b	1
0000491a 03d3       8614 	.data.b	211,3
0000491c 5f4d4544   8615 	.data.b	68,69,77,95,72,32,0
00004920 002048 
00004923 03         8616 	.data.b	3
00004924 03dc       8617 	.data.b	220,3
00004926 56         8618 	.data.b	86
00004927 01         8619 	.data.b	1
00004928 35         8620 	.data.b	53
00004929 5f4d4544   8621 	.data.b	68,69,77,95,84,89,80,69,83,95,72,32,0
0000492d 45505954 
00004931 20485f53 
00004935 00 
00004936 03         8622 	.data.b	3
00004937 42         8623 	.data.b	66
00004938 57         8624 	.data.b	87
00004939 01         8625 	.data.b	1

                                                                      Page 238
                                                              C:\Users\Fengyuan\AppData\Local\Temp\gh_00006b81.s
0000493a 56         8626 	.data.b	86
0000493b 5f4d4544   8627 	.data.b	68,69,77,95,67,70,71,95,86,65,82,73,65,78,84,95,80,79,83,84,66,85,73,76,68,95,76,79,65,68,65,66,76,69,32,83,84,68,95,79,70,70,0
0000493f 5f474643 
00004943 49524156 
00004947 5f544e41 
0000494b 54534f50 
0000494f 4c495542 
00004953 4f4c5f44 
00004957 42414441 
0000495b 5320454c 
0000495f 4f5f4454 
00004963 004646 
00004966 01         8628 	.data.b	1
00004967 57         8629 	.data.b	87
00004968 5f4d4544   8630 	.data.b	68,69,77,95,67,70,71,95,86,65,82,73,65,78,84,95,80,79,83,84,66,85,73,76,68,95,83,69,76,69,67,84,65,66,76,69,32,83,84,68,95,79,70,70,0
0000496c 5f474643 
00004970 49524156 
00004974 5f544e41 
00004978 54534f50 
0000497c 4c495542 
00004980 45535f44 
00004984 5443454c 
00004988 454c4241 
0000498c 44545320 
00004990 46464f5f 
00004994 00 
00004995 01         8631 	.data.b	1
00004996 61         8632 	.data.b	97
00004997 5f4d4544   8633 	.data.b	68,69,77,95,67,70,71,95,83,85,80,80,79,82,84,95,68,69,66,79,85,78,67,69,95,84,73,77,69,95,72,82,32,83,84,68,95,79,70,70,0
0000499b 5f474643 
0000499f 50505553 
000049a3 5f54524f 
000049a7 4f424544 
000049ab 45434e55 
000049af 4d49545f 
000049b3 52485f45 
000049b7 44545320 
000049bb 46464f5f 
000049bf 00 
000049c0 01         8634 	.data.b	1
000049c1 62         8635 	.data.b	98
000049c2 5f4d4544   8636 	.data.b	68,69,77,95,67,70,71,95,83,85,80,80,79,82,84,95,68,69,66,79,85,78,67,69,95,84,73,77,69,95,76,82,32,83,84,68,95,79,70,70,0
000049c6 5f474643 
000049ca 50505553 
000049ce 5f54524f 
000049d2 4f424544 
000049d6 45434e55 
000049da 4d49545f 
000049de 524c5f45 
000049e2 44545320 
000049e6 46464f5f 
000049ea 00 
000049eb 01         8637 	.data.b	1
000049ec 65         8638 	.data.b	101
000049ed 5f4d4544   8639 	.data.b	68,69,77,95,67,70,71,95,65,71,73,78,71,95,48,48,95,83,84,65,82,84,95,84,69,83,84,83,95,84,70,84,79,67,32,83,84,68,95,79,70,70,0
000049f1 5f474643 
000049f5 4e494741 
000049f9 30305f47 
000049fd 4154535f 
00004a01 545f5452 
00004a05 53545345 

                                                                      Page 239
                                                              C:\Users\Fengyuan\AppData\Local\Temp\gh_00006b81.s
00004a09 5446545f 
00004a0d 5320434f 
00004a11 4f5f4454 
00004a15 004646 
00004a18 01         8640 	.data.b	1
00004a19 66         8641 	.data.b	102
00004a1a 5f4d4544   8642 	.data.b	68,69,77,95,67,70,71,95,65,71,73,78,71,95,48,48,95,83,84,65,82,84,95,84,82,73,71,71,69,82,95,80,65,83,83,69,68,32,83,84,68,95,79,78,0
00004a1e 5f474643 
00004a22 4e494741 
00004a26 30305f47 
00004a2a 4154535f 
00004a2e 545f5452 
00004a32 47474952 
00004a36 505f5245 
00004a3a 45535341 
00004a3e 54532044 
00004a42 4e4f5f44 
00004a46 00 
00004a47 01         8643 	.data.b	1
00004a48 67         8644 	.data.b	103
00004a49 5f4d4544   8645 	.data.b	68,69,77,95,67,70,71,95,65,71,73,78,71,95,65,70,84,69,82,95,72,69,65,76,73,78,71,32,83,84,68,95,79,70,70,0
00004a4d 5f474643 
00004a51 4e494741 
00004a55 46415f47 
00004a59 5f524554 
00004a5d 4c414548 
00004a61 20474e49 
00004a65 5f445453 
00004a69 0046464f 
00004a6d 01         8646 	.data.b	1
00004a6e 68         8647 	.data.b	104
00004a6f 5f4d4544   8648 	.data.b	68,69,77,95,67,70,71,95,65,71,73,78,71,95,65,70,84,69,82,95,72,69,65,76,73,78,71,95,65,76,76,95,68,84,67,32,83,84,68,95,79,70,70,0
00004a73 5f474643 
00004a77 4e494741 
00004a7b 46415f47 
00004a7f 5f524554 
00004a83 4c414548 
00004a87 5f474e49 
00004a8b 5f4c4c41 
00004a8f 20435444 
00004a93 5f445453 
00004a97 0046464f 
00004a9b 01         8649 	.data.b	1
00004a9c 6a         8650 	.data.b	106
00004a9d 5f4d4544   8651 	.data.b	68,69,77,95,67,70,71,95,65,71,73,78,71,95,78,69,88,84,95,84,69,83,84,83,95,84,70,84,79,67,32,83,84,68,95,79,70,70,0
00004aa1 5f474643 
00004aa5 4e494741 
00004aa9 454e5f47 
00004aad 545f5458 
00004ab1 53545345 
00004ab5 5446545f 
00004ab9 5320434f 
00004abd 4f5f4454 
00004ac1 004646 
00004ac4 01         8652 	.data.b	1
00004ac5 6b         8653 	.data.b	107
00004ac6 5f4d4544   8654 	.data.b	68,69,77,95,67,70,71,95,65,71,73,78,71,95,78,69,88,84,95,84,69,83,84,83,95,84,78,67,84,79,67,32,83,84,68,95,79,70,70,0
00004aca 5f474643 
00004ace 4e494741 
00004ad2 454e5f47 
00004ad6 545f5458 

                                                                      Page 240
                                                              C:\Users\Fengyuan\AppData\Local\Temp\gh_00006b81.s
00004ada 53545345 
00004ade 434e545f 
00004ae2 20434f54 
00004ae6 5f445453 
00004aea 0046464f 
00004aee 01         8655 	.data.b	1
00004aef 6e         8656 	.data.b	110
00004af0 5f4d4544   8657 	.data.b	68,69,77,95,67,70,71,95,65,71,73,78,71,95,83,84,65,82,84,95,84,69,83,84,83,95,84,70,84,79,67,32,83,84,68,95,79,70,70,0
00004af4 5f474643 
00004af8 4e494741 
00004afc 54535f47 
00004b00 5f545241 
00004b04 54534554 
00004b08 46545f53 
00004b0c 20434f54 
00004b10 5f445453 
00004b14 0046464f 
00004b18 01         8658 	.data.b	1
00004b19 6f         8659 	.data.b	111
00004b1a 5f4d4544   8660 	.data.b	68,69,77,95,67,70,71,95,65,71,73,78,71,95,83,84,65,82,84,95,84,82,73,71,71,69,82,95,80,65,83,83,69,68,32,83,84,68,95,79,78,0
00004b1e 5f474643 
00004b22 4e494741 
00004b26 54535f47 
00004b2a 5f545241 
00004b2e 47495254 
00004b32 5f524547 
00004b36 53534150 
00004b3a 53204445 
00004b3e 4f5f4454 
00004b42 004e 
00004b44 01         8661 	.data.b	1
00004b45 77         8662 	.data.b	119
00004b46 5f4d4544   8663 	.data.b	68,69,77,95,67,70,71,95,67,65,80,84,85,82,69,95,69,88,84,68,65,84,65,95,84,69,83,84,70,65,73,76,69,68,32,83,84,68,95,79,70,70,0
00004b4a 5f474643 
00004b4e 54504143 
00004b52 5f455255 
00004b56 44545845 
00004b5a 5f415441 
00004b5e 54534554 
00004b62 4c494146 
00004b66 53204445 
00004b6a 4f5f4454 
00004b6e 004646 
00004b71 01         8664 	.data.b	1
00004b72 79         8665 	.data.b	121
00004b73 5f4d4544   8666 	.data.b	68,69,77,95,67,70,71,95,67,65,80,84,85,82,69,95,70,82,69,69,90,69,70,95,84,69,83,84,70,65,73,76,69,68,32,83,84,68,95,79,70,70,0
00004b77 5f474643 
00004b7b 54504143 
00004b7f 5f455255 
00004b83 45455246 
00004b87 5f46455a 
00004b8b 54534554 
00004b8f 4c494146 
00004b93 53204445 
00004b97 4f5f4454 
00004b9b 004646 
00004b9e 01         8667 	.data.b	1
00004b9f 7a         8668 	.data.b	122
00004ba0 5f4d4544   8669 	.data.b	68,69,77,95,67,70,71,95,67,76,69,65,82,95,65,76,76,95,68,84,67,83,32,83,84,68,95,79,78,0
00004ba4 5f474643 
00004ba8 41454c43 

                                                                      Page 241
                                                              C:\Users\Fengyuan\AppData\Local\Temp\gh_00006b81.s
00004bac 4c415f52 
00004bb0 54445f4c 
00004bb4 53205343 
00004bb8 4f5f4454 
00004bbc 004e 
00004bbe 01         8670 	.data.b	1
00004bbf 7b         8671 	.data.b	123
00004bc0 5f4d4544   8672 	.data.b	68,69,77,95,67,70,71,95,67,76,69,65,82,95,71,82,79,85,80,95,68,84,67,83,32,83,84,68,95,79,78,0
00004bc4 5f474643 
00004bc8 41454c43 
00004bcc 52475f52 
00004bd0 5f50554f 
00004bd4 53435444 
00004bd8 44545320 
00004bdc 004e4f5f 
00004be0 01         8673 	.data.b	1
00004be1 7c         8674 	.data.b	124
00004be2 5f4d4544   8675 	.data.b	68,69,77,95,67,70,71,95,67,76,69,65,82,95,73,77,77,69,68,73,65,84,69,95,82,69,83,80,79,78,83,69,32,83,84,68,95,79,78,0
00004be6 5f474643 
00004bea 41454c43 
00004bee 4d495f52 
00004bf2 4944454d 
00004bf6 5f455441 
00004bfa 50534552 
00004bfe 45534e4f 
00004c02 44545320 
00004c06 004e4f5f 
00004c0a 01         8676 	.data.b	1
00004c0b 7d         8677 	.data.b	125
00004c0c 5f4d4544   8678 	.data.b	68,69,77,95,67,70,71,95,67,76,69,65,82,95,78,86,95,69,78,68,95,82,69,83,80,79,78,83,69,32,83,84,68,95,79,70,70,0
00004c10 5f474643 
00004c14 41454c43 
00004c18 564e5f52 
00004c1c 444e455f 
00004c20 5345525f 
00004c24 534e4f50 
00004c28 54532045 
00004c2c 464f5f44 
00004c30 0046 
00004c32 01         8679 	.data.b	1
00004c33 7e         8680 	.data.b	126
00004c34 5f4d4544   8681 	.data.b	68,69,77,95,67,70,71,95,67,76,69,65,82,95,78,86,95,83,84,65,82,84,95,82,69,83,80,79,78,83,69,32,83,84,68,95,79,70,70,0
00004c38 5f474643 
00004c3c 41454c43 
00004c40 564e5f52 
00004c44 4154535f 
00004c48 525f5452 
00004c4c 4f505345 
00004c50 2045534e 
00004c54 5f445453 
00004c58 0046464f 
00004c5c 01         8682 	.data.b	1
00004c5d 7f         8683 	.data.b	127
00004c5e 5f4d4544   8684 	.data.b	68,69,77,95,67,70,71,95,67,76,69,65,82,95,79,66,68,73,73,95,71,82,79,85,80,95,68,84,67,83,32,83,84,68,95,79,78,0
00004c62 5f474643 
00004c66 41454c43 
00004c6a 424f5f52 
00004c6e 5f494944 
00004c72 554f5247 
00004c76 54445f50 
00004c7a 53205343 

                                                                      Page 242
                                                              C:\Users\Fengyuan\AppData\Local\Temp\gh_00006b81.s
00004c7e 4f5f4454 
00004c82 004e 
00004c84 01         8685 	.data.b	1
00004c85 0180       8686 	.data.b	128,1
00004c87 5f4d4544   8687 	.data.b	68,69,77,95,67,70,71,95,67,76,69,65,82,95,82,69,73,78,73,84,95,66,69,70,79,82,69,95,82,69,83,80,79,78,83,69,32,83,84,68,95,79,78,0
00004c8b 5f474643 
00004c8f 41454c43 
00004c93 45525f52 
00004c97 54494e49 
00004c9b 4645425f 
00004c9f 5f45524f 
00004ca3 50534552 
00004ca7 45534e4f 
00004cab 44545320 
00004caf 004e4f5f 
00004cb3 01         8688 	.data.b	1
00004cb4 0181       8689 	.data.b	129,1
00004cb6 5f4d4544   8690 	.data.b	68,69,77,95,67,70,71,95,67,76,69,65,82,95,83,73,78,71,76,69,95,68,84,67,83,32,83,84,68,95,79,78,0
00004cba 5f474643 
00004cbe 41454c43 
00004cc2 49535f52 
00004cc6 454c474e 
00004cca 4354445f 
00004cce 54532053 
00004cd2 4e4f5f44 
00004cd6 00 
00004cd7 01         8691 	.data.b	1
00004cd8 0182       8692 	.data.b	130,1
00004cda 5f4d4544   8693 	.data.b	68,69,77,95,67,70,71,95,67,76,69,65,82,95,87,87,72,79,66,68,95,71,82,79,85,80,95,68,84,67,83,32,83,84,68,95,79,78,0
00004cde 5f474643 
00004ce2 41454c43 
00004ce6 57575f52 
00004cea 44424f48 
00004cee 4f52475f 
00004cf2 445f5055 
00004cf6 20534354 
00004cfa 5f445453 
00004cfe 004e4f 
00004d01 01         8694 	.data.b	1
00004d02 0183       8695 	.data.b	131,1
00004d04 5f4d4544   8696 	.data.b	68,69,77,95,67,70,71,95,68,65,84,65,95,65,71,73,78,71,67,84,82,32,83,84,68,95,79,70,70,0
00004d08 5f474643 
00004d0c 41544144 
00004d10 4947415f 
00004d14 5443474e 
00004d18 54532052 
00004d1c 464f5f44 
00004d20 0046 
00004d22 01         8697 	.data.b	1
00004d23 0184       8698 	.data.b	132,1
00004d25 5f4d4544   8699 	.data.b	68,69,77,95,67,70,71,95,68,65,84,65,95,65,71,73,78,71,67,84,82,95,73,78,86,69,82,84,69,68,32,83,84,68,95,79,70,70,0
00004d29 5f474643 
00004d2d 41544144 
00004d31 4947415f 
00004d35 5443474e 
00004d39 4e495f52 
00004d3d 54524556 
00004d41 53204445 
00004d45 4f5f4454 
00004d49 004646 
00004d4c 01         8700 	.data.b	1

                                                                      Page 243
                                                              C:\Users\Fengyuan\AppData\Local\Temp\gh_00006b81.s
00004d4d 0186       8701 	.data.b	134,1
00004d4f 5f4d4544   8702 	.data.b	68,69,77,95,67,70,71,95,68,65,84,65,95,67,85,82,82,69,78,84,95,70,68,67,32,83,84,68,95,79,70,70,0
00004d53 5f474643 
00004d57 41544144 
00004d5b 5255435f 
00004d5f 544e4552 
00004d63 4344465f 
00004d67 44545320 
00004d6b 46464f5f 
00004d6f 00 
00004d70 01         8703 	.data.b	1
00004d71 0189       8704 	.data.b	137,1
00004d73 5f4d4544   8705 	.data.b	68,69,77,95,67,70,71,95,68,65,84,65,95,67,89,67,76,69,83,95,83,73,78,67,69,95,70,73,82,83,84,95,70,65,73,76,69,68,32,83,84,68,95,79,70,70,0
00004d77 5f474643 
00004d7b 41544144 
00004d7f 4359435f 
00004d83 5f53454c 
00004d87 434e4953 
00004d8b 49465f45 
00004d8f 5f545352 
00004d93 4c494146 
00004d97 53204445 
00004d9b 4f5f4454 
00004d9f 004646 
00004da2 01         8706 	.data.b	1
00004da3 018b       8707 	.data.b	139,1
00004da5 5f4d4544   8708 	.data.b	68,69,77,95,67,70,71,95,68,65,84,65,95,67,89,67,76,69,83,95,83,73,78,67,69,95,76,65,83,84,95,70,65,73,76,69,68,32,83,84,68,95,79,70,70,0
00004da9 5f474643 
00004dad 41544144 
00004db1 4359435f 
00004db5 5f53454c 
00004db9 434e4953 
00004dbd 414c5f45 
00004dc1 465f5453 
00004dc5 454c4941 
00004dc9 54532044 
00004dcd 464f5f44 
00004dd1 0046 
00004dd3 01         8709 	.data.b	1
00004dd4 018e       8710 	.data.b	142,1
00004dd6 5f4d4544   8711 	.data.b	68,69,77,95,67,70,71,95,68,65,84,65,95,67,89,67,76,69,83,95,84,69,83,84,69,68,95,83,73,78,67,69,95,76,65,83,84,95,70,65,73,76,69,68,32,83,84,68,95,79,70,70,0
00004dda 5f474643 
00004dde 41544144 
00004de2 4359435f 
00004de6 5f53454c 
00004dea 54534554 
00004dee 535f4445 
00004df2 45434e49 
00004df6 53414c5f 
00004dfa 41465f54 
00004dfe 44454c49 
00004e02 44545320 
00004e06 46464f5f 
00004e0a 00 
00004e0b 01         8712 	.data.b	1
00004e0c 018f       8713 	.data.b	143,1
00004e0e 5f4d4544   8714 	.data.b	68,69,77,95,67,70,71,95,68,65,84,65,95,68,65,71,95,69,88,84,69,78,68,69,68,95,69,78,86,95,68,65,84,65,32,83,84,68,95,79,70,70,0
00004e12 5f474643 
00004e16 41544144 
00004e1a 4741445f 
00004e1e 5458455f 

                                                                      Page 244
                                                              C:\Users\Fengyuan\AppData\Local\Temp\gh_00006b81.s
00004e22 45444e45 
00004e26 4e455f44 
00004e2a 41445f56 
00004e2e 53204154 
00004e32 4f5f4454 
00004e36 004646 
00004e39 01         8715 	.data.b	1
00004e3a 0190       8716 	.data.b	144,1
00004e3c 5f4d4544   8717 	.data.b	68,69,77,95,67,70,71,95,68,65,84,65,95,68,65,71,95,83,84,65,78,68,65,82,68,95,69,78,86,95,68,65,84,65,32,83,84,68,95,79,70,70,0
00004e40 5f474643 
00004e44 41544144 
00004e48 4741445f 
00004e4c 4154535f 
00004e50 5241444e 
00004e54 4e455f44 
00004e58 41445f56 
00004e5c 53204154 
00004e60 4f5f4454 
00004e64 004646 
00004e67 01         8718 	.data.b	1
00004e68 0193       8719 	.data.b	147,1
00004e6a 5f4d4544   8720 	.data.b	68,69,77,95,67,70,71,95,68,65,84,65,95,72,69,65,76,73,78,71,67,84,82,95,68,79,87,78,67,78,84,32,83,84,68,95,79,70,70,0
00004e6e 5f474643 
00004e72 41544144 
00004e76 4145485f 
00004e7a 474e494c 
00004e7e 5f525443 
00004e82 4e574f44 
00004e86 20544e43 
00004e8a 5f445453 
00004e8e 0046464f 
00004e92 01         8721 	.data.b	1
00004e93 0194       8722 	.data.b	148,1
00004e95 5f4d4544   8723 	.data.b	68,69,77,95,67,70,71,95,68,65,84,65,95,77,65,88,95,70,68,67,95,68,85,82,73,78,71,95,67,85,82,82,69,78,84,95,67,89,67,76,69,32,83,84,68,95,79,70,70,0
00004e99 5f474643 
00004e9d 41544144 
00004ea1 58414d5f 
00004ea5 4344465f 
00004ea9 5255445f 
00004ead 5f474e49 
00004eb1 52525543 
00004eb5 5f544e45 
00004eb9 4c435943 
00004ebd 54532045 
00004ec1 464f5f44 
00004ec5 0046 
00004ec7 01         8724 	.data.b	1
00004ec8 0195       8725 	.data.b	149,1
00004eca 5f4d4544   8726 	.data.b	68,69,77,95,67,70,71,95,68,65,84,65,95,77,65,88,95,70,68,67,95,83,73,78,67,69,95,76,65,83,84,95,67,76,69,65,82,32,83,84,68,95,79,70,70,0
00004ece 5f474643 
00004ed2 41544144 
00004ed6 58414d5f 
00004eda 4344465f 
00004ede 4e49535f 
00004ee2 4c5f4543 
00004ee6 5f545341 
00004eea 41454c43 
00004eee 54532052 
00004ef2 464f5f44 
00004ef6 0046 
00004ef8 01         8727 	.data.b	1

                                                                      Page 245
                                                              C:\Users\Fengyuan\AppData\Local\Temp\gh_00006b81.s
00004ef9 0199       8728 	.data.b	153,1
00004efb 5f4d4544   8729 	.data.b	68,69,77,95,67,70,71,95,68,65,84,65,95,79,67,67,67,84,82,32,83,84,68,95,79,70,70,0
00004eff 5f474643 
00004f03 41544144 
00004f07 43434f5f 
00004f0b 20525443 
00004f0f 5f445453 
00004f13 0046464f 
00004f17 01         8730 	.data.b	1
00004f18 019a       8731 	.data.b	154,1
00004f1a 5f4d4544   8732 	.data.b	68,69,77,95,67,70,71,95,68,65,84,65,95,79,67,67,67,84,82,95,50,66,89,84,69,32,83,84,68,95,79,70,70,0
00004f1e 5f474643 
00004f22 41544144 
00004f26 43434f5f 
00004f2a 5f525443 
00004f2e 54594232 
00004f32 54532045 
00004f36 464f5f44 
00004f3a 0046 
00004f3c 01         8733 	.data.b	1
00004f3d 019b       8734 	.data.b	155,1
00004f3f 5f4d4544   8735 	.data.b	68,69,77,95,67,70,71,95,68,65,84,65,95,79,86,70,76,73,78,68,32,83,84,68,95,79,70,70,0
00004f43 5f474643 
00004f47 41544144 
00004f4b 46564f5f 
00004f4f 444e494c 
00004f53 44545320 
00004f57 46464f5f 
00004f5b 00 
00004f5c 01         8736 	.data.b	1
00004f5d 01a0       8737 	.data.b	160,1
00004f5f 5f4d4544   8738 	.data.b	68,69,77,95,67,70,71,95,68,73,83,80,76,65,67,69,77,69,78,84,95,70,65,76,76,66,65,67,75,95,79,76,68,69,83,84,32,83,84,68,95,79,70,70,0
00004f63 5f474643 
00004f67 50534944 
00004f6b 4543414c 
00004f6f 544e454d 
00004f73 4c41465f 
00004f77 4341424c 
00004f7b 4c4f5f4b 
00004f7f 54534544 
00004f83 44545320 
00004f87 46464f5f 
00004f8b 00 
00004f8c 01         8739 	.data.b	1
00004f8d 01a1       8740 	.data.b	161,1
00004f8f 5f4d4544   8741 	.data.b	68,69,77,95,67,70,71,95,68,73,83,80,76,65,67,69,77,69,78,84,95,80,82,69,70,69,82,95,80,65,83,83,73,86,69,32,83,84,68,95,79,78,0
00004f93 5f474643 
00004f97 50534944 
00004f9b 4543414c 
00004f9f 544e454d 
00004fa3 4552505f 
00004fa7 5f524546 
00004fab 53534150 
00004faf 20455649 
00004fb3 5f445453 
00004fb7 004e4f 
00004fba 01         8742 	.data.b	1
00004fbb 01a2       8743 	.data.b	162,1
00004fbd 5f4d4544   8744 	.data.b	68,69,77,95,67,70,71,95,68,73,83,80,76,65,67,69,77,69,78,84,95,84,78,67,84,79,67,95,73,83,95,80,65,83,83,73,86,69,32,83,84,68,95,79,70,70,0
00004fc1 5f474643 
00004fc5 50534944 

                                                                      Page 246
                                                              C:\Users\Fengyuan\AppData\Local\Temp\gh_00006b81.s
00004fc9 4543414c 
00004fcd 544e454d 
00004fd1 434e545f 
00004fd5 5f434f54 
00004fd9 505f5349 
00004fdd 49535341 
00004fe1 53204556 
00004fe5 4f5f4454 
00004fe9 004646 
00004fec 01         8745 	.data.b	1
00004fed 01a3       8746 	.data.b	163,1
00004fef 5f4d4544   8747 	.data.b	68,69,77,95,67,70,71,95,72,65,83,95,74,49,57,51,57,95,78,79,68,69,32,83,84,68,95,79,70,70,0
00004ff3 5f474643 
00004ff7 5f534148 
00004ffb 3339314a 
00004fff 4f4e5f39 
00005003 53204544 
00005007 4f5f4454 
0000500b 004646 
0000500e 01         8748 	.data.b	1
0000500f 01a5       8749 	.data.b	165,1
00005011 5f4d4544   8750 	.data.b	68,69,77,95,67,70,71,95,73,83,67,79,78,83,84,95,65,86,65,73,76,65,66,76,69,73,78,86,65,82,73,65,78,84,32,83,84,68,95,79,78,0
00005015 5f474643 
00005019 4f435349 
0000501d 5f54534e 
00005021 49415641 
00005025 4c42414c 
00005029 564e4945 
0000502d 41495241 
00005031 5320544e 
00005035 4f5f4454 
00005039 004e 
0000503b 01         8751 	.data.b	1
0000503c 01b4       8752 	.data.b	180,1
0000503e 5f4d4544   8753 	.data.b	68,69,77,95,67,70,71,95,78,79,84,73,70,89,95,74,49,57,51,57,68,67,77,32,83,84,68,95,79,70,70,0
00005042 5f474643 
00005046 49544f4e 
0000504a 4a5f5946 
0000504e 39333931 
00005052 204d4344 
00005056 5f445453 
0000505a 0046464f 
0000505e 01         8754 	.data.b	1
0000505f 01b5       8755 	.data.b	181,1
00005061 5f4d4544   8756 	.data.b	68,69,77,95,67,70,71,95,78,79,84,73,70,89,95,74,49,57,51,57,68,84,67,95,83,84,65,84,85,83,32,83,84,68,95,79,70,70,0
00005065 5f474643 
00005069 49544f4e 
0000506d 4a5f5946 
00005071 39333931 
00005075 5f435444 
00005079 54415453 
0000507d 53205355 
00005081 4f5f4454 
00005085 004646 
00005088 01         8757 	.data.b	1
00005089 01b7       8758 	.data.b	183,1
0000508b 5f4d4544   8759 	.data.b	68,69,77,95,67,70,71,95,80,82,79,67,69,83,83,95,67,68,84,67,95,65,76,76,95,68,84,67,32,83,84,68,95,79,70,70,0
0000508f 5f474643 
00005093 434f5250 
00005097 5f535345 
0000509b 43544443 

                                                                      Page 247
                                                              C:\Users\Fengyuan\AppData\Local\Temp\gh_00006b81.s
0000509f 4c4c415f 
000050a3 4354445f 
000050a7 44545320 
000050ab 46464f5f 
000050af 00 
000050b0 01         8760 	.data.b	1
000050b1 01b8       8761 	.data.b	184,1
000050b3 5f4d4544   8762 	.data.b	68,69,77,95,67,70,71,95,80,82,79,67,69,83,83,95,67,68,84,67,95,83,84,79,82,69,68,79,78,76,89,32,83,84,68,95,79,78,0
000050b7 5f474643 
000050bb 434f5250 
000050bf 5f535345 
000050c3 43544443 
000050c7 4f54535f 
000050cb 4f444552 
000050cf 20594c4e 
000050d3 5f445453 
000050d7 004e4f 
000050da 01         8763 	.data.b	1
000050db 01b9       8764 	.data.b	185,1
000050dd 5f4d4544   8765 	.data.b	68,69,77,95,67,70,71,95,80,82,79,67,69,83,83,95,79,67,67,84,82,95,67,79,78,70,73,82,77,69,68,32,83,84,68,95,79,70,70,0
000050e1 5f474643 
000050e5 434f5250 
000050e9 5f535345 
000050ed 5443434f 
000050f1 4f435f52 
000050f5 5249464e 
000050f9 2044454d 
000050fd 5f445453 
00005101 0046464f 
00005105 01         8766 	.data.b	1
00005106 01ba       8767 	.data.b	186,1
00005108 5f4d4544   8768 	.data.b	68,69,77,95,67,70,71,95,80,82,79,67,69,83,83,95,79,67,67,84,82,95,84,69,83,84,70,65,73,76,69,68,32,83,84,68,95,79,78,0
0000510c 5f474643 
00005110 434f5250 
00005114 5f535345 
00005118 5443434f 
0000511c 45545f52 
00005120 41465453 
00005124 44454c49 
00005128 44545320 
0000512c 004e4f5f 
00005130 01         8769 	.data.b	1
00005131 01bb       8770 	.data.b	187,1
00005133 5f4d4544   8771 	.data.b	68,69,77,95,67,70,71,95,80,82,79,67,69,83,83,95,80,68,84,67,95,65,76,76,95,68,84,67,32,83,84,68,95,79,70,70,0
00005137 5f474643 
0000513b 434f5250 
0000513f 5f535345 
00005143 43544450 
00005147 4c4c415f 
0000514b 4354445f 
0000514f 44545320 
00005153 46464f5f 
00005157 00 
00005158 01         8772 	.data.b	1
00005159 01bc       8773 	.data.b	188,1
0000515b 5f4d4544   8774 	.data.b	68,69,77,95,67,70,71,95,80,82,79,67,69,83,83,95,80,68,84,67,95,83,84,79,82,69,68,79,78,76,89,32,83,84,68,95,79,78,0
0000515f 5f474643 
00005163 434f5250 
00005167 5f535345 
0000516b 43544450 
0000516f 4f54535f 

                                                                      Page 248
                                                              C:\Users\Fengyuan\AppData\Local\Temp\gh_00006b81.s
00005173 4f444552 
00005177 20594c4e 
0000517b 5f445453 
0000517f 004e4f 
00005182 01         8775 	.data.b	1
00005183 01bd       8776 	.data.b	189,1
00005185 5f4d4544   8777 	.data.b	68,69,77,95,67,70,71,95,80,82,79,67,69,83,83,95,80,73,68,52,49,95,67,79,77,80,82,69,72,69,78,83,73,86,69,95,67,79,77,80,76,69,84,69,32,83,84,68,95,79,70,70,0
00005189 5f474643 
0000518d 434f5250 
00005191 5f535345 
00005195 34444950 
00005199 4f435f31 
0000519d 4552504d 
000051a1 534e4548 
000051a5 5f455649 
000051a9 504d4f43 
000051ad 4554454c 
000051b1 44545320 
000051b5 46464f5f 
000051b9 00 
000051ba 01         8778 	.data.b	1
000051bb 01be       8779 	.data.b	190,1
000051bd 5f4d4544   8780 	.data.b	68,69,77,95,67,70,71,95,80,82,79,67,69,83,83,95,84,70,83,76,67,95,65,76,76,95,68,84,67,32,83,84,68,95,79,70,70,0
000051c1 5f474643 
000051c5 434f5250 
000051c9 5f535345 
000051cd 4c534654 
000051d1 4c415f43 
000051d5 54445f4c 
000051d9 54532043 
000051dd 464f5f44 
000051e1 0046 
000051e3 01         8781 	.data.b	1
000051e4 01bf       8782 	.data.b	191,1
000051e6 5f4d4544   8783 	.data.b	68,69,77,95,67,70,71,95,80,82,79,67,69,83,83,95,84,70,83,76,67,95,67,76,69,65,82,79,78,76,89,32,83,84,68,95,79,78,0
000051ea 5f474643 
000051ee 434f5250 
000051f2 5f535345 
000051f6 4c534654 
000051fa 4c435f43 
000051fe 4f524145 
00005202 20594c4e 
00005206 5f445453 
0000520a 004e4f 
0000520d 01         8784 	.data.b	1
0000520e 01c0       8785 	.data.b	192,1
00005210 5f4d4544   8786 	.data.b	68,69,77,95,67,70,71,95,80,82,79,67,69,83,83,95,84,70,83,76,67,95,83,84,79,82,69,68,79,78,76,89,32,83,84,68,95,79,70,70,0
00005214 5f474643 
00005218 434f5250 
0000521c 5f535345 
00005220 4c534654 
00005224 54535f43 
00005228 4445524f 
0000522c 594c4e4f 
00005230 44545320 
00005234 46464f5f 
00005238 00 
00005239 01         8787 	.data.b	1
0000523a 01c1       8788 	.data.b	193,1
0000523c 5f4d4544   8789 	.data.b	68,69,77,95,67,70,71,95,80,82,79,67,69,83,83,95,87,73,82,95,65,76,76,95,68,84,67,32,83,84,68,95,79,70,70,0
00005240 5f474643 

                                                                      Page 249
                                                              C:\Users\Fengyuan\AppData\Local\Temp\gh_00006b81.s
00005244 434f5250 
00005248 5f535345 
0000524c 5f524957 
00005250 5f4c4c41 
00005254 20435444 
00005258 5f445453 
0000525c 0046464f 
00005260 01         8790 	.data.b	1
00005261 01c2       8791 	.data.b	194,1
00005263 5f4d4544   8792 	.data.b	68,69,77,95,67,70,71,95,80,82,79,67,69,83,83,95,87,73,82,95,83,84,79,82,69,68,79,78,76,89,32,83,84,68,95,79,78,0
00005267 5f474643 
0000526b 434f5250 
0000526f 5f535345 
00005273 5f524957 
00005277 524f5453 
0000527b 4e4f4445 
0000527f 5320594c 
00005283 4f5f4454 
00005287 004e 
00005289 01         8793 	.data.b	1
0000528a 01c3       8794 	.data.b	195,1
0000528c 5f4d4544   8795 	.data.b	68,69,77,95,67,70,71,95,82,69,80,79,82,84,95,66,76,73,78,75,73,78,71,95,77,73,76,95,65,83,95,65,67,84,73,86,69,32,83,84,68,95,79,78,0
00005290 5f474643 
00005294 4f504552 
00005298 425f5452 
0000529c 4b4e494c 
000052a0 5f474e49 
000052a4 5f4c494d 
000052a8 415f5341 
000052ac 56495443 
000052b0 54532045 
000052b4 4e4f5f44 
000052b8 00 
000052b9 01         8796 	.data.b	1
000052ba 01c4       8797 	.data.b	196,1
000052bc 5f4d4544   8798 	.data.b	68,69,77,95,67,70,71,95,82,69,83,69,84,95,68,69,66,79,85,78,67,69,95,79,78,95,68,73,83,65,66,76,69,95,69,78,65,66,76,69,95,67,79,78,68,73,84,73,79,78,83,32,83,84,68,95,79,78,0
000052c0 5f474643 
000052c4 45534552 
000052c8 45445f54 
000052cc 4e554f42 
000052d0 4f5f4543 
000052d4 49445f4e 
000052d8 4c424153 
000052dc 4e455f45 
000052e0 454c4241 
000052e4 4e4f435f 
000052e8 49544944 
000052ec 20534e4f 
000052f0 5f445453 
000052f4 004e4f 
000052f7 01         8799 	.data.b	1
000052f8 01c5       8800 	.data.b	197,1
000052fa 5f4d4544   8801 	.data.b	68,69,77,95,67,70,71,95,82,69,83,69,84,95,68,69,66,79,85,78,67,69,95,79,78,95,69,78,65,66,76,69,95,69,78,65,66,76,69,95,67,79,78,68,73,84,73,79,78,83,32,83,84,68,95,79,70,70,0
000052fe 5f474643 
00005302 45534552 
00005306 45445f54 
0000530a 4e554f42 
0000530e 4f5f4543 
00005312 4e455f4e 
00005316 454c4241 
0000531a 414e455f 

                                                                      Page 250
                                                              C:\Users\Fengyuan\AppData\Local\Temp\gh_00006b81.s
0000531e 5f454c42 
00005322 444e4f43 
00005326 4f495449 
0000532a 5320534e 
0000532e 4f5f4454 
00005332 004646 
00005335 01         8802 	.data.b	1
00005336 01c6       8803 	.data.b	198,1
00005338 5f4d4544   8804 	.data.b	68,69,77,95,67,70,71,95,83,65,70,69,95,66,83,87,95,77,79,68,69,32,83,84,68,95,79,70,70,0
0000533c 5f474643 
00005340 45464153 
00005344 5753425f 
00005348 444f4d5f 
0000534c 54532045 
00005350 464f5f44 
00005354 0046 
00005356 01         8805 	.data.b	1
00005357 01c7       8806 	.data.b	199,1
00005359 5f4d4544   8807 	.data.b	68,69,77,95,67,70,71,95,83,84,79,82,65,71,69,95,65,84,95,67,79,78,70,73,82,77,69,68,32,83,84,68,95,79,70,70,0
0000535d 5f474643 
00005361 524f5453 
00005365 5f454741 
00005369 435f5441 
0000536d 49464e4f 
00005371 44454d52 
00005375 44545320 
00005379 46464f5f 
0000537d 00 
0000537e 01         8808 	.data.b	1
0000537f 01c8       8809 	.data.b	200,1
00005381 5f4d4544   8810 	.data.b	68,69,77,95,67,70,71,95,83,84,79,82,65,71,69,95,65,84,95,70,65,73,76,69,68,32,83,84,68,95,79,78,0
00005385 5f474643 
00005389 524f5453 
0000538d 5f454741 
00005391 465f5441 
00005395 454c4941 
00005399 54532044 
0000539d 4e4f5f44 
000053a1 00 
000053a2 01         8811 	.data.b	1
000053a3 01c9       8812 	.data.b	201,1
000053a5 5f4d4544   8813 	.data.b	68,69,77,95,67,70,71,95,83,84,79,82,65,71,69,95,65,84,95,70,68,67,32,83,84,68,95,79,70,70,0
000053a9 5f474643 
000053ad 524f5453 
000053b1 5f454741 
000053b5 465f5441 
000053b9 53204344 
000053bd 4f5f4454 
000053c1 004646 
000053c4 01         8814 	.data.b	1
000053c5 01ca       8815 	.data.b	202,1
000053c7 5f4d4544   8816 	.data.b	68,69,77,95,67,70,71,95,83,84,79,82,65,71,69,95,65,84,95,80,69,78,68,73,78,71,32,83,84,68,95,79,70,70,0
000053cb 5f474643 
000053cf 524f5453 
000053d3 5f454741 
000053d7 505f5441 
000053db 49444e45 
000053df 5320474e 
000053e3 4f5f4454 
000053e7 004646 
000053ea 01         8817 	.data.b	1

                                                                      Page 251
                                                              C:\Users\Fengyuan\AppData\Local\Temp\gh_00006b81.s
000053eb 01cb       8818 	.data.b	203,1
000053ed 5f4d4544   8819 	.data.b	68,69,77,95,67,70,71,95,83,85,80,80,79,82,84,95,65,87,76,32,83,84,68,95,79,70,70,0
000053f1 5f474643 
000053f5 50505553 
000053f9 5f54524f 
000053fd 204c5741 
00005401 5f445453 
00005405 0046464f 
00005409 01         8820 	.data.b	1
0000540a 01cd       8821 	.data.b	205,1
0000540c 5f4d4544   8822 	.data.b	68,69,77,95,67,70,71,95,83,85,80,80,79,82,84,95,67,76,69,65,82,95,80,68,84,67,95,78,79,95,80,70,67,32,83,84,68,95,79,70,70,0
00005410 5f474643 
00005414 50505553 
00005418 5f54524f 
0000541c 41454c43 
00005420 44505f52 
00005424 4e5f4354 
00005428 46505f4f 
0000542c 54532043 
00005430 464f5f44 
00005434 0046 
00005436 01         8823 	.data.b	1
00005437 01ce       8824 	.data.b	206,1
00005439 5f4d4544   8825 	.data.b	68,69,77,95,67,70,71,95,83,85,80,80,79,82,84,95,67,76,69,65,82,95,84,69,83,84,70,65,73,76,69,68,95,79,78,95,79,80,67,89,67,76,69,32,83,84,68,95,79,70,70,0
0000543d 5f474643 
00005441 50505553 
00005445 5f54524f 
00005449 41454c43 
0000544d 45545f52 
00005451 41465453 
00005455 44454c49 
00005459 5f4e4f5f 
0000545d 5943504f 
00005461 20454c43 
00005465 5f445453 
00005469 0046464f 
0000546d 01         8826 	.data.b	1
0000546e 01d0       8827 	.data.b	208,1
00005470 5f4d4544   8828 	.data.b	68,69,77,95,67,70,71,95,83,85,80,80,79,82,84,95,67,79,78,70,73,82,77,69,68,95,83,84,79,82,65,71,69,95,70,82,69,69,90,69,95,70,82,65,77,69,32,83,84,68,95,79,70,70,0
00005474 5f474643 
00005478 50505553 
0000547c 5f54524f 
00005480 464e4f43 
00005484 454d5249 
00005488 54535f44 
0000548c 4741524f 
00005490 52465f45 
00005494 455a4545 
00005498 4152465f 
0000549c 5320454d 
000054a0 4f5f4454 
000054a4 004646 
000054a7 01         8829 	.data.b	1
000054a8 01d1       8830 	.data.b	209,1
000054aa 5f4d4544   8831 	.data.b	68,69,77,95,67,70,71,95,83,85,80,80,79,82,84,95,67,79,78,70,73,82,77,69,68,95,86,73,83,73,66,76,69,95,70,82,69,69,90,69,95,70,82,65,77,69,32,83,84,68,95,79,70,70,0
000054ae 5f474643 
000054b2 50505553 
000054b6 5f54524f 
000054ba 464e4f43 
000054be 454d5249 
000054c2 49565f44 

                                                                      Page 252
                                                              C:\Users\Fengyuan\AppData\Local\Temp\gh_00006b81.s
000054c6 4c424953 
000054ca 52465f45 
000054ce 455a4545 
000054d2 4152465f 
000054d6 5320454d 
000054da 4f5f4454 
000054de 004646 
000054e1 01         8832 	.data.b	1
000054e2 01d9       8833 	.data.b	217,1
000054e4 5f4d4544   8834 	.data.b	68,69,77,95,67,70,71,95,83,85,80,80,79,82,84,95,68,67,77,32,83,84,68,95,79,78,0
000054e8 5f474643 
000054ec 50505553 
000054f0 5f54524f 
000054f4 204d4344 
000054f8 5f445453 
000054fc 004e4f 
000054ff 01         8835 	.data.b	1
00005500 01da       8836 	.data.b	218,1
00005502 5f4d4544   8837 	.data.b	68,69,77,95,67,70,71,95,83,85,80,80,79,82,84,95,68,69,66,79,85,78,67,69,95,67,79,85,78,84,69,82,32,83,84,68,95,79,78,0
00005506 5f474643 
0000550a 50505553 
0000550e 5f54524f 
00005512 4f424544 
00005516 45434e55 
0000551a 554f435f 
0000551e 5245544e 
00005522 44545320 
00005526 004e4f5f 
0000552a 01         8838 	.data.b	1
0000552b 01db       8839 	.data.b	219,1
0000552d 5f4d4544   8840 	.data.b	68,69,77,95,67,70,71,95,83,85,80,80,79,82,84,95,68,69,66,79,85,78,67,69,95,77,79,78,73,84,79,82,73,78,84,69,82,78,65,76,32,83,84,68,95,79,70,70,0
00005531 5f474643 
00005535 50505553 
00005539 5f54524f 
0000553d 4f424544 
00005541 45434e55 
00005545 4e4f4d5f 
00005549 524f5449 
0000554d 45544e49 
00005551 4c414e52 
00005555 44545320 
00005559 46464f5f 
0000555d 00 
0000555e 01         8841 	.data.b	1
0000555f 01dc       8842 	.data.b	220,1
00005561 5f4d4544   8843 	.data.b	68,69,77,95,67,70,71,95,83,85,80,80,79,82,84,95,68,69,66,79,85,78,67,69,95,77,79,78,73,84,79,82,73,78,84,69,82,78,65,76,95,71,69,84,70,68,67,32,83,84,68,95,79,70,70,0
00005565 5f474643 
00005569 50505553 
0000556d 5f54524f 
00005571 4f424544 
00005575 45434e55 
00005579 4e4f4d5f 
0000557d 524f5449 
00005581 45544e49 
00005585 4c414e52 
00005589 5445475f 
0000558d 20434446 
00005591 5f445453 
00005595 0046464f 
00005599 01         8844 	.data.b	1
0000559a 01dd       8845 	.data.b	221,1

                                                                      Page 253
                                                              C:\Users\Fengyuan\AppData\Local\Temp\gh_00006b81.s
0000559c 5f4d4544   8846 	.data.b	68,69,77,95,67,70,71,95,83,85,80,80,79,82,84,95,68,69,66,79,85,78,67,69,95,78,86,32,83,84,68,95,79,70,70,0
000055a0 5f474643 
000055a4 50505553 
000055a8 5f54524f 
000055ac 4f424544 
000055b0 45434e55 
000055b4 20564e5f 
000055b8 5f445453 
000055bc 0046464f 
000055c0 01         8847 	.data.b	1
000055c1 01de       8848 	.data.b	222,1
000055c3 5f4d4544   8849 	.data.b	68,69,77,95,67,70,71,95,83,85,80,80,79,82,84,95,68,69,66,79,85,78,67,69,95,84,73,77,69,32,83,84,68,95,79,70,70,0
000055c7 5f474643 
000055cb 50505553 
000055cf 5f54524f 
000055d3 4f424544 
000055d7 45434e55 
000055db 4d49545f 
000055df 54532045 
000055e3 464f5f44 
000055e7 0046 
000055e9 01         8850 	.data.b	1
000055ea 01df       8851 	.data.b	223,1
000055ec 5f4d4544   8852 	.data.b	68,69,77,95,67,70,71,95,83,85,80,80,79,82,84,95,68,69,76,65,89,95,87,85,67,95,84,79,95,68,67,89,32,83,84,68,95,79,70,70,0
000055f0 5f474643 
000055f4 50505553 
000055f8 5f54524f 
000055fc 414c4544 
00005600 55575f59 
00005604 4f545f43 
00005608 5943445f 
0000560c 44545320 
00005610 46464f5f 
00005614 00 
00005615 01         8853 	.data.b	1
00005616 01e1       8854 	.data.b	225,1
00005618 5f4d4544   8855 	.data.b	68,69,77,95,67,70,71,95,83,85,80,80,79,82,84,95,68,73,83,80,76,65,67,69,77,69,78,84,32,83,84,68,95,79,78,0
0000561c 5f474643 
00005620 50505553 
00005624 5f54524f 
00005628 50534944 
0000562c 4543414c 
00005630 544e454d 
00005634 44545320 
00005638 004e4f5f 
0000563c 01         8856 	.data.b	1
0000563d 01e3       8857 	.data.b	227,1
0000563f 5f4d4544   8858 	.data.b	68,69,77,95,67,70,71,95,83,85,80,80,79,82,84,95,68,84,67,83,85,80,80,82,69,83,83,73,79,78,32,83,84,68,95,79,70,70,0
00005643 5f474643 
00005647 50505553 
0000564b 5f54524f 
0000564f 53435444 
00005653 52505055 
00005657 49535345 
0000565b 53204e4f 
0000565f 4f5f4454 
00005663 004646 
00005666 01         8859 	.data.b	1
00005667 01e4       8860 	.data.b	228,1
00005669 5f4d4544   8861 	.data.b	68,69,77,95,67,70,71,95,83,85,80,80,79,82,84,95,68,84,82,32,83,84,68,95,79,70,70,0
0000566d 5f474643 

                                                                      Page 254
                                                              C:\Users\Fengyuan\AppData\Local\Temp\gh_00006b81.s
00005671 50505553 
00005675 5f54524f 
00005679 20525444 
0000567d 5f445453 
00005681 0046464f 
00005685 01         8862 	.data.b	1
00005686 01e5       8863 	.data.b	229,1
00005688 5f4d4544   8864 	.data.b	68,69,77,95,67,70,71,95,83,85,80,80,79,82,84,95,69,78,65,66,76,69,95,67,79,78,68,73,84,73,79,78,83,32,83,84,68,95,79,70,70,0
0000568c 5f474643 
00005690 50505553 
00005694 5f54524f 
00005698 42414e45 
0000569c 435f454c 
000056a0 49444e4f 
000056a4 4e4f4954 
000056a8 54532053 
000056ac 464f5f44 
000056b0 0046 
000056b2 01         8865 	.data.b	1
000056b3 01e6       8866 	.data.b	230,1
000056b5 5f4d4544   8867 	.data.b	68,69,77,95,67,70,71,95,83,85,80,80,79,82,84,95,69,82,69,67,83,32,83,84,68,95,79,78,0
000056b9 5f474643 
000056bd 50505553 
000056c1 5f54524f 
000056c5 43455245 
000056c9 54532053 
000056cd 4e4f5f44 
000056d1 00 
000056d2 01         8868 	.data.b	1
000056d3 01e7       8869 	.data.b	231,1
000056d5 5f4d4544   8870 	.data.b	68,69,77,95,67,70,71,95,83,85,80,80,79,82,84,95,69,86,69,78,84,65,86,65,73,76,65,66,76,69,32,83,84,68,95,79,70,70,0
000056d9 5f474643 
000056dd 50505553 
000056e1 5f54524f 
000056e5 4e455645 
000056e9 41564154 
000056ed 42414c49 
000056f1 5320454c 
000056f5 4f5f4454 
000056f9 004646 
000056fc 01         8871 	.data.b	1
000056fd 01e8       8872 	.data.b	232,1
000056ff 5f4d4544   8873 	.data.b	68,69,77,95,67,70,71,95,83,85,80,80,79,82,84,95,69,86,69,78,84,65,86,65,73,76,65,66,76,69,95,68,69,70,65,85,76,84,32,83,84,68,95,79,78,0
00005703 5f474643 
00005707 50505553 
0000570b 5f54524f 
0000570f 4e455645 
00005713 41564154 
00005717 42414c49 
0000571b 445f454c 
0000571f 55414645 
00005723 5320544c 
00005727 4f5f4454 
0000572b 004e 
0000572d 01         8874 	.data.b	1
0000572e 01e9       8875 	.data.b	233,1
00005730 5f4d4544   8876 	.data.b	68,69,77,95,67,70,71,95,83,85,80,80,79,82,84,95,69,86,69,78,84,65,86,65,73,76,65,66,76,69,95,78,86,32,83,84,68,95,79,70,70,0
00005734 5f474643 
00005738 50505553 
0000573c 5f54524f 
00005740 4e455645 

                                                                      Page 255
                                                              C:\Users\Fengyuan\AppData\Local\Temp\gh_00006b81.s
00005744 41564154 
00005748 42414c49 
0000574c 4e5f454c 
00005750 54532056 
00005754 464f5f44 
00005758 0046 
0000575a 01         8877 	.data.b	1
0000575b 01ec       8878 	.data.b	236,1
0000575d 5f4d4544   8879 	.data.b	68,69,77,95,67,70,71,95,83,85,80,80,79,82,84,95,70,82,69,69,90,69,70,82,65,77,69,32,83,84,68,95,79,70,70,0
00005761 5f474643 
00005765 50505553 
00005769 5f54524f 
0000576d 45455246 
00005771 5246455a 
00005775 20454d41 
00005779 5f445453 
0000577d 0046464f 
00005781 01         8880 	.data.b	1
00005782 01ed       8881 	.data.b	237,1
00005784 5f4d4544   8882 	.data.b	68,69,77,95,67,70,71,95,83,85,80,80,79,82,84,95,73,78,68,73,67,65,84,79,82,83,32,83,84,68,95,79,70,70,0
00005788 5f474643 
0000578c 50505553 
00005790 5f54524f 
00005794 49444e49 
00005798 4f544143 
0000579c 53205352 
000057a0 4f5f4454 
000057a4 004646 
000057a7 01         8883 	.data.b	1
000057a8 01ee       8884 	.data.b	238,1
000057aa 5f4d4544   8885 	.data.b	68,69,77,95,67,70,71,95,83,85,80,80,79,82,84,95,73,85,77,80,82,32,83,84,68,95,79,70,70,0
000057ae 5f474643 
000057b2 50505553 
000057b6 5f54524f 
000057ba 504d5549 
000057be 54532052 
000057c2 464f5f44 
000057c6 0046 
000057c8 01         8886 	.data.b	1
000057c9 01ef       8887 	.data.b	239,1
000057cb 5f4d4544   8888 	.data.b	68,69,77,95,67,70,71,95,83,85,80,80,79,82,84,95,74,49,57,51,57,32,83,84,68,95,79,70,70,0
000057cf 5f474643 
000057d3 50505553 
000057d7 5f54524f 
000057db 3339314a 
000057df 54532039 
000057e3 464f5f44 
000057e7 0046 
000057e9 01         8889 	.data.b	1
000057ea 01f0       8890 	.data.b	240,1
000057ec 5f4d4544   8891 	.data.b	68,69,77,95,67,70,71,95,83,85,80,80,79,82,84,95,74,49,57,51,57,95,67,76,69,65,82,95,68,84,67,32,83,84,68,95,79,70,70,0
000057f0 5f474643 
000057f4 50505553 
000057f8 5f54524f 
000057fc 3339314a 
00005800 4c435f39 
00005804 5f524145 
00005808 20435444 
0000580c 5f445453 
00005810 0046464f 
00005814 01         8892 	.data.b	1

                                                                      Page 256
                                                              C:\Users\Fengyuan\AppData\Local\Temp\gh_00006b81.s
00005815 01f1       8893 	.data.b	241,1
00005817 5f4d4544   8894 	.data.b	68,69,77,95,67,70,71,95,83,85,80,80,79,82,84,95,74,49,57,51,57,95,68,77,51,49,32,83,84,68,95,79,70,70,0
0000581b 5f474643 
0000581f 50505553 
00005823 5f54524f 
00005827 3339314a 
0000582b 4d445f39 
0000582f 53203133 
00005833 4f5f4454 
00005837 004646 
0000583a 01         8895 	.data.b	1
0000583b 01f2       8896 	.data.b	242,1
0000583d 5f4d4544   8897 	.data.b	68,69,77,95,67,70,71,95,83,85,80,80,79,82,84,95,74,49,57,51,57,95,69,88,80,65,78,68,69,68,95,70,82,69,69,90,69,70,82,65,77,69,32,83,84,68,95,79,70,70,0
00005841 5f474643 
00005845 50505553 
00005849 5f54524f 
0000584d 3339314a 
00005851 58455f39 
00005855 444e4150 
00005859 465f4445 
0000585d 5a454552 
00005861 41524645 
00005865 5320454d 
00005869 4f5f4454 
0000586d 004646 
00005870 01         8898 	.data.b	1
00005871 01f3       8899 	.data.b	243,1
00005873 5f4d4544   8900 	.data.b	68,69,77,95,67,70,71,95,83,85,80,80,79,82,84,95,74,49,57,51,57,95,70,82,69,69,90,69,70,82,65,77,69,32,83,84,68,95,79,70,70,0
00005877 5f474643 
0000587b 50505553 
0000587f 5f54524f 
00005883 3339314a 
00005887 52465f39 
0000588b 455a4545 
0000588f 4d415246 
00005893 54532045 
00005897 464f5f44 
0000589b 0046 
0000589d 01         8901 	.data.b	1
0000589e 01f5       8902 	.data.b	245,1
000058a0 5f4d4544   8903 	.data.b	68,69,77,95,67,70,71,95,83,85,80,80,79,82,84,95,74,49,57,51,57,95,82,69,65,68,73,78,69,83,83,49,32,83,84,68,95,79,70,70,0
000058a4 5f474643 
000058a8 50505553 
000058ac 5f54524f 
000058b0 3339314a 
000058b4 45525f39 
000058b8 4e494441 
000058bc 31535345 
000058c0 44545320 
000058c4 46464f5f 
000058c8 00 
000058c9 01         8904 	.data.b	1
000058ca 01f8       8905 	.data.b	248,1
000058cc 5f4d4544   8906 	.data.b	68,69,77,95,67,70,71,95,83,85,80,80,79,82,84,95,74,49,57,51,57,95,82,69,65,68,95,68,84,67,32,83,84,68,95,79,70,70,0
000058d0 5f474643 
000058d4 50505553 
000058d8 5f54524f 
000058dc 3339314a 
000058e0 45525f39 
000058e4 445f4441 
000058e8 53204354 

                                                                      Page 257
                                                              C:\Users\Fengyuan\AppData\Local\Temp\gh_00006b81.s
000058ec 4f5f4454 
000058f0 004646 
000058f3 01         8907 	.data.b	1
000058f4 01f9       8908 	.data.b	249,1
000058f6 5f4d4544   8909 	.data.b	68,69,77,95,67,70,71,95,83,85,80,80,79,82,84,95,77,65,74,79,82,95,77,79,78,73,84,79,82,83,32,83,84,68,95,79,70,70,0
000058fa 5f474643 
000058fe 50505553 
00005902 5f54524f 
00005906 4f4a414d 
0000590a 4f4d5f52 
0000590e 4f54494e 
00005912 53205352 
00005916 4f5f4454 
0000591a 004646 
0000591d 01         8910 	.data.b	1
0000591e 01fa       8911 	.data.b	250,1
00005920 5f4d4544   8912 	.data.b	68,69,77,95,67,70,71,95,83,85,80,80,79,82,84,95,77,73,76,32,83,84,68,95,79,70,70,0
00005924 5f474643 
00005928 50505553 
0000592c 5f54524f 
00005930 204c494d 
00005934 5f445453 
00005938 0046464f 
0000593c 01         8913 	.data.b	1
0000593d 01fb       8914 	.data.b	251,1
0000593f 5f4d4544   8915 	.data.b	68,69,77,95,67,70,71,95,83,85,80,80,79,82,84,95,77,73,76,95,71,82,79,85,80,32,83,84,68,95,79,70,70,0
00005943 5f474643 
00005947 50505553 
0000594b 5f54524f 
0000594f 5f4c494d 
00005953 554f5247 
00005957 54532050 
0000595b 464f5f44 
0000595f 0046 
00005961 01         8916 	.data.b	1
00005962 01fc       8917 	.data.b	252,1
00005964 5f4d4544   8918 	.data.b	68,69,77,95,67,70,71,95,83,85,80,80,79,82,84,95,77,73,82,82,79,82,32,83,84,68,95,79,70,70,0
00005968 5f474643 
0000596c 50505553 
00005970 5f54524f 
00005974 5252494d 
00005978 5320524f 
0000597c 4f5f4454 
00005980 004646 
00005983 01         8919 	.data.b	1
00005984 01fd       8920 	.data.b	253,1
00005986 5f4d4544   8921 	.data.b	68,69,77,95,67,70,71,95,83,85,80,80,79,82,84,95,77,85,76,84,73,80,76,69,95,83,65,84,69,76,76,73,84,69,83,32,83,84,68,95,79,70,70,0
0000598a 5f474643 
0000598e 50505553 
00005992 5f54524f 
00005996 544c554d 
0000599a 454c5049 
0000599e 5441535f 
000059a2 494c4c45 
000059a6 20534554 
000059aa 5f445453 
000059ae 0046464f 
000059b2 01         8922 	.data.b	1
000059b3 01fe       8923 	.data.b	254,1
000059b5 5f4d4544   8924 	.data.b	68,69,77,95,67,70,71,95,83,85,80,80,79,82,84,95,77,85,76,84,73,84,82,73,80,32,83,84,68,95,79,70,70,0
000059b9 5f474643 

                                                                      Page 258
                                                              C:\Users\Fengyuan\AppData\Local\Temp\gh_00006b81.s
000059bd 50505553 
000059c1 5f54524f 
000059c5 544c554d 
000059c9 49525449 
000059cd 54532050 
000059d1 464f5f44 
000059d5 0046 
000059d7 01         8925 	.data.b	1
000059d8 01ff       8926 	.data.b	255,1
000059da 5f4d4544   8927 	.data.b	68,69,77,95,67,70,71,95,83,85,80,80,79,82,84,95,78,86,77,95,65,80,80,76,95,83,89,78,67,72,82,79,78,73,90,69,32,83,84,68,95,79,70,70,0
000059de 5f474643 
000059e2 50505553 
000059e6 5f54524f 
000059ea 5f4d564e 
000059ee 4c505041 
000059f2 4e59535f 
000059f6 4f524843 
000059fa 455a494e 
000059fe 44545320 
00005a02 46464f5f 
00005a06 00 
00005a07 01         8928 	.data.b	1
00005a08 0280       8929 	.data.b	128,2
00005a0a 5f4d4544   8930 	.data.b	68,69,77,95,67,70,71,95,83,85,80,80,79,82,84,95,78,86,77,95,73,77,77,69,68,73,65,84,69,32,83,84,68,95,79,70,70,0
00005a0e 5f474643 
00005a12 50505553 
00005a16 5f54524f 
00005a1a 5f4d564e 
00005a1e 454d4d49 
00005a22 54414944 
00005a26 54532045 
00005a2a 464f5f44 
00005a2e 0046 
00005a30 01         8931 	.data.b	1
00005a31 0281       8932 	.data.b	129,2
00005a33 5f4d4544   8933 	.data.b	68,69,77,95,67,70,71,95,83,85,80,80,79,82,84,95,78,86,77,95,87,82,73,84,69,76,73,77,73,84,32,83,84,68,95,79,70,70,0
00005a37 5f474643 
00005a3b 50505553 
00005a3f 5f54524f 
00005a43 5f4d564e 
00005a47 54495257 
00005a4b 4d494c45 
00005a4f 53205449 
00005a53 4f5f4454 
00005a57 004646 
00005a5a 01         8934 	.data.b	1
00005a5b 0282       8935 	.data.b	130,2
00005a5d 5f4d4544   8936 	.data.b	68,69,77,95,67,70,71,95,83,85,80,80,79,82,84,95,79,66,68,73,73,32,83,84,68,95,79,70,70,0
00005a61 5f474643 
00005a65 50505553 
00005a69 5f54524f 
00005a6d 4944424f 
00005a71 54532049 
00005a75 464f5f44 
00005a79 0046 
00005a7b 01         8937 	.data.b	1
00005a7c 0283       8938 	.data.b	131,2
00005a7e 5f4d4544   8939 	.data.b	68,69,77,95,67,70,71,95,83,85,80,80,79,82,84,95,79,66,68,73,73,95,70,82,69,69,90,69,70,82,65,77,69,95,73,78,95,83,86,67,49,57,32,83,84,68,95,79,70,70,0
00005a82 5f474643 
00005a86 50505553 
00005a8a 5f54524f 

                                                                      Page 259
                                                              C:\Users\Fengyuan\AppData\Local\Temp\gh_00006b81.s
00005a8e 4944424f 
00005a92 52465f49 
00005a96 455a4545 
00005a9a 4d415246 
00005a9e 4e495f45 
00005aa2 4356535f 
00005aa6 53203931 
00005aaa 4f5f4454 
00005aae 004646 
00005ab1 01         8940 	.data.b	1
00005ab2 0284       8941 	.data.b	132,2
00005ab4 5f4d4544   8942 	.data.b	68,69,77,95,67,70,71,95,83,85,80,80,79,82,84,95,79,66,68,95,72,73,68,69,95,79,67,67,85,82,82,69,78,67,69,83,32,83,84,68,95,79,70,70,0
00005ab8 5f474643 
00005abc 50505553 
00005ac0 5f54524f 
00005ac4 5f44424f 
00005ac8 45444948 
00005acc 43434f5f 
00005ad0 45525255 
00005ad4 5345434e 
00005ad8 44545320 
00005adc 46464f5f 
00005ae0 00 
00005ae1 01         8943 	.data.b	1
00005ae2 0286       8944 	.data.b	134,2
00005ae4 5f4d4544   8945 	.data.b	68,69,77,95,67,70,71,95,83,85,80,80,79,82,84,95,79,80,67,89,67,76,69,95,65,85,84,79,77,65,84,73,67,95,69,78,68,32,83,84,68,95,79,70,70,0
00005ae8 5f474643 
00005aec 50505553 
00005af0 5f54524f 
00005af4 5943504f 
00005af8 5f454c43 
00005afc 4f545541 
00005b00 4954414d 
00005b04 4e455f43 
00005b08 54532044 
00005b0c 464f5f44 
00005b10 0046 
00005b12 01         8946 	.data.b	1
00005b13 0287       8947 	.data.b	135,2
00005b15 5f4d4544   8948 	.data.b	68,69,77,95,67,70,71,95,83,85,80,80,79,82,84,95,79,80,67,89,67,76,69,95,83,84,79,82,65,71,69,32,83,84,68,95,79,70,70,0
00005b19 5f474643 
00005b1d 50505553 
00005b21 5f54524f 
00005b25 5943504f 
00005b29 5f454c43 
00005b2d 524f5453 
00005b31 20454741 
00005b35 5f445453 
00005b39 0046464f 
00005b3d 01         8949 	.data.b	1
00005b3e 0288       8950 	.data.b	136,2
00005b40 5f4d4544   8951 	.data.b	68,69,77,95,67,70,71,95,83,85,80,80,79,82,84,95,79,86,70,76,73,78,68,95,65,80,73,32,83,84,68,95,79,78,0
00005b44 5f474643 
00005b48 50505553 
00005b4c 5f54524f 
00005b50 4c46564f 
00005b54 5f444e49 
00005b58 20495041 
00005b5c 5f445453 
00005b60 004e4f 
00005b63 01         8952 	.data.b	1

                                                                      Page 260
                                                              C:\Users\Fengyuan\AppData\Local\Temp\gh_00006b81.s
00005b64 0289       8953 	.data.b	137,2
00005b66 5f4d4544   8954 	.data.b	68,69,77,95,67,70,71,95,83,85,80,80,79,82,84,95,80,69,78,68,73,78,71,95,68,73,83,80,76,65,67,69,95,70,82,69,69,90,69,95,70,82,65,77,69,32,83,84,68,95,79,70,70,0
00005b6a 5f474643 
00005b6e 50505553 
00005b72 5f54524f 
00005b76 444e4550 
00005b7a 5f474e49 
00005b7e 50534944 
00005b82 4543414c 
00005b86 4552465f 
00005b8a 5f455a45 
00005b8e 4d415246 
00005b92 54532045 
00005b96 464f5f44 
00005b9a 0046 
00005b9c 01         8955 	.data.b	1
00005b9d 028a       8956 	.data.b	138,2
00005b9f 5f4d4544   8957 	.data.b	68,69,77,95,67,70,71,95,83,85,80,80,79,82,84,95,80,69,78,68,73,78,71,95,83,84,79,82,65,71,69,95,70,82,69,69,90,69,95,70,82,65,77,69,32,83,84,68,95,79,70,70,0
00005ba3 5f474643 
00005ba7 50505553 
00005bab 5f54524f 
00005baf 444e4550 
00005bb3 5f474e49 
00005bb7 524f5453 
00005bbb 5f454741 
00005bbf 45455246 
00005bc3 465f455a 
00005bc7 454d4152 
00005bcb 44545320 
00005bcf 46464f5f 
00005bd3 00 
00005bd4 01         8958 	.data.b	1
00005bd5 028b       8959 	.data.b	139,2
00005bd7 5f4d4544   8960 	.data.b	68,69,77,95,67,70,71,95,83,85,80,80,79,82,84,95,80,69,78,68,73,78,71,95,85,80,68,65,84,69,95,70,82,69,69,90,69,95,70,82,65,77,69,32,83,84,68,95,79,70,70,0
00005bdb 5f474643 
00005bdf 50505553 
00005be3 5f54524f 
00005be7 444e4550 
00005beb 5f474e49 
00005bef 41445055 
00005bf3 465f4554 
00005bf7 5a454552 
00005bfb 52465f45 
00005bff 20454d41 
00005c03 5f445453 
00005c07 0046464f 
00005c0b 01         8961 	.data.b	1
00005c0c 028c       8962 	.data.b	140,2
00005c0e 5f4d4544   8963 	.data.b	68,69,77,95,67,70,71,95,83,85,80,80,79,82,84,95,80,69,82,77,65,78,69,78,84,32,83,84,68,95,79,70,70,0
00005c12 5f474643 
00005c16 50505553 
00005c1a 5f54524f 
00005c1e 4d524550 
00005c22 4e454e41 
00005c26 54532054 
00005c2a 464f5f44 
00005c2e 0046 
00005c30 01         8964 	.data.b	1
00005c31 028d       8965 	.data.b	141,2
00005c33 5f4d4544   8966 	.data.b	68,69,77,95,67,70,71,95,83,85,80,80,79,82,84,95,80,69,82,77,65,78,69,78,84,68,84,67,95,65,67,84,73,86,65,84,73,79,78,95,68,73,83,84,65,78,67,69,32,83,84,68,95,79,70,70,0
00005c37 5f474643 

                                                                      Page 261
                                                              C:\Users\Fengyuan\AppData\Local\Temp\gh_00006b81.s
00005c3b 50505553 
00005c3f 5f54524f 
00005c43 4d524550 
00005c47 4e454e41 
00005c4b 43544454 
00005c4f 5443415f 
00005c53 54415649 
00005c57 5f4e4f49 
00005c5b 54534944 
00005c5f 45434e41 
00005c63 44545320 
00005c67 46464f5f 
00005c6b 00 
00005c6c 01         8967 	.data.b	1
00005c6d 028e       8968 	.data.b	142,2
00005c6f 5f4d4544   8969 	.data.b	68,69,77,95,67,70,71,95,83,85,80,80,79,82,84,95,80,69,82,77,65,78,69,78,84,95,67,79,78,68,73,84,73,79,78,95,68,67,89,32,83,84,68,95,79,70,70,0
00005c73 5f474643 
00005c77 50505553 
00005c7b 5f54524f 
00005c7f 4d524550 
00005c83 4e454e41 
00005c87 4f435f54 
00005c8b 5449444e 
00005c8f 5f4e4f49 
00005c93 20594344 
00005c97 5f445453 
00005c9b 0046464f 
00005c9f 01         8970 	.data.b	1
00005ca0 028f       8971 	.data.b	143,2
00005ca2 5f4d4544   8972 	.data.b	68,69,77,95,67,70,71,95,83,85,80,80,79,82,84,95,80,69,82,77,65,78,69,78,84,95,77,65,78,68,65,84,79,82,89,95,80,70,67,32,83,84,68,95,79,70,70,0
00005ca6 5f474643 
00005caa 50505553 
00005cae 5f54524f 
00005cb2 4d524550 
00005cb6 4e454e41 
00005cba 414d5f54 
00005cbe 5441444e 
00005cc2 5f59524f 
00005cc6 20434650 
00005cca 5f445453 
00005cce 0046464f 
00005cd2 01         8973 	.data.b	1
00005cd3 0290       8974 	.data.b	144,2
00005cd5 5f4d4544   8975 	.data.b	68,69,77,95,67,70,71,95,83,85,80,80,79,82,84,95,80,73,68,48,49,32,83,84,68,95,79,70,70,0
00005cd9 5f474643 
00005cdd 50505553 
00005ce1 5f54524f 
00005ce5 30444950 
00005ce9 54532031 
00005ced 464f5f44 
00005cf1 0046 
00005cf3 01         8976 	.data.b	1
00005cf4 0291       8977 	.data.b	145,2
00005cf6 5f4d4544   8978 	.data.b	68,69,77,95,67,70,71,95,83,85,80,80,79,82,84,95,80,73,68,49,67,32,83,84,68,95,79,70,70,0
00005cfa 5f474643 
00005cfe 50505553 
00005d02 5f54524f 
00005d06 31444950 
00005d0a 54532043 
00005d0e 464f5f44 
00005d12 0046 

                                                                      Page 262
                                                              C:\Users\Fengyuan\AppData\Local\Temp\gh_00006b81.s
00005d14 01         8979 	.data.b	1
00005d15 0292       8980 	.data.b	146,2
00005d17 5f4d4544   8981 	.data.b	68,69,77,95,67,70,71,95,83,85,80,80,79,82,84,95,80,73,68,50,49,32,83,84,68,95,79,70,70,0
00005d1b 5f474643 
00005d1f 50505553 
00005d23 5f54524f 
00005d27 32444950 
00005d2b 54532031 
00005d2f 464f5f44 
00005d33 0046 
00005d35 01         8982 	.data.b	1
00005d36 0293       8983 	.data.b	147,2
00005d38 5f4d4544   8984 	.data.b	68,69,77,95,67,70,71,95,83,85,80,80,79,82,84,95,80,73,68,51,48,32,83,84,68,95,79,70,70,0
00005d3c 5f474643 
00005d40 50505553 
00005d44 5f54524f 
00005d48 33444950 
00005d4c 54532030 
00005d50 464f5f44 
00005d54 0046 
00005d56 01         8985 	.data.b	1
00005d57 0294       8986 	.data.b	148,2
00005d59 5f4d4544   8987 	.data.b	68,69,77,95,67,70,71,95,83,85,80,80,79,82,84,95,80,73,68,51,49,32,83,84,68,95,79,70,70,0
00005d5d 5f474643 
00005d61 50505553 
00005d65 5f54524f 
00005d69 33444950 
00005d6d 54532031 
00005d71 464f5f44 
00005d75 0046 
00005d77 01         8988 	.data.b	1
00005d78 0295       8989 	.data.b	149,2
00005d7a 5f4d4544   8990 	.data.b	68,69,77,95,67,70,71,95,83,85,80,80,79,82,84,95,80,73,68,52,49,32,83,84,68,95,79,70,70,0
00005d7e 5f474643 
00005d82 50505553 
00005d86 5f54524f 
00005d8a 34444950 
00005d8e 54532031 
00005d92 464f5f44 
00005d96 0046 
00005d98 01         8991 	.data.b	1
00005d99 0296       8992 	.data.b	150,2
00005d9b 5f4d4544   8993 	.data.b	68,69,77,95,67,70,71,95,83,85,80,80,79,82,84,95,80,73,68,52,68,32,83,84,68,95,79,70,70,0
00005d9f 5f474643 
00005da3 50505553 
00005da7 5f54524f 
00005dab 34444950 
00005daf 54532044 
00005db3 464f5f44 
00005db7 0046 
00005db9 01         8994 	.data.b	1
00005dba 0297       8995 	.data.b	151,2
00005dbc 5f4d4544   8996 	.data.b	68,69,77,95,67,70,71,95,83,85,80,80,79,82,84,95,80,73,68,52,69,32,83,84,68,95,79,70,70,0
00005dc0 5f474643 
00005dc4 50505553 
00005dc8 5f54524f 
00005dcc 34444950 
00005dd0 54532045 
00005dd4 464f5f44 
00005dd8 0046 
00005dda 01         8997 	.data.b	1

                                                                      Page 263
                                                              C:\Users\Fengyuan\AppData\Local\Temp\gh_00006b81.s
00005ddb 0298       8998 	.data.b	152,2
00005ddd 5f4d4544   8999 	.data.b	68,69,77,95,67,70,71,95,83,85,80,80,79,82,84,95,80,73,68,57,49,32,83,84,68,95,79,70,70,0
00005de1 5f474643 
00005de5 50505553 
00005de9 5f54524f 
00005ded 39444950 
00005df1 54532031 
00005df5 464f5f44 
00005df9 0046 
00005dfb 01         9000 	.data.b	1
00005dfc 0299       9001 	.data.b	153,2
00005dfe 5f4d4544   9002 	.data.b	68,69,77,95,67,70,71,95,83,85,80,80,79,82,84,95,80,76,32,83,84,68,95,79,70,70,0
00005e02 5f474643 
00005e06 50505553 
00005e0a 5f54524f 
00005e0e 53204c50 
00005e12 4f5f4454 
00005e16 004646 
00005e19 01         9003 	.data.b	1
00005e1a 029a       9004 	.data.b	154,2
00005e1c 5f4d4544   9005 	.data.b	68,69,77,95,67,70,71,95,83,85,80,80,79,82,84,95,80,82,69,83,84,79,82,69,68,95,70,70,32,83,84,68,95,79,70,70,0
00005e20 5f474643 
00005e24 50505553 
00005e28 5f54524f 
00005e2c 53455250 
00005e30 45524f54 
00005e34 46465f44 
00005e38 44545320 
00005e3c 46464f5f 
00005e40 00 
00005e41 01         9006 	.data.b	1
00005e42 029d       9007 	.data.b	157,2
00005e44 5f4d4544   9008 	.data.b	68,69,77,95,67,70,71,95,83,85,80,80,79,82,84,95,82,69,83,84,65,82,84,95,68,67,89,95,79,78,95,67,76,69,65,82,95,68,84,67,32,83,84,68,95,79,70,70,0
00005e48 5f474643 
00005e4c 50505553 
00005e50 5f54524f 
00005e54 54534552 
00005e58 5f545241 
00005e5c 5f594344 
00005e60 435f4e4f 
00005e64 5241454c 
00005e68 4354445f 
00005e6c 44545320 
00005e70 46464f5f 
00005e74 00 
00005e75 01         9009 	.data.b	1
00005e76 029e       9010 	.data.b	158,2
00005e78 5f4d4544   9011 	.data.b	68,69,77,95,67,70,71,95,83,85,80,80,79,82,84,95,82,69,84,82,89,95,83,84,79,82,65,71,69,32,83,84,68,95,79,70,70,0
00005e7c 5f474643 
00005e80 50505553 
00005e84 5f54524f 
00005e88 52544552 
00005e8c 54535f59 
00005e90 4741524f 
00005e94 54532045 
00005e98 464f5f44 
00005e9c 0046 
00005e9e 01         9012 	.data.b	1
00005e9f 029f       9013 	.data.b	159,2
00005ea1 5f4d4544   9014 	.data.b	68,69,77,95,67,70,71,95,83,85,80,80,79,82,84,95,82,83,76,32,83,84,68,95,79,70,70,0
00005ea5 5f474643 

                                                                      Page 264
                                                              C:\Users\Fengyuan\AppData\Local\Temp\gh_00006b81.s
00005ea9 50505553 
00005ead 5f54524f 
00005eb1 204c5352 
00005eb5 5f445453 
00005eb9 0046464f 
00005ebd 01         9015 	.data.b	1
00005ebe 02a0       9016 	.data.b	160,2
00005ec0 5f4d4544   9017 	.data.b	68,69,77,95,67,70,71,95,83,85,80,80,79,82,84,95,83,69,67,79,78,68,65,82,89,32,83,84,68,95,79,70,70,0
00005ec4 5f474643 
00005ec8 50505553 
00005ecc 5f54524f 
00005ed0 4f434553 
00005ed4 5241444e 
00005ed8 54532059 
00005edc 464f5f44 
00005ee0 0046 
00005ee2 01         9018 	.data.b	1
00005ee3 02a1       9019 	.data.b	161,2
00005ee5 5f4d4544   9020 	.data.b	68,69,77,95,67,70,71,95,83,85,80,80,79,82,84,95,83,73,77,73,76,65,82,95,67,79,78,68,73,84,73,79,78,83,32,83,84,68,95,79,70,70,0
00005ee9 5f474643 
00005eed 50505553 
00005ef1 5f54524f 
00005ef5 494d4953 
00005ef9 5f52414c 
00005efd 444e4f43 
00005f01 4f495449 
00005f05 5320534e 
00005f09 4f5f4454 
00005f0d 004646 
00005f10 01         9021 	.data.b	1
00005f11 02a2       9022 	.data.b	162,2
00005f13 5f4d4544   9023 	.data.b	68,69,77,95,67,70,71,95,83,85,80,80,79,82,84,95,83,82,69,67,83,32,83,84,68,95,79,70,70,0
00005f17 5f474643 
00005f1b 50505553 
00005f1f 5f54524f 
00005f23 43455253 
00005f27 54532053 
00005f2b 464f5f44 
00005f2f 0046 
00005f31 01         9024 	.data.b	1
00005f32 02a3       9025 	.data.b	163,2
00005f34 5f4d4544   9026 	.data.b	68,69,77,95,67,70,71,95,83,85,80,80,79,82,84,95,83,82,69,67,83,95,67,65,76,67,85,76,65,84,69,68,32,83,84,68,95,79,78,0
00005f38 5f474643 
00005f3c 50505553 
00005f40 5f54524f 
00005f44 43455253 
00005f48 41435f53 
00005f4c 4c55434c 
00005f50 44455441 
00005f54 44545320 
00005f58 004e4f5f 
00005f5c 01         9027 	.data.b	1
00005f5d 02a4       9028 	.data.b	164,2
00005f5f 5f4d4544   9029 	.data.b	68,69,77,95,67,70,71,95,83,85,80,80,79,82,84,95,83,82,69,67,83,95,67,79,78,70,73,71,85,82,69,68,32,83,84,68,95,79,70,70,0
00005f63 5f474643 
00005f67 50505553 
00005f6b 5f54524f 
00005f6f 43455253 
00005f73 4f435f53 
00005f77 4749464e 
00005f7b 44455255 

                                                                      Page 265
                                                              C:\Users\Fengyuan\AppData\Local\Temp\gh_00006b81.s
00005f7f 44545320 
00005f83 46464f5f 
00005f87 00 
00005f88 01         9030 	.data.b	1
00005f89 02a5       9031 	.data.b	165,2
00005f8b 5f4d4544   9032 	.data.b	68,69,77,95,67,70,71,95,83,85,80,80,79,82,84,95,83,84,79,82,65,71,69,95,67,79,78,68,73,84,73,79,78,83,32,83,84,68,95,79,70,70,0
00005f8f 5f474643 
00005f93 50505553 
00005f97 5f54524f 
00005f9b 524f5453 
00005f9f 5f454741 
00005fa3 444e4f43 
00005fa7 4f495449 
00005fab 5320534e 
00005faf 4f5f4454 
00005fb3 004646 
00005fb6 01         9033 	.data.b	1
00005fb7 02a6       9034 	.data.b	166,2
00005fb9 5f4d4544   9035 	.data.b	68,69,77,95,67,70,71,95,83,85,80,80,79,82,84,95,84,69,83,84,70,65,73,76,69,68,95,83,84,79,82,65,71,69,32,83,84,68,95,79,78,0
00005fbd 5f474643 
00005fc1 50505553 
00005fc5 5f54524f 
00005fc9 54534554 
00005fcd 4c494146 
00005fd1 535f4445 
00005fd5 41524f54 
00005fd9 53204547 
00005fdd 4f5f4454 
00005fe1 004e 
00005fe3 01         9036 	.data.b	1
00005fe4 02a7       9037 	.data.b	167,2
00005fe6 5f4d4544   9038 	.data.b	68,69,77,95,67,70,71,95,83,85,80,80,79,82,84,95,84,73,77,69,95,83,69,82,73,69,83,95,70,85,84,85,82,69,95,70,65,83,84,32,83,84,68,95,79,70,70,0
00005fea 5f474643 
00005fee 50505553 
00005ff2 5f54524f 
00005ff6 454d4954 
00005ffa 5245535f 
00005ffe 5f534549 
00006002 55545546 
00006006 465f4552 
0000600a 20545341 
0000600e 5f445453 
00006012 0046464f 
00006016 01         9039 	.data.b	1
00006017 02a8       9040 	.data.b	168,2
00006019 5f4d4544   9041 	.data.b	68,69,77,95,67,70,71,95,83,85,80,80,79,82,84,95,84,73,77,69,95,83,69,82,73,69,83,95,70,85,84,85,82,69,95,78,79,82,77,65,76,32,83,84,68,95,79,70,70,0
0000601d 5f474643 
00006021 50505553 
00006025 5f54524f 
00006029 454d4954 
0000602d 5245535f 
00006031 5f534549 
00006035 55545546 
00006039 4e5f4552 
0000603d 414d524f 
00006041 5453204c 
00006045 464f5f44 
00006049 0046 
0000604b 01         9042 	.data.b	1
0000604c 02a9       9043 	.data.b	169,2
0000604e 5f4d4544   9044 	.data.b	68,69,77,95,67,70,71,95,83,85,80,80,79,82,84,95,84,73,77,69,95,83,69,82,73,69,83,95,80,65,83,84,95,70,65,83,84,32,83,84,68,95,79,70,70,0

                                                                      Page 266
                                                              C:\Users\Fengyuan\AppData\Local\Temp\gh_00006b81.s
00006052 5f474643 
00006056 50505553 
0000605a 5f54524f 
0000605e 454d4954 
00006062 5245535f 
00006066 5f534549 
0000606a 54534150 
0000606e 5341465f 
00006072 54532054 
00006076 464f5f44 
0000607a 0046 
0000607c 01         9045 	.data.b	1
0000607d 02aa       9046 	.data.b	170,2
0000607f 5f4d4544   9047 	.data.b	68,69,77,95,67,70,71,95,83,85,80,80,79,82,84,95,84,73,77,69,95,83,69,82,73,69,83,95,80,65,83,84,95,78,79,82,77,65,76,32,83,84,68,95,79,70,70,0
00006083 5f474643 
00006087 50505553 
0000608b 5f54524f 
0000608f 454d4954 
00006093 5245535f 
00006097 5f534549 
0000609b 54534150 
0000609f 524f4e5f 
000060a3 204c414d 
000060a7 5f445453 
000060ab 0046464f 
000060af 01         9048 	.data.b	1
000060b0 02ab       9049 	.data.b	171,2
000060b2 5f4d4544   9050 	.data.b	68,69,77,95,67,70,71,95,83,85,80,80,79,82,84,95,84,82,73,71,71,69,82,95,70,68,67,95,70,73,82,83,84,95,73,78,95,67,89,67,76,69,32,83,84,68,95,79,70,70,0
000060b6 5f474643 
000060ba 50505553 
000060be 5f54524f 
000060c2 47495254 
000060c6 5f524547 
000060ca 5f434446 
000060ce 53524946 
000060d2 4e495f54 
000060d6 4359435f 
000060da 5320454c 
000060de 4f5f4454 
000060e2 004646 
000060e5 01         9051 	.data.b	1
000060e6 02ac       9052 	.data.b	172,2
000060e8 5f4d4544   9053 	.data.b	68,69,77,95,67,70,71,95,83,85,80,80,79,82,84,95,84,89,80,69,49,95,67,79,77,66,73,78,65,84,73,79,78,32,83,84,68,95,79,70,70,0
000060ec 5f474643 
000060f0 50505553 
000060f4 5f54524f 
000060f8 45505954 
000060fc 4f435f31 
00006100 4e49424d 
00006104 4f495441 
00006108 5453204e 
0000610c 464f5f44 
00006110 0046 
00006112 01         9054 	.data.b	1
00006113 02ad       9055 	.data.b	173,2
00006115 5f4d4544   9056 	.data.b	68,69,77,95,67,70,71,95,83,85,80,80,79,82,84,95,84,89,80,69,50,95,67,79,77,66,73,78,65,84,73,79,78,32,83,84,68,95,79,70,70,0
00006119 5f474643 
0000611d 50505553 
00006121 5f54524f 
00006125 45505954 
00006129 4f435f32 

                                                                      Page 267
                                                              C:\Users\Fengyuan\AppData\Local\Temp\gh_00006b81.s
0000612d 4e49424d 
00006131 4f495441 
00006135 5453204e 
00006139 464f5f44 
0000613d 0046 
0000613f 01         9057 	.data.b	1
00006140 02af       9058 	.data.b	175,2
00006142 5f4d4544   9059 	.data.b	68,69,77,95,67,70,71,95,83,85,80,80,79,82,84,95,85,83,69,82,95,67,79,78,84,82,79,76,76,69,68,95,87,73,82,32,83,84,68,95,79,70,70,0
00006146 5f474643 
0000614a 50505553 
0000614e 5f54524f 
00006152 52455355 
00006156 4e4f435f 
0000615a 4c4f5254 
0000615e 5f44454c 
00006162 20524957 
00006166 5f445453 
0000616a 0046464f 
0000616e 01         9060 	.data.b	1
0000616f 02b1       9061 	.data.b	177,2
00006171 5f4d4544   9062 	.data.b	68,69,77,95,67,70,71,95,83,85,80,80,79,82,84,95,85,83,69,82,95,69,82,69,67,83,32,83,84,68,95,79,78,0
00006175 5f474643 
00006179 50505553 
0000617d 5f54524f 
00006181 52455355 
00006185 4552455f 
00006189 53205343 
0000618d 4f5f4454 
00006191 004e 
00006193 01         9063 	.data.b	1
00006194 02b2       9064 	.data.b	178,2
00006196 5f4d4544   9065 	.data.b	68,69,77,95,67,70,71,95,83,85,80,80,79,82,84,95,85,83,69,82,95,73,78,68,73,67,65,84,79,82,83,32,83,84,68,95,79,70,70,0
0000619a 5f474643 
0000619e 50505553 
000061a2 5f54524f 
000061a6 52455355 
000061aa 444e495f 
000061ae 54414349 
000061b2 2053524f 
000061b6 5f445453 
000061ba 0046464f 
000061be 01         9066 	.data.b	1
000061bf 02b3       9067 	.data.b	179,2
000061c1 5f4d4544   9068 	.data.b	68,69,77,95,67,70,71,95,83,85,80,80,79,82,84,95,86,69,82,83,73,79,78,95,73,78,70,79,32,83,84,68,95,79,78,0
000061c5 5f474643 
000061c9 50505553 
000061cd 5f54524f 
000061d1 53524556 
000061d5 5f4e4f49 
000061d9 4f464e49 
000061dd 44545320 
000061e1 004e4f5f 
000061e5 01         9069 	.data.b	1
000061e6 02b6       9070 	.data.b	182,2
000061e8 5f4d4544   9071 	.data.b	68,69,77,95,67,70,71,95,83,85,80,80,79,82,84,95,87,87,72,79,66,68,32,83,84,68,95,79,70,70,0
000061ec 5f474643 
000061f0 50505553 
000061f4 5f54524f 
000061f8 4f485757 
000061fc 53204442 
00006200 4f5f4454 

                                                                      Page 268
                                                              C:\Users\Fengyuan\AppData\Local\Temp\gh_00006b81.s
00006204 004646 
00006207 01         9072 	.data.b	1
00006208 02b9       9073 	.data.b	185,2
0000620a 5f4d4544   9074 	.data.b	68,69,77,95,67,70,71,95,85,83,69,95,78,86,77,32,83,84,68,95,79,70,70,0
0000620e 5f474643 
00006212 5f455355 
00006216 204d564e 
0000621a 5f445453 
0000621e 0046464f 
00006222 01         9075 	.data.b	1
00006223 02ba       9076 	.data.b	186,2
00006225 5f4d4544   9077 	.data.b	68,69,77,95,67,70,71,95,85,83,69,95,79,72,68,83,32,83,84,68,95,79,70,70,0
00006229 5f474643 
0000622d 5f455355 
00006231 5344484f 
00006235 44545320 
00006239 46464f5f 
0000623d 00 
0000623e 01         9078 	.data.b	1
0000623f 02ce       9079 	.data.b	206,2
00006241 5f4d4544   9080 	.data.b	68,69,77,95,68,85,77,77,89,95,83,84,65,84,69,77,69,78,84,40,118,41,32,40,118,41,61,40,118,41,0
00006245 4d4d5544 
00006249 54535f59 
0000624d 4d455441 
00006251 28544e45 
00006255 28202976 
00006259 283d2976 
0000625d 002976 
00006260 01         9081 	.data.b	1
00006261 02d7       9082 	.data.b	215,2
00006263 5f4d4544   9083 	.data.b	68,69,77,95,65,84,79,77,73,67,95,86,65,82,73,65,66,76,69,95,65,67,67,69,83,83,32,51,50,117,0
00006267 4d4f5441 
0000626b 565f4349 
0000626f 41495241 
00006273 5f454c42 
00006277 45434341 
0000627b 33205353 
0000627f 007532 
00006282 04         9084 	.data.b	4
00006283 03         9085 	.data.b	3
00006284 47         9086 	.data.b	71
00006285 58         9087 	.data.b	88
00006286 03         9088 	.data.b	3
00006287 35         9089 	.data.b	53
00006288 59         9090 	.data.b	89
00006289 01         9091 	.data.b	1
0000628a 08a4       9092 	.data.b	164,8
0000628c 5f435444   9093 	.data.b	68,84,67,95,67,76,65,83,83,95,66,102,108,77,97,115,107,32,51,49,85,0
00006290 53414c43 
00006294 66425f53 
00006298 73614d6c 
0000629c 3133206b 
000062a0 0055 
000062a2 01         9094 	.data.b	1
000062a3 08a8       9095 	.data.b	168,8
000062a5 5f435444   9096 	.data.b	68,84,67,95,67,76,65,83,83,95,66,102,108,80,110,32,48,85,0
000062a9 53414c43 
000062ad 66425f53 
000062b1 206e506c 
000062b5 005530 
000062b8 01         9097 	.data.b	1

                                                                      Page 269
                                                              C:\Users\Fengyuan\AppData\Local\Temp\gh_00006b81.s
000062b9 08ac       9098 	.data.b	172,8
000062bb 5f435444   9099 	.data.b	68,84,67,95,67,76,65,83,83,95,66,102,108,76,110,32,53,85,0
000062bf 53414c43 
000062c3 66425f53 
000062c7 206e4c6c 
000062cb 005535 
000062ce 01         9100 	.data.b	1
000062cf 08f4       9101 	.data.b	244,8
000062d1 5f435444   9102 	.data.b	68,84,67,95,83,69,86,69,82,73,84,89,95,66,102,108,77,97,115,107,32,50,50,52,85,0
000062d5 45564553 
000062d9 59544952 
000062dd 6c66425f 
000062e1 6b73614d 
000062e5 34323220 
000062e9 0055 
000062eb 01         9103 	.data.b	1
000062ec 08f8       9104 	.data.b	248,8
000062ee 5f435444   9105 	.data.b	68,84,67,95,83,69,86,69,82,73,84,89,95,66,102,108,80,110,32,53,85,0
000062f2 45564553 
000062f6 59544952 
000062fa 6c66425f 
000062fe 35206e50 
00006302 0055 
00006304 01         9106 	.data.b	1
00006305 08fc       9107 	.data.b	252,8
00006307 5f435444   9108 	.data.b	68,84,67,95,83,69,86,69,82,73,84,89,95,66,102,108,76,110,32,51,85,0
0000630b 45564553 
0000630f 59544952 
00006313 6c66425f 
00006317 33206e4c 
0000631b 0055 
0000631d 04         9109 	.data.b	4
0000631e 04         9110 	.data.b	4
0000631f 01         9111 	.data.b	1
00006320 59         9112 	.data.b	89
00006321 5f4d4544   9113 	.data.b	68,69,77,95,76,79,67,65,76,95,73,78,76,73,78,69,32,76,79,67,65,76,95,73,78,76,73,78,69,0
00006325 41434f4c 
00006329 4e495f4c 
0000632d 454e494c 
00006331 434f4c20 
00006335 495f4c41 
00006339 4e494c4e 
0000633d 0045 
0000633f 04         9114 	.data.b	4
00006340 03         9115 	.data.b	3
00006341 03e1       9116 	.data.b	225,3
00006343 5a         9117 	.data.b	90
00006344 03         9118 	.data.b	3
00006345 3b         9119 	.data.b	59
00006346 5b         9120 	.data.b	91
00006347 03         9121 	.data.b	3
00006348 37         9122 	.data.b	55
00006349 5c         9123 	.data.b	92
0000634a 03         9124 	.data.b	3
0000634b 3b         9125 	.data.b	59
0000634c 56         9126 	.data.b	86
0000634d 04         9127 	.data.b	4
0000634e 03         9128 	.data.b	3
0000634f 3c         9129 	.data.b	60
00006350 5d         9130 	.data.b	93
00006351 03         9131 	.data.b	3

                                                                      Page 270
                                                              C:\Users\Fengyuan\AppData\Local\Temp\gh_00006b81.s
00006352 1c         9132 	.data.b	28
00006353 5e         9133 	.data.b	94
00006354 04         9134 	.data.b	4
00006355 03         9135 	.data.b	3
00006356 1e         9136 	.data.b	30
00006357 19         9137 	.data.b	25
00006358 04         9138 	.data.b	4
00006359 03         9139 	.data.b	3
0000635a 21         9140 	.data.b	33
0000635b 15         9141 	.data.b	21
0000635c 04         9142 	.data.b	4
0000635d 03         9143 	.data.b	3
0000635e 27         9144 	.data.b	39
0000635f 15         9145 	.data.b	21
00006360 04         9146 	.data.b	4
00006361 04         9147 	.data.b	4
00006362 04         9148 	.data.b	4
00006363 03         9149 	.data.b	3
00006364 38         9150 	.data.b	56
00006365 5f         9151 	.data.b	95
00006366 04         9152 	.data.b	4
00006367 03         9153 	.data.b	3
00006368 39         9154 	.data.b	57
00006369 60         9155 	.data.b	96
0000636a 04         9156 	.data.b	4
0000636b 03         9157 	.data.b	3
0000636c 3a         9158 	.data.b	58
0000636d 61         9159 	.data.b	97
0000636e 04         9160 	.data.b	4
0000636f 04         9161 	.data.b	4
00006370 03         9162 	.data.b	3
00006371 3c         9163 	.data.b	60
00006372 62         9164 	.data.b	98
00006373 04         9165 	.data.b	4
00006374 03         9166 	.data.b	3
00006375 3d         9167 	.data.b	61
00006376 63         9168 	.data.b	99
00006377 03         9169 	.data.b	3
00006378 37         9170 	.data.b	55
00006379 64         9171 	.data.b	100
0000637a 03         9172 	.data.b	3
0000637b 35         9173 	.data.b	53
0000637c 65         9174 	.data.b	101
0000637d 04         9175 	.data.b	4
0000637e 04         9176 	.data.b	4
0000637f 03         9177 	.data.b	3
00006380 38         9178 	.data.b	56
00006381 66         9179 	.data.b	102
00006382 03         9180 	.data.b	3
00006383 39         9181 	.data.b	57
00006384 67         9182 	.data.b	103
00006385 04         9183 	.data.b	4
00006386 04         9184 	.data.b	4
00006387 03         9185 	.data.b	3
00006388 39         9186 	.data.b	57
00006389 68         9187 	.data.b	104
0000638a 04         9188 	.data.b	4
0000638b 04         9189 	.data.b	4
0000638c 03         9190 	.data.b	3
0000638d 3e         9191 	.data.b	62
0000638e 69         9192 	.data.b	105

                                                                      Page 271
                                                              C:\Users\Fengyuan\AppData\Local\Temp\gh_00006b81.s
0000638f 03         9193 	.data.b	3
00006390 36         9194 	.data.b	54
00006391 6a         9195 	.data.b	106
00006392 03         9196 	.data.b	3
00006393 37         9197 	.data.b	55
00006394 6b         9198 	.data.b	107
00006395 04         9199 	.data.b	4
00006396 04         9200 	.data.b	4
00006397 04         9201 	.data.b	4
00006398 03         9202 	.data.b	3
00006399 3f         9203 	.data.b	63
0000639a 6c         9204 	.data.b	108
0000639b 04         9205 	.data.b	4
0000639c 03         9206 	.data.b	3
0000639d 40         9207 	.data.b	64
0000639e 6d         9208 	.data.b	109
0000639f 03         9209 	.data.b	3
000063a0 37         9210 	.data.b	55
000063a1 6e         9211 	.data.b	110
000063a2 04         9212 	.data.b	4
000063a3 03         9213 	.data.b	3
000063a4 38         9214 	.data.b	56
000063a5 6f         9215 	.data.b	111
000063a6 04         9216 	.data.b	4
000063a7 04         9217 	.data.b	4
000063a8 03         9218 	.data.b	3
000063a9 41         9219 	.data.b	65
000063aa 70         9220 	.data.b	112
000063ab 03         9221 	.data.b	3
000063ac 37         9222 	.data.b	55
000063ad 71         9223 	.data.b	113
000063ae 04         9224 	.data.b	4
000063af 04         9225 	.data.b	4
000063b0 03         9226 	.data.b	3
000063b1 42         9227 	.data.b	66
000063b2 72         9228 	.data.b	114
000063b3 04         9229 	.data.b	4
000063b4 03         9230 	.data.b	3
000063b5 44         9231 	.data.b	68
000063b6 19         9232 	.data.b	25
000063b7 04         9233 	.data.b	4
000063b8 01         9234 	.data.b	1
000063b9 5a         9235 	.data.b	90
000063ba 5f4d4544   9236 	.data.b	68,69,77,95,67,70,71,95,67,76,73,69,78,84,84,65,66,76,69,32,83,84,68,95,79,78,0
000063be 5f474643 
000063c2 45494c43 
000063c6 4154544e 
000063ca 20454c42 
000063ce 5f445453 
000063d2 004e4f 
000063d5 01         9237 	.data.b	1
000063d6 5b         9238 	.data.b	91
000063d7 5f4d4544   9239 	.data.b	68,69,77,95,67,70,71,95,67,76,69,65,82,68,84,67,73,78,68,69,88,79,70,67,76,73,69,78,84,84,65,66,76,69,32,83,84,68,95,79,78,0
000063db 5f474643 
000063df 41454c43 
000063e3 43544452 
000063e7 45444e49 
000063eb 43464f58 
000063ef 4e45494c 
000063f3 42415454 
000063f7 5320454c 

                                                                      Page 272
                                                              C:\Users\Fengyuan\AppData\Local\Temp\gh_00006b81.s
000063fb 4f5f4454 
000063ff 004e 
00006401 01         9240 	.data.b	1
00006402 5f         9241 	.data.b	95
00006403 5f4d4544   9242 	.data.b	68,69,77,95,67,70,71,95,82,69,65,68,79,85,84,66,85,70,70,69,82,73,78,68,69,88,79,70,67,76,73,69,78,84,84,65,66,76,69,32,83,84,68,95,79,78,0
00006407 5f474643 
0000640b 44414552 
0000640f 4254554f 
00006413 45464655 
00006417 444e4952 
0000641b 464f5845 
0000641f 45494c43 
00006423 4154544e 
00006427 20454c42 
0000642b 5f445453 
0000642f 004e4f 
00006432 01         9243 	.data.b	1
00006433 67         9244 	.data.b	103
00006434 5f4d4544   9245 	.data.b	68,69,77,95,67,70,71,95,68,84,67,83,69,76,69,67,84,79,82,84,65,66,76,69,32,83,84,68,95,79,78,0
00006438 5f474643 
0000643c 53435444 
00006440 43454c45 
00006444 54524f54 
00006448 454c4241 
0000644c 44545320 
00006450 004e4f5f 
00006454 01         9246 	.data.b	1
00006455 01ed       9247 	.data.b	237,1
00006457 5f4d4544   9248 	.data.b	68,69,77,95,67,70,71,95,70,73,76,84,69,82,73,78,70,79,84,65,66,76,69,32,83,84,68,95,79,78,0
0000645b 5f474643 
0000645f 544c4946 
00006463 4e495245 
00006467 41544f46 
0000646b 20454c42 
0000646f 5f445453 
00006473 004e4f 
00006476 01         9249 	.data.b	1
00006477 01f1       9250 	.data.b	241,1
00006479 5f4d4544   9251 	.data.b	68,69,77,95,67,70,71,95,70,82,69,69,90,69,70,82,65,77,69,73,84,69,82,65,84,79,82,84,65,66,76,69,32,83,84,68,95,79,78,0
0000647d 5f474643 
00006481 45455246 
00006485 5246455a 
00006489 49454d41 
0000648d 41524554 
00006491 54524f54 
00006495 454c4241 
00006499 44545320 
0000649d 004e4f5f 
000064a1 01         9252 	.data.b	1
000064a2 06f7       9253 	.data.b	247,6
000064a4 5f4d4544   9254 	.data.b	68,69,77,95,67,70,71,95,85,83,69,95,73,78,73,84,95,80,79,73,78,84,69,82,32,83,84,68,95,79,70,70,0
000064a8 5f474643 
000064ac 5f455355 
000064b0 54494e49 
000064b4 494f505f 
000064b8 5245544e 
000064bc 44545320 
000064c0 46464f5f 
000064c4 00 
000064c5 03         9255 	.data.b	3
000064c6 13a6       9256 	.data.b	166,19

                                                                      Page 273
                                                              C:\Users\Fengyuan\AppData\Local\Temp\gh_00006b81.s
000064c8 15         9257 	.data.b	21
000064c9 04         9258 	.data.b	4
000064ca 03         9259 	.data.b	3
000064cb 13ab       9260 	.data.b	171,19
000064cd 15         9261 	.data.b	21
000064ce 04         9262 	.data.b	4
000064cf 03         9263 	.data.b	3
000064d0 13bd       9264 	.data.b	189,19
000064d2 15         9265 	.data.b	21
000064d3 04         9266 	.data.b	4
000064d4 03         9267 	.data.b	3
000064d5 13c2       9268 	.data.b	194,19
000064d7 15         9269 	.data.b	21
000064d8 04         9270 	.data.b	4
000064d9 03         9271 	.data.b	3
000064da 13d2       9272 	.data.b	210,19
000064dc 15         9273 	.data.b	21
000064dd 04         9274 	.data.b	4
000064de 03         9275 	.data.b	3
000064df 13d7       9276 	.data.b	215,19
000064e1 15         9277 	.data.b	21
000064e2 04         9278 	.data.b	4
000064e3 03         9279 	.data.b	3
000064e4 13e9       9280 	.data.b	233,19
000064e6 15         9281 	.data.b	21
000064e7 04         9282 	.data.b	4
000064e8 03         9283 	.data.b	3
000064e9 13ee       9284 	.data.b	238,19
000064eb 15         9285 	.data.b	21
000064ec 04         9286 	.data.b	4
000064ed 03         9287 	.data.b	3
000064ee 13fd       9288 	.data.b	253,19
000064f0 15         9289 	.data.b	21
000064f1 04         9290 	.data.b	4
000064f2 03         9291 	.data.b	3
000064f3 1482       9292 	.data.b	130,20
000064f5 15         9293 	.data.b	21
000064f6 04         9294 	.data.b	4
000064f7 03         9295 	.data.b	3
000064f8 1492       9296 	.data.b	146,20
000064fa 15         9297 	.data.b	21
000064fb 04         9298 	.data.b	4
000064fc 03         9299 	.data.b	3
000064fd 1497       9300 	.data.b	151,20
000064ff 15         9301 	.data.b	21
00006500 04         9302 	.data.b	4
00006501 03         9303 	.data.b	3
00006502 14a3       9304 	.data.b	163,20
00006504 15         9305 	.data.b	21
00006505 04         9306 	.data.b	4
00006506 03         9307 	.data.b	3
00006507 14a8       9308 	.data.b	168,20
00006509 15         9309 	.data.b	21
0000650a 04         9310 	.data.b	4
0000650b 03         9311 	.data.b	3
0000650c 14b4       9312 	.data.b	180,20
0000650e 15         9313 	.data.b	21
0000650f 04         9314 	.data.b	4
00006510 03         9315 	.data.b	3
00006511 14b9       9316 	.data.b	185,20
00006513 15         9317 	.data.b	21

                                                                      Page 274
                                                              C:\Users\Fengyuan\AppData\Local\Temp\gh_00006b81.s
00006514 04         9318 	.data.b	4
00006515 03         9319 	.data.b	3
00006516 14c5       9320 	.data.b	197,20
00006518 15         9321 	.data.b	21
00006519 04         9322 	.data.b	4
0000651a 03         9323 	.data.b	3
0000651b 14ca       9324 	.data.b	202,20
0000651d 15         9325 	.data.b	21
0000651e 04         9326 	.data.b	4
0000651f 03         9327 	.data.b	3
00006520 14d6       9328 	.data.b	214,20
00006522 15         9329 	.data.b	21
00006523 04         9330 	.data.b	4
00006524 03         9331 	.data.b	3
00006525 14db       9332 	.data.b	219,20
00006527 15         9333 	.data.b	21
00006528 04         9334 	.data.b	4
00006529 03         9335 	.data.b	3
0000652a 14e3       9336 	.data.b	227,20
0000652c 15         9337 	.data.b	21
0000652d 04         9338 	.data.b	4
0000652e 03         9339 	.data.b	3
0000652f 14e8       9340 	.data.b	232,20
00006531 15         9341 	.data.b	21
00006532 04         9342 	.data.b	4
00006533 03         9343 	.data.b	3
00006534 14f0       9344 	.data.b	240,20
00006536 15         9345 	.data.b	21
00006537 04         9346 	.data.b	4
00006538 03         9347 	.data.b	3
00006539 14f5       9348 	.data.b	245,20
0000653b 15         9349 	.data.b	21
0000653c 04         9350 	.data.b	4
0000653d 03         9351 	.data.b	3
0000653e 14fd       9352 	.data.b	253,20
00006540 15         9353 	.data.b	21
00006541 04         9354 	.data.b	4
00006542 03         9355 	.data.b	3
00006543 1582       9356 	.data.b	130,21
00006545 15         9357 	.data.b	21
00006546 04         9358 	.data.b	4
00006547 03         9359 	.data.b	3
00006548 158e       9360 	.data.b	142,21
0000654a 15         9361 	.data.b	21
0000654b 04         9362 	.data.b	4
0000654c 03         9363 	.data.b	3
0000654d 1593       9364 	.data.b	147,21
0000654f 15         9365 	.data.b	21
00006550 04         9366 	.data.b	4
00006551 03         9367 	.data.b	3
00006552 159b       9368 	.data.b	155,21
00006554 15         9369 	.data.b	21
00006555 04         9370 	.data.b	4
00006556 03         9371 	.data.b	3
00006557 15a0       9372 	.data.b	160,21
00006559 15         9373 	.data.b	21
0000655a 04         9374 	.data.b	4
0000655b 03         9375 	.data.b	3
0000655c 15ac       9376 	.data.b	172,21
0000655e 15         9377 	.data.b	21
0000655f 04         9378 	.data.b	4

                                                                      Page 275
                                                              C:\Users\Fengyuan\AppData\Local\Temp\gh_00006b81.s
00006560 03         9379 	.data.b	3
00006561 15b1       9380 	.data.b	177,21
00006563 15         9381 	.data.b	21
00006564 04         9382 	.data.b	4
00006565 03         9383 	.data.b	3
00006566 15bd       9384 	.data.b	189,21
00006568 15         9385 	.data.b	21
00006569 04         9386 	.data.b	4
0000656a 03         9387 	.data.b	3
0000656b 15c2       9388 	.data.b	194,21
0000656d 15         9389 	.data.b	21
0000656e 04         9390 	.data.b	4
0000656f 03         9391 	.data.b	3
00006570 15ce       9392 	.data.b	206,21
00006572 15         9393 	.data.b	21
00006573 04         9394 	.data.b	4
00006574 03         9395 	.data.b	3
00006575 15d3       9396 	.data.b	211,21
00006577 15         9397 	.data.b	21
00006578 04         9398 	.data.b	4
00006579 03         9399 	.data.b	3
0000657a 15df       9400 	.data.b	223,21
0000657c 15         9401 	.data.b	21
0000657d 04         9402 	.data.b	4
0000657e 03         9403 	.data.b	3
0000657f 15e4       9404 	.data.b	228,21
00006581 15         9405 	.data.b	21
00006582 04         9406 	.data.b	4
00006583 03         9407 	.data.b	3
00006584 15f0       9408 	.data.b	240,21
00006586 15         9409 	.data.b	21
00006587 04         9410 	.data.b	4
00006588 03         9411 	.data.b	3
00006589 15f5       9412 	.data.b	245,21
0000658b 15         9413 	.data.b	21
0000658c 04         9414 	.data.b	4
0000658d 03         9415 	.data.b	3
0000658e 1681       9416 	.data.b	129,22
00006590 15         9417 	.data.b	21
00006591 04         9418 	.data.b	4
00006592 03         9419 	.data.b	3
00006593 1686       9420 	.data.b	134,22
00006595 15         9421 	.data.b	21
00006596 04         9422 	.data.b	4
00006597 03         9423 	.data.b	3
00006598 1692       9424 	.data.b	146,22
0000659a 15         9425 	.data.b	21
0000659b 04         9426 	.data.b	4
0000659c 03         9427 	.data.b	3
0000659d 1697       9428 	.data.b	151,22
0000659f 15         9429 	.data.b	21
000065a0 04         9430 	.data.b	4
000065a1 03         9431 	.data.b	3
000065a2 16a3       9432 	.data.b	163,22
000065a4 15         9433 	.data.b	21
000065a5 04         9434 	.data.b	4
000065a6 03         9435 	.data.b	3
000065a7 16a8       9436 	.data.b	168,22
000065a9 15         9437 	.data.b	21
000065aa 04         9438 	.data.b	4
000065ab 03         9439 	.data.b	3

                                                                      Page 276
                                                              C:\Users\Fengyuan\AppData\Local\Temp\gh_00006b81.s
000065ac 16b4       9440 	.data.b	180,22
000065ae 15         9441 	.data.b	21
000065af 04         9442 	.data.b	4
000065b0 03         9443 	.data.b	3
000065b1 16b9       9444 	.data.b	185,22
000065b3 15         9445 	.data.b	21
000065b4 04         9446 	.data.b	4
000065b5 03         9447 	.data.b	3
000065b6 16c5       9448 	.data.b	197,22
000065b8 15         9449 	.data.b	21
000065b9 04         9450 	.data.b	4
000065ba 03         9451 	.data.b	3
000065bb 16ca       9452 	.data.b	202,22
000065bd 15         9453 	.data.b	21
000065be 04         9454 	.data.b	4
000065bf 03         9455 	.data.b	3
000065c0 16d6       9456 	.data.b	214,22
000065c2 15         9457 	.data.b	21
000065c3 04         9458 	.data.b	4
000065c4 03         9459 	.data.b	3
000065c5 16db       9460 	.data.b	219,22
000065c7 15         9461 	.data.b	21
000065c8 04         9462 	.data.b	4
000065c9 03         9463 	.data.b	3
000065ca 16e7       9464 	.data.b	231,22
000065cc 15         9465 	.data.b	21
000065cd 04         9466 	.data.b	4
000065ce 03         9467 	.data.b	3
000065cf 16ec       9468 	.data.b	236,22
000065d1 15         9469 	.data.b	21
000065d2 04         9470 	.data.b	4
000065d3 03         9471 	.data.b	3
000065d4 16f4       9472 	.data.b	244,22
000065d6 15         9473 	.data.b	21
000065d7 04         9474 	.data.b	4
000065d8 03         9475 	.data.b	3
000065d9 16f9       9476 	.data.b	249,22
000065db 15         9477 	.data.b	21
000065dc 04         9478 	.data.b	4
000065dd 03         9479 	.data.b	3
000065de 1781       9480 	.data.b	129,23
000065e0 15         9481 	.data.b	21
000065e1 04         9482 	.data.b	4
000065e2 03         9483 	.data.b	3
000065e3 1786       9484 	.data.b	134,23
000065e5 15         9485 	.data.b	21
000065e6 04         9486 	.data.b	4
000065e7 03         9487 	.data.b	3
000065e8 178e       9488 	.data.b	142,23
000065ea 15         9489 	.data.b	21
000065eb 04         9490 	.data.b	4
000065ec 03         9491 	.data.b	3
000065ed 1793       9492 	.data.b	147,23
000065ef 15         9493 	.data.b	21
000065f0 04         9494 	.data.b	4
000065f1 03         9495 	.data.b	3
000065f2 179b       9496 	.data.b	155,23
000065f4 15         9497 	.data.b	21
000065f5 04         9498 	.data.b	4
000065f6 03         9499 	.data.b	3
000065f7 17a0       9500 	.data.b	160,23

                                                                      Page 277
                                                              C:\Users\Fengyuan\AppData\Local\Temp\gh_00006b81.s
000065f9 15         9501 	.data.b	21
000065fa 04         9502 	.data.b	4
000065fb 03         9503 	.data.b	3
000065fc 17a8       9504 	.data.b	168,23
000065fe 15         9505 	.data.b	21
000065ff 04         9506 	.data.b	4
00006600 03         9507 	.data.b	3
00006601 17ad       9508 	.data.b	173,23
00006603 15         9509 	.data.b	21
00006604 04         9510 	.data.b	4
00006605 03         9511 	.data.b	3
00006606 17b5       9512 	.data.b	181,23
00006608 15         9513 	.data.b	21
00006609 04         9514 	.data.b	4
0000660a 03         9515 	.data.b	3
0000660b 17ba       9516 	.data.b	186,23
0000660d 15         9517 	.data.b	21
0000660e 04         9518 	.data.b	4
0000660f 03         9519 	.data.b	3
00006610 17c2       9520 	.data.b	194,23
00006612 15         9521 	.data.b	21
00006613 04         9522 	.data.b	4
00006614 03         9523 	.data.b	3
00006615 17c7       9524 	.data.b	199,23
00006617 15         9525 	.data.b	21
00006618 04         9526 	.data.b	4
00006619 03         9527 	.data.b	3
0000661a 17cf       9528 	.data.b	207,23
0000661c 15         9529 	.data.b	21
0000661d 04         9530 	.data.b	4
0000661e 03         9531 	.data.b	3
0000661f 17d4       9532 	.data.b	212,23
00006621 15         9533 	.data.b	21
00006622 04         9534 	.data.b	4
00006623 03         9535 	.data.b	3
00006624 17dc       9536 	.data.b	220,23
00006626 15         9537 	.data.b	21
00006627 04         9538 	.data.b	4
00006628 03         9539 	.data.b	3
00006629 17e1       9540 	.data.b	225,23
0000662b 15         9541 	.data.b	21
0000662c 04         9542 	.data.b	4
0000662d 03         9543 	.data.b	3
0000662e 17ed       9544 	.data.b	237,23
00006630 15         9545 	.data.b	21
00006631 04         9546 	.data.b	4
00006632 03         9547 	.data.b	3
00006633 17f2       9548 	.data.b	242,23
00006635 15         9549 	.data.b	21
00006636 04         9550 	.data.b	4
00006637 03         9551 	.data.b	3
00006638 17fe       9552 	.data.b	254,23
0000663a 15         9553 	.data.b	21
0000663b 04         9554 	.data.b	4
0000663c 03         9555 	.data.b	3
0000663d 1883       9556 	.data.b	131,24
0000663f 15         9557 	.data.b	21
00006640 04         9558 	.data.b	4
00006641 03         9559 	.data.b	3
00006642 188b       9560 	.data.b	139,24
00006644 15         9561 	.data.b	21

                                                                      Page 278
                                                              C:\Users\Fengyuan\AppData\Local\Temp\gh_00006b81.s
00006645 04         9562 	.data.b	4
00006646 03         9563 	.data.b	3
00006647 1890       9564 	.data.b	144,24
00006649 15         9565 	.data.b	21
0000664a 04         9566 	.data.b	4
0000664b 04         9567 	.data.b	4
0000664c 03         9568 	.data.b	3
0000664d 03e2       9569 	.data.b	226,3
0000664f 73         9570 	.data.b	115
00006650 04         9571 	.data.b	4
00006651 03         9572 	.data.b	3
00006652 03e8       9573 	.data.b	232,3
00006654 74         9574 	.data.b	116
00006655 01         9575 	.data.b	1
00006656 7b         9576 	.data.b	123
00006657 5f4d4544   9577 	.data.b	68,69,77,95,70,69,65,84,85,82,69,95,78,69,69,68,95,68,69,66,79,85,78,67,69,95,84,73,77,69,32,83,84,68,95,79,70,70,0
0000665b 54414546 
0000665f 5f455255 
00006663 4445454e 
00006667 4245445f 
0000666b 434e554f 
0000666f 49545f45 
00006673 5320454d 
00006677 4f5f4454 
0000667b 004646 
0000667e 01         9578 	.data.b	1
0000667f 01a0       9579 	.data.b	160,1
00006681 5f4d4544   9580 	.data.b	68,69,77,95,70,69,65,84,85,82,69,95,78,69,69,68,95,65,71,73,78,71,95,65,70,84,69,82,95,72,69,65,76,73,78,71,32,83,84,68,95,79,70,70,0
00006685 54414546 
00006689 5f455255 
0000668d 4445454e 
00006691 4947415f 
00006695 415f474e 
00006699 52455446 
0000669d 4145485f 
000066a1 474e494c 
000066a5 44545320 
000066a9 46464f5f 
000066ad 00 
000066ae 01         9581 	.data.b	1
000066af 028e       9582 	.data.b	142,2
000066b1 5f4d4544   9583 	.data.b	68,69,77,95,70,69,65,84,85,82,69,95,78,69,69,68,95,79,66,68,32,83,84,68,95,79,70,70,0
000066b5 54414546 
000066b9 5f455255 
000066bd 4445454e 
000066c1 44424f5f 
000066c5 44545320 
000066c9 46464f5f 
000066cd 00 
000066ce 01         9584 	.data.b	1
000066cf 02cb       9585 	.data.b	203,2
000066d1 5f4d4544   9586 	.data.b	68,69,77,95,70,69,65,84,85,82,69,95,78,69,69,68,95,83,80,69,67,73,65,76,95,73,78,68,73,67,65,84,79,82,83,32,83,84,68,95,79,70,70,0
000066d5 54414546 
000066d9 5f455255 
000066dd 4445454e 
000066e1 4550535f 
000066e5 4c414943 
000066e9 444e495f 
000066ed 54414349 
000066f1 2053524f 
000066f5 5f445453 

                                                                      Page 279
                                                              C:\Users\Fengyuan\AppData\Local\Temp\gh_00006b81.s
000066f9 0046464f 
000066fd 01         9587 	.data.b	1
000066fe 02d3       9588 	.data.b	211,2
00006700 5f4d4544   9589 	.data.b	68,69,77,95,70,69,65,84,85,82,69,95,78,69,69,68,95,73,78,68,73,67,65,84,79,82,83,32,83,84,68,95,79,70,70,0
00006704 54414546 
00006708 5f455255 
0000670c 4445454e 
00006710 444e495f 
00006714 54414349 
00006718 2053524f 
0000671c 5f445453 
00006720 0046464f 
00006724 01         9590 	.data.b	1
00006725 02fd       9591 	.data.b	253,2
00006727 5f4d4544   9592 	.data.b	68,69,77,95,70,69,65,84,85,82,69,95,78,69,69,68,95,84,73,77,69,95,83,69,82,73,69,83,32,83,84,68,95,79,70,70,0
0000672b 54414546 
0000672f 5f455255 
00006733 4445454e 
00006737 4d49545f 
0000673b 45535f45 
0000673f 53454952 
00006743 44545320 
00006747 46464f5f 
0000674b 00 
0000674c 01         9593 	.data.b	1
0000674d 038b       9594 	.data.b	139,3
0000674f 5f4d4544   9595 	.data.b	68,69,77,95,70,69,65,84,85,82,69,95,78,69,69,68,95,72,69,65,76,73,78,71,32,83,84,68,95,79,70,70,0
00006753 54414546 
00006757 5f455255 
0000675b 4445454e 
0000675f 4145485f 
00006763 474e494c 
00006767 44545320 
0000676b 46464f5f 
0000676f 00 
00006770 01         9596 	.data.b	1
00006771 03ac       9597 	.data.b	172,3
00006773 5f4d4544   9598 	.data.b	68,69,77,95,70,69,65,84,85,82,69,95,78,69,69,68,95,77,85,76,84,73,72,69,65,76,32,83,84,68,95,79,70,70,0
00006777 54414546 
0000677b 5f455255 
0000677f 4445454e 
00006783 4c554d5f 
00006787 45484954 
0000678b 53204c41 
0000678f 4f5f4454 
00006793 004646 
00006796 01         9599 	.data.b	1
00006797 03b6       9600 	.data.b	182,3
00006799 5f4d4544   9601 	.data.b	68,69,77,95,70,69,65,84,85,82,69,95,78,69,69,68,95,72,69,65,76,73,78,71,67,79,85,78,84,69,82,32,83,84,68,95,79,70,70,0
0000679d 54414546 
000067a1 5f455255 
000067a5 4445454e 
000067a9 4145485f 
000067ad 474e494c 
000067b1 4e554f43 
000067b5 20524554 
000067b9 5f445453 
000067bd 0046464f 
000067c1 01         9602 	.data.b	1
000067c2 03c9       9603 	.data.b	201,3
000067c4 5f4d4544   9604 	.data.b	68,69,77,95,70,69,65,84,85,82,69,95,78,69,69,68,95,67,89,67,76,69,95,67,79,85,78,84,69,82,83,32,83,84,68,95,79,70,70,0

                                                                      Page 280
                                                              C:\Users\Fengyuan\AppData\Local\Temp\gh_00006b81.s
000067c8 54414546 
000067cc 5f455255 
000067d0 4445454e 
000067d4 4359435f 
000067d8 435f454c 
000067dc 544e554f 
000067e0 20535245 
000067e4 5f445453 
000067e8 0046464f 
000067ec 01         9605 	.data.b	1
000067ed 03d4       9606 	.data.b	212,3
000067ef 5f4d4544   9607 	.data.b	68,69,77,95,70,69,65,84,85,82,69,95,78,69,69,68,95,83,84,65,84,73,83,84,73,67,65,76,95,68,65,84,65,32,83,84,68,95,79,78,0
000067f3 54414546 
000067f7 5f455255 
000067fb 4445454e 
000067ff 4154535f 
00006803 54534954 
00006807 4c414349 
0000680b 5441445f 
0000680f 54532041 
00006813 4e4f5f44 
00006817 00 
00006818 01         9608 	.data.b	1
00006819 0485       9609 	.data.b	133,4
0000681b 5f4d4544   9610 	.data.b	68,69,77,95,68,69,86,95,82,85,78,84,73,77,69,95,67,72,69,67,75,83,32,83,84,68,95,79,70,70,0
0000681f 5f564544 
00006823 544e5552 
00006827 5f454d49 
0000682b 43454843 
0000682f 5320534b 
00006833 4f5f4454 
00006837 004646 
0000683a 01         9611 	.data.b	1
0000683b 0490       9612 	.data.b	144,4
0000683d 5f4d4544   9613 	.data.b	68,69,77,95,70,69,65,84,85,82,69,95,78,69,69,68,95,80,73,68,52,49,95,77,77,79,78,76,89,95,67,65,76,67,85,76,65,84,73,79,78,32,83,84,68,95,79,70,70,0
00006841 54414546 
00006845 5f455255 
00006849 4445454e 
0000684d 4449505f 
00006851 4d5f3134 
00006855 4c4e4f4d 
00006859 41435f59 
0000685d 4c55434c 
00006861 4f495441 
00006865 5453204e 
00006869 464f5f44 
0000686d 0046 
0000686f 01         9614 	.data.b	1
00006870 049b       9615 	.data.b	155,4
00006872 5f4d4544   9616 	.data.b	68,69,77,95,70,69,65,84,85,82,69,95,78,69,69,68,95,80,73,68,52,49,95,67,67,79,78,76,89,95,67,65,76,67,85,76,65,84,73,79,78,32,83,84,68,95,79,70,70,0
00006876 54414546 
0000687a 5f455255 
0000687e 4445454e 
00006882 4449505f 
00006886 435f3134 
0000688a 4c4e4f43 
0000688e 41435f59 
00006892 4c55434c 
00006896 4f495441 
0000689a 5453204e 
0000689e 464f5f44 

                                                                      Page 281
                                                              C:\Users\Fengyuan\AppData\Local\Temp\gh_00006b81.s
000068a2 0046 
000068a4 04         9617 	.data.b	4
000068a5 03         9618 	.data.b	3
000068a6 03ee       9619 	.data.b	238,3
000068a8 75         9620 	.data.b	117
000068a9 04         9621 	.data.b	4
000068aa 03         9622 	.data.b	3
000068ab 03f3       9623 	.data.b	243,3
000068ad 76         9624 	.data.b	118
000068ae 03         9625 	.data.b	3
000068af 37         9626 	.data.b	55
000068b0 77         9627 	.data.b	119
000068b1 04         9628 	.data.b	4
000068b2 03         9629 	.data.b	3
000068b3 38         9630 	.data.b	56
000068b4 78         9631 	.data.b	120
000068b5 04         9632 	.data.b	4
000068b6 03         9633 	.data.b	3
000068b7 40         9634 	.data.b	64
000068b8 15         9635 	.data.b	21
000068b9 04         9636 	.data.b	4
000068ba 03         9637 	.data.b	3
000068bb 7a         9638 	.data.b	122
000068bc 15         9639 	.data.b	21
000068bd 04         9640 	.data.b	4
000068be 03         9641 	.data.b	3
000068bf 0180       9642 	.data.b	128,1
000068c1 15         9643 	.data.b	21
000068c2 04         9644 	.data.b	4
000068c3 03         9645 	.data.b	3
000068c4 17f3       9646 	.data.b	243,23
000068c6 15         9647 	.data.b	21
000068c7 04         9648 	.data.b	4
000068c8 04         9649 	.data.b	4
000068c9 03         9650 	.data.b	3
000068ca 05ae       9651 	.data.b	174,5
000068cc 15         9652 	.data.b	21
000068cd 04         9653 	.data.b	4
000068ce 03         9654 	.data.b	3
000068cf 05b6       9655 	.data.b	182,5
000068d1 15         9656 	.data.b	21
000068d2 04         9657 	.data.b	4
000068d3 04         9658 	.data.b	4
000068d4 03         9659 	.data.b	3
000068d5 28         9660 	.data.b	40
000068d6 79         9661 	.data.b	121
000068d7 03         9662 	.data.b	3
000068d8 3c         9663 	.data.b	60
000068d9 55         9664 	.data.b	85
000068da 04         9665 	.data.b	4
000068db 03         9666 	.data.b	3
000068dc 43         9667 	.data.b	67
000068dd 7a         9668 	.data.b	122
000068de 03         9669 	.data.b	3
000068df 36         9670 	.data.b	54
000068e0 7b         9671 	.data.b	123
000068e1 04         9672 	.data.b	4
000068e2 03         9673 	.data.b	3
000068e3 3d         9674 	.data.b	61
000068e4 15         9675 	.data.b	21
000068e5 04         9676 	.data.b	4

                                                                      Page 282
                                                              C:\Users\Fengyuan\AppData\Local\Temp\gh_00006b81.s
000068e6 03         9677 	.data.b	3
000068e7 0cf2       9678 	.data.b	242,12
000068e9 15         9679 	.data.b	21
000068ea 04         9680 	.data.b	4
000068eb 04         9681 	.data.b	4
000068ec 04         9682 	.data.b	4
000068ed 01         9683 	.data.b	1
000068ee 3b         9684 	.data.b	59
000068ef 5f4d4344   9685 	.data.b	68,67,77,95,68,73,68,77,71,82,95,79,80,95,73,78,70,79,95,73,79,67,79,78,84,82,79,76,95,69,78,65,66,76,69,68,32,83,84,68,95,79,70,70,0
000068f3 4d444944 
000068f7 4f5f5247 
000068fb 4e495f50 
000068ff 495f4f46 
00006903 4e4f434f 
00006907 4c4f5254 
0000690b 414e455f 
0000690f 44454c42 
00006913 44545320 
00006917 46464f5f 
0000691b 00 
0000691c 03         9686 	.data.b	3
0000691d 07c6       9687 	.data.b	198,7
0000691f 15         9688 	.data.b	21
00006920 04         9689 	.data.b	4
00006921 03         9690 	.data.b	3
00006922 09a0       9691 	.data.b	160,9
00006924 15         9692 	.data.b	21
00006925 04         9693 	.data.b	4
00006926 03         9694 	.data.b	3
00006927 09a7       9695 	.data.b	167,9
00006929 15         9696 	.data.b	21
0000692a 04         9697 	.data.b	4
0000692b 03         9698 	.data.b	3
0000692c 0dab       9699 	.data.b	171,13
0000692e 15         9700 	.data.b	21
0000692f 04         9701 	.data.b	4
00006930 03         9702 	.data.b	3
00006931 0db2       9703 	.data.b	178,13
00006933 15         9704 	.data.b	21
00006934 04         9705 	.data.b	4
00006935 03         9706 	.data.b	3
00006936 0dc8       9707 	.data.b	200,13
00006938 15         9708 	.data.b	21
00006939 04         9709 	.data.b	4
0000693a 03         9710 	.data.b	3
0000693b 0dcf       9711 	.data.b	207,13
0000693d 15         9712 	.data.b	21
0000693e 04         9713 	.data.b	4
0000693f 03         9714 	.data.b	3
00006940 0dd5       9715 	.data.b	213,13
00006942 15         9716 	.data.b	21
00006943 04         9717 	.data.b	4
00006944 03         9718 	.data.b	3
00006945 0ddc       9719 	.data.b	220,13
00006947 15         9720 	.data.b	21
00006948 04         9721 	.data.b	4
00006949 03         9722 	.data.b	3
0000694a 0e9e       9723 	.data.b	158,14
0000694c 15         9724 	.data.b	21
0000694d 04         9725 	.data.b	4
0000694e 04         9726 	.data.b	4

                                                                      Page 283
                                                              C:\Users\Fengyuan\AppData\Local\Temp\gh_00006b81.s
0000694f 03         9727 	.data.b	3
00006950 0395       9728 	.data.b	149,3
00006952 7c         9729 	.data.b	124
00006953 04         9730 	.data.b	4
00006954 03         9731 	.data.b	3
00006955 0396       9732 	.data.b	150,3
00006957 7d         9733 	.data.b	125
00006958 04         9734 	.data.b	4
00006959 03         9735 	.data.b	3
0000695a 0397       9736 	.data.b	151,3
0000695c 7e         9737 	.data.b	126
0000695d 03         9738 	.data.b	3
0000695e 5e         9739 	.data.b	94
0000695f 15         9740 	.data.b	21
00006960 04         9741 	.data.b	4
00006961 03         9742 	.data.b	3
00006962 0188       9743 	.data.b	136,1
00006964 15         9744 	.data.b	21
00006965 04         9745 	.data.b	4
00006966 03         9746 	.data.b	3
00006967 018f       9747 	.data.b	143,1
00006969 15         9748 	.data.b	21
0000696a 04         9749 	.data.b	4
0000696b 03         9750 	.data.b	3
0000696c 0196       9751 	.data.b	150,1
0000696e 15         9752 	.data.b	21
0000696f 04         9753 	.data.b	4
00006970 04         9754 	.data.b	4
00006971 03         9755 	.data.b	3
00006972 0398       9756 	.data.b	152,3
00006974 7f         9757 	.data.b	127
00006975 03         9758 	.data.b	3
00006976 04f6       9759 	.data.b	246,4
00006978 15         9760 	.data.b	21
00006979 04         9761 	.data.b	4
0000697a 03         9762 	.data.b	3
0000697b 08bb       9763 	.data.b	187,8
0000697d 15         9764 	.data.b	21
0000697e 04         9765 	.data.b	4
0000697f 03         9766 	.data.b	3
00006980 08c2       9767 	.data.b	194,8
00006982 15         9768 	.data.b	21
00006983 04         9769 	.data.b	4
00006984 03         9770 	.data.b	3
00006985 0adb       9771 	.data.b	219,10
00006987 15         9772 	.data.b	21
00006988 04         9773 	.data.b	4
00006989 04         9774 	.data.b	4
0000698a 04         9775 	.data.b	4
0000698b 03         9776 	.data.b	3
0000698c 3f         9777 	.data.b	63
0000698d 15         9778 	.data.b	21
0000698e 04         9779 	.data.b	4
0000698f 03         9780 	.data.b	3
00006990 60         9781 	.data.b	96
00006991 15         9782 	.data.b	21
00006992 04         9783 	.data.b	4
00006993 04         9784 	.data.b	4
00006994 03         9785 	.data.b	3
00006995 2c         9786 	.data.b	44
00006996 0180       9787 	.data.b	128,1

                                                                      Page 284
                                                              C:\Users\Fengyuan\AppData\Local\Temp\gh_00006b81.s
00006998 01         9788 	.data.b	1
00006999 1f         9789 	.data.b	31
0000699a 4d575342   9790 	.data.b	66,83,87,77,95,69,67,85,77,95,72,32,0
0000699e 5543455f 
000069a2 20485f4d 
000069a6 00 
000069a7 03         9791 	.data.b	3
000069a8 3f         9792 	.data.b	63
000069a9 15         9793 	.data.b	21
000069aa 04         9794 	.data.b	4
000069ab 03         9795 	.data.b	3
000069ac 71         9796 	.data.b	113
000069ad 15         9797 	.data.b	21
000069ae 04         9798 	.data.b	4
000069af 04         9799 	.data.b	4
000069b0 01         9800 	.data.b	1
000069b1 36         9801 	.data.b	54
000069b2 4d575342   9802 	.data.b	66,83,87,77,95,68,85,77,77,89,95,83,84,65,84,69,77,69,78,84,40,118,41,32,40,118,41,61,40,118,41,0
000069b6 4d55445f 
000069ba 535f594d 
000069be 45544154 
000069c2 544e454d 
000069c6 20297628 
000069ca 3d297628 
000069ce 00297628 
000069d2 01         9803 	.data.b	1
000069d3 7c         9804 	.data.b	124
000069d4 4d575342   9805 	.data.b	66,83,87,77,95,69,78,65,66,76,69,95,82,85,76,69,95,67,79,78,84,82,79,76,32,83,84,68,95,79,70,70,0
000069d8 414e455f 
000069dc 5f454c42 
000069e0 454c5552 
000069e4 4e4f435f 
000069e8 4c4f5254 
000069ec 44545320 
000069f0 46464f5f 
000069f4 00 
000069f5 01         9806 	.data.b	1
000069f6 7d         9807 	.data.b	125
000069f7 4d575342   9808 	.data.b	66,83,87,77,95,86,69,82,83,73,79,78,95,73,78,70,79,95,65,80,73,32,83,84,68,95,79,70,70,0
000069fb 5245565f 
000069ff 4e4f4953 
00006a03 464e495f 
00006a07 50415f4f 
00006a0b 54532049 
00006a0f 464f5f44 
00006a13 0046 
00006a15 01         9809 	.data.b	1
00006a16 0690       9810 	.data.b	144,6
00006a18 4d777342   9811 	.data.b	66,115,119,77,95,67,111,110,102,105,103,95,80,116,114,32,78,85,76,76,95,80,84,82,0
00006a1c 6e6f435f 
00006a20 5f676966 
00006a24 20727450 
00006a28 4c4c554e 
00006a2c 5254505f 
00006a30 00 
00006a31 03         9812 	.data.b	3
00006a32 0a80       9813 	.data.b	128,10
00006a34 15         9814 	.data.b	21
00006a35 04         9815 	.data.b	4
00006a36 03         9816 	.data.b	3
00006a37 0a85       9817 	.data.b	133,10

                                                                      Page 285
                                                              C:\Users\Fengyuan\AppData\Local\Temp\gh_00006b81.s
00006a39 15         9818 	.data.b	21
00006a3a 04         9819 	.data.b	4
00006a3b 03         9820 	.data.b	3
00006a3c 0a93       9821 	.data.b	147,10
00006a3e 15         9822 	.data.b	21
00006a3f 04         9823 	.data.b	4
00006a40 03         9824 	.data.b	3
00006a41 0aa5       9825 	.data.b	165,10
00006a43 15         9826 	.data.b	21
00006a44 04         9827 	.data.b	4
00006a45 04         9828 	.data.b	4
00006a46 03         9829 	.data.b	3
00006a47 01e5       9830 	.data.b	229,1
00006a49 15         9831 	.data.b	21
00006a4a 04         9832 	.data.b	4
00006a4b 03         9833 	.data.b	3
00006a4c 02da       9834 	.data.b	218,2
00006a4e 15         9835 	.data.b	21
00006a4f 04         9836 	.data.b	4
00006a50 04         9837 	.data.b	4
00006a51 03         9838 	.data.b	3
00006a52 36         9839 	.data.b	54
00006a53 0180       9840 	.data.b	128,1
00006a55 04         9841 	.data.b	4
00006a56 03         9842 	.data.b	3
00006a57 38         9843 	.data.b	56
00006a58 0181       9844 	.data.b	129,1
00006a5a 01         9845 	.data.b	1
00006a5b 2f         9846 	.data.b	47
00006a5c 4d756345   9847 	.data.b	69,99,117,77,95,83,84,65,82,84,95,83,69,67,95,67,79,68,69,32,0
00006a60 4154535f 
00006a64 535f5452 
00006a68 435f4345 
00006a6c 2045444f 
00006a70 00 
00006a71 03         9848 	.data.b	3
00006a72 30         9849 	.data.b	48
00006a73 0182       9850 	.data.b	130,1
00006a75 03         9851 	.data.b	3
00006a76 38         9852 	.data.b	56
00006a77 15         9853 	.data.b	21
00006a78 04         9854 	.data.b	4
00006a79 04         9855 	.data.b	4
00006a7a 01         9856 	.data.b	1
00006a7b 4a         9857 	.data.b	74
00006a7c 4d756345   9858 	.data.b	69,99,117,77,95,83,84,79,80,95,83,69,67,95,67,79,68,69,32,0
00006a80 4f54535f 
00006a84 45535f50 
00006a88 4f435f43 
00006a8c 00204544 
00006a90 03         9859 	.data.b	3
00006a91 4b         9860 	.data.b	75
00006a92 0182       9861 	.data.b	130,1
00006a94 03         9862 	.data.b	3
00006a95 018a       9863 	.data.b	138,1
00006a97 15         9864 	.data.b	21
00006a98 04         9865 	.data.b	4
00006a99 04         9866 	.data.b	4
00006a9a 04         9867 	.data.b	4
00006a9b 03         9868 	.data.b	3
00006a9c 39         9869 	.data.b	57

                                                                      Page 286
                                                              C:\Users\Fengyuan\AppData\Local\Temp\gh_00006b81.s
00006a9d 0183       9870 	.data.b	131,1
00006a9f 03         9871 	.data.b	3
00006aa0 1d         9872 	.data.b	29
00006aa1 15         9873 	.data.b	21
00006aa2 04         9874 	.data.b	4
00006aa3 03         9875 	.data.b	3
00006aa4 2b         9876 	.data.b	43
00006aa5 15         9877 	.data.b	21
00006aa6 04         9878 	.data.b	4
00006aa7 04         9879 	.data.b	4
00006aa8 03         9880 	.data.b	3
00006aa9 3a         9881 	.data.b	58
00006aaa 0184       9882 	.data.b	132,1
00006aac 03         9883 	.data.b	3
00006aad 1c         9884 	.data.b	28
00006aae 0185       9885 	.data.b	133,1
00006ab0 04         9886 	.data.b	4
00006ab1 03         9887 	.data.b	3
00006ab2 1e         9888 	.data.b	30
00006ab3 19         9889 	.data.b	25
00006ab4 04         9890 	.data.b	4
00006ab5 03         9891 	.data.b	3
00006ab6 21         9892 	.data.b	33
00006ab7 15         9893 	.data.b	21
00006ab8 04         9894 	.data.b	4
00006ab9 03         9895 	.data.b	3
00006aba 26         9896 	.data.b	38
00006abb 15         9897 	.data.b	21
00006abc 04         9898 	.data.b	4
00006abd 01         9899 	.data.b	1
00006abe 28         9900 	.data.b	40
00006abf 4d686353   9901 	.data.b	83,99,104,77,95,69,110,116,101,114,95,69,99,117,77,95,69,67,85,77,95,69,88,67,76,85,83,73,86,69,95,65,82,69,65,95,48,40,41,32,83,117,115,112,101,110,100,65,108,108,73,110,116,101,114,114,117,112,116,115
00006ac3 746e455f 
00006ac7 455f7265 
00006acb 5f4d7563 
00006acf 4d554345 
00006ad3 4358455f 
00006ad7 4953554c 
00006adb 415f4556 
00006adf 5f414552 
00006ae3 20292830 
00006ae7 70737553 
00006aeb 41646e65 
00006aef 6e496c6c 
00006af3 72726574 
00006af7 73747075 
00006afb 002928     9902 	.data.b	40,41,0
00006afe 01         9903 	.data.b	1
00006aff 2a         9904 	.data.b	42
00006b00 4d686353   9905 	.data.b	83,99,104,77,95,69,120,105,116,95,69,99,117,77,95,69,67,85,77,95,69,88,67,76,85,83,73,86,69,95,65,82,69,65,95,48,40,41,32,82,101,115,117,109,101,65,108,108,73,110,116,101,114,114,117,112,116,115,40,41
00006b04 6978455f 
00006b08 63455f74 
00006b0c 455f4d75 
00006b10 5f4d5543 
00006b14 4c435845 
00006b18 56495355 
00006b1c 52415f45 
00006b20 305f4145 
00006b24 52202928 
00006b28 6d757365 
00006b2c 6c6c4165 

                                                                      Page 287
                                                              C:\Users\Fengyuan\AppData\Local\Temp\gh_00006b81.s
00006b30 65746e49 
00006b34 70757272 
00006b38 29287374 
00006b3c 00         9906 	.data.b	0
00006b3d 04         9907 	.data.b	4
00006b3e 03         9908 	.data.b	3
00006b3f 41         9909 	.data.b	65
00006b40 0186       9910 	.data.b	134,1
00006b42 03         9911 	.data.b	3
00006b43 26         9912 	.data.b	38
00006b44 15         9913 	.data.b	21
00006b45 04         9914 	.data.b	4
00006b46 03         9915 	.data.b	3
00006b47 39         9916 	.data.b	57
00006b48 15         9917 	.data.b	21
00006b49 04         9918 	.data.b	4
00006b4a 04         9919 	.data.b	4
00006b4b 01         9920 	.data.b	1
00006b4c 0184       9921 	.data.b	132,1
00006b4e 4d554345   9922 	.data.b	69,67,85,77,95,84,73,77,69,79,85,84,79,70,87,65,75,69,85,80,83,79,85,82,67,69,76,73,83,84,32,83,84,68,95,79,70,70,0
00006b52 4d49545f 
00006b56 54554f45 
00006b5a 4157464f 
00006b5e 5055454b 
00006b62 52554f53 
00006b66 494c4543 
00006b6a 53205453 
00006b6e 4f5f4454 
00006b72 004646 
00006b75 01         9923 	.data.b	1
00006b76 0192       9924 	.data.b	146,1
00006b78 4d554345   9925 	.data.b	69,67,85,77,95,67,79,77,66,73,78,69,68,87,65,75,69,85,80,83,32,40,69,99,117,77,95,86,97,108,105,100,97,116,101,100,87,97,107,101,117,112,115,41,0
00006b7c 4d4f435f 
00006b80 454e4942 
00006b84 4b415744 
00006b88 53505545 
00006b8c 63452820 
00006b90 565f4d75 
00006b94 64696c61 
00006b98 64657461 
00006b9c 656b6157 
00006ba0 29737075 
00006ba4 00 
00006ba5 01         9926 	.data.b	1
00006ba6 01a9       9927 	.data.b	169,1
00006ba8 4d756345   9928 	.data.b	69,99,117,77,95,69,110,116,101,114,67,114,105,116,105,99,97,108,65,114,101,97,95,48,40,41,32,83,99,104,77,95,69,110,116,101,114,95,69,99,117,77,95,69,67,85,77,95,69,88,67,76,85,83,73,86,69,95,65,82
00006bac 746e455f 
00006bb0 72437265 
00006bb4 63697469 
00006bb8 72416c61 
00006bbc 305f6165 
00006bc0 53202928 
00006bc4 5f4d6863 
00006bc8 65746e45 
00006bcc 63455f72 
00006bd0 455f4d75 
00006bd4 5f4d5543 
00006bd8 4c435845 
00006bdc 56495355 
00006be0 52415f45 
00006be4 305f4145   9929 	.data.b	69,65,95,48,40,41,0

                                                                      Page 288
                                                              C:\Users\Fengyuan\AppData\Local\Temp\gh_00006b81.s
00006be8 002928 
00006beb 01         9930 	.data.b	1
00006bec 01aa       9931 	.data.b	170,1
00006bee 4d756345   9932 	.data.b	69,99,117,77,95,76,101,97,118,101,67,114,105,116,105,99,97,108,65,114,101,97,95,48,40,41,32,83,99,104,77,95,69,120,105,116,95,69,99,117,77,95,69,67,85,77,95,69,88,67,76,85,83,73,86,69,95,65,82,69
00006bf2 61654c5f 
00006bf6 72436576 
00006bfa 63697469 
00006bfe 72416c61 
00006c02 305f6165 
00006c06 53202928 
00006c0a 5f4d6863 
00006c0e 74697845 
00006c12 7563455f 
00006c16 43455f4d 
00006c1a 455f4d55 
00006c1e 554c4358 
00006c22 45564953 
00006c26 4552415f 
00006c2a 28305f41   9933 	.data.b	65,95,48,40,41,0
00006c2e 0029 
00006c30 01         9934 	.data.b	1
00006c31 01c3       9935 	.data.b	195,1
00006c33 4d756345   9936 	.data.b	69,99,117,77,95,69,110,116,101,114,65,116,111,109,105,99,65,99,99,101,115,115,95,48,40,41,32,0
00006c37 746e455f 
00006c3b 74417265 
00006c3f 63696d6f 
00006c43 65636341 
00006c47 305f7373 
00006c4b 00202928 
00006c4f 01         9937 	.data.b	1
00006c50 01c4       9938 	.data.b	196,1
00006c52 4d756345   9939 	.data.b	69,99,117,77,95,76,101,97,118,101,65,116,111,109,105,99,65,99,99,101,115,115,95,48,40,41,32,0
00006c56 61654c5f 
00006c5a 74416576 
00006c5e 63696d6f 
00006c62 65636341 
00006c66 305f7373 
00006c6a 00202928 
00006c6e 01         9940 	.data.b	1
00006c6f 01e3       9941 	.data.b	227,1
00006c71 4d554345   9942 	.data.b	69,67,85,77,95,68,82,73,86,69,82,73,78,73,84,76,73,83,84,95,90,69,82,79,32,69,99,117,77,95,65,76,95,68,114,105,118,101,114,73,110,105,116,90,101,114,111,0
00006c75 4952445f 
00006c79 49524556 
00006c7d 4c54494e 
00006c81 5f545349 
00006c85 4f52455a 
00006c89 75634520 
00006c8d 4c415f4d 
00006c91 6972445f 
00006c95 49726576 
00006c99 5a74696e 
00006c9d 006f7265 
00006ca1 01         9943 	.data.b	1
00006ca2 01e4       9944 	.data.b	228,1
00006ca4 4d554345   9945 	.data.b	69,67,85,77,95,68,82,73,86,69,82,73,78,73,84,76,73,83,84,95,79,78,69,32,69,99,117,77,95,71,101,116,70,117,110,99,116,105,111,110,79,102,68,114,105,118,101,114,73,110,105,116,79,110,101,40,48,41,0
00006ca8 4952445f 
00006cac 49524556 
00006cb0 4c54494e 
00006cb4 5f545349 
00006cb8 20454e4f 
00006cbc 4d756345 

                                                                      Page 289
                                                              C:\Users\Fengyuan\AppData\Local\Temp\gh_00006b81.s
00006cc0 7465475f 
00006cc4 636e7546 
00006cc8 6e6f6974 
00006ccc 7244664f 
00006cd0 72657669 
00006cd4 74696e49 
00006cd8 28656e4f 
00006cdc 002930 
00006cdf 01         9946 	.data.b	1
00006ce0 01f7       9947 	.data.b	247,1
00006ce2 4d554345   9948 	.data.b	69,67,85,77,95,76,79,67,65,76,32,115,116,97,116,105,99,0
00006ce6 434f4c5f 
00006cea 73204c41 
00006cee 69746174 
00006cf2 0063 
00006cf4 01         9949 	.data.b	1
00006cf5 01fb       9950 	.data.b	251,1
00006cf7 4d554345   9951 	.data.b	69,67,85,77,95,76,79,67,65,76,95,73,78,76,73,78,69,32,76,79,67,65,76,95,73,78,76,73,78,69,0
00006cfb 434f4c5f 
00006cff 495f4c41 
00006d03 4e494c4e 
00006d07 4f4c2045 
00006d0b 5f4c4143 
00006d0f 494c4e49 
00006d13 00454e 
00006d16 03         9952 	.data.b	3
00006d17 0283       9953 	.data.b	131,2
00006d19 15         9954 	.data.b	21
00006d1a 04         9955 	.data.b	4
00006d1b 03         9956 	.data.b	3
00006d1c 02a5       9957 	.data.b	165,2
00006d1e 15         9958 	.data.b	21
00006d1f 04         9959 	.data.b	4
00006d20 03         9960 	.data.b	3
00006d21 02a8       9961 	.data.b	168,2
00006d23 15         9962 	.data.b	21
00006d24 04         9963 	.data.b	4
00006d25 03         9964 	.data.b	3
00006d26 02e1       9965 	.data.b	225,2
00006d28 15         9966 	.data.b	21
00006d29 04         9967 	.data.b	4
00006d2a 03         9968 	.data.b	3
00006d2b 0384       9969 	.data.b	132,3
00006d2d 15         9970 	.data.b	21
00006d2e 04         9971 	.data.b	4
00006d2f 03         9972 	.data.b	3
00006d30 2aed       9973 	.data.b	237,42
00006d32 15         9974 	.data.b	21
00006d33 04         9975 	.data.b	4
00006d34 04         9976 	.data.b	4
00006d35 00         9977 	.data.b	0
                    9978 	.section	.debug_abbrev
000001a0 00         9979 	.data.b	0
                    9980 	.section	.debug_info
                    9981 .Ldw_end:
